ARM GAS  C:\Users\chemi\AppData\Local\Temp\ccNFMF9g.s 			page 1


   1              		.syntax unified
   2              		.cpu cortex-m3
   3              		.fpu softvfp
   4              		.eabi_attribute 20, 1
   5              		.eabi_attribute 21, 1
   6              		.eabi_attribute 23, 3
   7              		.eabi_attribute 24, 1
   8              		.eabi_attribute 25, 1
   9              		.eabi_attribute 26, 1
  10              		.eabi_attribute 30, 4
  11              		.eabi_attribute 34, 1
  12              		.eabi_attribute 18, 4
  13              		.thumb
  14              		.syntax unified
  15              		.file	"ADC.c"
  16              		.text
  17              	.Ltext0:
  18              		.cfi_sections	.debug_frame
  19              		.section	.text.ADC_Enable,"ax",%progbits
  20              		.align	1
  21              		.global	ADC_Enable
  22              		.thumb
  23              		.thumb_func
  24              		.type	ADC_Enable, %function
  25              	ADC_Enable:
  26              	.LFB2:
  27              		.file 1 "Generated_Source\\PSoC5\\ADC.c"
   1:Generated_Source\PSoC5/ADC.c **** /*******************************************************************************
   2:Generated_Source\PSoC5/ADC.c **** * File Name: ADC.c
   3:Generated_Source\PSoC5/ADC.c **** * Version 3.10
   4:Generated_Source\PSoC5/ADC.c **** *
   5:Generated_Source\PSoC5/ADC.c **** * Description:
   6:Generated_Source\PSoC5/ADC.c **** *  This file provides the source code to the API for the Successive
   7:Generated_Source\PSoC5/ADC.c **** *  approximation ADC Component.
   8:Generated_Source\PSoC5/ADC.c **** *
   9:Generated_Source\PSoC5/ADC.c **** * Note:
  10:Generated_Source\PSoC5/ADC.c **** *
  11:Generated_Source\PSoC5/ADC.c **** ********************************************************************************
  12:Generated_Source\PSoC5/ADC.c **** * Copyright 2008-2015, Cypress Semiconductor Corporation.  All rights reserved.
  13:Generated_Source\PSoC5/ADC.c **** * You may use this file only in accordance with the license, terms, conditions,
  14:Generated_Source\PSoC5/ADC.c **** * disclaimers, and limitations in the end user license agreement accompanying
  15:Generated_Source\PSoC5/ADC.c **** * the software package with which this file was provided.
  16:Generated_Source\PSoC5/ADC.c **** *******************************************************************************/
  17:Generated_Source\PSoC5/ADC.c **** 
  18:Generated_Source\PSoC5/ADC.c **** #include "CyLib.h"
  19:Generated_Source\PSoC5/ADC.c **** #include "ADC.h"
  20:Generated_Source\PSoC5/ADC.c **** 
  21:Generated_Source\PSoC5/ADC.c **** #if(ADC_DEFAULT_INTERNAL_CLK)
  22:Generated_Source\PSoC5/ADC.c ****     #include "ADC_theACLK.h"
  23:Generated_Source\PSoC5/ADC.c **** #endif /* End ADC_DEFAULT_INTERNAL_CLK */
  24:Generated_Source\PSoC5/ADC.c **** 
  25:Generated_Source\PSoC5/ADC.c **** 
  26:Generated_Source\PSoC5/ADC.c **** /***************************************
  27:Generated_Source\PSoC5/ADC.c **** * Forward function references
  28:Generated_Source\PSoC5/ADC.c **** ***************************************/
  29:Generated_Source\PSoC5/ADC.c **** static void ADC_CalcGain(uint8 resolution);
  30:Generated_Source\PSoC5/ADC.c **** 
ARM GAS  C:\Users\chemi\AppData\Local\Temp\ccNFMF9g.s 			page 2


  31:Generated_Source\PSoC5/ADC.c **** 
  32:Generated_Source\PSoC5/ADC.c **** /***************************************
  33:Generated_Source\PSoC5/ADC.c **** * Global data allocation
  34:Generated_Source\PSoC5/ADC.c **** ***************************************/
  35:Generated_Source\PSoC5/ADC.c **** uint8 ADC_initVar = 0u;
  36:Generated_Source\PSoC5/ADC.c **** volatile int16 ADC_offset;
  37:Generated_Source\PSoC5/ADC.c **** volatile int16 ADC_countsPerVolt;     /* Obsolete Gain compensation */
  38:Generated_Source\PSoC5/ADC.c **** volatile int32 ADC_countsPer10Volt;   /* Gain compensation */
  39:Generated_Source\PSoC5/ADC.c **** volatile int16 ADC_shift;
  40:Generated_Source\PSoC5/ADC.c **** 
  41:Generated_Source\PSoC5/ADC.c **** 
  42:Generated_Source\PSoC5/ADC.c **** /*******************************************************************************
  43:Generated_Source\PSoC5/ADC.c **** * Function Name: ADC_Start
  44:Generated_Source\PSoC5/ADC.c **** ********************************************************************************
  45:Generated_Source\PSoC5/ADC.c **** *
  46:Generated_Source\PSoC5/ADC.c **** * Summary:
  47:Generated_Source\PSoC5/ADC.c **** *  This is the preferred method to begin component operation.
  48:Generated_Source\PSoC5/ADC.c **** *  ADC_Start() sets the initVar variable, calls the
  49:Generated_Source\PSoC5/ADC.c **** *  ADC_Init() function, and then calls the
  50:Generated_Source\PSoC5/ADC.c **** *  ADC_Enable() function.
  51:Generated_Source\PSoC5/ADC.c **** *
  52:Generated_Source\PSoC5/ADC.c **** * Parameters:
  53:Generated_Source\PSoC5/ADC.c **** *  None.
  54:Generated_Source\PSoC5/ADC.c **** *
  55:Generated_Source\PSoC5/ADC.c **** * Return:
  56:Generated_Source\PSoC5/ADC.c **** *  None.
  57:Generated_Source\PSoC5/ADC.c **** *
  58:Generated_Source\PSoC5/ADC.c **** * Global variables:
  59:Generated_Source\PSoC5/ADC.c **** *  The ADC_initVar variable is used to indicate when/if initial
  60:Generated_Source\PSoC5/ADC.c **** *  configuration of this component has happened. The variable is initialized to
  61:Generated_Source\PSoC5/ADC.c **** *  zero and set to 1 the first time ADC_Start() is called. This allows for
  62:Generated_Source\PSoC5/ADC.c **** *  component Re-Start without re-initialization in all subsequent calls to the
  63:Generated_Source\PSoC5/ADC.c **** *  ADC_Start() routine.
  64:Generated_Source\PSoC5/ADC.c **** *  If re-initialization of the component is required the variable should be set
  65:Generated_Source\PSoC5/ADC.c **** *  to zero before call of ADC_Start() routine, or the user may call
  66:Generated_Source\PSoC5/ADC.c **** *  ADC_Init() and ADC_Enable() as done in the
  67:Generated_Source\PSoC5/ADC.c **** *  ADC_Start() routine.
  68:Generated_Source\PSoC5/ADC.c **** *
  69:Generated_Source\PSoC5/ADC.c **** * Side Effect:
  70:Generated_Source\PSoC5/ADC.c **** *  If the initVar variable is already set, this function only calls the
  71:Generated_Source\PSoC5/ADC.c **** *  ADC_Enable() function.
  72:Generated_Source\PSoC5/ADC.c **** *
  73:Generated_Source\PSoC5/ADC.c **** *******************************************************************************/
  74:Generated_Source\PSoC5/ADC.c **** void ADC_Start(void)
  75:Generated_Source\PSoC5/ADC.c **** {
  76:Generated_Source\PSoC5/ADC.c **** 
  77:Generated_Source\PSoC5/ADC.c ****     /* If not Initialized then initialize all required hardware and software */
  78:Generated_Source\PSoC5/ADC.c ****     if(ADC_initVar == 0u)
  79:Generated_Source\PSoC5/ADC.c ****     {
  80:Generated_Source\PSoC5/ADC.c ****         ADC_Init();
  81:Generated_Source\PSoC5/ADC.c ****         ADC_initVar = 1u;
  82:Generated_Source\PSoC5/ADC.c ****     }
  83:Generated_Source\PSoC5/ADC.c ****     ADC_Enable();
  84:Generated_Source\PSoC5/ADC.c **** }
  85:Generated_Source\PSoC5/ADC.c **** 
  86:Generated_Source\PSoC5/ADC.c **** 
  87:Generated_Source\PSoC5/ADC.c **** /*******************************************************************************
ARM GAS  C:\Users\chemi\AppData\Local\Temp\ccNFMF9g.s 			page 3


  88:Generated_Source\PSoC5/ADC.c **** * Function Name: ADC_Init
  89:Generated_Source\PSoC5/ADC.c **** ********************************************************************************
  90:Generated_Source\PSoC5/ADC.c **** *
  91:Generated_Source\PSoC5/ADC.c **** * Summary:
  92:Generated_Source\PSoC5/ADC.c **** *  Initialize component's parameters to the parameters set by user in the
  93:Generated_Source\PSoC5/ADC.c **** *  customizer of the component placed onto schematic. Usually called in
  94:Generated_Source\PSoC5/ADC.c **** *  ADC_Start().
  95:Generated_Source\PSoC5/ADC.c **** *
  96:Generated_Source\PSoC5/ADC.c **** * Parameters:
  97:Generated_Source\PSoC5/ADC.c **** *  None.
  98:Generated_Source\PSoC5/ADC.c **** *
  99:Generated_Source\PSoC5/ADC.c **** * Return:
 100:Generated_Source\PSoC5/ADC.c **** *  None.
 101:Generated_Source\PSoC5/ADC.c **** *
 102:Generated_Source\PSoC5/ADC.c **** * Global variables:
 103:Generated_Source\PSoC5/ADC.c **** *  The ADC_offset variable is initialized to 0.
 104:Generated_Source\PSoC5/ADC.c **** *
 105:Generated_Source\PSoC5/ADC.c **** *******************************************************************************/
 106:Generated_Source\PSoC5/ADC.c **** void ADC_Init(void)
 107:Generated_Source\PSoC5/ADC.c **** {
 108:Generated_Source\PSoC5/ADC.c **** 
 109:Generated_Source\PSoC5/ADC.c ****     /* This is only valid if there is an internal clock */
 110:Generated_Source\PSoC5/ADC.c ****     #if(ADC_DEFAULT_INTERNAL_CLK)
 111:Generated_Source\PSoC5/ADC.c ****         ADC_theACLK_SetMode(CYCLK_DUTY);
 112:Generated_Source\PSoC5/ADC.c ****     #endif /* End ADC_DEFAULT_INTERNAL_CLK */
 113:Generated_Source\PSoC5/ADC.c **** 
 114:Generated_Source\PSoC5/ADC.c ****     #if(ADC_IRQ_REMOVE == 0u)
 115:Generated_Source\PSoC5/ADC.c ****         /* Start and set interrupt vector */
 116:Generated_Source\PSoC5/ADC.c ****         CyIntSetPriority(ADC_INTC_NUMBER, ADC_INTC_PRIOR_NUMBER);
 117:Generated_Source\PSoC5/ADC.c ****         (void)CyIntSetVector(ADC_INTC_NUMBER, &ADC_ISR);
 118:Generated_Source\PSoC5/ADC.c ****     #endif   /* End ADC_IRQ_REMOVE */
 119:Generated_Source\PSoC5/ADC.c **** 
 120:Generated_Source\PSoC5/ADC.c ****     /* Enable IRQ mode*/
 121:Generated_Source\PSoC5/ADC.c ****     ADC_SAR_CSR1_REG |= ADC_SAR_IRQ_MASK_EN | ADC_SAR_IRQ_MODE_EDGE;
 122:Generated_Source\PSoC5/ADC.c **** 
 123:Generated_Source\PSoC5/ADC.c ****     /*Set SAR ADC resolution ADC */
 124:Generated_Source\PSoC5/ADC.c ****     ADC_SetResolution(ADC_DEFAULT_RESOLUTION);
 125:Generated_Source\PSoC5/ADC.c ****     ADC_offset = 0;
 126:Generated_Source\PSoC5/ADC.c **** }
 127:Generated_Source\PSoC5/ADC.c **** 
 128:Generated_Source\PSoC5/ADC.c **** 
 129:Generated_Source\PSoC5/ADC.c **** /*******************************************************************************
 130:Generated_Source\PSoC5/ADC.c **** * Function Name: ADC_Enable
 131:Generated_Source\PSoC5/ADC.c **** ********************************************************************************
 132:Generated_Source\PSoC5/ADC.c **** *
 133:Generated_Source\PSoC5/ADC.c **** * Summary:
 134:Generated_Source\PSoC5/ADC.c **** *  Enables the reference, clock and power for SAR ADC.
 135:Generated_Source\PSoC5/ADC.c **** *
 136:Generated_Source\PSoC5/ADC.c **** * Parameters:
 137:Generated_Source\PSoC5/ADC.c **** *  None.
 138:Generated_Source\PSoC5/ADC.c **** *
 139:Generated_Source\PSoC5/ADC.c **** * Return:
 140:Generated_Source\PSoC5/ADC.c **** *  None.
 141:Generated_Source\PSoC5/ADC.c **** *
 142:Generated_Source\PSoC5/ADC.c **** *******************************************************************************/
 143:Generated_Source\PSoC5/ADC.c **** void ADC_Enable(void)
 144:Generated_Source\PSoC5/ADC.c **** {
ARM GAS  C:\Users\chemi\AppData\Local\Temp\ccNFMF9g.s 			page 4


  28              		.loc 1 144 0
  29              		.cfi_startproc
  30              		@ args = 0, pretend = 0, frame = 0
  31              		@ frame_needed = 0, uses_anonymous_args = 0
  32 0000 38B5     		push	{r3, r4, r5, lr}
  33              		.cfi_def_cfa_offset 16
  34              		.cfi_offset 3, -16
  35              		.cfi_offset 4, -12
  36              		.cfi_offset 5, -8
  37              		.cfi_offset 14, -4
 145:Generated_Source\PSoC5/ADC.c ****     uint8 tmpReg;
 146:Generated_Source\PSoC5/ADC.c ****     uint8 enableInterrupts;
 147:Generated_Source\PSoC5/ADC.c ****     enableInterrupts = CyEnterCriticalSection();
  38              		.loc 1 147 0
  39 0002 FFF7FEFF 		bl	CyEnterCriticalSection
  40              	.LVL0:
 148:Generated_Source\PSoC5/ADC.c **** 
 149:Generated_Source\PSoC5/ADC.c ****     /* Enable the SAR ADC block in Active Power Mode */
 150:Generated_Source\PSoC5/ADC.c ****     ADC_PWRMGR_SAR_REG |= ADC_ACT_PWR_SAR_EN;
  41              		.loc 1 150 0
  42 0006 204A     		ldr	r2, .L2
 147:Generated_Source\PSoC5/ADC.c **** 
  43              		.loc 1 147 0
  44 0008 0446     		mov	r4, r0
  45              	.LVL1:
  46              		.loc 1 150 0
  47 000a 1378     		ldrb	r3, [r2]	@ zero_extendqisi2
 151:Generated_Source\PSoC5/ADC.c **** 
 152:Generated_Source\PSoC5/ADC.c ****      /* Enable the SAR ADC in Standby Power Mode*/
 153:Generated_Source\PSoC5/ADC.c ****     ADC_STBY_PWRMGR_SAR_REG |= ADC_STBY_PWR_SAR_EN;
 154:Generated_Source\PSoC5/ADC.c **** 
 155:Generated_Source\PSoC5/ADC.c ****     /* This is only valid if there is an internal clock */
 156:Generated_Source\PSoC5/ADC.c ****     #if(ADC_DEFAULT_INTERNAL_CLK)
 157:Generated_Source\PSoC5/ADC.c ****         ADC_PWRMGR_CLK_REG |= ADC_ACT_PWR_CLK_EN;
 158:Generated_Source\PSoC5/ADC.c ****         ADC_STBY_PWRMGR_CLK_REG |= ADC_STBY_PWR_CLK_EN;
 159:Generated_Source\PSoC5/ADC.c ****     #endif /* End ADC_DEFAULT_INTERNAL_CLK */
 160:Generated_Source\PSoC5/ADC.c **** 
 161:Generated_Source\PSoC5/ADC.c ****     /* Enable VCM buffer and Enable Int Ref Amp */
 162:Generated_Source\PSoC5/ADC.c ****     tmpReg = ADC_SAR_CSR3_REG;
 163:Generated_Source\PSoC5/ADC.c ****     tmpReg |= ADC_SAR_EN_BUF_VCM_EN;
 164:Generated_Source\PSoC5/ADC.c ****     /* PD_BUF_VREF is OFF in External reference or Vdda reference mode */
 165:Generated_Source\PSoC5/ADC.c ****     #if((ADC_DEFAULT_REFERENCE == ADC__EXT_REF) || \
 166:Generated_Source\PSoC5/ADC.c ****         (ADC_DEFAULT_RANGE == ADC__VNEG_VDDA_DIFF))
 167:Generated_Source\PSoC5/ADC.c ****         tmpReg &= (uint8)~ADC_SAR_EN_BUF_VREF_EN;
 168:Generated_Source\PSoC5/ADC.c ****     #else /* In INTREF or INTREF Bypassed this buffer is ON */
 169:Generated_Source\PSoC5/ADC.c ****         tmpReg |= ADC_SAR_EN_BUF_VREF_EN;
 170:Generated_Source\PSoC5/ADC.c ****     #endif /* ADC_DEFAULT_REFERENCE == ADC__EXT_REF */
 171:Generated_Source\PSoC5/ADC.c ****     ADC_SAR_CSR3_REG = tmpReg;
 172:Generated_Source\PSoC5/ADC.c **** 
 173:Generated_Source\PSoC5/ADC.c ****     /* Set reference for ADC */
 174:Generated_Source\PSoC5/ADC.c ****     #if(ADC_DEFAULT_RANGE == ADC__VNEG_VDDA_DIFF)
 175:Generated_Source\PSoC5/ADC.c ****         #if(ADC_DEFAULT_REFERENCE == ADC__EXT_REF)
 176:Generated_Source\PSoC5/ADC.c ****             ADC_SAR_CSR6_REG = ADC_INT_BYPASS_EXT_VREF; /* S2 */
 177:Generated_Source\PSoC5/ADC.c ****         #else /* Internal Vdda reference or obsolete bypass mode */
 178:Generated_Source\PSoC5/ADC.c ****             ADC_SAR_CSR6_REG = ADC_VDDA_VREF;           /* S7 */
 179:Generated_Source\PSoC5/ADC.c ****         #endif /* ADC_DEFAULT_REFERENCE == ADC__EXT_REF */
 180:Generated_Source\PSoC5/ADC.c ****     #else  /* Reference goes through internal buffer */
ARM GAS  C:\Users\chemi\AppData\Local\Temp\ccNFMF9g.s 			page 5


 181:Generated_Source\PSoC5/ADC.c ****         #if(ADC_DEFAULT_REFERENCE == ADC__INT_REF_NOT_BYPASSED)
 182:Generated_Source\PSoC5/ADC.c ****             ADC_SAR_CSR6_REG = ADC_INT_VREF;            /* S3 + S4 */
 183:Generated_Source\PSoC5/ADC.c ****         #else /* INTREF Bypassed of External */
 184:Generated_Source\PSoC5/ADC.c ****             ADC_SAR_CSR6_REG = ADC_INT_BYPASS_EXT_VREF; /* S2 */
  48              		.loc 1 184 0
  49 000c 0425     		movs	r5, #4
 150:Generated_Source\PSoC5/ADC.c **** 
  50              		.loc 1 150 0
  51 000e 43F00203 		orr	r3, r3, #2
  52 0012 1370     		strb	r3, [r2]
 153:Generated_Source\PSoC5/ADC.c **** 
  53              		.loc 1 153 0
  54 0014 137C     		ldrb	r3, [r2, #16]	@ zero_extendqisi2
 185:Generated_Source\PSoC5/ADC.c ****         #endif /* ADC_DEFAULT_REFERENCE == ADC__INT_REF_NOT_BYPASSED */
 186:Generated_Source\PSoC5/ADC.c ****     #endif /* VNEG_VDDA_DIFF */
 187:Generated_Source\PSoC5/ADC.c **** 
 188:Generated_Source\PSoC5/ADC.c ****     /* Low non-overlap delay for sampling clock signals (for 1MSPS) */
 189:Generated_Source\PSoC5/ADC.c ****     #if(ADC_HIGH_POWER_PULSE == 0u) /* MinPulseWidth <= 50 ns */
 190:Generated_Source\PSoC5/ADC.c ****         ADC_SAR_CSR5_REG &= (uint8)~ADC_SAR_DLY_INC;
 191:Generated_Source\PSoC5/ADC.c ****     #else /* Set High non-overlap delay for sampling clock signals (for <500KSPS)*/
 192:Generated_Source\PSoC5/ADC.c ****         ADC_SAR_CSR5_REG |= ADC_SAR_DLY_INC;
 193:Generated_Source\PSoC5/ADC.c ****     #endif /* ADC_HIGH_POWER_PULSE == 0u */
 194:Generated_Source\PSoC5/ADC.c **** 
 195:Generated_Source\PSoC5/ADC.c ****     /* Increase comparator latch enable delay by 20%, 
 196:Generated_Source\PSoC5/ADC.c ****     *  Increase comparator bias current by 30% without impacting delaysDelay 
 197:Generated_Source\PSoC5/ADC.c ****     *  Default for 1MSPS) 
 198:Generated_Source\PSoC5/ADC.c ****     */
 199:Generated_Source\PSoC5/ADC.c ****     #if(ADC_HIGH_POWER_PULSE == 0u)    /* MinPulseWidth <= 50 ns */
 200:Generated_Source\PSoC5/ADC.c ****         ADC_SAR_CSR5_REG |= ADC_SAR_SEL_CSEL_DFT_CHAR;
 201:Generated_Source\PSoC5/ADC.c ****     #else /* for <500ksps */
 202:Generated_Source\PSoC5/ADC.c ****         ADC_SAR_CSR5_REG &= (uint8)~ADC_SAR_SEL_CSEL_DFT_CHAR;
 203:Generated_Source\PSoC5/ADC.c ****     #endif /* ADC_HIGH_POWER_PULSE == 0u */
 204:Generated_Source\PSoC5/ADC.c **** 
 205:Generated_Source\PSoC5/ADC.c ****     /* Set default power and other configurations for control register 0 in multiple lines */
 206:Generated_Source\PSoC5/ADC.c ****     ADC_SAR_CSR0_REG = (uint8)((uint8)ADC_DEFAULT_POWER << ADC_SAR_POWER_SHIFT)
 207:Generated_Source\PSoC5/ADC.c ****     /* SAR_HIZ_CLEAR:   Should not be used for LP */
 208:Generated_Source\PSoC5/ADC.c ****     #if ((CY_PSOC5LP) || (ADC_DEFAULT_REFERENCE != ADC__EXT_REF))
 209:Generated_Source\PSoC5/ADC.c ****         | ADC_SAR_HIZ_CLEAR
 210:Generated_Source\PSoC5/ADC.c ****     #endif /* SAR_HIZ_CLEAR */
 211:Generated_Source\PSoC5/ADC.c ****     /*Set Convertion mode */
 212:Generated_Source\PSoC5/ADC.c ****     #if(ADC_DEFAULT_CONV_MODE != ADC__FREE_RUNNING)      /* If triggered mode */
 213:Generated_Source\PSoC5/ADC.c ****         | ADC_SAR_MX_SOF_UDB           /* source: UDB */
 214:Generated_Source\PSoC5/ADC.c ****         | ADC_SAR_SOF_MODE_EDGE        /* Set edge-sensitive sof source */
 215:Generated_Source\PSoC5/ADC.c ****     #endif /* ADC_DEFAULT_CONV_MODE */
 216:Generated_Source\PSoC5/ADC.c ****     ; /* end of multiple line initialization */
 217:Generated_Source\PSoC5/ADC.c **** 
 218:Generated_Source\PSoC5/ADC.c ****     ADC_SAR_TR0_REG = ADC_SAR_CAP_TRIM_2;
 219:Generated_Source\PSoC5/ADC.c **** 
 220:Generated_Source\PSoC5/ADC.c ****     /* Enable clock for SAR ADC*/
 221:Generated_Source\PSoC5/ADC.c ****     ADC_SAR_CLK_REG |= ADC_SAR_MX_CLK_EN;
 222:Generated_Source\PSoC5/ADC.c **** 
 223:Generated_Source\PSoC5/ADC.c ****     CyDelayUs(10u); /* The block is ready to use 10 us after the enable signal is set high. */
  55              		.loc 1 223 0
  56 0016 0A20     		movs	r0, #10
 153:Generated_Source\PSoC5/ADC.c **** 
  57              		.loc 1 153 0
  58 0018 43F00203 		orr	r3, r3, #2
ARM GAS  C:\Users\chemi\AppData\Local\Temp\ccNFMF9g.s 			page 6


  59 001c 1374     		strb	r3, [r2, #16]
 157:Generated_Source\PSoC5/ADC.c ****         ADC_STBY_PWRMGR_CLK_REG |= ADC_STBY_PWR_CLK_EN;
  60              		.loc 1 157 0
  61 001e 12F80A3C 		ldrb	r3, [r2, #-10]	@ zero_extendqisi2
  62 0022 43F00403 		orr	r3, r3, #4
  63 0026 02F80A3C 		strb	r3, [r2, #-10]
 158:Generated_Source\PSoC5/ADC.c ****     #endif /* End ADC_DEFAULT_INTERNAL_CLK */
  64              		.loc 1 158 0
  65 002a 9379     		ldrb	r3, [r2, #6]	@ zero_extendqisi2
  66 002c 43F00403 		orr	r3, r3, #4
  67 0030 9371     		strb	r3, [r2, #6]
 162:Generated_Source\PSoC5/ADC.c ****     tmpReg |= ADC_SAR_EN_BUF_VCM_EN;
  68              		.loc 1 162 0
  69 0032 02F5AB52 		add	r2, r2, #5472
  70 0036 1378     		ldrb	r3, [r2]	@ zero_extendqisi2
  71              	.LVL2:
 169:Generated_Source\PSoC5/ADC.c ****     #endif /* ADC_DEFAULT_REFERENCE == ADC__EXT_REF */
  72              		.loc 1 169 0
  73 0038 43F00303 		orr	r3, r3, #3
  74              	.LVL3:
 171:Generated_Source\PSoC5/ADC.c **** 
  75              		.loc 1 171 0
  76 003c 1370     		strb	r3, [r2]
 184:Generated_Source\PSoC5/ADC.c ****         #endif /* ADC_DEFAULT_REFERENCE == ADC__INT_REF_NOT_BYPASSED */
  77              		.loc 1 184 0
  78 003e 134B     		ldr	r3, .L2+4
  79              	.LVL4:
  80 0040 1D70     		strb	r5, [r3]
  81              	.LVL5:
 192:Generated_Source\PSoC5/ADC.c ****     #endif /* ADC_HIGH_POWER_PULSE == 0u */
  82              		.loc 1 192 0
  83 0042 13F8012C 		ldrb	r2, [r3, #-1]	@ zero_extendqisi2
  84 0046 42F04002 		orr	r2, r2, #64
  85 004a 03F8012C 		strb	r2, [r3, #-1]
 202:Generated_Source\PSoC5/ADC.c ****     #endif /* ADC_HIGH_POWER_PULSE == 0u */
  86              		.loc 1 202 0
  87 004e 13F8012C 		ldrb	r2, [r3, #-1]	@ zero_extendqisi2
  88 0052 02F0FC02 		and	r2, r2, #252
  89 0056 03F8012C 		strb	r2, [r3, #-1]
 206:Generated_Source\PSoC5/ADC.c ****     /* SAR_HIZ_CLEAR:   Should not be used for LP */
  90              		.loc 1 206 0
  91 005a CE22     		movs	r2, #206
  92 005c 03F8062C 		strb	r2, [r3, #-6]
 218:Generated_Source\PSoC5/ADC.c **** 
  93              		.loc 1 218 0
  94 0060 A3F59753 		sub	r3, r3, #4832
  95 0064 0222     		movs	r2, #2
  96 0066 183B     		subs	r3, r3, #24
  97 0068 1A70     		strb	r2, [r3]
 221:Generated_Source\PSoC5/ADC.c **** 
  98              		.loc 1 221 0
  99 006a 094A     		ldr	r2, .L2+8
 100 006c 1378     		ldrb	r3, [r2]	@ zero_extendqisi2
 101 006e 43F00803 		orr	r3, r3, #8
 102 0072 1370     		strb	r3, [r2]
 103              		.loc 1 223 0
 104 0074 FFF7FEFF 		bl	CyDelayUs
ARM GAS  C:\Users\chemi\AppData\Local\Temp\ccNFMF9g.s 			page 7


 105              	.LVL6:
 224:Generated_Source\PSoC5/ADC.c **** 
 225:Generated_Source\PSoC5/ADC.c ****     #if(ADC_IRQ_REMOVE == 0u)
 226:Generated_Source\PSoC5/ADC.c ****         /* Clear a pending interrupt */
 227:Generated_Source\PSoC5/ADC.c ****         CyIntClearPending(ADC_INTC_NUMBER);
 106              		.loc 1 227 0
 107 0078 064B     		ldr	r3, .L2+12
 228:Generated_Source\PSoC5/ADC.c ****     #endif   /* End ADC_IRQ_REMOVE */
 229:Generated_Source\PSoC5/ADC.c **** 
 230:Generated_Source\PSoC5/ADC.c ****     CyExitCriticalSection(enableInterrupts);
 108              		.loc 1 230 0
 109 007a 2046     		mov	r0, r4
 227:Generated_Source\PSoC5/ADC.c ****     #endif   /* End ADC_IRQ_REMOVE */
 110              		.loc 1 227 0
 111 007c 1D60     		str	r5, [r3]
 231:Generated_Source\PSoC5/ADC.c **** }
 112              		.loc 1 231 0
 113 007e BDE83840 		pop	{r3, r4, r5, lr}
 114              		.cfi_restore 14
 115              		.cfi_restore 5
 116              		.cfi_restore 4
 117              		.cfi_restore 3
 118              		.cfi_def_cfa_offset 0
 119              	.LVL7:
 230:Generated_Source\PSoC5/ADC.c **** }
 120              		.loc 1 230 0
 121 0082 FFF7FEBF 		b	CyExitCriticalSection
 122              	.LVL8:
 123              	.L3:
 124 0086 00BF     		.align	2
 125              	.L2:
 126 0088 AB430040 		.word	1073759147
 127 008c 0E590040 		.word	1073764622
 128 0090 2F5B0040 		.word	1073765167
 129 0094 80E200E0 		.word	-536812928
 130              		.cfi_endproc
 131              	.LFE2:
 132              		.size	ADC_Enable, .-ADC_Enable
 133              		.section	.text.ADC_Stop,"ax",%progbits
 134              		.align	1
 135              		.global	ADC_Stop
 136              		.thumb
 137              		.thumb_func
 138              		.type	ADC_Stop, %function
 139              	ADC_Stop:
 140              	.LFB3:
 232:Generated_Source\PSoC5/ADC.c **** 
 233:Generated_Source\PSoC5/ADC.c **** 
 234:Generated_Source\PSoC5/ADC.c **** /*******************************************************************************
 235:Generated_Source\PSoC5/ADC.c **** * Function Name: ADC_Stop
 236:Generated_Source\PSoC5/ADC.c **** ********************************************************************************
 237:Generated_Source\PSoC5/ADC.c **** *
 238:Generated_Source\PSoC5/ADC.c **** * Summary:
 239:Generated_Source\PSoC5/ADC.c **** *  Stops ADC conversions and puts the ADC into its lowest power mode.
 240:Generated_Source\PSoC5/ADC.c **** *
 241:Generated_Source\PSoC5/ADC.c **** * Parameters:
 242:Generated_Source\PSoC5/ADC.c **** *  None.
ARM GAS  C:\Users\chemi\AppData\Local\Temp\ccNFMF9g.s 			page 8


 243:Generated_Source\PSoC5/ADC.c **** *
 244:Generated_Source\PSoC5/ADC.c **** * Return:
 245:Generated_Source\PSoC5/ADC.c **** *  None.
 246:Generated_Source\PSoC5/ADC.c **** *
 247:Generated_Source\PSoC5/ADC.c **** *******************************************************************************/
 248:Generated_Source\PSoC5/ADC.c **** void ADC_Stop(void)
 249:Generated_Source\PSoC5/ADC.c **** {
 141              		.loc 1 249 0
 142              		.cfi_startproc
 143              		@ args = 0, pretend = 0, frame = 0
 144              		@ frame_needed = 0, uses_anonymous_args = 0
 145 0000 08B5     		push	{r3, lr}
 146              		.cfi_def_cfa_offset 8
 147              		.cfi_offset 3, -8
 148              		.cfi_offset 14, -4
 250:Generated_Source\PSoC5/ADC.c ****     uint8 enableInterrupts;
 251:Generated_Source\PSoC5/ADC.c ****     enableInterrupts = CyEnterCriticalSection();
 149              		.loc 1 251 0
 150 0002 FFF7FEFF 		bl	CyEnterCriticalSection
 151              	.LVL9:
 252:Generated_Source\PSoC5/ADC.c **** 
 253:Generated_Source\PSoC5/ADC.c ****     /* Stop all conversions */
 254:Generated_Source\PSoC5/ADC.c ****     ADC_SAR_CSR0_REG &= (uint8)~ADC_SAR_SOF_START_CONV;
 152              		.loc 1 254 0
 153 0006 0F4A     		ldr	r2, .L5
 154 0008 1378     		ldrb	r3, [r2]	@ zero_extendqisi2
 155 000a 03F0FE03 		and	r3, r3, #254
 156 000e 1370     		strb	r3, [r2]
 255:Generated_Source\PSoC5/ADC.c ****     /* Disable the SAR ADC block in Active Power Mode */
 256:Generated_Source\PSoC5/ADC.c ****     ADC_PWRMGR_SAR_REG &= (uint8)~ADC_ACT_PWR_SAR_EN;
 157              		.loc 1 256 0
 158 0010 A2F5AA52 		sub	r2, r2, #5440
 159 0014 1D3A     		subs	r2, r2, #29
 160 0016 1378     		ldrb	r3, [r2]	@ zero_extendqisi2
 161 0018 03F0FD03 		and	r3, r3, #253
 162 001c 1370     		strb	r3, [r2]
 257:Generated_Source\PSoC5/ADC.c ****     /* Disable the SAR ADC in Standby Power Mode */
 258:Generated_Source\PSoC5/ADC.c ****     ADC_STBY_PWRMGR_SAR_REG &= (uint8)~ADC_STBY_PWR_SAR_EN;
 163              		.loc 1 258 0
 164 001e 137C     		ldrb	r3, [r2, #16]	@ zero_extendqisi2
 165 0020 03F0FD03 		and	r3, r3, #253
 166 0024 1374     		strb	r3, [r2, #16]
 259:Generated_Source\PSoC5/ADC.c **** 
 260:Generated_Source\PSoC5/ADC.c ****     /* This is only valid if there is an internal clock */
 261:Generated_Source\PSoC5/ADC.c ****     #if(ADC_DEFAULT_INTERNAL_CLK)
 262:Generated_Source\PSoC5/ADC.c ****         ADC_PWRMGR_CLK_REG &= (uint8)~ADC_ACT_PWR_CLK_EN;
 167              		.loc 1 262 0
 168 0026 12F80A3C 		ldrb	r3, [r2, #-10]	@ zero_extendqisi2
 169 002a 03F0FB03 		and	r3, r3, #251
 170 002e 02F80A3C 		strb	r3, [r2, #-10]
 263:Generated_Source\PSoC5/ADC.c ****         ADC_STBY_PWRMGR_CLK_REG &= (uint8)~ADC_STBY_PWR_CLK_EN;
 171              		.loc 1 263 0
 172 0032 9379     		ldrb	r3, [r2, #6]	@ zero_extendqisi2
 173 0034 03F0FB03 		and	r3, r3, #251
 174 0038 9371     		strb	r3, [r2, #6]
 264:Generated_Source\PSoC5/ADC.c ****     #endif /* End ADC_DEFAULT_INTERNAL_CLK */
 265:Generated_Source\PSoC5/ADC.c **** 
ARM GAS  C:\Users\chemi\AppData\Local\Temp\ccNFMF9g.s 			page 9


 266:Generated_Source\PSoC5/ADC.c ****     CyExitCriticalSection(enableInterrupts);
 267:Generated_Source\PSoC5/ADC.c **** 
 268:Generated_Source\PSoC5/ADC.c **** }
 175              		.loc 1 268 0
 176 003a BDE80840 		pop	{r3, lr}
 177              		.cfi_restore 14
 178              		.cfi_restore 3
 179              		.cfi_def_cfa_offset 0
 266:Generated_Source\PSoC5/ADC.c **** 
 180              		.loc 1 266 0
 181 003e FFF7FEBF 		b	CyExitCriticalSection
 182              	.LVL10:
 183              	.L6:
 184 0042 00BF     		.align	2
 185              	.L5:
 186 0044 08590040 		.word	1073764616
 187              		.cfi_endproc
 188              	.LFE3:
 189              		.size	ADC_Stop, .-ADC_Stop
 190              		.section	.text.ADC_SetPower,"ax",%progbits
 191              		.align	1
 192              		.global	ADC_SetPower
 193              		.thumb
 194              		.thumb_func
 195              		.type	ADC_SetPower, %function
 196              	ADC_SetPower:
 197              	.LFB4:
 269:Generated_Source\PSoC5/ADC.c **** 
 270:Generated_Source\PSoC5/ADC.c **** 
 271:Generated_Source\PSoC5/ADC.c **** /*******************************************************************************
 272:Generated_Source\PSoC5/ADC.c **** * Function Name: ADC_SetPower
 273:Generated_Source\PSoC5/ADC.c **** ********************************************************************************
 274:Generated_Source\PSoC5/ADC.c **** *
 275:Generated_Source\PSoC5/ADC.c **** * Summary:
 276:Generated_Source\PSoC5/ADC.c **** *  Sets the operational power of the ADC. You should use the higher power
 277:Generated_Source\PSoC5/ADC.c **** *  settings with faster clock speeds.
 278:Generated_Source\PSoC5/ADC.c **** *
 279:Generated_Source\PSoC5/ADC.c **** * Parameters:
 280:Generated_Source\PSoC5/ADC.c **** *  power:  Power setting for ADC
 281:Generated_Source\PSoC5/ADC.c **** *  0 ->    Normal
 282:Generated_Source\PSoC5/ADC.c **** *  1 ->    Medium power
 283:Generated_Source\PSoC5/ADC.c **** *  2 ->    1.25 power
 284:Generated_Source\PSoC5/ADC.c **** *  3 ->    Minimum power.
 285:Generated_Source\PSoC5/ADC.c **** *
 286:Generated_Source\PSoC5/ADC.c **** * Return:
 287:Generated_Source\PSoC5/ADC.c **** *  None.
 288:Generated_Source\PSoC5/ADC.c **** *
 289:Generated_Source\PSoC5/ADC.c **** *******************************************************************************/
 290:Generated_Source\PSoC5/ADC.c **** void ADC_SetPower(uint8 power)
 291:Generated_Source\PSoC5/ADC.c **** {
 198              		.loc 1 291 0
 199              		.cfi_startproc
 200              		@ args = 0, pretend = 0, frame = 0
 201              		@ frame_needed = 0, uses_anonymous_args = 0
 202              		@ link register save eliminated.
 203              	.LVL11:
 292:Generated_Source\PSoC5/ADC.c ****     uint8 tmpReg;
ARM GAS  C:\Users\chemi\AppData\Local\Temp\ccNFMF9g.s 			page 10


 293:Generated_Source\PSoC5/ADC.c **** 
 294:Generated_Source\PSoC5/ADC.c ****     /* mask off invalid power settings */
 295:Generated_Source\PSoC5/ADC.c ****     power &= ADC_SAR_API_POWER_MASK;
 296:Generated_Source\PSoC5/ADC.c **** 
 297:Generated_Source\PSoC5/ADC.c ****     /* Set Power parameter  */
 298:Generated_Source\PSoC5/ADC.c ****     tmpReg = ADC_SAR_CSR0_REG & (uint8)~ADC_SAR_POWER_MASK;
 204              		.loc 1 298 0
 205 0000 044A     		ldr	r2, .L8
 206 0002 1378     		ldrb	r3, [r2]	@ zero_extendqisi2
 207 0004 03F03F03 		and	r3, r3, #63
 208              	.LVL12:
 299:Generated_Source\PSoC5/ADC.c ****     tmpReg |= (uint8)(power << ADC_SAR_POWER_SHIFT);
 209              		.loc 1 299 0
 210 0008 43EA8010 		orr	r0, r3, r0, lsl #6
 211              	.LVL13:
 212 000c C0B2     		uxtb	r0, r0
 213              	.LVL14:
 300:Generated_Source\PSoC5/ADC.c ****     ADC_SAR_CSR0_REG = tmpReg;
 214              		.loc 1 300 0
 215 000e 1070     		strb	r0, [r2]
 216 0010 7047     		bx	lr
 217              	.L9:
 218 0012 00BF     		.align	2
 219              	.L8:
 220 0014 08590040 		.word	1073764616
 221              		.cfi_endproc
 222              	.LFE4:
 223              		.size	ADC_SetPower, .-ADC_SetPower
 224              		.section	.text.ADC_SetResolution,"ax",%progbits
 225              		.align	1
 226              		.global	ADC_SetResolution
 227              		.thumb
 228              		.thumb_func
 229              		.type	ADC_SetResolution, %function
 230              	ADC_SetResolution:
 231              	.LFB5:
 301:Generated_Source\PSoC5/ADC.c **** }
 302:Generated_Source\PSoC5/ADC.c **** 
 303:Generated_Source\PSoC5/ADC.c **** 
 304:Generated_Source\PSoC5/ADC.c **** /*******************************************************************************
 305:Generated_Source\PSoC5/ADC.c **** * Function Name: ADC_SetResolution
 306:Generated_Source\PSoC5/ADC.c **** ********************************************************************************
 307:Generated_Source\PSoC5/ADC.c **** *
 308:Generated_Source\PSoC5/ADC.c **** * Summary:
 309:Generated_Source\PSoC5/ADC.c **** *  Sets the Relution of the SAR.
 310:Generated_Source\PSoC5/ADC.c **** *
 311:Generated_Source\PSoC5/ADC.c **** * Parameters:
 312:Generated_Source\PSoC5/ADC.c **** *  resolution:
 313:Generated_Source\PSoC5/ADC.c **** *  12 ->    RES12
 314:Generated_Source\PSoC5/ADC.c **** *  10 ->    RES10
 315:Generated_Source\PSoC5/ADC.c **** *  8  ->    RES8
 316:Generated_Source\PSoC5/ADC.c **** *
 317:Generated_Source\PSoC5/ADC.c **** * Return:
 318:Generated_Source\PSoC5/ADC.c **** *  None.
 319:Generated_Source\PSoC5/ADC.c **** *
 320:Generated_Source\PSoC5/ADC.c **** * Side Effects:
 321:Generated_Source\PSoC5/ADC.c **** *  The ADC resolution cannot be changed during a conversion cycle. The
ARM GAS  C:\Users\chemi\AppData\Local\Temp\ccNFMF9g.s 			page 11


 322:Generated_Source\PSoC5/ADC.c **** *  recommended best practice is to stop conversions with
 323:Generated_Source\PSoC5/ADC.c **** *  ADC_StopConvert(), change the resolution, then restart the
 324:Generated_Source\PSoC5/ADC.c **** *  conversions with ADC_StartConvert().
 325:Generated_Source\PSoC5/ADC.c **** *  If you decide not to stop conversions before calling this API, you
 326:Generated_Source\PSoC5/ADC.c **** *  should use ADC_IsEndConversion() to wait until conversion is complete
 327:Generated_Source\PSoC5/ADC.c **** *  before changing the resolution.
 328:Generated_Source\PSoC5/ADC.c **** *  If you call ADC_SetResolution() during a conversion, the resolution will
 329:Generated_Source\PSoC5/ADC.c **** *  not be changed until the current conversion is complete. Data will not be
 330:Generated_Source\PSoC5/ADC.c **** *  available in the new resolution for another 6 + "New Resolution(in bits)"
 331:Generated_Source\PSoC5/ADC.c **** *  clock cycles.
 332:Generated_Source\PSoC5/ADC.c **** *  You may need add a delay of this number of clock cycles after
 333:Generated_Source\PSoC5/ADC.c **** *  ADC_SetResolution() is called before data is valid again.
 334:Generated_Source\PSoC5/ADC.c **** *  Affects ADC_CountsTo_Volts(), ADC_CountsTo_mVolts(), and
 335:Generated_Source\PSoC5/ADC.c **** *  ADC_CountsTo_uVolts() by calculating the correct conversion between ADC
 336:Generated_Source\PSoC5/ADC.c **** *  counts and the applied input voltage. Calculation depends on resolution,
 337:Generated_Source\PSoC5/ADC.c **** *  input range, and voltage reference.
 338:Generated_Source\PSoC5/ADC.c **** *
 339:Generated_Source\PSoC5/ADC.c **** *******************************************************************************/
 340:Generated_Source\PSoC5/ADC.c **** void ADC_SetResolution(uint8 resolution)
 341:Generated_Source\PSoC5/ADC.c **** {
 232              		.loc 1 341 0
 233              		.cfi_startproc
 234              		@ args = 0, pretend = 0, frame = 0
 235              		@ frame_needed = 0, uses_anonymous_args = 0
 236              		@ link register save eliminated.
 237              	.LVL15:
 342:Generated_Source\PSoC5/ADC.c ****     uint8 tmpReg;
 343:Generated_Source\PSoC5/ADC.c **** 
 344:Generated_Source\PSoC5/ADC.c ****     /* Set SAR ADC resolution and sample width: 18 conversion cycles at 12bits + 1 gap */
 345:Generated_Source\PSoC5/ADC.c ****     switch (resolution)
 238              		.loc 1 345 0
 239 0000 0828     		cmp	r0, #8
 240 0002 04D0     		beq	.L12
 241 0004 0A28     		cmp	r0, #10
 346:Generated_Source\PSoC5/ADC.c ****     {
 347:Generated_Source\PSoC5/ADC.c ****         case (uint8)ADC__BITS_12:
 348:Generated_Source\PSoC5/ADC.c ****             tmpReg = ADC_SAR_RESOLUTION_12BIT | ADC_SAR_SAMPLE_WIDTH;
 242              		.loc 1 348 0
 243 0006 0CBF     		ite	eq
 244 0008 8423     		moveq	r3, #132
 245 000a C423     		movne	r3, #196
 246 000c 00E0     		b	.L13
 247              	.L12:
 248              	.LVL16:
 349:Generated_Source\PSoC5/ADC.c ****             break;
 350:Generated_Source\PSoC5/ADC.c ****         case (uint8)ADC__BITS_10:
 351:Generated_Source\PSoC5/ADC.c ****             tmpReg = ADC_SAR_RESOLUTION_10BIT | ADC_SAR_SAMPLE_WIDTH;
 352:Generated_Source\PSoC5/ADC.c ****             break;
 353:Generated_Source\PSoC5/ADC.c ****         case (uint8)ADC__BITS_8:
 354:Generated_Source\PSoC5/ADC.c ****             tmpReg = ADC_SAR_RESOLUTION_8BIT | ADC_SAR_SAMPLE_WIDTH;
 249              		.loc 1 354 0
 250 000e 4423     		movs	r3, #68
 251              	.LVL17:
 252              	.L13:
 253 0010 0838     		subs	r0, r0, #8
 254              	.LVL18:
 355:Generated_Source\PSoC5/ADC.c ****             break;
ARM GAS  C:\Users\chemi\AppData\Local\Temp\ccNFMF9g.s 			page 12


 356:Generated_Source\PSoC5/ADC.c ****         default:
 357:Generated_Source\PSoC5/ADC.c ****             tmpReg = ADC_SAR_RESOLUTION_12BIT | ADC_SAR_SAMPLE_WIDTH;
 358:Generated_Source\PSoC5/ADC.c ****             /* Halt CPU in debug mode if resolution is out of valid range */
 359:Generated_Source\PSoC5/ADC.c ****             CYASSERT(0u != 0u);
 360:Generated_Source\PSoC5/ADC.c ****             break;
 361:Generated_Source\PSoC5/ADC.c ****     }
 362:Generated_Source\PSoC5/ADC.c ****     ADC_SAR_CSR2_REG = tmpReg;
 255              		.loc 1 362 0
 256 0012 0E4A     		ldr	r2, .L18
 257 0014 C0B2     		uxtb	r0, r0
 258 0016 0428     		cmp	r0, #4
 259 0018 1370     		strb	r3, [r2]
 260              	.LVL19:
 261 001a 98BF     		it	ls
 262 001c 0C4B     		ldrls	r3, .L18+4
 263 001e 4FF00002 		mov	r2, #0
 264 0022 98BF     		it	ls
 265 0024 33F91010 		ldrshls	r1, [r3, r0, lsl #1]
 266              	.LBB4:
 267              	.LBB5:
 363:Generated_Source\PSoC5/ADC.c **** 
 364:Generated_Source\PSoC5/ADC.c ****      /* Calculate gain for convert counts to volts */
 365:Generated_Source\PSoC5/ADC.c ****     ADC_CalcGain(resolution);
 366:Generated_Source\PSoC5/ADC.c **** }
 367:Generated_Source\PSoC5/ADC.c **** 
 368:Generated_Source\PSoC5/ADC.c **** 
 369:Generated_Source\PSoC5/ADC.c **** #if(ADC_DEFAULT_CONV_MODE != ADC__HARDWARE_TRIGGER)
 370:Generated_Source\PSoC5/ADC.c **** 
 371:Generated_Source\PSoC5/ADC.c **** 
 372:Generated_Source\PSoC5/ADC.c ****     /*******************************************************************************
 373:Generated_Source\PSoC5/ADC.c ****     * Function Name: ADC_StartConvert
 374:Generated_Source\PSoC5/ADC.c ****     ********************************************************************************
 375:Generated_Source\PSoC5/ADC.c ****     *
 376:Generated_Source\PSoC5/ADC.c ****     * Summary:
 377:Generated_Source\PSoC5/ADC.c ****     *  Forces the ADC to initiate a conversion. In free-running mode, the ADC runs
 378:Generated_Source\PSoC5/ADC.c ****     *  continuously. In software trigger mode, the function also acts as a software
 379:Generated_Source\PSoC5/ADC.c ****     *  version of the SOC and every conversion must be triggered by
 380:Generated_Source\PSoC5/ADC.c ****     *  ADC_StartConvert(). This function is not available when the
 381:Generated_Source\PSoC5/ADC.c ****     *  Hardware Trigger sample mode is selected.
 382:Generated_Source\PSoC5/ADC.c ****     *
 383:Generated_Source\PSoC5/ADC.c ****     * Parameters:
 384:Generated_Source\PSoC5/ADC.c ****     *  None.
 385:Generated_Source\PSoC5/ADC.c ****     *
 386:Generated_Source\PSoC5/ADC.c ****     * Return:
 387:Generated_Source\PSoC5/ADC.c ****     *  None.
 388:Generated_Source\PSoC5/ADC.c ****     *
 389:Generated_Source\PSoC5/ADC.c ****     * Theory:
 390:Generated_Source\PSoC5/ADC.c ****     *  Forces the ADC to initiate a conversion. In Free Running mode, the ADC will
 391:Generated_Source\PSoC5/ADC.c ****     *  run continuously. In a software trigger mode the function also acts as a
 392:Generated_Source\PSoC5/ADC.c ****     *  software version of the SOC. Here every conversion has to be triggered by
 393:Generated_Source\PSoC5/ADC.c ****     *  the routine. This writes into the SOC bit in SAR_CTRL reg.
 394:Generated_Source\PSoC5/ADC.c ****     *
 395:Generated_Source\PSoC5/ADC.c ****     * Side Effects:
 396:Generated_Source\PSoC5/ADC.c ****     *  In a software trigger mode the function switches source for SOF from the
 397:Generated_Source\PSoC5/ADC.c ****     *  external pin to the internal SOF generation. Application should not call
 398:Generated_Source\PSoC5/ADC.c ****     *  StartConvert if external source used for SOF.
 399:Generated_Source\PSoC5/ADC.c ****     *
ARM GAS  C:\Users\chemi\AppData\Local\Temp\ccNFMF9g.s 			page 13


 400:Generated_Source\PSoC5/ADC.c ****     *******************************************************************************/
 401:Generated_Source\PSoC5/ADC.c ****     void ADC_StartConvert(void)
 402:Generated_Source\PSoC5/ADC.c ****     {
 403:Generated_Source\PSoC5/ADC.c ****         #if(ADC_DEFAULT_CONV_MODE != ADC__FREE_RUNNING)  /* If software triggered mode */
 404:Generated_Source\PSoC5/ADC.c ****             ADC_SAR_CSR0_REG &= (uint8)~ADC_SAR_MX_SOF_UDB;   /* source: SOF bit */
 405:Generated_Source\PSoC5/ADC.c ****         #endif /* End ADC_DEFAULT_CONV_MODE */
 406:Generated_Source\PSoC5/ADC.c **** 
 407:Generated_Source\PSoC5/ADC.c ****         /* Start the conversion */
 408:Generated_Source\PSoC5/ADC.c ****         ADC_SAR_CSR0_REG |= ADC_SAR_SOF_START_CONV;
 409:Generated_Source\PSoC5/ADC.c ****     }
 410:Generated_Source\PSoC5/ADC.c **** 
 411:Generated_Source\PSoC5/ADC.c **** 
 412:Generated_Source\PSoC5/ADC.c ****     /*******************************************************************************
 413:Generated_Source\PSoC5/ADC.c ****     * Function Name: ADC_StopConvert
 414:Generated_Source\PSoC5/ADC.c ****     ********************************************************************************
 415:Generated_Source\PSoC5/ADC.c ****     *
 416:Generated_Source\PSoC5/ADC.c ****     * Summary:
 417:Generated_Source\PSoC5/ADC.c ****     *  Forces the ADC to stop conversions. If a conversion is currently executing,
 418:Generated_Source\PSoC5/ADC.c ****     *  that conversion will complete, but no further conversions will occur. This
 419:Generated_Source\PSoC5/ADC.c ****     *  function is not available when the Hardware Trigger sample mode is selected.
 420:Generated_Source\PSoC5/ADC.c ****     *
 421:Generated_Source\PSoC5/ADC.c ****     * Parameters:
 422:Generated_Source\PSoC5/ADC.c ****     *  None.
 423:Generated_Source\PSoC5/ADC.c ****     *
 424:Generated_Source\PSoC5/ADC.c ****     * Return:
 425:Generated_Source\PSoC5/ADC.c ****     *  None.
 426:Generated_Source\PSoC5/ADC.c ****     *
 427:Generated_Source\PSoC5/ADC.c ****     * Theory:
 428:Generated_Source\PSoC5/ADC.c ****     *  Stops ADC conversion in Free Running mode.
 429:Generated_Source\PSoC5/ADC.c ****     *
 430:Generated_Source\PSoC5/ADC.c ****     * Side Effects:
 431:Generated_Source\PSoC5/ADC.c ****     *  In Software Trigger sample mode, this function sets a software version of the
 432:Generated_Source\PSoC5/ADC.c ****     *  SOC to low level and switches the SOC source to hardware SOC input.
 433:Generated_Source\PSoC5/ADC.c ****     *
 434:Generated_Source\PSoC5/ADC.c ****     *******************************************************************************/
 435:Generated_Source\PSoC5/ADC.c ****     void ADC_StopConvert(void)
 436:Generated_Source\PSoC5/ADC.c ****     {
 437:Generated_Source\PSoC5/ADC.c ****         /* Stop all conversions */
 438:Generated_Source\PSoC5/ADC.c ****         ADC_SAR_CSR0_REG &= (uint8)~ADC_SAR_SOF_START_CONV;
 439:Generated_Source\PSoC5/ADC.c **** 
 440:Generated_Source\PSoC5/ADC.c ****         #if(ADC_DEFAULT_CONV_MODE != ADC__FREE_RUNNING)  /* If software triggered mode */
 441:Generated_Source\PSoC5/ADC.c ****             /* Return source to UDB for hardware SOF signal */
 442:Generated_Source\PSoC5/ADC.c ****             ADC_SAR_CSR0_REG |= ADC_SAR_MX_SOF_UDB;    /* source: UDB */
 443:Generated_Source\PSoC5/ADC.c ****         #endif /* End ADC_DEFAULT_CONV_MODE */
 444:Generated_Source\PSoC5/ADC.c **** 
 445:Generated_Source\PSoC5/ADC.c ****     }
 446:Generated_Source\PSoC5/ADC.c **** 
 447:Generated_Source\PSoC5/ADC.c **** #endif /* End ADC_DEFAULT_CONV_MODE != ADC__HARDWARE_TRIGGER */
 448:Generated_Source\PSoC5/ADC.c **** 
 449:Generated_Source\PSoC5/ADC.c **** 
 450:Generated_Source\PSoC5/ADC.c **** /*******************************************************************************
 451:Generated_Source\PSoC5/ADC.c **** * Function Name: ADC_IsEndConversion
 452:Generated_Source\PSoC5/ADC.c **** ********************************************************************************
 453:Generated_Source\PSoC5/ADC.c **** *
 454:Generated_Source\PSoC5/ADC.c **** * Summary:
 455:Generated_Source\PSoC5/ADC.c **** *  Immediately returns the status of the conversion or does not return
 456:Generated_Source\PSoC5/ADC.c **** *  (blocking) until the conversion completes, depending on the retMode
ARM GAS  C:\Users\chemi\AppData\Local\Temp\ccNFMF9g.s 			page 14


 457:Generated_Source\PSoC5/ADC.c **** *  parameter.
 458:Generated_Source\PSoC5/ADC.c **** *
 459:Generated_Source\PSoC5/ADC.c **** * Parameters:
 460:Generated_Source\PSoC5/ADC.c **** *  retMode:  Check conversion return mode.
 461:Generated_Source\PSoC5/ADC.c **** *   ADC_RETURN_STATUS: Immediately returns the status. If the
 462:Generated_Source\PSoC5/ADC.c **** *     value returned is zero, the conversion is not complete, and this function
 463:Generated_Source\PSoC5/ADC.c **** *     should be retried until a nonzero result is returned.
 464:Generated_Source\PSoC5/ADC.c **** *   ADC_WAIT_FOR_RESULT: Does not return a result until the ADC
 465:Generated_Source\PSoC5/ADC.c **** *     conversion is complete.
 466:Generated_Source\PSoC5/ADC.c **** *
 467:Generated_Source\PSoC5/ADC.c **** * Return:
 468:Generated_Source\PSoC5/ADC.c **** *  (uint8)  0 =>  The ADC is still calculating the last result.
 469:Generated_Source\PSoC5/ADC.c **** *           1 =>  The last conversion is complete.
 470:Generated_Source\PSoC5/ADC.c **** *
 471:Generated_Source\PSoC5/ADC.c **** * Side Effects:
 472:Generated_Source\PSoC5/ADC.c **** *  This function reads the end of conversion status, which is cleared on read.
 473:Generated_Source\PSoC5/ADC.c **** *
 474:Generated_Source\PSoC5/ADC.c **** *******************************************************************************/
 475:Generated_Source\PSoC5/ADC.c **** uint8 ADC_IsEndConversion(uint8 retMode)
 476:Generated_Source\PSoC5/ADC.c **** {
 477:Generated_Source\PSoC5/ADC.c ****     uint8 status;
 478:Generated_Source\PSoC5/ADC.c **** 
 479:Generated_Source\PSoC5/ADC.c ****     do
 480:Generated_Source\PSoC5/ADC.c ****     {
 481:Generated_Source\PSoC5/ADC.c ****         status = ADC_SAR_CSR1_REG & ADC_SAR_EOF_1;
 482:Generated_Source\PSoC5/ADC.c ****     } while ((status != ADC_SAR_EOF_1) && (retMode == ADC_WAIT_FOR_RESULT));
 483:Generated_Source\PSoC5/ADC.c ****     /* If convertion complete, wait until EOF bit released */
 484:Generated_Source\PSoC5/ADC.c ****     if(status == ADC_SAR_EOF_1)
 485:Generated_Source\PSoC5/ADC.c ****     {
 486:Generated_Source\PSoC5/ADC.c ****         /* wait one ADC clock to let the EOC status bit release */
 487:Generated_Source\PSoC5/ADC.c ****         CyDelayUs(1u);
 488:Generated_Source\PSoC5/ADC.c ****         /* Do the unconditional read operation of the CSR1 register to make sure the EOC bit has be
 489:Generated_Source\PSoC5/ADC.c ****         CY_GET_REG8(ADC_SAR_CSR1_PTR);
 490:Generated_Source\PSoC5/ADC.c ****     }
 491:Generated_Source\PSoC5/ADC.c **** 
 492:Generated_Source\PSoC5/ADC.c ****     return(status);
 493:Generated_Source\PSoC5/ADC.c **** }
 494:Generated_Source\PSoC5/ADC.c **** 
 495:Generated_Source\PSoC5/ADC.c **** 
 496:Generated_Source\PSoC5/ADC.c **** /*******************************************************************************
 497:Generated_Source\PSoC5/ADC.c **** * Function Name: ADC_GetResult8
 498:Generated_Source\PSoC5/ADC.c **** ********************************************************************************
 499:Generated_Source\PSoC5/ADC.c **** *
 500:Generated_Source\PSoC5/ADC.c **** * Summary:
 501:Generated_Source\PSoC5/ADC.c **** *  Returns the result of an 8-bit conversion. If the resolution is set greater
 502:Generated_Source\PSoC5/ADC.c **** *  than 8 bits, the function returns the LSB of the result.
 503:Generated_Source\PSoC5/ADC.c **** *  ADC_IsEndConversion() should be called to verify that the data
 504:Generated_Source\PSoC5/ADC.c **** *   sample is ready.
 505:Generated_Source\PSoC5/ADC.c **** *
 506:Generated_Source\PSoC5/ADC.c **** * Parameters:
 507:Generated_Source\PSoC5/ADC.c **** *  None.
 508:Generated_Source\PSoC5/ADC.c **** *
 509:Generated_Source\PSoC5/ADC.c **** * Return:
 510:Generated_Source\PSoC5/ADC.c **** *  The LSB of the last ADC conversion.
 511:Generated_Source\PSoC5/ADC.c **** *
 512:Generated_Source\PSoC5/ADC.c **** * Global Variables:
 513:Generated_Source\PSoC5/ADC.c **** *  ADC_shift - used to convert the ADC counts to the 2s
ARM GAS  C:\Users\chemi\AppData\Local\Temp\ccNFMF9g.s 			page 15


 514:Generated_Source\PSoC5/ADC.c **** *  compliment form.
 515:Generated_Source\PSoC5/ADC.c **** *
 516:Generated_Source\PSoC5/ADC.c **** * Side Effects:
 517:Generated_Source\PSoC5/ADC.c **** *  Converts the ADC counts to the 2s complement form.
 518:Generated_Source\PSoC5/ADC.c **** *
 519:Generated_Source\PSoC5/ADC.c **** *******************************************************************************/
 520:Generated_Source\PSoC5/ADC.c **** int8 ADC_GetResult8( void )
 521:Generated_Source\PSoC5/ADC.c **** {
 522:Generated_Source\PSoC5/ADC.c ****     return( (int8)ADC_SAR_WRK0_REG - (int8)ADC_shift);
 523:Generated_Source\PSoC5/ADC.c **** }
 524:Generated_Source\PSoC5/ADC.c **** 
 525:Generated_Source\PSoC5/ADC.c **** 
 526:Generated_Source\PSoC5/ADC.c **** /*******************************************************************************
 527:Generated_Source\PSoC5/ADC.c **** * Function Name: ADC_GetResult16
 528:Generated_Source\PSoC5/ADC.c **** ********************************************************************************
 529:Generated_Source\PSoC5/ADC.c **** *
 530:Generated_Source\PSoC5/ADC.c **** * Summary:
 531:Generated_Source\PSoC5/ADC.c **** *  Returns a 16-bit result for a conversion with a result that has a resolution
 532:Generated_Source\PSoC5/ADC.c **** *  of 8 to 12 bits.
 533:Generated_Source\PSoC5/ADC.c **** *  ADC_IsEndConversion() should be called to verify that the data
 534:Generated_Source\PSoC5/ADC.c **** *   sample is ready
 535:Generated_Source\PSoC5/ADC.c **** *
 536:Generated_Source\PSoC5/ADC.c **** * Parameters:
 537:Generated_Source\PSoC5/ADC.c **** *  None.
 538:Generated_Source\PSoC5/ADC.c **** *
 539:Generated_Source\PSoC5/ADC.c **** * Return:
 540:Generated_Source\PSoC5/ADC.c **** *  The 16-bit result of the last ADC conversion
 541:Generated_Source\PSoC5/ADC.c **** *
 542:Generated_Source\PSoC5/ADC.c **** * Global Variables:
 543:Generated_Source\PSoC5/ADC.c **** *  ADC_shift - used to convert the ADC counts to the 2s
 544:Generated_Source\PSoC5/ADC.c **** *  compliment form.
 545:Generated_Source\PSoC5/ADC.c **** *
 546:Generated_Source\PSoC5/ADC.c **** * Side Effects:
 547:Generated_Source\PSoC5/ADC.c **** *  Converts the ADC counts to the 2s complement form.
 548:Generated_Source\PSoC5/ADC.c **** *
 549:Generated_Source\PSoC5/ADC.c **** *******************************************************************************/
 550:Generated_Source\PSoC5/ADC.c **** int16 ADC_GetResult16( void )
 551:Generated_Source\PSoC5/ADC.c **** {
 552:Generated_Source\PSoC5/ADC.c ****     uint16 res;
 553:Generated_Source\PSoC5/ADC.c **** 
 554:Generated_Source\PSoC5/ADC.c ****     res = CY_GET_REG16(ADC_SAR_WRK_PTR);
 555:Generated_Source\PSoC5/ADC.c **** 
 556:Generated_Source\PSoC5/ADC.c ****     return( (int16)res - ADC_shift );
 557:Generated_Source\PSoC5/ADC.c **** }
 558:Generated_Source\PSoC5/ADC.c **** 
 559:Generated_Source\PSoC5/ADC.c **** 
 560:Generated_Source\PSoC5/ADC.c **** /*******************************************************************************
 561:Generated_Source\PSoC5/ADC.c **** * Function Name: ADC_SetOffset
 562:Generated_Source\PSoC5/ADC.c **** ********************************************************************************
 563:Generated_Source\PSoC5/ADC.c **** *
 564:Generated_Source\PSoC5/ADC.c **** * Summary:
 565:Generated_Source\PSoC5/ADC.c **** *  Sets the ADC offset, which is used by ADC_CountsTo_Volts(),
 566:Generated_Source\PSoC5/ADC.c **** *  ADC_CountsTo_mVolts(), and ADC_CountsTo_uVolts()
 567:Generated_Source\PSoC5/ADC.c **** *  to subtract the offset from the given reading before calculating the voltage
 568:Generated_Source\PSoC5/ADC.c **** *  conversion.
 569:Generated_Source\PSoC5/ADC.c **** *
 570:Generated_Source\PSoC5/ADC.c **** * Parameters:
ARM GAS  C:\Users\chemi\AppData\Local\Temp\ccNFMF9g.s 			page 16


 571:Generated_Source\PSoC5/ADC.c **** *  int16: This value is measured when the inputs are shorted or connected to
 572:Generated_Source\PSoC5/ADC.c ****    the same input voltage.
 573:Generated_Source\PSoC5/ADC.c **** *
 574:Generated_Source\PSoC5/ADC.c **** * Return:
 575:Generated_Source\PSoC5/ADC.c **** *  None.
 576:Generated_Source\PSoC5/ADC.c **** *
 577:Generated_Source\PSoC5/ADC.c **** * Global Variables:
 578:Generated_Source\PSoC5/ADC.c **** *  The ADC_offset variable modified. This variable is used for
 579:Generated_Source\PSoC5/ADC.c **** *  offset calibration purpose.
 580:Generated_Source\PSoC5/ADC.c **** *  Affects the ADC_CountsTo_Volts,
 581:Generated_Source\PSoC5/ADC.c **** *  ADC_CountsTo_mVolts, ADC_CountsTo_uVolts functions
 582:Generated_Source\PSoC5/ADC.c **** *  by subtracting the given offset.
 583:Generated_Source\PSoC5/ADC.c **** *
 584:Generated_Source\PSoC5/ADC.c **** *******************************************************************************/
 585:Generated_Source\PSoC5/ADC.c **** void ADC_SetOffset(int16 offset)
 586:Generated_Source\PSoC5/ADC.c **** {
 587:Generated_Source\PSoC5/ADC.c ****     ADC_offset = offset;
 588:Generated_Source\PSoC5/ADC.c **** }
 589:Generated_Source\PSoC5/ADC.c **** 
 590:Generated_Source\PSoC5/ADC.c **** 
 591:Generated_Source\PSoC5/ADC.c **** /*******************************************************************************
 592:Generated_Source\PSoC5/ADC.c **** * Function Name: ADC_CalcGain
 593:Generated_Source\PSoC5/ADC.c **** ********************************************************************************
 594:Generated_Source\PSoC5/ADC.c **** *
 595:Generated_Source\PSoC5/ADC.c **** * Summary:
 596:Generated_Source\PSoC5/ADC.c **** *  This function calculates the ADC gain in counts per 10 volt.
 597:Generated_Source\PSoC5/ADC.c **** *
 598:Generated_Source\PSoC5/ADC.c **** * Parameters:
 599:Generated_Source\PSoC5/ADC.c **** *  uint8: resolution
 600:Generated_Source\PSoC5/ADC.c **** *
 601:Generated_Source\PSoC5/ADC.c **** * Return:
 602:Generated_Source\PSoC5/ADC.c **** *  None.
 603:Generated_Source\PSoC5/ADC.c **** *
 604:Generated_Source\PSoC5/ADC.c **** * Global Variables:
 605:Generated_Source\PSoC5/ADC.c **** *  ADC_shift variable initialized. This variable is used to
 606:Generated_Source\PSoC5/ADC.c **** *  convert the ADC counts to the 2s compliment form.
 607:Generated_Source\PSoC5/ADC.c **** *  ADC_countsPer10Volt variable initialized. This variable is used
 608:Generated_Source\PSoC5/ADC.c **** *  for gain calibration purpose.
 609:Generated_Source\PSoC5/ADC.c **** *
 610:Generated_Source\PSoC5/ADC.c **** *******************************************************************************/
 611:Generated_Source\PSoC5/ADC.c **** static void ADC_CalcGain( uint8 resolution )
 612:Generated_Source\PSoC5/ADC.c **** {
 613:Generated_Source\PSoC5/ADC.c ****     int32 counts;
 614:Generated_Source\PSoC5/ADC.c ****     #if(!((ADC_DEFAULT_RANGE == ADC__VSS_TO_VREF) || \
 615:Generated_Source\PSoC5/ADC.c ****          (ADC_DEFAULT_RANGE == ADC__VSSA_TO_VDDA) || \
 616:Generated_Source\PSoC5/ADC.c ****          (ADC_DEFAULT_RANGE == ADC__VSSA_TO_VDAC)) )
 617:Generated_Source\PSoC5/ADC.c ****         uint16 diff_zero;
 618:Generated_Source\PSoC5/ADC.c ****     #endif /* End ADC_DEFAULT_RANGE */
 619:Generated_Source\PSoC5/ADC.c **** 
 620:Generated_Source\PSoC5/ADC.c ****     switch (resolution)
 621:Generated_Source\PSoC5/ADC.c ****     {
 622:Generated_Source\PSoC5/ADC.c ****         case (uint8)ADC__BITS_12:
 623:Generated_Source\PSoC5/ADC.c ****             counts = (int32)ADC_SAR_WRK_MAX_12BIT;
 624:Generated_Source\PSoC5/ADC.c ****             #if(!((ADC_DEFAULT_RANGE == ADC__VSS_TO_VREF) || \
 625:Generated_Source\PSoC5/ADC.c ****                  (ADC_DEFAULT_RANGE == ADC__VSSA_TO_VDDA) || \
 626:Generated_Source\PSoC5/ADC.c ****                  (ADC_DEFAULT_RANGE == ADC__VSSA_TO_VDAC)) )
 627:Generated_Source\PSoC5/ADC.c ****                 diff_zero = ADC_SAR_DIFF_SHIFT;
ARM GAS  C:\Users\chemi\AppData\Local\Temp\ccNFMF9g.s 			page 17


 628:Generated_Source\PSoC5/ADC.c ****             #endif /* End ADC_DEFAULT_RANGE */
 629:Generated_Source\PSoC5/ADC.c ****             break;
 630:Generated_Source\PSoC5/ADC.c ****         case (uint8)ADC__BITS_10:
 631:Generated_Source\PSoC5/ADC.c ****             counts = (int32)ADC_SAR_WRK_MAX_10BIT;
 632:Generated_Source\PSoC5/ADC.c ****             #if(!((ADC_DEFAULT_RANGE == ADC__VSS_TO_VREF) || \
 633:Generated_Source\PSoC5/ADC.c ****                  (ADC_DEFAULT_RANGE == ADC__VSSA_TO_VDDA) || \
 634:Generated_Source\PSoC5/ADC.c ****                  (ADC_DEFAULT_RANGE == ADC__VSSA_TO_VDAC)) )
 635:Generated_Source\PSoC5/ADC.c ****                 diff_zero = ADC_SAR_DIFF_SHIFT >> 2u;
 636:Generated_Source\PSoC5/ADC.c ****             #endif /* End ADC_DEFAULT_RANGE */
 637:Generated_Source\PSoC5/ADC.c ****             break;
 638:Generated_Source\PSoC5/ADC.c ****         case (uint8)ADC__BITS_8:
 639:Generated_Source\PSoC5/ADC.c ****             counts = (int32)ADC_SAR_WRK_MAX_8BIT;
 640:Generated_Source\PSoC5/ADC.c ****             #if(!((ADC_DEFAULT_RANGE == ADC__VSS_TO_VREF) || \
 641:Generated_Source\PSoC5/ADC.c ****                  (ADC_DEFAULT_RANGE == ADC__VSSA_TO_VDDA) || \
 642:Generated_Source\PSoC5/ADC.c ****                  (ADC_DEFAULT_RANGE == ADC__VSSA_TO_VDAC)) )
 643:Generated_Source\PSoC5/ADC.c ****                 diff_zero = ADC_SAR_DIFF_SHIFT >> 4u;
 644:Generated_Source\PSoC5/ADC.c ****             #endif /* End ADC_DEFAULT_RANGE */
 645:Generated_Source\PSoC5/ADC.c ****             break;
 646:Generated_Source\PSoC5/ADC.c ****         default: /* Halt CPU in debug mode if resolution is out of valid range */
 647:Generated_Source\PSoC5/ADC.c ****             counts = 0;
 648:Generated_Source\PSoC5/ADC.c ****             #if(!((ADC_DEFAULT_RANGE == ADC__VSS_TO_VREF) || \
 649:Generated_Source\PSoC5/ADC.c ****                  (ADC_DEFAULT_RANGE == ADC__VSSA_TO_VDDA) || \
 650:Generated_Source\PSoC5/ADC.c ****                  (ADC_DEFAULT_RANGE == ADC__VSSA_TO_VDAC)) )
 651:Generated_Source\PSoC5/ADC.c ****                 diff_zero = 0u;
 652:Generated_Source\PSoC5/ADC.c ****             #endif /* End ADC_DEFAULT_RANGE */
 653:Generated_Source\PSoC5/ADC.c ****             CYASSERT(0u != 0u);
 654:Generated_Source\PSoC5/ADC.c ****             break;
 655:Generated_Source\PSoC5/ADC.c ****     }
 656:Generated_Source\PSoC5/ADC.c ****     ADC_countsPerVolt = 0; /* Clear obsolete variable */
 268              		.loc 1 656 0
 269 0028 0A4B     		ldr	r3, .L18+8
 270              	.LBE5:
 271              	.LBE4:
 362:Generated_Source\PSoC5/ADC.c **** 
 272              		.loc 1 362 0
 273 002a 88BF     		it	hi
 274 002c 1146     		movhi	r1, r2
 275              	.LVL20:
 276              	.LBB7:
 277              	.LBB6:
 278              		.loc 1 656 0
 279 002e 1A80     		strh	r2, [r3]	@ movhi
 657:Generated_Source\PSoC5/ADC.c ****     /* Calculate gain in counts per 10 volts with rounding */
 658:Generated_Source\PSoC5/ADC.c ****     ADC_countsPer10Volt = (((counts * ADC_10MV_COUNTS) +
 659:Generated_Source\PSoC5/ADC.c ****                         ADC_DEFAULT_REF_VOLTAGE_MV) / (ADC_DEFAULT_REF_VOLTAGE_MV * 2));
 280              		.loc 1 659 0
 281 0030 42F21073 		movw	r3, #10000
 282 0034 4B43     		muls	r3, r1, r3
 283 0036 41F28831 		movw	r1, #5000
 284              	.LVL21:
 285 003a 03F6C413 		addw	r3, r3, #2500
 286 003e 93FBF1F3 		sdiv	r3, r3, r1
 658:Generated_Source\PSoC5/ADC.c ****                         ADC_DEFAULT_REF_VOLTAGE_MV) / (ADC_DEFAULT_REF_VOLTAGE_MV * 2));
 287              		.loc 1 658 0
 288 0042 0549     		ldr	r1, .L18+12
 289 0044 0B60     		str	r3, [r1]
 660:Generated_Source\PSoC5/ADC.c **** 
ARM GAS  C:\Users\chemi\AppData\Local\Temp\ccNFMF9g.s 			page 18


 661:Generated_Source\PSoC5/ADC.c ****     #if( (ADC_DEFAULT_RANGE == ADC__VSS_TO_VREF) || \
 662:Generated_Source\PSoC5/ADC.c ****          (ADC_DEFAULT_RANGE == ADC__VSSA_TO_VDDA) || \
 663:Generated_Source\PSoC5/ADC.c ****          (ADC_DEFAULT_RANGE == ADC__VSSA_TO_VDAC) )
 664:Generated_Source\PSoC5/ADC.c ****         ADC_shift = 0;
 290              		.loc 1 664 0
 291 0046 054B     		ldr	r3, .L18+16
 292 0048 1A80     		strh	r2, [r3]	@ movhi
 293 004a 7047     		bx	lr
 294              	.L19:
 295              		.align	2
 296              	.L18:
 297 004c 0A590040 		.word	1073764618
 298 0050 00000000 		.word	.LANCHOR0
 299 0054 00000000 		.word	ADC_countsPerVolt
 300 0058 00000000 		.word	ADC_countsPer10Volt
 301 005c 00000000 		.word	ADC_shift
 302              	.LBE6:
 303              	.LBE7:
 304              		.cfi_endproc
 305              	.LFE5:
 306              		.size	ADC_SetResolution, .-ADC_SetResolution
 307              		.section	.text.ADC_Init,"ax",%progbits
 308              		.align	1
 309              		.global	ADC_Init
 310              		.thumb
 311              		.thumb_func
 312              		.type	ADC_Init, %function
 313              	ADC_Init:
 314              	.LFB1:
 107:Generated_Source\PSoC5/ADC.c **** 
 315              		.loc 1 107 0
 316              		.cfi_startproc
 317              		@ args = 0, pretend = 0, frame = 0
 318              		@ frame_needed = 0, uses_anonymous_args = 0
 319 0000 08B5     		push	{r3, lr}
 320              		.cfi_def_cfa_offset 8
 321              		.cfi_offset 3, -8
 322              		.cfi_offset 14, -4
 111:Generated_Source\PSoC5/ADC.c ****     #endif /* End ADC_DEFAULT_INTERNAL_CLK */
 323              		.loc 1 111 0
 324 0002 1020     		movs	r0, #16
 325 0004 FFF7FEFF 		bl	ADC_theACLK_SetModeRegister
 326              	.LVL22:
 116:Generated_Source\PSoC5/ADC.c ****         (void)CyIntSetVector(ADC_INTC_NUMBER, &ADC_ISR);
 327              		.loc 1 116 0
 328 0008 0721     		movs	r1, #7
 329 000a 0220     		movs	r0, #2
 330 000c FFF7FEFF 		bl	CyIntSetPriority
 331              	.LVL23:
 117:Generated_Source\PSoC5/ADC.c ****     #endif   /* End ADC_IRQ_REMOVE */
 332              		.loc 1 117 0
 333 0010 0749     		ldr	r1, .L21
 334 0012 0220     		movs	r0, #2
 335 0014 FFF7FEFF 		bl	CyIntSetVector
 336              	.LVL24:
 121:Generated_Source\PSoC5/ADC.c **** 
 337              		.loc 1 121 0
ARM GAS  C:\Users\chemi\AppData\Local\Temp\ccNFMF9g.s 			page 19


 338 0018 064A     		ldr	r2, .L21+4
 124:Generated_Source\PSoC5/ADC.c ****     ADC_offset = 0;
 339              		.loc 1 124 0
 340 001a 0C20     		movs	r0, #12
 121:Generated_Source\PSoC5/ADC.c **** 
 341              		.loc 1 121 0
 342 001c 1378     		ldrb	r3, [r2]	@ zero_extendqisi2
 343 001e 43F00603 		orr	r3, r3, #6
 344 0022 1370     		strb	r3, [r2]
 124:Generated_Source\PSoC5/ADC.c ****     ADC_offset = 0;
 345              		.loc 1 124 0
 346 0024 FFF7FEFF 		bl	ADC_SetResolution
 347              	.LVL25:
 125:Generated_Source\PSoC5/ADC.c **** }
 348              		.loc 1 125 0
 349 0028 034B     		ldr	r3, .L21+8
 350 002a 0022     		movs	r2, #0
 351 002c 1A80     		strh	r2, [r3]	@ movhi
 352 002e 08BD     		pop	{r3, pc}
 353              	.L22:
 354              		.align	2
 355              	.L21:
 356 0030 00000000 		.word	ADC_ISR
 357 0034 09590040 		.word	1073764617
 358 0038 00000000 		.word	ADC_offset
 359              		.cfi_endproc
 360              	.LFE1:
 361              		.size	ADC_Init, .-ADC_Init
 362              		.section	.text.ADC_Start,"ax",%progbits
 363              		.align	1
 364              		.global	ADC_Start
 365              		.thumb
 366              		.thumb_func
 367              		.type	ADC_Start, %function
 368              	ADC_Start:
 369              	.LFB0:
  75:Generated_Source\PSoC5/ADC.c **** 
 370              		.loc 1 75 0
 371              		.cfi_startproc
 372              		@ args = 0, pretend = 0, frame = 0
 373              		@ frame_needed = 0, uses_anonymous_args = 0
 374 0000 10B5     		push	{r4, lr}
 375              		.cfi_def_cfa_offset 8
 376              		.cfi_offset 4, -8
 377              		.cfi_offset 14, -4
  78:Generated_Source\PSoC5/ADC.c ****     {
 378              		.loc 1 78 0
 379 0002 054C     		ldr	r4, .L25
 380 0004 2378     		ldrb	r3, [r4]	@ zero_extendqisi2
 381 0006 1BB9     		cbnz	r3, .L24
  80:Generated_Source\PSoC5/ADC.c ****         ADC_initVar = 1u;
 382              		.loc 1 80 0
 383 0008 FFF7FEFF 		bl	ADC_Init
 384              	.LVL26:
  81:Generated_Source\PSoC5/ADC.c ****     }
 385              		.loc 1 81 0
 386 000c 0123     		movs	r3, #1
ARM GAS  C:\Users\chemi\AppData\Local\Temp\ccNFMF9g.s 			page 20


 387 000e 2370     		strb	r3, [r4]
 388              	.L24:
  84:Generated_Source\PSoC5/ADC.c **** 
 389              		.loc 1 84 0
 390 0010 BDE81040 		pop	{r4, lr}
 391              		.cfi_restore 14
 392              		.cfi_restore 4
 393              		.cfi_def_cfa_offset 0
  83:Generated_Source\PSoC5/ADC.c **** }
 394              		.loc 1 83 0
 395 0014 FFF7FEBF 		b	ADC_Enable
 396              	.LVL27:
 397              	.L26:
 398              		.align	2
 399              	.L25:
 400 0018 00000000 		.word	.LANCHOR1
 401              		.cfi_endproc
 402              	.LFE0:
 403              		.size	ADC_Start, .-ADC_Start
 404              		.section	.text.ADC_IsEndConversion,"ax",%progbits
 405              		.align	1
 406              		.global	ADC_IsEndConversion
 407              		.thumb
 408              		.thumb_func
 409              		.type	ADC_IsEndConversion, %function
 410              	ADC_IsEndConversion:
 411              	.LFB6:
 476:Generated_Source\PSoC5/ADC.c ****     uint8 status;
 412              		.loc 1 476 0
 413              		.cfi_startproc
 414              		@ args = 0, pretend = 0, frame = 0
 415              		@ frame_needed = 0, uses_anonymous_args = 0
 416              	.LVL28:
 417 0000 10B5     		push	{r4, lr}
 418              		.cfi_def_cfa_offset 8
 419              		.cfi_offset 4, -8
 420              		.cfi_offset 14, -4
 481:Generated_Source\PSoC5/ADC.c ****     } while ((status != ADC_SAR_EOF_1) && (retMode == ADC_WAIT_FOR_RESULT));
 421              		.loc 1 481 0
 422 0002 084B     		ldr	r3, .L34
 423              	.L29:
 481:Generated_Source\PSoC5/ADC.c ****     } while ((status != ADC_SAR_EOF_1) && (retMode == ADC_WAIT_FOR_RESULT));
 424              		.loc 1 481 0 is_stmt 0 discriminator 2
 425 0004 1C78     		ldrb	r4, [r3]	@ zero_extendqisi2
 426              	.LVL29:
 482:Generated_Source\PSoC5/ADC.c ****     /* If convertion complete, wait until EOF bit released */
 427              		.loc 1 482 0 is_stmt 1 discriminator 2
 428 0006 14F00104 		ands	r4, r4, #1
 429              	.LVL30:
 430 000a 03D1     		bne	.L28
 482:Generated_Source\PSoC5/ADC.c ****     /* If convertion complete, wait until EOF bit released */
 431              		.loc 1 482 0 is_stmt 0 discriminator 1
 432 000c 0028     		cmp	r0, #0
 433 000e F9D0     		beq	.L29
 434 0010 0024     		movs	r4, #0
 435 0012 04E0     		b	.L33
 436              	.L28:
ARM GAS  C:\Users\chemi\AppData\Local\Temp\ccNFMF9g.s 			page 21


 487:Generated_Source\PSoC5/ADC.c ****         /* Do the unconditional read operation of the CSR1 register to make sure the EOC bit has be
 437              		.loc 1 487 0 is_stmt 1
 438 0014 2046     		mov	r0, r4
 439              	.LVL31:
 440 0016 FFF7FEFF 		bl	CyDelayUs
 441              	.LVL32:
 489:Generated_Source\PSoC5/ADC.c ****     }
 442              		.loc 1 489 0
 443 001a 024B     		ldr	r3, .L34
 444 001c 1B78     		ldrb	r3, [r3]	@ zero_extendqisi2
 445              	.L33:
 493:Generated_Source\PSoC5/ADC.c **** 
 446              		.loc 1 493 0
 447 001e 2046     		mov	r0, r4
 448 0020 10BD     		pop	{r4, pc}
 449              	.L35:
 450 0022 00BF     		.align	2
 451              	.L34:
 452 0024 09590040 		.word	1073764617
 453              		.cfi_endproc
 454              	.LFE6:
 455              		.size	ADC_IsEndConversion, .-ADC_IsEndConversion
 456              		.section	.text.ADC_GetResult8,"ax",%progbits
 457              		.align	1
 458              		.global	ADC_GetResult8
 459              		.thumb
 460              		.thumb_func
 461              		.type	ADC_GetResult8, %function
 462              	ADC_GetResult8:
 463              	.LFB7:
 521:Generated_Source\PSoC5/ADC.c ****     return( (int8)ADC_SAR_WRK0_REG - (int8)ADC_shift);
 464              		.loc 1 521 0
 465              		.cfi_startproc
 466              		@ args = 0, pretend = 0, frame = 0
 467              		@ frame_needed = 0, uses_anonymous_args = 0
 468              		@ link register save eliminated.
 522:Generated_Source\PSoC5/ADC.c **** }
 469              		.loc 1 522 0
 470 0000 034A     		ldr	r2, .L37
 471 0002 044B     		ldr	r3, .L37+4
 472 0004 1B78     		ldrb	r3, [r3]	@ zero_extendqisi2
 473 0006 1088     		ldrh	r0, [r2]
 474 0008 181A     		subs	r0, r3, r0
 523:Generated_Source\PSoC5/ADC.c **** 
 475              		.loc 1 523 0
 476 000a 40B2     		sxtb	r0, r0
 477 000c 7047     		bx	lr
 478              	.L38:
 479 000e 00BF     		.align	2
 480              	.L37:
 481 0010 00000000 		.word	ADC_shift
 482 0014 A25B0040 		.word	1073765282
 483              		.cfi_endproc
 484              	.LFE7:
 485              		.size	ADC_GetResult8, .-ADC_GetResult8
 486              		.section	.text.ADC_GetResult16,"ax",%progbits
 487              		.align	1
ARM GAS  C:\Users\chemi\AppData\Local\Temp\ccNFMF9g.s 			page 22


 488              		.global	ADC_GetResult16
 489              		.thumb
 490              		.thumb_func
 491              		.type	ADC_GetResult16, %function
 492              	ADC_GetResult16:
 493              	.LFB8:
 551:Generated_Source\PSoC5/ADC.c ****     uint16 res;
 494              		.loc 1 551 0
 495              		.cfi_startproc
 496              		@ args = 0, pretend = 0, frame = 0
 497              		@ frame_needed = 0, uses_anonymous_args = 0
 498              		@ link register save eliminated.
 556:Generated_Source\PSoC5/ADC.c **** }
 499              		.loc 1 556 0
 500 0000 034A     		ldr	r2, .L40
 554:Generated_Source\PSoC5/ADC.c **** 
 501              		.loc 1 554 0
 502 0002 044B     		ldr	r3, .L40+4
 503 0004 1B88     		ldrh	r3, [r3]
 504              	.LVL33:
 556:Generated_Source\PSoC5/ADC.c **** }
 505              		.loc 1 556 0
 506 0006 1088     		ldrh	r0, [r2]
 507 0008 181A     		subs	r0, r3, r0
 557:Generated_Source\PSoC5/ADC.c **** 
 508              		.loc 1 557 0
 509 000a 00B2     		sxth	r0, r0
 510 000c 7047     		bx	lr
 511              	.L41:
 512 000e 00BF     		.align	2
 513              	.L40:
 514 0010 00000000 		.word	ADC_shift
 515 0014 A25B0040 		.word	1073765282
 516              		.cfi_endproc
 517              	.LFE8:
 518              		.size	ADC_GetResult16, .-ADC_GetResult16
 519              		.section	.text.ADC_SetOffset,"ax",%progbits
 520              		.align	1
 521              		.global	ADC_SetOffset
 522              		.thumb
 523              		.thumb_func
 524              		.type	ADC_SetOffset, %function
 525              	ADC_SetOffset:
 526              	.LFB9:
 586:Generated_Source\PSoC5/ADC.c ****     ADC_offset = offset;
 527              		.loc 1 586 0
 528              		.cfi_startproc
 529              		@ args = 0, pretend = 0, frame = 0
 530              		@ frame_needed = 0, uses_anonymous_args = 0
 531              		@ link register save eliminated.
 532              	.LVL34:
 587:Generated_Source\PSoC5/ADC.c **** }
 533              		.loc 1 587 0
 534 0000 014B     		ldr	r3, .L43
 535 0002 1880     		strh	r0, [r3]	@ movhi
 536 0004 7047     		bx	lr
 537              	.L44:
ARM GAS  C:\Users\chemi\AppData\Local\Temp\ccNFMF9g.s 			page 23


 538 0006 00BF     		.align	2
 539              	.L43:
 540 0008 00000000 		.word	ADC_offset
 541              		.cfi_endproc
 542              	.LFE9:
 543              		.size	ADC_SetOffset, .-ADC_SetOffset
 544              		.section	.text.ADC_SetGain,"ax",%progbits
 545              		.align	1
 546              		.global	ADC_SetGain
 547              		.thumb
 548              		.thumb_func
 549              		.type	ADC_SetGain, %function
 550              	ADC_SetGain:
 551              	.LFB11:
 665:Generated_Source\PSoC5/ADC.c ****     #else
 666:Generated_Source\PSoC5/ADC.c ****         ADC_shift = diff_zero;
 667:Generated_Source\PSoC5/ADC.c ****     #endif /* End ADC_DEFAULT_RANGE */
 668:Generated_Source\PSoC5/ADC.c **** }
 669:Generated_Source\PSoC5/ADC.c **** 
 670:Generated_Source\PSoC5/ADC.c **** 
 671:Generated_Source\PSoC5/ADC.c **** /*******************************************************************************
 672:Generated_Source\PSoC5/ADC.c **** * Function Name: ADC_SetGain
 673:Generated_Source\PSoC5/ADC.c **** ********************************************************************************
 674:Generated_Source\PSoC5/ADC.c **** *
 675:Generated_Source\PSoC5/ADC.c **** * Summary:
 676:Generated_Source\PSoC5/ADC.c **** *  Sets the ADC gain in counts per volt for the voltage conversion functions
 677:Generated_Source\PSoC5/ADC.c **** *  that follow. This value is set by default by the reference and input range
 678:Generated_Source\PSoC5/ADC.c **** *  settings. It should only be used to further calibrate the ADC with a known
 679:Generated_Source\PSoC5/ADC.c **** *  input or if the ADC is using an external reference.
 680:Generated_Source\PSoC5/ADC.c **** *
 681:Generated_Source\PSoC5/ADC.c **** * Parameters:
 682:Generated_Source\PSoC5/ADC.c **** *  int16 adcGain counts per volt
 683:Generated_Source\PSoC5/ADC.c **** *
 684:Generated_Source\PSoC5/ADC.c **** * Return:
 685:Generated_Source\PSoC5/ADC.c **** *  None.
 686:Generated_Source\PSoC5/ADC.c **** *
 687:Generated_Source\PSoC5/ADC.c **** * Global Variables:
 688:Generated_Source\PSoC5/ADC.c **** *  ADC_countsPer10Volt variable modified. This variable is used
 689:Generated_Source\PSoC5/ADC.c **** *  for gain calibration purpose.
 690:Generated_Source\PSoC5/ADC.c **** *
 691:Generated_Source\PSoC5/ADC.c **** *******************************************************************************/
 692:Generated_Source\PSoC5/ADC.c **** void ADC_SetGain(int16 adcGain)
 693:Generated_Source\PSoC5/ADC.c **** {
 552              		.loc 1 693 0
 553              		.cfi_startproc
 554              		@ args = 0, pretend = 0, frame = 0
 555              		@ frame_needed = 0, uses_anonymous_args = 0
 556              		@ link register save eliminated.
 557              	.LVL35:
 694:Generated_Source\PSoC5/ADC.c ****     ADC_countsPer10Volt = (int32)adcGain * 10;
 558              		.loc 1 694 0
 559 0000 0A23     		movs	r3, #10
 560 0002 5843     		muls	r0, r3, r0
 561              	.LVL36:
 562 0004 014B     		ldr	r3, .L46
 563 0006 1860     		str	r0, [r3]
 564 0008 7047     		bx	lr
ARM GAS  C:\Users\chemi\AppData\Local\Temp\ccNFMF9g.s 			page 24


 565              	.L47:
 566 000a 00BF     		.align	2
 567              	.L46:
 568 000c 00000000 		.word	ADC_countsPer10Volt
 569              		.cfi_endproc
 570              	.LFE11:
 571              		.size	ADC_SetGain, .-ADC_SetGain
 572              		.section	.text.ADC_SetScaledGain,"ax",%progbits
 573              		.align	1
 574              		.global	ADC_SetScaledGain
 575              		.thumb
 576              		.thumb_func
 577              		.type	ADC_SetScaledGain, %function
 578              	ADC_SetScaledGain:
 579              	.LFB12:
 695:Generated_Source\PSoC5/ADC.c **** }
 696:Generated_Source\PSoC5/ADC.c **** 
 697:Generated_Source\PSoC5/ADC.c **** 
 698:Generated_Source\PSoC5/ADC.c **** /*******************************************************************************
 699:Generated_Source\PSoC5/ADC.c **** * Function Name: ADC_SetScaledGain
 700:Generated_Source\PSoC5/ADC.c **** ********************************************************************************
 701:Generated_Source\PSoC5/ADC.c **** *
 702:Generated_Source\PSoC5/ADC.c **** * Summary:
 703:Generated_Source\PSoC5/ADC.c **** *  Sets the ADC gain in counts per 10 volt for the voltage conversion functions
 704:Generated_Source\PSoC5/ADC.c **** *  that follow. This value is set by default by the reference and input range
 705:Generated_Source\PSoC5/ADC.c **** *  settings. It should only be used to further calibrate the ADC with a known
 706:Generated_Source\PSoC5/ADC.c **** *  input or if the ADC is using an external reference.
 707:Generated_Source\PSoC5/ADC.c **** *
 708:Generated_Source\PSoC5/ADC.c **** * Parameters:
 709:Generated_Source\PSoC5/ADC.c **** *  int32 adcGain  counts per 10 volt
 710:Generated_Source\PSoC5/ADC.c **** *
 711:Generated_Source\PSoC5/ADC.c **** * Return:
 712:Generated_Source\PSoC5/ADC.c **** *  None.
 713:Generated_Source\PSoC5/ADC.c **** *
 714:Generated_Source\PSoC5/ADC.c **** * Global Variables:
 715:Generated_Source\PSoC5/ADC.c **** *  ADC_countsPer10Volt variable modified. This variable is used
 716:Generated_Source\PSoC5/ADC.c **** *  for gain calibration purpose.
 717:Generated_Source\PSoC5/ADC.c **** *
 718:Generated_Source\PSoC5/ADC.c **** *******************************************************************************/
 719:Generated_Source\PSoC5/ADC.c **** void ADC_SetScaledGain(int32 adcGain)
 720:Generated_Source\PSoC5/ADC.c **** {
 580              		.loc 1 720 0
 581              		.cfi_startproc
 582              		@ args = 0, pretend = 0, frame = 0
 583              		@ frame_needed = 0, uses_anonymous_args = 0
 584              		@ link register save eliminated.
 585              	.LVL37:
 721:Generated_Source\PSoC5/ADC.c ****     ADC_countsPer10Volt = adcGain;
 586              		.loc 1 721 0
 587 0000 014B     		ldr	r3, .L49
 588 0002 1860     		str	r0, [r3]
 589 0004 7047     		bx	lr
 590              	.L50:
 591 0006 00BF     		.align	2
 592              	.L49:
 593 0008 00000000 		.word	ADC_countsPer10Volt
 594              		.cfi_endproc
ARM GAS  C:\Users\chemi\AppData\Local\Temp\ccNFMF9g.s 			page 25


 595              	.LFE12:
 596              		.size	ADC_SetScaledGain, .-ADC_SetScaledGain
 597              		.section	.text.ADC_CountsTo_mVolts,"ax",%progbits
 598              		.align	1
 599              		.global	ADC_CountsTo_mVolts
 600              		.thumb
 601              		.thumb_func
 602              		.type	ADC_CountsTo_mVolts, %function
 603              	ADC_CountsTo_mVolts:
 604              	.LFB13:
 722:Generated_Source\PSoC5/ADC.c **** }
 723:Generated_Source\PSoC5/ADC.c **** 
 724:Generated_Source\PSoC5/ADC.c **** 
 725:Generated_Source\PSoC5/ADC.c **** /*******************************************************************************
 726:Generated_Source\PSoC5/ADC.c **** * Function Name: ADC_CountsTo_mVolts
 727:Generated_Source\PSoC5/ADC.c **** ********************************************************************************
 728:Generated_Source\PSoC5/ADC.c **** *
 729:Generated_Source\PSoC5/ADC.c **** * Summary:
 730:Generated_Source\PSoC5/ADC.c **** *  Converts the ADC output to millivolts as a 16-bit integer.
 731:Generated_Source\PSoC5/ADC.c **** *
 732:Generated_Source\PSoC5/ADC.c **** * Parameters:
 733:Generated_Source\PSoC5/ADC.c **** *  int16 adcCounts:  Result from the ADC conversion
 734:Generated_Source\PSoC5/ADC.c **** *
 735:Generated_Source\PSoC5/ADC.c **** * Return:
 736:Generated_Source\PSoC5/ADC.c **** *  int16 Result in mVolts
 737:Generated_Source\PSoC5/ADC.c **** *
 738:Generated_Source\PSoC5/ADC.c **** * Global Variables:
 739:Generated_Source\PSoC5/ADC.c **** *  ADC_offset variable used.
 740:Generated_Source\PSoC5/ADC.c **** *  ADC_countsPer10Volt variable used.
 741:Generated_Source\PSoC5/ADC.c **** *
 742:Generated_Source\PSoC5/ADC.c **** *******************************************************************************/
 743:Generated_Source\PSoC5/ADC.c **** int16 ADC_CountsTo_mVolts(int16 adcCounts)
 744:Generated_Source\PSoC5/ADC.c **** {
 605              		.loc 1 744 0
 606              		.cfi_startproc
 607              		@ args = 0, pretend = 0, frame = 0
 608              		@ frame_needed = 0, uses_anonymous_args = 0
 609              		@ link register save eliminated.
 610              	.LVL38:
 745:Generated_Source\PSoC5/ADC.c ****     int16 mVolts;
 746:Generated_Source\PSoC5/ADC.c ****     int32 countsPer10Volt;
 747:Generated_Source\PSoC5/ADC.c **** 
 748:Generated_Source\PSoC5/ADC.c ****     if(ADC_countsPerVolt != 0)
 611              		.loc 1 748 0
 612 0000 0E4A     		ldr	r2, .L56
 613 0002 1388     		ldrh	r3, [r2]
 614 0004 1BB2     		sxth	r3, r3
 615 0006 23B1     		cbz	r3, .L52
 749:Generated_Source\PSoC5/ADC.c ****     {   /* Support obsolete method */
 750:Generated_Source\PSoC5/ADC.c ****         countsPer10Volt = (int32)ADC_countsPerVolt * 10;
 616              		.loc 1 750 0
 617 0008 1188     		ldrh	r1, [r2]
 618 000a 0A23     		movs	r3, #10
 619 000c 09B2     		sxth	r1, r1
 620 000e 5943     		muls	r1, r3, r1
 621              	.LVL39:
 622 0010 01E0     		b	.L53
ARM GAS  C:\Users\chemi\AppData\Local\Temp\ccNFMF9g.s 			page 26


 623              	.LVL40:
 624              	.L52:
 751:Generated_Source\PSoC5/ADC.c ****     }
 752:Generated_Source\PSoC5/ADC.c ****     else
 753:Generated_Source\PSoC5/ADC.c ****     {
 754:Generated_Source\PSoC5/ADC.c ****         countsPer10Volt = ADC_countsPer10Volt;
 625              		.loc 1 754 0
 626 0012 0B4B     		ldr	r3, .L56+4
 627 0014 1968     		ldr	r1, [r3]
 628              	.LVL41:
 629              	.L53:
 755:Generated_Source\PSoC5/ADC.c ****     }
 756:Generated_Source\PSoC5/ADC.c **** 
 757:Generated_Source\PSoC5/ADC.c ****     /* Subtract ADC offset */
 758:Generated_Source\PSoC5/ADC.c ****     adcCounts -= ADC_offset;
 630              		.loc 1 758 0
 631 0016 0B4B     		ldr	r3, .L56+8
 632 0018 1B88     		ldrh	r3, [r3]
 633 001a C01A     		subs	r0, r0, r3
 634              	.LVL42:
 759:Generated_Source\PSoC5/ADC.c ****     /* Convert to millivolts with rounding */
 760:Generated_Source\PSoC5/ADC.c ****     mVolts = (int16)( (( (int32)adcCounts * ADC_10MV_COUNTS ) + ( (adcCounts > 0) ?
 635              		.loc 1 760 0
 636 001c 42F21073 		movw	r3, #10000
 758:Generated_Source\PSoC5/ADC.c ****     /* Convert to millivolts with rounding */
 637              		.loc 1 758 0
 638 0020 00B2     		sxth	r0, r0
 639              	.LVL43:
 640              		.loc 1 760 0
 641 0022 03FB00F2 		mul	r2, r3, r0
 642 0026 0223     		movs	r3, #2
 761:Generated_Source\PSoC5/ADC.c ****                        (countsPer10Volt / 2) : (-(countsPer10Volt / 2)) )) / countsPer10Volt);
 643              		.loc 1 761 0
 644 0028 91FBF3F3 		sdiv	r3, r1, r3
 645 002c 0028     		cmp	r0, #0
 646 002e D8BF     		it	le
 647 0030 5B42     		rsble	r3, r3, #0
 648              	.LVL44:
 762:Generated_Source\PSoC5/ADC.c **** 
 763:Generated_Source\PSoC5/ADC.c ****     return( mVolts );
 649              		.loc 1 763 0
 650 0032 1344     		add	r3, r3, r2
 651              	.LVL45:
 652 0034 93FBF1F0 		sdiv	r0, r3, r1
 653              	.LVL46:
 764:Generated_Source\PSoC5/ADC.c **** }
 654              		.loc 1 764 0
 655 0038 00B2     		sxth	r0, r0
 656 003a 7047     		bx	lr
 657              	.L57:
 658              		.align	2
 659              	.L56:
 660 003c 00000000 		.word	ADC_countsPerVolt
 661 0040 00000000 		.word	ADC_countsPer10Volt
 662 0044 00000000 		.word	ADC_offset
 663              		.cfi_endproc
 664              	.LFE13:
ARM GAS  C:\Users\chemi\AppData\Local\Temp\ccNFMF9g.s 			page 27


 665              		.size	ADC_CountsTo_mVolts, .-ADC_CountsTo_mVolts
 666              		.global	__aeabi_ldivmod
 667              		.section	.text.ADC_CountsTo_uVolts,"ax",%progbits
 668              		.align	1
 669              		.global	ADC_CountsTo_uVolts
 670              		.thumb
 671              		.thumb_func
 672              		.type	ADC_CountsTo_uVolts, %function
 673              	ADC_CountsTo_uVolts:
 674              	.LFB14:
 765:Generated_Source\PSoC5/ADC.c **** 
 766:Generated_Source\PSoC5/ADC.c **** 
 767:Generated_Source\PSoC5/ADC.c **** /*******************************************************************************
 768:Generated_Source\PSoC5/ADC.c **** * Function Name: ADC_CountsTo_uVolts
 769:Generated_Source\PSoC5/ADC.c **** ********************************************************************************
 770:Generated_Source\PSoC5/ADC.c **** *
 771:Generated_Source\PSoC5/ADC.c **** * Summary:
 772:Generated_Source\PSoC5/ADC.c **** *  Converts the ADC output to microvolts as a 32-bit integer.
 773:Generated_Source\PSoC5/ADC.c **** *
 774:Generated_Source\PSoC5/ADC.c **** * Parameters:
 775:Generated_Source\PSoC5/ADC.c **** *  int16 adcCounts: Result from the ADC conversion
 776:Generated_Source\PSoC5/ADC.c **** *
 777:Generated_Source\PSoC5/ADC.c **** * Return:
 778:Generated_Source\PSoC5/ADC.c **** *  int32 Result in micro Volts
 779:Generated_Source\PSoC5/ADC.c **** *
 780:Generated_Source\PSoC5/ADC.c **** * Global Variables:
 781:Generated_Source\PSoC5/ADC.c **** *  ADC_offset variable used.
 782:Generated_Source\PSoC5/ADC.c **** *  ADC_countsPer10Volt used to convert ADC counts to uVolts.
 783:Generated_Source\PSoC5/ADC.c **** *
 784:Generated_Source\PSoC5/ADC.c **** *******************************************************************************/
 785:Generated_Source\PSoC5/ADC.c **** int32 ADC_CountsTo_uVolts(int16 adcCounts)
 786:Generated_Source\PSoC5/ADC.c **** {
 675              		.loc 1 786 0
 676              		.cfi_startproc
 677              		@ args = 0, pretend = 0, frame = 0
 678              		@ frame_needed = 0, uses_anonymous_args = 0
 679              	.LVL47:
 787:Generated_Source\PSoC5/ADC.c **** 
 788:Generated_Source\PSoC5/ADC.c ****     int64 uVolts;
 789:Generated_Source\PSoC5/ADC.c ****     int32 countsPer10Volt;
 790:Generated_Source\PSoC5/ADC.c **** 
 791:Generated_Source\PSoC5/ADC.c ****     if(ADC_countsPerVolt != 0)
 680              		.loc 1 791 0
 681 0000 0C4A     		ldr	r2, .L61
 786:Generated_Source\PSoC5/ADC.c **** 
 682              		.loc 1 786 0
 683 0002 38B5     		push	{r3, r4, r5, lr}
 684              		.cfi_def_cfa_offset 16
 685              		.cfi_offset 3, -16
 686              		.cfi_offset 4, -12
 687              		.cfi_offset 5, -8
 688              		.cfi_offset 14, -4
 689              		.loc 1 791 0
 690 0004 1388     		ldrh	r3, [r2]
 691 0006 1BB2     		sxth	r3, r3
 692 0008 23B1     		cbz	r3, .L59
 792:Generated_Source\PSoC5/ADC.c ****     {   /* Support obsolete method */
ARM GAS  C:\Users\chemi\AppData\Local\Temp\ccNFMF9g.s 			page 28


 793:Generated_Source\PSoC5/ADC.c ****         countsPer10Volt = (int32)ADC_countsPerVolt * 10;
 693              		.loc 1 793 0
 694 000a 1288     		ldrh	r2, [r2]
 695 000c 0A23     		movs	r3, #10
 696 000e 12B2     		sxth	r2, r2
 697 0010 5A43     		muls	r2, r3, r2
 698              	.LVL48:
 699 0012 01E0     		b	.L60
 700              	.LVL49:
 701              	.L59:
 794:Generated_Source\PSoC5/ADC.c ****     }
 795:Generated_Source\PSoC5/ADC.c ****     else
 796:Generated_Source\PSoC5/ADC.c ****     {
 797:Generated_Source\PSoC5/ADC.c ****         countsPer10Volt = ADC_countsPer10Volt;
 702              		.loc 1 797 0
 703 0014 084B     		ldr	r3, .L61+4
 704 0016 1A68     		ldr	r2, [r3]
 705              	.LVL50:
 706              	.L60:
 798:Generated_Source\PSoC5/ADC.c ****     }
 799:Generated_Source\PSoC5/ADC.c **** 
 800:Generated_Source\PSoC5/ADC.c ****     /* Subtract ADC offset */
 801:Generated_Source\PSoC5/ADC.c ****     adcCounts -= ADC_offset;
 707              		.loc 1 801 0
 708 0018 084B     		ldr	r3, .L61+8
 709 001a 1C88     		ldrh	r4, [r3]
 802:Generated_Source\PSoC5/ADC.c ****     /* To convert adcCounts to microVolts it is required to be multiplied
 803:Generated_Source\PSoC5/ADC.c ****     *  on 10 million and later divide on gain in counts per 10V.
 804:Generated_Source\PSoC5/ADC.c ****     */
 805:Generated_Source\PSoC5/ADC.c ****     uVolts = (( (int64)adcCounts * ADC_10UV_COUNTS ) / countsPer10Volt);
 806:Generated_Source\PSoC5/ADC.c **** 
 807:Generated_Source\PSoC5/ADC.c ****     return((int32) uVolts );
 710              		.loc 1 807 0
 711 001c 084B     		ldr	r3, .L61+12
 801:Generated_Source\PSoC5/ADC.c ****     /* To convert adcCounts to microVolts it is required to be multiplied
 712              		.loc 1 801 0
 713 001e 041B     		subs	r4, r0, r4
 714              	.LVL51:
 715              		.loc 1 807 0
 716 0020 24B2     		sxth	r4, r4
 717 0022 A4FB0301 		umull	r0, r1, r4, r3
 718 0026 E517     		asrs	r5, r4, #31
 719 0028 03FB0511 		mla	r1, r3, r5, r1
 720 002c D317     		asrs	r3, r2, #31
 721 002e FFF7FEFF 		bl	__aeabi_ldivmod
 722              	.LVL52:
 808:Generated_Source\PSoC5/ADC.c **** }
 723              		.loc 1 808 0
 724 0032 38BD     		pop	{r3, r4, r5, pc}
 725              	.LVL53:
 726              	.L62:
 727              		.align	2
 728              	.L61:
 729 0034 00000000 		.word	ADC_countsPerVolt
 730 0038 00000000 		.word	ADC_countsPer10Volt
 731 003c 00000000 		.word	ADC_offset
 732 0040 80969800 		.word	10000000
ARM GAS  C:\Users\chemi\AppData\Local\Temp\ccNFMF9g.s 			page 29


 733              		.cfi_endproc
 734              	.LFE14:
 735              		.size	ADC_CountsTo_uVolts, .-ADC_CountsTo_uVolts
 736              		.global	__aeabi_i2f
 737              		.global	__aeabi_fmul
 738              		.global	__aeabi_fdiv
 739              		.section	.text.ADC_CountsTo_Volts,"ax",%progbits
 740              		.align	1
 741              		.global	ADC_CountsTo_Volts
 742              		.thumb
 743              		.thumb_func
 744              		.type	ADC_CountsTo_Volts, %function
 745              	ADC_CountsTo_Volts:
 746              	.LFB15:
 809:Generated_Source\PSoC5/ADC.c **** 
 810:Generated_Source\PSoC5/ADC.c **** 
 811:Generated_Source\PSoC5/ADC.c **** /*******************************************************************************
 812:Generated_Source\PSoC5/ADC.c **** * Function Name: ADC_CountsTo_Volts
 813:Generated_Source\PSoC5/ADC.c **** ********************************************************************************
 814:Generated_Source\PSoC5/ADC.c **** *
 815:Generated_Source\PSoC5/ADC.c **** * Summary:
 816:Generated_Source\PSoC5/ADC.c **** *  Converts the ADC output to volts as a floating-point number.
 817:Generated_Source\PSoC5/ADC.c **** *
 818:Generated_Source\PSoC5/ADC.c **** * Parameters:
 819:Generated_Source\PSoC5/ADC.c **** *  int16 adcCounts: Result from the ADC conversion
 820:Generated_Source\PSoC5/ADC.c **** *
 821:Generated_Source\PSoC5/ADC.c **** * Return:
 822:Generated_Source\PSoC5/ADC.c **** *  float Result in Volts
 823:Generated_Source\PSoC5/ADC.c **** *
 824:Generated_Source\PSoC5/ADC.c **** * Global Variables:
 825:Generated_Source\PSoC5/ADC.c **** *  ADC_offset variable used.
 826:Generated_Source\PSoC5/ADC.c **** *  ADC_countsPer10Volt used to convert ADC counts to Volts.
 827:Generated_Source\PSoC5/ADC.c **** *
 828:Generated_Source\PSoC5/ADC.c **** *******************************************************************************/
 829:Generated_Source\PSoC5/ADC.c **** float32 ADC_CountsTo_Volts(int16 adcCounts)
 830:Generated_Source\PSoC5/ADC.c **** {
 747              		.loc 1 830 0
 748              		.cfi_startproc
 749              		@ args = 0, pretend = 0, frame = 0
 750              		@ frame_needed = 0, uses_anonymous_args = 0
 751              	.LVL54:
 831:Generated_Source\PSoC5/ADC.c ****     float32 volts;
 832:Generated_Source\PSoC5/ADC.c ****     int32 countsPer10Volt;
 833:Generated_Source\PSoC5/ADC.c **** 
 834:Generated_Source\PSoC5/ADC.c ****     if(ADC_countsPerVolt != 0)
 752              		.loc 1 834 0
 753 0000 0E4A     		ldr	r2, .L66
 830:Generated_Source\PSoC5/ADC.c ****     float32 volts;
 754              		.loc 1 830 0
 755 0002 38B5     		push	{r3, r4, r5, lr}
 756              		.cfi_def_cfa_offset 16
 757              		.cfi_offset 3, -16
 758              		.cfi_offset 4, -12
 759              		.cfi_offset 5, -8
 760              		.cfi_offset 14, -4
 761              		.loc 1 834 0
 762 0004 1388     		ldrh	r3, [r2]
ARM GAS  C:\Users\chemi\AppData\Local\Temp\ccNFMF9g.s 			page 30


 763 0006 1BB2     		sxth	r3, r3
 764 0008 23B1     		cbz	r3, .L64
 835:Generated_Source\PSoC5/ADC.c ****     {   /* Support obsolete method */
 836:Generated_Source\PSoC5/ADC.c ****         countsPer10Volt = (int32)ADC_countsPerVolt * 10;
 765              		.loc 1 836 0
 766 000a 1488     		ldrh	r4, [r2]
 767 000c 0A23     		movs	r3, #10
 768 000e 24B2     		sxth	r4, r4
 769 0010 5C43     		muls	r4, r3, r4
 770              	.LVL55:
 771 0012 01E0     		b	.L65
 772              	.LVL56:
 773              	.L64:
 837:Generated_Source\PSoC5/ADC.c ****     }
 838:Generated_Source\PSoC5/ADC.c ****     else
 839:Generated_Source\PSoC5/ADC.c ****     {
 840:Generated_Source\PSoC5/ADC.c ****         countsPer10Volt = ADC_countsPer10Volt;
 774              		.loc 1 840 0
 775 0014 0A4B     		ldr	r3, .L66+4
 776 0016 1C68     		ldr	r4, [r3]
 777              	.LVL57:
 778              	.L65:
 841:Generated_Source\PSoC5/ADC.c ****     }
 842:Generated_Source\PSoC5/ADC.c **** 
 843:Generated_Source\PSoC5/ADC.c ****     /* Subtract ADC offset */
 844:Generated_Source\PSoC5/ADC.c ****     adcCounts -= ADC_offset;
 779              		.loc 1 844 0
 780 0018 0A4B     		ldr	r3, .L66+8
 781 001a 1B88     		ldrh	r3, [r3]
 782 001c C01A     		subs	r0, r0, r3
 783              	.LVL58:
 845:Generated_Source\PSoC5/ADC.c **** 
 846:Generated_Source\PSoC5/ADC.c ****     volts = ((float32)adcCounts * ADC_10V_COUNTS) / (float32)countsPer10Volt;
 847:Generated_Source\PSoC5/ADC.c **** 
 848:Generated_Source\PSoC5/ADC.c ****     return( volts );
 784              		.loc 1 848 0
 785 001e 00B2     		sxth	r0, r0
 786 0020 FFF7FEFF 		bl	__aeabi_i2f
 787              	.LVL59:
 788 0024 0849     		ldr	r1, .L66+12
 789 0026 FFF7FEFF 		bl	__aeabi_fmul
 790              	.LVL60:
 791 002a 0546     		mov	r5, r0
 792 002c 2046     		mov	r0, r4
 793 002e FFF7FEFF 		bl	__aeabi_i2f
 794              	.LVL61:
 795 0032 0146     		mov	r1, r0
 796 0034 2846     		mov	r0, r5
 797 0036 FFF7FEFF 		bl	__aeabi_fdiv
 798              	.LVL62:
 849:Generated_Source\PSoC5/ADC.c **** }
 799              		.loc 1 849 0
 800 003a 38BD     		pop	{r3, r4, r5, pc}
 801              	.LVL63:
 802              	.L67:
 803              		.align	2
 804              	.L66:
ARM GAS  C:\Users\chemi\AppData\Local\Temp\ccNFMF9g.s 			page 31


 805 003c 00000000 		.word	ADC_countsPerVolt
 806 0040 00000000 		.word	ADC_countsPer10Volt
 807 0044 00000000 		.word	ADC_offset
 808 0048 00002041 		.word	1092616192
 809              		.cfi_endproc
 810              	.LFE15:
 811              		.size	ADC_CountsTo_Volts, .-ADC_CountsTo_Volts
 812              		.comm	ADC_shift,2,2
 813              		.comm	ADC_countsPer10Volt,4,4
 814              		.comm	ADC_countsPerVolt,2,2
 815              		.comm	ADC_offset,2,2
 816              		.global	ADC_initVar
 817              		.section	.rodata
 818              		.align	1
 819              		.set	.LANCHOR0,. + 0
 820              		.type	CSWTCH.24, %object
 821              		.size	CSWTCH.24, 10
 822              	CSWTCH.24:
 823 0000 0001     		.short	256
 824 0002 0000     		.short	0
 825 0004 0004     		.short	1024
 826 0006 0000     		.short	0
 827 0008 0010     		.short	4096
 828              		.bss
 829              		.set	.LANCHOR1,. + 0
 830              		.type	ADC_initVar, %object
 831              		.size	ADC_initVar, 1
 832              	ADC_initVar:
 833 0000 00       		.space	1
 834              		.text
 835              	.Letext0:
 836              		.file 2 "Generated_Source\\PSoC5\\cytypes.h"
 837              		.file 3 "Generated_Source\\PSoC5\\CyLib.h"
 838              		.file 4 "Generated_Source\\PSoC5\\ADC_theACLK.h"