ARM GAS  C:\Users\chemi\AppData\Local\Temp\ccvRlSjL.s 			page 1


   1              		.syntax unified
   2              		.cpu cortex-m3
   3              		.fpu softvfp
   4              		.eabi_attribute 20, 1
   5              		.eabi_attribute 21, 1
   6              		.eabi_attribute 23, 3
   7              		.eabi_attribute 24, 1
   8              		.eabi_attribute 25, 1
   9              		.eabi_attribute 26, 1
  10              		.eabi_attribute 30, 4
  11              		.eabi_attribute 34, 1
  12              		.eabi_attribute 18, 4
  13              		.thumb
  14              		.syntax unified
  15              		.file	"ADC_peak.c"
  16              		.text
  17              	.Ltext0:
  18              		.cfi_sections	.debug_frame
  19              		.section	.text.ADC_peak_Enable,"ax",%progbits
  20              		.align	1
  21              		.global	ADC_peak_Enable
  22              		.thumb
  23              		.thumb_func
  24              		.type	ADC_peak_Enable, %function
  25              	ADC_peak_Enable:
  26              	.LFB2:
  27              		.file 1 "Generated_Source\\PSoC5\\ADC_peak.c"
   1:Generated_Source\PSoC5/ADC_peak.c **** /*******************************************************************************
   2:Generated_Source\PSoC5/ADC_peak.c **** * File Name: ADC_peak.c
   3:Generated_Source\PSoC5/ADC_peak.c **** * Version 3.10
   4:Generated_Source\PSoC5/ADC_peak.c **** *
   5:Generated_Source\PSoC5/ADC_peak.c **** * Description:
   6:Generated_Source\PSoC5/ADC_peak.c **** *  This file provides the source code to the API for the Successive
   7:Generated_Source\PSoC5/ADC_peak.c **** *  approximation ADC Component.
   8:Generated_Source\PSoC5/ADC_peak.c **** *
   9:Generated_Source\PSoC5/ADC_peak.c **** * Note:
  10:Generated_Source\PSoC5/ADC_peak.c **** *
  11:Generated_Source\PSoC5/ADC_peak.c **** ********************************************************************************
  12:Generated_Source\PSoC5/ADC_peak.c **** * Copyright 2008-2015, Cypress Semiconductor Corporation.  All rights reserved.
  13:Generated_Source\PSoC5/ADC_peak.c **** * You may use this file only in accordance with the license, terms, conditions,
  14:Generated_Source\PSoC5/ADC_peak.c **** * disclaimers, and limitations in the end user license agreement accompanying
  15:Generated_Source\PSoC5/ADC_peak.c **** * the software package with which this file was provided.
  16:Generated_Source\PSoC5/ADC_peak.c **** *******************************************************************************/
  17:Generated_Source\PSoC5/ADC_peak.c **** 
  18:Generated_Source\PSoC5/ADC_peak.c **** #include "CyLib.h"
  19:Generated_Source\PSoC5/ADC_peak.c **** #include "ADC_peak.h"
  20:Generated_Source\PSoC5/ADC_peak.c **** 
  21:Generated_Source\PSoC5/ADC_peak.c **** #if(ADC_peak_DEFAULT_INTERNAL_CLK)
  22:Generated_Source\PSoC5/ADC_peak.c ****     #include "ADC_peak_theACLK.h"
  23:Generated_Source\PSoC5/ADC_peak.c **** #endif /* End ADC_peak_DEFAULT_INTERNAL_CLK */
  24:Generated_Source\PSoC5/ADC_peak.c **** 
  25:Generated_Source\PSoC5/ADC_peak.c **** 
  26:Generated_Source\PSoC5/ADC_peak.c **** /***************************************
  27:Generated_Source\PSoC5/ADC_peak.c **** * Forward function references
  28:Generated_Source\PSoC5/ADC_peak.c **** ***************************************/
  29:Generated_Source\PSoC5/ADC_peak.c **** static void ADC_peak_CalcGain(uint8 resolution);
  30:Generated_Source\PSoC5/ADC_peak.c **** 
ARM GAS  C:\Users\chemi\AppData\Local\Temp\ccvRlSjL.s 			page 2


  31:Generated_Source\PSoC5/ADC_peak.c **** 
  32:Generated_Source\PSoC5/ADC_peak.c **** /***************************************
  33:Generated_Source\PSoC5/ADC_peak.c **** * Global data allocation
  34:Generated_Source\PSoC5/ADC_peak.c **** ***************************************/
  35:Generated_Source\PSoC5/ADC_peak.c **** uint8 ADC_peak_initVar = 0u;
  36:Generated_Source\PSoC5/ADC_peak.c **** volatile int16 ADC_peak_offset;
  37:Generated_Source\PSoC5/ADC_peak.c **** volatile int16 ADC_peak_countsPerVolt;     /* Obsolete Gain compensation */
  38:Generated_Source\PSoC5/ADC_peak.c **** volatile int32 ADC_peak_countsPer10Volt;   /* Gain compensation */
  39:Generated_Source\PSoC5/ADC_peak.c **** volatile int16 ADC_peak_shift;
  40:Generated_Source\PSoC5/ADC_peak.c **** 
  41:Generated_Source\PSoC5/ADC_peak.c **** 
  42:Generated_Source\PSoC5/ADC_peak.c **** /*******************************************************************************
  43:Generated_Source\PSoC5/ADC_peak.c **** * Function Name: ADC_peak_Start
  44:Generated_Source\PSoC5/ADC_peak.c **** ********************************************************************************
  45:Generated_Source\PSoC5/ADC_peak.c **** *
  46:Generated_Source\PSoC5/ADC_peak.c **** * Summary:
  47:Generated_Source\PSoC5/ADC_peak.c **** *  This is the preferred method to begin component operation.
  48:Generated_Source\PSoC5/ADC_peak.c **** *  ADC_peak_Start() sets the initVar variable, calls the
  49:Generated_Source\PSoC5/ADC_peak.c **** *  ADC_peak_Init() function, and then calls the
  50:Generated_Source\PSoC5/ADC_peak.c **** *  ADC_peak_Enable() function.
  51:Generated_Source\PSoC5/ADC_peak.c **** *
  52:Generated_Source\PSoC5/ADC_peak.c **** * Parameters:
  53:Generated_Source\PSoC5/ADC_peak.c **** *  None.
  54:Generated_Source\PSoC5/ADC_peak.c **** *
  55:Generated_Source\PSoC5/ADC_peak.c **** * Return:
  56:Generated_Source\PSoC5/ADC_peak.c **** *  None.
  57:Generated_Source\PSoC5/ADC_peak.c **** *
  58:Generated_Source\PSoC5/ADC_peak.c **** * Global variables:
  59:Generated_Source\PSoC5/ADC_peak.c **** *  The ADC_peak_initVar variable is used to indicate when/if initial
  60:Generated_Source\PSoC5/ADC_peak.c **** *  configuration of this component has happened. The variable is initialized to
  61:Generated_Source\PSoC5/ADC_peak.c **** *  zero and set to 1 the first time ADC_Start() is called. This allows for
  62:Generated_Source\PSoC5/ADC_peak.c **** *  component Re-Start without re-initialization in all subsequent calls to the
  63:Generated_Source\PSoC5/ADC_peak.c **** *  ADC_peak_Start() routine.
  64:Generated_Source\PSoC5/ADC_peak.c **** *  If re-initialization of the component is required the variable should be set
  65:Generated_Source\PSoC5/ADC_peak.c **** *  to zero before call of ADC_peak_Start() routine, or the user may call
  66:Generated_Source\PSoC5/ADC_peak.c **** *  ADC_peak_Init() and ADC_peak_Enable() as done in the
  67:Generated_Source\PSoC5/ADC_peak.c **** *  ADC_peak_Start() routine.
  68:Generated_Source\PSoC5/ADC_peak.c **** *
  69:Generated_Source\PSoC5/ADC_peak.c **** * Side Effect:
  70:Generated_Source\PSoC5/ADC_peak.c **** *  If the initVar variable is already set, this function only calls the
  71:Generated_Source\PSoC5/ADC_peak.c **** *  ADC_peak_Enable() function.
  72:Generated_Source\PSoC5/ADC_peak.c **** *
  73:Generated_Source\PSoC5/ADC_peak.c **** *******************************************************************************/
  74:Generated_Source\PSoC5/ADC_peak.c **** void ADC_peak_Start(void)
  75:Generated_Source\PSoC5/ADC_peak.c **** {
  76:Generated_Source\PSoC5/ADC_peak.c **** 
  77:Generated_Source\PSoC5/ADC_peak.c ****     /* If not Initialized then initialize all required hardware and software */
  78:Generated_Source\PSoC5/ADC_peak.c ****     if(ADC_peak_initVar == 0u)
  79:Generated_Source\PSoC5/ADC_peak.c ****     {
  80:Generated_Source\PSoC5/ADC_peak.c ****         ADC_peak_Init();
  81:Generated_Source\PSoC5/ADC_peak.c ****         ADC_peak_initVar = 1u;
  82:Generated_Source\PSoC5/ADC_peak.c ****     }
  83:Generated_Source\PSoC5/ADC_peak.c ****     ADC_peak_Enable();
  84:Generated_Source\PSoC5/ADC_peak.c **** }
  85:Generated_Source\PSoC5/ADC_peak.c **** 
  86:Generated_Source\PSoC5/ADC_peak.c **** 
  87:Generated_Source\PSoC5/ADC_peak.c **** /*******************************************************************************
ARM GAS  C:\Users\chemi\AppData\Local\Temp\ccvRlSjL.s 			page 3


  88:Generated_Source\PSoC5/ADC_peak.c **** * Function Name: ADC_peak_Init
  89:Generated_Source\PSoC5/ADC_peak.c **** ********************************************************************************
  90:Generated_Source\PSoC5/ADC_peak.c **** *
  91:Generated_Source\PSoC5/ADC_peak.c **** * Summary:
  92:Generated_Source\PSoC5/ADC_peak.c **** *  Initialize component's parameters to the parameters set by user in the
  93:Generated_Source\PSoC5/ADC_peak.c **** *  customizer of the component placed onto schematic. Usually called in
  94:Generated_Source\PSoC5/ADC_peak.c **** *  ADC_peak_Start().
  95:Generated_Source\PSoC5/ADC_peak.c **** *
  96:Generated_Source\PSoC5/ADC_peak.c **** * Parameters:
  97:Generated_Source\PSoC5/ADC_peak.c **** *  None.
  98:Generated_Source\PSoC5/ADC_peak.c **** *
  99:Generated_Source\PSoC5/ADC_peak.c **** * Return:
 100:Generated_Source\PSoC5/ADC_peak.c **** *  None.
 101:Generated_Source\PSoC5/ADC_peak.c **** *
 102:Generated_Source\PSoC5/ADC_peak.c **** * Global variables:
 103:Generated_Source\PSoC5/ADC_peak.c **** *  The ADC_peak_offset variable is initialized to 0.
 104:Generated_Source\PSoC5/ADC_peak.c **** *
 105:Generated_Source\PSoC5/ADC_peak.c **** *******************************************************************************/
 106:Generated_Source\PSoC5/ADC_peak.c **** void ADC_peak_Init(void)
 107:Generated_Source\PSoC5/ADC_peak.c **** {
 108:Generated_Source\PSoC5/ADC_peak.c **** 
 109:Generated_Source\PSoC5/ADC_peak.c ****     /* This is only valid if there is an internal clock */
 110:Generated_Source\PSoC5/ADC_peak.c ****     #if(ADC_peak_DEFAULT_INTERNAL_CLK)
 111:Generated_Source\PSoC5/ADC_peak.c ****         ADC_peak_theACLK_SetMode(CYCLK_DUTY);
 112:Generated_Source\PSoC5/ADC_peak.c ****     #endif /* End ADC_peak_DEFAULT_INTERNAL_CLK */
 113:Generated_Source\PSoC5/ADC_peak.c **** 
 114:Generated_Source\PSoC5/ADC_peak.c ****     #if(ADC_peak_IRQ_REMOVE == 0u)
 115:Generated_Source\PSoC5/ADC_peak.c ****         /* Start and set interrupt vector */
 116:Generated_Source\PSoC5/ADC_peak.c ****         CyIntSetPriority(ADC_peak_INTC_NUMBER, ADC_peak_INTC_PRIOR_NUMBER);
 117:Generated_Source\PSoC5/ADC_peak.c ****         (void)CyIntSetVector(ADC_peak_INTC_NUMBER, &ADC_peak_ISR);
 118:Generated_Source\PSoC5/ADC_peak.c ****     #endif   /* End ADC_peak_IRQ_REMOVE */
 119:Generated_Source\PSoC5/ADC_peak.c **** 
 120:Generated_Source\PSoC5/ADC_peak.c ****     /* Enable IRQ mode*/
 121:Generated_Source\PSoC5/ADC_peak.c ****     ADC_peak_SAR_CSR1_REG |= ADC_peak_SAR_IRQ_MASK_EN | ADC_peak_SAR_IRQ_MODE_EDGE;
 122:Generated_Source\PSoC5/ADC_peak.c **** 
 123:Generated_Source\PSoC5/ADC_peak.c ****     /*Set SAR ADC resolution ADC */
 124:Generated_Source\PSoC5/ADC_peak.c ****     ADC_peak_SetResolution(ADC_peak_DEFAULT_RESOLUTION);
 125:Generated_Source\PSoC5/ADC_peak.c ****     ADC_peak_offset = 0;
 126:Generated_Source\PSoC5/ADC_peak.c **** }
 127:Generated_Source\PSoC5/ADC_peak.c **** 
 128:Generated_Source\PSoC5/ADC_peak.c **** 
 129:Generated_Source\PSoC5/ADC_peak.c **** /*******************************************************************************
 130:Generated_Source\PSoC5/ADC_peak.c **** * Function Name: ADC_peak_Enable
 131:Generated_Source\PSoC5/ADC_peak.c **** ********************************************************************************
 132:Generated_Source\PSoC5/ADC_peak.c **** *
 133:Generated_Source\PSoC5/ADC_peak.c **** * Summary:
 134:Generated_Source\PSoC5/ADC_peak.c **** *  Enables the reference, clock and power for SAR ADC.
 135:Generated_Source\PSoC5/ADC_peak.c **** *
 136:Generated_Source\PSoC5/ADC_peak.c **** * Parameters:
 137:Generated_Source\PSoC5/ADC_peak.c **** *  None.
 138:Generated_Source\PSoC5/ADC_peak.c **** *
 139:Generated_Source\PSoC5/ADC_peak.c **** * Return:
 140:Generated_Source\PSoC5/ADC_peak.c **** *  None.
 141:Generated_Source\PSoC5/ADC_peak.c **** *
 142:Generated_Source\PSoC5/ADC_peak.c **** *******************************************************************************/
 143:Generated_Source\PSoC5/ADC_peak.c **** void ADC_peak_Enable(void)
 144:Generated_Source\PSoC5/ADC_peak.c **** {
ARM GAS  C:\Users\chemi\AppData\Local\Temp\ccvRlSjL.s 			page 4


  28              		.loc 1 144 0
  29              		.cfi_startproc
  30              		@ args = 0, pretend = 0, frame = 0
  31              		@ frame_needed = 0, uses_anonymous_args = 0
  32 0000 10B5     		push	{r4, lr}
  33              		.cfi_def_cfa_offset 8
  34              		.cfi_offset 4, -8
  35              		.cfi_offset 14, -4
 145:Generated_Source\PSoC5/ADC_peak.c ****     uint8 tmpReg;
 146:Generated_Source\PSoC5/ADC_peak.c ****     uint8 enableInterrupts;
 147:Generated_Source\PSoC5/ADC_peak.c ****     enableInterrupts = CyEnterCriticalSection();
  36              		.loc 1 147 0
  37 0002 FFF7FEFF 		bl	CyEnterCriticalSection
  38              	.LVL0:
 148:Generated_Source\PSoC5/ADC_peak.c **** 
 149:Generated_Source\PSoC5/ADC_peak.c ****     /* Enable the SAR ADC block in Active Power Mode */
 150:Generated_Source\PSoC5/ADC_peak.c ****     ADC_peak_PWRMGR_SAR_REG |= ADC_peak_ACT_PWR_SAR_EN;
  39              		.loc 1 150 0
  40 0006 214A     		ldr	r2, .L2
 147:Generated_Source\PSoC5/ADC_peak.c **** 
  41              		.loc 1 147 0
  42 0008 0446     		mov	r4, r0
  43              	.LVL1:
  44              		.loc 1 150 0
  45 000a 1378     		ldrb	r3, [r2]	@ zero_extendqisi2
 151:Generated_Source\PSoC5/ADC_peak.c **** 
 152:Generated_Source\PSoC5/ADC_peak.c ****      /* Enable the SAR ADC in Standby Power Mode*/
 153:Generated_Source\PSoC5/ADC_peak.c ****     ADC_peak_STBY_PWRMGR_SAR_REG |= ADC_peak_STBY_PWR_SAR_EN;
 154:Generated_Source\PSoC5/ADC_peak.c **** 
 155:Generated_Source\PSoC5/ADC_peak.c ****     /* This is only valid if there is an internal clock */
 156:Generated_Source\PSoC5/ADC_peak.c ****     #if(ADC_peak_DEFAULT_INTERNAL_CLK)
 157:Generated_Source\PSoC5/ADC_peak.c ****         ADC_peak_PWRMGR_CLK_REG |= ADC_peak_ACT_PWR_CLK_EN;
 158:Generated_Source\PSoC5/ADC_peak.c ****         ADC_peak_STBY_PWRMGR_CLK_REG |= ADC_peak_STBY_PWR_CLK_EN;
 159:Generated_Source\PSoC5/ADC_peak.c ****     #endif /* End ADC_peak_DEFAULT_INTERNAL_CLK */
 160:Generated_Source\PSoC5/ADC_peak.c **** 
 161:Generated_Source\PSoC5/ADC_peak.c ****     /* Enable VCM buffer and Enable Int Ref Amp */
 162:Generated_Source\PSoC5/ADC_peak.c ****     tmpReg = ADC_peak_SAR_CSR3_REG;
 163:Generated_Source\PSoC5/ADC_peak.c ****     tmpReg |= ADC_peak_SAR_EN_BUF_VCM_EN;
 164:Generated_Source\PSoC5/ADC_peak.c ****     /* PD_BUF_VREF is OFF in External reference or Vdda reference mode */
 165:Generated_Source\PSoC5/ADC_peak.c ****     #if((ADC_peak_DEFAULT_REFERENCE == ADC_peak__EXT_REF) || \
 166:Generated_Source\PSoC5/ADC_peak.c ****         (ADC_peak_DEFAULT_RANGE == ADC_peak__VNEG_VDDA_DIFF))
 167:Generated_Source\PSoC5/ADC_peak.c ****         tmpReg &= (uint8)~ADC_peak_SAR_EN_BUF_VREF_EN;
 168:Generated_Source\PSoC5/ADC_peak.c ****     #else /* In INTREF or INTREF Bypassed this buffer is ON */
 169:Generated_Source\PSoC5/ADC_peak.c ****         tmpReg |= ADC_peak_SAR_EN_BUF_VREF_EN;
 170:Generated_Source\PSoC5/ADC_peak.c ****     #endif /* ADC_peak_DEFAULT_REFERENCE == ADC_peak__EXT_REF */
 171:Generated_Source\PSoC5/ADC_peak.c ****     ADC_peak_SAR_CSR3_REG = tmpReg;
 172:Generated_Source\PSoC5/ADC_peak.c **** 
 173:Generated_Source\PSoC5/ADC_peak.c ****     /* Set reference for ADC */
 174:Generated_Source\PSoC5/ADC_peak.c ****     #if(ADC_peak_DEFAULT_RANGE == ADC_peak__VNEG_VDDA_DIFF)
 175:Generated_Source\PSoC5/ADC_peak.c ****         #if(ADC_peak_DEFAULT_REFERENCE == ADC_peak__EXT_REF)
 176:Generated_Source\PSoC5/ADC_peak.c ****             ADC_peak_SAR_CSR6_REG = ADC_peak_INT_BYPASS_EXT_VREF; /* S2 */
 177:Generated_Source\PSoC5/ADC_peak.c ****         #else /* Internal Vdda reference or obsolete bypass mode */
 178:Generated_Source\PSoC5/ADC_peak.c ****             ADC_peak_SAR_CSR6_REG = ADC_peak_VDDA_VREF;           /* S7 */
 179:Generated_Source\PSoC5/ADC_peak.c ****         #endif /* ADC_peak_DEFAULT_REFERENCE == ADC_peak__EXT_REF */
 180:Generated_Source\PSoC5/ADC_peak.c ****     #else  /* Reference goes through internal buffer */
 181:Generated_Source\PSoC5/ADC_peak.c ****         #if(ADC_peak_DEFAULT_REFERENCE == ADC_peak__INT_REF_NOT_BYPASSED)
 182:Generated_Source\PSoC5/ADC_peak.c ****             ADC_peak_SAR_CSR6_REG = ADC_peak_INT_VREF;            /* S3 + S4 */
ARM GAS  C:\Users\chemi\AppData\Local\Temp\ccvRlSjL.s 			page 5


 183:Generated_Source\PSoC5/ADC_peak.c ****         #else /* INTREF Bypassed of External */
 184:Generated_Source\PSoC5/ADC_peak.c ****             ADC_peak_SAR_CSR6_REG = ADC_peak_INT_BYPASS_EXT_VREF; /* S2 */
 185:Generated_Source\PSoC5/ADC_peak.c ****         #endif /* ADC_peak_DEFAULT_REFERENCE == ADC_peak__INT_REF_NOT_BYPASSED */
 186:Generated_Source\PSoC5/ADC_peak.c ****     #endif /* VNEG_VDDA_DIFF */
 187:Generated_Source\PSoC5/ADC_peak.c **** 
 188:Generated_Source\PSoC5/ADC_peak.c ****     /* Low non-overlap delay for sampling clock signals (for 1MSPS) */
 189:Generated_Source\PSoC5/ADC_peak.c ****     #if(ADC_peak_HIGH_POWER_PULSE == 0u) /* MinPulseWidth <= 50 ns */
 190:Generated_Source\PSoC5/ADC_peak.c ****         ADC_peak_SAR_CSR5_REG &= (uint8)~ADC_peak_SAR_DLY_INC;
 191:Generated_Source\PSoC5/ADC_peak.c ****     #else /* Set High non-overlap delay for sampling clock signals (for <500KSPS)*/
 192:Generated_Source\PSoC5/ADC_peak.c ****         ADC_peak_SAR_CSR5_REG |= ADC_peak_SAR_DLY_INC;
 193:Generated_Source\PSoC5/ADC_peak.c ****     #endif /* ADC_peak_HIGH_POWER_PULSE == 0u */
 194:Generated_Source\PSoC5/ADC_peak.c **** 
 195:Generated_Source\PSoC5/ADC_peak.c ****     /* Increase comparator latch enable delay by 20%, 
 196:Generated_Source\PSoC5/ADC_peak.c ****     *  Increase comparator bias current by 30% without impacting delaysDelay 
 197:Generated_Source\PSoC5/ADC_peak.c ****     *  Default for 1MSPS) 
 198:Generated_Source\PSoC5/ADC_peak.c ****     */
 199:Generated_Source\PSoC5/ADC_peak.c ****     #if(ADC_peak_HIGH_POWER_PULSE == 0u)    /* MinPulseWidth <= 50 ns */
 200:Generated_Source\PSoC5/ADC_peak.c ****         ADC_peak_SAR_CSR5_REG |= ADC_peak_SAR_SEL_CSEL_DFT_CHAR;
 201:Generated_Source\PSoC5/ADC_peak.c ****     #else /* for <500ksps */
 202:Generated_Source\PSoC5/ADC_peak.c ****         ADC_peak_SAR_CSR5_REG &= (uint8)~ADC_peak_SAR_SEL_CSEL_DFT_CHAR;
 203:Generated_Source\PSoC5/ADC_peak.c ****     #endif /* ADC_peak_HIGH_POWER_PULSE == 0u */
 204:Generated_Source\PSoC5/ADC_peak.c **** 
 205:Generated_Source\PSoC5/ADC_peak.c ****     /* Set default power and other configurations for control register 0 in multiple lines */
 206:Generated_Source\PSoC5/ADC_peak.c ****     ADC_peak_SAR_CSR0_REG = (uint8)((uint8)ADC_peak_DEFAULT_POWER << ADC_peak_SAR_POWER_SHIFT)
 207:Generated_Source\PSoC5/ADC_peak.c ****     /* SAR_HIZ_CLEAR:   Should not be used for LP */
 208:Generated_Source\PSoC5/ADC_peak.c ****     #if ((CY_PSOC5LP) || (ADC_peak_DEFAULT_REFERENCE != ADC_peak__EXT_REF))
 209:Generated_Source\PSoC5/ADC_peak.c ****         | ADC_peak_SAR_HIZ_CLEAR
 210:Generated_Source\PSoC5/ADC_peak.c ****     #endif /* SAR_HIZ_CLEAR */
 211:Generated_Source\PSoC5/ADC_peak.c ****     /*Set Convertion mode */
 212:Generated_Source\PSoC5/ADC_peak.c ****     #if(ADC_peak_DEFAULT_CONV_MODE != ADC_peak__FREE_RUNNING)      /* If triggered mode */
 213:Generated_Source\PSoC5/ADC_peak.c ****         | ADC_peak_SAR_MX_SOF_UDB           /* source: UDB */
 214:Generated_Source\PSoC5/ADC_peak.c ****         | ADC_peak_SAR_SOF_MODE_EDGE        /* Set edge-sensitive sof source */
 215:Generated_Source\PSoC5/ADC_peak.c ****     #endif /* ADC_peak_DEFAULT_CONV_MODE */
 216:Generated_Source\PSoC5/ADC_peak.c ****     ; /* end of multiple line initialization */
 217:Generated_Source\PSoC5/ADC_peak.c **** 
 218:Generated_Source\PSoC5/ADC_peak.c ****     ADC_peak_SAR_TR0_REG = ADC_peak_SAR_CAP_TRIM_2;
 219:Generated_Source\PSoC5/ADC_peak.c **** 
 220:Generated_Source\PSoC5/ADC_peak.c ****     /* Enable clock for SAR ADC*/
 221:Generated_Source\PSoC5/ADC_peak.c ****     ADC_peak_SAR_CLK_REG |= ADC_peak_SAR_MX_CLK_EN;
 222:Generated_Source\PSoC5/ADC_peak.c **** 
 223:Generated_Source\PSoC5/ADC_peak.c ****     CyDelayUs(10u); /* The block is ready to use 10 us after the enable signal is set high. */
  46              		.loc 1 223 0
  47 000c 0A20     		movs	r0, #10
 150:Generated_Source\PSoC5/ADC_peak.c **** 
  48              		.loc 1 150 0
  49 000e 43F00103 		orr	r3, r3, #1
  50 0012 1370     		strb	r3, [r2]
 153:Generated_Source\PSoC5/ADC_peak.c **** 
  51              		.loc 1 153 0
  52 0014 137C     		ldrb	r3, [r2, #16]	@ zero_extendqisi2
  53 0016 43F00103 		orr	r3, r3, #1
  54 001a 1374     		strb	r3, [r2, #16]
 157:Generated_Source\PSoC5/ADC_peak.c ****         ADC_peak_STBY_PWRMGR_CLK_REG |= ADC_peak_STBY_PWR_CLK_EN;
  55              		.loc 1 157 0
  56 001c 12F80A3C 		ldrb	r3, [r2, #-10]	@ zero_extendqisi2
  57 0020 43F00203 		orr	r3, r3, #2
  58 0024 02F80A3C 		strb	r3, [r2, #-10]
ARM GAS  C:\Users\chemi\AppData\Local\Temp\ccvRlSjL.s 			page 6


 158:Generated_Source\PSoC5/ADC_peak.c ****     #endif /* End ADC_peak_DEFAULT_INTERNAL_CLK */
  59              		.loc 1 158 0
  60 0028 9379     		ldrb	r3, [r2, #6]	@ zero_extendqisi2
  61 002a 43F00203 		orr	r3, r3, #2
  62 002e 9371     		strb	r3, [r2, #6]
 162:Generated_Source\PSoC5/ADC_peak.c ****     tmpReg |= ADC_peak_SAR_EN_BUF_VCM_EN;
  63              		.loc 1 162 0
  64 0030 02F5AA52 		add	r2, r2, #5440
  65 0034 1832     		adds	r2, r2, #24
  66 0036 1378     		ldrb	r3, [r2]	@ zero_extendqisi2
  67              	.LVL2:
 169:Generated_Source\PSoC5/ADC_peak.c ****     #endif /* ADC_peak_DEFAULT_REFERENCE == ADC_peak__EXT_REF */
  68              		.loc 1 169 0
  69 0038 43F00303 		orr	r3, r3, #3
  70              	.LVL3:
 171:Generated_Source\PSoC5/ADC_peak.c **** 
  71              		.loc 1 171 0
  72 003c 1370     		strb	r3, [r2]
 184:Generated_Source\PSoC5/ADC_peak.c ****         #endif /* ADC_peak_DEFAULT_REFERENCE == ADC_peak__INT_REF_NOT_BYPASSED */
  73              		.loc 1 184 0
  74 003e 144B     		ldr	r3, .L2+4
  75              	.LVL4:
  76 0040 0422     		movs	r2, #4
  77              	.LVL5:
  78 0042 1A70     		strb	r2, [r3]
  79              	.LVL6:
 192:Generated_Source\PSoC5/ADC_peak.c ****     #endif /* ADC_peak_HIGH_POWER_PULSE == 0u */
  80              		.loc 1 192 0
  81 0044 13F8012C 		ldrb	r2, [r3, #-1]	@ zero_extendqisi2
  82 0048 42F04002 		orr	r2, r2, #64
  83 004c 03F8012C 		strb	r2, [r3, #-1]
 202:Generated_Source\PSoC5/ADC_peak.c ****     #endif /* ADC_peak_HIGH_POWER_PULSE == 0u */
  84              		.loc 1 202 0
  85 0050 13F8012C 		ldrb	r2, [r3, #-1]	@ zero_extendqisi2
  86 0054 02F0FC02 		and	r2, r2, #252
  87 0058 03F8012C 		strb	r2, [r3, #-1]
 206:Generated_Source\PSoC5/ADC_peak.c ****     /* SAR_HIZ_CLEAR:   Should not be used for LP */
  88              		.loc 1 206 0
  89 005c CE22     		movs	r2, #206
  90 005e 03F8062C 		strb	r2, [r3, #-6]
 218:Generated_Source\PSoC5/ADC_peak.c **** 
  91              		.loc 1 218 0
  92 0062 A3F59753 		sub	r3, r3, #4832
  93 0066 0222     		movs	r2, #2
  94 0068 123B     		subs	r3, r3, #18
  95 006a 1A70     		strb	r2, [r3]
 221:Generated_Source\PSoC5/ADC_peak.c **** 
  96              		.loc 1 221 0
  97 006c 094A     		ldr	r2, .L2+8
  98 006e 1378     		ldrb	r3, [r2]	@ zero_extendqisi2
  99 0070 43F00803 		orr	r3, r3, #8
 100 0074 1370     		strb	r3, [r2]
 101              		.loc 1 223 0
 102 0076 FFF7FEFF 		bl	CyDelayUs
 103              	.LVL7:
 224:Generated_Source\PSoC5/ADC_peak.c **** 
 225:Generated_Source\PSoC5/ADC_peak.c ****     #if(ADC_peak_IRQ_REMOVE == 0u)
ARM GAS  C:\Users\chemi\AppData\Local\Temp\ccvRlSjL.s 			page 7


 226:Generated_Source\PSoC5/ADC_peak.c ****         /* Clear a pending interrupt */
 227:Generated_Source\PSoC5/ADC_peak.c ****         CyIntClearPending(ADC_peak_INTC_NUMBER);
 104              		.loc 1 227 0
 105 007a 074B     		ldr	r3, .L2+12
 106 007c 0822     		movs	r2, #8
 228:Generated_Source\PSoC5/ADC_peak.c ****     #endif   /* End ADC_peak_IRQ_REMOVE */
 229:Generated_Source\PSoC5/ADC_peak.c **** 
 230:Generated_Source\PSoC5/ADC_peak.c ****     CyExitCriticalSection(enableInterrupts);
 107              		.loc 1 230 0
 108 007e 2046     		mov	r0, r4
 231:Generated_Source\PSoC5/ADC_peak.c **** }
 109              		.loc 1 231 0
 110 0080 BDE81040 		pop	{r4, lr}
 111              		.cfi_restore 14
 112              		.cfi_restore 4
 113              		.cfi_def_cfa_offset 0
 114              	.LVL8:
 227:Generated_Source\PSoC5/ADC_peak.c ****     #endif   /* End ADC_peak_IRQ_REMOVE */
 115              		.loc 1 227 0
 116 0084 1A60     		str	r2, [r3]
 230:Generated_Source\PSoC5/ADC_peak.c **** }
 117              		.loc 1 230 0
 118 0086 FFF7FEBF 		b	CyExitCriticalSection
 119              	.LVL9:
 120              	.L3:
 121 008a 00BF     		.align	2
 122              	.L2:
 123 008c AB430040 		.word	1073759147
 124 0090 06590040 		.word	1073764614
 125 0094 275B0040 		.word	1073765159
 126 0098 80E200E0 		.word	-536812928
 127              		.cfi_endproc
 128              	.LFE2:
 129              		.size	ADC_peak_Enable, .-ADC_peak_Enable
 130              		.section	.text.ADC_peak_Stop,"ax",%progbits
 131              		.align	1
 132              		.global	ADC_peak_Stop
 133              		.thumb
 134              		.thumb_func
 135              		.type	ADC_peak_Stop, %function
 136              	ADC_peak_Stop:
 137              	.LFB3:
 232:Generated_Source\PSoC5/ADC_peak.c **** 
 233:Generated_Source\PSoC5/ADC_peak.c **** 
 234:Generated_Source\PSoC5/ADC_peak.c **** /*******************************************************************************
 235:Generated_Source\PSoC5/ADC_peak.c **** * Function Name: ADC_peak_Stop
 236:Generated_Source\PSoC5/ADC_peak.c **** ********************************************************************************
 237:Generated_Source\PSoC5/ADC_peak.c **** *
 238:Generated_Source\PSoC5/ADC_peak.c **** * Summary:
 239:Generated_Source\PSoC5/ADC_peak.c **** *  Stops ADC conversions and puts the ADC into its lowest power mode.
 240:Generated_Source\PSoC5/ADC_peak.c **** *
 241:Generated_Source\PSoC5/ADC_peak.c **** * Parameters:
 242:Generated_Source\PSoC5/ADC_peak.c **** *  None.
 243:Generated_Source\PSoC5/ADC_peak.c **** *
 244:Generated_Source\PSoC5/ADC_peak.c **** * Return:
 245:Generated_Source\PSoC5/ADC_peak.c **** *  None.
 246:Generated_Source\PSoC5/ADC_peak.c **** *
ARM GAS  C:\Users\chemi\AppData\Local\Temp\ccvRlSjL.s 			page 8


 247:Generated_Source\PSoC5/ADC_peak.c **** *******************************************************************************/
 248:Generated_Source\PSoC5/ADC_peak.c **** void ADC_peak_Stop(void)
 249:Generated_Source\PSoC5/ADC_peak.c **** {
 138              		.loc 1 249 0
 139              		.cfi_startproc
 140              		@ args = 0, pretend = 0, frame = 0
 141              		@ frame_needed = 0, uses_anonymous_args = 0
 142 0000 08B5     		push	{r3, lr}
 143              		.cfi_def_cfa_offset 8
 144              		.cfi_offset 3, -8
 145              		.cfi_offset 14, -4
 250:Generated_Source\PSoC5/ADC_peak.c ****     uint8 enableInterrupts;
 251:Generated_Source\PSoC5/ADC_peak.c ****     enableInterrupts = CyEnterCriticalSection();
 146              		.loc 1 251 0
 147 0002 FFF7FEFF 		bl	CyEnterCriticalSection
 148              	.LVL10:
 252:Generated_Source\PSoC5/ADC_peak.c **** 
 253:Generated_Source\PSoC5/ADC_peak.c ****     /* Stop all conversions */
 254:Generated_Source\PSoC5/ADC_peak.c ****     ADC_peak_SAR_CSR0_REG &= (uint8)~ADC_peak_SAR_SOF_START_CONV;
 149              		.loc 1 254 0
 150 0006 0F4A     		ldr	r2, .L5
 151 0008 1378     		ldrb	r3, [r2]	@ zero_extendqisi2
 152 000a 03F0FE03 		and	r3, r3, #254
 153 000e 1370     		strb	r3, [r2]
 255:Generated_Source\PSoC5/ADC_peak.c ****     /* Disable the SAR ADC block in Active Power Mode */
 256:Generated_Source\PSoC5/ADC_peak.c ****     ADC_peak_PWRMGR_SAR_REG &= (uint8)~ADC_peak_ACT_PWR_SAR_EN;
 154              		.loc 1 256 0
 155 0010 A2F5AA52 		sub	r2, r2, #5440
 156 0014 153A     		subs	r2, r2, #21
 157 0016 1378     		ldrb	r3, [r2]	@ zero_extendqisi2
 158 0018 03F0FE03 		and	r3, r3, #254
 159 001c 1370     		strb	r3, [r2]
 257:Generated_Source\PSoC5/ADC_peak.c ****     /* Disable the SAR ADC in Standby Power Mode */
 258:Generated_Source\PSoC5/ADC_peak.c ****     ADC_peak_STBY_PWRMGR_SAR_REG &= (uint8)~ADC_peak_STBY_PWR_SAR_EN;
 160              		.loc 1 258 0
 161 001e 137C     		ldrb	r3, [r2, #16]	@ zero_extendqisi2
 162 0020 03F0FE03 		and	r3, r3, #254
 163 0024 1374     		strb	r3, [r2, #16]
 259:Generated_Source\PSoC5/ADC_peak.c **** 
 260:Generated_Source\PSoC5/ADC_peak.c ****     /* This is only valid if there is an internal clock */
 261:Generated_Source\PSoC5/ADC_peak.c ****     #if(ADC_peak_DEFAULT_INTERNAL_CLK)
 262:Generated_Source\PSoC5/ADC_peak.c ****         ADC_peak_PWRMGR_CLK_REG &= (uint8)~ADC_peak_ACT_PWR_CLK_EN;
 164              		.loc 1 262 0
 165 0026 12F80A3C 		ldrb	r3, [r2, #-10]	@ zero_extendqisi2
 166 002a 03F0FD03 		and	r3, r3, #253
 167 002e 02F80A3C 		strb	r3, [r2, #-10]
 263:Generated_Source\PSoC5/ADC_peak.c ****         ADC_peak_STBY_PWRMGR_CLK_REG &= (uint8)~ADC_peak_STBY_PWR_CLK_EN;
 168              		.loc 1 263 0
 169 0032 9379     		ldrb	r3, [r2, #6]	@ zero_extendqisi2
 170 0034 03F0FD03 		and	r3, r3, #253
 171 0038 9371     		strb	r3, [r2, #6]
 264:Generated_Source\PSoC5/ADC_peak.c ****     #endif /* End ADC_peak_DEFAULT_INTERNAL_CLK */
 265:Generated_Source\PSoC5/ADC_peak.c **** 
 266:Generated_Source\PSoC5/ADC_peak.c ****     CyExitCriticalSection(enableInterrupts);
 267:Generated_Source\PSoC5/ADC_peak.c **** 
 268:Generated_Source\PSoC5/ADC_peak.c **** }
 172              		.loc 1 268 0
ARM GAS  C:\Users\chemi\AppData\Local\Temp\ccvRlSjL.s 			page 9


 173 003a BDE80840 		pop	{r3, lr}
 174              		.cfi_restore 14
 175              		.cfi_restore 3
 176              		.cfi_def_cfa_offset 0
 266:Generated_Source\PSoC5/ADC_peak.c **** 
 177              		.loc 1 266 0
 178 003e FFF7FEBF 		b	CyExitCriticalSection
 179              	.LVL11:
 180              	.L6:
 181 0042 00BF     		.align	2
 182              	.L5:
 183 0044 00590040 		.word	1073764608
 184              		.cfi_endproc
 185              	.LFE3:
 186              		.size	ADC_peak_Stop, .-ADC_peak_Stop
 187              		.section	.text.ADC_peak_SetPower,"ax",%progbits
 188              		.align	1
 189              		.global	ADC_peak_SetPower
 190              		.thumb
 191              		.thumb_func
 192              		.type	ADC_peak_SetPower, %function
 193              	ADC_peak_SetPower:
 194              	.LFB4:
 269:Generated_Source\PSoC5/ADC_peak.c **** 
 270:Generated_Source\PSoC5/ADC_peak.c **** 
 271:Generated_Source\PSoC5/ADC_peak.c **** /*******************************************************************************
 272:Generated_Source\PSoC5/ADC_peak.c **** * Function Name: ADC_peak_SetPower
 273:Generated_Source\PSoC5/ADC_peak.c **** ********************************************************************************
 274:Generated_Source\PSoC5/ADC_peak.c **** *
 275:Generated_Source\PSoC5/ADC_peak.c **** * Summary:
 276:Generated_Source\PSoC5/ADC_peak.c **** *  Sets the operational power of the ADC. You should use the higher power
 277:Generated_Source\PSoC5/ADC_peak.c **** *  settings with faster clock speeds.
 278:Generated_Source\PSoC5/ADC_peak.c **** *
 279:Generated_Source\PSoC5/ADC_peak.c **** * Parameters:
 280:Generated_Source\PSoC5/ADC_peak.c **** *  power:  Power setting for ADC
 281:Generated_Source\PSoC5/ADC_peak.c **** *  0 ->    Normal
 282:Generated_Source\PSoC5/ADC_peak.c **** *  1 ->    Medium power
 283:Generated_Source\PSoC5/ADC_peak.c **** *  2 ->    1.25 power
 284:Generated_Source\PSoC5/ADC_peak.c **** *  3 ->    Minimum power.
 285:Generated_Source\PSoC5/ADC_peak.c **** *
 286:Generated_Source\PSoC5/ADC_peak.c **** * Return:
 287:Generated_Source\PSoC5/ADC_peak.c **** *  None.
 288:Generated_Source\PSoC5/ADC_peak.c **** *
 289:Generated_Source\PSoC5/ADC_peak.c **** *******************************************************************************/
 290:Generated_Source\PSoC5/ADC_peak.c **** void ADC_peak_SetPower(uint8 power)
 291:Generated_Source\PSoC5/ADC_peak.c **** {
 195              		.loc 1 291 0
 196              		.cfi_startproc
 197              		@ args = 0, pretend = 0, frame = 0
 198              		@ frame_needed = 0, uses_anonymous_args = 0
 199              		@ link register save eliminated.
 200              	.LVL12:
 292:Generated_Source\PSoC5/ADC_peak.c ****     uint8 tmpReg;
 293:Generated_Source\PSoC5/ADC_peak.c **** 
 294:Generated_Source\PSoC5/ADC_peak.c ****     /* mask off invalid power settings */
 295:Generated_Source\PSoC5/ADC_peak.c ****     power &= ADC_peak_SAR_API_POWER_MASK;
 296:Generated_Source\PSoC5/ADC_peak.c **** 
ARM GAS  C:\Users\chemi\AppData\Local\Temp\ccvRlSjL.s 			page 10


 297:Generated_Source\PSoC5/ADC_peak.c ****     /* Set Power parameter  */
 298:Generated_Source\PSoC5/ADC_peak.c ****     tmpReg = ADC_peak_SAR_CSR0_REG & (uint8)~ADC_peak_SAR_POWER_MASK;
 201              		.loc 1 298 0
 202 0000 044A     		ldr	r2, .L8
 203 0002 1378     		ldrb	r3, [r2]	@ zero_extendqisi2
 204 0004 03F03F03 		and	r3, r3, #63
 205              	.LVL13:
 299:Generated_Source\PSoC5/ADC_peak.c ****     tmpReg |= (uint8)(power << ADC_peak_SAR_POWER_SHIFT);
 206              		.loc 1 299 0
 207 0008 43EA8010 		orr	r0, r3, r0, lsl #6
 208              	.LVL14:
 209 000c C0B2     		uxtb	r0, r0
 210              	.LVL15:
 300:Generated_Source\PSoC5/ADC_peak.c ****     ADC_peak_SAR_CSR0_REG = tmpReg;
 211              		.loc 1 300 0
 212 000e 1070     		strb	r0, [r2]
 213 0010 7047     		bx	lr
 214              	.L9:
 215 0012 00BF     		.align	2
 216              	.L8:
 217 0014 00590040 		.word	1073764608
 218              		.cfi_endproc
 219              	.LFE4:
 220              		.size	ADC_peak_SetPower, .-ADC_peak_SetPower
 221              		.section	.text.ADC_peak_SetResolution,"ax",%progbits
 222              		.align	1
 223              		.global	ADC_peak_SetResolution
 224              		.thumb
 225              		.thumb_func
 226              		.type	ADC_peak_SetResolution, %function
 227              	ADC_peak_SetResolution:
 228              	.LFB5:
 301:Generated_Source\PSoC5/ADC_peak.c **** }
 302:Generated_Source\PSoC5/ADC_peak.c **** 
 303:Generated_Source\PSoC5/ADC_peak.c **** 
 304:Generated_Source\PSoC5/ADC_peak.c **** /*******************************************************************************
 305:Generated_Source\PSoC5/ADC_peak.c **** * Function Name: ADC_peak_SetResolution
 306:Generated_Source\PSoC5/ADC_peak.c **** ********************************************************************************
 307:Generated_Source\PSoC5/ADC_peak.c **** *
 308:Generated_Source\PSoC5/ADC_peak.c **** * Summary:
 309:Generated_Source\PSoC5/ADC_peak.c **** *  Sets the Relution of the SAR.
 310:Generated_Source\PSoC5/ADC_peak.c **** *
 311:Generated_Source\PSoC5/ADC_peak.c **** * Parameters:
 312:Generated_Source\PSoC5/ADC_peak.c **** *  resolution:
 313:Generated_Source\PSoC5/ADC_peak.c **** *  12 ->    RES12
 314:Generated_Source\PSoC5/ADC_peak.c **** *  10 ->    RES10
 315:Generated_Source\PSoC5/ADC_peak.c **** *  8  ->    RES8
 316:Generated_Source\PSoC5/ADC_peak.c **** *
 317:Generated_Source\PSoC5/ADC_peak.c **** * Return:
 318:Generated_Source\PSoC5/ADC_peak.c **** *  None.
 319:Generated_Source\PSoC5/ADC_peak.c **** *
 320:Generated_Source\PSoC5/ADC_peak.c **** * Side Effects:
 321:Generated_Source\PSoC5/ADC_peak.c **** *  The ADC resolution cannot be changed during a conversion cycle. The
 322:Generated_Source\PSoC5/ADC_peak.c **** *  recommended best practice is to stop conversions with
 323:Generated_Source\PSoC5/ADC_peak.c **** *  ADC_StopConvert(), change the resolution, then restart the
 324:Generated_Source\PSoC5/ADC_peak.c **** *  conversions with ADC_StartConvert().
 325:Generated_Source\PSoC5/ADC_peak.c **** *  If you decide not to stop conversions before calling this API, you
ARM GAS  C:\Users\chemi\AppData\Local\Temp\ccvRlSjL.s 			page 11


 326:Generated_Source\PSoC5/ADC_peak.c **** *  should use ADC_IsEndConversion() to wait until conversion is complete
 327:Generated_Source\PSoC5/ADC_peak.c **** *  before changing the resolution.
 328:Generated_Source\PSoC5/ADC_peak.c **** *  If you call ADC_SetResolution() during a conversion, the resolution will
 329:Generated_Source\PSoC5/ADC_peak.c **** *  not be changed until the current conversion is complete. Data will not be
 330:Generated_Source\PSoC5/ADC_peak.c **** *  available in the new resolution for another 6 + "New Resolution(in bits)"
 331:Generated_Source\PSoC5/ADC_peak.c **** *  clock cycles.
 332:Generated_Source\PSoC5/ADC_peak.c **** *  You may need add a delay of this number of clock cycles after
 333:Generated_Source\PSoC5/ADC_peak.c **** *  ADC_SetResolution() is called before data is valid again.
 334:Generated_Source\PSoC5/ADC_peak.c **** *  Affects ADC_CountsTo_Volts(), ADC_CountsTo_mVolts(), and
 335:Generated_Source\PSoC5/ADC_peak.c **** *  ADC_CountsTo_uVolts() by calculating the correct conversion between ADC
 336:Generated_Source\PSoC5/ADC_peak.c **** *  counts and the applied input voltage. Calculation depends on resolution,
 337:Generated_Source\PSoC5/ADC_peak.c **** *  input range, and voltage reference.
 338:Generated_Source\PSoC5/ADC_peak.c **** *
 339:Generated_Source\PSoC5/ADC_peak.c **** *******************************************************************************/
 340:Generated_Source\PSoC5/ADC_peak.c **** void ADC_peak_SetResolution(uint8 resolution)
 341:Generated_Source\PSoC5/ADC_peak.c **** {
 229              		.loc 1 341 0
 230              		.cfi_startproc
 231              		@ args = 0, pretend = 0, frame = 0
 232              		@ frame_needed = 0, uses_anonymous_args = 0
 233              		@ link register save eliminated.
 234              	.LVL16:
 342:Generated_Source\PSoC5/ADC_peak.c ****     uint8 tmpReg;
 343:Generated_Source\PSoC5/ADC_peak.c **** 
 344:Generated_Source\PSoC5/ADC_peak.c ****     /* Set SAR ADC resolution and sample width: 18 conversion cycles at 12bits + 1 gap */
 345:Generated_Source\PSoC5/ADC_peak.c ****     switch (resolution)
 235              		.loc 1 345 0
 236 0000 0828     		cmp	r0, #8
 237 0002 04D0     		beq	.L12
 238 0004 0A28     		cmp	r0, #10
 346:Generated_Source\PSoC5/ADC_peak.c ****     {
 347:Generated_Source\PSoC5/ADC_peak.c ****         case (uint8)ADC_peak__BITS_12:
 348:Generated_Source\PSoC5/ADC_peak.c ****             tmpReg = ADC_peak_SAR_RESOLUTION_12BIT | ADC_peak_SAR_SAMPLE_WIDTH;
 239              		.loc 1 348 0
 240 0006 0CBF     		ite	eq
 241 0008 8423     		moveq	r3, #132
 242 000a C423     		movne	r3, #196
 243 000c 00E0     		b	.L13
 244              	.L12:
 245              	.LVL17:
 349:Generated_Source\PSoC5/ADC_peak.c ****             break;
 350:Generated_Source\PSoC5/ADC_peak.c ****         case (uint8)ADC_peak__BITS_10:
 351:Generated_Source\PSoC5/ADC_peak.c ****             tmpReg = ADC_peak_SAR_RESOLUTION_10BIT | ADC_peak_SAR_SAMPLE_WIDTH;
 352:Generated_Source\PSoC5/ADC_peak.c ****             break;
 353:Generated_Source\PSoC5/ADC_peak.c ****         case (uint8)ADC_peak__BITS_8:
 354:Generated_Source\PSoC5/ADC_peak.c ****             tmpReg = ADC_peak_SAR_RESOLUTION_8BIT | ADC_peak_SAR_SAMPLE_WIDTH;
 246              		.loc 1 354 0
 247 000e 4423     		movs	r3, #68
 248              	.LVL18:
 249              	.L13:
 250 0010 0838     		subs	r0, r0, #8
 251              	.LVL19:
 355:Generated_Source\PSoC5/ADC_peak.c ****             break;
 356:Generated_Source\PSoC5/ADC_peak.c ****         default:
 357:Generated_Source\PSoC5/ADC_peak.c ****             tmpReg = ADC_peak_SAR_RESOLUTION_12BIT | ADC_peak_SAR_SAMPLE_WIDTH;
 358:Generated_Source\PSoC5/ADC_peak.c ****             /* Halt CPU in debug mode if resolution is out of valid range */
 359:Generated_Source\PSoC5/ADC_peak.c ****             CYASSERT(0u != 0u);
ARM GAS  C:\Users\chemi\AppData\Local\Temp\ccvRlSjL.s 			page 12


 360:Generated_Source\PSoC5/ADC_peak.c ****             break;
 361:Generated_Source\PSoC5/ADC_peak.c ****     }
 362:Generated_Source\PSoC5/ADC_peak.c ****     ADC_peak_SAR_CSR2_REG = tmpReg;
 252              		.loc 1 362 0
 253 0012 0E4A     		ldr	r2, .L18
 254 0014 C0B2     		uxtb	r0, r0
 255 0016 0428     		cmp	r0, #4
 256 0018 1370     		strb	r3, [r2]
 257              	.LVL20:
 258 001a 98BF     		it	ls
 259 001c 0C4B     		ldrls	r3, .L18+4
 260 001e 4FF00002 		mov	r2, #0
 261 0022 98BF     		it	ls
 262 0024 33F91010 		ldrshls	r1, [r3, r0, lsl #1]
 263              	.LBB4:
 264              	.LBB5:
 363:Generated_Source\PSoC5/ADC_peak.c **** 
 364:Generated_Source\PSoC5/ADC_peak.c ****      /* Calculate gain for convert counts to volts */
 365:Generated_Source\PSoC5/ADC_peak.c ****     ADC_peak_CalcGain(resolution);
 366:Generated_Source\PSoC5/ADC_peak.c **** }
 367:Generated_Source\PSoC5/ADC_peak.c **** 
 368:Generated_Source\PSoC5/ADC_peak.c **** 
 369:Generated_Source\PSoC5/ADC_peak.c **** #if(ADC_peak_DEFAULT_CONV_MODE != ADC_peak__HARDWARE_TRIGGER)
 370:Generated_Source\PSoC5/ADC_peak.c **** 
 371:Generated_Source\PSoC5/ADC_peak.c **** 
 372:Generated_Source\PSoC5/ADC_peak.c ****     /*******************************************************************************
 373:Generated_Source\PSoC5/ADC_peak.c ****     * Function Name: ADC_peak_StartConvert
 374:Generated_Source\PSoC5/ADC_peak.c ****     ********************************************************************************
 375:Generated_Source\PSoC5/ADC_peak.c ****     *
 376:Generated_Source\PSoC5/ADC_peak.c ****     * Summary:
 377:Generated_Source\PSoC5/ADC_peak.c ****     *  Forces the ADC to initiate a conversion. In free-running mode, the ADC runs
 378:Generated_Source\PSoC5/ADC_peak.c ****     *  continuously. In software trigger mode, the function also acts as a software
 379:Generated_Source\PSoC5/ADC_peak.c ****     *  version of the SOC and every conversion must be triggered by
 380:Generated_Source\PSoC5/ADC_peak.c ****     *  ADC_peak_StartConvert(). This function is not available when the
 381:Generated_Source\PSoC5/ADC_peak.c ****     *  Hardware Trigger sample mode is selected.
 382:Generated_Source\PSoC5/ADC_peak.c ****     *
 383:Generated_Source\PSoC5/ADC_peak.c ****     * Parameters:
 384:Generated_Source\PSoC5/ADC_peak.c ****     *  None.
 385:Generated_Source\PSoC5/ADC_peak.c ****     *
 386:Generated_Source\PSoC5/ADC_peak.c ****     * Return:
 387:Generated_Source\PSoC5/ADC_peak.c ****     *  None.
 388:Generated_Source\PSoC5/ADC_peak.c ****     *
 389:Generated_Source\PSoC5/ADC_peak.c ****     * Theory:
 390:Generated_Source\PSoC5/ADC_peak.c ****     *  Forces the ADC to initiate a conversion. In Free Running mode, the ADC will
 391:Generated_Source\PSoC5/ADC_peak.c ****     *  run continuously. In a software trigger mode the function also acts as a
 392:Generated_Source\PSoC5/ADC_peak.c ****     *  software version of the SOC. Here every conversion has to be triggered by
 393:Generated_Source\PSoC5/ADC_peak.c ****     *  the routine. This writes into the SOC bit in SAR_CTRL reg.
 394:Generated_Source\PSoC5/ADC_peak.c ****     *
 395:Generated_Source\PSoC5/ADC_peak.c ****     * Side Effects:
 396:Generated_Source\PSoC5/ADC_peak.c ****     *  In a software trigger mode the function switches source for SOF from the
 397:Generated_Source\PSoC5/ADC_peak.c ****     *  external pin to the internal SOF generation. Application should not call
 398:Generated_Source\PSoC5/ADC_peak.c ****     *  StartConvert if external source used for SOF.
 399:Generated_Source\PSoC5/ADC_peak.c ****     *
 400:Generated_Source\PSoC5/ADC_peak.c ****     *******************************************************************************/
 401:Generated_Source\PSoC5/ADC_peak.c ****     void ADC_peak_StartConvert(void)
 402:Generated_Source\PSoC5/ADC_peak.c ****     {
 403:Generated_Source\PSoC5/ADC_peak.c ****         #if(ADC_peak_DEFAULT_CONV_MODE != ADC_peak__FREE_RUNNING)  /* If software triggered mode */
ARM GAS  C:\Users\chemi\AppData\Local\Temp\ccvRlSjL.s 			page 13


 404:Generated_Source\PSoC5/ADC_peak.c ****             ADC_peak_SAR_CSR0_REG &= (uint8)~ADC_peak_SAR_MX_SOF_UDB;   /* source: SOF bit */
 405:Generated_Source\PSoC5/ADC_peak.c ****         #endif /* End ADC_peak_DEFAULT_CONV_MODE */
 406:Generated_Source\PSoC5/ADC_peak.c **** 
 407:Generated_Source\PSoC5/ADC_peak.c ****         /* Start the conversion */
 408:Generated_Source\PSoC5/ADC_peak.c ****         ADC_peak_SAR_CSR0_REG |= ADC_peak_SAR_SOF_START_CONV;
 409:Generated_Source\PSoC5/ADC_peak.c ****     }
 410:Generated_Source\PSoC5/ADC_peak.c **** 
 411:Generated_Source\PSoC5/ADC_peak.c **** 
 412:Generated_Source\PSoC5/ADC_peak.c ****     /*******************************************************************************
 413:Generated_Source\PSoC5/ADC_peak.c ****     * Function Name: ADC_peak_StopConvert
 414:Generated_Source\PSoC5/ADC_peak.c ****     ********************************************************************************
 415:Generated_Source\PSoC5/ADC_peak.c ****     *
 416:Generated_Source\PSoC5/ADC_peak.c ****     * Summary:
 417:Generated_Source\PSoC5/ADC_peak.c ****     *  Forces the ADC to stop conversions. If a conversion is currently executing,
 418:Generated_Source\PSoC5/ADC_peak.c ****     *  that conversion will complete, but no further conversions will occur. This
 419:Generated_Source\PSoC5/ADC_peak.c ****     *  function is not available when the Hardware Trigger sample mode is selected.
 420:Generated_Source\PSoC5/ADC_peak.c ****     *
 421:Generated_Source\PSoC5/ADC_peak.c ****     * Parameters:
 422:Generated_Source\PSoC5/ADC_peak.c ****     *  None.
 423:Generated_Source\PSoC5/ADC_peak.c ****     *
 424:Generated_Source\PSoC5/ADC_peak.c ****     * Return:
 425:Generated_Source\PSoC5/ADC_peak.c ****     *  None.
 426:Generated_Source\PSoC5/ADC_peak.c ****     *
 427:Generated_Source\PSoC5/ADC_peak.c ****     * Theory:
 428:Generated_Source\PSoC5/ADC_peak.c ****     *  Stops ADC conversion in Free Running mode.
 429:Generated_Source\PSoC5/ADC_peak.c ****     *
 430:Generated_Source\PSoC5/ADC_peak.c ****     * Side Effects:
 431:Generated_Source\PSoC5/ADC_peak.c ****     *  In Software Trigger sample mode, this function sets a software version of the
 432:Generated_Source\PSoC5/ADC_peak.c ****     *  SOC to low level and switches the SOC source to hardware SOC input.
 433:Generated_Source\PSoC5/ADC_peak.c ****     *
 434:Generated_Source\PSoC5/ADC_peak.c ****     *******************************************************************************/
 435:Generated_Source\PSoC5/ADC_peak.c ****     void ADC_peak_StopConvert(void)
 436:Generated_Source\PSoC5/ADC_peak.c ****     {
 437:Generated_Source\PSoC5/ADC_peak.c ****         /* Stop all conversions */
 438:Generated_Source\PSoC5/ADC_peak.c ****         ADC_peak_SAR_CSR0_REG &= (uint8)~ADC_peak_SAR_SOF_START_CONV;
 439:Generated_Source\PSoC5/ADC_peak.c **** 
 440:Generated_Source\PSoC5/ADC_peak.c ****         #if(ADC_peak_DEFAULT_CONV_MODE != ADC_peak__FREE_RUNNING)  /* If software triggered mode */
 441:Generated_Source\PSoC5/ADC_peak.c ****             /* Return source to UDB for hardware SOF signal */
 442:Generated_Source\PSoC5/ADC_peak.c ****             ADC_peak_SAR_CSR0_REG |= ADC_peak_SAR_MX_SOF_UDB;    /* source: UDB */
 443:Generated_Source\PSoC5/ADC_peak.c ****         #endif /* End ADC_peak_DEFAULT_CONV_MODE */
 444:Generated_Source\PSoC5/ADC_peak.c **** 
 445:Generated_Source\PSoC5/ADC_peak.c ****     }
 446:Generated_Source\PSoC5/ADC_peak.c **** 
 447:Generated_Source\PSoC5/ADC_peak.c **** #endif /* End ADC_peak_DEFAULT_CONV_MODE != ADC_peak__HARDWARE_TRIGGER */
 448:Generated_Source\PSoC5/ADC_peak.c **** 
 449:Generated_Source\PSoC5/ADC_peak.c **** 
 450:Generated_Source\PSoC5/ADC_peak.c **** /*******************************************************************************
 451:Generated_Source\PSoC5/ADC_peak.c **** * Function Name: ADC_peak_IsEndConversion
 452:Generated_Source\PSoC5/ADC_peak.c **** ********************************************************************************
 453:Generated_Source\PSoC5/ADC_peak.c **** *
 454:Generated_Source\PSoC5/ADC_peak.c **** * Summary:
 455:Generated_Source\PSoC5/ADC_peak.c **** *  Immediately returns the status of the conversion or does not return
 456:Generated_Source\PSoC5/ADC_peak.c **** *  (blocking) until the conversion completes, depending on the retMode
 457:Generated_Source\PSoC5/ADC_peak.c **** *  parameter.
 458:Generated_Source\PSoC5/ADC_peak.c **** *
 459:Generated_Source\PSoC5/ADC_peak.c **** * Parameters:
 460:Generated_Source\PSoC5/ADC_peak.c **** *  retMode:  Check conversion return mode.
ARM GAS  C:\Users\chemi\AppData\Local\Temp\ccvRlSjL.s 			page 14


 461:Generated_Source\PSoC5/ADC_peak.c **** *   ADC_peak_RETURN_STATUS: Immediately returns the status. If the
 462:Generated_Source\PSoC5/ADC_peak.c **** *     value returned is zero, the conversion is not complete, and this function
 463:Generated_Source\PSoC5/ADC_peak.c **** *     should be retried until a nonzero result is returned.
 464:Generated_Source\PSoC5/ADC_peak.c **** *   ADC_peak_WAIT_FOR_RESULT: Does not return a result until the ADC
 465:Generated_Source\PSoC5/ADC_peak.c **** *     conversion is complete.
 466:Generated_Source\PSoC5/ADC_peak.c **** *
 467:Generated_Source\PSoC5/ADC_peak.c **** * Return:
 468:Generated_Source\PSoC5/ADC_peak.c **** *  (uint8)  0 =>  The ADC is still calculating the last result.
 469:Generated_Source\PSoC5/ADC_peak.c **** *           1 =>  The last conversion is complete.
 470:Generated_Source\PSoC5/ADC_peak.c **** *
 471:Generated_Source\PSoC5/ADC_peak.c **** * Side Effects:
 472:Generated_Source\PSoC5/ADC_peak.c **** *  This function reads the end of conversion status, which is cleared on read.
 473:Generated_Source\PSoC5/ADC_peak.c **** *
 474:Generated_Source\PSoC5/ADC_peak.c **** *******************************************************************************/
 475:Generated_Source\PSoC5/ADC_peak.c **** uint8 ADC_peak_IsEndConversion(uint8 retMode)
 476:Generated_Source\PSoC5/ADC_peak.c **** {
 477:Generated_Source\PSoC5/ADC_peak.c ****     uint8 status;
 478:Generated_Source\PSoC5/ADC_peak.c **** 
 479:Generated_Source\PSoC5/ADC_peak.c ****     do
 480:Generated_Source\PSoC5/ADC_peak.c ****     {
 481:Generated_Source\PSoC5/ADC_peak.c ****         status = ADC_peak_SAR_CSR1_REG & ADC_peak_SAR_EOF_1;
 482:Generated_Source\PSoC5/ADC_peak.c ****     } while ((status != ADC_peak_SAR_EOF_1) && (retMode == ADC_peak_WAIT_FOR_RESULT));
 483:Generated_Source\PSoC5/ADC_peak.c ****     /* If convertion complete, wait until EOF bit released */
 484:Generated_Source\PSoC5/ADC_peak.c ****     if(status == ADC_peak_SAR_EOF_1)
 485:Generated_Source\PSoC5/ADC_peak.c ****     {
 486:Generated_Source\PSoC5/ADC_peak.c ****         /* wait one ADC clock to let the EOC status bit release */
 487:Generated_Source\PSoC5/ADC_peak.c ****         CyDelayUs(1u);
 488:Generated_Source\PSoC5/ADC_peak.c ****         /* Do the unconditional read operation of the CSR1 register to make sure the EOC bit has be
 489:Generated_Source\PSoC5/ADC_peak.c ****         CY_GET_REG8(ADC_peak_SAR_CSR1_PTR);
 490:Generated_Source\PSoC5/ADC_peak.c ****     }
 491:Generated_Source\PSoC5/ADC_peak.c **** 
 492:Generated_Source\PSoC5/ADC_peak.c ****     return(status);
 493:Generated_Source\PSoC5/ADC_peak.c **** }
 494:Generated_Source\PSoC5/ADC_peak.c **** 
 495:Generated_Source\PSoC5/ADC_peak.c **** 
 496:Generated_Source\PSoC5/ADC_peak.c **** /*******************************************************************************
 497:Generated_Source\PSoC5/ADC_peak.c **** * Function Name: ADC_peak_GetResult8
 498:Generated_Source\PSoC5/ADC_peak.c **** ********************************************************************************
 499:Generated_Source\PSoC5/ADC_peak.c **** *
 500:Generated_Source\PSoC5/ADC_peak.c **** * Summary:
 501:Generated_Source\PSoC5/ADC_peak.c **** *  Returns the result of an 8-bit conversion. If the resolution is set greater
 502:Generated_Source\PSoC5/ADC_peak.c **** *  than 8 bits, the function returns the LSB of the result.
 503:Generated_Source\PSoC5/ADC_peak.c **** *  ADC_peak_IsEndConversion() should be called to verify that the data
 504:Generated_Source\PSoC5/ADC_peak.c **** *   sample is ready.
 505:Generated_Source\PSoC5/ADC_peak.c **** *
 506:Generated_Source\PSoC5/ADC_peak.c **** * Parameters:
 507:Generated_Source\PSoC5/ADC_peak.c **** *  None.
 508:Generated_Source\PSoC5/ADC_peak.c **** *
 509:Generated_Source\PSoC5/ADC_peak.c **** * Return:
 510:Generated_Source\PSoC5/ADC_peak.c **** *  The LSB of the last ADC conversion.
 511:Generated_Source\PSoC5/ADC_peak.c **** *
 512:Generated_Source\PSoC5/ADC_peak.c **** * Global Variables:
 513:Generated_Source\PSoC5/ADC_peak.c **** *  ADC_peak_shift - used to convert the ADC counts to the 2s
 514:Generated_Source\PSoC5/ADC_peak.c **** *  compliment form.
 515:Generated_Source\PSoC5/ADC_peak.c **** *
 516:Generated_Source\PSoC5/ADC_peak.c **** * Side Effects:
 517:Generated_Source\PSoC5/ADC_peak.c **** *  Converts the ADC counts to the 2s complement form.
ARM GAS  C:\Users\chemi\AppData\Local\Temp\ccvRlSjL.s 			page 15


 518:Generated_Source\PSoC5/ADC_peak.c **** *
 519:Generated_Source\PSoC5/ADC_peak.c **** *******************************************************************************/
 520:Generated_Source\PSoC5/ADC_peak.c **** int8 ADC_peak_GetResult8( void )
 521:Generated_Source\PSoC5/ADC_peak.c **** {
 522:Generated_Source\PSoC5/ADC_peak.c ****     return( (int8)ADC_peak_SAR_WRK0_REG - (int8)ADC_peak_shift);
 523:Generated_Source\PSoC5/ADC_peak.c **** }
 524:Generated_Source\PSoC5/ADC_peak.c **** 
 525:Generated_Source\PSoC5/ADC_peak.c **** 
 526:Generated_Source\PSoC5/ADC_peak.c **** /*******************************************************************************
 527:Generated_Source\PSoC5/ADC_peak.c **** * Function Name: ADC_peak_GetResult16
 528:Generated_Source\PSoC5/ADC_peak.c **** ********************************************************************************
 529:Generated_Source\PSoC5/ADC_peak.c **** *
 530:Generated_Source\PSoC5/ADC_peak.c **** * Summary:
 531:Generated_Source\PSoC5/ADC_peak.c **** *  Returns a 16-bit result for a conversion with a result that has a resolution
 532:Generated_Source\PSoC5/ADC_peak.c **** *  of 8 to 12 bits.
 533:Generated_Source\PSoC5/ADC_peak.c **** *  ADC_peak_IsEndConversion() should be called to verify that the data
 534:Generated_Source\PSoC5/ADC_peak.c **** *   sample is ready
 535:Generated_Source\PSoC5/ADC_peak.c **** *
 536:Generated_Source\PSoC5/ADC_peak.c **** * Parameters:
 537:Generated_Source\PSoC5/ADC_peak.c **** *  None.
 538:Generated_Source\PSoC5/ADC_peak.c **** *
 539:Generated_Source\PSoC5/ADC_peak.c **** * Return:
 540:Generated_Source\PSoC5/ADC_peak.c **** *  The 16-bit result of the last ADC conversion
 541:Generated_Source\PSoC5/ADC_peak.c **** *
 542:Generated_Source\PSoC5/ADC_peak.c **** * Global Variables:
 543:Generated_Source\PSoC5/ADC_peak.c **** *  ADC_peak_shift - used to convert the ADC counts to the 2s
 544:Generated_Source\PSoC5/ADC_peak.c **** *  compliment form.
 545:Generated_Source\PSoC5/ADC_peak.c **** *
 546:Generated_Source\PSoC5/ADC_peak.c **** * Side Effects:
 547:Generated_Source\PSoC5/ADC_peak.c **** *  Converts the ADC counts to the 2s complement form.
 548:Generated_Source\PSoC5/ADC_peak.c **** *
 549:Generated_Source\PSoC5/ADC_peak.c **** *******************************************************************************/
 550:Generated_Source\PSoC5/ADC_peak.c **** int16 ADC_peak_GetResult16( void )
 551:Generated_Source\PSoC5/ADC_peak.c **** {
 552:Generated_Source\PSoC5/ADC_peak.c ****     uint16 res;
 553:Generated_Source\PSoC5/ADC_peak.c **** 
 554:Generated_Source\PSoC5/ADC_peak.c ****     res = CY_GET_REG16(ADC_peak_SAR_WRK_PTR);
 555:Generated_Source\PSoC5/ADC_peak.c **** 
 556:Generated_Source\PSoC5/ADC_peak.c ****     return( (int16)res - ADC_peak_shift );
 557:Generated_Source\PSoC5/ADC_peak.c **** }
 558:Generated_Source\PSoC5/ADC_peak.c **** 
 559:Generated_Source\PSoC5/ADC_peak.c **** 
 560:Generated_Source\PSoC5/ADC_peak.c **** /*******************************************************************************
 561:Generated_Source\PSoC5/ADC_peak.c **** * Function Name: ADC_peak_SetOffset
 562:Generated_Source\PSoC5/ADC_peak.c **** ********************************************************************************
 563:Generated_Source\PSoC5/ADC_peak.c **** *
 564:Generated_Source\PSoC5/ADC_peak.c **** * Summary:
 565:Generated_Source\PSoC5/ADC_peak.c **** *  Sets the ADC offset, which is used by ADC_peak_CountsTo_Volts(),
 566:Generated_Source\PSoC5/ADC_peak.c **** *  ADC_peak_CountsTo_mVolts(), and ADC_peak_CountsTo_uVolts()
 567:Generated_Source\PSoC5/ADC_peak.c **** *  to subtract the offset from the given reading before calculating the voltage
 568:Generated_Source\PSoC5/ADC_peak.c **** *  conversion.
 569:Generated_Source\PSoC5/ADC_peak.c **** *
 570:Generated_Source\PSoC5/ADC_peak.c **** * Parameters:
 571:Generated_Source\PSoC5/ADC_peak.c **** *  int16: This value is measured when the inputs are shorted or connected to
 572:Generated_Source\PSoC5/ADC_peak.c ****    the same input voltage.
 573:Generated_Source\PSoC5/ADC_peak.c **** *
 574:Generated_Source\PSoC5/ADC_peak.c **** * Return:
ARM GAS  C:\Users\chemi\AppData\Local\Temp\ccvRlSjL.s 			page 16


 575:Generated_Source\PSoC5/ADC_peak.c **** *  None.
 576:Generated_Source\PSoC5/ADC_peak.c **** *
 577:Generated_Source\PSoC5/ADC_peak.c **** * Global Variables:
 578:Generated_Source\PSoC5/ADC_peak.c **** *  The ADC_peak_offset variable modified. This variable is used for
 579:Generated_Source\PSoC5/ADC_peak.c **** *  offset calibration purpose.
 580:Generated_Source\PSoC5/ADC_peak.c **** *  Affects the ADC_peak_CountsTo_Volts,
 581:Generated_Source\PSoC5/ADC_peak.c **** *  ADC_peak_CountsTo_mVolts, ADC_peak_CountsTo_uVolts functions
 582:Generated_Source\PSoC5/ADC_peak.c **** *  by subtracting the given offset.
 583:Generated_Source\PSoC5/ADC_peak.c **** *
 584:Generated_Source\PSoC5/ADC_peak.c **** *******************************************************************************/
 585:Generated_Source\PSoC5/ADC_peak.c **** void ADC_peak_SetOffset(int16 offset)
 586:Generated_Source\PSoC5/ADC_peak.c **** {
 587:Generated_Source\PSoC5/ADC_peak.c ****     ADC_peak_offset = offset;
 588:Generated_Source\PSoC5/ADC_peak.c **** }
 589:Generated_Source\PSoC5/ADC_peak.c **** 
 590:Generated_Source\PSoC5/ADC_peak.c **** 
 591:Generated_Source\PSoC5/ADC_peak.c **** /*******************************************************************************
 592:Generated_Source\PSoC5/ADC_peak.c **** * Function Name: ADC_peak_CalcGain
 593:Generated_Source\PSoC5/ADC_peak.c **** ********************************************************************************
 594:Generated_Source\PSoC5/ADC_peak.c **** *
 595:Generated_Source\PSoC5/ADC_peak.c **** * Summary:
 596:Generated_Source\PSoC5/ADC_peak.c **** *  This function calculates the ADC gain in counts per 10 volt.
 597:Generated_Source\PSoC5/ADC_peak.c **** *
 598:Generated_Source\PSoC5/ADC_peak.c **** * Parameters:
 599:Generated_Source\PSoC5/ADC_peak.c **** *  uint8: resolution
 600:Generated_Source\PSoC5/ADC_peak.c **** *
 601:Generated_Source\PSoC5/ADC_peak.c **** * Return:
 602:Generated_Source\PSoC5/ADC_peak.c **** *  None.
 603:Generated_Source\PSoC5/ADC_peak.c **** *
 604:Generated_Source\PSoC5/ADC_peak.c **** * Global Variables:
 605:Generated_Source\PSoC5/ADC_peak.c **** *  ADC_peak_shift variable initialized. This variable is used to
 606:Generated_Source\PSoC5/ADC_peak.c **** *  convert the ADC counts to the 2s compliment form.
 607:Generated_Source\PSoC5/ADC_peak.c **** *  ADC_peak_countsPer10Volt variable initialized. This variable is used
 608:Generated_Source\PSoC5/ADC_peak.c **** *  for gain calibration purpose.
 609:Generated_Source\PSoC5/ADC_peak.c **** *
 610:Generated_Source\PSoC5/ADC_peak.c **** *******************************************************************************/
 611:Generated_Source\PSoC5/ADC_peak.c **** static void ADC_peak_CalcGain( uint8 resolution )
 612:Generated_Source\PSoC5/ADC_peak.c **** {
 613:Generated_Source\PSoC5/ADC_peak.c ****     int32 counts;
 614:Generated_Source\PSoC5/ADC_peak.c ****     #if(!((ADC_peak_DEFAULT_RANGE == ADC_peak__VSS_TO_VREF) || \
 615:Generated_Source\PSoC5/ADC_peak.c ****          (ADC_peak_DEFAULT_RANGE == ADC_peak__VSSA_TO_VDDA) || \
 616:Generated_Source\PSoC5/ADC_peak.c ****          (ADC_peak_DEFAULT_RANGE == ADC_peak__VSSA_TO_VDAC)) )
 617:Generated_Source\PSoC5/ADC_peak.c ****         uint16 diff_zero;
 618:Generated_Source\PSoC5/ADC_peak.c ****     #endif /* End ADC_peak_DEFAULT_RANGE */
 619:Generated_Source\PSoC5/ADC_peak.c **** 
 620:Generated_Source\PSoC5/ADC_peak.c ****     switch (resolution)
 621:Generated_Source\PSoC5/ADC_peak.c ****     {
 622:Generated_Source\PSoC5/ADC_peak.c ****         case (uint8)ADC_peak__BITS_12:
 623:Generated_Source\PSoC5/ADC_peak.c ****             counts = (int32)ADC_peak_SAR_WRK_MAX_12BIT;
 624:Generated_Source\PSoC5/ADC_peak.c ****             #if(!((ADC_peak_DEFAULT_RANGE == ADC_peak__VSS_TO_VREF) || \
 625:Generated_Source\PSoC5/ADC_peak.c ****                  (ADC_peak_DEFAULT_RANGE == ADC_peak__VSSA_TO_VDDA) || \
 626:Generated_Source\PSoC5/ADC_peak.c ****                  (ADC_peak_DEFAULT_RANGE == ADC_peak__VSSA_TO_VDAC)) )
 627:Generated_Source\PSoC5/ADC_peak.c ****                 diff_zero = ADC_peak_SAR_DIFF_SHIFT;
 628:Generated_Source\PSoC5/ADC_peak.c ****             #endif /* End ADC_peak_DEFAULT_RANGE */
 629:Generated_Source\PSoC5/ADC_peak.c ****             break;
 630:Generated_Source\PSoC5/ADC_peak.c ****         case (uint8)ADC_peak__BITS_10:
 631:Generated_Source\PSoC5/ADC_peak.c ****             counts = (int32)ADC_peak_SAR_WRK_MAX_10BIT;
ARM GAS  C:\Users\chemi\AppData\Local\Temp\ccvRlSjL.s 			page 17


 632:Generated_Source\PSoC5/ADC_peak.c ****             #if(!((ADC_peak_DEFAULT_RANGE == ADC_peak__VSS_TO_VREF) || \
 633:Generated_Source\PSoC5/ADC_peak.c ****                  (ADC_peak_DEFAULT_RANGE == ADC_peak__VSSA_TO_VDDA) || \
 634:Generated_Source\PSoC5/ADC_peak.c ****                  (ADC_peak_DEFAULT_RANGE == ADC_peak__VSSA_TO_VDAC)) )
 635:Generated_Source\PSoC5/ADC_peak.c ****                 diff_zero = ADC_peak_SAR_DIFF_SHIFT >> 2u;
 636:Generated_Source\PSoC5/ADC_peak.c ****             #endif /* End ADC_peak_DEFAULT_RANGE */
 637:Generated_Source\PSoC5/ADC_peak.c ****             break;
 638:Generated_Source\PSoC5/ADC_peak.c ****         case (uint8)ADC_peak__BITS_8:
 639:Generated_Source\PSoC5/ADC_peak.c ****             counts = (int32)ADC_peak_SAR_WRK_MAX_8BIT;
 640:Generated_Source\PSoC5/ADC_peak.c ****             #if(!((ADC_peak_DEFAULT_RANGE == ADC_peak__VSS_TO_VREF) || \
 641:Generated_Source\PSoC5/ADC_peak.c ****                  (ADC_peak_DEFAULT_RANGE == ADC_peak__VSSA_TO_VDDA) || \
 642:Generated_Source\PSoC5/ADC_peak.c ****                  (ADC_peak_DEFAULT_RANGE == ADC_peak__VSSA_TO_VDAC)) )
 643:Generated_Source\PSoC5/ADC_peak.c ****                 diff_zero = ADC_peak_SAR_DIFF_SHIFT >> 4u;
 644:Generated_Source\PSoC5/ADC_peak.c ****             #endif /* End ADC_peak_DEFAULT_RANGE */
 645:Generated_Source\PSoC5/ADC_peak.c ****             break;
 646:Generated_Source\PSoC5/ADC_peak.c ****         default: /* Halt CPU in debug mode if resolution is out of valid range */
 647:Generated_Source\PSoC5/ADC_peak.c ****             counts = 0;
 648:Generated_Source\PSoC5/ADC_peak.c ****             #if(!((ADC_peak_DEFAULT_RANGE == ADC_peak__VSS_TO_VREF) || \
 649:Generated_Source\PSoC5/ADC_peak.c ****                  (ADC_peak_DEFAULT_RANGE == ADC_peak__VSSA_TO_VDDA) || \
 650:Generated_Source\PSoC5/ADC_peak.c ****                  (ADC_peak_DEFAULT_RANGE == ADC_peak__VSSA_TO_VDAC)) )
 651:Generated_Source\PSoC5/ADC_peak.c ****                 diff_zero = 0u;
 652:Generated_Source\PSoC5/ADC_peak.c ****             #endif /* End ADC_peak_DEFAULT_RANGE */
 653:Generated_Source\PSoC5/ADC_peak.c ****             CYASSERT(0u != 0u);
 654:Generated_Source\PSoC5/ADC_peak.c ****             break;
 655:Generated_Source\PSoC5/ADC_peak.c ****     }
 656:Generated_Source\PSoC5/ADC_peak.c ****     ADC_peak_countsPerVolt = 0; /* Clear obsolete variable */
 265              		.loc 1 656 0
 266 0028 0A4B     		ldr	r3, .L18+8
 267              	.LBE5:
 268              	.LBE4:
 362:Generated_Source\PSoC5/ADC_peak.c **** 
 269              		.loc 1 362 0
 270 002a 88BF     		it	hi
 271 002c 1146     		movhi	r1, r2
 272              	.LVL21:
 273              	.LBB7:
 274              	.LBB6:
 275              		.loc 1 656 0
 276 002e 1A80     		strh	r2, [r3]	@ movhi
 657:Generated_Source\PSoC5/ADC_peak.c ****     /* Calculate gain in counts per 10 volts with rounding */
 658:Generated_Source\PSoC5/ADC_peak.c ****     ADC_peak_countsPer10Volt = (((counts * ADC_peak_10MV_COUNTS) +
 659:Generated_Source\PSoC5/ADC_peak.c ****                         ADC_peak_DEFAULT_REF_VOLTAGE_MV) / (ADC_peak_DEFAULT_REF_VOLTAGE_MV * 2));
 277              		.loc 1 659 0
 278 0030 42F21073 		movw	r3, #10000
 279 0034 4B43     		muls	r3, r1, r3
 280 0036 41F28831 		movw	r1, #5000
 281              	.LVL22:
 282 003a 03F6C413 		addw	r3, r3, #2500
 283 003e 93FBF1F3 		sdiv	r3, r3, r1
 658:Generated_Source\PSoC5/ADC_peak.c ****                         ADC_peak_DEFAULT_REF_VOLTAGE_MV) / (ADC_peak_DEFAULT_REF_VOLTAGE_MV * 2));
 284              		.loc 1 658 0
 285 0042 0549     		ldr	r1, .L18+12
 286 0044 0B60     		str	r3, [r1]
 660:Generated_Source\PSoC5/ADC_peak.c **** 
 661:Generated_Source\PSoC5/ADC_peak.c ****     #if( (ADC_peak_DEFAULT_RANGE == ADC_peak__VSS_TO_VREF) || \
 662:Generated_Source\PSoC5/ADC_peak.c ****          (ADC_peak_DEFAULT_RANGE == ADC_peak__VSSA_TO_VDDA) || \
 663:Generated_Source\PSoC5/ADC_peak.c ****          (ADC_peak_DEFAULT_RANGE == ADC_peak__VSSA_TO_VDAC) )
 664:Generated_Source\PSoC5/ADC_peak.c ****         ADC_peak_shift = 0;
ARM GAS  C:\Users\chemi\AppData\Local\Temp\ccvRlSjL.s 			page 18


 287              		.loc 1 664 0
 288 0046 054B     		ldr	r3, .L18+16
 289 0048 1A80     		strh	r2, [r3]	@ movhi
 290 004a 7047     		bx	lr
 291              	.L19:
 292              		.align	2
 293              	.L18:
 294 004c 02590040 		.word	1073764610
 295 0050 00000000 		.word	.LANCHOR0
 296 0054 00000000 		.word	ADC_peak_countsPerVolt
 297 0058 00000000 		.word	ADC_peak_countsPer10Volt
 298 005c 00000000 		.word	ADC_peak_shift
 299              	.LBE6:
 300              	.LBE7:
 301              		.cfi_endproc
 302              	.LFE5:
 303              		.size	ADC_peak_SetResolution, .-ADC_peak_SetResolution
 304              		.section	.text.ADC_peak_Init,"ax",%progbits
 305              		.align	1
 306              		.global	ADC_peak_Init
 307              		.thumb
 308              		.thumb_func
 309              		.type	ADC_peak_Init, %function
 310              	ADC_peak_Init:
 311              	.LFB1:
 107:Generated_Source\PSoC5/ADC_peak.c **** 
 312              		.loc 1 107 0
 313              		.cfi_startproc
 314              		@ args = 0, pretend = 0, frame = 0
 315              		@ frame_needed = 0, uses_anonymous_args = 0
 316 0000 08B5     		push	{r3, lr}
 317              		.cfi_def_cfa_offset 8
 318              		.cfi_offset 3, -8
 319              		.cfi_offset 14, -4
 111:Generated_Source\PSoC5/ADC_peak.c ****     #endif /* End ADC_peak_DEFAULT_INTERNAL_CLK */
 320              		.loc 1 111 0
 321 0002 1020     		movs	r0, #16
 322 0004 FFF7FEFF 		bl	ADC_peak_theACLK_SetModeRegister
 323              	.LVL23:
 116:Generated_Source\PSoC5/ADC_peak.c ****         (void)CyIntSetVector(ADC_peak_INTC_NUMBER, &ADC_peak_ISR);
 324              		.loc 1 116 0
 325 0008 0721     		movs	r1, #7
 326 000a 0320     		movs	r0, #3
 327 000c FFF7FEFF 		bl	CyIntSetPriority
 328              	.LVL24:
 117:Generated_Source\PSoC5/ADC_peak.c ****     #endif   /* End ADC_peak_IRQ_REMOVE */
 329              		.loc 1 117 0
 330 0010 0749     		ldr	r1, .L21
 331 0012 0320     		movs	r0, #3
 332 0014 FFF7FEFF 		bl	CyIntSetVector
 333              	.LVL25:
 121:Generated_Source\PSoC5/ADC_peak.c **** 
 334              		.loc 1 121 0
 335 0018 064A     		ldr	r2, .L21+4
 124:Generated_Source\PSoC5/ADC_peak.c ****     ADC_peak_offset = 0;
 336              		.loc 1 124 0
 337 001a 0C20     		movs	r0, #12
ARM GAS  C:\Users\chemi\AppData\Local\Temp\ccvRlSjL.s 			page 19


 121:Generated_Source\PSoC5/ADC_peak.c **** 
 338              		.loc 1 121 0
 339 001c 1378     		ldrb	r3, [r2]	@ zero_extendqisi2
 340 001e 43F00603 		orr	r3, r3, #6
 341 0022 1370     		strb	r3, [r2]
 124:Generated_Source\PSoC5/ADC_peak.c ****     ADC_peak_offset = 0;
 342              		.loc 1 124 0
 343 0024 FFF7FEFF 		bl	ADC_peak_SetResolution
 344              	.LVL26:
 125:Generated_Source\PSoC5/ADC_peak.c **** }
 345              		.loc 1 125 0
 346 0028 034B     		ldr	r3, .L21+8
 347 002a 0022     		movs	r2, #0
 348 002c 1A80     		strh	r2, [r3]	@ movhi
 349 002e 08BD     		pop	{r3, pc}
 350              	.L22:
 351              		.align	2
 352              	.L21:
 353 0030 00000000 		.word	ADC_peak_ISR
 354 0034 01590040 		.word	1073764609
 355 0038 00000000 		.word	ADC_peak_offset
 356              		.cfi_endproc
 357              	.LFE1:
 358              		.size	ADC_peak_Init, .-ADC_peak_Init
 359              		.section	.text.ADC_peak_Start,"ax",%progbits
 360              		.align	1
 361              		.global	ADC_peak_Start
 362              		.thumb
 363              		.thumb_func
 364              		.type	ADC_peak_Start, %function
 365              	ADC_peak_Start:
 366              	.LFB0:
  75:Generated_Source\PSoC5/ADC_peak.c **** 
 367              		.loc 1 75 0
 368              		.cfi_startproc
 369              		@ args = 0, pretend = 0, frame = 0
 370              		@ frame_needed = 0, uses_anonymous_args = 0
 371 0000 10B5     		push	{r4, lr}
 372              		.cfi_def_cfa_offset 8
 373              		.cfi_offset 4, -8
 374              		.cfi_offset 14, -4
  78:Generated_Source\PSoC5/ADC_peak.c ****     {
 375              		.loc 1 78 0
 376 0002 054C     		ldr	r4, .L25
 377 0004 2378     		ldrb	r3, [r4]	@ zero_extendqisi2
 378 0006 1BB9     		cbnz	r3, .L24
  80:Generated_Source\PSoC5/ADC_peak.c ****         ADC_peak_initVar = 1u;
 379              		.loc 1 80 0
 380 0008 FFF7FEFF 		bl	ADC_peak_Init
 381              	.LVL27:
  81:Generated_Source\PSoC5/ADC_peak.c ****     }
 382              		.loc 1 81 0
 383 000c 0123     		movs	r3, #1
 384 000e 2370     		strb	r3, [r4]
 385              	.L24:
  84:Generated_Source\PSoC5/ADC_peak.c **** 
 386              		.loc 1 84 0
ARM GAS  C:\Users\chemi\AppData\Local\Temp\ccvRlSjL.s 			page 20


 387 0010 BDE81040 		pop	{r4, lr}
 388              		.cfi_restore 14
 389              		.cfi_restore 4
 390              		.cfi_def_cfa_offset 0
  83:Generated_Source\PSoC5/ADC_peak.c **** }
 391              		.loc 1 83 0
 392 0014 FFF7FEBF 		b	ADC_peak_Enable
 393              	.LVL28:
 394              	.L26:
 395              		.align	2
 396              	.L25:
 397 0018 00000000 		.word	.LANCHOR1
 398              		.cfi_endproc
 399              	.LFE0:
 400              		.size	ADC_peak_Start, .-ADC_peak_Start
 401              		.section	.text.ADC_peak_IsEndConversion,"ax",%progbits
 402              		.align	1
 403              		.global	ADC_peak_IsEndConversion
 404              		.thumb
 405              		.thumb_func
 406              		.type	ADC_peak_IsEndConversion, %function
 407              	ADC_peak_IsEndConversion:
 408              	.LFB6:
 476:Generated_Source\PSoC5/ADC_peak.c ****     uint8 status;
 409              		.loc 1 476 0
 410              		.cfi_startproc
 411              		@ args = 0, pretend = 0, frame = 0
 412              		@ frame_needed = 0, uses_anonymous_args = 0
 413              	.LVL29:
 414 0000 10B5     		push	{r4, lr}
 415              		.cfi_def_cfa_offset 8
 416              		.cfi_offset 4, -8
 417              		.cfi_offset 14, -4
 481:Generated_Source\PSoC5/ADC_peak.c ****     } while ((status != ADC_peak_SAR_EOF_1) && (retMode == ADC_peak_WAIT_FOR_RESULT));
 418              		.loc 1 481 0
 419 0002 084B     		ldr	r3, .L34
 420              	.L29:
 481:Generated_Source\PSoC5/ADC_peak.c ****     } while ((status != ADC_peak_SAR_EOF_1) && (retMode == ADC_peak_WAIT_FOR_RESULT));
 421              		.loc 1 481 0 is_stmt 0 discriminator 2
 422 0004 1C78     		ldrb	r4, [r3]	@ zero_extendqisi2
 423              	.LVL30:
 482:Generated_Source\PSoC5/ADC_peak.c ****     /* If convertion complete, wait until EOF bit released */
 424              		.loc 1 482 0 is_stmt 1 discriminator 2
 425 0006 14F00104 		ands	r4, r4, #1
 426              	.LVL31:
 427 000a 03D1     		bne	.L28
 482:Generated_Source\PSoC5/ADC_peak.c ****     /* If convertion complete, wait until EOF bit released */
 428              		.loc 1 482 0 is_stmt 0 discriminator 1
 429 000c 0028     		cmp	r0, #0
 430 000e F9D0     		beq	.L29
 431 0010 0024     		movs	r4, #0
 432 0012 04E0     		b	.L33
 433              	.L28:
 487:Generated_Source\PSoC5/ADC_peak.c ****         /* Do the unconditional read operation of the CSR1 register to make sure the EOC bit has be
 434              		.loc 1 487 0 is_stmt 1
 435 0014 2046     		mov	r0, r4
 436              	.LVL32:
ARM GAS  C:\Users\chemi\AppData\Local\Temp\ccvRlSjL.s 			page 21


 437 0016 FFF7FEFF 		bl	CyDelayUs
 438              	.LVL33:
 489:Generated_Source\PSoC5/ADC_peak.c ****     }
 439              		.loc 1 489 0
 440 001a 024B     		ldr	r3, .L34
 441 001c 1B78     		ldrb	r3, [r3]	@ zero_extendqisi2
 442              	.L33:
 493:Generated_Source\PSoC5/ADC_peak.c **** 
 443              		.loc 1 493 0
 444 001e 2046     		mov	r0, r4
 445 0020 10BD     		pop	{r4, pc}
 446              	.L35:
 447 0022 00BF     		.align	2
 448              	.L34:
 449 0024 01590040 		.word	1073764609
 450              		.cfi_endproc
 451              	.LFE6:
 452              		.size	ADC_peak_IsEndConversion, .-ADC_peak_IsEndConversion
 453              		.section	.text.ADC_peak_GetResult8,"ax",%progbits
 454              		.align	1
 455              		.global	ADC_peak_GetResult8
 456              		.thumb
 457              		.thumb_func
 458              		.type	ADC_peak_GetResult8, %function
 459              	ADC_peak_GetResult8:
 460              	.LFB7:
 521:Generated_Source\PSoC5/ADC_peak.c ****     return( (int8)ADC_peak_SAR_WRK0_REG - (int8)ADC_peak_shift);
 461              		.loc 1 521 0
 462              		.cfi_startproc
 463              		@ args = 0, pretend = 0, frame = 0
 464              		@ frame_needed = 0, uses_anonymous_args = 0
 465              		@ link register save eliminated.
 522:Generated_Source\PSoC5/ADC_peak.c **** }
 466              		.loc 1 522 0
 467 0000 034A     		ldr	r2, .L37
 468 0002 044B     		ldr	r3, .L37+4
 469 0004 1B78     		ldrb	r3, [r3]	@ zero_extendqisi2
 470 0006 1088     		ldrh	r0, [r2]
 471 0008 181A     		subs	r0, r3, r0
 523:Generated_Source\PSoC5/ADC_peak.c **** 
 472              		.loc 1 523 0
 473 000a 40B2     		sxtb	r0, r0
 474 000c 7047     		bx	lr
 475              	.L38:
 476 000e 00BF     		.align	2
 477              	.L37:
 478 0010 00000000 		.word	ADC_peak_shift
 479 0014 A05B0040 		.word	1073765280
 480              		.cfi_endproc
 481              	.LFE7:
 482              		.size	ADC_peak_GetResult8, .-ADC_peak_GetResult8
 483              		.section	.text.ADC_peak_GetResult16,"ax",%progbits
 484              		.align	1
 485              		.global	ADC_peak_GetResult16
 486              		.thumb
 487              		.thumb_func
 488              		.type	ADC_peak_GetResult16, %function
ARM GAS  C:\Users\chemi\AppData\Local\Temp\ccvRlSjL.s 			page 22


 489              	ADC_peak_GetResult16:
 490              	.LFB8:
 551:Generated_Source\PSoC5/ADC_peak.c ****     uint16 res;
 491              		.loc 1 551 0
 492              		.cfi_startproc
 493              		@ args = 0, pretend = 0, frame = 0
 494              		@ frame_needed = 0, uses_anonymous_args = 0
 495              		@ link register save eliminated.
 556:Generated_Source\PSoC5/ADC_peak.c **** }
 496              		.loc 1 556 0
 497 0000 034A     		ldr	r2, .L40
 554:Generated_Source\PSoC5/ADC_peak.c **** 
 498              		.loc 1 554 0
 499 0002 044B     		ldr	r3, .L40+4
 500 0004 1B88     		ldrh	r3, [r3]
 501              	.LVL34:
 556:Generated_Source\PSoC5/ADC_peak.c **** }
 502              		.loc 1 556 0
 503 0006 1088     		ldrh	r0, [r2]
 504 0008 181A     		subs	r0, r3, r0
 557:Generated_Source\PSoC5/ADC_peak.c **** 
 505              		.loc 1 557 0
 506 000a 00B2     		sxth	r0, r0
 507 000c 7047     		bx	lr
 508              	.L41:
 509 000e 00BF     		.align	2
 510              	.L40:
 511 0010 00000000 		.word	ADC_peak_shift
 512 0014 A05B0040 		.word	1073765280
 513              		.cfi_endproc
 514              	.LFE8:
 515              		.size	ADC_peak_GetResult16, .-ADC_peak_GetResult16
 516              		.section	.text.ADC_peak_SetOffset,"ax",%progbits
 517              		.align	1
 518              		.global	ADC_peak_SetOffset
 519              		.thumb
 520              		.thumb_func
 521              		.type	ADC_peak_SetOffset, %function
 522              	ADC_peak_SetOffset:
 523              	.LFB9:
 586:Generated_Source\PSoC5/ADC_peak.c ****     ADC_peak_offset = offset;
 524              		.loc 1 586 0
 525              		.cfi_startproc
 526              		@ args = 0, pretend = 0, frame = 0
 527              		@ frame_needed = 0, uses_anonymous_args = 0
 528              		@ link register save eliminated.
 529              	.LVL35:
 587:Generated_Source\PSoC5/ADC_peak.c **** }
 530              		.loc 1 587 0
 531 0000 014B     		ldr	r3, .L43
 532 0002 1880     		strh	r0, [r3]	@ movhi
 533 0004 7047     		bx	lr
 534              	.L44:
 535 0006 00BF     		.align	2
 536              	.L43:
 537 0008 00000000 		.word	ADC_peak_offset
 538              		.cfi_endproc
ARM GAS  C:\Users\chemi\AppData\Local\Temp\ccvRlSjL.s 			page 23


 539              	.LFE9:
 540              		.size	ADC_peak_SetOffset, .-ADC_peak_SetOffset
 541              		.section	.text.ADC_peak_SetGain,"ax",%progbits
 542              		.align	1
 543              		.global	ADC_peak_SetGain
 544              		.thumb
 545              		.thumb_func
 546              		.type	ADC_peak_SetGain, %function
 547              	ADC_peak_SetGain:
 548              	.LFB11:
 665:Generated_Source\PSoC5/ADC_peak.c ****     #else
 666:Generated_Source\PSoC5/ADC_peak.c ****         ADC_peak_shift = diff_zero;
 667:Generated_Source\PSoC5/ADC_peak.c ****     #endif /* End ADC_peak_DEFAULT_RANGE */
 668:Generated_Source\PSoC5/ADC_peak.c **** }
 669:Generated_Source\PSoC5/ADC_peak.c **** 
 670:Generated_Source\PSoC5/ADC_peak.c **** 
 671:Generated_Source\PSoC5/ADC_peak.c **** /*******************************************************************************
 672:Generated_Source\PSoC5/ADC_peak.c **** * Function Name: ADC_peak_SetGain
 673:Generated_Source\PSoC5/ADC_peak.c **** ********************************************************************************
 674:Generated_Source\PSoC5/ADC_peak.c **** *
 675:Generated_Source\PSoC5/ADC_peak.c **** * Summary:
 676:Generated_Source\PSoC5/ADC_peak.c **** *  Sets the ADC gain in counts per volt for the voltage conversion functions
 677:Generated_Source\PSoC5/ADC_peak.c **** *  that follow. This value is set by default by the reference and input range
 678:Generated_Source\PSoC5/ADC_peak.c **** *  settings. It should only be used to further calibrate the ADC with a known
 679:Generated_Source\PSoC5/ADC_peak.c **** *  input or if the ADC is using an external reference.
 680:Generated_Source\PSoC5/ADC_peak.c **** *
 681:Generated_Source\PSoC5/ADC_peak.c **** * Parameters:
 682:Generated_Source\PSoC5/ADC_peak.c **** *  int16 adcGain counts per volt
 683:Generated_Source\PSoC5/ADC_peak.c **** *
 684:Generated_Source\PSoC5/ADC_peak.c **** * Return:
 685:Generated_Source\PSoC5/ADC_peak.c **** *  None.
 686:Generated_Source\PSoC5/ADC_peak.c **** *
 687:Generated_Source\PSoC5/ADC_peak.c **** * Global Variables:
 688:Generated_Source\PSoC5/ADC_peak.c **** *  ADC_peak_countsPer10Volt variable modified. This variable is used
 689:Generated_Source\PSoC5/ADC_peak.c **** *  for gain calibration purpose.
 690:Generated_Source\PSoC5/ADC_peak.c **** *
 691:Generated_Source\PSoC5/ADC_peak.c **** *******************************************************************************/
 692:Generated_Source\PSoC5/ADC_peak.c **** void ADC_peak_SetGain(int16 adcGain)
 693:Generated_Source\PSoC5/ADC_peak.c **** {
 549              		.loc 1 693 0
 550              		.cfi_startproc
 551              		@ args = 0, pretend = 0, frame = 0
 552              		@ frame_needed = 0, uses_anonymous_args = 0
 553              		@ link register save eliminated.
 554              	.LVL36:
 694:Generated_Source\PSoC5/ADC_peak.c ****     ADC_peak_countsPer10Volt = (int32)adcGain * 10;
 555              		.loc 1 694 0
 556 0000 0A23     		movs	r3, #10
 557 0002 5843     		muls	r0, r3, r0
 558              	.LVL37:
 559 0004 014B     		ldr	r3, .L46
 560 0006 1860     		str	r0, [r3]
 561 0008 7047     		bx	lr
 562              	.L47:
 563 000a 00BF     		.align	2
 564              	.L46:
 565 000c 00000000 		.word	ADC_peak_countsPer10Volt
ARM GAS  C:\Users\chemi\AppData\Local\Temp\ccvRlSjL.s 			page 24


 566              		.cfi_endproc
 567              	.LFE11:
 568              		.size	ADC_peak_SetGain, .-ADC_peak_SetGain
 569              		.section	.text.ADC_peak_SetScaledGain,"ax",%progbits
 570              		.align	1
 571              		.global	ADC_peak_SetScaledGain
 572              		.thumb
 573              		.thumb_func
 574              		.type	ADC_peak_SetScaledGain, %function
 575              	ADC_peak_SetScaledGain:
 576              	.LFB12:
 695:Generated_Source\PSoC5/ADC_peak.c **** }
 696:Generated_Source\PSoC5/ADC_peak.c **** 
 697:Generated_Source\PSoC5/ADC_peak.c **** 
 698:Generated_Source\PSoC5/ADC_peak.c **** /*******************************************************************************
 699:Generated_Source\PSoC5/ADC_peak.c **** * Function Name: ADC_peak_SetScaledGain
 700:Generated_Source\PSoC5/ADC_peak.c **** ********************************************************************************
 701:Generated_Source\PSoC5/ADC_peak.c **** *
 702:Generated_Source\PSoC5/ADC_peak.c **** * Summary:
 703:Generated_Source\PSoC5/ADC_peak.c **** *  Sets the ADC gain in counts per 10 volt for the voltage conversion functions
 704:Generated_Source\PSoC5/ADC_peak.c **** *  that follow. This value is set by default by the reference and input range
 705:Generated_Source\PSoC5/ADC_peak.c **** *  settings. It should only be used to further calibrate the ADC with a known
 706:Generated_Source\PSoC5/ADC_peak.c **** *  input or if the ADC is using an external reference.
 707:Generated_Source\PSoC5/ADC_peak.c **** *
 708:Generated_Source\PSoC5/ADC_peak.c **** * Parameters:
 709:Generated_Source\PSoC5/ADC_peak.c **** *  int32 adcGain  counts per 10 volt
 710:Generated_Source\PSoC5/ADC_peak.c **** *
 711:Generated_Source\PSoC5/ADC_peak.c **** * Return:
 712:Generated_Source\PSoC5/ADC_peak.c **** *  None.
 713:Generated_Source\PSoC5/ADC_peak.c **** *
 714:Generated_Source\PSoC5/ADC_peak.c **** * Global Variables:
 715:Generated_Source\PSoC5/ADC_peak.c **** *  ADC_peak_countsPer10Volt variable modified. This variable is used
 716:Generated_Source\PSoC5/ADC_peak.c **** *  for gain calibration purpose.
 717:Generated_Source\PSoC5/ADC_peak.c **** *
 718:Generated_Source\PSoC5/ADC_peak.c **** *******************************************************************************/
 719:Generated_Source\PSoC5/ADC_peak.c **** void ADC_peak_SetScaledGain(int32 adcGain)
 720:Generated_Source\PSoC5/ADC_peak.c **** {
 577              		.loc 1 720 0
 578              		.cfi_startproc
 579              		@ args = 0, pretend = 0, frame = 0
 580              		@ frame_needed = 0, uses_anonymous_args = 0
 581              		@ link register save eliminated.
 582              	.LVL38:
 721:Generated_Source\PSoC5/ADC_peak.c ****     ADC_peak_countsPer10Volt = adcGain;
 583              		.loc 1 721 0
 584 0000 014B     		ldr	r3, .L49
 585 0002 1860     		str	r0, [r3]
 586 0004 7047     		bx	lr
 587              	.L50:
 588 0006 00BF     		.align	2
 589              	.L49:
 590 0008 00000000 		.word	ADC_peak_countsPer10Volt
 591              		.cfi_endproc
 592              	.LFE12:
 593              		.size	ADC_peak_SetScaledGain, .-ADC_peak_SetScaledGain
 594              		.section	.text.ADC_peak_CountsTo_mVolts,"ax",%progbits
 595              		.align	1
ARM GAS  C:\Users\chemi\AppData\Local\Temp\ccvRlSjL.s 			page 25


 596              		.global	ADC_peak_CountsTo_mVolts
 597              		.thumb
 598              		.thumb_func
 599              		.type	ADC_peak_CountsTo_mVolts, %function
 600              	ADC_peak_CountsTo_mVolts:
 601              	.LFB13:
 722:Generated_Source\PSoC5/ADC_peak.c **** }
 723:Generated_Source\PSoC5/ADC_peak.c **** 
 724:Generated_Source\PSoC5/ADC_peak.c **** 
 725:Generated_Source\PSoC5/ADC_peak.c **** /*******************************************************************************
 726:Generated_Source\PSoC5/ADC_peak.c **** * Function Name: ADC_peak_CountsTo_mVolts
 727:Generated_Source\PSoC5/ADC_peak.c **** ********************************************************************************
 728:Generated_Source\PSoC5/ADC_peak.c **** *
 729:Generated_Source\PSoC5/ADC_peak.c **** * Summary:
 730:Generated_Source\PSoC5/ADC_peak.c **** *  Converts the ADC output to millivolts as a 16-bit integer.
 731:Generated_Source\PSoC5/ADC_peak.c **** *
 732:Generated_Source\PSoC5/ADC_peak.c **** * Parameters:
 733:Generated_Source\PSoC5/ADC_peak.c **** *  int16 adcCounts:  Result from the ADC conversion
 734:Generated_Source\PSoC5/ADC_peak.c **** *
 735:Generated_Source\PSoC5/ADC_peak.c **** * Return:
 736:Generated_Source\PSoC5/ADC_peak.c **** *  int16 Result in mVolts
 737:Generated_Source\PSoC5/ADC_peak.c **** *
 738:Generated_Source\PSoC5/ADC_peak.c **** * Global Variables:
 739:Generated_Source\PSoC5/ADC_peak.c **** *  ADC_peak_offset variable used.
 740:Generated_Source\PSoC5/ADC_peak.c **** *  ADC_peak_countsPer10Volt variable used.
 741:Generated_Source\PSoC5/ADC_peak.c **** *
 742:Generated_Source\PSoC5/ADC_peak.c **** *******************************************************************************/
 743:Generated_Source\PSoC5/ADC_peak.c **** int16 ADC_peak_CountsTo_mVolts(int16 adcCounts)
 744:Generated_Source\PSoC5/ADC_peak.c **** {
 602              		.loc 1 744 0
 603              		.cfi_startproc
 604              		@ args = 0, pretend = 0, frame = 0
 605              		@ frame_needed = 0, uses_anonymous_args = 0
 606              		@ link register save eliminated.
 607              	.LVL39:
 745:Generated_Source\PSoC5/ADC_peak.c ****     int16 mVolts;
 746:Generated_Source\PSoC5/ADC_peak.c ****     int32 countsPer10Volt;
 747:Generated_Source\PSoC5/ADC_peak.c **** 
 748:Generated_Source\PSoC5/ADC_peak.c ****     if(ADC_peak_countsPerVolt != 0)
 608              		.loc 1 748 0
 609 0000 0E4A     		ldr	r2, .L56
 610 0002 1388     		ldrh	r3, [r2]
 611 0004 1BB2     		sxth	r3, r3
 612 0006 23B1     		cbz	r3, .L52
 749:Generated_Source\PSoC5/ADC_peak.c ****     {   /* Support obsolete method */
 750:Generated_Source\PSoC5/ADC_peak.c ****         countsPer10Volt = (int32)ADC_peak_countsPerVolt * 10;
 613              		.loc 1 750 0
 614 0008 1188     		ldrh	r1, [r2]
 615 000a 0A23     		movs	r3, #10
 616 000c 09B2     		sxth	r1, r1
 617 000e 5943     		muls	r1, r3, r1
 618              	.LVL40:
 619 0010 01E0     		b	.L53
 620              	.LVL41:
 621              	.L52:
 751:Generated_Source\PSoC5/ADC_peak.c ****     }
 752:Generated_Source\PSoC5/ADC_peak.c ****     else
ARM GAS  C:\Users\chemi\AppData\Local\Temp\ccvRlSjL.s 			page 26


 753:Generated_Source\PSoC5/ADC_peak.c ****     {
 754:Generated_Source\PSoC5/ADC_peak.c ****         countsPer10Volt = ADC_peak_countsPer10Volt;
 622              		.loc 1 754 0
 623 0012 0B4B     		ldr	r3, .L56+4
 624 0014 1968     		ldr	r1, [r3]
 625              	.LVL42:
 626              	.L53:
 755:Generated_Source\PSoC5/ADC_peak.c ****     }
 756:Generated_Source\PSoC5/ADC_peak.c **** 
 757:Generated_Source\PSoC5/ADC_peak.c ****     /* Subtract ADC offset */
 758:Generated_Source\PSoC5/ADC_peak.c ****     adcCounts -= ADC_peak_offset;
 627              		.loc 1 758 0
 628 0016 0B4B     		ldr	r3, .L56+8
 629 0018 1B88     		ldrh	r3, [r3]
 630 001a C01A     		subs	r0, r0, r3
 631              	.LVL43:
 759:Generated_Source\PSoC5/ADC_peak.c ****     /* Convert to millivolts with rounding */
 760:Generated_Source\PSoC5/ADC_peak.c ****     mVolts = (int16)( (( (int32)adcCounts * ADC_peak_10MV_COUNTS ) + ( (adcCounts > 0) ?
 632              		.loc 1 760 0
 633 001c 42F21073 		movw	r3, #10000
 758:Generated_Source\PSoC5/ADC_peak.c ****     /* Convert to millivolts with rounding */
 634              		.loc 1 758 0
 635 0020 00B2     		sxth	r0, r0
 636              	.LVL44:
 637              		.loc 1 760 0
 638 0022 03FB00F2 		mul	r2, r3, r0
 639 0026 0223     		movs	r3, #2
 761:Generated_Source\PSoC5/ADC_peak.c ****                        (countsPer10Volt / 2) : (-(countsPer10Volt / 2)) )) / countsPer10Volt);
 640              		.loc 1 761 0
 641 0028 91FBF3F3 		sdiv	r3, r1, r3
 642 002c 0028     		cmp	r0, #0
 643 002e D8BF     		it	le
 644 0030 5B42     		rsble	r3, r3, #0
 645              	.LVL45:
 762:Generated_Source\PSoC5/ADC_peak.c **** 
 763:Generated_Source\PSoC5/ADC_peak.c ****     return( mVolts );
 646              		.loc 1 763 0
 647 0032 1344     		add	r3, r3, r2
 648              	.LVL46:
 649 0034 93FBF1F0 		sdiv	r0, r3, r1
 650              	.LVL47:
 764:Generated_Source\PSoC5/ADC_peak.c **** }
 651              		.loc 1 764 0
 652 0038 00B2     		sxth	r0, r0
 653 003a 7047     		bx	lr
 654              	.L57:
 655              		.align	2
 656              	.L56:
 657 003c 00000000 		.word	ADC_peak_countsPerVolt
 658 0040 00000000 		.word	ADC_peak_countsPer10Volt
 659 0044 00000000 		.word	ADC_peak_offset
 660              		.cfi_endproc
 661              	.LFE13:
 662              		.size	ADC_peak_CountsTo_mVolts, .-ADC_peak_CountsTo_mVolts
 663              		.global	__aeabi_ldivmod
 664              		.section	.text.ADC_peak_CountsTo_uVolts,"ax",%progbits
 665              		.align	1
ARM GAS  C:\Users\chemi\AppData\Local\Temp\ccvRlSjL.s 			page 27


 666              		.global	ADC_peak_CountsTo_uVolts
 667              		.thumb
 668              		.thumb_func
 669              		.type	ADC_peak_CountsTo_uVolts, %function
 670              	ADC_peak_CountsTo_uVolts:
 671              	.LFB14:
 765:Generated_Source\PSoC5/ADC_peak.c **** 
 766:Generated_Source\PSoC5/ADC_peak.c **** 
 767:Generated_Source\PSoC5/ADC_peak.c **** /*******************************************************************************
 768:Generated_Source\PSoC5/ADC_peak.c **** * Function Name: ADC_peak_CountsTo_uVolts
 769:Generated_Source\PSoC5/ADC_peak.c **** ********************************************************************************
 770:Generated_Source\PSoC5/ADC_peak.c **** *
 771:Generated_Source\PSoC5/ADC_peak.c **** * Summary:
 772:Generated_Source\PSoC5/ADC_peak.c **** *  Converts the ADC output to microvolts as a 32-bit integer.
 773:Generated_Source\PSoC5/ADC_peak.c **** *
 774:Generated_Source\PSoC5/ADC_peak.c **** * Parameters:
 775:Generated_Source\PSoC5/ADC_peak.c **** *  int16 adcCounts: Result from the ADC conversion
 776:Generated_Source\PSoC5/ADC_peak.c **** *
 777:Generated_Source\PSoC5/ADC_peak.c **** * Return:
 778:Generated_Source\PSoC5/ADC_peak.c **** *  int32 Result in micro Volts
 779:Generated_Source\PSoC5/ADC_peak.c **** *
 780:Generated_Source\PSoC5/ADC_peak.c **** * Global Variables:
 781:Generated_Source\PSoC5/ADC_peak.c **** *  ADC_peak_offset variable used.
 782:Generated_Source\PSoC5/ADC_peak.c **** *  ADC_peak_countsPer10Volt used to convert ADC counts to uVolts.
 783:Generated_Source\PSoC5/ADC_peak.c **** *
 784:Generated_Source\PSoC5/ADC_peak.c **** *******************************************************************************/
 785:Generated_Source\PSoC5/ADC_peak.c **** int32 ADC_peak_CountsTo_uVolts(int16 adcCounts)
 786:Generated_Source\PSoC5/ADC_peak.c **** {
 672              		.loc 1 786 0
 673              		.cfi_startproc
 674              		@ args = 0, pretend = 0, frame = 0
 675              		@ frame_needed = 0, uses_anonymous_args = 0
 676              	.LVL48:
 787:Generated_Source\PSoC5/ADC_peak.c **** 
 788:Generated_Source\PSoC5/ADC_peak.c ****     int64 uVolts;
 789:Generated_Source\PSoC5/ADC_peak.c ****     int32 countsPer10Volt;
 790:Generated_Source\PSoC5/ADC_peak.c **** 
 791:Generated_Source\PSoC5/ADC_peak.c ****     if(ADC_peak_countsPerVolt != 0)
 677              		.loc 1 791 0
 678 0000 0C4A     		ldr	r2, .L61
 786:Generated_Source\PSoC5/ADC_peak.c **** 
 679              		.loc 1 786 0
 680 0002 38B5     		push	{r3, r4, r5, lr}
 681              		.cfi_def_cfa_offset 16
 682              		.cfi_offset 3, -16
 683              		.cfi_offset 4, -12
 684              		.cfi_offset 5, -8
 685              		.cfi_offset 14, -4
 686              		.loc 1 791 0
 687 0004 1388     		ldrh	r3, [r2]
 688 0006 1BB2     		sxth	r3, r3
 689 0008 23B1     		cbz	r3, .L59
 792:Generated_Source\PSoC5/ADC_peak.c ****     {   /* Support obsolete method */
 793:Generated_Source\PSoC5/ADC_peak.c ****         countsPer10Volt = (int32)ADC_peak_countsPerVolt * 10;
 690              		.loc 1 793 0
 691 000a 1288     		ldrh	r2, [r2]
 692 000c 0A23     		movs	r3, #10
ARM GAS  C:\Users\chemi\AppData\Local\Temp\ccvRlSjL.s 			page 28


 693 000e 12B2     		sxth	r2, r2
 694 0010 5A43     		muls	r2, r3, r2
 695              	.LVL49:
 696 0012 01E0     		b	.L60
 697              	.LVL50:
 698              	.L59:
 794:Generated_Source\PSoC5/ADC_peak.c ****     }
 795:Generated_Source\PSoC5/ADC_peak.c ****     else
 796:Generated_Source\PSoC5/ADC_peak.c ****     {
 797:Generated_Source\PSoC5/ADC_peak.c ****         countsPer10Volt = ADC_peak_countsPer10Volt;
 699              		.loc 1 797 0
 700 0014 084B     		ldr	r3, .L61+4
 701 0016 1A68     		ldr	r2, [r3]
 702              	.LVL51:
 703              	.L60:
 798:Generated_Source\PSoC5/ADC_peak.c ****     }
 799:Generated_Source\PSoC5/ADC_peak.c **** 
 800:Generated_Source\PSoC5/ADC_peak.c ****     /* Subtract ADC offset */
 801:Generated_Source\PSoC5/ADC_peak.c ****     adcCounts -= ADC_peak_offset;
 704              		.loc 1 801 0
 705 0018 084B     		ldr	r3, .L61+8
 706 001a 1C88     		ldrh	r4, [r3]
 802:Generated_Source\PSoC5/ADC_peak.c ****     /* To convert adcCounts to microVolts it is required to be multiplied
 803:Generated_Source\PSoC5/ADC_peak.c ****     *  on 10 million and later divide on gain in counts per 10V.
 804:Generated_Source\PSoC5/ADC_peak.c ****     */
 805:Generated_Source\PSoC5/ADC_peak.c ****     uVolts = (( (int64)adcCounts * ADC_peak_10UV_COUNTS ) / countsPer10Volt);
 806:Generated_Source\PSoC5/ADC_peak.c **** 
 807:Generated_Source\PSoC5/ADC_peak.c ****     return((int32) uVolts );
 707              		.loc 1 807 0
 708 001c 084B     		ldr	r3, .L61+12
 801:Generated_Source\PSoC5/ADC_peak.c ****     /* To convert adcCounts to microVolts it is required to be multiplied
 709              		.loc 1 801 0
 710 001e 041B     		subs	r4, r0, r4
 711              	.LVL52:
 712              		.loc 1 807 0
 713 0020 24B2     		sxth	r4, r4
 714 0022 A4FB0301 		umull	r0, r1, r4, r3
 715 0026 E517     		asrs	r5, r4, #31
 716 0028 03FB0511 		mla	r1, r3, r5, r1
 717 002c D317     		asrs	r3, r2, #31
 718 002e FFF7FEFF 		bl	__aeabi_ldivmod
 719              	.LVL53:
 808:Generated_Source\PSoC5/ADC_peak.c **** }
 720              		.loc 1 808 0
 721 0032 38BD     		pop	{r3, r4, r5, pc}
 722              	.LVL54:
 723              	.L62:
 724              		.align	2
 725              	.L61:
 726 0034 00000000 		.word	ADC_peak_countsPerVolt
 727 0038 00000000 		.word	ADC_peak_countsPer10Volt
 728 003c 00000000 		.word	ADC_peak_offset
 729 0040 80969800 		.word	10000000
 730              		.cfi_endproc
 731              	.LFE14:
 732              		.size	ADC_peak_CountsTo_uVolts, .-ADC_peak_CountsTo_uVolts
 733              		.global	__aeabi_i2f
ARM GAS  C:\Users\chemi\AppData\Local\Temp\ccvRlSjL.s 			page 29


 734              		.global	__aeabi_fmul
 735              		.global	__aeabi_fdiv
 736              		.section	.text.ADC_peak_CountsTo_Volts,"ax",%progbits
 737              		.align	1
 738              		.global	ADC_peak_CountsTo_Volts
 739              		.thumb
 740              		.thumb_func
 741              		.type	ADC_peak_CountsTo_Volts, %function
 742              	ADC_peak_CountsTo_Volts:
 743              	.LFB15:
 809:Generated_Source\PSoC5/ADC_peak.c **** 
 810:Generated_Source\PSoC5/ADC_peak.c **** 
 811:Generated_Source\PSoC5/ADC_peak.c **** /*******************************************************************************
 812:Generated_Source\PSoC5/ADC_peak.c **** * Function Name: ADC_peak_CountsTo_Volts
 813:Generated_Source\PSoC5/ADC_peak.c **** ********************************************************************************
 814:Generated_Source\PSoC5/ADC_peak.c **** *
 815:Generated_Source\PSoC5/ADC_peak.c **** * Summary:
 816:Generated_Source\PSoC5/ADC_peak.c **** *  Converts the ADC output to volts as a floating-point number.
 817:Generated_Source\PSoC5/ADC_peak.c **** *
 818:Generated_Source\PSoC5/ADC_peak.c **** * Parameters:
 819:Generated_Source\PSoC5/ADC_peak.c **** *  int16 adcCounts: Result from the ADC conversion
 820:Generated_Source\PSoC5/ADC_peak.c **** *
 821:Generated_Source\PSoC5/ADC_peak.c **** * Return:
 822:Generated_Source\PSoC5/ADC_peak.c **** *  float Result in Volts
 823:Generated_Source\PSoC5/ADC_peak.c **** *
 824:Generated_Source\PSoC5/ADC_peak.c **** * Global Variables:
 825:Generated_Source\PSoC5/ADC_peak.c **** *  ADC_peak_offset variable used.
 826:Generated_Source\PSoC5/ADC_peak.c **** *  ADC_peak_countsPer10Volt used to convert ADC counts to Volts.
 827:Generated_Source\PSoC5/ADC_peak.c **** *
 828:Generated_Source\PSoC5/ADC_peak.c **** *******************************************************************************/
 829:Generated_Source\PSoC5/ADC_peak.c **** float32 ADC_peak_CountsTo_Volts(int16 adcCounts)
 830:Generated_Source\PSoC5/ADC_peak.c **** {
 744              		.loc 1 830 0
 745              		.cfi_startproc
 746              		@ args = 0, pretend = 0, frame = 0
 747              		@ frame_needed = 0, uses_anonymous_args = 0
 748              	.LVL55:
 831:Generated_Source\PSoC5/ADC_peak.c ****     float32 volts;
 832:Generated_Source\PSoC5/ADC_peak.c ****     int32 countsPer10Volt;
 833:Generated_Source\PSoC5/ADC_peak.c **** 
 834:Generated_Source\PSoC5/ADC_peak.c ****     if(ADC_peak_countsPerVolt != 0)
 749              		.loc 1 834 0
 750 0000 0E4A     		ldr	r2, .L66
 830:Generated_Source\PSoC5/ADC_peak.c ****     float32 volts;
 751              		.loc 1 830 0
 752 0002 38B5     		push	{r3, r4, r5, lr}
 753              		.cfi_def_cfa_offset 16
 754              		.cfi_offset 3, -16
 755              		.cfi_offset 4, -12
 756              		.cfi_offset 5, -8
 757              		.cfi_offset 14, -4
 758              		.loc 1 834 0
 759 0004 1388     		ldrh	r3, [r2]
 760 0006 1BB2     		sxth	r3, r3
 761 0008 23B1     		cbz	r3, .L64
 835:Generated_Source\PSoC5/ADC_peak.c ****     {   /* Support obsolete method */
 836:Generated_Source\PSoC5/ADC_peak.c ****         countsPer10Volt = (int32)ADC_peak_countsPerVolt * 10;
ARM GAS  C:\Users\chemi\AppData\Local\Temp\ccvRlSjL.s 			page 30


 762              		.loc 1 836 0
 763 000a 1488     		ldrh	r4, [r2]
 764 000c 0A23     		movs	r3, #10
 765 000e 24B2     		sxth	r4, r4
 766 0010 5C43     		muls	r4, r3, r4
 767              	.LVL56:
 768 0012 01E0     		b	.L65
 769              	.LVL57:
 770              	.L64:
 837:Generated_Source\PSoC5/ADC_peak.c ****     }
 838:Generated_Source\PSoC5/ADC_peak.c ****     else
 839:Generated_Source\PSoC5/ADC_peak.c ****     {
 840:Generated_Source\PSoC5/ADC_peak.c ****         countsPer10Volt = ADC_peak_countsPer10Volt;
 771              		.loc 1 840 0
 772 0014 0A4B     		ldr	r3, .L66+4
 773 0016 1C68     		ldr	r4, [r3]
 774              	.LVL58:
 775              	.L65:
 841:Generated_Source\PSoC5/ADC_peak.c ****     }
 842:Generated_Source\PSoC5/ADC_peak.c **** 
 843:Generated_Source\PSoC5/ADC_peak.c ****     /* Subtract ADC offset */
 844:Generated_Source\PSoC5/ADC_peak.c ****     adcCounts -= ADC_peak_offset;
 776              		.loc 1 844 0
 777 0018 0A4B     		ldr	r3, .L66+8
 778 001a 1B88     		ldrh	r3, [r3]
 779 001c C01A     		subs	r0, r0, r3
 780              	.LVL59:
 845:Generated_Source\PSoC5/ADC_peak.c **** 
 846:Generated_Source\PSoC5/ADC_peak.c ****     volts = ((float32)adcCounts * ADC_peak_10V_COUNTS) / (float32)countsPer10Volt;
 847:Generated_Source\PSoC5/ADC_peak.c **** 
 848:Generated_Source\PSoC5/ADC_peak.c ****     return( volts );
 781              		.loc 1 848 0
 782 001e 00B2     		sxth	r0, r0
 783 0020 FFF7FEFF 		bl	__aeabi_i2f
 784              	.LVL60:
 785 0024 0849     		ldr	r1, .L66+12
 786 0026 FFF7FEFF 		bl	__aeabi_fmul
 787              	.LVL61:
 788 002a 0546     		mov	r5, r0
 789 002c 2046     		mov	r0, r4
 790 002e FFF7FEFF 		bl	__aeabi_i2f
 791              	.LVL62:
 792 0032 0146     		mov	r1, r0
 793 0034 2846     		mov	r0, r5
 794 0036 FFF7FEFF 		bl	__aeabi_fdiv
 795              	.LVL63:
 849:Generated_Source\PSoC5/ADC_peak.c **** }
 796              		.loc 1 849 0
 797 003a 38BD     		pop	{r3, r4, r5, pc}
 798              	.LVL64:
 799              	.L67:
 800              		.align	2
 801              	.L66:
 802 003c 00000000 		.word	ADC_peak_countsPerVolt
 803 0040 00000000 		.word	ADC_peak_countsPer10Volt
 804 0044 00000000 		.word	ADC_peak_offset
 805 0048 00002041 		.word	1092616192
ARM GAS  C:\Users\chemi\AppData\Local\Temp\ccvRlSjL.s 			page 31


 806              		.cfi_endproc
 807              	.LFE15:
 808              		.size	ADC_peak_CountsTo_Volts, .-ADC_peak_CountsTo_Volts
 809              		.comm	ADC_peak_shift,2,2
 810              		.comm	ADC_peak_countsPer10Volt,4,4
 811              		.comm	ADC_peak_countsPerVolt,2,2
 812              		.comm	ADC_peak_offset,2,2
 813              		.global	ADC_peak_initVar
 814              		.section	.rodata
 815              		.align	1
 816              		.set	.LANCHOR0,. + 0
 817              		.type	CSWTCH.24, %object
 818              		.size	CSWTCH.24, 10
 819              	CSWTCH.24:
 820 0000 0001     		.short	256
 821 0002 0000     		.short	0
 822 0004 0004     		.short	1024
 823 0006 0000     		.short	0
 824 0008 0010     		.short	4096
 825              		.bss
 826              		.set	.LANCHOR1,. + 0
 827              		.type	ADC_peak_initVar, %object
 828              		.size	ADC_peak_initVar, 1
 829              	ADC_peak_initVar:
 830 0000 00       		.space	1
 831              		.text
 832              	.Letext0:
 833              		.file 2 "Generated_Source\\PSoC5\\cytypes.h"
 834              		.file 3 "Generated_Source\\PSoC5\\CyLib.h"
 835              		.file 4 "Generated_Source\\PSoC5\\ADC_peak_theACLK.h"