ARM GAS  C:\Users\chemi\AppData\Local\Temp\ccksh7Yh.s 			page 1


   1              		.syntax unified
   2              		.cpu cortex-m3
   3              		.fpu softvfp
   4              		.eabi_attribute 20, 1
   5              		.eabi_attribute 21, 1
   6              		.eabi_attribute 23, 3
   7              		.eabi_attribute 24, 1
   8              		.eabi_attribute 25, 1
   9              		.eabi_attribute 26, 1
  10              		.eabi_attribute 30, 4
  11              		.eabi_attribute 34, 1
  12              		.eabi_attribute 18, 4
  13              		.thumb
  14              		.syntax unified
  15              		.file	"ADC_therm.c"
  16              		.text
  17              	.Ltext0:
  18              		.cfi_sections	.debug_frame
  19              		.section	.text.ADC_therm_InitConfig.part.0,"ax",%progbits
  20              		.align	1
  21              		.thumb
  22              		.thumb_func
  23              		.type	ADC_therm_InitConfig.part.0, %function
  24              	ADC_therm_InitConfig.part.0:
  25              	.LFB26:
  26              		.file 1 "Generated_Source\\PSoC5\\ADC_therm.c"
   1:Generated_Source\PSoC5/ADC_therm.c **** /*******************************************************************************
   2:Generated_Source\PSoC5/ADC_therm.c **** * File Name: ADC_therm.c
   3:Generated_Source\PSoC5/ADC_therm.c **** * Version 3.20
   4:Generated_Source\PSoC5/ADC_therm.c **** *
   5:Generated_Source\PSoC5/ADC_therm.c **** * Description:
   6:Generated_Source\PSoC5/ADC_therm.c **** *  This file provides the source code to the API for the Delta-Sigma ADC
   7:Generated_Source\PSoC5/ADC_therm.c **** *  Component.
   8:Generated_Source\PSoC5/ADC_therm.c **** *
   9:Generated_Source\PSoC5/ADC_therm.c **** * Note:
  10:Generated_Source\PSoC5/ADC_therm.c **** *
  11:Generated_Source\PSoC5/ADC_therm.c **** ********************************************************************************
  12:Generated_Source\PSoC5/ADC_therm.c **** * Copyright 2008-2015, Cypress Semiconductor Corporation.  All rights reserved.
  13:Generated_Source\PSoC5/ADC_therm.c **** * You may use this file only in accordance with the license, terms, conditions,
  14:Generated_Source\PSoC5/ADC_therm.c **** * disclaimers, and limitations in the end user license agreement accompanying
  15:Generated_Source\PSoC5/ADC_therm.c **** * the software package with which this file was provided.
  16:Generated_Source\PSoC5/ADC_therm.c **** *******************************************************************************/
  17:Generated_Source\PSoC5/ADC_therm.c **** 
  18:Generated_Source\PSoC5/ADC_therm.c **** #include "ADC_therm.h"
  19:Generated_Source\PSoC5/ADC_therm.c **** 
  20:Generated_Source\PSoC5/ADC_therm.c **** #if(ADC_therm_DEFAULT_INTERNAL_CLK)
  21:Generated_Source\PSoC5/ADC_therm.c ****     #include "ADC_therm_theACLK.h"
  22:Generated_Source\PSoC5/ADC_therm.c **** #endif /* ADC_therm_DEFAULT_INTERNAL_CLK */
  23:Generated_Source\PSoC5/ADC_therm.c **** 
  24:Generated_Source\PSoC5/ADC_therm.c **** #include "ADC_therm_Ext_CP_Clk.h"
  25:Generated_Source\PSoC5/ADC_therm.c **** 
  26:Generated_Source\PSoC5/ADC_therm.c **** #if(ADC_therm_DEFAULT_INPUT_MODE)
  27:Generated_Source\PSoC5/ADC_therm.c ****     #include "ADC_therm_AMux.h"
  28:Generated_Source\PSoC5/ADC_therm.c **** #endif /* ADC_therm_DEFAULT_INPUT_MODE */
  29:Generated_Source\PSoC5/ADC_therm.c **** 
  30:Generated_Source\PSoC5/ADC_therm.c **** 
  31:Generated_Source\PSoC5/ADC_therm.c **** /***************************************
ARM GAS  C:\Users\chemi\AppData\Local\Temp\ccksh7Yh.s 			page 2


  32:Generated_Source\PSoC5/ADC_therm.c **** * Global data allocation
  33:Generated_Source\PSoC5/ADC_therm.c **** ***************************************/
  34:Generated_Source\PSoC5/ADC_therm.c **** 
  35:Generated_Source\PSoC5/ADC_therm.c **** /* Software flag for checking conversion completed or not */
  36:Generated_Source\PSoC5/ADC_therm.c **** volatile uint8 ADC_therm_convDone = 0u;
  37:Generated_Source\PSoC5/ADC_therm.c **** 
  38:Generated_Source\PSoC5/ADC_therm.c **** /* Software flag to stop conversion for single sample conversion mode
  39:Generated_Source\PSoC5/ADC_therm.c **** *   with resolution above 16 bits 
  40:Generated_Source\PSoC5/ADC_therm.c **** */
  41:Generated_Source\PSoC5/ADC_therm.c **** volatile uint8 ADC_therm_stopConversion = 0u;
  42:Generated_Source\PSoC5/ADC_therm.c **** 
  43:Generated_Source\PSoC5/ADC_therm.c **** /* To run the initialization block only at the start up */
  44:Generated_Source\PSoC5/ADC_therm.c **** uint8 ADC_therm_initVar = 0u;
  45:Generated_Source\PSoC5/ADC_therm.c **** 
  46:Generated_Source\PSoC5/ADC_therm.c **** /* To check whether ADC started or not before switching the configuration */
  47:Generated_Source\PSoC5/ADC_therm.c **** volatile uint8 ADC_therm_started = 0u;
  48:Generated_Source\PSoC5/ADC_therm.c **** 
  49:Generated_Source\PSoC5/ADC_therm.c **** /* Flag to hold ADC config number. By default active config is 1. */
  50:Generated_Source\PSoC5/ADC_therm.c **** volatile uint8 ADC_therm_Config = 1u;
  51:Generated_Source\PSoC5/ADC_therm.c **** 
  52:Generated_Source\PSoC5/ADC_therm.c **** volatile int32 ADC_therm_Offset;
  53:Generated_Source\PSoC5/ADC_therm.c **** volatile int32 ADC_therm_CountsPerVolt;
  54:Generated_Source\PSoC5/ADC_therm.c **** 
  55:Generated_Source\PSoC5/ADC_therm.c **** 
  56:Generated_Source\PSoC5/ADC_therm.c **** /***************************************
  57:Generated_Source\PSoC5/ADC_therm.c **** * Local data allocation
  58:Generated_Source\PSoC5/ADC_therm.c **** ***************************************/
  59:Generated_Source\PSoC5/ADC_therm.c **** 
  60:Generated_Source\PSoC5/ADC_therm.c **** /* The array with precalculated gain compensation coefficients */
  61:Generated_Source\PSoC5/ADC_therm.c **** static ADC_therm_GCOR_STRUCT ADC_therm_gcor[ADC_therm_DEFAULT_NUM_CONFIGS];
  62:Generated_Source\PSoC5/ADC_therm.c **** 
  63:Generated_Source\PSoC5/ADC_therm.c **** 
  64:Generated_Source\PSoC5/ADC_therm.c **** 
  65:Generated_Source\PSoC5/ADC_therm.c **** /***************************************
  66:Generated_Source\PSoC5/ADC_therm.c **** * Forward function references
  67:Generated_Source\PSoC5/ADC_therm.c **** ***************************************/
  68:Generated_Source\PSoC5/ADC_therm.c **** static void ADC_therm_InitConfig(uint8 config) ;
  69:Generated_Source\PSoC5/ADC_therm.c **** static void ADC_therm_GainCompensation(uint8 inputRange, uint16 idealDecGain, uint16 idealOddDecGai
  70:Generated_Source\PSoC5/ADC_therm.c ****                             uint8 resolution, uint8 config) ;
  71:Generated_Source\PSoC5/ADC_therm.c **** static void ADC_therm_SetDSMRef0Reg(uint8 value) ;
  72:Generated_Source\PSoC5/ADC_therm.c **** 
  73:Generated_Source\PSoC5/ADC_therm.c **** 
  74:Generated_Source\PSoC5/ADC_therm.c **** /******************************************************************************
  75:Generated_Source\PSoC5/ADC_therm.c **** * Function Name: ADC_therm_Init
  76:Generated_Source\PSoC5/ADC_therm.c **** *******************************************************************************
  77:Generated_Source\PSoC5/ADC_therm.c **** *
  78:Generated_Source\PSoC5/ADC_therm.c **** * Summary:
  79:Generated_Source\PSoC5/ADC_therm.c **** *  Initialize component's parameters to the parameters set by user in the
  80:Generated_Source\PSoC5/ADC_therm.c **** *  customizer of the component placed onto schematic. Usually called in
  81:Generated_Source\PSoC5/ADC_therm.c **** * ADC_therm_Start().
  82:Generated_Source\PSoC5/ADC_therm.c **** *
  83:Generated_Source\PSoC5/ADC_therm.c **** *
  84:Generated_Source\PSoC5/ADC_therm.c **** * Parameters:
  85:Generated_Source\PSoC5/ADC_therm.c **** *  None
  86:Generated_Source\PSoC5/ADC_therm.c **** *
  87:Generated_Source\PSoC5/ADC_therm.c **** * Return:
  88:Generated_Source\PSoC5/ADC_therm.c **** *  None
ARM GAS  C:\Users\chemi\AppData\Local\Temp\ccksh7Yh.s 			page 3


  89:Generated_Source\PSoC5/ADC_therm.c **** *
  90:Generated_Source\PSoC5/ADC_therm.c **** *******************************************************************************/
  91:Generated_Source\PSoC5/ADC_therm.c **** void ADC_therm_Init(void) 
  92:Generated_Source\PSoC5/ADC_therm.c **** {
  93:Generated_Source\PSoC5/ADC_therm.c **** 
  94:Generated_Source\PSoC5/ADC_therm.c ****     ADC_therm_Config = 1u;
  95:Generated_Source\PSoC5/ADC_therm.c ****     ADC_therm_convDone = 0u;
  96:Generated_Source\PSoC5/ADC_therm.c **** 
  97:Generated_Source\PSoC5/ADC_therm.c ****     ADC_therm_Ext_CP_Clk_SetMode(CYCLK_DUTY);
  98:Generated_Source\PSoC5/ADC_therm.c **** 
  99:Generated_Source\PSoC5/ADC_therm.c ****     /* This is only valid if there is an internal clock */
 100:Generated_Source\PSoC5/ADC_therm.c ****     #if(ADC_therm_DEFAULT_INTERNAL_CLK)
 101:Generated_Source\PSoC5/ADC_therm.c ****         ADC_therm_theACLK_SetMode(CYCLK_DUTY);
 102:Generated_Source\PSoC5/ADC_therm.c ****     #endif /* ADC_therm_DEFAULT_INTERNAL_CLK */
 103:Generated_Source\PSoC5/ADC_therm.c **** 
 104:Generated_Source\PSoC5/ADC_therm.c ****     #if(ADC_therm_IRQ_REMOVE == 0u)
 105:Generated_Source\PSoC5/ADC_therm.c ****         /* Set interrupt priority */
 106:Generated_Source\PSoC5/ADC_therm.c ****         CyIntSetPriority(ADC_therm_INTC_NUMBER, ADC_therm_INTC_PRIOR_NUMBER);
 107:Generated_Source\PSoC5/ADC_therm.c ****     #endif   /* End ADC_therm_IRQ_REMOVE */
 108:Generated_Source\PSoC5/ADC_therm.c **** 
 109:Generated_Source\PSoC5/ADC_therm.c ****     /* Init static registers with common configuration */
 110:Generated_Source\PSoC5/ADC_therm.c ****     ADC_therm_DSM_DEM0_REG    = ADC_therm_CFG1_DSM_DEM0;
 111:Generated_Source\PSoC5/ADC_therm.c ****     ADC_therm_DSM_DEM1_REG    = ADC_therm_CFG1_DSM_DEM1;
 112:Generated_Source\PSoC5/ADC_therm.c ****     ADC_therm_DSM_MISC_REG    = ADC_therm_CFG1_DSM_MISC;
 113:Generated_Source\PSoC5/ADC_therm.c ****     ADC_therm_DSM_CLK_REG    |= ADC_therm_CFG1_DSM_CLK;
 114:Generated_Source\PSoC5/ADC_therm.c ****     ADC_therm_DSM_REF1_REG    = ADC_therm_CFG1_DSM_REF1;
 115:Generated_Source\PSoC5/ADC_therm.c **** 
 116:Generated_Source\PSoC5/ADC_therm.c ****     ADC_therm_DSM_OUT0_REG    = ADC_therm_CFG1_DSM_OUT0;
 117:Generated_Source\PSoC5/ADC_therm.c ****     ADC_therm_DSM_OUT1_REG    = ADC_therm_CFG1_DSM_OUT1;
 118:Generated_Source\PSoC5/ADC_therm.c **** 
 119:Generated_Source\PSoC5/ADC_therm.c ****     ADC_therm_DSM_CR0_REG     = ADC_therm_CFG1_DSM_CR0;
 120:Generated_Source\PSoC5/ADC_therm.c ****     ADC_therm_DSM_CR1_REG     = ADC_therm_CFG1_DSM_CR1;
 121:Generated_Source\PSoC5/ADC_therm.c **** #if(ADC_therm_MI_ENABLE != 0u) /* Enable Modulator Input */
 122:Generated_Source\PSoC5/ADC_therm.c ****     ADC_therm_DSM_CR3_REG     |= ADC_therm_DSM_MODBIT_EN;
 123:Generated_Source\PSoC5/ADC_therm.c **** #else
 124:Generated_Source\PSoC5/ADC_therm.c ****     ADC_therm_DSM_CR3_REG     = ADC_therm_CFG1_DSM_CR3;
 125:Generated_Source\PSoC5/ADC_therm.c **** #endif /* ADC_therm_MI_ENABLE != 0u*/    
 126:Generated_Source\PSoC5/ADC_therm.c ****     ADC_therm_DSM_CR8_REG     = ADC_therm_CFG1_DSM_CR8;
 127:Generated_Source\PSoC5/ADC_therm.c ****     ADC_therm_DSM_CR9_REG     = ADC_therm_CFG1_DSM_CR9;
 128:Generated_Source\PSoC5/ADC_therm.c ****     ADC_therm_DSM_CR13_REG    = ADC_therm_CFG1_DSM_CR13;
 129:Generated_Source\PSoC5/ADC_therm.c **** 
 130:Generated_Source\PSoC5/ADC_therm.c ****     ADC_therm_DEC_SR_REG      = ADC_therm_CFG1_DEC_SR;
 131:Generated_Source\PSoC5/ADC_therm.c **** 
 132:Generated_Source\PSoC5/ADC_therm.c ****     /* Calculate Gain compensation coefficients for all configurations */
 133:Generated_Source\PSoC5/ADC_therm.c ****     ADC_therm_GainCompensation(ADC_therm_CFG1_INPUT_RANGE,
 134:Generated_Source\PSoC5/ADC_therm.c ****                                       ADC_therm_CFG1_IDEAL_DEC_GAIN,
 135:Generated_Source\PSoC5/ADC_therm.c ****                                       ADC_therm_CFG1_IDEAL_ODDDEC_GAIN,
 136:Generated_Source\PSoC5/ADC_therm.c ****                                       ADC_therm_CFG1_RESOLUTION,
 137:Generated_Source\PSoC5/ADC_therm.c ****                                       ADC_therm_CFG1);
 138:Generated_Source\PSoC5/ADC_therm.c ****     #if(ADC_therm_DEFAULT_NUM_CONFIGS > 1)
 139:Generated_Source\PSoC5/ADC_therm.c ****         ADC_therm_GainCompensation(ADC_therm_CFG2_INPUT_RANGE,
 140:Generated_Source\PSoC5/ADC_therm.c ****                                           ADC_therm_CFG2_IDEAL_DEC_GAIN,
 141:Generated_Source\PSoC5/ADC_therm.c ****                                           ADC_therm_CFG2_IDEAL_ODDDEC_GAIN,
 142:Generated_Source\PSoC5/ADC_therm.c ****                                           ADC_therm_CFG2_RESOLUTION,
 143:Generated_Source\PSoC5/ADC_therm.c ****                                           ADC_therm_CFG2);
 144:Generated_Source\PSoC5/ADC_therm.c ****     #endif /* ADC_therm_DEFAULT_NUM_CONFIGS > 1 */
 145:Generated_Source\PSoC5/ADC_therm.c ****     #if(ADC_therm_DEFAULT_NUM_CONFIGS > 2)
ARM GAS  C:\Users\chemi\AppData\Local\Temp\ccksh7Yh.s 			page 4


 146:Generated_Source\PSoC5/ADC_therm.c ****         ADC_therm_GainCompensation(ADC_therm_CFG3_INPUT_RANGE,
 147:Generated_Source\PSoC5/ADC_therm.c ****                                           ADC_therm_CFG3_IDEAL_DEC_GAIN,
 148:Generated_Source\PSoC5/ADC_therm.c ****                                           ADC_therm_CFG3_IDEAL_ODDDEC_GAIN,
 149:Generated_Source\PSoC5/ADC_therm.c ****                                           ADC_therm_CFG3_RESOLUTION,
 150:Generated_Source\PSoC5/ADC_therm.c ****                                           ADC_therm_CFG3);
 151:Generated_Source\PSoC5/ADC_therm.c ****     #endif /* ADC_therm_DEFAULT_NUM_CONFIGS > 2 */
 152:Generated_Source\PSoC5/ADC_therm.c ****     #if(ADC_therm_DEFAULT_NUM_CONFIGS > 3)
 153:Generated_Source\PSoC5/ADC_therm.c ****         ADC_therm_GainCompensation(ADC_therm_CFG4_INPUT_RANGE,
 154:Generated_Source\PSoC5/ADC_therm.c ****                                           ADC_therm_CFG4_IDEAL_DEC_GAIN,
 155:Generated_Source\PSoC5/ADC_therm.c ****                                           ADC_therm_CFG4_IDEAL_ODDDEC_GAIN,
 156:Generated_Source\PSoC5/ADC_therm.c ****                                           ADC_therm_CFG4_RESOLUTION,
 157:Generated_Source\PSoC5/ADC_therm.c ****                                           ADC_therm_CFG4);
 158:Generated_Source\PSoC5/ADC_therm.c ****     #endif /* ADC_therm_DEFAULT_NUM_CONFIGS > 3 */
 159:Generated_Source\PSoC5/ADC_therm.c **** 
 160:Generated_Source\PSoC5/ADC_therm.c ****     /* Set GCOR register for config1 */
 161:Generated_Source\PSoC5/ADC_therm.c ****     ADC_therm_DEC_GVAL_REG = ADC_therm_gcor[ADC_therm_Config - 1u].gval;
 162:Generated_Source\PSoC5/ADC_therm.c ****     CY_SET_REG16(ADC_therm_DEC_GCOR_16B_PTR, ADC_therm_gcor[ADC_therm_Config - 1u].gcor);
 163:Generated_Source\PSoC5/ADC_therm.c **** 
 164:Generated_Source\PSoC5/ADC_therm.c ****     /* Initialize the registers with default customizer settings for config1 */
 165:Generated_Source\PSoC5/ADC_therm.c ****     ADC_therm_InitConfig(ADC_therm_Config);
 166:Generated_Source\PSoC5/ADC_therm.c **** }
 167:Generated_Source\PSoC5/ADC_therm.c **** 
 168:Generated_Source\PSoC5/ADC_therm.c **** 
 169:Generated_Source\PSoC5/ADC_therm.c **** /******************************************************************************
 170:Generated_Source\PSoC5/ADC_therm.c **** * Function Name: ADC_therm_Enable
 171:Generated_Source\PSoC5/ADC_therm.c **** *******************************************************************************
 172:Generated_Source\PSoC5/ADC_therm.c **** *
 173:Generated_Source\PSoC5/ADC_therm.c **** * Summary:
 174:Generated_Source\PSoC5/ADC_therm.c **** *  Enables the ADC DelSig block operation.
 175:Generated_Source\PSoC5/ADC_therm.c **** *
 176:Generated_Source\PSoC5/ADC_therm.c **** *
 177:Generated_Source\PSoC5/ADC_therm.c **** * Parameters:
 178:Generated_Source\PSoC5/ADC_therm.c **** *  None
 179:Generated_Source\PSoC5/ADC_therm.c **** *
 180:Generated_Source\PSoC5/ADC_therm.c **** * Return:
 181:Generated_Source\PSoC5/ADC_therm.c **** *  None
 182:Generated_Source\PSoC5/ADC_therm.c **** *
 183:Generated_Source\PSoC5/ADC_therm.c **** *******************************************************************************/
 184:Generated_Source\PSoC5/ADC_therm.c **** void ADC_therm_Enable(void) 
 185:Generated_Source\PSoC5/ADC_therm.c **** {
 186:Generated_Source\PSoC5/ADC_therm.c **** 	uint8 config;
 187:Generated_Source\PSoC5/ADC_therm.c ****     uint8 enableInterrupts;
 188:Generated_Source\PSoC5/ADC_therm.c ****     enableInterrupts = CyEnterCriticalSection();
 189:Generated_Source\PSoC5/ADC_therm.c **** 
 190:Generated_Source\PSoC5/ADC_therm.c ****     /* Read volatile variable to the local variable */
 191:Generated_Source\PSoC5/ADC_therm.c ****     config = ADC_therm_Config;
 192:Generated_Source\PSoC5/ADC_therm.c ****     
 193:Generated_Source\PSoC5/ADC_therm.c ****     /* Enable active mode power for ADC */
 194:Generated_Source\PSoC5/ADC_therm.c ****     ADC_therm_PWRMGR_DEC_REG |= ADC_therm_ACT_PWR_DEC_EN;
 195:Generated_Source\PSoC5/ADC_therm.c ****     ADC_therm_PWRMGR_DSM_REG |= ADC_therm_ACT_PWR_DSM_EN;
 196:Generated_Source\PSoC5/ADC_therm.c **** 
 197:Generated_Source\PSoC5/ADC_therm.c ****      /* Enable alternative active mode power for ADC */
 198:Generated_Source\PSoC5/ADC_therm.c ****     ADC_therm_STBY_PWRMGR_DEC_REG |= ADC_therm_STBY_PWR_DEC_EN;
 199:Generated_Source\PSoC5/ADC_therm.c ****     ADC_therm_STBY_PWRMGR_DSM_REG |= ADC_therm_STBY_PWR_DSM_EN;
 200:Generated_Source\PSoC5/ADC_therm.c **** 
 201:Generated_Source\PSoC5/ADC_therm.c ****     /* Disable PRES, Enable power to VCMBUF0, REFBUF0 and REFBUF1, enable PRES */
 202:Generated_Source\PSoC5/ADC_therm.c ****     ADC_therm_RESET_CR4_REG |= ADC_therm_IGNORE_PRESA1;
ARM GAS  C:\Users\chemi\AppData\Local\Temp\ccksh7Yh.s 			page 5


 203:Generated_Source\PSoC5/ADC_therm.c ****     ADC_therm_RESET_CR5_REG |= ADC_therm_IGNORE_PRESA2;
 204:Generated_Source\PSoC5/ADC_therm.c **** 
 205:Generated_Source\PSoC5/ADC_therm.c ****     ADC_therm_DSM_CR17_REG |= (ADC_therm_DSM_EN_BUF_VREF | ADC_therm_DSM_EN_BUF_VCM);
 206:Generated_Source\PSoC5/ADC_therm.c **** 
 207:Generated_Source\PSoC5/ADC_therm.c ****     /* Code to disable the REFBUF0 if reference chosen is External ref */
 208:Generated_Source\PSoC5/ADC_therm.c ****     #if (((ADC_therm_CFG1_REFERENCE == ADC_therm_EXT_REF_ON_P03) || \
 209:Generated_Source\PSoC5/ADC_therm.c ****           (ADC_therm_CFG1_REFERENCE == ADC_therm_EXT_REF_ON_P32)) || \
 210:Generated_Source\PSoC5/ADC_therm.c ****          ((ADC_therm_DEFAULT_NUM_CONFIGS > 1) && \
 211:Generated_Source\PSoC5/ADC_therm.c ****           ((ADC_therm_CFG2_REFERENCE == ADC_therm_EXT_REF_ON_P03) ||  \
 212:Generated_Source\PSoC5/ADC_therm.c ****            (ADC_therm_CFG2_REFERENCE == ADC_therm_EXT_REF_ON_P32))) || \
 213:Generated_Source\PSoC5/ADC_therm.c ****          ((ADC_therm_DEFAULT_NUM_CONFIGS > 2) && \
 214:Generated_Source\PSoC5/ADC_therm.c ****           ((ADC_therm_CFG3_REFERENCE == ADC_therm_EXT_REF_ON_P03) ||  \
 215:Generated_Source\PSoC5/ADC_therm.c ****            (ADC_therm_CFG3_REFERENCE == ADC_therm_EXT_REF_ON_P32))) || \
 216:Generated_Source\PSoC5/ADC_therm.c ****          ((ADC_therm_DEFAULT_NUM_CONFIGS > 3) && \
 217:Generated_Source\PSoC5/ADC_therm.c ****           ((ADC_therm_CFG4_REFERENCE == ADC_therm_EXT_REF_ON_P03) || \
 218:Generated_Source\PSoC5/ADC_therm.c ****            (ADC_therm_CFG4_REFERENCE == ADC_therm_EXT_REF_ON_P32))))
 219:Generated_Source\PSoC5/ADC_therm.c ****         if (((config == 1u) &&
 220:Generated_Source\PSoC5/ADC_therm.c ****             ((ADC_therm_CFG1_REFERENCE == ADC_therm_EXT_REF_ON_P03) ||
 221:Generated_Source\PSoC5/ADC_therm.c ****              (ADC_therm_CFG1_REFERENCE == ADC_therm_EXT_REF_ON_P32))) ||
 222:Generated_Source\PSoC5/ADC_therm.c ****             ((config == 2u) &&
 223:Generated_Source\PSoC5/ADC_therm.c ****             ((ADC_therm_CFG2_REFERENCE == ADC_therm_EXT_REF_ON_P03) ||
 224:Generated_Source\PSoC5/ADC_therm.c ****              (ADC_therm_CFG2_REFERENCE == ADC_therm_EXT_REF_ON_P32))) ||
 225:Generated_Source\PSoC5/ADC_therm.c ****             ((config == 3u) &&
 226:Generated_Source\PSoC5/ADC_therm.c ****             ((ADC_therm_CFG3_REFERENCE == ADC_therm_EXT_REF_ON_P03) ||
 227:Generated_Source\PSoC5/ADC_therm.c ****              (ADC_therm_CFG3_REFERENCE == ADC_therm_EXT_REF_ON_P32))) ||
 228:Generated_Source\PSoC5/ADC_therm.c ****             ((config == 4u) &&
 229:Generated_Source\PSoC5/ADC_therm.c ****             ((ADC_therm_CFG4_REFERENCE == ADC_therm_EXT_REF_ON_P03) ||
 230:Generated_Source\PSoC5/ADC_therm.c ****              (ADC_therm_CFG4_REFERENCE == ADC_therm_EXT_REF_ON_P32))))
 231:Generated_Source\PSoC5/ADC_therm.c ****         {
 232:Generated_Source\PSoC5/ADC_therm.c ****             /* Disable the REFBUF0 */
 233:Generated_Source\PSoC5/ADC_therm.c ****             ADC_therm_DSM_CR17_REG &= (uint8)~ADC_therm_DSM_EN_BUF_VREF;
 234:Generated_Source\PSoC5/ADC_therm.c ****         }
 235:Generated_Source\PSoC5/ADC_therm.c ****     #endif /* External ref */
 236:Generated_Source\PSoC5/ADC_therm.c **** 
 237:Generated_Source\PSoC5/ADC_therm.c ****     #if (((ADC_therm_CFG1_INPUT_RANGE == ADC_therm_IR_VSSA_TO_2VREF) || \
 238:Generated_Source\PSoC5/ADC_therm.c ****          ((ADC_therm_DEFAULT_NUM_CONFIGS > 1) && \
 239:Generated_Source\PSoC5/ADC_therm.c ****           (ADC_therm_CFG2_INPUT_RANGE == ADC_therm_IR_VSSA_TO_2VREF)) || \
 240:Generated_Source\PSoC5/ADC_therm.c ****          ((ADC_therm_DEFAULT_NUM_CONFIGS > 2) && \
 241:Generated_Source\PSoC5/ADC_therm.c ****           (ADC_therm_CFG3_INPUT_RANGE == ADC_therm_IR_VSSA_TO_2VREF)) || \
 242:Generated_Source\PSoC5/ADC_therm.c ****          ((ADC_therm_DEFAULT_NUM_CONFIGS > 3) && \
 243:Generated_Source\PSoC5/ADC_therm.c ****           (ADC_therm_CFG4_INPUT_RANGE == ADC_therm_IR_VSSA_TO_2VREF))))
 244:Generated_Source\PSoC5/ADC_therm.c ****         if(((config == 1u) &&
 245:Generated_Source\PSoC5/ADC_therm.c ****             (ADC_therm_CFG1_INPUT_RANGE == ADC_therm_IR_VSSA_TO_2VREF) &&
 246:Generated_Source\PSoC5/ADC_therm.c ****             ((ADC_therm_CFG1_REFERENCE != ADC_therm_EXT_REF_ON_P03) &&
 247:Generated_Source\PSoC5/ADC_therm.c ****              (ADC_therm_CFG1_REFERENCE != ADC_therm_EXT_REF_ON_P32))) ||
 248:Generated_Source\PSoC5/ADC_therm.c ****              ((config == 2u) &&
 249:Generated_Source\PSoC5/ADC_therm.c ****               (ADC_therm_CFG2_INPUT_RANGE == ADC_therm_IR_VSSA_TO_2VREF) &&
 250:Generated_Source\PSoC5/ADC_therm.c ****              ((ADC_therm_CFG2_REFERENCE != ADC_therm_EXT_REF_ON_P03) &&
 251:Generated_Source\PSoC5/ADC_therm.c ****              (ADC_therm_CFG2_REFERENCE != ADC_therm_EXT_REF_ON_P32))) ||
 252:Generated_Source\PSoC5/ADC_therm.c ****              ((config == 3u) &&
 253:Generated_Source\PSoC5/ADC_therm.c ****               (ADC_therm_CFG3_INPUT_RANGE == ADC_therm_IR_VSSA_TO_2VREF) &&
 254:Generated_Source\PSoC5/ADC_therm.c ****              ((ADC_therm_CFG3_REFERENCE != ADC_therm_EXT_REF_ON_P03) &&
 255:Generated_Source\PSoC5/ADC_therm.c ****              (ADC_therm_CFG3_REFERENCE != ADC_therm_EXT_REF_ON_P32))) ||
 256:Generated_Source\PSoC5/ADC_therm.c ****              ((config == 4u) &&
 257:Generated_Source\PSoC5/ADC_therm.c ****               (ADC_therm_CFG4_INPUT_RANGE == ADC_therm_IR_VSSA_TO_2VREF) &&
 258:Generated_Source\PSoC5/ADC_therm.c ****              ((ADC_therm_CFG4_REFERENCE != ADC_therm_EXT_REF_ON_P03) &&
 259:Generated_Source\PSoC5/ADC_therm.c ****              (ADC_therm_CFG4_REFERENCE != ADC_therm_EXT_REF_ON_P32))))
ARM GAS  C:\Users\chemi\AppData\Local\Temp\ccksh7Yh.s 			page 6


 260:Generated_Source\PSoC5/ADC_therm.c ****         {
 261:Generated_Source\PSoC5/ADC_therm.c ****             /* Enable the REFBUF1 */
 262:Generated_Source\PSoC5/ADC_therm.c ****             ADC_therm_DSM_REF0_REG |= ADC_therm_DSM_EN_BUF_VREF_INN;
 263:Generated_Source\PSoC5/ADC_therm.c ****         }
 264:Generated_Source\PSoC5/ADC_therm.c ****     #endif /* VSSA_TO_2VREF */
 265:Generated_Source\PSoC5/ADC_therm.c ****     if(config != 0u)
 266:Generated_Source\PSoC5/ADC_therm.c ****     {
 267:Generated_Source\PSoC5/ADC_therm.c ****         /* Suppress compiler warning */
 268:Generated_Source\PSoC5/ADC_therm.c ****     }
 269:Generated_Source\PSoC5/ADC_therm.c **** 
 270:Generated_Source\PSoC5/ADC_therm.c ****     /* Wait for 3 microseconds */
 271:Generated_Source\PSoC5/ADC_therm.c ****     CyDelayUs(ADC_therm_PRES_DELAY_TIME);
 272:Generated_Source\PSoC5/ADC_therm.c **** 
 273:Generated_Source\PSoC5/ADC_therm.c ****     /* Enable the press circuit */
 274:Generated_Source\PSoC5/ADC_therm.c ****     ADC_therm_RESET_CR4_REG &= (uint8)~ADC_therm_IGNORE_PRESA1;
 275:Generated_Source\PSoC5/ADC_therm.c ****     ADC_therm_RESET_CR5_REG &= (uint8)~ADC_therm_IGNORE_PRESA2;
 276:Generated_Source\PSoC5/ADC_therm.c **** 
 277:Generated_Source\PSoC5/ADC_therm.c ****     /* Enable negative pumps for DSM  */
 278:Generated_Source\PSoC5/ADC_therm.c ****     ADC_therm_PUMP_CR1_REG  |= ( ADC_therm_PUMP_CR1_CLKSEL | ADC_therm_PUMP_CR1_FORCE );
 279:Generated_Source\PSoC5/ADC_therm.c **** 
 280:Generated_Source\PSoC5/ADC_therm.c ****     /* Enable Modulator Chopping if required */
 281:Generated_Source\PSoC5/ADC_therm.c ****     ADC_therm_DSM_CR2_REG = ADC_therm_CFG1_DSM_CR2;
 282:Generated_Source\PSoC5/ADC_therm.c **** 
 283:Generated_Source\PSoC5/ADC_therm.c ****     /* This is only valid if there is an internal clock */
 284:Generated_Source\PSoC5/ADC_therm.c ****     #if(ADC_therm_DEFAULT_INTERNAL_CLK)
 285:Generated_Source\PSoC5/ADC_therm.c ****         ADC_therm_PWRMGR_CLK_REG |= ADC_therm_ACT_PWR_CLK_EN;
 286:Generated_Source\PSoC5/ADC_therm.c ****         ADC_therm_STBY_PWRMGR_CLK_REG |= ADC_therm_STBY_PWR_CLK_EN;
 287:Generated_Source\PSoC5/ADC_therm.c ****     #endif /* ADC_therm_DEFAULT_INTERNAL_CLK */
 288:Generated_Source\PSoC5/ADC_therm.c **** 
 289:Generated_Source\PSoC5/ADC_therm.c ****     /* Enable the active and alternate active power for charge pump clock */
 290:Generated_Source\PSoC5/ADC_therm.c ****     ADC_therm_PWRMGR_CHARGE_PUMP_CLK_REG |= ADC_therm_ACT_PWR_CHARGE_PUMP_CLK_EN;
 291:Generated_Source\PSoC5/ADC_therm.c ****     ADC_therm_STBY_PWRMGR_CHARGE_PUMP_CLK_REG |= ADC_therm_STBY_PWR_CHARGE_PUMP_CLK_EN;
 292:Generated_Source\PSoC5/ADC_therm.c **** 
 293:Generated_Source\PSoC5/ADC_therm.c ****     #if(ADC_therm_IRQ_REMOVE == 0u)
 294:Generated_Source\PSoC5/ADC_therm.c ****         /* Clear a pending interrupt */
 295:Generated_Source\PSoC5/ADC_therm.c ****         CyIntClearPending(ADC_therm_INTC_NUMBER);
 296:Generated_Source\PSoC5/ADC_therm.c ****         /* Enable interrupt */
 297:Generated_Source\PSoC5/ADC_therm.c ****         CyIntEnable(ADC_therm_INTC_NUMBER);
 298:Generated_Source\PSoC5/ADC_therm.c ****     #endif   /* End ADC_therm_IRQ_REMOVE */
 299:Generated_Source\PSoC5/ADC_therm.c **** 
 300:Generated_Source\PSoC5/ADC_therm.c ****     CyExitCriticalSection(enableInterrupts);
 301:Generated_Source\PSoC5/ADC_therm.c **** 
 302:Generated_Source\PSoC5/ADC_therm.c **** }
 303:Generated_Source\PSoC5/ADC_therm.c **** 
 304:Generated_Source\PSoC5/ADC_therm.c **** 
 305:Generated_Source\PSoC5/ADC_therm.c **** /*******************************************************************************
 306:Generated_Source\PSoC5/ADC_therm.c **** * Function Name: ADC_therm_Start
 307:Generated_Source\PSoC5/ADC_therm.c **** ********************************************************************************
 308:Generated_Source\PSoC5/ADC_therm.c **** *
 309:Generated_Source\PSoC5/ADC_therm.c **** * Summary:
 310:Generated_Source\PSoC5/ADC_therm.c **** *  Performs all required initialization for this component and enables
 311:Generated_Source\PSoC5/ADC_therm.c **** *  the power. It configure all the register the first time it is called.
 312:Generated_Source\PSoC5/ADC_therm.c **** *  Subsequent calls of the Start function only enable the ADC and turn
 313:Generated_Source\PSoC5/ADC_therm.c **** *  on the power. If multiple configurations are selected, it will
 314:Generated_Source\PSoC5/ADC_therm.c **** *  configure the ADC for configuration 1 by default, unless the
 315:Generated_Source\PSoC5/ADC_therm.c **** *  ADC_therm_SelectConfiguration( ) function has been called to change
 316:Generated_Source\PSoC5/ADC_therm.c **** *  the default setting.
ARM GAS  C:\Users\chemi\AppData\Local\Temp\ccksh7Yh.s 			page 7


 317:Generated_Source\PSoC5/ADC_therm.c **** *
 318:Generated_Source\PSoC5/ADC_therm.c **** * Parameters:
 319:Generated_Source\PSoC5/ADC_therm.c **** *  None
 320:Generated_Source\PSoC5/ADC_therm.c **** *
 321:Generated_Source\PSoC5/ADC_therm.c **** * Return:
 322:Generated_Source\PSoC5/ADC_therm.c **** *  None
 323:Generated_Source\PSoC5/ADC_therm.c **** *
 324:Generated_Source\PSoC5/ADC_therm.c **** * Global variables:
 325:Generated_Source\PSoC5/ADC_therm.c **** *  ADC_therm_initVar:  Used to check the initial configuration,
 326:Generated_Source\PSoC5/ADC_therm.c **** *  modified when this function is called for the first time.
 327:Generated_Source\PSoC5/ADC_therm.c **** *
 328:Generated_Source\PSoC5/ADC_therm.c **** *******************************************************************************/
 329:Generated_Source\PSoC5/ADC_therm.c **** void ADC_therm_Start(void) 
 330:Generated_Source\PSoC5/ADC_therm.c **** {
 331:Generated_Source\PSoC5/ADC_therm.c ****     if(ADC_therm_initVar == 0u)
 332:Generated_Source\PSoC5/ADC_therm.c ****     {
 333:Generated_Source\PSoC5/ADC_therm.c ****         if(ADC_therm_started == 0u)
 334:Generated_Source\PSoC5/ADC_therm.c ****         {
 335:Generated_Source\PSoC5/ADC_therm.c ****             ADC_therm_Init();
 336:Generated_Source\PSoC5/ADC_therm.c ****         }
 337:Generated_Source\PSoC5/ADC_therm.c ****         ADC_therm_initVar = 1u;
 338:Generated_Source\PSoC5/ADC_therm.c ****     }
 339:Generated_Source\PSoC5/ADC_therm.c **** 
 340:Generated_Source\PSoC5/ADC_therm.c ****     /* Enable the ADC */
 341:Generated_Source\PSoC5/ADC_therm.c ****     ADC_therm_Enable();
 342:Generated_Source\PSoC5/ADC_therm.c **** }
 343:Generated_Source\PSoC5/ADC_therm.c **** 
 344:Generated_Source\PSoC5/ADC_therm.c **** 
 345:Generated_Source\PSoC5/ADC_therm.c **** /*******************************************************************************
 346:Generated_Source\PSoC5/ADC_therm.c **** * Function Name: ADC_therm_Stop
 347:Generated_Source\PSoC5/ADC_therm.c **** ********************************************************************************
 348:Generated_Source\PSoC5/ADC_therm.c **** *
 349:Generated_Source\PSoC5/ADC_therm.c **** * Summary:
 350:Generated_Source\PSoC5/ADC_therm.c **** *  This function stops and powers down the ADC component and the internal
 351:Generated_Source\PSoC5/ADC_therm.c **** *  clock if the external clock is not selected. If an external clock is
 352:Generated_Source\PSoC5/ADC_therm.c **** *  used, it is up to the designer to power down the external clock it
 353:Generated_Source\PSoC5/ADC_therm.c **** *  required.
 354:Generated_Source\PSoC5/ADC_therm.c **** *
 355:Generated_Source\PSoC5/ADC_therm.c **** * Parameters:
 356:Generated_Source\PSoC5/ADC_therm.c **** *  None
 357:Generated_Source\PSoC5/ADC_therm.c **** *
 358:Generated_Source\PSoC5/ADC_therm.c **** * Return:
 359:Generated_Source\PSoC5/ADC_therm.c **** *  None
 360:Generated_Source\PSoC5/ADC_therm.c **** *
 361:Generated_Source\PSoC5/ADC_therm.c **** *******************************************************************************/
 362:Generated_Source\PSoC5/ADC_therm.c **** void ADC_therm_Stop(void) 
 363:Generated_Source\PSoC5/ADC_therm.c **** {
 364:Generated_Source\PSoC5/ADC_therm.c ****     uint8 enableInterrupts;
 365:Generated_Source\PSoC5/ADC_therm.c ****     enableInterrupts = CyEnterCriticalSection();
 366:Generated_Source\PSoC5/ADC_therm.c **** 
 367:Generated_Source\PSoC5/ADC_therm.c ****     /* Stop conversions */
 368:Generated_Source\PSoC5/ADC_therm.c ****     ADC_therm_DEC_CR_REG &= (uint8)~ADC_therm_DEC_START_CONV;
 369:Generated_Source\PSoC5/ADC_therm.c ****     ADC_therm_DEC_SR_REG |=  ADC_therm_DEC_INTR_CLEAR;
 370:Generated_Source\PSoC5/ADC_therm.c **** 
 371:Generated_Source\PSoC5/ADC_therm.c ****     /* Disable PRES, Disable power to VCMBUF0, REFBUF0 and REFBUF1,
 372:Generated_Source\PSoC5/ADC_therm.c ****        enable PRES */
 373:Generated_Source\PSoC5/ADC_therm.c ****     ADC_therm_RESET_CR4_REG |= ADC_therm_IGNORE_PRESA1;
ARM GAS  C:\Users\chemi\AppData\Local\Temp\ccksh7Yh.s 			page 8


 374:Generated_Source\PSoC5/ADC_therm.c ****     ADC_therm_RESET_CR5_REG |= ADC_therm_IGNORE_PRESA2;
 375:Generated_Source\PSoC5/ADC_therm.c **** 
 376:Generated_Source\PSoC5/ADC_therm.c ****     ADC_therm_DSM_CR17_REG &= (uint8)~(ADC_therm_DSM_EN_BUF_VREF | ADC_therm_DSM_EN_BUF_VCM);
 377:Generated_Source\PSoC5/ADC_therm.c ****     ADC_therm_DSM_REF0_REG &= (uint8)~ADC_therm_DSM_EN_BUF_VREF_INN;
 378:Generated_Source\PSoC5/ADC_therm.c **** 
 379:Generated_Source\PSoC5/ADC_therm.c ****     /* Wait for 3 microseconds. */
 380:Generated_Source\PSoC5/ADC_therm.c ****     CyDelayUs(ADC_therm_PRES_DELAY_TIME);
 381:Generated_Source\PSoC5/ADC_therm.c **** 
 382:Generated_Source\PSoC5/ADC_therm.c ****     /* Enable the press circuit */
 383:Generated_Source\PSoC5/ADC_therm.c ****     ADC_therm_RESET_CR4_REG &= (uint8)~ADC_therm_IGNORE_PRESA1;
 384:Generated_Source\PSoC5/ADC_therm.c ****     ADC_therm_RESET_CR5_REG &= (uint8)~ADC_therm_IGNORE_PRESA2;
 385:Generated_Source\PSoC5/ADC_therm.c **** 
 386:Generated_Source\PSoC5/ADC_therm.c ****     /* Disable power to the ADC */
 387:Generated_Source\PSoC5/ADC_therm.c ****     ADC_therm_PWRMGR_DSM_REG &= (uint8)~ADC_therm_ACT_PWR_DSM_EN;
 388:Generated_Source\PSoC5/ADC_therm.c **** 
 389:Generated_Source\PSoC5/ADC_therm.c ****     /* Disable power to Decimator block */
 390:Generated_Source\PSoC5/ADC_therm.c ****     ADC_therm_PWRMGR_DEC_REG &= (uint8)~ADC_therm_ACT_PWR_DEC_EN;
 391:Generated_Source\PSoC5/ADC_therm.c **** 
 392:Generated_Source\PSoC5/ADC_therm.c ****     /* Disable alternative active power to the ADC */
 393:Generated_Source\PSoC5/ADC_therm.c ****     ADC_therm_STBY_PWRMGR_DEC_REG &= (uint8)~ADC_therm_STBY_PWR_DEC_EN;
 394:Generated_Source\PSoC5/ADC_therm.c ****     ADC_therm_STBY_PWRMGR_DSM_REG &= (uint8)~ADC_therm_STBY_PWR_DSM_EN;
 395:Generated_Source\PSoC5/ADC_therm.c **** 
 396:Generated_Source\PSoC5/ADC_therm.c ****    /* Disable negative pumps for DSM  */
 397:Generated_Source\PSoC5/ADC_therm.c ****     ADC_therm_PUMP_CR1_REG &= (uint8)~(ADC_therm_PUMP_CR1_CLKSEL | ADC_therm_PUMP_CR1_FORCE );
 398:Generated_Source\PSoC5/ADC_therm.c **** 
 399:Generated_Source\PSoC5/ADC_therm.c ****     /* This is only valid if there is an internal clock */
 400:Generated_Source\PSoC5/ADC_therm.c ****     #if(ADC_therm_DEFAULT_INTERNAL_CLK)
 401:Generated_Source\PSoC5/ADC_therm.c ****         ADC_therm_PWRMGR_CLK_REG &= (uint8)~ADC_therm_ACT_PWR_CLK_EN;
 402:Generated_Source\PSoC5/ADC_therm.c ****         ADC_therm_STBY_PWRMGR_CLK_REG &= (uint8)~ADC_therm_STBY_PWR_CLK_EN;
 403:Generated_Source\PSoC5/ADC_therm.c ****     #endif /* ADC_therm_DEFAULT_INTERNAL_CLK */
 404:Generated_Source\PSoC5/ADC_therm.c **** 
 405:Generated_Source\PSoC5/ADC_therm.c ****     /* Disable Modulator Chopping */
 406:Generated_Source\PSoC5/ADC_therm.c ****     ADC_therm_DSM_CR2_REG &= (uint8)~ADC_therm_DSM_MOD_CHOP_EN;
 407:Generated_Source\PSoC5/ADC_therm.c ****     /* Disable power to charge pump clock */
 408:Generated_Source\PSoC5/ADC_therm.c ****     ADC_therm_PWRMGR_CHARGE_PUMP_CLK_REG &= (uint8)~ADC_therm_ACT_PWR_CHARGE_PUMP_CLK_EN;
 409:Generated_Source\PSoC5/ADC_therm.c ****     ADC_therm_STBY_PWRMGR_CHARGE_PUMP_CLK_REG &= (uint8)~ADC_therm_STBY_PWR_CHARGE_PUMP_CLK_EN;
 410:Generated_Source\PSoC5/ADC_therm.c ****     
 411:Generated_Source\PSoC5/ADC_therm.c ****     CyExitCriticalSection(enableInterrupts);
 412:Generated_Source\PSoC5/ADC_therm.c **** }
 413:Generated_Source\PSoC5/ADC_therm.c **** 
 414:Generated_Source\PSoC5/ADC_therm.c **** 
 415:Generated_Source\PSoC5/ADC_therm.c **** /*******************************************************************************
 416:Generated_Source\PSoC5/ADC_therm.c **** * Function Name: ADC_therm_SetBufferGain
 417:Generated_Source\PSoC5/ADC_therm.c **** ********************************************************************************
 418:Generated_Source\PSoC5/ADC_therm.c **** *
 419:Generated_Source\PSoC5/ADC_therm.c **** * Summary:
 420:Generated_Source\PSoC5/ADC_therm.c **** *  Sets input buffer gain.
 421:Generated_Source\PSoC5/ADC_therm.c **** *
 422:Generated_Source\PSoC5/ADC_therm.c **** * Parameters:
 423:Generated_Source\PSoC5/ADC_therm.c **** *  gain:  Two bit value to select a gain of 1, 2, 4, or 8.
 424:Generated_Source\PSoC5/ADC_therm.c **** *
 425:Generated_Source\PSoC5/ADC_therm.c **** * Return:
 426:Generated_Source\PSoC5/ADC_therm.c **** *  None
 427:Generated_Source\PSoC5/ADC_therm.c **** *
 428:Generated_Source\PSoC5/ADC_therm.c **** *******************************************************************************/
 429:Generated_Source\PSoC5/ADC_therm.c **** void ADC_therm_SetBufferGain(uint8 gain) 
 430:Generated_Source\PSoC5/ADC_therm.c **** {
ARM GAS  C:\Users\chemi\AppData\Local\Temp\ccksh7Yh.s 			page 9


 431:Generated_Source\PSoC5/ADC_therm.c ****     uint8 tmpReg;
 432:Generated_Source\PSoC5/ADC_therm.c ****     tmpReg = ADC_therm_DSM_BUF1_REG & (uint8)~ADC_therm_DSM_GAIN_MASK;
 433:Generated_Source\PSoC5/ADC_therm.c ****     tmpReg |= (uint8)(gain << ADC_therm_DSM_GAIN_SHIFT) & ADC_therm_DSM_GAIN_MASK;
 434:Generated_Source\PSoC5/ADC_therm.c ****     ADC_therm_DSM_BUF1_REG = tmpReg;
 435:Generated_Source\PSoC5/ADC_therm.c **** }
 436:Generated_Source\PSoC5/ADC_therm.c **** 
 437:Generated_Source\PSoC5/ADC_therm.c **** 
 438:Generated_Source\PSoC5/ADC_therm.c **** /*******************************************************************************
 439:Generated_Source\PSoC5/ADC_therm.c **** * Function Name: ADC_therm_SetCoherency
 440:Generated_Source\PSoC5/ADC_therm.c **** ********************************************************************************
 441:Generated_Source\PSoC5/ADC_therm.c **** *
 442:Generated_Source\PSoC5/ADC_therm.c **** * Summary:
 443:Generated_Source\PSoC5/ADC_therm.c **** *  This function allows the user to change which of the ADC's 3 word
 444:Generated_Source\PSoC5/ADC_therm.c **** *  result will trigger a coherency unlock. The ADC's result will not be
 445:Generated_Source\PSoC5/ADC_therm.c **** *  updated until the set byte is read either by the ADC or DMA. 
 446:Generated_Source\PSoC5/ADC_therm.c **** *  By default the LSB is the coherency byte for right alignment data format. 
 447:Generated_Source\PSoC5/ADC_therm.c **** *  The middle or high byte is set automatically depend on left alignment 
 448:Generated_Source\PSoC5/ADC_therm.c **** *  configuration for DMA data transfer.
 449:Generated_Source\PSoC5/ADC_therm.c **** *  If DMA or if a custom API requires different byte to be read the last,
 450:Generated_Source\PSoC5/ADC_therm.c **** *  this API should be used to set the last byte of the ADC result that is read. 
 451:Generated_Source\PSoC5/ADC_therm.c **** *  If a multibyte read is performed either by DMA or the ARM processor, the
 452:Generated_Source\PSoC5/ADC_therm.c **** *  coherency can be set to any byte in the last word read.
 453:Generated_Source\PSoC5/ADC_therm.c **** *
 454:Generated_Source\PSoC5/ADC_therm.c **** * Parameters:
 455:Generated_Source\PSoC5/ADC_therm.c **** *  coherency:  Two bit value to set the coherency bit.
 456:Generated_Source\PSoC5/ADC_therm.c **** *           00-Coherency checking off
 457:Generated_Source\PSoC5/ADC_therm.c **** *           01-low byte is key byte
 458:Generated_Source\PSoC5/ADC_therm.c **** *           02-middle byte is the key byte
 459:Generated_Source\PSoC5/ADC_therm.c **** *           03-high byte is the key byte
 460:Generated_Source\PSoC5/ADC_therm.c **** *
 461:Generated_Source\PSoC5/ADC_therm.c **** * Return:
 462:Generated_Source\PSoC5/ADC_therm.c **** *  None
 463:Generated_Source\PSoC5/ADC_therm.c **** *
 464:Generated_Source\PSoC5/ADC_therm.c **** *******************************************************************************/
 465:Generated_Source\PSoC5/ADC_therm.c **** void ADC_therm_SetCoherency(uint8 coherency) 
 466:Generated_Source\PSoC5/ADC_therm.c **** {
 467:Generated_Source\PSoC5/ADC_therm.c ****     uint8 tmpReg;
 468:Generated_Source\PSoC5/ADC_therm.c **** 
 469:Generated_Source\PSoC5/ADC_therm.c ****     tmpReg = ADC_therm_DEC_COHER_REG & (uint8)~ADC_therm_DEC_SAMP_KEY_MASK;
 470:Generated_Source\PSoC5/ADC_therm.c ****     tmpReg |= coherency & ADC_therm_DEC_SAMP_KEY_MASK;
 471:Generated_Source\PSoC5/ADC_therm.c ****     ADC_therm_DEC_COHER_REG = tmpReg;
 472:Generated_Source\PSoC5/ADC_therm.c **** }
 473:Generated_Source\PSoC5/ADC_therm.c **** 
 474:Generated_Source\PSoC5/ADC_therm.c **** 
 475:Generated_Source\PSoC5/ADC_therm.c **** /*******************************************************************************
 476:Generated_Source\PSoC5/ADC_therm.c **** * Function Name: ADC_therm_SetGCOR
 477:Generated_Source\PSoC5/ADC_therm.c **** ********************************************************************************
 478:Generated_Source\PSoC5/ADC_therm.c **** *
 479:Generated_Source\PSoC5/ADC_therm.c **** * Summary:
 480:Generated_Source\PSoC5/ADC_therm.c **** *  Calculates a new GCOR value and writes it into the GCOR register. 
 481:Generated_Source\PSoC5/ADC_therm.c **** *  The GCOR value is a 16-bit value that represents a gain of 0 to 2. 
 482:Generated_Source\PSoC5/ADC_therm.c **** *  The ADC result is multiplied by this value before it is placed in the ADC 
 483:Generated_Source\PSoC5/ADC_therm.c **** *  output registers. The numerical format for the GCOR value is:
 484:Generated_Source\PSoC5/ADC_therm.c **** *  0x0000 -> 0.000
 485:Generated_Source\PSoC5/ADC_therm.c **** *  0x8000 -> 1.000
 486:Generated_Source\PSoC5/ADC_therm.c **** *  0xFFFF -> 1.99997
 487:Generated_Source\PSoC5/ADC_therm.c **** *  When executing the function, the old GCOR value is multiplied by
ARM GAS  C:\Users\chemi\AppData\Local\Temp\ccksh7Yh.s 			page 10


 488:Generated_Source\PSoC5/ADC_therm.c **** *  gainAdjust and reloaded into the GCOR register.
 489:Generated_Source\PSoC5/ADC_therm.c **** *
 490:Generated_Source\PSoC5/ADC_therm.c **** * Parameters:
 491:Generated_Source\PSoC5/ADC_therm.c **** *  gainAdjust:  floating point value to set GCOR registers.
 492:Generated_Source\PSoC5/ADC_therm.c **** *
 493:Generated_Source\PSoC5/ADC_therm.c **** * Return:
 494:Generated_Source\PSoC5/ADC_therm.c **** *  uint8: 0 - if GCOR value is within the expected range.
 495:Generated_Source\PSoC5/ADC_therm.c **** *         1 - the correction value is outside GCOR value range of
 496:Generated_Source\PSoC5/ADC_therm.c **** *             0.00 to 1.9999.
 497:Generated_Source\PSoC5/ADC_therm.c **** *
 498:Generated_Source\PSoC5/ADC_therm.c **** * Side Effects:  The GVAL register is set to the amount of valid bits in the
 499:Generated_Source\PSoC5/ADC_therm.c **** *                GCOR  register minus one. If GVAL is 15 (0x0F), all 16 bits
 500:Generated_Source\PSoC5/ADC_therm.c **** *                of the GCOR registers will be valid. If for example GVAL is
 501:Generated_Source\PSoC5/ADC_therm.c **** *                11 (0x0B) only 12 bits will be valid. The least 4 bits will
 502:Generated_Source\PSoC5/ADC_therm.c **** *                be lost when the GCOR value is shifted 4 places to the right.
 503:Generated_Source\PSoC5/ADC_therm.c **** *
 504:Generated_Source\PSoC5/ADC_therm.c **** ******************************************************************************/
 505:Generated_Source\PSoC5/ADC_therm.c **** uint8 ADC_therm_SetGCOR(float32 gainAdjust) 
 506:Generated_Source\PSoC5/ADC_therm.c **** {
 507:Generated_Source\PSoC5/ADC_therm.c ****     uint16 tmpReg;
 508:Generated_Source\PSoC5/ADC_therm.c ****     uint8 status;
 509:Generated_Source\PSoC5/ADC_therm.c ****     float32 tmpValue;
 510:Generated_Source\PSoC5/ADC_therm.c **** 
 511:Generated_Source\PSoC5/ADC_therm.c ****     tmpReg = ADC_therm_gcor[ADC_therm_Config - 1u].gcor;
 512:Generated_Source\PSoC5/ADC_therm.c ****     tmpValue = ((float32)tmpReg / (float32)ADC_therm_IDEAL_GAIN_CONST);
 513:Generated_Source\PSoC5/ADC_therm.c ****     tmpValue = tmpValue * gainAdjust;
 514:Generated_Source\PSoC5/ADC_therm.c **** 
 515:Generated_Source\PSoC5/ADC_therm.c ****     if (tmpValue > 1.9999)
 516:Generated_Source\PSoC5/ADC_therm.c ****     {
 517:Generated_Source\PSoC5/ADC_therm.c ****         status = 1u;
 518:Generated_Source\PSoC5/ADC_therm.c ****     }
 519:Generated_Source\PSoC5/ADC_therm.c ****     else
 520:Generated_Source\PSoC5/ADC_therm.c ****     {
 521:Generated_Source\PSoC5/ADC_therm.c ****         tmpValue *= (float32)ADC_therm_IDEAL_GAIN_CONST;
 522:Generated_Source\PSoC5/ADC_therm.c **** 		tmpReg = (uint16)tmpValue;
 523:Generated_Source\PSoC5/ADC_therm.c ****         CY_SET_REG16(ADC_therm_DEC_GCOR_16B_PTR, tmpReg);
 524:Generated_Source\PSoC5/ADC_therm.c ****         /* Update gain array to be used by SelectConfiguration() API */
 525:Generated_Source\PSoC5/ADC_therm.c ****        ADC_therm_gcor[ADC_therm_Config - 1u].gcor = tmpReg;
 526:Generated_Source\PSoC5/ADC_therm.c **** 
 527:Generated_Source\PSoC5/ADC_therm.c ****         status = 0u;
 528:Generated_Source\PSoC5/ADC_therm.c **** 
 529:Generated_Source\PSoC5/ADC_therm.c ****     }
 530:Generated_Source\PSoC5/ADC_therm.c ****     return(status);
 531:Generated_Source\PSoC5/ADC_therm.c **** }
 532:Generated_Source\PSoC5/ADC_therm.c **** 
 533:Generated_Source\PSoC5/ADC_therm.c **** 
 534:Generated_Source\PSoC5/ADC_therm.c **** /******************************************************************************
 535:Generated_Source\PSoC5/ADC_therm.c **** * Function Name: ADC_therm_ReadGCOR
 536:Generated_Source\PSoC5/ADC_therm.c **** *******************************************************************************
 537:Generated_Source\PSoC5/ADC_therm.c **** *
 538:Generated_Source\PSoC5/ADC_therm.c **** * Summary:
 539:Generated_Source\PSoC5/ADC_therm.c **** *  This API returns the current GCOR register value, normalized based on the
 540:Generated_Source\PSoC5/ADC_therm.c **** *  GVAL register settings.
 541:Generated_Source\PSoC5/ADC_therm.c **** *  For example, if the GCOR value is 0x0812 and the GVAL register is set to 
 542:Generated_Source\PSoC5/ADC_therm.c **** *  11 (0x0B) then the returned value will be shifted by for bits to the left.
 543:Generated_Source\PSoC5/ADC_therm.c **** *  (Actual GCOR value = 0x0812, returned value = 0x8120)
 544:Generated_Source\PSoC5/ADC_therm.c **** *
ARM GAS  C:\Users\chemi\AppData\Local\Temp\ccksh7Yh.s 			page 11


 545:Generated_Source\PSoC5/ADC_therm.c **** * Parameters:
 546:Generated_Source\PSoC5/ADC_therm.c **** *  None
 547:Generated_Source\PSoC5/ADC_therm.c **** *
 548:Generated_Source\PSoC5/ADC_therm.c **** * Return:
 549:Generated_Source\PSoC5/ADC_therm.c **** *  uint16:  Normalized GCOR value.
 550:Generated_Source\PSoC5/ADC_therm.c **** *
 551:Generated_Source\PSoC5/ADC_therm.c **** *******************************************************************************/
 552:Generated_Source\PSoC5/ADC_therm.c **** uint16 ADC_therm_ReadGCOR(void) 
 553:Generated_Source\PSoC5/ADC_therm.c **** {
 554:Generated_Source\PSoC5/ADC_therm.c ****     uint8 gValue;
 555:Generated_Source\PSoC5/ADC_therm.c ****     uint16 gcorValue;
 556:Generated_Source\PSoC5/ADC_therm.c **** 
 557:Generated_Source\PSoC5/ADC_therm.c ****     gValue = ADC_therm_DEC_GVAL_REG;
 558:Generated_Source\PSoC5/ADC_therm.c ****     gcorValue = CY_GET_REG16(ADC_therm_DEC_GCOR_16B_PTR);
 559:Generated_Source\PSoC5/ADC_therm.c **** 
 560:Generated_Source\PSoC5/ADC_therm.c ****     if (gValue < ADC_therm_MAX_GVAL)
 561:Generated_Source\PSoC5/ADC_therm.c ****     {
 562:Generated_Source\PSoC5/ADC_therm.c ****         gcorValue <<= ADC_therm_MAX_GVAL - gValue;
 563:Generated_Source\PSoC5/ADC_therm.c ****     }
 564:Generated_Source\PSoC5/ADC_therm.c **** 
 565:Generated_Source\PSoC5/ADC_therm.c ****     return gcorValue;
 566:Generated_Source\PSoC5/ADC_therm.c **** }
 567:Generated_Source\PSoC5/ADC_therm.c **** 
 568:Generated_Source\PSoC5/ADC_therm.c **** 
 569:Generated_Source\PSoC5/ADC_therm.c **** /*******************************************************************************
 570:Generated_Source\PSoC5/ADC_therm.c **** * Function Name: ADC_therm_StartConvert
 571:Generated_Source\PSoC5/ADC_therm.c **** ********************************************************************************
 572:Generated_Source\PSoC5/ADC_therm.c **** *
 573:Generated_Source\PSoC5/ADC_therm.c **** * Summary:
 574:Generated_Source\PSoC5/ADC_therm.c **** *  Forces the ADC to initiate a conversion. If in the "Single Sample"
 575:Generated_Source\PSoC5/ADC_therm.c **** *  mode, one conversion will be performed then the ADC will halt. If in
 576:Generated_Source\PSoC5/ADC_therm.c **** *  one of the other three conversion modes, the ADC will run
 577:Generated_Source\PSoC5/ADC_therm.c **** *  continuously until the ADC_Stop() or ADC_StopConvert() is called.
 578:Generated_Source\PSoC5/ADC_therm.c **** *
 579:Generated_Source\PSoC5/ADC_therm.c **** * Parameters:
 580:Generated_Source\PSoC5/ADC_therm.c **** *  None
 581:Generated_Source\PSoC5/ADC_therm.c **** *
 582:Generated_Source\PSoC5/ADC_therm.c **** * Return:
 583:Generated_Source\PSoC5/ADC_therm.c **** *  None
 584:Generated_Source\PSoC5/ADC_therm.c **** *
 585:Generated_Source\PSoC5/ADC_therm.c **** *******************************************************************************/
 586:Generated_Source\PSoC5/ADC_therm.c **** void ADC_therm_StartConvert(void) 
 587:Generated_Source\PSoC5/ADC_therm.c **** {
 588:Generated_Source\PSoC5/ADC_therm.c ****     /* Start the conversion */
 589:Generated_Source\PSoC5/ADC_therm.c ****     ADC_therm_DEC_CR_REG |= ADC_therm_DEC_START_CONV;
 590:Generated_Source\PSoC5/ADC_therm.c **** }
 591:Generated_Source\PSoC5/ADC_therm.c **** 
 592:Generated_Source\PSoC5/ADC_therm.c **** 
 593:Generated_Source\PSoC5/ADC_therm.c **** /*******************************************************************************
 594:Generated_Source\PSoC5/ADC_therm.c **** * Function Name: ADC_therm_StopConvert
 595:Generated_Source\PSoC5/ADC_therm.c **** ********************************************************************************
 596:Generated_Source\PSoC5/ADC_therm.c **** *
 597:Generated_Source\PSoC5/ADC_therm.c **** * Summary:
 598:Generated_Source\PSoC5/ADC_therm.c **** *  Forces the ADC to stop all conversions. If the ADC is in the middle of a
 599:Generated_Source\PSoC5/ADC_therm.c **** *  conversion, the ADC will be reset and not provide a result for that partial
 600:Generated_Source\PSoC5/ADC_therm.c **** *  conversion.
 601:Generated_Source\PSoC5/ADC_therm.c **** *
ARM GAS  C:\Users\chemi\AppData\Local\Temp\ccksh7Yh.s 			page 12


 602:Generated_Source\PSoC5/ADC_therm.c **** * Parameters:
 603:Generated_Source\PSoC5/ADC_therm.c **** *  None
 604:Generated_Source\PSoC5/ADC_therm.c **** *
 605:Generated_Source\PSoC5/ADC_therm.c **** * Return:
 606:Generated_Source\PSoC5/ADC_therm.c **** *  None
 607:Generated_Source\PSoC5/ADC_therm.c **** *
 608:Generated_Source\PSoC5/ADC_therm.c **** *******************************************************************************/
 609:Generated_Source\PSoC5/ADC_therm.c **** void ADC_therm_StopConvert(void) 
 610:Generated_Source\PSoC5/ADC_therm.c **** {
 611:Generated_Source\PSoC5/ADC_therm.c ****     /* Stop all conversions */
 612:Generated_Source\PSoC5/ADC_therm.c ****     ADC_therm_DEC_CR_REG &= (uint8)~ADC_therm_DEC_START_CONV;
 613:Generated_Source\PSoC5/ADC_therm.c **** }
 614:Generated_Source\PSoC5/ADC_therm.c **** 
 615:Generated_Source\PSoC5/ADC_therm.c **** 
 616:Generated_Source\PSoC5/ADC_therm.c **** /*******************************************************************************
 617:Generated_Source\PSoC5/ADC_therm.c **** * Function Name: ADC_therm_IsEndConversion
 618:Generated_Source\PSoC5/ADC_therm.c **** ********************************************************************************
 619:Generated_Source\PSoC5/ADC_therm.c **** *
 620:Generated_Source\PSoC5/ADC_therm.c **** * Summary:
 621:Generated_Source\PSoC5/ADC_therm.c **** *  Checks the status that the most recently started conversion has completed.
 622:Generated_Source\PSoC5/ADC_therm.c **** *  The status is cleared by any of ADC_GetResult8(), ADC_GetResult16() or 
 623:Generated_Source\PSoC5/ADC_therm.c **** *  ADC_GetResult32() API.
 624:Generated_Source\PSoC5/ADC_therm.c **** *  This function provides the programmer with two options. In one mode this 
 625:Generated_Source\PSoC5/ADC_therm.c **** *  function immediately returns with the conversion status. In the other mode,
 626:Generated_Source\PSoC5/ADC_therm.c **** *  the function does not return (blocking) until the conversion has completed.
 627:Generated_Source\PSoC5/ADC_therm.c **** *
 628:Generated_Source\PSoC5/ADC_therm.c **** * Parameters:
 629:Generated_Source\PSoC5/ADC_therm.c **** *  retMode: Check conversion return mode. See the following table for options.
 630:Generated_Source\PSoC5/ADC_therm.c **** *   ADC_therm_RETURN_STATUS -   Immediately returns conversion result
 631:Generated_Source\PSoC5/ADC_therm.c **** *                                      status.
 632:Generated_Source\PSoC5/ADC_therm.c **** *   ADC_therm_WAIT_FOR_RESULT - Does not return until ADC conversion
 633:Generated_Source\PSoC5/ADC_therm.c **** *                                      is complete.
 634:Generated_Source\PSoC5/ADC_therm.c **** *
 635:Generated_Source\PSoC5/ADC_therm.c **** * Return:
 636:Generated_Source\PSoC5/ADC_therm.c **** *  If a nonzero value is returned, the last conversion has completed.
 637:Generated_Source\PSoC5/ADC_therm.c **** *  If the returned value is zero, the ADC is still calculating the last result.
 638:Generated_Source\PSoC5/ADC_therm.c **** *
 639:Generated_Source\PSoC5/ADC_therm.c **** * Global variables:
 640:Generated_Source\PSoC5/ADC_therm.c **** *  ADC_therm_convDone:  Used to check whether conversion is complete
 641:Generated_Source\PSoC5/ADC_therm.c **** *  or not for single sample mode with resolution is above 16
 642:Generated_Source\PSoC5/ADC_therm.c **** *
 643:Generated_Source\PSoC5/ADC_therm.c **** *******************************************************************************/
 644:Generated_Source\PSoC5/ADC_therm.c **** uint8 ADC_therm_IsEndConversion(uint8 retMode) 
 645:Generated_Source\PSoC5/ADC_therm.c **** {
 646:Generated_Source\PSoC5/ADC_therm.c ****     uint8 status;
 647:Generated_Source\PSoC5/ADC_therm.c **** 
 648:Generated_Source\PSoC5/ADC_therm.c ****     do
 649:Generated_Source\PSoC5/ADC_therm.c ****     {
 650:Generated_Source\PSoC5/ADC_therm.c ****         /* Check for stop convert if conversion mode is Single Sample with
 651:Generated_Source\PSoC5/ADC_therm.c ****         *   resolution above 16 bit
 652:Generated_Source\PSoC5/ADC_therm.c ****         */
 653:Generated_Source\PSoC5/ADC_therm.c ****         if(ADC_therm_stopConversion != 0u)
 654:Generated_Source\PSoC5/ADC_therm.c ****         {
 655:Generated_Source\PSoC5/ADC_therm.c ****             status = ADC_therm_convDone;
 656:Generated_Source\PSoC5/ADC_therm.c ****         }
 657:Generated_Source\PSoC5/ADC_therm.c ****         else
 658:Generated_Source\PSoC5/ADC_therm.c ****         {
ARM GAS  C:\Users\chemi\AppData\Local\Temp\ccksh7Yh.s 			page 13


 659:Generated_Source\PSoC5/ADC_therm.c ****             status = ADC_therm_DEC_SR_REG & ADC_therm_DEC_CONV_DONE;
 660:Generated_Source\PSoC5/ADC_therm.c ****         }
 661:Generated_Source\PSoC5/ADC_therm.c ****     }while((status != ADC_therm_DEC_CONV_DONE) && (retMode == ADC_therm_WAIT_FOR_RESULT));
 662:Generated_Source\PSoC5/ADC_therm.c **** 
 663:Generated_Source\PSoC5/ADC_therm.c ****     return(status);
 664:Generated_Source\PSoC5/ADC_therm.c **** }
 665:Generated_Source\PSoC5/ADC_therm.c **** 
 666:Generated_Source\PSoC5/ADC_therm.c **** 
 667:Generated_Source\PSoC5/ADC_therm.c **** /*******************************************************************************
 668:Generated_Source\PSoC5/ADC_therm.c **** * Function Name: ADC_therm_GetResult8
 669:Generated_Source\PSoC5/ADC_therm.c **** ********************************************************************************
 670:Generated_Source\PSoC5/ADC_therm.c **** *
 671:Generated_Source\PSoC5/ADC_therm.c **** * Summary:
 672:Generated_Source\PSoC5/ADC_therm.c **** *  This function returns the result of an 8-bit conversion. If the
 673:Generated_Source\PSoC5/ADC_therm.c **** *  resolution is set greater than 8-bits, the LSB of the result will be
 674:Generated_Source\PSoC5/ADC_therm.c **** *  returned. When the ADC is configured for 8-bit single ended mode,
 675:Generated_Source\PSoC5/ADC_therm.c **** *  the ADC_GetResult16() function should be used instead. This
 676:Generated_Source\PSoC5/ADC_therm.c **** *  function returns only signed 8-bit values. The maximum positive
 677:Generated_Source\PSoC5/ADC_therm.c **** *  signed 8-bit value is 127, but in singled ended 8-bit mode, the
 678:Generated_Source\PSoC5/ADC_therm.c **** *  maximum positive value is 255.
 679:Generated_Source\PSoC5/ADC_therm.c **** *
 680:Generated_Source\PSoC5/ADC_therm.c **** * Parameters:
 681:Generated_Source\PSoC5/ADC_therm.c **** *  None
 682:Generated_Source\PSoC5/ADC_therm.c **** *
 683:Generated_Source\PSoC5/ADC_therm.c **** * Return:
 684:Generated_Source\PSoC5/ADC_therm.c **** *  int8: The LSB of the last ADC conversion.
 685:Generated_Source\PSoC5/ADC_therm.c **** *
 686:Generated_Source\PSoC5/ADC_therm.c **** * Global variables:
 687:Generated_Source\PSoC5/ADC_therm.c **** *  ADC_therm_convDone:  Cleared in single sample mode with resolution
 688:Generated_Source\PSoC5/ADC_therm.c **** *                              above 16 bits
 689:Generated_Source\PSoC5/ADC_therm.c **** *
 690:Generated_Source\PSoC5/ADC_therm.c **** *******************************************************************************/
 691:Generated_Source\PSoC5/ADC_therm.c **** int8 ADC_therm_GetResult8( void ) 
 692:Generated_Source\PSoC5/ADC_therm.c **** {
 693:Generated_Source\PSoC5/ADC_therm.c ****     int8 result;
 694:Generated_Source\PSoC5/ADC_therm.c ****     uint8 coherency;
 695:Generated_Source\PSoC5/ADC_therm.c **** 
 696:Generated_Source\PSoC5/ADC_therm.c ****     /* Read active coherency configuration */
 697:Generated_Source\PSoC5/ADC_therm.c ****     coherency = ADC_therm_DEC_COHER_REG & ADC_therm_DEC_SAMP_KEY_MASK;
 698:Generated_Source\PSoC5/ADC_therm.c **** 
 699:Generated_Source\PSoC5/ADC_therm.c ****     result = (int8)ADC_therm_DEC_SAMP_REG;
 700:Generated_Source\PSoC5/ADC_therm.c **** 
 701:Generated_Source\PSoC5/ADC_therm.c ****     if(coherency == ADC_therm_DEC_SAMP_KEY_MID)
 702:Generated_Source\PSoC5/ADC_therm.c ****     {   /* Dummy read of the middle byte to unlock the coherency */
 703:Generated_Source\PSoC5/ADC_therm.c ****         (void)ADC_therm_DEC_SAMPM_REG;
 704:Generated_Source\PSoC5/ADC_therm.c ****     }
 705:Generated_Source\PSoC5/ADC_therm.c ****     else  if(coherency == ADC_therm_DEC_SAMP_KEY_HIGH)
 706:Generated_Source\PSoC5/ADC_therm.c ****     {   /* Dummy read of the MSB byte to unlock the coherency */
 707:Generated_Source\PSoC5/ADC_therm.c ****         (void)ADC_therm_DEC_SAMPH_REG;
 708:Generated_Source\PSoC5/ADC_therm.c ****     }
 709:Generated_Source\PSoC5/ADC_therm.c ****     else /*No action required for other coherency */
 710:Generated_Source\PSoC5/ADC_therm.c ****     {
 711:Generated_Source\PSoC5/ADC_therm.c ****     }
 712:Generated_Source\PSoC5/ADC_therm.c ****     /* Clear conversion complete status in Single Sample mode with resolution above 16 bit */
 713:Generated_Source\PSoC5/ADC_therm.c ****     if(ADC_therm_stopConversion != 0u)
 714:Generated_Source\PSoC5/ADC_therm.c ****     {
 715:Generated_Source\PSoC5/ADC_therm.c ****         ADC_therm_convDone = 0u;
ARM GAS  C:\Users\chemi\AppData\Local\Temp\ccksh7Yh.s 			page 14


 716:Generated_Source\PSoC5/ADC_therm.c ****     }
 717:Generated_Source\PSoC5/ADC_therm.c ****     return (result);
 718:Generated_Source\PSoC5/ADC_therm.c **** }
 719:Generated_Source\PSoC5/ADC_therm.c **** 
 720:Generated_Source\PSoC5/ADC_therm.c **** 
 721:Generated_Source\PSoC5/ADC_therm.c **** /*******************************************************************************
 722:Generated_Source\PSoC5/ADC_therm.c **** * Function Name: ADC_therm_GetResult16
 723:Generated_Source\PSoC5/ADC_therm.c **** ********************************************************************************
 724:Generated_Source\PSoC5/ADC_therm.c **** *
 725:Generated_Source\PSoC5/ADC_therm.c **** * Summary:
 726:Generated_Source\PSoC5/ADC_therm.c **** *  Returns a 16-bit result for a conversion with a result that has a
 727:Generated_Source\PSoC5/ADC_therm.c **** *  resolution of 8 to 16 bits. If the resolution is set greater than 16-bits,
 728:Generated_Source\PSoC5/ADC_therm.c **** *  it will return the 16 least significant bits of the result. When the ADC
 729:Generated_Source\PSoC5/ADC_therm.c **** *  is configured for 16-bit single ended mode, the ADC_GetResult32()
 730:Generated_Source\PSoC5/ADC_therm.c **** *  function should be used instead. This function returns only signed
 731:Generated_Source\PSoC5/ADC_therm.c **** *  16-bit result, which allows a maximum positive value of 32767, not 65535.
 732:Generated_Source\PSoC5/ADC_therm.c **** *  This function supports different coherency settings.
 733:Generated_Source\PSoC5/ADC_therm.c **** *
 734:Generated_Source\PSoC5/ADC_therm.c **** * Parameters:
 735:Generated_Source\PSoC5/ADC_therm.c **** *   void
 736:Generated_Source\PSoC5/ADC_therm.c **** *
 737:Generated_Source\PSoC5/ADC_therm.c **** * Return:
 738:Generated_Source\PSoC5/ADC_therm.c **** *  int16:  ADC result.
 739:Generated_Source\PSoC5/ADC_therm.c **** *
 740:Generated_Source\PSoC5/ADC_therm.c **** * Global variables:
 741:Generated_Source\PSoC5/ADC_therm.c **** *  ADC_therm_convDone:  Cleared in single sample mode with resolution
 742:Generated_Source\PSoC5/ADC_therm.c **** *                              above 16 bits
 743:Generated_Source\PSoC5/ADC_therm.c **** *
 744:Generated_Source\PSoC5/ADC_therm.c **** *******************************************************************************/
 745:Generated_Source\PSoC5/ADC_therm.c **** int16 ADC_therm_GetResult16(void) 
 746:Generated_Source\PSoC5/ADC_therm.c **** {
 747:Generated_Source\PSoC5/ADC_therm.c ****     uint16 result;
 748:Generated_Source\PSoC5/ADC_therm.c ****     uint8 coherency;
 749:Generated_Source\PSoC5/ADC_therm.c **** 
 750:Generated_Source\PSoC5/ADC_therm.c ****     /* Read active coherency configuration */
 751:Generated_Source\PSoC5/ADC_therm.c ****     coherency = ADC_therm_DEC_COHER_REG & ADC_therm_DEC_SAMP_KEY_MASK;
 752:Generated_Source\PSoC5/ADC_therm.c **** 
 753:Generated_Source\PSoC5/ADC_therm.c ****     if(coherency <= ADC_therm_DEC_SAMP_KEY_LOW)
 754:Generated_Source\PSoC5/ADC_therm.c ****     {   /*  Use default method to read result registers i.e. LSB byte read at the end*/
 755:Generated_Source\PSoC5/ADC_therm.c ****         #if (CY_PSOC3)
 756:Generated_Source\PSoC5/ADC_therm.c ****             result = ADC_therm_DEC_SAMPM_REG;
 757:Generated_Source\PSoC5/ADC_therm.c ****             result = (result << 8u) | ADC_therm_DEC_SAMP_REG;
 758:Generated_Source\PSoC5/ADC_therm.c ****         #else
 759:Generated_Source\PSoC5/ADC_therm.c ****             result = (CY_GET_REG16(ADC_therm_DEC_SAMP_16B_PTR));
 760:Generated_Source\PSoC5/ADC_therm.c ****         #endif /* CY_PSOC3 */
 761:Generated_Source\PSoC5/ADC_therm.c ****     }
 762:Generated_Source\PSoC5/ADC_therm.c ****     else /* MID or HIGH */
 763:Generated_Source\PSoC5/ADC_therm.c ****     {   /* Read middle byte at the end */
 764:Generated_Source\PSoC5/ADC_therm.c ****         #if (CY_PSOC3)
 765:Generated_Source\PSoC5/ADC_therm.c ****             result = (CY_GET_REG16(ADC_therm_DEC_SAMP_16B_PTR));
 766:Generated_Source\PSoC5/ADC_therm.c ****         #else
 767:Generated_Source\PSoC5/ADC_therm.c ****             result = ADC_therm_DEC_SAMP_REG;
 768:Generated_Source\PSoC5/ADC_therm.c ****             result |=  (uint16)((uint16)ADC_therm_DEC_SAMPM_REG << 8u);
 769:Generated_Source\PSoC5/ADC_therm.c ****         #endif /* CY_PSOC3 */
 770:Generated_Source\PSoC5/ADC_therm.c ****         if(coherency == ADC_therm_DEC_SAMP_KEY_HIGH)
 771:Generated_Source\PSoC5/ADC_therm.c ****         {   /* Dummy read of the MSB byte to unlock the coherency */
 772:Generated_Source\PSoC5/ADC_therm.c ****             (void)ADC_therm_DEC_SAMPH_REG;
ARM GAS  C:\Users\chemi\AppData\Local\Temp\ccksh7Yh.s 			page 15


 773:Generated_Source\PSoC5/ADC_therm.c ****         }
 774:Generated_Source\PSoC5/ADC_therm.c ****     }
 775:Generated_Source\PSoC5/ADC_therm.c ****     /* Clear conversion complete status in Single Sample mode with resolution above 16 bit */
 776:Generated_Source\PSoC5/ADC_therm.c ****     if(ADC_therm_stopConversion != 0u)
 777:Generated_Source\PSoC5/ADC_therm.c ****     {
 778:Generated_Source\PSoC5/ADC_therm.c ****         ADC_therm_convDone = 0u;
 779:Generated_Source\PSoC5/ADC_therm.c ****     }
 780:Generated_Source\PSoC5/ADC_therm.c **** 
 781:Generated_Source\PSoC5/ADC_therm.c ****     return ((int16)result);
 782:Generated_Source\PSoC5/ADC_therm.c **** }
 783:Generated_Source\PSoC5/ADC_therm.c **** 
 784:Generated_Source\PSoC5/ADC_therm.c **** 
 785:Generated_Source\PSoC5/ADC_therm.c **** /*******************************************************************************
 786:Generated_Source\PSoC5/ADC_therm.c **** * Function Name: ADC_therm_GetResult32
 787:Generated_Source\PSoC5/ADC_therm.c **** ********************************************************************************
 788:Generated_Source\PSoC5/ADC_therm.c **** *
 789:Generated_Source\PSoC5/ADC_therm.c **** * Summary:
 790:Generated_Source\PSoC5/ADC_therm.c **** *  Returns a 32-bit result for a conversion with a result that has a
 791:Generated_Source\PSoC5/ADC_therm.c **** *  resolution of 8 to 20 bits.
 792:Generated_Source\PSoC5/ADC_therm.c **** *  This function supports different coherency settings.
 793:Generated_Source\PSoC5/ADC_therm.c **** *
 794:Generated_Source\PSoC5/ADC_therm.c **** * Parameters:
 795:Generated_Source\PSoC5/ADC_therm.c **** *  None
 796:Generated_Source\PSoC5/ADC_therm.c **** *
 797:Generated_Source\PSoC5/ADC_therm.c **** * Return:
 798:Generated_Source\PSoC5/ADC_therm.c **** *  int32: Result of the last ADC conversion.
 799:Generated_Source\PSoC5/ADC_therm.c **** *
 800:Generated_Source\PSoC5/ADC_therm.c **** * Global variables:
 801:Generated_Source\PSoC5/ADC_therm.c **** *  ADC_therm_convDone:  Cleared in single sample mode with resolution
 802:Generated_Source\PSoC5/ADC_therm.c **** *                              above 16 bits
 803:Generated_Source\PSoC5/ADC_therm.c **** *
 804:Generated_Source\PSoC5/ADC_therm.c **** *******************************************************************************/
 805:Generated_Source\PSoC5/ADC_therm.c **** int32 ADC_therm_GetResult32(void) 
 806:Generated_Source\PSoC5/ADC_therm.c **** {
 807:Generated_Source\PSoC5/ADC_therm.c ****     uint32 result;
 808:Generated_Source\PSoC5/ADC_therm.c ****     uint8 coherency;
 809:Generated_Source\PSoC5/ADC_therm.c ****     #if (CY_PSOC3)
 810:Generated_Source\PSoC5/ADC_therm.c **** 	    uint16 tmp;
 811:Generated_Source\PSoC5/ADC_therm.c ****     #endif /* CY_PSOC3 */
 812:Generated_Source\PSoC5/ADC_therm.c **** 
 813:Generated_Source\PSoC5/ADC_therm.c ****     /* Read active coherency configuration */
 814:Generated_Source\PSoC5/ADC_therm.c ****     coherency = ADC_therm_DEC_COHER_REG & ADC_therm_DEC_SAMP_KEY_MASK;
 815:Generated_Source\PSoC5/ADC_therm.c **** 
 816:Generated_Source\PSoC5/ADC_therm.c ****     if(coherency <= ADC_therm_DEC_SAMP_KEY_LOW)
 817:Generated_Source\PSoC5/ADC_therm.c ****     {   /*  Use default method to read result registers i.e. LSB byte read at the end*/
 818:Generated_Source\PSoC5/ADC_therm.c ****         #if (CY_PSOC3)
 819:Generated_Source\PSoC5/ADC_therm.c ****             result = ADC_therm_DEC_SAMPH_REG;
 820:Generated_Source\PSoC5/ADC_therm.c ****             if((result & 0x80u) != 0u)
 821:Generated_Source\PSoC5/ADC_therm.c ****             {   /* Sign extend */
 822:Generated_Source\PSoC5/ADC_therm.c ****                 result |= 0xFF00u;
 823:Generated_Source\PSoC5/ADC_therm.c ****             }
 824:Generated_Source\PSoC5/ADC_therm.c ****             result = (result << 8u) | ADC_therm_DEC_SAMPM_REG;
 825:Generated_Source\PSoC5/ADC_therm.c ****             result = (result << 8u) | ADC_therm_DEC_SAMP_REG;
 826:Generated_Source\PSoC5/ADC_therm.c ****         #else
 827:Generated_Source\PSoC5/ADC_therm.c ****             result = CY_GET_REG16(ADC_therm_DEC_SAMPH_16B_PTR);
 828:Generated_Source\PSoC5/ADC_therm.c ****             result = (result << 16u) | (CY_GET_REG16(ADC_therm_DEC_SAMP_16B_PTR));
 829:Generated_Source\PSoC5/ADC_therm.c ****         #endif /* CY_PSOC3 */
ARM GAS  C:\Users\chemi\AppData\Local\Temp\ccksh7Yh.s 			page 16


 830:Generated_Source\PSoC5/ADC_therm.c ****     }
 831:Generated_Source\PSoC5/ADC_therm.c ****     else if(coherency == ADC_therm_DEC_SAMP_KEY_MID)
 832:Generated_Source\PSoC5/ADC_therm.c ****     {   /* Read middle byte at the end */
 833:Generated_Source\PSoC5/ADC_therm.c ****         #if (CY_PSOC3)
 834:Generated_Source\PSoC5/ADC_therm.c ****             result = ADC_therm_DEC_SAMPH_REG;
 835:Generated_Source\PSoC5/ADC_therm.c ****             if((result & 0x80u) != 0u)
 836:Generated_Source\PSoC5/ADC_therm.c ****             {   /* Sign extend */
 837:Generated_Source\PSoC5/ADC_therm.c ****                 result |= 0xFF00u;
 838:Generated_Source\PSoC5/ADC_therm.c ****             }
 839:Generated_Source\PSoC5/ADC_therm.c ****             result = (result << 16u) | (CY_GET_REG16(ADC_therm_DEC_SAMP_16B_PTR));
 840:Generated_Source\PSoC5/ADC_therm.c ****         #else
 841:Generated_Source\PSoC5/ADC_therm.c ****             result = CY_GET_REG16(ADC_therm_DEC_SAMPH_16B_PTR);
 842:Generated_Source\PSoC5/ADC_therm.c ****             result = (result << 16u) | ADC_therm_DEC_SAMP_REG;
 843:Generated_Source\PSoC5/ADC_therm.c ****             result |=  (uint32)((uint32)ADC_therm_DEC_SAMPM_REG << 8u);
 844:Generated_Source\PSoC5/ADC_therm.c ****         #endif /* CY_PSOC3 */
 845:Generated_Source\PSoC5/ADC_therm.c ****     }
 846:Generated_Source\PSoC5/ADC_therm.c ****     else /*ADC_therm_DEC_SAMP_KEY_HIGH */
 847:Generated_Source\PSoC5/ADC_therm.c ****     {
 848:Generated_Source\PSoC5/ADC_therm.c ****         /* Read MSB byte at the end */
 849:Generated_Source\PSoC5/ADC_therm.c ****         #if (CY_PSOC3)
 850:Generated_Source\PSoC5/ADC_therm.c ****             result = CY_GET_REG16(ADC_therm_DEC_SAMP_16B_PTR);
 851:Generated_Source\PSoC5/ADC_therm.c **** 			tmp = ADC_therm_DEC_SAMPH_REG;
 852:Generated_Source\PSoC5/ADC_therm.c ****             if((tmp & 0x80u) != 0u)
 853:Generated_Source\PSoC5/ADC_therm.c ****             {   /* Sign extend */
 854:Generated_Source\PSoC5/ADC_therm.c ****                 tmp |= 0xFF00u;
 855:Generated_Source\PSoC5/ADC_therm.c ****             }
 856:Generated_Source\PSoC5/ADC_therm.c ****             result |= (uint32)tmp << 16u;
 857:Generated_Source\PSoC5/ADC_therm.c ****         #else
 858:Generated_Source\PSoC5/ADC_therm.c ****             result = CY_GET_REG16(ADC_therm_DEC_SAMP_16B_PTR);
 859:Generated_Source\PSoC5/ADC_therm.c ****             result |= (uint32)((uint32)CY_GET_REG16(ADC_therm_DEC_SAMPH_16B_PTR) << 16u);
 860:Generated_Source\PSoC5/ADC_therm.c ****         #endif /* CY_PSOC3 */
 861:Generated_Source\PSoC5/ADC_therm.c ****     }
 862:Generated_Source\PSoC5/ADC_therm.c ****     /* Clear conversion complete status in Single Sample mode with resolution above 16 bit */
 863:Generated_Source\PSoC5/ADC_therm.c ****     if(ADC_therm_stopConversion != 0u)
 864:Generated_Source\PSoC5/ADC_therm.c ****     {
 865:Generated_Source\PSoC5/ADC_therm.c ****         ADC_therm_convDone = 0u;
 866:Generated_Source\PSoC5/ADC_therm.c ****     }
 867:Generated_Source\PSoC5/ADC_therm.c **** 
 868:Generated_Source\PSoC5/ADC_therm.c ****     return ((int32)result);
 869:Generated_Source\PSoC5/ADC_therm.c **** }
 870:Generated_Source\PSoC5/ADC_therm.c **** 
 871:Generated_Source\PSoC5/ADC_therm.c **** 
 872:Generated_Source\PSoC5/ADC_therm.c **** /*******************************************************************************
 873:Generated_Source\PSoC5/ADC_therm.c **** * Function Name: ADC_therm_SetOffset
 874:Generated_Source\PSoC5/ADC_therm.c **** ********************************************************************************
 875:Generated_Source\PSoC5/ADC_therm.c **** *
 876:Generated_Source\PSoC5/ADC_therm.c **** * Summary:
 877:Generated_Source\PSoC5/ADC_therm.c **** *  Sets the ADC offset which is used by the functions ADC_CountsTo_uVolts, 
 878:Generated_Source\PSoC5/ADC_therm.c **** *  ADC_CountsTo_mVolts, and ADC_CountsTo_Volts to subtract the offset from the 
 879:Generated_Source\PSoC5/ADC_therm.c **** *  given reading before calculating the voltage conversion.
 880:Generated_Source\PSoC5/ADC_therm.c **** *
 881:Generated_Source\PSoC5/ADC_therm.c **** * Parameters:
 882:Generated_Source\PSoC5/ADC_therm.c **** *  int32:  This value is a measured value when the inputs are shorted or 
 883:Generated_Source\PSoC5/ADC_therm.c **** *          connected to the same input voltage.
 884:Generated_Source\PSoC5/ADC_therm.c **** *
 885:Generated_Source\PSoC5/ADC_therm.c **** * Return:
 886:Generated_Source\PSoC5/ADC_therm.c **** *  None
ARM GAS  C:\Users\chemi\AppData\Local\Temp\ccksh7Yh.s 			page 17


 887:Generated_Source\PSoC5/ADC_therm.c **** *
 888:Generated_Source\PSoC5/ADC_therm.c **** * Global variables:
 889:Generated_Source\PSoC5/ADC_therm.c **** *  ADC_therm_Offset:  Modified to set the user provided offset. This
 890:Generated_Source\PSoC5/ADC_therm.c **** *  variable is used for offset calibration purpose.
 891:Generated_Source\PSoC5/ADC_therm.c **** *
 892:Generated_Source\PSoC5/ADC_therm.c **** * Side Effects:
 893:Generated_Source\PSoC5/ADC_therm.c **** *  Affects the ADC_therm_CountsTo_Volts,
 894:Generated_Source\PSoC5/ADC_therm.c **** *  ADC_therm_CountsTo_mVolts, ADC_therm_CountsTo_uVolts functions
 895:Generated_Source\PSoC5/ADC_therm.c **** *  by subtracting the given offset.
 896:Generated_Source\PSoC5/ADC_therm.c **** *
 897:Generated_Source\PSoC5/ADC_therm.c **** *******************************************************************************/
 898:Generated_Source\PSoC5/ADC_therm.c **** void ADC_therm_SetOffset(int32 offset) 
 899:Generated_Source\PSoC5/ADC_therm.c **** {
 900:Generated_Source\PSoC5/ADC_therm.c **** 
 901:Generated_Source\PSoC5/ADC_therm.c ****     ADC_therm_Offset = offset;
 902:Generated_Source\PSoC5/ADC_therm.c **** }
 903:Generated_Source\PSoC5/ADC_therm.c **** 
 904:Generated_Source\PSoC5/ADC_therm.c **** 
 905:Generated_Source\PSoC5/ADC_therm.c **** /*******************************************************************************
 906:Generated_Source\PSoC5/ADC_therm.c **** * Function Name: ADC_therm_SetGain
 907:Generated_Source\PSoC5/ADC_therm.c **** ********************************************************************************
 908:Generated_Source\PSoC5/ADC_therm.c **** *
 909:Generated_Source\PSoC5/ADC_therm.c **** * Summary:
 910:Generated_Source\PSoC5/ADC_therm.c **** *  Sets the ADC gain in counts per volt for the voltage conversion
 911:Generated_Source\PSoC5/ADC_therm.c **** *  functions below. This value is set by default by the reference and
 912:Generated_Source\PSoC5/ADC_therm.c **** *  input range settings. It should only be used to further calibrate the
 913:Generated_Source\PSoC5/ADC_therm.c **** *  ADC with a known input or if an external reference is used. This
 914:Generated_Source\PSoC5/ADC_therm.c **** *  function may also be used to calibrate an entire signal chain, not
 915:Generated_Source\PSoC5/ADC_therm.c **** *  just the ADC.
 916:Generated_Source\PSoC5/ADC_therm.c **** *
 917:Generated_Source\PSoC5/ADC_therm.c **** * Parameters:
 918:Generated_Source\PSoC5/ADC_therm.c **** *  int32: ADC gain in counts per volt.
 919:Generated_Source\PSoC5/ADC_therm.c **** *
 920:Generated_Source\PSoC5/ADC_therm.c **** * Return:
 921:Generated_Source\PSoC5/ADC_therm.c **** *  None
 922:Generated_Source\PSoC5/ADC_therm.c **** *
 923:Generated_Source\PSoC5/ADC_therm.c **** * Global variables:
 924:Generated_Source\PSoC5/ADC_therm.c **** *  ADC_therm_CountsPerVolt:  modified to set the ADC gain in counts
 925:Generated_Source\PSoC5/ADC_therm.c **** *   per volt.
 926:Generated_Source\PSoC5/ADC_therm.c **** *
 927:Generated_Source\PSoC5/ADC_therm.c **** * Side Effects:
 928:Generated_Source\PSoC5/ADC_therm.c **** *  Affects the ADC_therm_CountsTo_Volts,
 929:Generated_Source\PSoC5/ADC_therm.c **** *  ADC_therm_CountsTo_mVolts, ADC_therm_CountsTo_uVolts functions
 930:Generated_Source\PSoC5/ADC_therm.c **** *  supplying the correct conversion between ADC counts and voltage.
 931:Generated_Source\PSoC5/ADC_therm.c **** *
 932:Generated_Source\PSoC5/ADC_therm.c **** *******************************************************************************/
 933:Generated_Source\PSoC5/ADC_therm.c **** void ADC_therm_SetGain(int32 adcGain) 
 934:Generated_Source\PSoC5/ADC_therm.c **** {
 935:Generated_Source\PSoC5/ADC_therm.c ****     ADC_therm_CountsPerVolt = adcGain;
 936:Generated_Source\PSoC5/ADC_therm.c **** }
 937:Generated_Source\PSoC5/ADC_therm.c **** 
 938:Generated_Source\PSoC5/ADC_therm.c **** 
 939:Generated_Source\PSoC5/ADC_therm.c **** /*******************************************************************************
 940:Generated_Source\PSoC5/ADC_therm.c **** * Function Name: ADC_therm_CountsTo_mVolts
 941:Generated_Source\PSoC5/ADC_therm.c **** ********************************************************************************
 942:Generated_Source\PSoC5/ADC_therm.c **** *
 943:Generated_Source\PSoC5/ADC_therm.c **** * Summary:
ARM GAS  C:\Users\chemi\AppData\Local\Temp\ccksh7Yh.s 			page 18


 944:Generated_Source\PSoC5/ADC_therm.c **** *  Converts the ADC counts output to mVolts as a 16-bit integer. For
 945:Generated_Source\PSoC5/ADC_therm.c **** *  example, if the ADC measured 0.534 volts, the return value would
 946:Generated_Source\PSoC5/ADC_therm.c **** *  be 534 mVolts.
 947:Generated_Source\PSoC5/ADC_therm.c **** *
 948:Generated_Source\PSoC5/ADC_therm.c **** * Parameters:
 949:Generated_Source\PSoC5/ADC_therm.c **** *  int32: adcCounts Result from the ADC conversion.
 950:Generated_Source\PSoC5/ADC_therm.c **** *
 951:Generated_Source\PSoC5/ADC_therm.c **** * Return:
 952:Generated_Source\PSoC5/ADC_therm.c **** *  int16:  Result in mVolts
 953:Generated_Source\PSoC5/ADC_therm.c **** *
 954:Generated_Source\PSoC5/ADC_therm.c **** * Global variables:
 955:Generated_Source\PSoC5/ADC_therm.c **** *  ADC_therm_CountsPerVolt:  used to convert ADC counts to mVolts.
 956:Generated_Source\PSoC5/ADC_therm.c **** *  ADC_therm_Offset:  Used as the offset while converting ADC counts
 957:Generated_Source\PSoC5/ADC_therm.c **** *   to mVolts.
 958:Generated_Source\PSoC5/ADC_therm.c **** *
 959:Generated_Source\PSoC5/ADC_therm.c **** *******************************************************************************/
 960:Generated_Source\PSoC5/ADC_therm.c **** int16 ADC_therm_CountsTo_mVolts(int32 adcCounts) 
 961:Generated_Source\PSoC5/ADC_therm.c **** {
 962:Generated_Source\PSoC5/ADC_therm.c **** 
 963:Generated_Source\PSoC5/ADC_therm.c ****     int16 mVolts;
 964:Generated_Source\PSoC5/ADC_therm.c **** 
 965:Generated_Source\PSoC5/ADC_therm.c ****     /* Convert adcCounts to the right align if left option selected */
 966:Generated_Source\PSoC5/ADC_therm.c ****     #if(ADC_therm_CFG1_DEC_DIV != 0)
 967:Generated_Source\PSoC5/ADC_therm.c ****         if(ADC_therm_Config == ADC_therm_CFG1)
 968:Generated_Source\PSoC5/ADC_therm.c ****         {
 969:Generated_Source\PSoC5/ADC_therm.c ****             adcCounts /= ADC_therm_CFG1_DEC_DIV;
 970:Generated_Source\PSoC5/ADC_therm.c ****         }
 971:Generated_Source\PSoC5/ADC_therm.c ****     #endif /* ADC_therm_CFG1_DEC_DIV */
 972:Generated_Source\PSoC5/ADC_therm.c ****     #if((ADC_therm_CFG2_DEC_DIV != 0) && (ADC_therm_DEFAULT_NUM_CONFIGS > 1))
 973:Generated_Source\PSoC5/ADC_therm.c ****         if(ADC_therm_Config == ADC_therm_CFG2)
 974:Generated_Source\PSoC5/ADC_therm.c ****         {
 975:Generated_Source\PSoC5/ADC_therm.c ****             adcCounts /= ADC_therm_CFG2_DEC_DIV;
 976:Generated_Source\PSoC5/ADC_therm.c ****         }
 977:Generated_Source\PSoC5/ADC_therm.c ****     #endif /* ADC_therm_CFG2_DEC_DIV */
 978:Generated_Source\PSoC5/ADC_therm.c ****     #if((ADC_therm_CFG3_DEC_DIV != 0) && (ADC_therm_DEFAULT_NUM_CONFIGS > 2))
 979:Generated_Source\PSoC5/ADC_therm.c ****         if(ADC_therm_Config == ADC_therm_CFG3)
 980:Generated_Source\PSoC5/ADC_therm.c ****         {
 981:Generated_Source\PSoC5/ADC_therm.c ****             adcCounts /= ADC_therm_CFG3_DEC_DIV;
 982:Generated_Source\PSoC5/ADC_therm.c ****         }
 983:Generated_Source\PSoC5/ADC_therm.c ****     #endif /* ADC_therm_CFG2_DEC_DIV */
 984:Generated_Source\PSoC5/ADC_therm.c ****     #if((ADC_therm_CFG4_DEC_DIV != 0) && (ADC_therm_DEFAULT_NUM_CONFIGS > 3))
 985:Generated_Source\PSoC5/ADC_therm.c ****         if(ADC_therm_Config == ADC_therm_CFG4)
 986:Generated_Source\PSoC5/ADC_therm.c ****         {
 987:Generated_Source\PSoC5/ADC_therm.c ****             adcCounts /= ADC_therm_CFG4_DEC_DIV;
 988:Generated_Source\PSoC5/ADC_therm.c ****         }
 989:Generated_Source\PSoC5/ADC_therm.c ****     #endif /* ADC_therm_CFG2_DEC_DIV */
 990:Generated_Source\PSoC5/ADC_therm.c **** 
 991:Generated_Source\PSoC5/ADC_therm.c ****     /* Subtract ADC offset */
 992:Generated_Source\PSoC5/ADC_therm.c ****     adcCounts -= ADC_therm_Offset;
 993:Generated_Source\PSoC5/ADC_therm.c **** 
 994:Generated_Source\PSoC5/ADC_therm.c ****     mVolts = (int16)(( adcCounts * ADC_therm_1MV_COUNTS ) / ADC_therm_CountsPerVolt) ;
 995:Generated_Source\PSoC5/ADC_therm.c **** 
 996:Generated_Source\PSoC5/ADC_therm.c ****     return(mVolts);
 997:Generated_Source\PSoC5/ADC_therm.c **** }
 998:Generated_Source\PSoC5/ADC_therm.c **** 
 999:Generated_Source\PSoC5/ADC_therm.c **** 
1000:Generated_Source\PSoC5/ADC_therm.c **** /*******************************************************************************
ARM GAS  C:\Users\chemi\AppData\Local\Temp\ccksh7Yh.s 			page 19


1001:Generated_Source\PSoC5/ADC_therm.c **** * Function Name: ADC_therm_CountsTo_Volts
1002:Generated_Source\PSoC5/ADC_therm.c **** ********************************************************************************
1003:Generated_Source\PSoC5/ADC_therm.c **** *
1004:Generated_Source\PSoC5/ADC_therm.c **** * Summary:
1005:Generated_Source\PSoC5/ADC_therm.c **** *  Converts the ADC output to Volts as a floating point number. For
1006:Generated_Source\PSoC5/ADC_therm.c **** *  example, if the ADC measure a voltage of 1.2345 Volts, the
1007:Generated_Source\PSoC5/ADC_therm.c **** *  returned result would be +1.2345 Volts.
1008:Generated_Source\PSoC5/ADC_therm.c **** *
1009:Generated_Source\PSoC5/ADC_therm.c **** * Parameters:
1010:Generated_Source\PSoC5/ADC_therm.c **** *  int32 adcCounts:  Result from the ADC conversion.
1011:Generated_Source\PSoC5/ADC_therm.c **** *
1012:Generated_Source\PSoC5/ADC_therm.c **** * Return:
1013:Generated_Source\PSoC5/ADC_therm.c **** *  float32: Result in Volts
1014:Generated_Source\PSoC5/ADC_therm.c **** *
1015:Generated_Source\PSoC5/ADC_therm.c **** * Global variables:
1016:Generated_Source\PSoC5/ADC_therm.c **** *  ADC_therm_CountsPerVolt:  used to convert to Volts.
1017:Generated_Source\PSoC5/ADC_therm.c **** *  ADC_therm_Offset:  Used as the offset while converting ADC counts
1018:Generated_Source\PSoC5/ADC_therm.c **** *   to Volts.
1019:Generated_Source\PSoC5/ADC_therm.c **** *
1020:Generated_Source\PSoC5/ADC_therm.c **** *******************************************************************************/
1021:Generated_Source\PSoC5/ADC_therm.c **** float32 ADC_therm_CountsTo_Volts(int32 adcCounts) 
1022:Generated_Source\PSoC5/ADC_therm.c **** {
1023:Generated_Source\PSoC5/ADC_therm.c **** 
1024:Generated_Source\PSoC5/ADC_therm.c ****     float32 Volts;
1025:Generated_Source\PSoC5/ADC_therm.c **** 
1026:Generated_Source\PSoC5/ADC_therm.c ****     /* Convert adcCounts to the right align if left option selected */
1027:Generated_Source\PSoC5/ADC_therm.c ****     #if(ADC_therm_CFG1_DEC_DIV != 0)
1028:Generated_Source\PSoC5/ADC_therm.c ****         if(ADC_therm_Config == ADC_therm_CFG1)
1029:Generated_Source\PSoC5/ADC_therm.c ****         {
1030:Generated_Source\PSoC5/ADC_therm.c ****             adcCounts /= ADC_therm_CFG1_DEC_DIV;
1031:Generated_Source\PSoC5/ADC_therm.c ****         }
1032:Generated_Source\PSoC5/ADC_therm.c ****     #endif /* ADC_therm_CFG1_DEC_DIV */
1033:Generated_Source\PSoC5/ADC_therm.c ****     #if((ADC_therm_CFG2_DEC_DIV != 0) && (ADC_therm_DEFAULT_NUM_CONFIGS > 1))
1034:Generated_Source\PSoC5/ADC_therm.c ****         if(ADC_therm_Config == ADC_therm_CFG2)
1035:Generated_Source\PSoC5/ADC_therm.c ****         {
1036:Generated_Source\PSoC5/ADC_therm.c ****             adcCounts /= ADC_therm_CFG2_DEC_DIV;
1037:Generated_Source\PSoC5/ADC_therm.c ****         }
1038:Generated_Source\PSoC5/ADC_therm.c ****     #endif /* ADC_therm_CFG2_DEC_DIV */
1039:Generated_Source\PSoC5/ADC_therm.c ****     #if((ADC_therm_CFG3_DEC_DIV != 0) && (ADC_therm_DEFAULT_NUM_CONFIGS > 2))
1040:Generated_Source\PSoC5/ADC_therm.c ****         if(ADC_therm_Config == ADC_therm_CFG3)
1041:Generated_Source\PSoC5/ADC_therm.c ****         {
1042:Generated_Source\PSoC5/ADC_therm.c ****             adcCounts /= ADC_therm_CFG3_DEC_DIV;
1043:Generated_Source\PSoC5/ADC_therm.c ****         }
1044:Generated_Source\PSoC5/ADC_therm.c ****     #endif /* ADC_therm_CFG2_DEC_DIV */
1045:Generated_Source\PSoC5/ADC_therm.c ****     #if((ADC_therm_CFG4_DEC_DIV != 0) && (ADC_therm_DEFAULT_NUM_CONFIGS > 3))
1046:Generated_Source\PSoC5/ADC_therm.c ****         if(ADC_therm_Config == ADC_therm_CFG4)
1047:Generated_Source\PSoC5/ADC_therm.c ****         {
1048:Generated_Source\PSoC5/ADC_therm.c ****             adcCounts /= ADC_therm_CFG4_DEC_DIV;
1049:Generated_Source\PSoC5/ADC_therm.c ****         }
1050:Generated_Source\PSoC5/ADC_therm.c ****     #endif /* ADC_therm_CFG2_DEC_DIV */
1051:Generated_Source\PSoC5/ADC_therm.c **** 
1052:Generated_Source\PSoC5/ADC_therm.c ****     /* Subtract ADC offset */
1053:Generated_Source\PSoC5/ADC_therm.c ****     adcCounts -= ADC_therm_Offset;
1054:Generated_Source\PSoC5/ADC_therm.c **** 
1055:Generated_Source\PSoC5/ADC_therm.c ****     Volts = (float32)adcCounts / (float32)ADC_therm_CountsPerVolt;
1056:Generated_Source\PSoC5/ADC_therm.c **** 
1057:Generated_Source\PSoC5/ADC_therm.c ****     return( Volts );
ARM GAS  C:\Users\chemi\AppData\Local\Temp\ccksh7Yh.s 			page 20


1058:Generated_Source\PSoC5/ADC_therm.c **** }
1059:Generated_Source\PSoC5/ADC_therm.c **** 
1060:Generated_Source\PSoC5/ADC_therm.c **** 
1061:Generated_Source\PSoC5/ADC_therm.c **** /*******************************************************************************
1062:Generated_Source\PSoC5/ADC_therm.c **** * Function Name: ADC_therm_CountsTo_uVolts
1063:Generated_Source\PSoC5/ADC_therm.c **** ********************************************************************************
1064:Generated_Source\PSoC5/ADC_therm.c **** *
1065:Generated_Source\PSoC5/ADC_therm.c **** * Summary:
1066:Generated_Source\PSoC5/ADC_therm.c **** *  Converts the ADC output to uVolts as a 32-bit integer. For example,
1067:Generated_Source\PSoC5/ADC_therm.c **** *  if the ADC measured -0.02345 Volts, the return value would be -23450 uVolts.
1068:Generated_Source\PSoC5/ADC_therm.c **** *
1069:Generated_Source\PSoC5/ADC_therm.c **** * Parameters:
1070:Generated_Source\PSoC5/ADC_therm.c **** *  int32 adcCounts: Result from the ADC conversion.
1071:Generated_Source\PSoC5/ADC_therm.c **** *
1072:Generated_Source\PSoC5/ADC_therm.c **** * Return:
1073:Generated_Source\PSoC5/ADC_therm.c **** *  int32:  Result in uVolts
1074:Generated_Source\PSoC5/ADC_therm.c **** *
1075:Generated_Source\PSoC5/ADC_therm.c **** * Global variables:
1076:Generated_Source\PSoC5/ADC_therm.c **** *  ADC_therm_CountsPerVolt:  used to convert ADC counts to mVolts.
1077:Generated_Source\PSoC5/ADC_therm.c **** *  ADC_therm_Offset:  Used as the offset while converting ADC counts
1078:Generated_Source\PSoC5/ADC_therm.c **** *   to mVolts.
1079:Generated_Source\PSoC5/ADC_therm.c **** *
1080:Generated_Source\PSoC5/ADC_therm.c **** * Theory:
1081:Generated_Source\PSoC5/ADC_therm.c **** *  Care must be taken to not exceed the maximum value for a 31 bit signed
1082:Generated_Source\PSoC5/ADC_therm.c **** *  number in the conversion to uVolts and at the same time not lose resolution.
1083:Generated_Source\PSoC5/ADC_therm.c **** *
1084:Generated_Source\PSoC5/ADC_therm.c **** *  uVolts = ((A * adcCounts) / ((int32)ADC_therm_CountsPerVolt / B));
1085:Generated_Source\PSoC5/ADC_therm.c **** *
1086:Generated_Source\PSoC5/ADC_therm.c **** *******************************************************************************/
1087:Generated_Source\PSoC5/ADC_therm.c **** int32 ADC_therm_CountsTo_uVolts(int32 adcCounts) 
1088:Generated_Source\PSoC5/ADC_therm.c **** {
1089:Generated_Source\PSoC5/ADC_therm.c **** 
1090:Generated_Source\PSoC5/ADC_therm.c ****     int32 uVolts;
1091:Generated_Source\PSoC5/ADC_therm.c ****     int32 coefA;
1092:Generated_Source\PSoC5/ADC_therm.c ****     int32 coefB;
1093:Generated_Source\PSoC5/ADC_therm.c ****     uint8 resolution;
1094:Generated_Source\PSoC5/ADC_therm.c **** 
1095:Generated_Source\PSoC5/ADC_therm.c ****     /* Set the resolution based on the configuration */
1096:Generated_Source\PSoC5/ADC_therm.c ****     /* Convert adcCounts to the right align if left option selected */
1097:Generated_Source\PSoC5/ADC_therm.c ****     if (ADC_therm_Config == ADC_therm_CFG1)
1098:Generated_Source\PSoC5/ADC_therm.c ****     {
1099:Generated_Source\PSoC5/ADC_therm.c ****         resolution = ADC_therm_CFG1_RESOLUTION;
1100:Generated_Source\PSoC5/ADC_therm.c ****         #if(ADC_therm_CFG1_DEC_DIV != 0)
1101:Generated_Source\PSoC5/ADC_therm.c ****             adcCounts /= ADC_therm_CFG1_DEC_DIV;
1102:Generated_Source\PSoC5/ADC_therm.c ****         #endif /* ADC_therm_CFG1_DEC_DIV */
1103:Generated_Source\PSoC5/ADC_therm.c ****     }
1104:Generated_Source\PSoC5/ADC_therm.c ****     else if (ADC_therm_Config == ADC_therm_CFG2)
1105:Generated_Source\PSoC5/ADC_therm.c ****     {
1106:Generated_Source\PSoC5/ADC_therm.c ****         resolution = ADC_therm_CFG2_RESOLUTION;
1107:Generated_Source\PSoC5/ADC_therm.c ****         #if(ADC_therm_CFG2_DEC_DIV != 0)
1108:Generated_Source\PSoC5/ADC_therm.c ****             adcCounts /= ADC_therm_CFG2_DEC_DIV;
1109:Generated_Source\PSoC5/ADC_therm.c ****         #endif /* ADC_therm_CFG2_DEC_DIV */
1110:Generated_Source\PSoC5/ADC_therm.c ****     }
1111:Generated_Source\PSoC5/ADC_therm.c ****     else if (ADC_therm_Config == ADC_therm_CFG3)
1112:Generated_Source\PSoC5/ADC_therm.c ****     {
1113:Generated_Source\PSoC5/ADC_therm.c ****         resolution = ADC_therm_CFG3_RESOLUTION;
1114:Generated_Source\PSoC5/ADC_therm.c ****         #if(ADC_therm_CFG3_DEC_DIV != 0)
ARM GAS  C:\Users\chemi\AppData\Local\Temp\ccksh7Yh.s 			page 21


1115:Generated_Source\PSoC5/ADC_therm.c ****             adcCounts /= ADC_therm_CFG3_DEC_DIV;
1116:Generated_Source\PSoC5/ADC_therm.c ****         #endif /* ADC_therm_CFG3_DEC_DIV */
1117:Generated_Source\PSoC5/ADC_therm.c ****     }
1118:Generated_Source\PSoC5/ADC_therm.c ****     else
1119:Generated_Source\PSoC5/ADC_therm.c ****     {
1120:Generated_Source\PSoC5/ADC_therm.c ****         resolution = ADC_therm_CFG4_RESOLUTION;
1121:Generated_Source\PSoC5/ADC_therm.c ****         #if(ADC_therm_CFG4_DEC_DIV != 0)
1122:Generated_Source\PSoC5/ADC_therm.c ****             adcCounts /= ADC_therm_CFG4_DEC_DIV;
1123:Generated_Source\PSoC5/ADC_therm.c ****         #endif /* ADC_therm_CFG4_DEC_DIV */
1124:Generated_Source\PSoC5/ADC_therm.c ****     }
1125:Generated_Source\PSoC5/ADC_therm.c **** 
1126:Generated_Source\PSoC5/ADC_therm.c ****     switch (resolution)
1127:Generated_Source\PSoC5/ADC_therm.c ****     {
1128:Generated_Source\PSoC5/ADC_therm.c ****         #if( (ADC_therm_CFG1_RESOLUTION == ADC_therm__BITS_12) || \
1129:Generated_Source\PSoC5/ADC_therm.c ****              (ADC_therm_CFG2_RESOLUTION == ADC_therm__BITS_12) || \
1130:Generated_Source\PSoC5/ADC_therm.c ****              (ADC_therm_CFG3_RESOLUTION == ADC_therm__BITS_12) || \
1131:Generated_Source\PSoC5/ADC_therm.c ****              (ADC_therm_CFG4_RESOLUTION == ADC_therm__BITS_12) )
1132:Generated_Source\PSoC5/ADC_therm.c ****             case (uint8)ADC_therm__BITS_12:
1133:Generated_Source\PSoC5/ADC_therm.c ****                 coefA = ADC_therm_1UV_COUNTS / ADC_therm_DIVISOR_2;
1134:Generated_Source\PSoC5/ADC_therm.c ****                 coefB = ADC_therm_DIVISOR_2;
1135:Generated_Source\PSoC5/ADC_therm.c ****                 break;
1136:Generated_Source\PSoC5/ADC_therm.c ****         #endif /* ADC_therm__BITS_12 */    
1137:Generated_Source\PSoC5/ADC_therm.c ****         #if( (ADC_therm_CFG1_RESOLUTION == ADC_therm__BITS_13) || \
1138:Generated_Source\PSoC5/ADC_therm.c ****              (ADC_therm_CFG2_RESOLUTION == ADC_therm__BITS_13) || \
1139:Generated_Source\PSoC5/ADC_therm.c ****              (ADC_therm_CFG3_RESOLUTION == ADC_therm__BITS_13) || \
1140:Generated_Source\PSoC5/ADC_therm.c ****              (ADC_therm_CFG4_RESOLUTION == ADC_therm__BITS_13) )
1141:Generated_Source\PSoC5/ADC_therm.c ****             case (uint8)ADC_therm__BITS_13:
1142:Generated_Source\PSoC5/ADC_therm.c ****                 coefA = ADC_therm_1UV_COUNTS / ADC_therm_DIVISOR_4;
1143:Generated_Source\PSoC5/ADC_therm.c ****                 coefB = ADC_therm_DIVISOR_4;
1144:Generated_Source\PSoC5/ADC_therm.c ****                 break;
1145:Generated_Source\PSoC5/ADC_therm.c ****         #endif /* ADC_therm__BITS_13 */    
1146:Generated_Source\PSoC5/ADC_therm.c ****         #if( (ADC_therm_CFG1_RESOLUTION == ADC_therm__BITS_14) || \
1147:Generated_Source\PSoC5/ADC_therm.c ****              (ADC_therm_CFG2_RESOLUTION == ADC_therm__BITS_14) || \
1148:Generated_Source\PSoC5/ADC_therm.c ****              (ADC_therm_CFG3_RESOLUTION == ADC_therm__BITS_14) || \
1149:Generated_Source\PSoC5/ADC_therm.c ****              (ADC_therm_CFG4_RESOLUTION == ADC_therm__BITS_14) )
1150:Generated_Source\PSoC5/ADC_therm.c ****             case (uint8)ADC_therm__BITS_14:
1151:Generated_Source\PSoC5/ADC_therm.c ****                 coefA = ADC_therm_1UV_COUNTS / ADC_therm_DIVISOR_8;
1152:Generated_Source\PSoC5/ADC_therm.c ****                 coefB = ADC_therm_DIVISOR_8;
1153:Generated_Source\PSoC5/ADC_therm.c ****                 break;
1154:Generated_Source\PSoC5/ADC_therm.c ****         #endif /* ADC_therm__BITS_14 */    
1155:Generated_Source\PSoC5/ADC_therm.c ****         #if( (ADC_therm_CFG1_RESOLUTION == ADC_therm__BITS_15) || \
1156:Generated_Source\PSoC5/ADC_therm.c ****              (ADC_therm_CFG2_RESOLUTION == ADC_therm__BITS_15) || \
1157:Generated_Source\PSoC5/ADC_therm.c ****              (ADC_therm_CFG3_RESOLUTION == ADC_therm__BITS_15) || \
1158:Generated_Source\PSoC5/ADC_therm.c ****              (ADC_therm_CFG4_RESOLUTION == ADC_therm__BITS_15) )
1159:Generated_Source\PSoC5/ADC_therm.c ****             case (uint8)ADC_therm__BITS_15:
1160:Generated_Source\PSoC5/ADC_therm.c ****                 coefA = ADC_therm_1UV_COUNTS / ADC_therm_DIVISOR_16;
1161:Generated_Source\PSoC5/ADC_therm.c ****                 coefB = ADC_therm_DIVISOR_16;
1162:Generated_Source\PSoC5/ADC_therm.c ****                 break;
1163:Generated_Source\PSoC5/ADC_therm.c ****         #endif /* ADC_therm__BITS_15 */    
1164:Generated_Source\PSoC5/ADC_therm.c ****         #if( (ADC_therm_CFG1_RESOLUTION == ADC_therm__BITS_16) || \
1165:Generated_Source\PSoC5/ADC_therm.c ****              (ADC_therm_CFG2_RESOLUTION == ADC_therm__BITS_16) || \
1166:Generated_Source\PSoC5/ADC_therm.c ****              (ADC_therm_CFG3_RESOLUTION == ADC_therm__BITS_16) || \
1167:Generated_Source\PSoC5/ADC_therm.c ****              (ADC_therm_CFG4_RESOLUTION == ADC_therm__BITS_16) )
1168:Generated_Source\PSoC5/ADC_therm.c ****             case (uint8)ADC_therm__BITS_16:
1169:Generated_Source\PSoC5/ADC_therm.c ****                 coefA = ADC_therm_1UV_COUNTS / ADC_therm_DIVISOR_32;
1170:Generated_Source\PSoC5/ADC_therm.c ****                 coefB = ADC_therm_DIVISOR_32;
1171:Generated_Source\PSoC5/ADC_therm.c ****                 break;
ARM GAS  C:\Users\chemi\AppData\Local\Temp\ccksh7Yh.s 			page 22


1172:Generated_Source\PSoC5/ADC_therm.c ****         #endif /* ADC_therm__BITS_16 */    
1173:Generated_Source\PSoC5/ADC_therm.c ****         #if( (ADC_therm_CFG1_RESOLUTION == ADC_therm__BITS_17) || \
1174:Generated_Source\PSoC5/ADC_therm.c ****              (ADC_therm_CFG2_RESOLUTION == ADC_therm__BITS_17) || \
1175:Generated_Source\PSoC5/ADC_therm.c ****              (ADC_therm_CFG3_RESOLUTION == ADC_therm__BITS_17) || \
1176:Generated_Source\PSoC5/ADC_therm.c ****              (ADC_therm_CFG4_RESOLUTION == ADC_therm__BITS_17) )
1177:Generated_Source\PSoC5/ADC_therm.c ****             case (uint8)ADC_therm__BITS_17:
1178:Generated_Source\PSoC5/ADC_therm.c ****                 coefA = ADC_therm_1UV_COUNTS / ADC_therm_DIVISOR_64;
1179:Generated_Source\PSoC5/ADC_therm.c ****                 coefB = ADC_therm_DIVISOR_64;
1180:Generated_Source\PSoC5/ADC_therm.c ****                 break;
1181:Generated_Source\PSoC5/ADC_therm.c ****         #endif /* ADC_therm__BITS_17 */    
1182:Generated_Source\PSoC5/ADC_therm.c ****         #if( (ADC_therm_CFG1_RESOLUTION == ADC_therm__BITS_18) || \
1183:Generated_Source\PSoC5/ADC_therm.c ****              (ADC_therm_CFG2_RESOLUTION == ADC_therm__BITS_18) || \
1184:Generated_Source\PSoC5/ADC_therm.c ****              (ADC_therm_CFG3_RESOLUTION == ADC_therm__BITS_18) || \
1185:Generated_Source\PSoC5/ADC_therm.c ****              (ADC_therm_CFG4_RESOLUTION == ADC_therm__BITS_18) )
1186:Generated_Source\PSoC5/ADC_therm.c ****             case (uint8)ADC_therm__BITS_18:
1187:Generated_Source\PSoC5/ADC_therm.c ****                 coefA = ADC_therm_1UV_COUNTS / ADC_therm_DIVISOR_125;
1188:Generated_Source\PSoC5/ADC_therm.c ****                 coefB = ADC_therm_DIVISOR_125;
1189:Generated_Source\PSoC5/ADC_therm.c ****                 break;
1190:Generated_Source\PSoC5/ADC_therm.c ****         #endif /* ADC_therm__BITS_18 */    
1191:Generated_Source\PSoC5/ADC_therm.c ****         #if( (ADC_therm_CFG1_RESOLUTION == ADC_therm__BITS_19) || \
1192:Generated_Source\PSoC5/ADC_therm.c ****              (ADC_therm_CFG2_RESOLUTION == ADC_therm__BITS_19) || \
1193:Generated_Source\PSoC5/ADC_therm.c ****              (ADC_therm_CFG3_RESOLUTION == ADC_therm__BITS_19) || \
1194:Generated_Source\PSoC5/ADC_therm.c ****              (ADC_therm_CFG4_RESOLUTION == ADC_therm__BITS_19) )
1195:Generated_Source\PSoC5/ADC_therm.c ****             case (uint8)ADC_therm__BITS_19:
1196:Generated_Source\PSoC5/ADC_therm.c ****                 coefA = ADC_therm_1UV_COUNTS / ADC_therm_DIVISOR_250;
1197:Generated_Source\PSoC5/ADC_therm.c ****                 coefB = ADC_therm_DIVISOR_250;
1198:Generated_Source\PSoC5/ADC_therm.c ****                 break;
1199:Generated_Source\PSoC5/ADC_therm.c ****         #endif /* ADC_therm__BITS_19 */    
1200:Generated_Source\PSoC5/ADC_therm.c ****         #if( (ADC_therm_CFG1_RESOLUTION == ADC_therm__BITS_20) || \
1201:Generated_Source\PSoC5/ADC_therm.c ****              (ADC_therm_CFG2_RESOLUTION == ADC_therm__BITS_20) || \
1202:Generated_Source\PSoC5/ADC_therm.c ****              (ADC_therm_CFG3_RESOLUTION == ADC_therm__BITS_20) || \
1203:Generated_Source\PSoC5/ADC_therm.c ****              (ADC_therm_CFG4_RESOLUTION == ADC_therm__BITS_20) )
1204:Generated_Source\PSoC5/ADC_therm.c ****             case (uint8)ADC_therm__BITS_20:
1205:Generated_Source\PSoC5/ADC_therm.c ****                 coefA = ADC_therm_1UV_COUNTS / ADC_therm_DIVISOR_500;
1206:Generated_Source\PSoC5/ADC_therm.c ****                 coefB = ADC_therm_DIVISOR_500;
1207:Generated_Source\PSoC5/ADC_therm.c ****                 break;
1208:Generated_Source\PSoC5/ADC_therm.c ****         #endif /* ADC_therm__BITS_20 */    
1209:Generated_Source\PSoC5/ADC_therm.c ****         default:    /* resolution < 12 */
1210:Generated_Source\PSoC5/ADC_therm.c ****             /* 11 bits ADC + 2^20(1048576) = 31 bits */
1211:Generated_Source\PSoC5/ADC_therm.c ****             coefA = ADC_therm_1UV_COUNTS;
1212:Generated_Source\PSoC5/ADC_therm.c ****             coefB = ADC_therm_DIVISOR_1;
1213:Generated_Source\PSoC5/ADC_therm.c ****             break;
1214:Generated_Source\PSoC5/ADC_therm.c ****     }
1215:Generated_Source\PSoC5/ADC_therm.c ****     coefB = ADC_therm_CountsPerVolt / coefB;
1216:Generated_Source\PSoC5/ADC_therm.c ****     uVolts = ((coefA * adcCounts) / coefB) - ((coefA * ADC_therm_Offset) / coefB);
1217:Generated_Source\PSoC5/ADC_therm.c **** 
1218:Generated_Source\PSoC5/ADC_therm.c ****     return( uVolts );
1219:Generated_Source\PSoC5/ADC_therm.c **** }
1220:Generated_Source\PSoC5/ADC_therm.c **** 
1221:Generated_Source\PSoC5/ADC_therm.c **** 
1222:Generated_Source\PSoC5/ADC_therm.c **** /*******************************************************************************
1223:Generated_Source\PSoC5/ADC_therm.c **** * Function Name: ADC_therm_InitConfig(uint8 config)
1224:Generated_Source\PSoC5/ADC_therm.c **** ********************************************************************************
1225:Generated_Source\PSoC5/ADC_therm.c **** *
1226:Generated_Source\PSoC5/ADC_therm.c **** * Summary:
1227:Generated_Source\PSoC5/ADC_therm.c **** *  Initializes all registers based on customizer settings
1228:Generated_Source\PSoC5/ADC_therm.c **** *
ARM GAS  C:\Users\chemi\AppData\Local\Temp\ccksh7Yh.s 			page 23


1229:Generated_Source\PSoC5/ADC_therm.c **** * Parameters:
1230:Generated_Source\PSoC5/ADC_therm.c **** *   void
1231:Generated_Source\PSoC5/ADC_therm.c **** *
1232:Generated_Source\PSoC5/ADC_therm.c **** * Return:
1233:Generated_Source\PSoC5/ADC_therm.c **** *  None
1234:Generated_Source\PSoC5/ADC_therm.c **** *
1235:Generated_Source\PSoC5/ADC_therm.c **** * Global variables:
1236:Generated_Source\PSoC5/ADC_therm.c **** *  ADC_therm_CountsPerVolt:  Used to set the default counts per volt.
1237:Generated_Source\PSoC5/ADC_therm.c **** *
1238:Generated_Source\PSoC5/ADC_therm.c **** * Side Effects: Rewrites the coherency set by ADC_therm_SetCoherency()
1239:Generated_Source\PSoC5/ADC_therm.c **** *   API to the default value.
1240:Generated_Source\PSoC5/ADC_therm.c **** *
1241:Generated_Source\PSoC5/ADC_therm.c **** *******************************************************************************/
1242:Generated_Source\PSoC5/ADC_therm.c **** static void ADC_therm_InitConfig(uint8 config) 
  27              		.loc 1 1242 0
  28              		.cfi_startproc
  29              		@ args = 0, pretend = 0, frame = 0
  30              		@ frame_needed = 0, uses_anonymous_args = 0
  31              	.LVL0:
  32 0000 2DE9F843 		push	{r3, r4, r5, r6, r7, r8, r9, lr}
  33              		.cfi_def_cfa_offset 32
  34              		.cfi_offset 3, -32
  35              		.cfi_offset 4, -28
  36              		.cfi_offset 5, -24
  37              		.cfi_offset 6, -20
  38              		.cfi_offset 7, -16
  39              		.cfi_offset 8, -12
  40              		.cfi_offset 9, -8
  41              		.cfi_offset 14, -4
1243:Generated_Source\PSoC5/ADC_therm.c **** {
1244:Generated_Source\PSoC5/ADC_therm.c ****     ADC_therm_stopConversion = 0u;
1245:Generated_Source\PSoC5/ADC_therm.c **** 
1246:Generated_Source\PSoC5/ADC_therm.c ****     if (config == 1u)
1247:Generated_Source\PSoC5/ADC_therm.c ****     {
1248:Generated_Source\PSoC5/ADC_therm.c ****         /* Default Config */
1249:Generated_Source\PSoC5/ADC_therm.c ****         ADC_therm_DEC_CR_REG      = ADC_therm_CFG1_DEC_CR;
  42              		.loc 1 1249 0
  43 0004 354B     		ldr	r3, .L2
  44 0006 3022     		movs	r2, #48
  45 0008 1A70     		strb	r2, [r3]
1250:Generated_Source\PSoC5/ADC_therm.c ****         ADC_therm_DEC_SHIFT1_REG  = ADC_therm_CFG1_DEC_SHIFT1;
  46              		.loc 1 1250 0
  47 000a 0622     		movs	r2, #6
  48 000c 9A70     		strb	r2, [r3, #2]
1251:Generated_Source\PSoC5/ADC_therm.c ****         ADC_therm_DEC_SHIFT2_REG  = ADC_therm_CFG1_DEC_SHIFT2;
1252:Generated_Source\PSoC5/ADC_therm.c ****         ADC_therm_DEC_DR2_REG     = ADC_therm_CFG1_DEC_DR2;
  49              		.loc 1 1252 0
  50 000e 0024     		movs	r4, #0
1251:Generated_Source\PSoC5/ADC_therm.c ****         ADC_therm_DEC_SHIFT2_REG  = ADC_therm_CFG1_DEC_SHIFT2;
  51              		.loc 1 1251 0
  52 0010 0822     		movs	r2, #8
  53 0012 DA70     		strb	r2, [r3, #3]
  54              		.loc 1 1252 0
  55 0014 1C71     		strb	r4, [r3, #4]
1253:Generated_Source\PSoC5/ADC_therm.c ****         ADC_therm_DEC_DR2H_REG    = ADC_therm_CFG1_DEC_DR2H;
1254:Generated_Source\PSoC5/ADC_therm.c ****         ADC_therm_DEC_DR1_REG     = ADC_therm_CFG1_DEC_DR1;
  56              		.loc 1 1254 0
ARM GAS  C:\Users\chemi\AppData\Local\Temp\ccksh7Yh.s 			page 24


  57 0016 1F22     		movs	r2, #31
1253:Generated_Source\PSoC5/ADC_therm.c ****         ADC_therm_DEC_DR2H_REG    = ADC_therm_CFG1_DEC_DR2H;
  58              		.loc 1 1253 0
  59 0018 5C71     		strb	r4, [r3, #5]
  60              		.loc 1 1254 0
  61 001a 0633     		adds	r3, r3, #6
  62 001c 1A70     		strb	r2, [r3]
1255:Generated_Source\PSoC5/ADC_therm.c ****         ADC_therm_DEC_OCOR_REG    = ADC_therm_CFG1_DEC_OCOR;
1256:Generated_Source\PSoC5/ADC_therm.c ****         ADC_therm_DEC_OCORM_REG   = ADC_therm_CFG1_DEC_OCORM;
1257:Generated_Source\PSoC5/ADC_therm.c ****         ADC_therm_DEC_OCORH_REG   = ADC_therm_CFG1_DEC_OCORH;
1258:Generated_Source\PSoC5/ADC_therm.c ****         ADC_therm_DEC_COHER_REG   = ADC_therm_CFG1_DEC_COHER;
  63              		.loc 1 1258 0
  64 001e 0125     		movs	r5, #1
1259:Generated_Source\PSoC5/ADC_therm.c **** 
1260:Generated_Source\PSoC5/ADC_therm.c ****         ADC_therm_DSM_CR4_REG     = ADC_therm_CFG1_DSM_CR4;
  65              		.loc 1 1260 0
  66 0020 1422     		movs	r2, #20
1255:Generated_Source\PSoC5/ADC_therm.c ****         ADC_therm_DEC_OCOR_REG    = ADC_therm_CFG1_DEC_OCOR;
  67              		.loc 1 1255 0
  68 0022 9C70     		strb	r4, [r3, #2]
1256:Generated_Source\PSoC5/ADC_therm.c ****         ADC_therm_DEC_OCORH_REG   = ADC_therm_CFG1_DEC_OCORH;
  69              		.loc 1 1256 0
  70 0024 DC70     		strb	r4, [r3, #3]
1257:Generated_Source\PSoC5/ADC_therm.c ****         ADC_therm_DEC_COHER_REG   = ADC_therm_CFG1_DEC_COHER;
  71              		.loc 1 1257 0
  72 0026 1C71     		strb	r4, [r3, #4]
1258:Generated_Source\PSoC5/ADC_therm.c **** 
  73              		.loc 1 1258 0
  74 0028 9D73     		strb	r5, [r3, #14]
  75              		.loc 1 1260 0
  76 002a 83F87E2A 		strb	r2, [r3, #2686]
1261:Generated_Source\PSoC5/ADC_therm.c ****         ADC_therm_DSM_CR5_REG     = ADC_therm_CFG1_DSM_CR5;
  77              		.loc 1 1261 0
  78 002e 0522     		movs	r2, #5
  79 0030 83F87F2A 		strb	r2, [r3, #2687]
1262:Generated_Source\PSoC5/ADC_therm.c ****         ADC_therm_DSM_CR6_REG     = ADC_therm_CFG1_DSM_CR6;
  80              		.loc 1 1262 0
  81 0034 1622     		movs	r2, #22
  82 0036 83F8802A 		strb	r2, [r3, #2688]
1263:Generated_Source\PSoC5/ADC_therm.c ****         ADC_therm_DSM_CR7_REG     = ADC_therm_CFG1_DSM_CR7;
1264:Generated_Source\PSoC5/ADC_therm.c ****         ADC_therm_DSM_CR10_REG    = ADC_therm_CFG1_DSM_CR10;
  83              		.loc 1 1264 0
  84 003a 4422     		movs	r2, #68
1263:Generated_Source\PSoC5/ADC_therm.c ****         ADC_therm_DSM_CR7_REG     = ADC_therm_CFG1_DSM_CR7;
  85              		.loc 1 1263 0
  86 003c 83F8814A 		strb	r4, [r3, #2689]
  87              		.loc 1 1264 0
  88 0040 83F8842A 		strb	r2, [r3, #2692]
1265:Generated_Source\PSoC5/ADC_therm.c ****         ADC_therm_DSM_CR11_REG    = ADC_therm_CFG1_DSM_CR11;
  89              		.loc 1 1265 0
  90 0044 4822     		movs	r2, #72
  91 0046 83F8852A 		strb	r2, [r3, #2693]
1266:Generated_Source\PSoC5/ADC_therm.c ****         ADC_therm_DSM_CR12_REG    = ADC_therm_CFG1_DSM_CR12;
1267:Generated_Source\PSoC5/ADC_therm.c ****         ADC_therm_DSM_CR14_REG    = ADC_therm_CFG1_DSM_CR14;
  92              		.loc 1 1267 0
  93 004a 4FF00208 		mov	r8, #2
1268:Generated_Source\PSoC5/ADC_therm.c ****         ADC_therm_DSM_CR15_REG    = ADC_therm_CFG1_DSM_CR15;
ARM GAS  C:\Users\chemi\AppData\Local\Temp\ccksh7Yh.s 			page 25


  94              		.loc 1 1268 0
  95 004e 2222     		movs	r2, #34
1266:Generated_Source\PSoC5/ADC_therm.c ****         ADC_therm_DSM_CR12_REG    = ADC_therm_CFG1_DSM_CR12;
  96              		.loc 1 1266 0
  97 0050 83F8865A 		strb	r5, [r3, #2694]
1267:Generated_Source\PSoC5/ADC_therm.c ****         ADC_therm_DSM_CR15_REG    = ADC_therm_CFG1_DSM_CR15;
  98              		.loc 1 1267 0
  99 0054 83F8888A 		strb	r8, [r3, #2696]
 100              		.loc 1 1268 0
 101 0058 83F8892A 		strb	r2, [r3, #2697]
1269:Generated_Source\PSoC5/ADC_therm.c ****         ADC_therm_DSM_CR16_REG    = ADC_therm_CFG1_DSM_CR16;
 102              		.loc 1 1269 0
 103 005c 2822     		movs	r2, #40
 104 005e 83F88A2A 		strb	r2, [r3, #2698]
1270:Generated_Source\PSoC5/ADC_therm.c ****         ADC_therm_DSM_CR17_REG    = ADC_therm_CFG1_DSM_CR17;
 105              		.loc 1 1270 0
 106 0062 EB22     		movs	r2, #235
 107 0064 83F88B2A 		strb	r2, [r3, #2699]
 108              	.LVL1:
 109              	.LBB4:
 110              	.LBB5:
1271:Generated_Source\PSoC5/ADC_therm.c ****         /* Set DSM_REF0_REG by disabling and enabling the PRESS circuit */
1272:Generated_Source\PSoC5/ADC_therm.c ****         ADC_therm_SetDSMRef0Reg(ADC_therm_CFG1_DSM_REF0);
1273:Generated_Source\PSoC5/ADC_therm.c ****         ADC_therm_DSM_REF2_REG    = ADC_therm_CFG1_DSM_REF2;
1274:Generated_Source\PSoC5/ADC_therm.c ****         ADC_therm_DSM_REF3_REG    = ADC_therm_CFG1_DSM_REF3;
1275:Generated_Source\PSoC5/ADC_therm.c **** 
1276:Generated_Source\PSoC5/ADC_therm.c ****         ADC_therm_DSM_BUF0_REG    = ADC_therm_CFG1_DSM_BUF0;
1277:Generated_Source\PSoC5/ADC_therm.c ****         ADC_therm_DSM_BUF1_REG    = ADC_therm_CFG1_DSM_BUF1;
1278:Generated_Source\PSoC5/ADC_therm.c ****         ADC_therm_DSM_BUF2_REG    = ADC_therm_CFG1_DSM_BUF2;
1279:Generated_Source\PSoC5/ADC_therm.c ****         ADC_therm_DSM_BUF3_REG    = ADC_therm_CFG1_DSM_BUF3;
1280:Generated_Source\PSoC5/ADC_therm.c **** 
1281:Generated_Source\PSoC5/ADC_therm.c ****         /* To select either Vssa or Vref to -ve input of DSM depending on
1282:Generated_Source\PSoC5/ADC_therm.c ****         *  the input  range selected.
1283:Generated_Source\PSoC5/ADC_therm.c ****         */
1284:Generated_Source\PSoC5/ADC_therm.c ****         #if(ADC_therm_DEFAULT_INPUT_MODE)
1285:Generated_Source\PSoC5/ADC_therm.c ****             #if (ADC_therm_CFG1_INPUT_RANGE == ADC_therm_IR_VSSA_TO_2VREF)
1286:Generated_Source\PSoC5/ADC_therm.c ****                 ADC_therm_AMux_Select(1u);
1287:Generated_Source\PSoC5/ADC_therm.c ****             #else
1288:Generated_Source\PSoC5/ADC_therm.c ****                 ADC_therm_AMux_Select(0u);
1289:Generated_Source\PSoC5/ADC_therm.c ****             #endif /* ADC_therm_IR_VSSA_TO_2VREF) */
1290:Generated_Source\PSoC5/ADC_therm.c ****         #endif /* ADC_therm_DEFAULT_INPUT_MODE */
1291:Generated_Source\PSoC5/ADC_therm.c **** 
1292:Generated_Source\PSoC5/ADC_therm.c ****         /* Set the Conversion stop if resolution is above 16 bit and conversion
1293:Generated_Source\PSoC5/ADC_therm.c ****         *   mode is Single sample
1294:Generated_Source\PSoC5/ADC_therm.c ****         */
1295:Generated_Source\PSoC5/ADC_therm.c ****         #if(ADC_therm_CFG1_RESOLUTION > 16 && \
1296:Generated_Source\PSoC5/ADC_therm.c ****             ADC_therm_CFG1_CONV_MODE == ADC_therm_MODE_SINGLE_SAMPLE)
1297:Generated_Source\PSoC5/ADC_therm.c ****             ADC_therm_stopConversion = 1u;
1298:Generated_Source\PSoC5/ADC_therm.c ****         #endif /* Single sample with resolution above 16 bits. */
1299:Generated_Source\PSoC5/ADC_therm.c **** 
1300:Generated_Source\PSoC5/ADC_therm.c ****         ADC_therm_CountsPerVolt = (int32)ADC_therm_CFG1_COUNTS_PER_VOLT;
1301:Generated_Source\PSoC5/ADC_therm.c **** 
1302:Generated_Source\PSoC5/ADC_therm.c ****         ADC_therm_Ext_CP_Clk_SetDividerRegister(ADC_therm_CFG1_CP_CLK_DIVIDER, 1u);
1303:Generated_Source\PSoC5/ADC_therm.c **** 
1304:Generated_Source\PSoC5/ADC_therm.c ****         /* This is only valid if there is an internal clock */
1305:Generated_Source\PSoC5/ADC_therm.c ****         #if(ADC_therm_DEFAULT_INTERNAL_CLK)
1306:Generated_Source\PSoC5/ADC_therm.c ****             ADC_therm_theACLK_SetDividerRegister(ADC_therm_CFG1_ADC_CLK_DIVIDER, 1u);
ARM GAS  C:\Users\chemi\AppData\Local\Temp\ccksh7Yh.s 			page 26


1307:Generated_Source\PSoC5/ADC_therm.c ****         #endif /* ADC_therm_DEFAULT_INTERNAL_CLK */
1308:Generated_Source\PSoC5/ADC_therm.c **** 
1309:Generated_Source\PSoC5/ADC_therm.c ****         #if(ADC_therm_IRQ_REMOVE == 0u)
1310:Generated_Source\PSoC5/ADC_therm.c ****             /* Set interrupt vector */
1311:Generated_Source\PSoC5/ADC_therm.c ****             (void)CyIntSetVector(ADC_therm_INTC_NUMBER, &ADC_therm_ISR1);
1312:Generated_Source\PSoC5/ADC_therm.c ****         #endif   /* End ADC_therm_IRQ_REMOVE */
1313:Generated_Source\PSoC5/ADC_therm.c ****     }
1314:Generated_Source\PSoC5/ADC_therm.c **** 
1315:Generated_Source\PSoC5/ADC_therm.c ****     #if(ADC_therm_DEFAULT_NUM_CONFIGS > 1)
1316:Generated_Source\PSoC5/ADC_therm.c ****         if(config == 2u)
1317:Generated_Source\PSoC5/ADC_therm.c ****         {
1318:Generated_Source\PSoC5/ADC_therm.c ****             /* Second Config */
1319:Generated_Source\PSoC5/ADC_therm.c ****             ADC_therm_DEC_CR_REG      = ADC_therm_CFG2_DEC_CR;
1320:Generated_Source\PSoC5/ADC_therm.c ****             ADC_therm_DEC_SHIFT1_REG  = ADC_therm_CFG2_DEC_SHIFT1;
1321:Generated_Source\PSoC5/ADC_therm.c ****             ADC_therm_DEC_SHIFT2_REG  = ADC_therm_CFG2_DEC_SHIFT2;
1322:Generated_Source\PSoC5/ADC_therm.c ****             ADC_therm_DEC_DR2_REG     = ADC_therm_CFG2_DEC_DR2;
1323:Generated_Source\PSoC5/ADC_therm.c ****             ADC_therm_DEC_DR2H_REG    = ADC_therm_CFG2_DEC_DR2H;
1324:Generated_Source\PSoC5/ADC_therm.c ****             ADC_therm_DEC_DR1_REG     = ADC_therm_CFG2_DEC_DR1;
1325:Generated_Source\PSoC5/ADC_therm.c ****             ADC_therm_DEC_OCOR_REG    = ADC_therm_CFG2_DEC_OCOR;
1326:Generated_Source\PSoC5/ADC_therm.c ****             ADC_therm_DEC_OCORM_REG   = ADC_therm_CFG2_DEC_OCORM;
1327:Generated_Source\PSoC5/ADC_therm.c ****             ADC_therm_DEC_OCORH_REG   = ADC_therm_CFG2_DEC_OCORH;
1328:Generated_Source\PSoC5/ADC_therm.c ****             ADC_therm_DEC_COHER_REG   = ADC_therm_CFG2_DEC_COHER;
1329:Generated_Source\PSoC5/ADC_therm.c **** 
1330:Generated_Source\PSoC5/ADC_therm.c ****             ADC_therm_DSM_CR4_REG     = ADC_therm_CFG2_DSM_CR4;
1331:Generated_Source\PSoC5/ADC_therm.c ****             ADC_therm_DSM_CR5_REG     = ADC_therm_CFG2_DSM_CR5;
1332:Generated_Source\PSoC5/ADC_therm.c ****             ADC_therm_DSM_CR6_REG     = ADC_therm_CFG2_DSM_CR6;
1333:Generated_Source\PSoC5/ADC_therm.c ****             ADC_therm_DSM_CR7_REG     = ADC_therm_CFG2_DSM_CR7;
1334:Generated_Source\PSoC5/ADC_therm.c ****             ADC_therm_DSM_CR10_REG    = ADC_therm_CFG2_DSM_CR10;
1335:Generated_Source\PSoC5/ADC_therm.c ****             ADC_therm_DSM_CR11_REG    = ADC_therm_CFG2_DSM_CR11;
1336:Generated_Source\PSoC5/ADC_therm.c ****             ADC_therm_DSM_CR12_REG    = ADC_therm_CFG2_DSM_CR12;
1337:Generated_Source\PSoC5/ADC_therm.c ****             ADC_therm_DSM_CR14_REG    = ADC_therm_CFG2_DSM_CR14;
1338:Generated_Source\PSoC5/ADC_therm.c ****             ADC_therm_DSM_CR15_REG    = ADC_therm_CFG2_DSM_CR15;
1339:Generated_Source\PSoC5/ADC_therm.c ****             ADC_therm_DSM_CR16_REG    = ADC_therm_CFG2_DSM_CR16;
1340:Generated_Source\PSoC5/ADC_therm.c ****             ADC_therm_DSM_CR17_REG    = ADC_therm_CFG2_DSM_CR17;
1341:Generated_Source\PSoC5/ADC_therm.c ****             /* Set DSM_REF0_REG by disabling and enabling the PRESS cirucit */
1342:Generated_Source\PSoC5/ADC_therm.c ****             ADC_therm_SetDSMRef0Reg(ADC_therm_CFG2_DSM_REF0);
1343:Generated_Source\PSoC5/ADC_therm.c ****             ADC_therm_DSM_REF2_REG    = ADC_therm_CFG2_DSM_REF2;
1344:Generated_Source\PSoC5/ADC_therm.c ****             ADC_therm_DSM_REF3_REG    = ADC_therm_CFG2_DSM_REF3;
1345:Generated_Source\PSoC5/ADC_therm.c **** 
1346:Generated_Source\PSoC5/ADC_therm.c ****             ADC_therm_DSM_BUF0_REG    = ADC_therm_CFG2_DSM_BUF0;
1347:Generated_Source\PSoC5/ADC_therm.c ****             ADC_therm_DSM_BUF1_REG    = ADC_therm_CFG2_DSM_BUF1;
1348:Generated_Source\PSoC5/ADC_therm.c ****             ADC_therm_DSM_BUF2_REG    = ADC_therm_CFG2_DSM_BUF2;
1349:Generated_Source\PSoC5/ADC_therm.c ****             ADC_therm_DSM_BUF3_REG    = ADC_therm_CFG2_DSM_BUF3;
1350:Generated_Source\PSoC5/ADC_therm.c **** 
1351:Generated_Source\PSoC5/ADC_therm.c ****             /* To select either Vssa or Vref to -ve input of DSM depending on
1352:Generated_Source\PSoC5/ADC_therm.c ****             *  the input range selected.
1353:Generated_Source\PSoC5/ADC_therm.c ****             */
1354:Generated_Source\PSoC5/ADC_therm.c **** 
1355:Generated_Source\PSoC5/ADC_therm.c ****             #if(ADC_therm_DEFAULT_INPUT_MODE)
1356:Generated_Source\PSoC5/ADC_therm.c ****                 #if (ADC_therm_CFG2_INPUT_RANGE == ADC_therm_IR_VSSA_TO_2VREF)
1357:Generated_Source\PSoC5/ADC_therm.c ****                     ADC_therm_AMux_Select(1u);
1358:Generated_Source\PSoC5/ADC_therm.c ****                 #else
1359:Generated_Source\PSoC5/ADC_therm.c ****                     ADC_therm_AMux_Select(0u);
1360:Generated_Source\PSoC5/ADC_therm.c ****                 #endif /* ADC_therm_IR_VSSA_TO_2VREF) */
1361:Generated_Source\PSoC5/ADC_therm.c ****             #endif /* ADC_therm_DEFAULT_INPUT_MODE */
1362:Generated_Source\PSoC5/ADC_therm.c **** 
1363:Generated_Source\PSoC5/ADC_therm.c ****             /* Set the Conversion stop if resolution is above 16 bit and
ARM GAS  C:\Users\chemi\AppData\Local\Temp\ccksh7Yh.s 			page 27


1364:Generated_Source\PSoC5/ADC_therm.c ****             *   conversion mode is Single sample
1365:Generated_Source\PSoC5/ADC_therm.c ****             */
1366:Generated_Source\PSoC5/ADC_therm.c ****             #if(ADC_therm_CFG2_RESOLUTION > 16 && \
1367:Generated_Source\PSoC5/ADC_therm.c ****                 ADC_therm_CFG2_CONV_MODE == ADC_therm_MODE_SINGLE_SAMPLE)
1368:Generated_Source\PSoC5/ADC_therm.c ****                 ADC_therm_stopConversion = 1u;
1369:Generated_Source\PSoC5/ADC_therm.c ****             #endif /* Single sample with resolution above 16 bits. */
1370:Generated_Source\PSoC5/ADC_therm.c **** 
1371:Generated_Source\PSoC5/ADC_therm.c ****             ADC_therm_CountsPerVolt = (int32)ADC_therm_CFG2_COUNTS_PER_VOLT;
1372:Generated_Source\PSoC5/ADC_therm.c **** 
1373:Generated_Source\PSoC5/ADC_therm.c ****             ADC_therm_Ext_CP_Clk_SetDividerRegister(ADC_therm_CFG2_CP_CLK_DIVIDER, 1u);
1374:Generated_Source\PSoC5/ADC_therm.c **** 
1375:Generated_Source\PSoC5/ADC_therm.c ****             /* This is only valid if there is an internal clock */
1376:Generated_Source\PSoC5/ADC_therm.c ****             #if(ADC_therm_DEFAULT_INTERNAL_CLK)
1377:Generated_Source\PSoC5/ADC_therm.c ****                 ADC_therm_theACLK_SetDividerRegister(ADC_therm_CFG2_ADC_CLK_DIVIDER, 1u);
1378:Generated_Source\PSoC5/ADC_therm.c ****             #endif /* ADC_therm_DEFAULT_INTERNAL_CLK */
1379:Generated_Source\PSoC5/ADC_therm.c **** 
1380:Generated_Source\PSoC5/ADC_therm.c ****             #if(ADC_therm_IRQ_REMOVE == 0u)
1381:Generated_Source\PSoC5/ADC_therm.c ****                 /* Set interrupt vector */
1382:Generated_Source\PSoC5/ADC_therm.c ****                 (void)CyIntSetVector(ADC_therm_INTC_NUMBER, &ADC_therm_ISR2);
1383:Generated_Source\PSoC5/ADC_therm.c ****             #endif   /* End ADC_therm_IRQ_REMOVE */
1384:Generated_Source\PSoC5/ADC_therm.c ****         }
1385:Generated_Source\PSoC5/ADC_therm.c ****     #endif /* ADC_therm_DEFAULT_NUM_CONFIGS > 1 */
1386:Generated_Source\PSoC5/ADC_therm.c **** 
1387:Generated_Source\PSoC5/ADC_therm.c ****     #if(ADC_therm_DEFAULT_NUM_CONFIGS > 2)
1388:Generated_Source\PSoC5/ADC_therm.c ****         if(config == 3u)
1389:Generated_Source\PSoC5/ADC_therm.c ****         {
1390:Generated_Source\PSoC5/ADC_therm.c ****             /* Third Config */
1391:Generated_Source\PSoC5/ADC_therm.c ****             ADC_therm_DEC_CR_REG      = ADC_therm_CFG3_DEC_CR;
1392:Generated_Source\PSoC5/ADC_therm.c ****             ADC_therm_DEC_SHIFT1_REG  = ADC_therm_CFG3_DEC_SHIFT1;
1393:Generated_Source\PSoC5/ADC_therm.c ****             ADC_therm_DEC_SHIFT2_REG  = ADC_therm_CFG3_DEC_SHIFT2;
1394:Generated_Source\PSoC5/ADC_therm.c ****             ADC_therm_DEC_DR2_REG     = ADC_therm_CFG3_DEC_DR2;
1395:Generated_Source\PSoC5/ADC_therm.c ****             ADC_therm_DEC_DR2H_REG    = ADC_therm_CFG3_DEC_DR2H;
1396:Generated_Source\PSoC5/ADC_therm.c ****             ADC_therm_DEC_DR1_REG     = ADC_therm_CFG3_DEC_DR1;
1397:Generated_Source\PSoC5/ADC_therm.c ****             ADC_therm_DEC_OCOR_REG    = ADC_therm_CFG3_DEC_OCOR;
1398:Generated_Source\PSoC5/ADC_therm.c ****             ADC_therm_DEC_OCORM_REG   = ADC_therm_CFG3_DEC_OCORM;
1399:Generated_Source\PSoC5/ADC_therm.c ****             ADC_therm_DEC_OCORH_REG   = ADC_therm_CFG3_DEC_OCORH;
1400:Generated_Source\PSoC5/ADC_therm.c ****             ADC_therm_DEC_COHER_REG   = ADC_therm_CFG3_DEC_COHER;
1401:Generated_Source\PSoC5/ADC_therm.c **** 
1402:Generated_Source\PSoC5/ADC_therm.c ****             ADC_therm_DSM_CR4_REG     = ADC_therm_CFG3_DSM_CR4;
1403:Generated_Source\PSoC5/ADC_therm.c ****             ADC_therm_DSM_CR5_REG     = ADC_therm_CFG3_DSM_CR5;
1404:Generated_Source\PSoC5/ADC_therm.c ****             ADC_therm_DSM_CR6_REG     = ADC_therm_CFG3_DSM_CR6;
1405:Generated_Source\PSoC5/ADC_therm.c ****             ADC_therm_DSM_CR7_REG     = ADC_therm_CFG3_DSM_CR7;
1406:Generated_Source\PSoC5/ADC_therm.c ****             ADC_therm_DSM_CR10_REG    = ADC_therm_CFG3_DSM_CR10;
1407:Generated_Source\PSoC5/ADC_therm.c ****             ADC_therm_DSM_CR11_REG    = ADC_therm_CFG3_DSM_CR11;
1408:Generated_Source\PSoC5/ADC_therm.c ****             ADC_therm_DSM_CR12_REG    = ADC_therm_CFG3_DSM_CR12;
1409:Generated_Source\PSoC5/ADC_therm.c ****             ADC_therm_DSM_CR14_REG    = ADC_therm_CFG3_DSM_CR14;
1410:Generated_Source\PSoC5/ADC_therm.c ****             ADC_therm_DSM_CR15_REG    = ADC_therm_CFG3_DSM_CR15;
1411:Generated_Source\PSoC5/ADC_therm.c ****             ADC_therm_DSM_CR16_REG    = ADC_therm_CFG3_DSM_CR16;
1412:Generated_Source\PSoC5/ADC_therm.c ****             ADC_therm_DSM_CR17_REG    = ADC_therm_CFG3_DSM_CR17;
1413:Generated_Source\PSoC5/ADC_therm.c ****             /* Set DSM_REF0_REG by disabling and enabling the PRESS circuit */
1414:Generated_Source\PSoC5/ADC_therm.c ****             ADC_therm_SetDSMRef0Reg(ADC_therm_CFG3_DSM_REF0);
1415:Generated_Source\PSoC5/ADC_therm.c ****             ADC_therm_DSM_REF2_REG    = ADC_therm_CFG3_DSM_REF2;
1416:Generated_Source\PSoC5/ADC_therm.c ****             ADC_therm_DSM_REF3_REG    = ADC_therm_CFG3_DSM_REF3;
1417:Generated_Source\PSoC5/ADC_therm.c **** 
1418:Generated_Source\PSoC5/ADC_therm.c ****             ADC_therm_DSM_BUF0_REG    = ADC_therm_CFG3_DSM_BUF0;
1419:Generated_Source\PSoC5/ADC_therm.c ****             ADC_therm_DSM_BUF1_REG    = ADC_therm_CFG3_DSM_BUF1;
1420:Generated_Source\PSoC5/ADC_therm.c ****             ADC_therm_DSM_BUF2_REG    = ADC_therm_CFG3_DSM_BUF2;
ARM GAS  C:\Users\chemi\AppData\Local\Temp\ccksh7Yh.s 			page 28


1421:Generated_Source\PSoC5/ADC_therm.c ****             ADC_therm_DSM_BUF3_REG    = ADC_therm_CFG3_DSM_BUF3;
1422:Generated_Source\PSoC5/ADC_therm.c **** 
1423:Generated_Source\PSoC5/ADC_therm.c ****             /* To select either Vssa or Vref to -ve input of DSM depending on
1424:Generated_Source\PSoC5/ADC_therm.c ****             *  the input range selected.
1425:Generated_Source\PSoC5/ADC_therm.c ****             */
1426:Generated_Source\PSoC5/ADC_therm.c ****             #if(ADC_therm_DEFAULT_INPUT_MODE)
1427:Generated_Source\PSoC5/ADC_therm.c ****                 #if (ADC_therm_CFG3_INPUT_RANGE == ADC_therm_IR_VSSA_TO_2VREF)
1428:Generated_Source\PSoC5/ADC_therm.c ****                     ADC_therm_AMux_Select(1u);
1429:Generated_Source\PSoC5/ADC_therm.c ****                 #else
1430:Generated_Source\PSoC5/ADC_therm.c ****                     ADC_therm_AMux_Select(0u);
1431:Generated_Source\PSoC5/ADC_therm.c ****                 #endif /* ADC_therm_IR_VSSA_TO_2VREF) */
1432:Generated_Source\PSoC5/ADC_therm.c ****             #endif /* ADC_therm_DEFAULT_INPUT_MODE */
1433:Generated_Source\PSoC5/ADC_therm.c **** 
1434:Generated_Source\PSoC5/ADC_therm.c ****             /* Set the Conversion stop if resolution is above 16 bit and
1435:Generated_Source\PSoC5/ADC_therm.c ****                conversion  mode is Single sample */
1436:Generated_Source\PSoC5/ADC_therm.c ****             #if(ADC_therm_CFG3_RESOLUTION > 16 && \
1437:Generated_Source\PSoC5/ADC_therm.c ****                 ADC_therm_CFG3_CONV_MODE == ADC_therm_MODE_SINGLE_SAMPLE)
1438:Generated_Source\PSoC5/ADC_therm.c ****                 ADC_therm_stopConversion = 1u;
1439:Generated_Source\PSoC5/ADC_therm.c ****             #endif /* Single sample with resolution above 16 bits */
1440:Generated_Source\PSoC5/ADC_therm.c **** 
1441:Generated_Source\PSoC5/ADC_therm.c ****             ADC_therm_CountsPerVolt = (int32)ADC_therm_CFG3_COUNTS_PER_VOLT;
1442:Generated_Source\PSoC5/ADC_therm.c **** 
1443:Generated_Source\PSoC5/ADC_therm.c ****             ADC_therm_Ext_CP_Clk_SetDividerRegister(ADC_therm_CFG3_CP_CLK_DIVIDER, 1u);
1444:Generated_Source\PSoC5/ADC_therm.c **** 
1445:Generated_Source\PSoC5/ADC_therm.c ****             /* This is only valid if there is an internal clock */
1446:Generated_Source\PSoC5/ADC_therm.c ****             #if(ADC_therm_DEFAULT_INTERNAL_CLK)
1447:Generated_Source\PSoC5/ADC_therm.c ****                 ADC_therm_theACLK_SetDividerRegister(ADC_therm_CFG3_ADC_CLK_DIVIDER, 1u);
1448:Generated_Source\PSoC5/ADC_therm.c ****             #endif /* ADC_therm_DEFAULT_INTERNAL_CLK */
1449:Generated_Source\PSoC5/ADC_therm.c **** 
1450:Generated_Source\PSoC5/ADC_therm.c ****             #if(ADC_therm_IRQ_REMOVE == 0u)
1451:Generated_Source\PSoC5/ADC_therm.c ****                 /* Set interrupt vector */
1452:Generated_Source\PSoC5/ADC_therm.c ****                 (void)CyIntSetVector(ADC_therm_INTC_NUMBER, &ADC_therm_ISR3);
1453:Generated_Source\PSoC5/ADC_therm.c ****             #endif   /* End ADC_therm_IRQ_REMOVE */
1454:Generated_Source\PSoC5/ADC_therm.c ****         }
1455:Generated_Source\PSoC5/ADC_therm.c ****     #endif /* ADC_therm_DEFAULT_NUM_CONFIGS > 2 */
1456:Generated_Source\PSoC5/ADC_therm.c **** 
1457:Generated_Source\PSoC5/ADC_therm.c ****     #if(ADC_therm_DEFAULT_NUM_CONFIGS > 3)
1458:Generated_Source\PSoC5/ADC_therm.c ****         if (config == 4u)
1459:Generated_Source\PSoC5/ADC_therm.c ****         {
1460:Generated_Source\PSoC5/ADC_therm.c ****             /* Fourth Config */
1461:Generated_Source\PSoC5/ADC_therm.c ****             ADC_therm_DEC_CR_REG      = ADC_therm_CFG4_DEC_CR;
1462:Generated_Source\PSoC5/ADC_therm.c ****             ADC_therm_DEC_SHIFT1_REG  = ADC_therm_CFG4_DEC_SHIFT1;
1463:Generated_Source\PSoC5/ADC_therm.c ****             ADC_therm_DEC_SHIFT2_REG  = ADC_therm_CFG4_DEC_SHIFT2;
1464:Generated_Source\PSoC5/ADC_therm.c ****             ADC_therm_DEC_DR2_REG     = ADC_therm_CFG4_DEC_DR2;
1465:Generated_Source\PSoC5/ADC_therm.c ****             ADC_therm_DEC_DR2H_REG    = ADC_therm_CFG4_DEC_DR2H;
1466:Generated_Source\PSoC5/ADC_therm.c ****             ADC_therm_DEC_DR1_REG     = ADC_therm_CFG4_DEC_DR1;
1467:Generated_Source\PSoC5/ADC_therm.c ****             ADC_therm_DEC_OCOR_REG    = ADC_therm_CFG4_DEC_OCOR;
1468:Generated_Source\PSoC5/ADC_therm.c ****             ADC_therm_DEC_OCORM_REG   = ADC_therm_CFG4_DEC_OCORM;
1469:Generated_Source\PSoC5/ADC_therm.c ****             ADC_therm_DEC_OCORH_REG   = ADC_therm_CFG4_DEC_OCORH;
1470:Generated_Source\PSoC5/ADC_therm.c ****             ADC_therm_DEC_COHER_REG   = ADC_therm_CFG4_DEC_COHER;
1471:Generated_Source\PSoC5/ADC_therm.c **** 
1472:Generated_Source\PSoC5/ADC_therm.c ****             ADC_therm_DSM_CR4_REG     = ADC_therm_CFG4_DSM_CR4;
1473:Generated_Source\PSoC5/ADC_therm.c ****             ADC_therm_DSM_CR5_REG     = ADC_therm_CFG4_DSM_CR5;
1474:Generated_Source\PSoC5/ADC_therm.c ****             ADC_therm_DSM_CR6_REG     = ADC_therm_CFG4_DSM_CR6;
1475:Generated_Source\PSoC5/ADC_therm.c ****             ADC_therm_DSM_CR7_REG     = ADC_therm_CFG4_DSM_CR7;
1476:Generated_Source\PSoC5/ADC_therm.c ****             ADC_therm_DSM_CR10_REG    = ADC_therm_CFG4_DSM_CR10;
1477:Generated_Source\PSoC5/ADC_therm.c ****             ADC_therm_DSM_CR11_REG    = ADC_therm_CFG4_DSM_CR11;
ARM GAS  C:\Users\chemi\AppData\Local\Temp\ccksh7Yh.s 			page 29


1478:Generated_Source\PSoC5/ADC_therm.c ****             ADC_therm_DSM_CR12_REG    = ADC_therm_CFG4_DSM_CR12;
1479:Generated_Source\PSoC5/ADC_therm.c ****             ADC_therm_DSM_CR14_REG    = ADC_therm_CFG4_DSM_CR14;
1480:Generated_Source\PSoC5/ADC_therm.c ****             ADC_therm_DSM_CR15_REG    = ADC_therm_CFG4_DSM_CR15;
1481:Generated_Source\PSoC5/ADC_therm.c ****             ADC_therm_DSM_CR16_REG    = ADC_therm_CFG4_DSM_CR16;
1482:Generated_Source\PSoC5/ADC_therm.c ****             ADC_therm_DSM_CR17_REG    = ADC_therm_CFG4_DSM_CR17;
1483:Generated_Source\PSoC5/ADC_therm.c ****             /* Set DSM_REF0_REG by disabling and enabling the PRESS circuit */
1484:Generated_Source\PSoC5/ADC_therm.c ****             ADC_therm_SetDSMRef0Reg(ADC_therm_CFG4_DSM_REF0);
1485:Generated_Source\PSoC5/ADC_therm.c ****             ADC_therm_DSM_REF2_REG    = ADC_therm_CFG4_DSM_REF2;
1486:Generated_Source\PSoC5/ADC_therm.c ****             ADC_therm_DSM_REF3_REG    = ADC_therm_CFG4_DSM_REF3;
1487:Generated_Source\PSoC5/ADC_therm.c **** 
1488:Generated_Source\PSoC5/ADC_therm.c ****             ADC_therm_DSM_BUF0_REG    = ADC_therm_CFG4_DSM_BUF0;
1489:Generated_Source\PSoC5/ADC_therm.c ****             ADC_therm_DSM_BUF1_REG    = ADC_therm_CFG4_DSM_BUF1;
1490:Generated_Source\PSoC5/ADC_therm.c ****             ADC_therm_DSM_BUF2_REG    = ADC_therm_CFG4_DSM_BUF2;
1491:Generated_Source\PSoC5/ADC_therm.c ****             ADC_therm_DSM_BUF3_REG    = ADC_therm_CFG4_DSM_BUF3;
1492:Generated_Source\PSoC5/ADC_therm.c **** 
1493:Generated_Source\PSoC5/ADC_therm.c ****             /* To select either Vssa or Vref to -ve input of DSM depending on
1494:Generated_Source\PSoC5/ADC_therm.c ****             *  the input range selected.
1495:Generated_Source\PSoC5/ADC_therm.c ****             */
1496:Generated_Source\PSoC5/ADC_therm.c ****             #if(ADC_therm_DEFAULT_INPUT_MODE)
1497:Generated_Source\PSoC5/ADC_therm.c ****                 #if (ADC_therm_CFG4_INPUT_RANGE == ADC_therm_IR_VSSA_TO_2VREF)
1498:Generated_Source\PSoC5/ADC_therm.c ****                     ADC_therm_AMux_Select(1u);
1499:Generated_Source\PSoC5/ADC_therm.c ****                 #else
1500:Generated_Source\PSoC5/ADC_therm.c ****                     ADC_therm_AMux_Select(0u);
1501:Generated_Source\PSoC5/ADC_therm.c ****                 #endif /* ADC_therm_IR_VSSA_TO_2VREF) */
1502:Generated_Source\PSoC5/ADC_therm.c ****             #endif /* ADC_therm_DEFAULT_INPUT_MODE */
1503:Generated_Source\PSoC5/ADC_therm.c **** 
1504:Generated_Source\PSoC5/ADC_therm.c ****             /* Set the Conversion stop if resolution is above 16 bit and
1505:Generated_Source\PSoC5/ADC_therm.c ****                conversion mode is Single sample */
1506:Generated_Source\PSoC5/ADC_therm.c ****             #if(ADC_therm_CFG4_RESOLUTION > 16 && \
1507:Generated_Source\PSoC5/ADC_therm.c ****                 ADC_therm_CFG4_CONV_MODE == ADC_therm_MODE_SINGLE_SAMPLE)
1508:Generated_Source\PSoC5/ADC_therm.c ****                 ADC_therm_stopConversion = 1u;
1509:Generated_Source\PSoC5/ADC_therm.c ****             #endif /* Single sample with resolution above 16 bits */
1510:Generated_Source\PSoC5/ADC_therm.c **** 
1511:Generated_Source\PSoC5/ADC_therm.c ****             ADC_therm_CountsPerVolt = (int32)ADC_therm_CFG4_COUNTS_PER_VOLT;
1512:Generated_Source\PSoC5/ADC_therm.c **** 
1513:Generated_Source\PSoC5/ADC_therm.c ****             ADC_therm_Ext_CP_Clk_SetDividerRegister(ADC_therm_CFG4_CP_CLK_DIVIDER, 1u);
1514:Generated_Source\PSoC5/ADC_therm.c **** 
1515:Generated_Source\PSoC5/ADC_therm.c ****             /* This is only valid if there is an internal clock */
1516:Generated_Source\PSoC5/ADC_therm.c ****             #if(ADC_therm_DEFAULT_INTERNAL_CLK)
1517:Generated_Source\PSoC5/ADC_therm.c ****                 ADC_therm_theACLK_SetDividerRegister(ADC_therm_CFG4_ADC_CLK_DIVIDER, 1u);
1518:Generated_Source\PSoC5/ADC_therm.c ****             #endif /* ADC_therm_DEFAULT_INTERNAL_CLK */
1519:Generated_Source\PSoC5/ADC_therm.c **** 
1520:Generated_Source\PSoC5/ADC_therm.c ****             #if(ADC_therm_IRQ_REMOVE == 0u)
1521:Generated_Source\PSoC5/ADC_therm.c ****                 /* Set interrupt vector */
1522:Generated_Source\PSoC5/ADC_therm.c ****                 (void)CyIntSetVector(ADC_therm_INTC_NUMBER, &ADC_therm_ISR4);
1523:Generated_Source\PSoC5/ADC_therm.c ****             #endif   /* End ADC_therm_IRQ_REMOVE */
1524:Generated_Source\PSoC5/ADC_therm.c ****         }
1525:Generated_Source\PSoC5/ADC_therm.c ****     #endif /* ADC_therm_DEFAULT_NUM_CONFIGS > 3 */
1526:Generated_Source\PSoC5/ADC_therm.c **** }
1527:Generated_Source\PSoC5/ADC_therm.c **** 
1528:Generated_Source\PSoC5/ADC_therm.c **** 
1529:Generated_Source\PSoC5/ADC_therm.c **** /*******************************************************************************
1530:Generated_Source\PSoC5/ADC_therm.c **** * Function Name: ADC_therm_SelectCofiguration
1531:Generated_Source\PSoC5/ADC_therm.c **** ********************************************************************************
1532:Generated_Source\PSoC5/ADC_therm.c **** *
1533:Generated_Source\PSoC5/ADC_therm.c **** * Summary:
1534:Generated_Source\PSoC5/ADC_therm.c **** *  Sets one of up to four ADC configurations. Before setting the new
ARM GAS  C:\Users\chemi\AppData\Local\Temp\ccksh7Yh.s 			page 30


1535:Generated_Source\PSoC5/ADC_therm.c **** *  configuration, the ADC is stopped and powered down. After setting
1536:Generated_Source\PSoC5/ADC_therm.c **** *  the new configuration, the ADC can be powered and conversion
1537:Generated_Source\PSoC5/ADC_therm.c **** *  can be restarted depending up on the value of second parameter
1538:Generated_Source\PSoC5/ADC_therm.c **** *  restart. If the value of this parameter is 1, then ADC will be
1539:Generated_Source\PSoC5/ADC_therm.c **** *  restarted. If this value is zero, then user must call ADC_therm_Start
1540:Generated_Source\PSoC5/ADC_therm.c **** *  and ADC_therm_StartConvert() to restart the conversion.
1541:Generated_Source\PSoC5/ADC_therm.c **** *
1542:Generated_Source\PSoC5/ADC_therm.c **** * Parameters:
1543:Generated_Source\PSoC5/ADC_therm.c **** *  config:  configuration user wants to select.
1544:Generated_Source\PSoC5/ADC_therm.c **** *           Valid range: 1..4
1545:Generated_Source\PSoC5/ADC_therm.c **** *  restart:  Restart option. 1 means start the ADC and restart the conversion.
1546:Generated_Source\PSoC5/ADC_therm.c **** *                            0 means do not start the ADC and conversion.
1547:Generated_Source\PSoC5/ADC_therm.c **** *
1548:Generated_Source\PSoC5/ADC_therm.c **** * Return:
1549:Generated_Source\PSoC5/ADC_therm.c **** *  None
1550:Generated_Source\PSoC5/ADC_therm.c **** *
1551:Generated_Source\PSoC5/ADC_therm.c **** *******************************************************************************/
1552:Generated_Source\PSoC5/ADC_therm.c **** void ADC_therm_SelectConfiguration(uint8 config, uint8 restart)
1553:Generated_Source\PSoC5/ADC_therm.c ****                                               
1554:Generated_Source\PSoC5/ADC_therm.c **** {
1555:Generated_Source\PSoC5/ADC_therm.c ****     /* Check whether the configuration number is valid or not */
1556:Generated_Source\PSoC5/ADC_therm.c ****     if((config > 0u) && (config <= ADC_therm_DEFAULT_NUM_CONFIGS))
1557:Generated_Source\PSoC5/ADC_therm.c ****     {
1558:Generated_Source\PSoC5/ADC_therm.c ****         /* Set the flag to ensure Start() API doesn't override the 
1559:Generated_Source\PSoC5/ADC_therm.c **** 		*  selected configuration
1560:Generated_Source\PSoC5/ADC_therm.c **** 		*/
1561:Generated_Source\PSoC5/ADC_therm.c ****         if(ADC_therm_initVar == 0u)
1562:Generated_Source\PSoC5/ADC_therm.c ****         {
1563:Generated_Source\PSoC5/ADC_therm.c ****             ADC_therm_started = 1u;
1564:Generated_Source\PSoC5/ADC_therm.c ****         }
1565:Generated_Source\PSoC5/ADC_therm.c **** 
1566:Generated_Source\PSoC5/ADC_therm.c ****         /* Update the config flag */
1567:Generated_Source\PSoC5/ADC_therm.c ****         ADC_therm_Config = config;
1568:Generated_Source\PSoC5/ADC_therm.c **** 
1569:Generated_Source\PSoC5/ADC_therm.c ****         /* Stop the ADC  */
1570:Generated_Source\PSoC5/ADC_therm.c ****         ADC_therm_Stop();
1571:Generated_Source\PSoC5/ADC_therm.c **** 
1572:Generated_Source\PSoC5/ADC_therm.c ****         /* Set the  ADC registers based on the configuration */
1573:Generated_Source\PSoC5/ADC_therm.c ****         ADC_therm_InitConfig(config);
1574:Generated_Source\PSoC5/ADC_therm.c **** 
1575:Generated_Source\PSoC5/ADC_therm.c ****         /* Compensate the gain */
1576:Generated_Source\PSoC5/ADC_therm.c ****         ADC_therm_DEC_GVAL_REG = ADC_therm_gcor[config - 1u].gval;
1577:Generated_Source\PSoC5/ADC_therm.c ****         CY_SET_REG16(ADC_therm_DEC_GCOR_16B_PTR, ADC_therm_gcor[config - 1u].gcor);
1578:Generated_Source\PSoC5/ADC_therm.c **** 
1579:Generated_Source\PSoC5/ADC_therm.c ****         if(restart == 1u)
1580:Generated_Source\PSoC5/ADC_therm.c ****         {
1581:Generated_Source\PSoC5/ADC_therm.c ****             /* Restart the ADC */
1582:Generated_Source\PSoC5/ADC_therm.c ****             ADC_therm_Start();
1583:Generated_Source\PSoC5/ADC_therm.c **** 
1584:Generated_Source\PSoC5/ADC_therm.c ****             /* Restart the ADC conversion */
1585:Generated_Source\PSoC5/ADC_therm.c ****             ADC_therm_StartConvert();
1586:Generated_Source\PSoC5/ADC_therm.c ****         }
1587:Generated_Source\PSoC5/ADC_therm.c ****     }
1588:Generated_Source\PSoC5/ADC_therm.c ****     else
1589:Generated_Source\PSoC5/ADC_therm.c ****     {
1590:Generated_Source\PSoC5/ADC_therm.c ****         /* Halt CPU in debug mode if config is out of valid range */
1591:Generated_Source\PSoC5/ADC_therm.c ****         CYASSERT(0u != 0u);
ARM GAS  C:\Users\chemi\AppData\Local\Temp\ccksh7Yh.s 			page 31


1592:Generated_Source\PSoC5/ADC_therm.c ****     }
1593:Generated_Source\PSoC5/ADC_therm.c **** }
1594:Generated_Source\PSoC5/ADC_therm.c **** 
1595:Generated_Source\PSoC5/ADC_therm.c **** 
1596:Generated_Source\PSoC5/ADC_therm.c **** /*******************************************************************************
1597:Generated_Source\PSoC5/ADC_therm.c **** * Function Name: ADC_therm_GainCompensation
1598:Generated_Source\PSoC5/ADC_therm.c **** ********************************************************************************
1599:Generated_Source\PSoC5/ADC_therm.c **** *
1600:Generated_Source\PSoC5/ADC_therm.c **** * Summary:
1601:Generated_Source\PSoC5/ADC_therm.c **** *  This API calculates the trim value and then store this to gcor structure.
1602:Generated_Source\PSoC5/ADC_therm.c **** *
1603:Generated_Source\PSoC5/ADC_therm.c **** * Parameters:
1604:Generated_Source\PSoC5/ADC_therm.c **** *  inputRange:  input range for which trim value is to be calculated.
1605:Generated_Source\PSoC5/ADC_therm.c **** *  IdealDecGain:  Ideal Decimator gain for the selected resolution and
1606:Generated_Source\PSoC5/ADC_therm.c **** *                 conversion  mode.
1607:Generated_Source\PSoC5/ADC_therm.c **** *  IdealOddDecGain:  Ideal odd decimation gain for the selected resolution and
1608:Generated_Source\PSoC5/ADC_therm.c ****                      conversion mode.
1609:Generated_Source\PSoC5/ADC_therm.c **** *  resolution:  Resolution to select the proper flash location for trim value.
1610:Generated_Source\PSoC5/ADC_therm.c **** *  config:      Specifies the configuration number
1611:Generated_Source\PSoC5/ADC_therm.c **** *               Valid range: 1..4
1612:Generated_Source\PSoC5/ADC_therm.c **** *
1613:Generated_Source\PSoC5/ADC_therm.c **** * Return:
1614:Generated_Source\PSoC5/ADC_therm.c **** *  None
1615:Generated_Source\PSoC5/ADC_therm.c **** *
1616:Generated_Source\PSoC5/ADC_therm.c **** *******************************************************************************/
1617:Generated_Source\PSoC5/ADC_therm.c **** static void ADC_therm_GainCompensation(uint8 inputRange, uint16 idealDecGain, uint16 idealOddDecGai
1618:Generated_Source\PSoC5/ADC_therm.c ****                               uint8 resolution, uint8 config) 
1619:Generated_Source\PSoC5/ADC_therm.c **** {
1620:Generated_Source\PSoC5/ADC_therm.c ****     int8 flash;
1621:Generated_Source\PSoC5/ADC_therm.c **** 	int32 normalised;
1622:Generated_Source\PSoC5/ADC_therm.c **** 	uint16 gcorValue;
1623:Generated_Source\PSoC5/ADC_therm.c ****     uint32 gcorTmp;
1624:Generated_Source\PSoC5/ADC_therm.c **** 
1625:Generated_Source\PSoC5/ADC_therm.c ****     if((config > 0u) && (config <= ADC_therm_DEFAULT_NUM_CONFIGS))
1626:Generated_Source\PSoC5/ADC_therm.c ****     {
1627:Generated_Source\PSoC5/ADC_therm.c ****         switch(inputRange)
1628:Generated_Source\PSoC5/ADC_therm.c ****         {
1629:Generated_Source\PSoC5/ADC_therm.c ****             case ADC_therm_IR_VNEG_VREF_DIFF:
1630:Generated_Source\PSoC5/ADC_therm.c ****             case ADC_therm_IR_VSSA_TO_2VREF:
1631:Generated_Source\PSoC5/ADC_therm.c ****                 /* Normalize the flash Value */
1632:Generated_Source\PSoC5/ADC_therm.c ****                 if(resolution > 15u)
1633:Generated_Source\PSoC5/ADC_therm.c ****                 {
1634:Generated_Source\PSoC5/ADC_therm.c ****                     flash = ADC_therm_DEC_TRIM_VREF_DIFF_16_20;
1635:Generated_Source\PSoC5/ADC_therm.c ****                 }
1636:Generated_Source\PSoC5/ADC_therm.c ****                 else
1637:Generated_Source\PSoC5/ADC_therm.c ****                 {
1638:Generated_Source\PSoC5/ADC_therm.c ****                     flash = ADC_therm_DEC_TRIM_VREF_DIFF_8_15;
1639:Generated_Source\PSoC5/ADC_therm.c ****                 }
1640:Generated_Source\PSoC5/ADC_therm.c ****                 break;
1641:Generated_Source\PSoC5/ADC_therm.c **** 
1642:Generated_Source\PSoC5/ADC_therm.c ****             case ADC_therm_IR_VNEG_VREF_2_DIFF:
1643:Generated_Source\PSoC5/ADC_therm.c ****                 /* Normalize the flash Value */
1644:Generated_Source\PSoC5/ADC_therm.c ****                 if(resolution > 15u)
1645:Generated_Source\PSoC5/ADC_therm.c ****                 {
1646:Generated_Source\PSoC5/ADC_therm.c ****                     flash = ADC_therm_DEC_TRIM_VREF_2_DIFF_16_20;
1647:Generated_Source\PSoC5/ADC_therm.c ****                 }
1648:Generated_Source\PSoC5/ADC_therm.c ****                 else
ARM GAS  C:\Users\chemi\AppData\Local\Temp\ccksh7Yh.s 			page 32


1649:Generated_Source\PSoC5/ADC_therm.c ****                 {
1650:Generated_Source\PSoC5/ADC_therm.c ****                     flash = ADC_therm_DEC_TRIM_VREF_2_DIFF_8_15;
1651:Generated_Source\PSoC5/ADC_therm.c ****                 }
1652:Generated_Source\PSoC5/ADC_therm.c ****                 break;
1653:Generated_Source\PSoC5/ADC_therm.c **** 
1654:Generated_Source\PSoC5/ADC_therm.c ****             case ADC_therm_IR_VNEG_VREF_4_DIFF:
1655:Generated_Source\PSoC5/ADC_therm.c ****                 /* Normalize the flash Value */
1656:Generated_Source\PSoC5/ADC_therm.c ****                 if(resolution > 15u)
1657:Generated_Source\PSoC5/ADC_therm.c ****                 {
1658:Generated_Source\PSoC5/ADC_therm.c ****                     flash = ADC_therm_DEC_TRIM_VREF_4_DIFF_16_20;
1659:Generated_Source\PSoC5/ADC_therm.c ****                 }
1660:Generated_Source\PSoC5/ADC_therm.c ****                 else
1661:Generated_Source\PSoC5/ADC_therm.c ****                 {
1662:Generated_Source\PSoC5/ADC_therm.c ****                     flash = ADC_therm_DEC_TRIM_VREF_4_DIFF_8_15;
1663:Generated_Source\PSoC5/ADC_therm.c ****                 }
1664:Generated_Source\PSoC5/ADC_therm.c ****                 break;
1665:Generated_Source\PSoC5/ADC_therm.c **** 
1666:Generated_Source\PSoC5/ADC_therm.c ****             case ADC_therm_IR_VNEG_VREF_16_DIFF:
1667:Generated_Source\PSoC5/ADC_therm.c ****                 /* Normalize the flash Value */
1668:Generated_Source\PSoC5/ADC_therm.c ****                 if(resolution > 15u)
1669:Generated_Source\PSoC5/ADC_therm.c ****                 {
1670:Generated_Source\PSoC5/ADC_therm.c ****                     flash = ADC_therm_DEC_TRIM_VREF_16_DIFF_16_20;
1671:Generated_Source\PSoC5/ADC_therm.c ****                 }
1672:Generated_Source\PSoC5/ADC_therm.c ****                 else
1673:Generated_Source\PSoC5/ADC_therm.c ****                 {
1674:Generated_Source\PSoC5/ADC_therm.c ****                     flash = ADC_therm_DEC_TRIM_VREF_16_DIFF_8_15;
1675:Generated_Source\PSoC5/ADC_therm.c ****                 }
1676:Generated_Source\PSoC5/ADC_therm.c ****                 break;
1677:Generated_Source\PSoC5/ADC_therm.c **** 
1678:Generated_Source\PSoC5/ADC_therm.c ****             default:
1679:Generated_Source\PSoC5/ADC_therm.c ****                 flash = 0;
1680:Generated_Source\PSoC5/ADC_therm.c ****                 break;
1681:Generated_Source\PSoC5/ADC_therm.c ****         }
1682:Generated_Source\PSoC5/ADC_therm.c **** 
1683:Generated_Source\PSoC5/ADC_therm.c ****         /* Add two values */
1684:Generated_Source\PSoC5/ADC_therm.c **** 		normalised = (int32)idealDecGain + ((int32)flash * 32);
1685:Generated_Source\PSoC5/ADC_therm.c ****         gcorTmp = (uint32)normalised * (uint32)idealOddDecGain;
1686:Generated_Source\PSoC5/ADC_therm.c ****         gcorValue = (uint16)(gcorTmp / ADC_therm_IDEAL_GAIN_CONST);
1687:Generated_Source\PSoC5/ADC_therm.c **** 
1688:Generated_Source\PSoC5/ADC_therm.c ****         if (resolution < (ADC_therm_MAX_GVAL - 1u))
1689:Generated_Source\PSoC5/ADC_therm.c ****         {
1690:Generated_Source\PSoC5/ADC_therm.c ****             gcorValue = (gcorValue >> (ADC_therm_MAX_GVAL - (resolution + 1u)));
1691:Generated_Source\PSoC5/ADC_therm.c ****             ADC_therm_gcor[config - 1u].gval = (resolution + 1u);
1692:Generated_Source\PSoC5/ADC_therm.c ****         }
1693:Generated_Source\PSoC5/ADC_therm.c ****         else
1694:Generated_Source\PSoC5/ADC_therm.c ****         {
1695:Generated_Source\PSoC5/ADC_therm.c ****             /* Use all 16 bits */
1696:Generated_Source\PSoC5/ADC_therm.c ****             ADC_therm_gcor[config - 1u].gval = ADC_therm_MAX_GVAL;
1697:Generated_Source\PSoC5/ADC_therm.c ****         }
1698:Generated_Source\PSoC5/ADC_therm.c **** 
1699:Generated_Source\PSoC5/ADC_therm.c ****         /* Save the gain correction register value */
1700:Generated_Source\PSoC5/ADC_therm.c ****         ADC_therm_gcor[config - 1u].gcor = gcorValue;
1701:Generated_Source\PSoC5/ADC_therm.c ****     }
1702:Generated_Source\PSoC5/ADC_therm.c ****     else
1703:Generated_Source\PSoC5/ADC_therm.c ****     {
1704:Generated_Source\PSoC5/ADC_therm.c ****         /* Halt CPU in debug mode if config is out of valid range */
1705:Generated_Source\PSoC5/ADC_therm.c ****         CYASSERT(0u != 0u);
ARM GAS  C:\Users\chemi\AppData\Local\Temp\ccksh7Yh.s 			page 33


1706:Generated_Source\PSoC5/ADC_therm.c ****     }
1707:Generated_Source\PSoC5/ADC_therm.c **** }
1708:Generated_Source\PSoC5/ADC_therm.c **** 
1709:Generated_Source\PSoC5/ADC_therm.c **** 
1710:Generated_Source\PSoC5/ADC_therm.c **** /******************************************************************************
1711:Generated_Source\PSoC5/ADC_therm.c **** * Function Name: ADC_therm_SetDSMRef0Reg(uint8)
1712:Generated_Source\PSoC5/ADC_therm.c **** ******************************************************************************
1713:Generated_Source\PSoC5/ADC_therm.c **** *
1714:Generated_Source\PSoC5/ADC_therm.c **** * Summary:
1715:Generated_Source\PSoC5/ADC_therm.c **** *  This API sets the DSM_REF0 register. This is written for internal use.
1716:Generated_Source\PSoC5/ADC_therm.c **** *
1717:Generated_Source\PSoC5/ADC_therm.c **** * Parameters:
1718:Generated_Source\PSoC5/ADC_therm.c **** *  value:  Value to be written to DSM_REF0 register.
1719:Generated_Source\PSoC5/ADC_therm.c **** *
1720:Generated_Source\PSoC5/ADC_therm.c **** * Return:
1721:Generated_Source\PSoC5/ADC_therm.c **** *  None
1722:Generated_Source\PSoC5/ADC_therm.c **** *
1723:Generated_Source\PSoC5/ADC_therm.c **** ******************************************************************************/
1724:Generated_Source\PSoC5/ADC_therm.c **** static void ADC_therm_SetDSMRef0Reg(uint8 value) 
1725:Generated_Source\PSoC5/ADC_therm.c **** {
1726:Generated_Source\PSoC5/ADC_therm.c ****     uint8 enableInterrupts;
1727:Generated_Source\PSoC5/ADC_therm.c ****     enableInterrupts = CyEnterCriticalSection();
 111              		.loc 1 1727 0
 112 0068 FFF7FEFF 		bl	CyEnterCriticalSection
 113              	.LVL2:
 114 006c 8146     		mov	r9, r0
 115              	.LVL3:
1728:Generated_Source\PSoC5/ADC_therm.c **** 
1729:Generated_Source\PSoC5/ADC_therm.c ****     /* Disable PRES, Enable power to VCMBUF0, REFBUF0 and REFBUF1, enable PRES */
1730:Generated_Source\PSoC5/ADC_therm.c ****     ADC_therm_RESET_CR4_REG |= (ADC_therm_IGNORE_PRESA1 | ADC_therm_IGNORE_PRESD1);
 116              		.loc 1 1730 0
 117 006e 1C4F     		ldr	r7, .L2+4
1731:Generated_Source\PSoC5/ADC_therm.c ****     ADC_therm_RESET_CR5_REG |= (ADC_therm_IGNORE_PRESA2 | ADC_therm_IGNORE_PRESD2);
 118              		.loc 1 1731 0
 119 0070 1C4E     		ldr	r6, .L2+8
1730:Generated_Source\PSoC5/ADC_therm.c ****     ADC_therm_RESET_CR5_REG |= (ADC_therm_IGNORE_PRESA2 | ADC_therm_IGNORE_PRESD2);
 120              		.loc 1 1730 0
 121 0072 3B78     		ldrb	r3, [r7]	@ zero_extendqisi2
1732:Generated_Source\PSoC5/ADC_therm.c ****     ADC_therm_DSM_REF0_REG = value;
 122              		.loc 1 1732 0
 123 0074 5222     		movs	r2, #82
1730:Generated_Source\PSoC5/ADC_therm.c ****     ADC_therm_RESET_CR5_REG |= (ADC_therm_IGNORE_PRESA2 | ADC_therm_IGNORE_PRESD2);
 124              		.loc 1 1730 0
 125 0076 43F00303 		orr	r3, r3, #3
 126 007a 3B70     		strb	r3, [r7]
1731:Generated_Source\PSoC5/ADC_therm.c ****     ADC_therm_RESET_CR5_REG |= (ADC_therm_IGNORE_PRESA2 | ADC_therm_IGNORE_PRESD2);
 127              		.loc 1 1731 0
 128 007c 3378     		ldrb	r3, [r6]	@ zero_extendqisi2
1733:Generated_Source\PSoC5/ADC_therm.c **** 
1734:Generated_Source\PSoC5/ADC_therm.c ****     /* Wait for 3 microseconds */
1735:Generated_Source\PSoC5/ADC_therm.c ****     CyDelayUs(ADC_therm_PRES_DELAY_TIME);
 129              		.loc 1 1735 0
 130 007e 0320     		movs	r0, #3
1731:Generated_Source\PSoC5/ADC_therm.c ****     ADC_therm_DSM_REF0_REG = value;
 131              		.loc 1 1731 0
 132 0080 43F00303 		orr	r3, r3, #3
 133 0084 3370     		strb	r3, [r6]
ARM GAS  C:\Users\chemi\AppData\Local\Temp\ccksh7Yh.s 			page 34


1732:Generated_Source\PSoC5/ADC_therm.c ****     ADC_therm_DSM_REF0_REG = value;
 134              		.loc 1 1732 0
 135 0086 184B     		ldr	r3, .L2+12
 136 0088 1A70     		strb	r2, [r3]
 137              		.loc 1 1735 0
 138 008a FFF7FEFF 		bl	CyDelayUs
 139              	.LVL4:
1736:Generated_Source\PSoC5/ADC_therm.c ****     /* Enable the press circuit */
1737:Generated_Source\PSoC5/ADC_therm.c ****     ADC_therm_RESET_CR4_REG &= (uint8)~(ADC_therm_IGNORE_PRESA1 | ADC_therm_IGNORE_PRESD1);
 140              		.loc 1 1737 0
 141 008e 3B78     		ldrb	r3, [r7]	@ zero_extendqisi2
1738:Generated_Source\PSoC5/ADC_therm.c ****     ADC_therm_RESET_CR5_REG &= (uint8)~(ADC_therm_IGNORE_PRESA2 | ADC_therm_IGNORE_PRESD2);
1739:Generated_Source\PSoC5/ADC_therm.c **** 
1740:Generated_Source\PSoC5/ADC_therm.c ****     CyExitCriticalSection(enableInterrupts);
 142              		.loc 1 1740 0
 143 0090 4846     		mov	r0, r9
1737:Generated_Source\PSoC5/ADC_therm.c ****     ADC_therm_RESET_CR5_REG &= (uint8)~(ADC_therm_IGNORE_PRESA2 | ADC_therm_IGNORE_PRESD2);
 144              		.loc 1 1737 0
 145 0092 03F0FC03 		and	r3, r3, #252
 146 0096 3B70     		strb	r3, [r7]
1738:Generated_Source\PSoC5/ADC_therm.c ****     ADC_therm_RESET_CR5_REG &= (uint8)~(ADC_therm_IGNORE_PRESA2 | ADC_therm_IGNORE_PRESD2);
 147              		.loc 1 1738 0
 148 0098 3378     		ldrb	r3, [r6]	@ zero_extendqisi2
 149 009a 03F0FC03 		and	r3, r3, #252
 150 009e 3370     		strb	r3, [r6]
 151              		.loc 1 1740 0
 152 00a0 FFF7FEFF 		bl	CyExitCriticalSection
 153              	.LVL5:
 154              	.LBE5:
 155              	.LBE4:
1273:Generated_Source\PSoC5/ADC_therm.c ****         ADC_therm_DSM_REF3_REG    = ADC_therm_CFG1_DSM_REF3;
 156              		.loc 1 1273 0
 157 00a4 114B     		ldr	r3, .L2+16
 158 00a6 5822     		movs	r2, #88
 159 00a8 1A70     		strb	r2, [r3]
1288:Generated_Source\PSoC5/ADC_therm.c ****             #endif /* ADC_therm_IR_VSSA_TO_2VREF) */
 160              		.loc 1 1288 0
 161 00aa 2046     		mov	r0, r4
1274:Generated_Source\PSoC5/ADC_therm.c **** 
 162              		.loc 1 1274 0
 163 00ac 5C70     		strb	r4, [r3, #1]
1276:Generated_Source\PSoC5/ADC_therm.c ****         ADC_therm_DSM_BUF1_REG    = ADC_therm_CFG1_DSM_BUF1;
 164              		.loc 1 1276 0
 165 00ae 83F80680 		strb	r8, [r3, #6]
1277:Generated_Source\PSoC5/ADC_therm.c ****         ADC_therm_DSM_BUF2_REG    = ADC_therm_CFG1_DSM_BUF2;
 166              		.loc 1 1277 0
 167 00b2 83F80780 		strb	r8, [r3, #7]
1278:Generated_Source\PSoC5/ADC_therm.c ****         ADC_therm_DSM_BUF3_REG    = ADC_therm_CFG1_DSM_BUF3;
 168              		.loc 1 1278 0
 169 00b6 1C72     		strb	r4, [r3, #8]
1279:Generated_Source\PSoC5/ADC_therm.c **** 
 170              		.loc 1 1279 0
 171 00b8 5C72     		strb	r4, [r3, #9]
1288:Generated_Source\PSoC5/ADC_therm.c ****             #endif /* ADC_therm_IR_VSSA_TO_2VREF) */
 172              		.loc 1 1288 0
 173 00ba FFF7FEFF 		bl	ADC_therm_AMux_Select
 174              	.LVL6:
ARM GAS  C:\Users\chemi\AppData\Local\Temp\ccksh7Yh.s 			page 35


1300:Generated_Source\PSoC5/ADC_therm.c **** 
 175              		.loc 1 1300 0
 176 00be 40F23332 		movw	r2, #819
 177 00c2 0B4B     		ldr	r3, .L2+20
1302:Generated_Source\PSoC5/ADC_therm.c **** 
 178              		.loc 1 1302 0
 179 00c4 2946     		mov	r1, r5
 180 00c6 0720     		movs	r0, #7
1300:Generated_Source\PSoC5/ADC_therm.c **** 
 181              		.loc 1 1300 0
 182 00c8 1A60     		str	r2, [r3]
1302:Generated_Source\PSoC5/ADC_therm.c **** 
 183              		.loc 1 1302 0
 184 00ca FFF7FEFF 		bl	ADC_therm_Ext_CP_Clk_SetDividerRegister
 185              	.LVL7:
1306:Generated_Source\PSoC5/ADC_therm.c ****         #endif /* ADC_therm_DEFAULT_INTERNAL_CLK */
 186              		.loc 1 1306 0
 187 00ce 2946     		mov	r1, r5
1526:Generated_Source\PSoC5/ADC_therm.c **** 
 188              		.loc 1 1526 0
 189 00d0 BDE8F843 		pop	{r3, r4, r5, r6, r7, r8, r9, lr}
 190              		.cfi_restore 14
 191              		.cfi_restore 9
 192              		.cfi_restore 8
 193              		.cfi_restore 7
 194              		.cfi_restore 6
 195              		.cfi_restore 5
 196              		.cfi_restore 4
 197              		.cfi_restore 3
 198              		.cfi_def_cfa_offset 0
1306:Generated_Source\PSoC5/ADC_therm.c ****         #endif /* ADC_therm_DEFAULT_INTERNAL_CLK */
 199              		.loc 1 1306 0
 200 00d4 2120     		movs	r0, #33
 201 00d6 FFF7FEBF 		b	ADC_therm_theACLK_SetDividerRegister
 202              	.LVL8:
 203              	.L3:
 204 00da 00BF     		.align	2
 205              	.L2:
 206 00dc 004E0040 		.word	1073761792
 207 00e0 F8460040 		.word	1073759992
 208 00e4 F9460040 		.word	1073759993
 209 00e8 92580040 		.word	1073764498
 210 00ec 94580040 		.word	1073764500
 211 00f0 00000000 		.word	ADC_therm_CountsPerVolt
 212              		.cfi_endproc
 213              	.LFE26:
 214              		.size	ADC_therm_InitConfig.part.0, .-ADC_therm_InitConfig.part.0
 215              		.section	.text.ADC_therm_Init,"ax",%progbits
 216              		.align	1
 217              		.global	ADC_therm_Init
 218              		.thumb
 219              		.thumb_func
 220              		.type	ADC_therm_Init, %function
 221              	ADC_therm_Init:
 222              	.LFB0:
  92:Generated_Source\PSoC5/ADC_therm.c **** 
 223              		.loc 1 92 0
ARM GAS  C:\Users\chemi\AppData\Local\Temp\ccksh7Yh.s 			page 36


 224              		.cfi_startproc
 225              		@ args = 0, pretend = 0, frame = 0
 226              		@ frame_needed = 0, uses_anonymous_args = 0
 227 0000 70B5     		push	{r4, r5, r6, lr}
 228              		.cfi_def_cfa_offset 16
 229              		.cfi_offset 4, -16
 230              		.cfi_offset 5, -12
 231              		.cfi_offset 6, -8
 232              		.cfi_offset 14, -4
  95:Generated_Source\PSoC5/ADC_therm.c **** 
 233              		.loc 1 95 0
 234 0002 224D     		ldr	r5, .L7
  94:Generated_Source\PSoC5/ADC_therm.c ****     ADC_therm_convDone = 0u;
 235              		.loc 1 94 0
 236 0004 224E     		ldr	r6, .L7+4
  95:Generated_Source\PSoC5/ADC_therm.c **** 
 237              		.loc 1 95 0
 238 0006 0024     		movs	r4, #0
  94:Generated_Source\PSoC5/ADC_therm.c ****     ADC_therm_convDone = 0u;
 239              		.loc 1 94 0
 240 0008 0123     		movs	r3, #1
  97:Generated_Source\PSoC5/ADC_therm.c **** 
 241              		.loc 1 97 0
 242 000a 1020     		movs	r0, #16
  94:Generated_Source\PSoC5/ADC_therm.c ****     ADC_therm_convDone = 0u;
 243              		.loc 1 94 0
 244 000c 3370     		strb	r3, [r6]
  95:Generated_Source\PSoC5/ADC_therm.c **** 
 245              		.loc 1 95 0
 246 000e 2C70     		strb	r4, [r5]
  97:Generated_Source\PSoC5/ADC_therm.c **** 
 247              		.loc 1 97 0
 248 0010 FFF7FEFF 		bl	ADC_therm_Ext_CP_Clk_SetModeRegister
 249              	.LVL9:
 101:Generated_Source\PSoC5/ADC_therm.c ****     #endif /* ADC_therm_DEFAULT_INTERNAL_CLK */
 250              		.loc 1 101 0
 251 0014 1020     		movs	r0, #16
 252 0016 FFF7FEFF 		bl	ADC_therm_theACLK_SetModeRegister
 253              	.LVL10:
 110:Generated_Source\PSoC5/ADC_therm.c ****     ADC_therm_DSM_DEM1_REG    = ADC_therm_CFG1_DSM_DEM1;
 254              		.loc 1 110 0
 255 001a 1E4B     		ldr	r3, .L7+8
 256 001c 0422     		movs	r2, #4
 257 001e 1A70     		strb	r2, [r3]
 113:Generated_Source\PSoC5/ADC_therm.c ****     ADC_therm_DSM_REF1_REG    = ADC_therm_CFG1_DSM_REF1;
 258              		.loc 1 113 0
 259 0020 1D4A     		ldr	r2, .L7+12
 111:Generated_Source\PSoC5/ADC_therm.c ****     ADC_therm_DSM_MISC_REG    = ADC_therm_CFG1_DSM_MISC;
 260              		.loc 1 111 0
 261 0022 5C70     		strb	r4, [r3, #1]
 112:Generated_Source\PSoC5/ADC_therm.c ****     ADC_therm_DSM_CLK_REG    |= ADC_therm_CFG1_DSM_CLK;
 262              		.loc 1 112 0
 263 0024 1C72     		strb	r4, [r3, #8]
 113:Generated_Source\PSoC5/ADC_therm.c ****     ADC_therm_DSM_REF1_REG    = ADC_therm_CFG1_DSM_REF1;
 264              		.loc 1 113 0
 265 0026 1378     		ldrb	r3, [r2]	@ zero_extendqisi2
 266 0028 43F01803 		orr	r3, r3, #24
ARM GAS  C:\Users\chemi\AppData\Local\Temp\ccksh7Yh.s 			page 37


 267 002c 1370     		strb	r3, [r2]
 114:Generated_Source\PSoC5/ADC_therm.c **** 
 268              		.loc 1 114 0
 269 002e 1B4B     		ldr	r3, .L7+16
 119:Generated_Source\PSoC5/ADC_therm.c ****     ADC_therm_DSM_CR1_REG     = ADC_therm_CFG1_DSM_CR1;
 270              		.loc 1 119 0
 271 0030 0A22     		movs	r2, #10
 114:Generated_Source\PSoC5/ADC_therm.c **** 
 272              		.loc 1 114 0
 273 0032 1C70     		strb	r4, [r3]
 116:Generated_Source\PSoC5/ADC_therm.c ****     ADC_therm_DSM_OUT1_REG    = ADC_therm_CFG1_DSM_OUT1;
 274              		.loc 1 116 0
 275 0034 83F8F542 		strb	r4, [r3, #757]
 117:Generated_Source\PSoC5/ADC_therm.c **** 
 276              		.loc 1 117 0
 277 0038 83F8F642 		strb	r4, [r3, #758]
 119:Generated_Source\PSoC5/ADC_therm.c ****     ADC_therm_DSM_CR1_REG     = ADC_therm_CFG1_DSM_CR1;
 278              		.loc 1 119 0
 279 003c 133B     		subs	r3, r3, #19
 280 003e 1A70     		strb	r2, [r3]
 126:Generated_Source\PSoC5/ADC_therm.c ****     ADC_therm_DSM_CR9_REG     = ADC_therm_CFG1_DSM_CR9;
 281              		.loc 1 126 0
 282 0040 1222     		movs	r2, #18
 120:Generated_Source\PSoC5/ADC_therm.c **** #if(ADC_therm_MI_ENABLE != 0u) /* Enable Modulator Input */
 283              		.loc 1 120 0
 284 0042 5C70     		strb	r4, [r3, #1]
 124:Generated_Source\PSoC5/ADC_therm.c **** #endif /* ADC_therm_MI_ENABLE != 0u*/    
 285              		.loc 1 124 0
 286 0044 DC70     		strb	r4, [r3, #3]
 126:Generated_Source\PSoC5/ADC_therm.c ****     ADC_therm_DSM_CR9_REG     = ADC_therm_CFG1_DSM_CR9;
 287              		.loc 1 126 0
 288 0046 1A72     		strb	r2, [r3, #8]
 127:Generated_Source\PSoC5/ADC_therm.c ****     ADC_therm_DSM_CR13_REG    = ADC_therm_CFG1_DSM_CR13;
 289              		.loc 1 127 0
 290 0048 1322     		movs	r2, #19
 291 004a 5A72     		strb	r2, [r3, #9]
 128:Generated_Source\PSoC5/ADC_therm.c **** 
 292              		.loc 1 128 0
 293 004c 5C73     		strb	r4, [r3, #13]
 130:Generated_Source\PSoC5/ADC_therm.c **** 
 294              		.loc 1 130 0
 295 004e 1422     		movs	r2, #20
 296 0050 A3F67F23 		subw	r3, r3, #2687
 297 0054 1A70     		strb	r2, [r3]
 298              	.LVL11:
 299              	.LBB10:
 300              	.LBB11:
1691:Generated_Source\PSoC5/ADC_therm.c ****         }
 301              		.loc 1 1691 0
 302 0056 0D23     		movs	r3, #13
 303 0058 2B71     		strb	r3, [r5, #4]
1700:Generated_Source\PSoC5/ADC_therm.c ****     }
 304              		.loc 1 1700 0
 305 005a 42F25A33 		movw	r3, #9050
 306 005e 6B80     		strh	r3, [r5, #2]	@ movhi
 307              	.LVL12:
 308              	.LBE11:
ARM GAS  C:\Users\chemi\AppData\Local\Temp\ccksh7Yh.s 			page 38


 309              	.LBE10:
 161:Generated_Source\PSoC5/ADC_therm.c ****     CY_SET_REG16(ADC_therm_DEC_GCOR_16B_PTR, ADC_therm_gcor[ADC_therm_Config - 1u].gcor);
 310              		.loc 1 161 0
 311 0060 3378     		ldrb	r3, [r6]	@ zero_extendqisi2
 312 0062 15F82320 		ldrb	r2, [r5, r3, lsl #2]	@ zero_extendqisi2
 313 0066 0E4B     		ldr	r3, .L7+20
 314 0068 1A70     		strb	r2, [r3]
 162:Generated_Source\PSoC5/ADC_therm.c **** 
 315              		.loc 1 162 0
 316 006a 3378     		ldrb	r3, [r6]	@ zero_extendqisi2
 317 006c 05EB8303 		add	r3, r5, r3, lsl #2
 318 0070 33F8022C 		ldrh	r2, [r3, #-2]
 319 0074 0B4B     		ldr	r3, .L7+24
 320 0076 1A80     		strh	r2, [r3]	@ movhi
 165:Generated_Source\PSoC5/ADC_therm.c **** }
 321              		.loc 1 165 0
 322 0078 3378     		ldrb	r3, [r6]	@ zero_extendqisi2
 323              	.LVL13:
 324              	.LBB12:
 325              	.LBB13:
1244:Generated_Source\PSoC5/ADC_therm.c **** 
 326              		.loc 1 1244 0
 327 007a AC71     		strb	r4, [r5, #6]
1246:Generated_Source\PSoC5/ADC_therm.c ****     {
 328              		.loc 1 1246 0
 329 007c 012B     		cmp	r3, #1
 330 007e 03D1     		bne	.L4
 331              	.LBE13:
 332              	.LBE12:
 166:Generated_Source\PSoC5/ADC_therm.c **** 
 333              		.loc 1 166 0
 334 0080 BDE87040 		pop	{r4, r5, r6, lr}
 335              		.cfi_remember_state
 336              		.cfi_restore 14
 337              		.cfi_restore 6
 338              		.cfi_restore 5
 339              		.cfi_restore 4
 340              		.cfi_def_cfa_offset 0
 341              	.LBB15:
 342              	.LBB14:
 343 0084 FFF7FEBF 		b	ADC_therm_InitConfig.part.0
 344              	.LVL14:
 345              	.L4:
 346              		.cfi_restore_state
 347 0088 70BD     		pop	{r4, r5, r6, pc}
 348              	.L8:
 349 008a 00BF     		.align	2
 350              	.L7:
 351 008c 00000000 		.word	.LANCHOR1
 352 0090 00000000 		.word	.LANCHOR0
 353 0094 96580040 		.word	1073764502
 354 0098 075B0040 		.word	1073765127
 355 009c 93580040 		.word	1073764499
 356 00a0 0E4E0040 		.word	1073761806
 357 00a4 0C4E0040 		.word	1073761804
 358              	.LBE14:
 359              	.LBE15:
ARM GAS  C:\Users\chemi\AppData\Local\Temp\ccksh7Yh.s 			page 39


 360              		.cfi_endproc
 361              	.LFE0:
 362              		.size	ADC_therm_Init, .-ADC_therm_Init
 363              		.section	.text.ADC_therm_Enable,"ax",%progbits
 364              		.align	1
 365              		.global	ADC_therm_Enable
 366              		.thumb
 367              		.thumb_func
 368              		.type	ADC_therm_Enable, %function
 369              	ADC_therm_Enable:
 370              	.LFB1:
 185:Generated_Source\PSoC5/ADC_therm.c **** 	uint8 config;
 371              		.loc 1 185 0
 372              		.cfi_startproc
 373              		@ args = 0, pretend = 0, frame = 0
 374              		@ frame_needed = 0, uses_anonymous_args = 0
 375 0000 70B5     		push	{r4, r5, r6, lr}
 376              		.cfi_def_cfa_offset 16
 377              		.cfi_offset 4, -16
 378              		.cfi_offset 5, -12
 379              		.cfi_offset 6, -8
 380              		.cfi_offset 14, -4
 188:Generated_Source\PSoC5/ADC_therm.c **** 
 381              		.loc 1 188 0
 382 0002 FFF7FEFF 		bl	CyEnterCriticalSection
 383              	.LVL15:
 191:Generated_Source\PSoC5/ADC_therm.c ****     
 384              		.loc 1 191 0
 385 0006 264B     		ldr	r3, .L10
 202:Generated_Source\PSoC5/ADC_therm.c ****     ADC_therm_RESET_CR5_REG |= ADC_therm_IGNORE_PRESA2;
 386              		.loc 1 202 0
 387 0008 264D     		ldr	r5, .L10+4
 191:Generated_Source\PSoC5/ADC_therm.c ****     
 388              		.loc 1 191 0
 389 000a 1B78     		ldrb	r3, [r3]	@ zero_extendqisi2
 194:Generated_Source\PSoC5/ADC_therm.c ****     ADC_therm_PWRMGR_DSM_REG |= ADC_therm_ACT_PWR_DSM_EN;
 390              		.loc 1 194 0
 391 000c 264B     		ldr	r3, .L10+8
 203:Generated_Source\PSoC5/ADC_therm.c **** 
 392              		.loc 1 203 0
 393 000e 274C     		ldr	r4, .L10+12
 194:Generated_Source\PSoC5/ADC_therm.c ****     ADC_therm_PWRMGR_DSM_REG |= ADC_therm_ACT_PWR_DSM_EN;
 394              		.loc 1 194 0
 395 0010 1A78     		ldrb	r2, [r3]	@ zero_extendqisi2
 188:Generated_Source\PSoC5/ADC_therm.c **** 
 396              		.loc 1 188 0
 397 0012 0646     		mov	r6, r0
 398              	.LVL16:
 194:Generated_Source\PSoC5/ADC_therm.c ****     ADC_therm_PWRMGR_DSM_REG |= ADC_therm_ACT_PWR_DSM_EN;
 399              		.loc 1 194 0
 400 0014 42F00102 		orr	r2, r2, #1
 401 0018 1A70     		strb	r2, [r3]
 195:Generated_Source\PSoC5/ADC_therm.c **** 
 402              		.loc 1 195 0
 403 001a 1A78     		ldrb	r2, [r3]	@ zero_extendqisi2
 271:Generated_Source\PSoC5/ADC_therm.c **** 
 404              		.loc 1 271 0
ARM GAS  C:\Users\chemi\AppData\Local\Temp\ccksh7Yh.s 			page 40


 405 001c 0320     		movs	r0, #3
 195:Generated_Source\PSoC5/ADC_therm.c **** 
 406              		.loc 1 195 0
 407 001e 42F01002 		orr	r2, r2, #16
 408 0022 1A70     		strb	r2, [r3]
 198:Generated_Source\PSoC5/ADC_therm.c ****     ADC_therm_STBY_PWRMGR_DSM_REG |= ADC_therm_STBY_PWR_DSM_EN;
 409              		.loc 1 198 0
 410 0024 1A7C     		ldrb	r2, [r3, #16]	@ zero_extendqisi2
 411 0026 42F00102 		orr	r2, r2, #1
 412 002a 1A74     		strb	r2, [r3, #16]
 199:Generated_Source\PSoC5/ADC_therm.c **** 
 413              		.loc 1 199 0
 414 002c 1A7C     		ldrb	r2, [r3, #16]	@ zero_extendqisi2
 415 002e 42F01002 		orr	r2, r2, #16
 416 0032 1A74     		strb	r2, [r3, #16]
 202:Generated_Source\PSoC5/ADC_therm.c ****     ADC_therm_RESET_CR5_REG |= ADC_therm_IGNORE_PRESA2;
 417              		.loc 1 202 0
 418 0034 2B78     		ldrb	r3, [r5]	@ zero_extendqisi2
 205:Generated_Source\PSoC5/ADC_therm.c **** 
 419              		.loc 1 205 0
 420 0036 1E4A     		ldr	r2, .L10+16
 202:Generated_Source\PSoC5/ADC_therm.c ****     ADC_therm_RESET_CR5_REG |= ADC_therm_IGNORE_PRESA2;
 421              		.loc 1 202 0
 422 0038 43F00203 		orr	r3, r3, #2
 423 003c 2B70     		strb	r3, [r5]
 203:Generated_Source\PSoC5/ADC_therm.c **** 
 424              		.loc 1 203 0
 425 003e 2378     		ldrb	r3, [r4]	@ zero_extendqisi2
 426 0040 43F00203 		orr	r3, r3, #2
 427 0044 2370     		strb	r3, [r4]
 205:Generated_Source\PSoC5/ADC_therm.c **** 
 428              		.loc 1 205 0
 429 0046 1378     		ldrb	r3, [r2]	@ zero_extendqisi2
 430 0048 43F00303 		orr	r3, r3, #3
 431 004c 1370     		strb	r3, [r2]
 271:Generated_Source\PSoC5/ADC_therm.c **** 
 432              		.loc 1 271 0
 433 004e FFF7FEFF 		bl	CyDelayUs
 434              	.LVL17:
 274:Generated_Source\PSoC5/ADC_therm.c ****     ADC_therm_RESET_CR5_REG &= (uint8)~ADC_therm_IGNORE_PRESA2;
 435              		.loc 1 274 0
 436 0052 2B78     		ldrb	r3, [r5]	@ zero_extendqisi2
 278:Generated_Source\PSoC5/ADC_therm.c **** 
 437              		.loc 1 278 0
 438 0054 174A     		ldr	r2, .L10+20
 274:Generated_Source\PSoC5/ADC_therm.c ****     ADC_therm_RESET_CR5_REG &= (uint8)~ADC_therm_IGNORE_PRESA2;
 439              		.loc 1 274 0
 440 0056 03F0FD03 		and	r3, r3, #253
 441 005a 2B70     		strb	r3, [r5]
 275:Generated_Source\PSoC5/ADC_therm.c **** 
 442              		.loc 1 275 0
 443 005c 2378     		ldrb	r3, [r4]	@ zero_extendqisi2
 300:Generated_Source\PSoC5/ADC_therm.c **** 
 444              		.loc 1 300 0
 445 005e 3046     		mov	r0, r6
 275:Generated_Source\PSoC5/ADC_therm.c **** 
 446              		.loc 1 275 0
ARM GAS  C:\Users\chemi\AppData\Local\Temp\ccksh7Yh.s 			page 41


 447 0060 03F0FD03 		and	r3, r3, #253
 448 0064 2370     		strb	r3, [r4]
 278:Generated_Source\PSoC5/ADC_therm.c **** 
 449              		.loc 1 278 0
 450 0066 1378     		ldrb	r3, [r2]	@ zero_extendqisi2
 451 0068 43F00603 		orr	r3, r3, #6
 452 006c 1370     		strb	r3, [r2]
 281:Generated_Source\PSoC5/ADC_therm.c **** 
 453              		.loc 1 281 0
 454 006e 124B     		ldr	r3, .L10+24
 455 0070 7A22     		movs	r2, #122
 456 0072 1A70     		strb	r2, [r3]
 285:Generated_Source\PSoC5/ADC_therm.c ****         ADC_therm_STBY_PWRMGR_CLK_REG |= ADC_therm_STBY_PWR_CLK_EN;
 457              		.loc 1 285 0
 458 0074 114A     		ldr	r2, .L10+28
 459 0076 1378     		ldrb	r3, [r2]	@ zero_extendqisi2
 460 0078 43F00103 		orr	r3, r3, #1
 461 007c 1370     		strb	r3, [r2]
 286:Generated_Source\PSoC5/ADC_therm.c ****     #endif /* ADC_therm_DEFAULT_INTERNAL_CLK */
 462              		.loc 1 286 0
 463 007e 137C     		ldrb	r3, [r2, #16]	@ zero_extendqisi2
 464 0080 43F00103 		orr	r3, r3, #1
 465 0084 1374     		strb	r3, [r2, #16]
 290:Generated_Source\PSoC5/ADC_therm.c ****     ADC_therm_STBY_PWRMGR_CHARGE_PUMP_CLK_REG |= ADC_therm_STBY_PWR_CHARGE_PUMP_CLK_EN;
 466              		.loc 1 290 0
 467 0086 5378     		ldrb	r3, [r2, #1]	@ zero_extendqisi2
 468 0088 43F01003 		orr	r3, r3, #16
 469 008c 5370     		strb	r3, [r2, #1]
 291:Generated_Source\PSoC5/ADC_therm.c **** 
 470              		.loc 1 291 0
 471 008e 537C     		ldrb	r3, [r2, #17]	@ zero_extendqisi2
 472 0090 43F01003 		orr	r3, r3, #16
 473 0094 5374     		strb	r3, [r2, #17]
 302:Generated_Source\PSoC5/ADC_therm.c **** 
 474              		.loc 1 302 0
 475 0096 BDE87040 		pop	{r4, r5, r6, lr}
 476              		.cfi_restore 14
 477              		.cfi_restore 6
 478              		.cfi_restore 5
 479              		.cfi_restore 4
 480              		.cfi_def_cfa_offset 0
 481              	.LVL18:
 300:Generated_Source\PSoC5/ADC_therm.c **** 
 482              		.loc 1 300 0
 483 009a FFF7FEBF 		b	CyExitCriticalSection
 484              	.LVL19:
 485              	.L11:
 486 009e 00BF     		.align	2
 487              	.L10:
 488 00a0 00000000 		.word	.LANCHOR0
 489 00a4 F8460040 		.word	1073759992
 490 00a8 AA430040 		.word	1073759146
 491 00ac F9460040 		.word	1073759993
 492 00b0 91580040 		.word	1073764497
 493 00b4 77580040 		.word	1073764471
 494 00b8 82580040 		.word	1073764482
 495 00bc A1430040 		.word	1073759137
ARM GAS  C:\Users\chemi\AppData\Local\Temp\ccksh7Yh.s 			page 42


 496              		.cfi_endproc
 497              	.LFE1:
 498              		.size	ADC_therm_Enable, .-ADC_therm_Enable
 499              		.section	.text.ADC_therm_Start,"ax",%progbits
 500              		.align	1
 501              		.global	ADC_therm_Start
 502              		.thumb
 503              		.thumb_func
 504              		.type	ADC_therm_Start, %function
 505              	ADC_therm_Start:
 506              	.LFB2:
 330:Generated_Source\PSoC5/ADC_therm.c ****     if(ADC_therm_initVar == 0u)
 507              		.loc 1 330 0
 508              		.cfi_startproc
 509              		@ args = 0, pretend = 0, frame = 0
 510              		@ frame_needed = 0, uses_anonymous_args = 0
 511 0000 10B5     		push	{r4, lr}
 512              		.cfi_def_cfa_offset 8
 513              		.cfi_offset 4, -8
 514              		.cfi_offset 14, -4
 331:Generated_Source\PSoC5/ADC_therm.c ****     {
 515              		.loc 1 331 0
 516 0002 064C     		ldr	r4, .L15
 517 0004 E379     		ldrb	r3, [r4, #7]	@ zero_extendqisi2
 518 0006 2BB9     		cbnz	r3, .L13
 333:Generated_Source\PSoC5/ADC_therm.c ****         {
 519              		.loc 1 333 0
 520 0008 237A     		ldrb	r3, [r4, #8]	@ zero_extendqisi2
 521 000a 0BB9     		cbnz	r3, .L14
 335:Generated_Source\PSoC5/ADC_therm.c ****         }
 522              		.loc 1 335 0
 523 000c FFF7FEFF 		bl	ADC_therm_Init
 524              	.LVL20:
 525              	.L14:
 337:Generated_Source\PSoC5/ADC_therm.c ****     }
 526              		.loc 1 337 0
 527 0010 0123     		movs	r3, #1
 528 0012 E371     		strb	r3, [r4, #7]
 529              	.L13:
 342:Generated_Source\PSoC5/ADC_therm.c **** 
 530              		.loc 1 342 0
 531 0014 BDE81040 		pop	{r4, lr}
 532              		.cfi_restore 14
 533              		.cfi_restore 4
 534              		.cfi_def_cfa_offset 0
 341:Generated_Source\PSoC5/ADC_therm.c **** }
 535              		.loc 1 341 0
 536 0018 FFF7FEBF 		b	ADC_therm_Enable
 537              	.LVL21:
 538              	.L16:
 539              		.align	2
 540              	.L15:
 541 001c 00000000 		.word	.LANCHOR1
 542              		.cfi_endproc
 543              	.LFE2:
 544              		.size	ADC_therm_Start, .-ADC_therm_Start
 545              		.section	.text.ADC_therm_Stop,"ax",%progbits
ARM GAS  C:\Users\chemi\AppData\Local\Temp\ccksh7Yh.s 			page 43


 546              		.align	1
 547              		.global	ADC_therm_Stop
 548              		.thumb
 549              		.thumb_func
 550              		.type	ADC_therm_Stop, %function
 551              	ADC_therm_Stop:
 552              	.LFB3:
 363:Generated_Source\PSoC5/ADC_therm.c ****     uint8 enableInterrupts;
 553              		.loc 1 363 0
 554              		.cfi_startproc
 555              		@ args = 0, pretend = 0, frame = 0
 556              		@ frame_needed = 0, uses_anonymous_args = 0
 557 0000 70B5     		push	{r4, r5, r6, lr}
 558              		.cfi_def_cfa_offset 16
 559              		.cfi_offset 4, -16
 560              		.cfi_offset 5, -12
 561              		.cfi_offset 6, -8
 562              		.cfi_offset 14, -4
 365:Generated_Source\PSoC5/ADC_therm.c **** 
 563              		.loc 1 365 0
 564 0002 FFF7FEFF 		bl	CyEnterCriticalSection
 565              	.LVL22:
 368:Generated_Source\PSoC5/ADC_therm.c ****     ADC_therm_DEC_SR_REG |=  ADC_therm_DEC_INTR_CLEAR;
 566              		.loc 1 368 0
 567 0006 314A     		ldr	r2, .L18
 373:Generated_Source\PSoC5/ADC_therm.c ****     ADC_therm_RESET_CR5_REG |= ADC_therm_IGNORE_PRESA2;
 568              		.loc 1 373 0
 569 0008 314D     		ldr	r5, .L18+4
 368:Generated_Source\PSoC5/ADC_therm.c ****     ADC_therm_DEC_SR_REG |=  ADC_therm_DEC_INTR_CLEAR;
 570              		.loc 1 368 0
 571 000a 1378     		ldrb	r3, [r2]	@ zero_extendqisi2
 374:Generated_Source\PSoC5/ADC_therm.c **** 
 572              		.loc 1 374 0
 573 000c 314C     		ldr	r4, .L18+8
 368:Generated_Source\PSoC5/ADC_therm.c ****     ADC_therm_DEC_SR_REG |=  ADC_therm_DEC_INTR_CLEAR;
 574              		.loc 1 368 0
 575 000e 03F0FE03 		and	r3, r3, #254
 576 0012 1370     		strb	r3, [r2]
 369:Generated_Source\PSoC5/ADC_therm.c **** 
 577              		.loc 1 369 0
 578 0014 5378     		ldrb	r3, [r2, #1]	@ zero_extendqisi2
 365:Generated_Source\PSoC5/ADC_therm.c **** 
 579              		.loc 1 365 0
 580 0016 0646     		mov	r6, r0
 581              	.LVL23:
 369:Generated_Source\PSoC5/ADC_therm.c **** 
 582              		.loc 1 369 0
 583 0018 43F00403 		orr	r3, r3, #4
 584 001c 5370     		strb	r3, [r2, #1]
 373:Generated_Source\PSoC5/ADC_therm.c ****     ADC_therm_RESET_CR5_REG |= ADC_therm_IGNORE_PRESA2;
 585              		.loc 1 373 0
 586 001e 2B78     		ldrb	r3, [r5]	@ zero_extendqisi2
 380:Generated_Source\PSoC5/ADC_therm.c **** 
 587              		.loc 1 380 0
 588 0020 0320     		movs	r0, #3
 373:Generated_Source\PSoC5/ADC_therm.c ****     ADC_therm_RESET_CR5_REG |= ADC_therm_IGNORE_PRESA2;
 589              		.loc 1 373 0
ARM GAS  C:\Users\chemi\AppData\Local\Temp\ccksh7Yh.s 			page 44


 590 0022 43F00203 		orr	r3, r3, #2
 591 0026 2B70     		strb	r3, [r5]
 374:Generated_Source\PSoC5/ADC_therm.c **** 
 592              		.loc 1 374 0
 593 0028 2378     		ldrb	r3, [r4]	@ zero_extendqisi2
 594 002a 43F00203 		orr	r3, r3, #2
 595 002e 2370     		strb	r3, [r4]
 376:Generated_Source\PSoC5/ADC_therm.c ****     ADC_therm_DSM_REF0_REG &= (uint8)~ADC_therm_DSM_EN_BUF_VREF_INN;
 596              		.loc 1 376 0
 597 0030 92F8913A 		ldrb	r3, [r2, #2705]	@ zero_extendqisi2
 598 0034 03F0FC03 		and	r3, r3, #252
 599 0038 82F8913A 		strb	r3, [r2, #2705]
 377:Generated_Source\PSoC5/ADC_therm.c **** 
 600              		.loc 1 377 0
 601 003c 92F8923A 		ldrb	r3, [r2, #2706]	@ zero_extendqisi2
 602 0040 03F0F703 		and	r3, r3, #247
 603 0044 82F8923A 		strb	r3, [r2, #2706]
 380:Generated_Source\PSoC5/ADC_therm.c **** 
 604              		.loc 1 380 0
 605 0048 FFF7FEFF 		bl	CyDelayUs
 606              	.LVL24:
 383:Generated_Source\PSoC5/ADC_therm.c ****     ADC_therm_RESET_CR5_REG &= (uint8)~ADC_therm_IGNORE_PRESA2;
 607              		.loc 1 383 0
 608 004c 2B78     		ldrb	r3, [r5]	@ zero_extendqisi2
 411:Generated_Source\PSoC5/ADC_therm.c **** }
 609              		.loc 1 411 0
 610 004e 3046     		mov	r0, r6
 383:Generated_Source\PSoC5/ADC_therm.c ****     ADC_therm_RESET_CR5_REG &= (uint8)~ADC_therm_IGNORE_PRESA2;
 611              		.loc 1 383 0
 612 0050 03F0FD03 		and	r3, r3, #253
 613 0054 2B70     		strb	r3, [r5]
 384:Generated_Source\PSoC5/ADC_therm.c **** 
 614              		.loc 1 384 0
 615 0056 2378     		ldrb	r3, [r4]	@ zero_extendqisi2
 616 0058 03F0FD03 		and	r3, r3, #253
 617 005c 2370     		strb	r3, [r4]
 387:Generated_Source\PSoC5/ADC_therm.c **** 
 618              		.loc 1 387 0
 619 005e 1E4B     		ldr	r3, .L18+12
 620 0060 1A78     		ldrb	r2, [r3]	@ zero_extendqisi2
 621 0062 02F0EF02 		and	r2, r2, #239
 622 0066 1A70     		strb	r2, [r3]
 390:Generated_Source\PSoC5/ADC_therm.c **** 
 623              		.loc 1 390 0
 624 0068 1A78     		ldrb	r2, [r3]	@ zero_extendqisi2
 625 006a 02F0FE02 		and	r2, r2, #254
 626 006e 1A70     		strb	r2, [r3]
 393:Generated_Source\PSoC5/ADC_therm.c ****     ADC_therm_STBY_PWRMGR_DSM_REG &= (uint8)~ADC_therm_STBY_PWR_DSM_EN;
 627              		.loc 1 393 0
 628 0070 1A7C     		ldrb	r2, [r3, #16]	@ zero_extendqisi2
 629 0072 02F0FE02 		and	r2, r2, #254
 630 0076 1A74     		strb	r2, [r3, #16]
 394:Generated_Source\PSoC5/ADC_therm.c **** 
 631              		.loc 1 394 0
 632 0078 1A7C     		ldrb	r2, [r3, #16]	@ zero_extendqisi2
 633 007a 02F0EF02 		and	r2, r2, #239
 634 007e 1A74     		strb	r2, [r3, #16]
ARM GAS  C:\Users\chemi\AppData\Local\Temp\ccksh7Yh.s 			page 45


 397:Generated_Source\PSoC5/ADC_therm.c **** 
 635              		.loc 1 397 0
 636 0080 164A     		ldr	r2, .L18+16
 637 0082 1378     		ldrb	r3, [r2]	@ zero_extendqisi2
 638 0084 03F0F903 		and	r3, r3, #249
 639 0088 1370     		strb	r3, [r2]
 401:Generated_Source\PSoC5/ADC_therm.c ****         ADC_therm_STBY_PWRMGR_CLK_REG &= (uint8)~ADC_therm_STBY_PWR_CLK_EN;
 640              		.loc 1 401 0
 641 008a A2F5A652 		sub	r2, r2, #5312
 642 008e 163A     		subs	r2, r2, #22
 643 0090 1378     		ldrb	r3, [r2]	@ zero_extendqisi2
 644 0092 03F0FE03 		and	r3, r3, #254
 645 0096 1370     		strb	r3, [r2]
 402:Generated_Source\PSoC5/ADC_therm.c ****     #endif /* ADC_therm_DEFAULT_INTERNAL_CLK */
 646              		.loc 1 402 0
 647 0098 137C     		ldrb	r3, [r2, #16]	@ zero_extendqisi2
 648 009a 03F0FE03 		and	r3, r3, #254
 649 009e 1374     		strb	r3, [r2, #16]
 406:Generated_Source\PSoC5/ADC_therm.c ****     /* Disable power to charge pump clock */
 650              		.loc 1 406 0
 651 00a0 02F5A752 		add	r2, r2, #5344
 652 00a4 0132     		adds	r2, r2, #1
 653 00a6 1378     		ldrb	r3, [r2]	@ zero_extendqisi2
 654 00a8 03F0F703 		and	r3, r3, #247
 655 00ac 1370     		strb	r3, [r2]
 408:Generated_Source\PSoC5/ADC_therm.c ****     ADC_therm_STBY_PWRMGR_CHARGE_PUMP_CLK_REG &= (uint8)~ADC_therm_STBY_PWR_CHARGE_PUMP_CLK_EN;
 656              		.loc 1 408 0
 657 00ae A2F5A752 		sub	r2, r2, #5344
 658 00b2 1378     		ldrb	r3, [r2]	@ zero_extendqisi2
 659 00b4 03F0EF03 		and	r3, r3, #239
 660 00b8 1370     		strb	r3, [r2]
 409:Generated_Source\PSoC5/ADC_therm.c ****     
 661              		.loc 1 409 0
 662 00ba 137C     		ldrb	r3, [r2, #16]	@ zero_extendqisi2
 663 00bc 03F0EF03 		and	r3, r3, #239
 664 00c0 1374     		strb	r3, [r2, #16]
 412:Generated_Source\PSoC5/ADC_therm.c **** 
 665              		.loc 1 412 0
 666 00c2 BDE87040 		pop	{r4, r5, r6, lr}
 667              		.cfi_restore 14
 668              		.cfi_restore 6
 669              		.cfi_restore 5
 670              		.cfi_restore 4
 671              		.cfi_def_cfa_offset 0
 672              	.LVL25:
 411:Generated_Source\PSoC5/ADC_therm.c **** }
 673              		.loc 1 411 0
 674 00c6 FFF7FEBF 		b	CyExitCriticalSection
 675              	.LVL26:
 676              	.L19:
 677 00ca 00BF     		.align	2
 678              	.L18:
 679 00cc 004E0040 		.word	1073761792
 680 00d0 F8460040 		.word	1073759992
 681 00d4 F9460040 		.word	1073759993
 682 00d8 AA430040 		.word	1073759146
 683 00dc 77580040 		.word	1073764471
ARM GAS  C:\Users\chemi\AppData\Local\Temp\ccksh7Yh.s 			page 46


 684              		.cfi_endproc
 685              	.LFE3:
 686              		.size	ADC_therm_Stop, .-ADC_therm_Stop
 687              		.section	.text.ADC_therm_SetBufferGain,"ax",%progbits
 688              		.align	1
 689              		.global	ADC_therm_SetBufferGain
 690              		.thumb
 691              		.thumb_func
 692              		.type	ADC_therm_SetBufferGain, %function
 693              	ADC_therm_SetBufferGain:
 694              	.LFB4:
 430:Generated_Source\PSoC5/ADC_therm.c ****     uint8 tmpReg;
 695              		.loc 1 430 0
 696              		.cfi_startproc
 697              		@ args = 0, pretend = 0, frame = 0
 698              		@ frame_needed = 0, uses_anonymous_args = 0
 699              		@ link register save eliminated.
 700              	.LVL27:
 432:Generated_Source\PSoC5/ADC_therm.c ****     tmpReg |= (uint8)(gain << ADC_therm_DSM_GAIN_SHIFT) & ADC_therm_DSM_GAIN_MASK;
 701              		.loc 1 432 0
 702 0000 044A     		ldr	r2, .L21
 433:Generated_Source\PSoC5/ADC_therm.c ****     ADC_therm_DSM_BUF1_REG = tmpReg;
 703              		.loc 1 433 0
 704 0002 8000     		lsls	r0, r0, #2
 705              	.LVL28:
 432:Generated_Source\PSoC5/ADC_therm.c ****     tmpReg |= (uint8)(gain << ADC_therm_DSM_GAIN_SHIFT) & ADC_therm_DSM_GAIN_MASK;
 706              		.loc 1 432 0
 707 0004 1378     		ldrb	r3, [r2]	@ zero_extendqisi2
 433:Generated_Source\PSoC5/ADC_therm.c ****     ADC_therm_DSM_BUF1_REG = tmpReg;
 708              		.loc 1 433 0
 709 0006 00F00C00 		and	r0, r0, #12
 432:Generated_Source\PSoC5/ADC_therm.c ****     tmpReg |= (uint8)(gain << ADC_therm_DSM_GAIN_SHIFT) & ADC_therm_DSM_GAIN_MASK;
 710              		.loc 1 432 0
 711 000a 03F0F303 		and	r3, r3, #243
 712              	.LVL29:
 433:Generated_Source\PSoC5/ADC_therm.c ****     ADC_therm_DSM_BUF1_REG = tmpReg;
 713              		.loc 1 433 0
 714 000e 1843     		orrs	r0, r0, r3
 715              	.LVL30:
 434:Generated_Source\PSoC5/ADC_therm.c **** }
 716              		.loc 1 434 0
 717 0010 1070     		strb	r0, [r2]
 718 0012 7047     		bx	lr
 719              	.L22:
 720              		.align	2
 721              	.L21:
 722 0014 9B580040 		.word	1073764507
 723              		.cfi_endproc
 724              	.LFE4:
 725              		.size	ADC_therm_SetBufferGain, .-ADC_therm_SetBufferGain
 726              		.section	.text.ADC_therm_SetCoherency,"ax",%progbits
 727              		.align	1
 728              		.global	ADC_therm_SetCoherency
 729              		.thumb
 730              		.thumb_func
 731              		.type	ADC_therm_SetCoherency, %function
 732              	ADC_therm_SetCoherency:
ARM GAS  C:\Users\chemi\AppData\Local\Temp\ccksh7Yh.s 			page 47


 733              	.LFB5:
 466:Generated_Source\PSoC5/ADC_therm.c ****     uint8 tmpReg;
 734              		.loc 1 466 0
 735              		.cfi_startproc
 736              		@ args = 0, pretend = 0, frame = 0
 737              		@ frame_needed = 0, uses_anonymous_args = 0
 738              		@ link register save eliminated.
 739              	.LVL31:
 469:Generated_Source\PSoC5/ADC_therm.c ****     tmpReg |= coherency & ADC_therm_DEC_SAMP_KEY_MASK;
 740              		.loc 1 469 0
 741 0000 044A     		ldr	r2, .L24
 470:Generated_Source\PSoC5/ADC_therm.c ****     ADC_therm_DEC_COHER_REG = tmpReg;
 742              		.loc 1 470 0
 743 0002 00F00300 		and	r0, r0, #3
 744              	.LVL32:
 469:Generated_Source\PSoC5/ADC_therm.c ****     tmpReg |= coherency & ADC_therm_DEC_SAMP_KEY_MASK;
 745              		.loc 1 469 0
 746 0006 1378     		ldrb	r3, [r2]	@ zero_extendqisi2
 747 0008 03F0FC03 		and	r3, r3, #252
 748              	.LVL33:
 470:Generated_Source\PSoC5/ADC_therm.c ****     ADC_therm_DEC_COHER_REG = tmpReg;
 749              		.loc 1 470 0
 750 000c 1843     		orrs	r0, r0, r3
 751              	.LVL34:
 471:Generated_Source\PSoC5/ADC_therm.c **** }
 752              		.loc 1 471 0
 753 000e 1070     		strb	r0, [r2]
 754 0010 7047     		bx	lr
 755              	.L25:
 756 0012 00BF     		.align	2
 757              	.L24:
 758 0014 144E0040 		.word	1073761812
 759              		.cfi_endproc
 760              	.LFE5:
 761              		.size	ADC_therm_SetCoherency, .-ADC_therm_SetCoherency
 762              		.global	__aeabi_ui2f
 763              		.global	__aeabi_fmul
 764              		.global	__aeabi_f2d
 765              		.global	__aeabi_dcmpgt
 766              		.global	__aeabi_f2uiz
 767              		.section	.text.ADC_therm_SetGCOR,"ax",%progbits
 768              		.align	1
 769              		.global	ADC_therm_SetGCOR
 770              		.thumb
 771              		.thumb_func
 772              		.type	ADC_therm_SetGCOR, %function
 773              	ADC_therm_SetGCOR:
 774              	.LFB6:
 506:Generated_Source\PSoC5/ADC_therm.c ****     uint16 tmpReg;
 775              		.loc 1 506 0
 776              		.cfi_startproc
 777              		@ args = 0, pretend = 0, frame = 0
 778              		@ frame_needed = 0, uses_anonymous_args = 0
 779              	.LVL35:
 780 0000 F8B5     		push	{r3, r4, r5, r6, r7, lr}
 781              		.cfi_def_cfa_offset 24
 782              		.cfi_offset 3, -24
ARM GAS  C:\Users\chemi\AppData\Local\Temp\ccksh7Yh.s 			page 48


 783              		.cfi_offset 4, -20
 784              		.cfi_offset 5, -16
 785              		.cfi_offset 6, -12
 786              		.cfi_offset 7, -8
 787              		.cfi_offset 14, -4
 506:Generated_Source\PSoC5/ADC_therm.c ****     uint16 tmpReg;
 788              		.loc 1 506 0
 789 0002 0446     		mov	r4, r0
 511:Generated_Source\PSoC5/ADC_therm.c ****     tmpValue = ((float32)tmpReg / (float32)ADC_therm_IDEAL_GAIN_CONST);
 790              		.loc 1 511 0
 791 0004 184E     		ldr	r6, .L29+8
 792 0006 194D     		ldr	r5, .L29+12
 793 0008 3378     		ldrb	r3, [r6]	@ zero_extendqisi2
 794              	.LVL36:
 795 000a 05EB8303 		add	r3, r5, r3, lsl #2
 796              	.LVL37:
 512:Generated_Source\PSoC5/ADC_therm.c ****     tmpValue = tmpValue * gainAdjust;
 797              		.loc 1 512 0
 798 000e 33F8020C 		ldrh	r0, [r3, #-2]
 799              	.LVL38:
 800 0012 FFF7FEFF 		bl	__aeabi_ui2f
 801              	.LVL39:
 802 0016 4FF06051 		mov	r1, #939524096
 803 001a FFF7FEFF 		bl	__aeabi_fmul
 804              	.LVL40:
 513:Generated_Source\PSoC5/ADC_therm.c **** 
 805              		.loc 1 513 0
 806 001e 2146     		mov	r1, r4
 807 0020 FFF7FEFF 		bl	__aeabi_fmul
 808              	.LVL41:
 809 0024 0746     		mov	r7, r0
 810              	.LVL42:
 515:Generated_Source\PSoC5/ADC_therm.c ****     {
 811              		.loc 1 515 0
 812 0026 FFF7FEFF 		bl	__aeabi_f2d
 813              	.LVL43:
 814 002a 0DA3     		adr	r3, .L29
 815 002c D3E90023 		ldrd	r2, [r3]
 816 0030 FFF7FEFF 		bl	__aeabi_dcmpgt
 817              	.LVL44:
 818 0034 0446     		mov	r4, r0
 819              	.LVL45:
 820 0036 80B9     		cbnz	r0, .L28
 821              	.LVL46:
 522:Generated_Source\PSoC5/ADC_therm.c ****         CY_SET_REG16(ADC_therm_DEC_GCOR_16B_PTR, tmpReg);
 822              		.loc 1 522 0
 823 0038 4FF08E41 		mov	r1, #1191182336
 824 003c 3846     		mov	r0, r7
 825 003e FFF7FEFF 		bl	__aeabi_fmul
 826              	.LVL47:
 827 0042 FFF7FEFF 		bl	__aeabi_f2uiz
 828              	.LVL48:
 523:Generated_Source\PSoC5/ADC_therm.c ****         /* Update gain array to be used by SelectConfiguration() API */
 829              		.loc 1 523 0
 830 0046 0A4B     		ldr	r3, .L29+16
 522:Generated_Source\PSoC5/ADC_therm.c ****         CY_SET_REG16(ADC_therm_DEC_GCOR_16B_PTR, tmpReg);
 831              		.loc 1 522 0
ARM GAS  C:\Users\chemi\AppData\Local\Temp\ccksh7Yh.s 			page 49


 832 0048 80B2     		uxth	r0, r0
 833              	.LVL49:
 523:Generated_Source\PSoC5/ADC_therm.c ****         /* Update gain array to be used by SelectConfiguration() API */
 834              		.loc 1 523 0
 835 004a 1880     		strh	r0, [r3]	@ movhi
 525:Generated_Source\PSoC5/ADC_therm.c **** 
 836              		.loc 1 525 0
 837 004c 3378     		ldrb	r3, [r6]	@ zero_extendqisi2
 838 004e 05EB8305 		add	r5, r5, r3, lsl #2
 839 0052 25F8020C 		strh	r0, [r5, #-2]	@ movhi
 840              	.LVL50:
 527:Generated_Source\PSoC5/ADC_therm.c **** 
 841              		.loc 1 527 0
 842 0056 2046     		mov	r0, r4
 843              	.LVL51:
 844 0058 F8BD     		pop	{r3, r4, r5, r6, r7, pc}
 845              	.LVL52:
 846              	.L28:
 517:Generated_Source\PSoC5/ADC_therm.c ****     }
 847              		.loc 1 517 0
 848 005a 0120     		movs	r0, #1
 849              	.LVL53:
 531:Generated_Source\PSoC5/ADC_therm.c **** 
 850              		.loc 1 531 0
 851 005c F8BD     		pop	{r3, r4, r5, r6, r7, pc}
 852              	.LVL54:
 853              	.L30:
 854 005e 00BF     		.align	3
 855              	.L29:
 856 0060 8F537424 		.word	611603343
 857 0064 97FFFF3F 		.word	1073741719
 858 0068 00000000 		.word	.LANCHOR0
 859 006c 00000000 		.word	.LANCHOR1
 860 0070 0C4E0040 		.word	1073761804
 861              		.cfi_endproc
 862              	.LFE6:
 863              		.size	ADC_therm_SetGCOR, .-ADC_therm_SetGCOR
 864              		.section	.text.ADC_therm_ReadGCOR,"ax",%progbits
 865              		.align	1
 866              		.global	ADC_therm_ReadGCOR
 867              		.thumb
 868              		.thumb_func
 869              		.type	ADC_therm_ReadGCOR, %function
 870              	ADC_therm_ReadGCOR:
 871              	.LFB7:
 553:Generated_Source\PSoC5/ADC_therm.c ****     uint8 gValue;
 872              		.loc 1 553 0
 873              		.cfi_startproc
 874              		@ args = 0, pretend = 0, frame = 0
 875              		@ frame_needed = 0, uses_anonymous_args = 0
 876              		@ link register save eliminated.
 557:Generated_Source\PSoC5/ADC_therm.c ****     gcorValue = CY_GET_REG16(ADC_therm_DEC_GCOR_16B_PTR);
 877              		.loc 1 557 0
 878 0000 064B     		ldr	r3, .L33
 558:Generated_Source\PSoC5/ADC_therm.c **** 
 879              		.loc 1 558 0
 880 0002 074A     		ldr	r2, .L33+4
ARM GAS  C:\Users\chemi\AppData\Local\Temp\ccksh7Yh.s 			page 50


 557:Generated_Source\PSoC5/ADC_therm.c ****     gcorValue = CY_GET_REG16(ADC_therm_DEC_GCOR_16B_PTR);
 881              		.loc 1 557 0
 882 0004 1B78     		ldrb	r3, [r3]	@ zero_extendqisi2
 558:Generated_Source\PSoC5/ADC_therm.c **** 
 883              		.loc 1 558 0
 884 0006 1088     		ldrh	r0, [r2]
 557:Generated_Source\PSoC5/ADC_therm.c ****     gcorValue = CY_GET_REG16(ADC_therm_DEC_GCOR_16B_PTR);
 885              		.loc 1 557 0
 886 0008 DBB2     		uxtb	r3, r3
 887              	.LVL55:
 560:Generated_Source\PSoC5/ADC_therm.c ****     {
 888              		.loc 1 560 0
 889 000a 0E2B     		cmp	r3, #14
 558:Generated_Source\PSoC5/ADC_therm.c **** 
 890              		.loc 1 558 0
 891 000c 80B2     		uxth	r0, r0
 892              	.LVL56:
 562:Generated_Source\PSoC5/ADC_therm.c ****     }
 893              		.loc 1 562 0
 894 000e 9EBF     		ittt	ls
 895 0010 C3F10F03 		rsbls	r3, r3, #15
 896              	.LVL57:
 897 0014 9840     		lslls	r0, r0, r3
 898              	.LVL58:
 899 0016 80B2     		uxthls	r0, r0
 900              	.LVL59:
 566:Generated_Source\PSoC5/ADC_therm.c **** 
 901              		.loc 1 566 0
 902 0018 7047     		bx	lr
 903              	.L34:
 904 001a 00BF     		.align	2
 905              	.L33:
 906 001c 0E4E0040 		.word	1073761806
 907 0020 0C4E0040 		.word	1073761804
 908              		.cfi_endproc
 909              	.LFE7:
 910              		.size	ADC_therm_ReadGCOR, .-ADC_therm_ReadGCOR
 911              		.section	.text.ADC_therm_StartConvert,"ax",%progbits
 912              		.align	1
 913              		.global	ADC_therm_StartConvert
 914              		.thumb
 915              		.thumb_func
 916              		.type	ADC_therm_StartConvert, %function
 917              	ADC_therm_StartConvert:
 918              	.LFB8:
 587:Generated_Source\PSoC5/ADC_therm.c ****     /* Start the conversion */
 919              		.loc 1 587 0
 920              		.cfi_startproc
 921              		@ args = 0, pretend = 0, frame = 0
 922              		@ frame_needed = 0, uses_anonymous_args = 0
 923              		@ link register save eliminated.
 589:Generated_Source\PSoC5/ADC_therm.c **** }
 924              		.loc 1 589 0
 925 0000 024A     		ldr	r2, .L36
 926 0002 1378     		ldrb	r3, [r2]	@ zero_extendqisi2
 927 0004 43F00103 		orr	r3, r3, #1
 928 0008 1370     		strb	r3, [r2]
ARM GAS  C:\Users\chemi\AppData\Local\Temp\ccksh7Yh.s 			page 51


 929 000a 7047     		bx	lr
 930              	.L37:
 931              		.align	2
 932              	.L36:
 933 000c 004E0040 		.word	1073761792
 934              		.cfi_endproc
 935              	.LFE8:
 936              		.size	ADC_therm_StartConvert, .-ADC_therm_StartConvert
 937              		.section	.text.ADC_therm_StopConvert,"ax",%progbits
 938              		.align	1
 939              		.global	ADC_therm_StopConvert
 940              		.thumb
 941              		.thumb_func
 942              		.type	ADC_therm_StopConvert, %function
 943              	ADC_therm_StopConvert:
 944              	.LFB9:
 610:Generated_Source\PSoC5/ADC_therm.c ****     /* Stop all conversions */
 945              		.loc 1 610 0
 946              		.cfi_startproc
 947              		@ args = 0, pretend = 0, frame = 0
 948              		@ frame_needed = 0, uses_anonymous_args = 0
 949              		@ link register save eliminated.
 612:Generated_Source\PSoC5/ADC_therm.c **** }
 950              		.loc 1 612 0
 951 0000 024A     		ldr	r2, .L39
 952 0002 1378     		ldrb	r3, [r2]	@ zero_extendqisi2
 953 0004 03F0FE03 		and	r3, r3, #254
 954 0008 1370     		strb	r3, [r2]
 955 000a 7047     		bx	lr
 956              	.L40:
 957              		.align	2
 958              	.L39:
 959 000c 004E0040 		.word	1073761792
 960              		.cfi_endproc
 961              	.LFE9:
 962              		.size	ADC_therm_StopConvert, .-ADC_therm_StopConvert
 963              		.section	.text.ADC_therm_IsEndConversion,"ax",%progbits
 964              		.align	1
 965              		.global	ADC_therm_IsEndConversion
 966              		.thumb
 967              		.thumb_func
 968              		.type	ADC_therm_IsEndConversion, %function
 969              	ADC_therm_IsEndConversion:
 970              	.LFB10:
 645:Generated_Source\PSoC5/ADC_therm.c ****     uint8 status;
 971              		.loc 1 645 0
 972              		.cfi_startproc
 973              		@ args = 0, pretend = 0, frame = 0
 974              		@ frame_needed = 0, uses_anonymous_args = 0
 975              		@ link register save eliminated.
 976              	.LVL60:
 653:Generated_Source\PSoC5/ADC_therm.c ****         {
 977              		.loc 1 653 0
 978 0000 074A     		ldr	r2, .L51
 659:Generated_Source\PSoC5/ADC_therm.c ****         }
 979              		.loc 1 659 0
 980 0002 0849     		ldr	r1, .L51+4
ARM GAS  C:\Users\chemi\AppData\Local\Temp\ccksh7Yh.s 			page 52


 981              	.L45:
 653:Generated_Source\PSoC5/ADC_therm.c ****         {
 982              		.loc 1 653 0
 983 0004 9379     		ldrb	r3, [r2, #6]	@ zero_extendqisi2
 984 0006 13B1     		cbz	r3, .L42
 655:Generated_Source\PSoC5/ADC_therm.c ****         }
 985              		.loc 1 655 0
 986 0008 1378     		ldrb	r3, [r2]	@ zero_extendqisi2
 987 000a DBB2     		uxtb	r3, r3
 988              	.LVL61:
 989 000c 02E0     		b	.L43
 990              	.LVL62:
 991              	.L42:
 659:Generated_Source\PSoC5/ADC_therm.c ****         }
 992              		.loc 1 659 0
 993 000e 0B78     		ldrb	r3, [r1]	@ zero_extendqisi2
 994 0010 03F00103 		and	r3, r3, #1
 995              	.LVL63:
 996              	.L43:
 661:Generated_Source\PSoC5/ADC_therm.c **** 
 997              		.loc 1 661 0
 998 0014 012B     		cmp	r3, #1
 999 0016 01D0     		beq	.L44
 661:Generated_Source\PSoC5/ADC_therm.c **** 
 1000              		.loc 1 661 0 is_stmt 0 discriminator 1
 1001 0018 0028     		cmp	r0, #0
 1002 001a F3D0     		beq	.L45
 1003              	.L44:
 664:Generated_Source\PSoC5/ADC_therm.c **** 
 1004              		.loc 1 664 0 is_stmt 1
 1005 001c 1846     		mov	r0, r3
 1006              	.LVL64:
 1007 001e 7047     		bx	lr
 1008              	.L52:
 1009              		.align	2
 1010              	.L51:
 1011 0020 00000000 		.word	.LANCHOR1
 1012 0024 014E0040 		.word	1073761793
 1013              		.cfi_endproc
 1014              	.LFE10:
 1015              		.size	ADC_therm_IsEndConversion, .-ADC_therm_IsEndConversion
 1016              		.section	.text.ADC_therm_GetResult8,"ax",%progbits
 1017              		.align	1
 1018              		.global	ADC_therm_GetResult8
 1019              		.thumb
 1020              		.thumb_func
 1021              		.type	ADC_therm_GetResult8, %function
 1022              	ADC_therm_GetResult8:
 1023              	.LFB11:
 692:Generated_Source\PSoC5/ADC_therm.c ****     int8 result;
 1024              		.loc 1 692 0
 1025              		.cfi_startproc
 1026              		@ args = 0, pretend = 0, frame = 0
 1027              		@ frame_needed = 0, uses_anonymous_args = 0
 1028              		@ link register save eliminated.
 697:Generated_Source\PSoC5/ADC_therm.c **** 
 1029              		.loc 1 697 0
ARM GAS  C:\Users\chemi\AppData\Local\Temp\ccksh7Yh.s 			page 53


 1030 0000 0A4B     		ldr	r3, .L61
 699:Generated_Source\PSoC5/ADC_therm.c **** 
 1031              		.loc 1 699 0
 1032 0002 0B4A     		ldr	r2, .L61+4
 697:Generated_Source\PSoC5/ADC_therm.c **** 
 1033              		.loc 1 697 0
 1034 0004 1B78     		ldrb	r3, [r3]	@ zero_extendqisi2
 699:Generated_Source\PSoC5/ADC_therm.c **** 
 1035              		.loc 1 699 0
 1036 0006 1078     		ldrb	r0, [r2]	@ zero_extendqisi2
 697:Generated_Source\PSoC5/ADC_therm.c **** 
 1037              		.loc 1 697 0
 1038 0008 03F00303 		and	r3, r3, #3
 1039              	.LVL65:
 701:Generated_Source\PSoC5/ADC_therm.c ****     {   /* Dummy read of the middle byte to unlock the coherency */
 1040              		.loc 1 701 0
 1041 000c 022B     		cmp	r3, #2
 699:Generated_Source\PSoC5/ADC_therm.c **** 
 1042              		.loc 1 699 0
 1043 000e 40B2     		sxtb	r0, r0
 1044              	.LVL66:
 701:Generated_Source\PSoC5/ADC_therm.c ****     {   /* Dummy read of the middle byte to unlock the coherency */
 1045              		.loc 1 701 0
 1046 0010 01D1     		bne	.L54
 703:Generated_Source\PSoC5/ADC_therm.c ****     }
 1047              		.loc 1 703 0
 1048 0012 084B     		ldr	r3, .L61+8
 1049              	.LVL67:
 1050 0014 02E0     		b	.L60
 1051              	.LVL68:
 1052              	.L54:
 705:Generated_Source\PSoC5/ADC_therm.c ****     {   /* Dummy read of the MSB byte to unlock the coherency */
 1053              		.loc 1 705 0
 1054 0016 032B     		cmp	r3, #3
 1055 0018 01D1     		bne	.L55
 707:Generated_Source\PSoC5/ADC_therm.c ****     }
 1056              		.loc 1 707 0
 1057 001a 074B     		ldr	r3, .L61+12
 1058              	.LVL69:
 1059              	.L60:
 1060 001c 1B78     		ldrb	r3, [r3]	@ zero_extendqisi2
 1061              	.L55:
 713:Generated_Source\PSoC5/ADC_therm.c ****     {
 1062              		.loc 1 713 0
 1063 001e 074B     		ldr	r3, .L61+16
 1064 0020 9A79     		ldrb	r2, [r3, #6]	@ zero_extendqisi2
 1065 0022 0AB1     		cbz	r2, .L56
 715:Generated_Source\PSoC5/ADC_therm.c ****     }
 1066              		.loc 1 715 0
 1067 0024 0022     		movs	r2, #0
 1068 0026 1A70     		strb	r2, [r3]
 1069              	.L56:
 718:Generated_Source\PSoC5/ADC_therm.c **** 
 1070              		.loc 1 718 0
 1071 0028 7047     		bx	lr
 1072              	.L62:
 1073 002a 00BF     		.align	2
ARM GAS  C:\Users\chemi\AppData\Local\Temp\ccksh7Yh.s 			page 54


 1074              	.L61:
 1075 002c 144E0040 		.word	1073761812
 1076 0030 104E0040 		.word	1073761808
 1077 0034 114E0040 		.word	1073761809
 1078 0038 124E0040 		.word	1073761810
 1079 003c 00000000 		.word	.LANCHOR1
 1080              		.cfi_endproc
 1081              	.LFE11:
 1082              		.size	ADC_therm_GetResult8, .-ADC_therm_GetResult8
 1083              		.section	.text.ADC_therm_GetResult16,"ax",%progbits
 1084              		.align	1
 1085              		.global	ADC_therm_GetResult16
 1086              		.thumb
 1087              		.thumb_func
 1088              		.type	ADC_therm_GetResult16, %function
 1089              	ADC_therm_GetResult16:
 1090              	.LFB12:
 746:Generated_Source\PSoC5/ADC_therm.c ****     uint16 result;
 1091              		.loc 1 746 0
 1092              		.cfi_startproc
 1093              		@ args = 0, pretend = 0, frame = 0
 1094              		@ frame_needed = 0, uses_anonymous_args = 0
 1095              		@ link register save eliminated.
 751:Generated_Source\PSoC5/ADC_therm.c **** 
 1096              		.loc 1 751 0
 1097 0000 0C4B     		ldr	r3, .L70
 1098 0002 1A78     		ldrb	r2, [r3]	@ zero_extendqisi2
 1099 0004 043B     		subs	r3, r3, #4
 1100 0006 02F00302 		and	r2, r2, #3
 1101              	.LVL70:
 753:Generated_Source\PSoC5/ADC_therm.c ****     {   /*  Use default method to read result registers i.e. LSB byte read at the end*/
 1102              		.loc 1 753 0
 1103 000a 012A     		cmp	r2, #1
 1104 000c 02D8     		bhi	.L64
 759:Generated_Source\PSoC5/ADC_therm.c ****         #endif /* CY_PSOC3 */
 1105              		.loc 1 759 0
 1106 000e 1888     		ldrh	r0, [r3]
 1107 0010 80B2     		uxth	r0, r0
 1108              	.LVL71:
 1109 0012 08E0     		b	.L65
 1110              	.LVL72:
 1111              	.L64:
 768:Generated_Source\PSoC5/ADC_therm.c ****         #endif /* CY_PSOC3 */
 1112              		.loc 1 768 0
 1113 0014 0849     		ldr	r1, .L70+4
 767:Generated_Source\PSoC5/ADC_therm.c ****             result |=  (uint16)((uint16)ADC_therm_DEC_SAMPM_REG << 8u);
 1114              		.loc 1 767 0
 1115 0016 1B78     		ldrb	r3, [r3]	@ zero_extendqisi2
 1116              	.LVL73:
 768:Generated_Source\PSoC5/ADC_therm.c ****         #endif /* CY_PSOC3 */
 1117              		.loc 1 768 0
 1118 0018 0878     		ldrb	r0, [r1]	@ zero_extendqisi2
 770:Generated_Source\PSoC5/ADC_therm.c ****         {   /* Dummy read of the MSB byte to unlock the coherency */
 1119              		.loc 1 770 0
 1120 001a 032A     		cmp	r2, #3
 768:Generated_Source\PSoC5/ADC_therm.c ****         #endif /* CY_PSOC3 */
 1121              		.loc 1 768 0
ARM GAS  C:\Users\chemi\AppData\Local\Temp\ccksh7Yh.s 			page 55


 1122 001c 43EA0020 		orr	r0, r3, r0, lsl #8
 1123              	.LVL74:
 772:Generated_Source\PSoC5/ADC_therm.c ****         }
 1124              		.loc 1 772 0
 1125 0020 04BF     		itt	eq
 1126 0022 064B     		ldreq	r3, .L70+8
 1127 0024 1B78     		ldrbeq	r3, [r3]	@ zero_extendqisi2
 1128              	.L65:
 776:Generated_Source\PSoC5/ADC_therm.c ****     {
 1129              		.loc 1 776 0
 1130 0026 064B     		ldr	r3, .L70+12
 1131 0028 9A79     		ldrb	r2, [r3, #6]	@ zero_extendqisi2
 1132              	.LVL75:
 1133 002a 0AB1     		cbz	r2, .L66
 778:Generated_Source\PSoC5/ADC_therm.c ****     }
 1134              		.loc 1 778 0
 1135 002c 0022     		movs	r2, #0
 1136 002e 1A70     		strb	r2, [r3]
 1137              	.L66:
 782:Generated_Source\PSoC5/ADC_therm.c **** 
 1138              		.loc 1 782 0
 1139 0030 00B2     		sxth	r0, r0
 1140 0032 7047     		bx	lr
 1141              	.L71:
 1142              		.align	2
 1143              	.L70:
 1144 0034 144E0040 		.word	1073761812
 1145 0038 114E0040 		.word	1073761809
 1146 003c 124E0040 		.word	1073761810
 1147 0040 00000000 		.word	.LANCHOR1
 1148              		.cfi_endproc
 1149              	.LFE12:
 1150              		.size	ADC_therm_GetResult16, .-ADC_therm_GetResult16
 1151              		.section	.text.ADC_therm_GetResult32,"ax",%progbits
 1152              		.align	1
 1153              		.global	ADC_therm_GetResult32
 1154              		.thumb
 1155              		.thumb_func
 1156              		.type	ADC_therm_GetResult32, %function
 1157              	ADC_therm_GetResult32:
 1158              	.LFB13:
 806:Generated_Source\PSoC5/ADC_therm.c ****     uint32 result;
 1159              		.loc 1 806 0
 1160              		.cfi_startproc
 1161              		@ args = 0, pretend = 0, frame = 0
 1162              		@ frame_needed = 0, uses_anonymous_args = 0
 1163              		@ link register save eliminated.
 814:Generated_Source\PSoC5/ADC_therm.c **** 
 1164              		.loc 1 814 0
 1165 0000 104B     		ldr	r3, .L81
 1166 0002 114A     		ldr	r2, .L81+4
 1167 0004 1B78     		ldrb	r3, [r3]	@ zero_extendqisi2
 1168 0006 1149     		ldr	r1, .L81+8
 1169 0008 03F00303 		and	r3, r3, #3
 1170              	.LVL76:
 816:Generated_Source\PSoC5/ADC_therm.c ****     {   /*  Use default method to read result registers i.e. LSB byte read at the end*/
 1171              		.loc 1 816 0
ARM GAS  C:\Users\chemi\AppData\Local\Temp\ccksh7Yh.s 			page 56


 1172 000c 012B     		cmp	r3, #1
 1173 000e 03D8     		bhi	.L73
 827:Generated_Source\PSoC5/ADC_therm.c ****             result = (result << 16u) | (CY_GET_REG16(ADC_therm_DEC_SAMP_16B_PTR));
 1174              		.loc 1 827 0
 1175 0010 1388     		ldrh	r3, [r2]
 1176              	.LVL77:
 828:Generated_Source\PSoC5/ADC_therm.c ****         #endif /* CY_PSOC3 */
 1177              		.loc 1 828 0
 1178 0012 0888     		ldrh	r0, [r1]
 1179 0014 80B2     		uxth	r0, r0
 1180 0016 0DE0     		b	.L80
 1181              	.LVL78:
 1182              	.L73:
 831:Generated_Source\PSoC5/ADC_therm.c ****     {   /* Read middle byte at the end */
 1183              		.loc 1 831 0
 1184 0018 022B     		cmp	r3, #2
 1185 001a 08D1     		bne	.L75
 843:Generated_Source\PSoC5/ADC_therm.c ****         #endif /* CY_PSOC3 */
 1186              		.loc 1 843 0
 1187 001c 0C4B     		ldr	r3, .L81+12
 1188              	.LVL79:
 841:Generated_Source\PSoC5/ADC_therm.c ****             result = (result << 16u) | ADC_therm_DEC_SAMP_REG;
 1189              		.loc 1 841 0
 1190 001e 1088     		ldrh	r0, [r2]
 1191              	.LVL80:
 842:Generated_Source\PSoC5/ADC_therm.c ****             result |=  (uint32)((uint32)ADC_therm_DEC_SAMPM_REG << 8u);
 1192              		.loc 1 842 0
 1193 0020 0A78     		ldrb	r2, [r1]	@ zero_extendqisi2
 1194              	.LVL81:
 843:Generated_Source\PSoC5/ADC_therm.c ****         #endif /* CY_PSOC3 */
 1195              		.loc 1 843 0
 1196 0022 1B78     		ldrb	r3, [r3]	@ zero_extendqisi2
 1197 0024 1B02     		lsls	r3, r3, #8
 1198 0026 43EA0040 		orr	r0, r3, r0, lsl #16
 1199              	.LVL82:
 1200 002a 1043     		orrs	r0, r0, r2
 1201              	.LVL83:
 1202 002c 04E0     		b	.L74
 1203              	.LVL84:
 1204              	.L75:
 858:Generated_Source\PSoC5/ADC_therm.c ****             result |= (uint32)((uint32)CY_GET_REG16(ADC_therm_DEC_SAMPH_16B_PTR) << 16u);
 1205              		.loc 1 858 0
 1206 002e 0888     		ldrh	r0, [r1]
 859:Generated_Source\PSoC5/ADC_therm.c ****         #endif /* CY_PSOC3 */
 1207              		.loc 1 859 0
 1208 0030 1388     		ldrh	r3, [r2]
 1209              	.LVL85:
 858:Generated_Source\PSoC5/ADC_therm.c ****             result |= (uint32)((uint32)CY_GET_REG16(ADC_therm_DEC_SAMPH_16B_PTR) << 16u);
 1210              		.loc 1 858 0
 1211 0032 80B2     		uxth	r0, r0
 1212              	.LVL86:
 1213              	.L80:
 859:Generated_Source\PSoC5/ADC_therm.c ****         #endif /* CY_PSOC3 */
 1214              		.loc 1 859 0
 1215 0034 40EA0340 		orr	r0, r0, r3, lsl #16
 1216              	.LVL87:
 1217              	.L74:
ARM GAS  C:\Users\chemi\AppData\Local\Temp\ccksh7Yh.s 			page 57


 863:Generated_Source\PSoC5/ADC_therm.c ****     {
 1218              		.loc 1 863 0
 1219 0038 064B     		ldr	r3, .L81+16
 1220 003a 9A79     		ldrb	r2, [r3, #6]	@ zero_extendqisi2
 1221 003c 0AB1     		cbz	r2, .L76
 865:Generated_Source\PSoC5/ADC_therm.c ****     }
 1222              		.loc 1 865 0
 1223 003e 0022     		movs	r2, #0
 1224 0040 1A70     		strb	r2, [r3]
 1225              	.L76:
 869:Generated_Source\PSoC5/ADC_therm.c **** 
 1226              		.loc 1 869 0
 1227 0042 7047     		bx	lr
 1228              	.L82:
 1229              		.align	2
 1230              	.L81:
 1231 0044 144E0040 		.word	1073761812
 1232 0048 124E0040 		.word	1073761810
 1233 004c 104E0040 		.word	1073761808
 1234 0050 114E0040 		.word	1073761809
 1235 0054 00000000 		.word	.LANCHOR1
 1236              		.cfi_endproc
 1237              	.LFE13:
 1238              		.size	ADC_therm_GetResult32, .-ADC_therm_GetResult32
 1239              		.section	.text.ADC_therm_SetOffset,"ax",%progbits
 1240              		.align	1
 1241              		.global	ADC_therm_SetOffset
 1242              		.thumb
 1243              		.thumb_func
 1244              		.type	ADC_therm_SetOffset, %function
 1245              	ADC_therm_SetOffset:
 1246              	.LFB14:
 899:Generated_Source\PSoC5/ADC_therm.c **** 
 1247              		.loc 1 899 0
 1248              		.cfi_startproc
 1249              		@ args = 0, pretend = 0, frame = 0
 1250              		@ frame_needed = 0, uses_anonymous_args = 0
 1251              		@ link register save eliminated.
 1252              	.LVL88:
 901:Generated_Source\PSoC5/ADC_therm.c **** }
 1253              		.loc 1 901 0
 1254 0000 014B     		ldr	r3, .L84
 1255 0002 1860     		str	r0, [r3]
 1256 0004 7047     		bx	lr
 1257              	.L85:
 1258 0006 00BF     		.align	2
 1259              	.L84:
 1260 0008 00000000 		.word	ADC_therm_Offset
 1261              		.cfi_endproc
 1262              	.LFE14:
 1263              		.size	ADC_therm_SetOffset, .-ADC_therm_SetOffset
 1264              		.section	.text.ADC_therm_SetGain,"ax",%progbits
 1265              		.align	1
 1266              		.global	ADC_therm_SetGain
 1267              		.thumb
 1268              		.thumb_func
 1269              		.type	ADC_therm_SetGain, %function
ARM GAS  C:\Users\chemi\AppData\Local\Temp\ccksh7Yh.s 			page 58


 1270              	ADC_therm_SetGain:
 1271              	.LFB15:
 934:Generated_Source\PSoC5/ADC_therm.c ****     ADC_therm_CountsPerVolt = adcGain;
 1272              		.loc 1 934 0
 1273              		.cfi_startproc
 1274              		@ args = 0, pretend = 0, frame = 0
 1275              		@ frame_needed = 0, uses_anonymous_args = 0
 1276              		@ link register save eliminated.
 1277              	.LVL89:
 935:Generated_Source\PSoC5/ADC_therm.c **** }
 1278              		.loc 1 935 0
 1279 0000 014B     		ldr	r3, .L87
 1280 0002 1860     		str	r0, [r3]
 1281 0004 7047     		bx	lr
 1282              	.L88:
 1283 0006 00BF     		.align	2
 1284              	.L87:
 1285 0008 00000000 		.word	ADC_therm_CountsPerVolt
 1286              		.cfi_endproc
 1287              	.LFE15:
 1288              		.size	ADC_therm_SetGain, .-ADC_therm_SetGain
 1289              		.section	.text.ADC_therm_CountsTo_mVolts,"ax",%progbits
 1290              		.align	1
 1291              		.global	ADC_therm_CountsTo_mVolts
 1292              		.thumb
 1293              		.thumb_func
 1294              		.type	ADC_therm_CountsTo_mVolts, %function
 1295              	ADC_therm_CountsTo_mVolts:
 1296              	.LFB16:
 961:Generated_Source\PSoC5/ADC_therm.c **** 
 1297              		.loc 1 961 0
 1298              		.cfi_startproc
 1299              		@ args = 0, pretend = 0, frame = 0
 1300              		@ frame_needed = 0, uses_anonymous_args = 0
 1301              		@ link register save eliminated.
 1302              	.LVL90:
 992:Generated_Source\PSoC5/ADC_therm.c **** 
 1303              		.loc 1 992 0
 1304 0000 054B     		ldr	r3, .L90
 994:Generated_Source\PSoC5/ADC_therm.c **** 
 1305              		.loc 1 994 0
 1306 0002 064A     		ldr	r2, .L90+4
 992:Generated_Source\PSoC5/ADC_therm.c **** 
 1307              		.loc 1 992 0
 1308 0004 1B68     		ldr	r3, [r3]
 1309              	.LVL91:
 994:Generated_Source\PSoC5/ADC_therm.c **** 
 1310              		.loc 1 994 0
 1311 0006 1268     		ldr	r2, [r2]
 1312              	.LVL92:
 996:Generated_Source\PSoC5/ADC_therm.c **** }
 1313              		.loc 1 996 0
 1314 0008 C01A     		subs	r0, r0, r3
 1315              	.LVL93:
 1316 000a 4FF47A73 		mov	r3, #1000
 1317              	.LVL94:
 1318 000e 5843     		muls	r0, r3, r0
ARM GAS  C:\Users\chemi\AppData\Local\Temp\ccksh7Yh.s 			page 59


 1319              	.LVL95:
 1320 0010 90FBF2F0 		sdiv	r0, r0, r2
 997:Generated_Source\PSoC5/ADC_therm.c **** 
 1321              		.loc 1 997 0
 1322 0014 00B2     		sxth	r0, r0
 1323 0016 7047     		bx	lr
 1324              	.L91:
 1325              		.align	2
 1326              	.L90:
 1327 0018 00000000 		.word	ADC_therm_Offset
 1328 001c 00000000 		.word	ADC_therm_CountsPerVolt
 1329              		.cfi_endproc
 1330              	.LFE16:
 1331              		.size	ADC_therm_CountsTo_mVolts, .-ADC_therm_CountsTo_mVolts
 1332              		.global	__aeabi_i2f
 1333              		.global	__aeabi_fdiv
 1334              		.section	.text.ADC_therm_CountsTo_Volts,"ax",%progbits
 1335              		.align	1
 1336              		.global	ADC_therm_CountsTo_Volts
 1337              		.thumb
 1338              		.thumb_func
 1339              		.type	ADC_therm_CountsTo_Volts, %function
 1340              	ADC_therm_CountsTo_Volts:
 1341              	.LFB17:
1022:Generated_Source\PSoC5/ADC_therm.c **** 
 1342              		.loc 1 1022 0
 1343              		.cfi_startproc
 1344              		@ args = 0, pretend = 0, frame = 0
 1345              		@ frame_needed = 0, uses_anonymous_args = 0
 1346              	.LVL96:
 1347 0000 38B5     		push	{r3, r4, r5, lr}
 1348              		.cfi_def_cfa_offset 16
 1349              		.cfi_offset 3, -16
 1350              		.cfi_offset 4, -12
 1351              		.cfi_offset 5, -8
 1352              		.cfi_offset 14, -4
1053:Generated_Source\PSoC5/ADC_therm.c **** 
 1353              		.loc 1 1053 0
 1354 0002 084B     		ldr	r3, .L93
1055:Generated_Source\PSoC5/ADC_therm.c **** 
 1355              		.loc 1 1055 0
 1356 0004 084A     		ldr	r2, .L93+4
1053:Generated_Source\PSoC5/ADC_therm.c **** 
 1357              		.loc 1 1053 0
 1358 0006 1B68     		ldr	r3, [r3]
 1359              	.LVL97:
1055:Generated_Source\PSoC5/ADC_therm.c **** 
 1360              		.loc 1 1055 0
 1361 0008 1568     		ldr	r5, [r2]
 1362              	.LVL98:
1057:Generated_Source\PSoC5/ADC_therm.c **** }
 1363              		.loc 1 1057 0
 1364 000a C01A     		subs	r0, r0, r3
 1365              	.LVL99:
 1366 000c FFF7FEFF 		bl	__aeabi_i2f
 1367              	.LVL100:
 1368 0010 0446     		mov	r4, r0
ARM GAS  C:\Users\chemi\AppData\Local\Temp\ccksh7Yh.s 			page 60


 1369 0012 2846     		mov	r0, r5
 1370 0014 FFF7FEFF 		bl	__aeabi_i2f
 1371              	.LVL101:
 1372 0018 0146     		mov	r1, r0
 1373 001a 2046     		mov	r0, r4
 1374 001c FFF7FEFF 		bl	__aeabi_fdiv
 1375              	.LVL102:
1058:Generated_Source\PSoC5/ADC_therm.c **** 
 1376              		.loc 1 1058 0
 1377 0020 38BD     		pop	{r3, r4, r5, pc}
 1378              	.L94:
 1379 0022 00BF     		.align	2
 1380              	.L93:
 1381 0024 00000000 		.word	ADC_therm_Offset
 1382 0028 00000000 		.word	ADC_therm_CountsPerVolt
 1383              		.cfi_endproc
 1384              	.LFE17:
 1385              		.size	ADC_therm_CountsTo_Volts, .-ADC_therm_CountsTo_Volts
 1386              		.section	.text.ADC_therm_CountsTo_uVolts,"ax",%progbits
 1387              		.align	1
 1388              		.global	ADC_therm_CountsTo_uVolts
 1389              		.thumb
 1390              		.thumb_func
 1391              		.type	ADC_therm_CountsTo_uVolts, %function
 1392              	ADC_therm_CountsTo_uVolts:
 1393              	.LFB18:
1088:Generated_Source\PSoC5/ADC_therm.c **** 
 1394              		.loc 1 1088 0
 1395              		.cfi_startproc
 1396              		@ args = 0, pretend = 0, frame = 0
 1397              		@ frame_needed = 0, uses_anonymous_args = 0
 1398              		@ link register save eliminated.
 1399              	.LVL103:
1097:Generated_Source\PSoC5/ADC_therm.c ****     {
 1400              		.loc 1 1097 0
 1401 0000 0E4B     		ldr	r3, .L99
 1402 0002 1A78     		ldrb	r2, [r3]	@ zero_extendqisi2
 1403 0004 012A     		cmp	r2, #1
 1404 0006 04D0     		beq	.L97
1104:Generated_Source\PSoC5/ADC_therm.c ****     {
 1405              		.loc 1 1104 0
 1406 0008 1A78     		ldrb	r2, [r3]	@ zero_extendqisi2
 1407 000a 022A     		cmp	r2, #2
 1408 000c 04D0     		beq	.L98
1111:Generated_Source\PSoC5/ADC_therm.c ****     {
 1409              		.loc 1 1111 0
 1410 000e 1B78     		ldrb	r3, [r3]	@ zero_extendqisi2
 1411 0010 02E0     		b	.L98
 1412              	.L97:
1134:Generated_Source\PSoC5/ADC_therm.c ****                 break;
 1413              		.loc 1 1134 0
 1414 0012 0221     		movs	r1, #2
1133:Generated_Source\PSoC5/ADC_therm.c ****                 coefB = ADC_therm_DIVISOR_2;
 1415              		.loc 1 1133 0
 1416 0014 0A4B     		ldr	r3, .L99+4
 1417 0016 02E0     		b	.L96
 1418              	.L98:
ARM GAS  C:\Users\chemi\AppData\Local\Temp\ccksh7Yh.s 			page 61


1169:Generated_Source\PSoC5/ADC_therm.c ****                 coefB = ADC_therm_DIVISOR_32;
 1419              		.loc 1 1169 0
 1420 0018 47F61223 		movw	r3, #31250
1170:Generated_Source\PSoC5/ADC_therm.c ****                 break;
 1421              		.loc 1 1170 0
 1422 001c 2021     		movs	r1, #32
 1423              	.L96:
 1424              	.LVL104:
1215:Generated_Source\PSoC5/ADC_therm.c ****     uVolts = ((coefA * adcCounts) / coefB) - ((coefA * ADC_therm_Offset) / coefB);
 1425              		.loc 1 1215 0
 1426 001e 094A     		ldr	r2, .L99+8
1218:Generated_Source\PSoC5/ADC_therm.c **** }
 1427              		.loc 1 1218 0
 1428 0020 5843     		muls	r0, r3, r0
 1429              	.LVL105:
1215:Generated_Source\PSoC5/ADC_therm.c ****     uVolts = ((coefA * adcCounts) / coefB) - ((coefA * ADC_therm_Offset) / coefB);
 1430              		.loc 1 1215 0
 1431 0022 1268     		ldr	r2, [r2]
 1432 0024 92FBF1F1 		sdiv	r1, r2, r1
 1433              	.LVL106:
1216:Generated_Source\PSoC5/ADC_therm.c **** 
 1434              		.loc 1 1216 0
 1435 0028 074A     		ldr	r2, .L99+12
1218:Generated_Source\PSoC5/ADC_therm.c **** }
 1436              		.loc 1 1218 0
 1437 002a 90FBF1F0 		sdiv	r0, r0, r1
1216:Generated_Source\PSoC5/ADC_therm.c **** 
 1438              		.loc 1 1216 0
 1439 002e 1268     		ldr	r2, [r2]
1218:Generated_Source\PSoC5/ADC_therm.c **** }
 1440              		.loc 1 1218 0
 1441 0030 5343     		muls	r3, r2, r3
 1442              	.LVL107:
 1443 0032 93FBF1F3 		sdiv	r3, r3, r1
1219:Generated_Source\PSoC5/ADC_therm.c **** 
 1444              		.loc 1 1219 0
 1445 0036 C01A     		subs	r0, r0, r3
 1446 0038 7047     		bx	lr
 1447              	.L100:
 1448 003a 00BF     		.align	2
 1449              	.L99:
 1450 003c 00000000 		.word	.LANCHOR0
 1451 0040 20A10700 		.word	500000
 1452 0044 00000000 		.word	ADC_therm_CountsPerVolt
 1453 0048 00000000 		.word	ADC_therm_Offset
 1454              		.cfi_endproc
 1455              	.LFE18:
 1456              		.size	ADC_therm_CountsTo_uVolts, .-ADC_therm_CountsTo_uVolts
 1457              		.section	.text.ADC_therm_SelectConfiguration,"ax",%progbits
 1458              		.align	1
 1459              		.global	ADC_therm_SelectConfiguration
 1460              		.thumb
 1461              		.thumb_func
 1462              		.type	ADC_therm_SelectConfiguration, %function
 1463              	ADC_therm_SelectConfiguration:
 1464              	.LFB20:
1554:Generated_Source\PSoC5/ADC_therm.c ****     /* Check whether the configuration number is valid or not */
ARM GAS  C:\Users\chemi\AppData\Local\Temp\ccksh7Yh.s 			page 62


 1465              		.loc 1 1554 0
 1466              		.cfi_startproc
 1467              		@ args = 0, pretend = 0, frame = 0
 1468              		@ frame_needed = 0, uses_anonymous_args = 0
 1469              	.LVL108:
1556:Generated_Source\PSoC5/ADC_therm.c ****     {
 1470              		.loc 1 1556 0
 1471 0000 0128     		cmp	r0, #1
1554:Generated_Source\PSoC5/ADC_therm.c ****     /* Check whether the configuration number is valid or not */
 1472              		.loc 1 1554 0
 1473 0002 38B5     		push	{r3, r4, r5, lr}
 1474              		.cfi_def_cfa_offset 16
 1475              		.cfi_offset 3, -16
 1476              		.cfi_offset 4, -12
 1477              		.cfi_offset 5, -8
 1478              		.cfi_offset 14, -4
1554:Generated_Source\PSoC5/ADC_therm.c ****     /* Check whether the configuration number is valid or not */
 1479              		.loc 1 1554 0
 1480 0004 0D46     		mov	r5, r1
1556:Generated_Source\PSoC5/ADC_therm.c ****     {
 1481              		.loc 1 1556 0
 1482 0006 1AD1     		bne	.L101
1561:Generated_Source\PSoC5/ADC_therm.c ****         {
 1483              		.loc 1 1561 0
 1484 0008 0D4C     		ldr	r4, .L106
 1485 000a E379     		ldrb	r3, [r4, #7]	@ zero_extendqisi2
 1486 000c 03B9     		cbnz	r3, .L104
1563:Generated_Source\PSoC5/ADC_therm.c ****         }
 1487              		.loc 1 1563 0
 1488 000e 2072     		strb	r0, [r4, #8]
 1489              	.L104:
1567:Generated_Source\PSoC5/ADC_therm.c **** 
 1490              		.loc 1 1567 0
 1491 0010 0C4B     		ldr	r3, .L106+4
 1492 0012 0122     		movs	r2, #1
 1493 0014 1A70     		strb	r2, [r3]
1570:Generated_Source\PSoC5/ADC_therm.c **** 
 1494              		.loc 1 1570 0
 1495 0016 FFF7FEFF 		bl	ADC_therm_Stop
 1496              	.LVL109:
 1497              	.LBB18:
 1498              	.LBB19:
1244:Generated_Source\PSoC5/ADC_therm.c **** 
 1499              		.loc 1 1244 0
 1500 001a 0023     		movs	r3, #0
 1501 001c A371     		strb	r3, [r4, #6]
 1502 001e FFF7FEFF 		bl	ADC_therm_InitConfig.part.0
 1503              	.LVL110:
 1504              	.LBE19:
 1505              	.LBE18:
1576:Generated_Source\PSoC5/ADC_therm.c ****         CY_SET_REG16(ADC_therm_DEC_GCOR_16B_PTR, ADC_therm_gcor[config - 1u].gcor);
 1506              		.loc 1 1576 0
 1507 0022 2279     		ldrb	r2, [r4, #4]	@ zero_extendqisi2
 1508 0024 084B     		ldr	r3, .L106+8
1579:Generated_Source\PSoC5/ADC_therm.c ****         {
 1509              		.loc 1 1579 0
 1510 0026 012D     		cmp	r5, #1
ARM GAS  C:\Users\chemi\AppData\Local\Temp\ccksh7Yh.s 			page 63


1576:Generated_Source\PSoC5/ADC_therm.c ****         CY_SET_REG16(ADC_therm_DEC_GCOR_16B_PTR, ADC_therm_gcor[config - 1u].gcor);
 1511              		.loc 1 1576 0
 1512 0028 1A70     		strb	r2, [r3]
1577:Generated_Source\PSoC5/ADC_therm.c **** 
 1513              		.loc 1 1577 0
 1514 002a 6288     		ldrh	r2, [r4, #2]
 1515 002c 23F8022C 		strh	r2, [r3, #-2]	@ movhi
1579:Generated_Source\PSoC5/ADC_therm.c ****         {
 1516              		.loc 1 1579 0
 1517 0030 05D1     		bne	.L101
1582:Generated_Source\PSoC5/ADC_therm.c **** 
 1518              		.loc 1 1582 0
 1519 0032 FFF7FEFF 		bl	ADC_therm_Start
 1520              	.LVL111:
1593:Generated_Source\PSoC5/ADC_therm.c **** 
 1521              		.loc 1 1593 0
 1522 0036 BDE83840 		pop	{r3, r4, r5, lr}
 1523              		.cfi_remember_state
 1524              		.cfi_restore 14
 1525              		.cfi_restore 5
 1526              		.cfi_restore 4
 1527              		.cfi_restore 3
 1528              		.cfi_def_cfa_offset 0
1585:Generated_Source\PSoC5/ADC_therm.c ****         }
 1529              		.loc 1 1585 0
 1530 003a FFF7FEBF 		b	ADC_therm_StartConvert
 1531              	.LVL112:
 1532              	.L101:
 1533              		.cfi_restore_state
 1534 003e 38BD     		pop	{r3, r4, r5, pc}
 1535              	.L107:
 1536              		.align	2
 1537              	.L106:
 1538 0040 00000000 		.word	.LANCHOR1
 1539 0044 00000000 		.word	.LANCHOR0
 1540 0048 0E4E0040 		.word	1073761806
 1541              		.cfi_endproc
 1542              	.LFE20:
 1543              		.size	ADC_therm_SelectConfiguration, .-ADC_therm_SelectConfiguration
 1544              		.section	.text.ADC_therm_Read8,"ax",%progbits
 1545              		.align	1
 1546              		.global	ADC_therm_Read8
 1547              		.thumb
 1548              		.thumb_func
 1549              		.type	ADC_therm_Read8, %function
 1550              	ADC_therm_Read8:
 1551              	.LFB23:
1741:Generated_Source\PSoC5/ADC_therm.c **** }
1742:Generated_Source\PSoC5/ADC_therm.c **** 
1743:Generated_Source\PSoC5/ADC_therm.c **** 
1744:Generated_Source\PSoC5/ADC_therm.c **** /*******************************************************************************
1745:Generated_Source\PSoC5/ADC_therm.c **** * Function Name: ADC_therm_Read8
1746:Generated_Source\PSoC5/ADC_therm.c **** ********************************************************************************
1747:Generated_Source\PSoC5/ADC_therm.c **** *
1748:Generated_Source\PSoC5/ADC_therm.c **** * Summary:
1749:Generated_Source\PSoC5/ADC_therm.c **** *  This function simplifies getting results from the ADC when only a
1750:Generated_Source\PSoC5/ADC_therm.c **** *  single reading is required. When called, it will start ADC
ARM GAS  C:\Users\chemi\AppData\Local\Temp\ccksh7Yh.s 			page 64


1751:Generated_Source\PSoC5/ADC_therm.c **** *  conversions, wait for the conversion to be complete, stop ADC
1752:Generated_Source\PSoC5/ADC_therm.c **** *  conversion and return the result. This is a blocking function and will
1753:Generated_Source\PSoC5/ADC_therm.c **** *  not return until the result is ready.
1754:Generated_Source\PSoC5/ADC_therm.c **** *
1755:Generated_Source\PSoC5/ADC_therm.c **** * Parameters:
1756:Generated_Source\PSoC5/ADC_therm.c **** *  None
1757:Generated_Source\PSoC5/ADC_therm.c **** *
1758:Generated_Source\PSoC5/ADC_therm.c **** * Return:
1759:Generated_Source\PSoC5/ADC_therm.c **** *  int8:  ADC result.
1760:Generated_Source\PSoC5/ADC_therm.c **** *
1761:Generated_Source\PSoC5/ADC_therm.c **** *******************************************************************************/
1762:Generated_Source\PSoC5/ADC_therm.c **** int8 ADC_therm_Read8(void) 
1763:Generated_Source\PSoC5/ADC_therm.c **** {
 1552              		.loc 1 1763 0
 1553              		.cfi_startproc
 1554              		@ args = 0, pretend = 0, frame = 0
 1555              		@ frame_needed = 0, uses_anonymous_args = 0
 1556 0000 08B5     		push	{r3, lr}
 1557              		.cfi_def_cfa_offset 8
 1558              		.cfi_offset 3, -8
 1559              		.cfi_offset 14, -4
1764:Generated_Source\PSoC5/ADC_therm.c ****     int8 result;
1765:Generated_Source\PSoC5/ADC_therm.c **** 
1766:Generated_Source\PSoC5/ADC_therm.c ****     /* Clear pending conversion done status */
1767:Generated_Source\PSoC5/ADC_therm.c ****     ADC_therm_DEC_SR_REG |= ADC_therm_DEC_INTR_CLEAR;
 1560              		.loc 1 1767 0
 1561 0002 074A     		ldr	r2, .L109
 1562 0004 1378     		ldrb	r3, [r2]	@ zero_extendqisi2
 1563 0006 43F00403 		orr	r3, r3, #4
 1564 000a 1370     		strb	r3, [r2]
1768:Generated_Source\PSoC5/ADC_therm.c ****     ADC_therm_StartConvert();
 1565              		.loc 1 1768 0
 1566 000c FFF7FEFF 		bl	ADC_therm_StartConvert
 1567              	.LVL113:
1769:Generated_Source\PSoC5/ADC_therm.c ****     (void)ADC_therm_IsEndConversion(ADC_therm_WAIT_FOR_RESULT);
 1568              		.loc 1 1769 0
 1569 0010 0020     		movs	r0, #0
 1570 0012 FFF7FEFF 		bl	ADC_therm_IsEndConversion
 1571              	.LVL114:
1770:Generated_Source\PSoC5/ADC_therm.c ****      result = ADC_therm_GetResult8();
 1572              		.loc 1 1770 0
 1573 0016 FFF7FEFF 		bl	ADC_therm_GetResult8
 1574              	.LVL115:
1771:Generated_Source\PSoC5/ADC_therm.c ****     ADC_therm_StopConvert();
 1575              		.loc 1 1771 0
 1576 001a FFF7FEFF 		bl	ADC_therm_StopConvert
 1577              	.LVL116:
1772:Generated_Source\PSoC5/ADC_therm.c ****     
1773:Generated_Source\PSoC5/ADC_therm.c ****      return(result);
1774:Generated_Source\PSoC5/ADC_therm.c **** }
 1578              		.loc 1 1774 0
 1579 001e 08BD     		pop	{r3, pc}
 1580              	.L110:
 1581              		.align	2
 1582              	.L109:
 1583 0020 014E0040 		.word	1073761793
 1584              		.cfi_endproc
ARM GAS  C:\Users\chemi\AppData\Local\Temp\ccksh7Yh.s 			page 65


 1585              	.LFE23:
 1586              		.size	ADC_therm_Read8, .-ADC_therm_Read8
 1587              		.section	.text.ADC_therm_Read16,"ax",%progbits
 1588              		.align	1
 1589              		.global	ADC_therm_Read16
 1590              		.thumb
 1591              		.thumb_func
 1592              		.type	ADC_therm_Read16, %function
 1593              	ADC_therm_Read16:
 1594              	.LFB24:
1775:Generated_Source\PSoC5/ADC_therm.c **** 
1776:Generated_Source\PSoC5/ADC_therm.c **** 
1777:Generated_Source\PSoC5/ADC_therm.c **** /*******************************************************************************
1778:Generated_Source\PSoC5/ADC_therm.c **** * Function Name: ADC_therm_Read16
1779:Generated_Source\PSoC5/ADC_therm.c **** ********************************************************************************
1780:Generated_Source\PSoC5/ADC_therm.c **** *
1781:Generated_Source\PSoC5/ADC_therm.c **** * Summary:
1782:Generated_Source\PSoC5/ADC_therm.c **** *  This function simplifies getting results from the ADC when only a
1783:Generated_Source\PSoC5/ADC_therm.c **** *  single reading is required. When called, it will start ADC
1784:Generated_Source\PSoC5/ADC_therm.c **** *  conversions, wait for the conversion to be complete, stop ADC
1785:Generated_Source\PSoC5/ADC_therm.c **** *  conversion and return the result. This is a blocking function and will
1786:Generated_Source\PSoC5/ADC_therm.c **** *  not return until the result is ready.
1787:Generated_Source\PSoC5/ADC_therm.c **** *
1788:Generated_Source\PSoC5/ADC_therm.c **** * Parameters:
1789:Generated_Source\PSoC5/ADC_therm.c **** *   void
1790:Generated_Source\PSoC5/ADC_therm.c **** *
1791:Generated_Source\PSoC5/ADC_therm.c **** * Return:
1792:Generated_Source\PSoC5/ADC_therm.c **** *  int16:  ADC result.
1793:Generated_Source\PSoC5/ADC_therm.c **** *
1794:Generated_Source\PSoC5/ADC_therm.c **** *******************************************************************************/
1795:Generated_Source\PSoC5/ADC_therm.c **** int16 ADC_therm_Read16(void) 
1796:Generated_Source\PSoC5/ADC_therm.c **** {
 1595              		.loc 1 1796 0
 1596              		.cfi_startproc
 1597              		@ args = 0, pretend = 0, frame = 0
 1598              		@ frame_needed = 0, uses_anonymous_args = 0
 1599 0000 08B5     		push	{r3, lr}
 1600              		.cfi_def_cfa_offset 8
 1601              		.cfi_offset 3, -8
 1602              		.cfi_offset 14, -4
1797:Generated_Source\PSoC5/ADC_therm.c ****     int16 result;
1798:Generated_Source\PSoC5/ADC_therm.c **** 
1799:Generated_Source\PSoC5/ADC_therm.c ****     /* Clear pending conversion done status */
1800:Generated_Source\PSoC5/ADC_therm.c ****     ADC_therm_DEC_SR_REG |= ADC_therm_DEC_INTR_CLEAR;
 1603              		.loc 1 1800 0
 1604 0002 074A     		ldr	r2, .L112
 1605 0004 1378     		ldrb	r3, [r2]	@ zero_extendqisi2
 1606 0006 43F00403 		orr	r3, r3, #4
 1607 000a 1370     		strb	r3, [r2]
1801:Generated_Source\PSoC5/ADC_therm.c ****     ADC_therm_StartConvert();
 1608              		.loc 1 1801 0
 1609 000c FFF7FEFF 		bl	ADC_therm_StartConvert
 1610              	.LVL117:
1802:Generated_Source\PSoC5/ADC_therm.c ****     (void)ADC_therm_IsEndConversion(ADC_therm_WAIT_FOR_RESULT);
 1611              		.loc 1 1802 0
 1612 0010 0020     		movs	r0, #0
 1613 0012 FFF7FEFF 		bl	ADC_therm_IsEndConversion
ARM GAS  C:\Users\chemi\AppData\Local\Temp\ccksh7Yh.s 			page 66


 1614              	.LVL118:
1803:Generated_Source\PSoC5/ADC_therm.c ****      result = ADC_therm_GetResult16();
 1615              		.loc 1 1803 0
 1616 0016 FFF7FEFF 		bl	ADC_therm_GetResult16
 1617              	.LVL119:
1804:Generated_Source\PSoC5/ADC_therm.c ****     ADC_therm_StopConvert();
 1618              		.loc 1 1804 0
 1619 001a FFF7FEFF 		bl	ADC_therm_StopConvert
 1620              	.LVL120:
1805:Generated_Source\PSoC5/ADC_therm.c ****     
1806:Generated_Source\PSoC5/ADC_therm.c ****      return(result);
1807:Generated_Source\PSoC5/ADC_therm.c **** }
 1621              		.loc 1 1807 0
 1622 001e 08BD     		pop	{r3, pc}
 1623              	.L113:
 1624              		.align	2
 1625              	.L112:
 1626 0020 014E0040 		.word	1073761793
 1627              		.cfi_endproc
 1628              	.LFE24:
 1629              		.size	ADC_therm_Read16, .-ADC_therm_Read16
 1630              		.section	.text.ADC_therm_Read32,"ax",%progbits
 1631              		.align	1
 1632              		.global	ADC_therm_Read32
 1633              		.thumb
 1634              		.thumb_func
 1635              		.type	ADC_therm_Read32, %function
 1636              	ADC_therm_Read32:
 1637              	.LFB25:
1808:Generated_Source\PSoC5/ADC_therm.c **** 
1809:Generated_Source\PSoC5/ADC_therm.c **** 
1810:Generated_Source\PSoC5/ADC_therm.c **** /*******************************************************************************
1811:Generated_Source\PSoC5/ADC_therm.c **** * Function Name: ADC_therm_Read32
1812:Generated_Source\PSoC5/ADC_therm.c **** ********************************************************************************
1813:Generated_Source\PSoC5/ADC_therm.c **** *
1814:Generated_Source\PSoC5/ADC_therm.c **** * Summary:
1815:Generated_Source\PSoC5/ADC_therm.c **** *  This function simplifies getting results from the ADC when only a
1816:Generated_Source\PSoC5/ADC_therm.c **** *  single reading is required. When called, it will start ADC
1817:Generated_Source\PSoC5/ADC_therm.c **** *  conversions, wait for the conversion to be complete, stop ADC
1818:Generated_Source\PSoC5/ADC_therm.c **** *  conversion and return the result. This is a blocking function and will
1819:Generated_Source\PSoC5/ADC_therm.c **** *  not return until the result is ready.
1820:Generated_Source\PSoC5/ADC_therm.c **** *
1821:Generated_Source\PSoC5/ADC_therm.c **** * Parameters:
1822:Generated_Source\PSoC5/ADC_therm.c **** *  None
1823:Generated_Source\PSoC5/ADC_therm.c **** *
1824:Generated_Source\PSoC5/ADC_therm.c **** * Return:
1825:Generated_Source\PSoC5/ADC_therm.c **** *  int32: ADC result.
1826:Generated_Source\PSoC5/ADC_therm.c **** *
1827:Generated_Source\PSoC5/ADC_therm.c **** *******************************************************************************/
1828:Generated_Source\PSoC5/ADC_therm.c **** int32 ADC_therm_Read32(void) 
1829:Generated_Source\PSoC5/ADC_therm.c **** {
 1638              		.loc 1 1829 0
 1639              		.cfi_startproc
 1640              		@ args = 0, pretend = 0, frame = 0
 1641              		@ frame_needed = 0, uses_anonymous_args = 0
 1642 0000 08B5     		push	{r3, lr}
 1643              		.cfi_def_cfa_offset 8
ARM GAS  C:\Users\chemi\AppData\Local\Temp\ccksh7Yh.s 			page 67


 1644              		.cfi_offset 3, -8
 1645              		.cfi_offset 14, -4
1830:Generated_Source\PSoC5/ADC_therm.c ****     int32 result;
1831:Generated_Source\PSoC5/ADC_therm.c ****     
1832:Generated_Source\PSoC5/ADC_therm.c ****     /* Clear pending conversion done status */
1833:Generated_Source\PSoC5/ADC_therm.c ****     ADC_therm_DEC_SR_REG |= ADC_therm_DEC_INTR_CLEAR;
 1646              		.loc 1 1833 0
 1647 0002 074A     		ldr	r2, .L115
 1648 0004 1378     		ldrb	r3, [r2]	@ zero_extendqisi2
 1649 0006 43F00403 		orr	r3, r3, #4
 1650 000a 1370     		strb	r3, [r2]
1834:Generated_Source\PSoC5/ADC_therm.c ****     ADC_therm_StartConvert();
 1651              		.loc 1 1834 0
 1652 000c FFF7FEFF 		bl	ADC_therm_StartConvert
 1653              	.LVL121:
1835:Generated_Source\PSoC5/ADC_therm.c ****     (void)ADC_therm_IsEndConversion(ADC_therm_WAIT_FOR_RESULT);
 1654              		.loc 1 1835 0
 1655 0010 0020     		movs	r0, #0
 1656 0012 FFF7FEFF 		bl	ADC_therm_IsEndConversion
 1657              	.LVL122:
1836:Generated_Source\PSoC5/ADC_therm.c ****      result = ADC_therm_GetResult32();
 1658              		.loc 1 1836 0
 1659 0016 FFF7FEFF 		bl	ADC_therm_GetResult32
 1660              	.LVL123:
1837:Generated_Source\PSoC5/ADC_therm.c ****     ADC_therm_StopConvert();
 1661              		.loc 1 1837 0
 1662 001a FFF7FEFF 		bl	ADC_therm_StopConvert
 1663              	.LVL124:
1838:Generated_Source\PSoC5/ADC_therm.c ****     
1839:Generated_Source\PSoC5/ADC_therm.c ****      return(result);
1840:Generated_Source\PSoC5/ADC_therm.c **** }
 1664              		.loc 1 1840 0
 1665 001e 08BD     		pop	{r3, pc}
 1666              	.L116:
 1667              		.align	2
 1668              	.L115:
 1669 0020 014E0040 		.word	1073761793
 1670              		.cfi_endproc
 1671              	.LFE25:
 1672              		.size	ADC_therm_Read32, .-ADC_therm_Read32
 1673              		.comm	ADC_therm_CountsPerVolt,4,4
 1674              		.comm	ADC_therm_Offset,4,4
 1675              		.global	ADC_therm_Config
 1676              		.global	ADC_therm_started
 1677              		.global	ADC_therm_initVar
 1678              		.global	ADC_therm_stopConversion
 1679              		.global	ADC_therm_convDone
 1680              		.data
 1681              		.set	.LANCHOR0,. + 0
 1682              		.type	ADC_therm_Config, %object
 1683              		.size	ADC_therm_Config, 1
 1684              	ADC_therm_Config:
 1685 0000 01       		.byte	1
 1686              		.bss
 1687              		.align	1
 1688              		.set	.LANCHOR1,. + 0
 1689              		.type	ADC_therm_convDone, %object
ARM GAS  C:\Users\chemi\AppData\Local\Temp\ccksh7Yh.s 			page 68


 1690              		.size	ADC_therm_convDone, 1
 1691              	ADC_therm_convDone:
 1692 0000 00       		.space	1
 1693 0001 00       		.space	1
 1694              		.type	ADC_therm_gcor, %object
 1695              		.size	ADC_therm_gcor, 4
 1696              	ADC_therm_gcor:
 1697 0002 00000000 		.space	4
 1698              		.type	ADC_therm_stopConversion, %object
 1699              		.size	ADC_therm_stopConversion, 1
 1700              	ADC_therm_stopConversion:
 1701 0006 00       		.space	1
 1702              		.type	ADC_therm_initVar, %object
 1703              		.size	ADC_therm_initVar, 1
 1704              	ADC_therm_initVar:
 1705 0007 00       		.space	1
 1706              		.type	ADC_therm_started, %object
 1707              		.size	ADC_therm_started, 1
 1708              	ADC_therm_started:
 1709 0008 00       		.space	1
 1710              		.text
 1711              	.Letext0:
 1712              		.file 2 "Generated_Source\\PSoC5\\cytypes.h"
 1713              		.file 3 "Generated_Source\\PSoC5\\ADC_therm.h"
 1714              		.file 4 "Generated_Source\\PSoC5\\CyLib.h"
 1715              		.file 5 "Generated_Source\\PSoC5\\ADC_therm_AMux.h"
 1716              		.file 6 "Generated_Source\\PSoC5\\ADC_therm_Ext_CP_Clk.h"
 1717              		.file 7 "Generated_Source\\PSoC5\\ADC_therm_theACLK.h"
 1718              		.section	.debug_info,"",%progbits
 1719              	.Ldebug_info0:
 1720 0000 F2090000 		.4byte	0x9f2
 1721 0004 0400     		.2byte	0x4
 1722 0006 00000000 		.4byte	.Ldebug_abbrev0
 1723 000a 04       		.byte	0x4
 1724 000b 01       		.uleb128 0x1
 1725 000c B5010000 		.4byte	.LASF96
 1726 0010 0C       		.byte	0xc
 1727 0011 B0040000 		.4byte	.LASF97
 1728 0015 5C000000 		.4byte	.LASF98
 1729 0019 18000000 		.4byte	.Ldebug_ranges0+0x18
 1730 001d 00000000 		.4byte	0
 1731 0021 00000000 		.4byte	.Ldebug_line0
 1732 0025 02       		.uleb128 0x2
 1733 0026 04       		.byte	0x4
 1734 0027 04       		.byte	0x4
 1735 0028 F8030000 		.4byte	.LASF0
 1736 002c 03       		.uleb128 0x3
 1737 002d 04       		.byte	0x4
 1738 002e 05       		.byte	0x5
 1739 002f 696E7400 		.ascii	"int\000"
 1740 0033 02       		.uleb128 0x2
 1741 0034 01       		.byte	0x1
 1742 0035 06       		.byte	0x6
 1743 0036 B6000000 		.4byte	.LASF1
 1744 003a 02       		.uleb128 0x2
 1745 003b 01       		.byte	0x1
 1746 003c 08       		.byte	0x8
ARM GAS  C:\Users\chemi\AppData\Local\Temp\ccksh7Yh.s 			page 69


 1747 003d 5A040000 		.4byte	.LASF2
 1748 0041 02       		.uleb128 0x2
 1749 0042 02       		.byte	0x2
 1750 0043 05       		.byte	0x5
 1751 0044 8A040000 		.4byte	.LASF3
 1752 0048 02       		.uleb128 0x2
 1753 0049 02       		.byte	0x2
 1754 004a 07       		.byte	0x7
 1755 004b 0F030000 		.4byte	.LASF4
 1756 004f 02       		.uleb128 0x2
 1757 0050 04       		.byte	0x4
 1758 0051 05       		.byte	0x5
 1759 0052 0F010000 		.4byte	.LASF5
 1760 0056 02       		.uleb128 0x2
 1761 0057 04       		.byte	0x4
 1762 0058 07       		.byte	0x7
 1763 0059 CF020000 		.4byte	.LASF6
 1764 005d 02       		.uleb128 0x2
 1765 005e 08       		.byte	0x8
 1766 005f 05       		.byte	0x5
 1767 0060 A8000000 		.4byte	.LASF7
 1768 0064 02       		.uleb128 0x2
 1769 0065 08       		.byte	0x8
 1770 0066 07       		.byte	0x7
 1771 0067 81000000 		.4byte	.LASF8
 1772 006b 02       		.uleb128 0x2
 1773 006c 04       		.byte	0x4
 1774 006d 07       		.byte	0x7
 1775 006e 91020000 		.4byte	.LASF9
 1776 0072 04       		.uleb128 0x4
 1777 0073 1E010000 		.4byte	.LASF10
 1778 0077 02       		.byte	0x2
 1779 0078 9201     		.2byte	0x192
 1780 007a 3A000000 		.4byte	0x3a
 1781 007e 04       		.uleb128 0x4
 1782 007f 00000000 		.4byte	.LASF11
 1783 0083 02       		.byte	0x2
 1784 0084 9301     		.2byte	0x193
 1785 0086 48000000 		.4byte	0x48
 1786 008a 04       		.uleb128 0x4
 1787 008b 7B010000 		.4byte	.LASF12
 1788 008f 02       		.byte	0x2
 1789 0090 9401     		.2byte	0x194
 1790 0092 56000000 		.4byte	0x56
 1791 0096 04       		.uleb128 0x4
 1792 0097 3C030000 		.4byte	.LASF13
 1793 009b 02       		.byte	0x2
 1794 009c 9501     		.2byte	0x195
 1795 009e 33000000 		.4byte	0x33
 1796 00a2 04       		.uleb128 0x4
 1797 00a3 AE050000 		.4byte	.LASF14
 1798 00a7 02       		.byte	0x2
 1799 00a8 9601     		.2byte	0x196
 1800 00aa 41000000 		.4byte	0x41
 1801 00ae 04       		.uleb128 0x4
 1802 00af 09010000 		.4byte	.LASF15
 1803 00b3 02       		.byte	0x2
ARM GAS  C:\Users\chemi\AppData\Local\Temp\ccksh7Yh.s 			page 70


 1804 00b4 9701     		.2byte	0x197
 1805 00b6 4F000000 		.4byte	0x4f
 1806 00ba 04       		.uleb128 0x4
 1807 00bb AF030000 		.4byte	.LASF16
 1808 00bf 02       		.byte	0x2
 1809 00c0 9801     		.2byte	0x198
 1810 00c2 25000000 		.4byte	0x25
 1811 00c6 02       		.uleb128 0x2
 1812 00c7 08       		.byte	0x8
 1813 00c8 04       		.byte	0x4
 1814 00c9 58010000 		.4byte	.LASF17
 1815 00cd 02       		.uleb128 0x2
 1816 00ce 01       		.byte	0x1
 1817 00cf 08       		.byte	0x8
 1818 00d0 05050000 		.4byte	.LASF18
 1819 00d4 04       		.uleb128 0x4
 1820 00d5 3D040000 		.4byte	.LASF19
 1821 00d9 02       		.byte	0x2
 1822 00da 3C02     		.2byte	0x23c
 1823 00dc E0000000 		.4byte	0xe0
 1824 00e0 05       		.uleb128 0x5
 1825 00e1 72000000 		.4byte	0x72
 1826 00e5 04       		.uleb128 0x4
 1827 00e6 18010000 		.4byte	.LASF20
 1828 00ea 02       		.byte	0x2
 1829 00eb 3D02     		.2byte	0x23d
 1830 00ed F1000000 		.4byte	0xf1
 1831 00f1 05       		.uleb128 0x5
 1832 00f2 7E000000 		.4byte	0x7e
 1833 00f6 02       		.uleb128 0x2
 1834 00f7 04       		.byte	0x4
 1835 00f8 07       		.byte	0x7
 1836 00f9 CA030000 		.4byte	.LASF21
 1837 00fd 06       		.uleb128 0x6
 1838 00fe 04       		.byte	0x4
 1839 00ff 03       		.byte	0x3
 1840 0100 2F       		.byte	0x2f
 1841 0101 1E010000 		.4byte	0x11e
 1842 0105 07       		.uleb128 0x7
 1843 0106 57000000 		.4byte	.LASF22
 1844 010a 03       		.byte	0x3
 1845 010b 31       		.byte	0x31
 1846 010c 7E000000 		.4byte	0x7e
 1847 0110 00       		.byte	0
 1848 0111 07       		.uleb128 0x7
 1849 0112 18050000 		.4byte	.LASF23
 1850 0116 03       		.byte	0x3
 1851 0117 32       		.byte	0x32
 1852 0118 72000000 		.4byte	0x72
 1853 011c 02       		.byte	0x2
 1854 011d 00       		.byte	0
 1855 011e 08       		.uleb128 0x8
 1856 011f 39060000 		.4byte	.LASF24
 1857 0123 03       		.byte	0x3
 1858 0124 33       		.byte	0x33
 1859 0125 FD000000 		.4byte	0xfd
 1860 0129 09       		.uleb128 0x9
ARM GAS  C:\Users\chemi\AppData\Local\Temp\ccksh7Yh.s 			page 71


 1861 012a 9E020000 		.4byte	.LASF25
 1862 012e 01       		.byte	0x1
 1863 012f DA04     		.2byte	0x4da
 1864 0131 01       		.byte	0x1
 1865 0132 43010000 		.4byte	0x143
 1866 0136 0A       		.uleb128 0xa
 1867 0137 11050000 		.4byte	.LASF27
 1868 013b 01       		.byte	0x1
 1869 013c DA04     		.2byte	0x4da
 1870 013e 72000000 		.4byte	0x72
 1871 0142 00       		.byte	0
 1872 0143 09       		.uleb128 0x9
 1873 0144 71020000 		.4byte	.LASF26
 1874 0148 01       		.byte	0x1
 1875 0149 BC06     		.2byte	0x6bc
 1876 014b 01       		.byte	0x1
 1877 014c 69010000 		.4byte	0x169
 1878 0150 0A       		.uleb128 0xa
 1879 0151 07000000 		.4byte	.LASF28
 1880 0155 01       		.byte	0x1
 1881 0156 BC06     		.2byte	0x6bc
 1882 0158 72000000 		.4byte	0x72
 1883 015c 0B       		.uleb128 0xb
 1884 015d 6B050000 		.4byte	.LASF34
 1885 0161 01       		.byte	0x1
 1886 0162 BE06     		.2byte	0x6be
 1887 0164 72000000 		.4byte	0x72
 1888 0168 00       		.byte	0
 1889 0169 09       		.uleb128 0x9
 1890 016a D3040000 		.4byte	.LASF29
 1891 016e 01       		.byte	0x1
 1892 016f 5106     		.2byte	0x651
 1893 0171 01       		.byte	0x1
 1894 0172 E3010000 		.4byte	0x1e3
 1895 0176 0A       		.uleb128 0xa
 1896 0177 2B000000 		.4byte	.LASF30
 1897 017b 01       		.byte	0x1
 1898 017c 5106     		.2byte	0x651
 1899 017e 72000000 		.4byte	0x72
 1900 0182 0A       		.uleb128 0xa
 1901 0183 42040000 		.4byte	.LASF31
 1902 0187 01       		.byte	0x1
 1903 0188 5106     		.2byte	0x651
 1904 018a 7E000000 		.4byte	0x7e
 1905 018e 0A       		.uleb128 0xa
 1906 018f 98000000 		.4byte	.LASF32
 1907 0193 01       		.byte	0x1
 1908 0194 5106     		.2byte	0x651
 1909 0196 7E000000 		.4byte	0x7e
 1910 019a 0A       		.uleb128 0xa
 1911 019b EE040000 		.4byte	.LASF33
 1912 019f 01       		.byte	0x1
 1913 01a0 5206     		.2byte	0x652
 1914 01a2 72000000 		.4byte	0x72
 1915 01a6 0A       		.uleb128 0xa
 1916 01a7 11050000 		.4byte	.LASF27
 1917 01ab 01       		.byte	0x1
ARM GAS  C:\Users\chemi\AppData\Local\Temp\ccksh7Yh.s 			page 72


 1918 01ac 5206     		.2byte	0x652
 1919 01ae 72000000 		.4byte	0x72
 1920 01b2 0B       		.uleb128 0xb
 1921 01b3 88030000 		.4byte	.LASF35
 1922 01b7 01       		.byte	0x1
 1923 01b8 5406     		.2byte	0x654
 1924 01ba 96000000 		.4byte	0x96
 1925 01be 0B       		.uleb128 0xb
 1926 01bf 4F040000 		.4byte	.LASF36
 1927 01c3 01       		.byte	0x1
 1928 01c4 5506     		.2byte	0x655
 1929 01c6 AE000000 		.4byte	0xae
 1930 01ca 0B       		.uleb128 0xb
 1931 01cb 41030000 		.4byte	.LASF37
 1932 01cf 01       		.byte	0x1
 1933 01d0 5606     		.2byte	0x656
 1934 01d2 7E000000 		.4byte	0x7e
 1935 01d6 0B       		.uleb128 0xb
 1936 01d7 94040000 		.4byte	.LASF38
 1937 01db 01       		.byte	0x1
 1938 01dc 5706     		.2byte	0x657
 1939 01de 8A000000 		.4byte	0x8a
 1940 01e2 00       		.byte	0
 1941 01e3 0C       		.uleb128 0xc
 1942 01e4 29010000 		.4byte	0x129
 1943 01e8 00000000 		.4byte	.LFB26
 1944 01ec F4000000 		.4byte	.LFE26-.LFB26
 1945 01f0 01       		.uleb128 0x1
 1946 01f1 9C       		.byte	0x9c
 1947 01f2 A2020000 		.4byte	0x2a2
 1948 01f6 0D       		.uleb128 0xd
 1949 01f7 36010000 		.4byte	0x136
 1950 01fb 06       		.uleb128 0x6
 1951 01fc FA       		.byte	0xfa
 1952 01fd 36010000 		.4byte	0x136
 1953 0201 9F       		.byte	0x9f
 1954 0202 0E       		.uleb128 0xe
 1955 0203 43010000 		.4byte	0x143
 1956 0207 68000000 		.4byte	.LBB4
 1957 020b 3C000000 		.4byte	.LBE4-.LBB4
 1958 020f 01       		.byte	0x1
 1959 0210 F804     		.2byte	0x4f8
 1960 0212 5F020000 		.4byte	0x25f
 1961 0216 0F       		.uleb128 0xf
 1962 0217 50010000 		.4byte	0x150
 1963 021b 00000000 		.4byte	.LLST0
 1964 021f 10       		.uleb128 0x10
 1965 0220 68000000 		.4byte	.LBB5
 1966 0224 3C000000 		.4byte	.LBE5-.LBB5
 1967 0228 11       		.uleb128 0x11
 1968 0229 5C010000 		.4byte	0x15c
 1969 022d 15000000 		.4byte	.LLST1
 1970 0231 12       		.uleb128 0x12
 1971 0232 6C000000 		.4byte	.LVL2
 1972 0236 9D090000 		.4byte	0x99d
 1973 023a 13       		.uleb128 0x13
 1974 023b 8E000000 		.4byte	.LVL4
ARM GAS  C:\Users\chemi\AppData\Local\Temp\ccksh7Yh.s 			page 73


 1975 023f A8090000 		.4byte	0x9a8
 1976 0243 4D020000 		.4byte	0x24d
 1977 0247 14       		.uleb128 0x14
 1978 0248 01       		.uleb128 0x1
 1979 0249 50       		.byte	0x50
 1980 024a 01       		.uleb128 0x1
 1981 024b 33       		.byte	0x33
 1982 024c 00       		.byte	0
 1983 024d 15       		.uleb128 0x15
 1984 024e A4000000 		.4byte	.LVL5
 1985 0252 B3090000 		.4byte	0x9b3
 1986 0256 14       		.uleb128 0x14
 1987 0257 01       		.uleb128 0x1
 1988 0258 50       		.byte	0x50
 1989 0259 02       		.uleb128 0x2
 1990 025a 79       		.byte	0x79
 1991 025b 00       		.sleb128 0
 1992 025c 00       		.byte	0
 1993 025d 00       		.byte	0
 1994 025e 00       		.byte	0
 1995 025f 13       		.uleb128 0x13
 1996 0260 BE000000 		.4byte	.LVL6
 1997 0264 BE090000 		.4byte	0x9be
 1998 0268 73020000 		.4byte	0x273
 1999 026c 14       		.uleb128 0x14
 2000 026d 01       		.uleb128 0x1
 2001 026e 50       		.byte	0x50
 2002 026f 02       		.uleb128 0x2
 2003 0270 74       		.byte	0x74
 2004 0271 00       		.sleb128 0
 2005 0272 00       		.byte	0
 2006 0273 13       		.uleb128 0x13
 2007 0274 CE000000 		.4byte	.LVL7
 2008 0278 C9090000 		.4byte	0x9c9
 2009 027c 8C020000 		.4byte	0x28c
 2010 0280 14       		.uleb128 0x14
 2011 0281 01       		.uleb128 0x1
 2012 0282 50       		.byte	0x50
 2013 0283 01       		.uleb128 0x1
 2014 0284 37       		.byte	0x37
 2015 0285 14       		.uleb128 0x14
 2016 0286 01       		.uleb128 0x1
 2017 0287 51       		.byte	0x51
 2018 0288 02       		.uleb128 0x2
 2019 0289 75       		.byte	0x75
 2020 028a 00       		.sleb128 0
 2021 028b 00       		.byte	0
 2022 028c 16       		.uleb128 0x16
 2023 028d DA000000 		.4byte	.LVL8
 2024 0291 D4090000 		.4byte	0x9d4
 2025 0295 14       		.uleb128 0x14
 2026 0296 01       		.uleb128 0x1
 2027 0297 50       		.byte	0x50
 2028 0298 02       		.uleb128 0x2
 2029 0299 08       		.byte	0x8
 2030 029a 21       		.byte	0x21
 2031 029b 14       		.uleb128 0x14
ARM GAS  C:\Users\chemi\AppData\Local\Temp\ccksh7Yh.s 			page 74


 2032 029c 01       		.uleb128 0x1
 2033 029d 51       		.byte	0x51
 2034 029e 01       		.uleb128 0x1
 2035 029f 31       		.byte	0x31
 2036 02a0 00       		.byte	0
 2037 02a1 00       		.byte	0
 2038 02a2 17       		.uleb128 0x17
 2039 02a3 4B030000 		.4byte	.LASF39
 2040 02a7 01       		.byte	0x1
 2041 02a8 5B       		.byte	0x5b
 2042 02a9 00000000 		.4byte	.LFB0
 2043 02ad A8000000 		.4byte	.LFE0-.LFB0
 2044 02b1 01       		.uleb128 0x1
 2045 02b2 9C       		.byte	0x9c
 2046 02b3 77030000 		.4byte	0x377
 2047 02b7 18       		.uleb128 0x18
 2048 02b8 69010000 		.4byte	0x169
 2049 02bc 56000000 		.4byte	.LBB10
 2050 02c0 0A000000 		.4byte	.LBE10-.LBB10
 2051 02c4 01       		.byte	0x1
 2052 02c5 85       		.byte	0x85
 2053 02c6 26030000 		.4byte	0x326
 2054 02ca 0F       		.uleb128 0xf
 2055 02cb 76010000 		.4byte	0x176
 2056 02cf 28000000 		.4byte	.LLST2
 2057 02d3 0F       		.uleb128 0xf
 2058 02d4 82010000 		.4byte	0x182
 2059 02d8 3C000000 		.4byte	.LLST3
 2060 02dc 0F       		.uleb128 0xf
 2061 02dd 8E010000 		.4byte	0x18e
 2062 02e1 52000000 		.4byte	.LLST4
 2063 02e5 0F       		.uleb128 0xf
 2064 02e6 9A010000 		.4byte	0x19a
 2065 02ea 68000000 		.4byte	.LLST5
 2066 02ee 0F       		.uleb128 0xf
 2067 02ef A6010000 		.4byte	0x1a6
 2068 02f3 7C000000 		.4byte	.LLST6
 2069 02f7 10       		.uleb128 0x10
 2070 02f8 56000000 		.4byte	.LBB11
 2071 02fc 0A000000 		.4byte	.LBE11-.LBB11
 2072 0300 11       		.uleb128 0x11
 2073 0301 B2010000 		.4byte	0x1b2
 2074 0305 90000000 		.4byte	.LLST7
 2075 0309 11       		.uleb128 0x11
 2076 030a BE010000 		.4byte	0x1be
 2077 030e A4000000 		.4byte	.LLST8
 2078 0312 11       		.uleb128 0x11
 2079 0313 CA010000 		.4byte	0x1ca
 2080 0317 BA000000 		.4byte	.LLST9
 2081 031b 11       		.uleb128 0x11
 2082 031c D6010000 		.4byte	0x1d6
 2083 0320 D0000000 		.4byte	.LLST10
 2084 0324 00       		.byte	0
 2085 0325 00       		.byte	0
 2086 0326 19       		.uleb128 0x19
 2087 0327 29010000 		.4byte	0x129
 2088 032b 7A000000 		.4byte	.LBB12
ARM GAS  C:\Users\chemi\AppData\Local\Temp\ccksh7Yh.s 			page 75


 2089 032f 00000000 		.4byte	.Ldebug_ranges0+0
 2090 0333 01       		.byte	0x1
 2091 0334 A5       		.byte	0xa5
 2092 0335 54030000 		.4byte	0x354
 2093 0339 0F       		.uleb128 0xf
 2094 033a 36010000 		.4byte	0x136
 2095 033e E8000000 		.4byte	.LLST11
 2096 0342 16       		.uleb128 0x16
 2097 0343 88000000 		.4byte	.LVL14
 2098 0347 E3010000 		.4byte	0x1e3
 2099 034b 1A       		.uleb128 0x1a
 2100 034c 36010000 		.4byte	0x136
 2101 0350 01       		.uleb128 0x1
 2102 0351 31       		.byte	0x31
 2103 0352 00       		.byte	0
 2104 0353 00       		.byte	0
 2105 0354 13       		.uleb128 0x13
 2106 0355 14000000 		.4byte	.LVL9
 2107 0359 DF090000 		.4byte	0x9df
 2108 035d 67030000 		.4byte	0x367
 2109 0361 14       		.uleb128 0x14
 2110 0362 01       		.uleb128 0x1
 2111 0363 50       		.byte	0x50
 2112 0364 01       		.uleb128 0x1
 2113 0365 40       		.byte	0x40
 2114 0366 00       		.byte	0
 2115 0367 15       		.uleb128 0x15
 2116 0368 1A000000 		.4byte	.LVL10
 2117 036c EA090000 		.4byte	0x9ea
 2118 0370 14       		.uleb128 0x14
 2119 0371 01       		.uleb128 0x1
 2120 0372 50       		.byte	0x50
 2121 0373 01       		.uleb128 0x1
 2122 0374 40       		.byte	0x40
 2123 0375 00       		.byte	0
 2124 0376 00       		.byte	0
 2125 0377 17       		.uleb128 0x17
 2126 0378 60020000 		.4byte	.LASF40
 2127 037c 01       		.byte	0x1
 2128 037d B8       		.byte	0xb8
 2129 037e 00000000 		.4byte	.LFB1
 2130 0382 C0000000 		.4byte	.LFE1-.LFB1
 2131 0386 01       		.uleb128 0x1
 2132 0387 9C       		.byte	0x9c
 2133 0388 CC030000 		.4byte	0x3cc
 2134 038c 1B       		.uleb128 0x1b
 2135 038d 11050000 		.4byte	.LASF27
 2136 0391 01       		.byte	0x1
 2137 0392 BA       		.byte	0xba
 2138 0393 72000000 		.4byte	0x72
 2139 0397 1C       		.uleb128 0x1c
 2140 0398 6B050000 		.4byte	.LASF34
 2141 039c 01       		.byte	0x1
 2142 039d BB       		.byte	0xbb
 2143 039e 72000000 		.4byte	0x72
 2144 03a2 06010000 		.4byte	.LLST12
 2145 03a6 12       		.uleb128 0x12
ARM GAS  C:\Users\chemi\AppData\Local\Temp\ccksh7Yh.s 			page 76


 2146 03a7 06000000 		.4byte	.LVL15
 2147 03ab 9D090000 		.4byte	0x99d
 2148 03af 13       		.uleb128 0x13
 2149 03b0 52000000 		.4byte	.LVL17
 2150 03b4 A8090000 		.4byte	0x9a8
 2151 03b8 C2030000 		.4byte	0x3c2
 2152 03bc 14       		.uleb128 0x14
 2153 03bd 01       		.uleb128 0x1
 2154 03be 50       		.byte	0x50
 2155 03bf 01       		.uleb128 0x1
 2156 03c0 33       		.byte	0x33
 2157 03c1 00       		.byte	0
 2158 03c2 1D       		.uleb128 0x1d
 2159 03c3 9E000000 		.4byte	.LVL19
 2160 03c7 B3090000 		.4byte	0x9b3
 2161 03cb 00       		.byte	0
 2162 03cc 1E       		.uleb128 0x1e
 2163 03cd 9F030000 		.4byte	.LASF41
 2164 03d1 01       		.byte	0x1
 2165 03d2 4901     		.2byte	0x149
 2166 03d4 00000000 		.4byte	.LFB2
 2167 03d8 20000000 		.4byte	.LFE2-.LFB2
 2168 03dc 01       		.uleb128 0x1
 2169 03dd 9C       		.byte	0x9c
 2170 03de F5030000 		.4byte	0x3f5
 2171 03e2 12       		.uleb128 0x12
 2172 03e3 10000000 		.4byte	.LVL20
 2173 03e7 A2020000 		.4byte	0x2a2
 2174 03eb 1D       		.uleb128 0x1d
 2175 03ec 1C000000 		.4byte	.LVL21
 2176 03f0 77030000 		.4byte	0x377
 2177 03f4 00       		.byte	0
 2178 03f5 1E       		.uleb128 0x1e
 2179 03f6 36000000 		.4byte	.LASF42
 2180 03fa 01       		.byte	0x1
 2181 03fb 6A01     		.2byte	0x16a
 2182 03fd 00000000 		.4byte	.LFB3
 2183 0401 E0000000 		.4byte	.LFE3-.LFB3
 2184 0405 01       		.uleb128 0x1
 2185 0406 9C       		.byte	0x9c
 2186 0407 41040000 		.4byte	0x441
 2187 040b 1F       		.uleb128 0x1f
 2188 040c 6B050000 		.4byte	.LASF34
 2189 0410 01       		.byte	0x1
 2190 0411 6C01     		.2byte	0x16c
 2191 0413 72000000 		.4byte	0x72
 2192 0417 19010000 		.4byte	.LLST13
 2193 041b 12       		.uleb128 0x12
 2194 041c 06000000 		.4byte	.LVL22
 2195 0420 9D090000 		.4byte	0x99d
 2196 0424 13       		.uleb128 0x13
 2197 0425 4C000000 		.4byte	.LVL24
 2198 0429 A8090000 		.4byte	0x9a8
 2199 042d 37040000 		.4byte	0x437
 2200 0431 14       		.uleb128 0x14
 2201 0432 01       		.uleb128 0x1
 2202 0433 50       		.byte	0x50
ARM GAS  C:\Users\chemi\AppData\Local\Temp\ccksh7Yh.s 			page 77


 2203 0434 01       		.uleb128 0x1
 2204 0435 33       		.byte	0x33
 2205 0436 00       		.byte	0
 2206 0437 1D       		.uleb128 0x1d
 2207 0438 CA000000 		.4byte	.LVL26
 2208 043c B3090000 		.4byte	0x9b3
 2209 0440 00       		.byte	0
 2210 0441 1E       		.uleb128 0x1e
 2211 0442 D3000000 		.4byte	.LASF43
 2212 0446 01       		.byte	0x1
 2213 0447 AD01     		.2byte	0x1ad
 2214 0449 00000000 		.4byte	.LFB4
 2215 044d 18000000 		.4byte	.LFE4-.LFB4
 2216 0451 01       		.uleb128 0x1
 2217 0452 9C       		.byte	0x9c
 2218 0453 78040000 		.4byte	0x478
 2219 0457 20       		.uleb128 0x20
 2220 0458 DD030000 		.4byte	.LASF46
 2221 045c 01       		.byte	0x1
 2222 045d AD01     		.2byte	0x1ad
 2223 045f 72000000 		.4byte	0x72
 2224 0463 2C010000 		.4byte	.LLST14
 2225 0467 1F       		.uleb128 0x1f
 2226 0468 1A060000 		.4byte	.LASF44
 2227 046c 01       		.byte	0x1
 2228 046d AF01     		.2byte	0x1af
 2229 046f 72000000 		.4byte	0x72
 2230 0473 4D010000 		.4byte	.LLST15
 2231 0477 00       		.byte	0
 2232 0478 1E       		.uleb128 0x1e
 2233 0479 5A030000 		.4byte	.LASF45
 2234 047d 01       		.byte	0x1
 2235 047e D101     		.2byte	0x1d1
 2236 0480 00000000 		.4byte	.LFB5
 2237 0484 18000000 		.4byte	.LFE5-.LFB5
 2238 0488 01       		.uleb128 0x1
 2239 0489 9C       		.byte	0x9c
 2240 048a AF040000 		.4byte	0x4af
 2241 048e 20       		.uleb128 0x20
 2242 048f D3030000 		.4byte	.LASF47
 2243 0493 01       		.byte	0x1
 2244 0494 D101     		.2byte	0x1d1
 2245 0496 72000000 		.4byte	0x72
 2246 049a 6B010000 		.4byte	.LLST16
 2247 049e 1F       		.uleb128 0x1f
 2248 049f 1A060000 		.4byte	.LASF44
 2249 04a3 01       		.byte	0x1
 2250 04a4 D301     		.2byte	0x1d3
 2251 04a6 72000000 		.4byte	0x72
 2252 04aa 8C010000 		.4byte	.LLST17
 2253 04ae 00       		.byte	0
 2254 04af 21       		.uleb128 0x21
 2255 04b0 46010000 		.4byte	.LASF51
 2256 04b4 01       		.byte	0x1
 2257 04b5 F901     		.2byte	0x1f9
 2258 04b7 72000000 		.4byte	0x72
 2259 04bb 00000000 		.4byte	.LFB6
ARM GAS  C:\Users\chemi\AppData\Local\Temp\ccksh7Yh.s 			page 78


 2260 04bf 74000000 		.4byte	.LFE6-.LFB6
 2261 04c3 01       		.uleb128 0x1
 2262 04c4 9C       		.byte	0x9c
 2263 04c5 0A050000 		.4byte	0x50a
 2264 04c9 20       		.uleb128 0x20
 2265 04ca 94050000 		.4byte	.LASF48
 2266 04ce 01       		.byte	0x1
 2267 04cf F901     		.2byte	0x1f9
 2268 04d1 BA000000 		.4byte	0xba
 2269 04d5 AA010000 		.4byte	.LLST18
 2270 04d9 1F       		.uleb128 0x1f
 2271 04da 1A060000 		.4byte	.LASF44
 2272 04de 01       		.byte	0x1
 2273 04df FB01     		.2byte	0x1fb
 2274 04e1 7E000000 		.4byte	0x7e
 2275 04e5 D8010000 		.4byte	.LLST19
 2276 04e9 1F       		.uleb128 0x1f
 2277 04ea 7C050000 		.4byte	.LASF49
 2278 04ee 01       		.byte	0x1
 2279 04ef FC01     		.2byte	0x1fc
 2280 04f1 72000000 		.4byte	0x72
 2281 04f5 0B020000 		.4byte	.LLST20
 2282 04f9 1F       		.uleb128 0x1f
 2283 04fa 25050000 		.4byte	.LASF50
 2284 04fe 01       		.byte	0x1
 2285 04ff FD01     		.2byte	0x1fd
 2286 0501 BA000000 		.4byte	0xba
 2287 0505 2A020000 		.4byte	.LLST21
 2288 0509 00       		.byte	0
 2289 050a 22       		.uleb128 0x22
 2290 050b 4F060000 		.4byte	.LASF52
 2291 050f 01       		.byte	0x1
 2292 0510 2802     		.2byte	0x228
 2293 0512 7E000000 		.4byte	0x7e
 2294 0516 00000000 		.4byte	.LFB7
 2295 051a 24000000 		.4byte	.LFE7-.LFB7
 2296 051e 01       		.uleb128 0x1
 2297 051f 9C       		.byte	0x9c
 2298 0520 45050000 		.4byte	0x545
 2299 0524 1F       		.uleb128 0x1f
 2300 0525 0A050000 		.4byte	.LASF53
 2301 0529 01       		.byte	0x1
 2302 052a 2A02     		.2byte	0x22a
 2303 052c 72000000 		.4byte	0x72
 2304 0530 74020000 		.4byte	.LLST22
 2305 0534 1F       		.uleb128 0x1f
 2306 0535 41030000 		.4byte	.LASF37
 2307 0539 01       		.byte	0x1
 2308 053a 2B02     		.2byte	0x22b
 2309 053c 7E000000 		.4byte	0x7e
 2310 0540 87020000 		.4byte	.LLST23
 2311 0544 00       		.byte	0
 2312 0545 23       		.uleb128 0x23
 2313 0546 F8020000 		.4byte	.LASF54
 2314 054a 01       		.byte	0x1
 2315 054b 4A02     		.2byte	0x24a
 2316 054d 00000000 		.4byte	.LFB8
ARM GAS  C:\Users\chemi\AppData\Local\Temp\ccksh7Yh.s 			page 79


 2317 0551 10000000 		.4byte	.LFE8-.LFB8
 2318 0555 01       		.uleb128 0x1
 2319 0556 9C       		.byte	0x9c
 2320 0557 23       		.uleb128 0x23
 2321 0558 65010000 		.4byte	.LASF55
 2322 055c 01       		.byte	0x1
 2323 055d 6102     		.2byte	0x261
 2324 055f 00000000 		.4byte	.LFB9
 2325 0563 10000000 		.4byte	.LFE9-.LFB9
 2326 0567 01       		.uleb128 0x1
 2327 0568 9C       		.byte	0x9c
 2328 0569 22       		.uleb128 0x22
 2329 056a 23040000 		.4byte	.LASF56
 2330 056e 01       		.byte	0x1
 2331 056f 8402     		.2byte	0x284
 2332 0571 72000000 		.4byte	0x72
 2333 0575 00000000 		.4byte	.LFB10
 2334 0579 28000000 		.4byte	.LFE10-.LFB10
 2335 057d 01       		.uleb128 0x1
 2336 057e 9C       		.byte	0x9c
 2337 057f A4050000 		.4byte	0x5a4
 2338 0583 20       		.uleb128 0x20
 2339 0584 89020000 		.4byte	.LASF57
 2340 0588 01       		.byte	0x1
 2341 0589 8402     		.2byte	0x284
 2342 058b 72000000 		.4byte	0x72
 2343 058f A5020000 		.4byte	.LLST24
 2344 0593 1F       		.uleb128 0x1f
 2345 0594 7C050000 		.4byte	.LASF49
 2346 0598 01       		.byte	0x1
 2347 0599 8602     		.2byte	0x286
 2348 059b 72000000 		.4byte	0x72
 2349 059f C6020000 		.4byte	.LLST25
 2350 05a3 00       		.byte	0
 2351 05a4 22       		.uleb128 0x22
 2352 05a5 B3020000 		.4byte	.LASF58
 2353 05a9 01       		.byte	0x1
 2354 05aa B302     		.2byte	0x2b3
 2355 05ac 96000000 		.4byte	0x96
 2356 05b0 00000000 		.4byte	.LFB11
 2357 05b4 40000000 		.4byte	.LFE11-.LFB11
 2358 05b8 01       		.uleb128 0x1
 2359 05b9 9C       		.byte	0x9c
 2360 05ba DD050000 		.4byte	0x5dd
 2361 05be 24       		.uleb128 0x24
 2362 05bf 35010000 		.4byte	.LASF59
 2363 05c3 01       		.byte	0x1
 2364 05c4 B502     		.2byte	0x2b5
 2365 05c6 96000000 		.4byte	0x96
 2366 05ca 01       		.uleb128 0x1
 2367 05cb 50       		.byte	0x50
 2368 05cc 1F       		.uleb128 0x1f
 2369 05cd D3030000 		.4byte	.LASF47
 2370 05d1 01       		.byte	0x1
 2371 05d2 B602     		.2byte	0x2b6
 2372 05d4 72000000 		.4byte	0x72
 2373 05d8 E4020000 		.4byte	.LLST26
ARM GAS  C:\Users\chemi\AppData\Local\Temp\ccksh7Yh.s 			page 80


 2374 05dc 00       		.byte	0
 2375 05dd 22       		.uleb128 0x22
 2376 05de E2030000 		.4byte	.LASF60
 2377 05e2 01       		.byte	0x1
 2378 05e3 E902     		.2byte	0x2e9
 2379 05e5 A2000000 		.4byte	0xa2
 2380 05e9 00000000 		.4byte	.LFB12
 2381 05ed 44000000 		.4byte	.LFE12-.LFB12
 2382 05f1 01       		.uleb128 0x1
 2383 05f2 9C       		.byte	0x9c
 2384 05f3 18060000 		.4byte	0x618
 2385 05f7 1F       		.uleb128 0x1f
 2386 05f8 35010000 		.4byte	.LASF59
 2387 05fc 01       		.byte	0x1
 2388 05fd EB02     		.2byte	0x2eb
 2389 05ff 7E000000 		.4byte	0x7e
 2390 0603 02030000 		.4byte	.LLST27
 2391 0607 1F       		.uleb128 0x1f
 2392 0608 D3030000 		.4byte	.LASF47
 2393 060c 01       		.byte	0x1
 2394 060d EC02     		.2byte	0x2ec
 2395 060f 72000000 		.4byte	0x72
 2396 0613 2B030000 		.4byte	.LLST28
 2397 0617 00       		.byte	0
 2398 0618 22       		.uleb128 0x22
 2399 0619 55050000 		.4byte	.LASF61
 2400 061d 01       		.byte	0x1
 2401 061e 2503     		.2byte	0x325
 2402 0620 AE000000 		.4byte	0xae
 2403 0624 00000000 		.4byte	.LFB13
 2404 0628 58000000 		.4byte	.LFE13-.LFB13
 2405 062c 01       		.uleb128 0x1
 2406 062d 9C       		.byte	0x9c
 2407 062e 53060000 		.4byte	0x653
 2408 0632 1F       		.uleb128 0x1f
 2409 0633 35010000 		.4byte	.LASF59
 2410 0637 01       		.byte	0x1
 2411 0638 2703     		.2byte	0x327
 2412 063a 8A000000 		.4byte	0x8a
 2413 063e 3E030000 		.4byte	.LLST29
 2414 0642 1F       		.uleb128 0x1f
 2415 0643 D3030000 		.4byte	.LASF47
 2416 0647 01       		.byte	0x1
 2417 0648 2803     		.2byte	0x328
 2418 064a 72000000 		.4byte	0x72
 2419 064e 94030000 		.4byte	.LLST30
 2420 0652 00       		.byte	0
 2421 0653 1E       		.uleb128 0x1e
 2422 0654 9C040000 		.4byte	.LASF62
 2423 0658 01       		.byte	0x1
 2424 0659 8203     		.2byte	0x382
 2425 065b 00000000 		.4byte	.LFB14
 2426 065f 0C000000 		.4byte	.LFE14-.LFB14
 2427 0663 01       		.uleb128 0x1
 2428 0664 9C       		.byte	0x9c
 2429 0665 78060000 		.4byte	0x678
 2430 0669 25       		.uleb128 0x25
ARM GAS  C:\Users\chemi\AppData\Local\Temp\ccksh7Yh.s 			page 81


 2431 066a 2E050000 		.4byte	.LASF63
 2432 066e 01       		.byte	0x1
 2433 066f 8203     		.2byte	0x382
 2434 0671 AE000000 		.4byte	0xae
 2435 0675 01       		.uleb128 0x1
 2436 0676 50       		.byte	0x50
 2437 0677 00       		.byte	0
 2438 0678 1E       		.uleb128 0x1e
 2439 0679 4E020000 		.4byte	.LASF64
 2440 067d 01       		.byte	0x1
 2441 067e A503     		.2byte	0x3a5
 2442 0680 00000000 		.4byte	.LFB15
 2443 0684 0C000000 		.4byte	.LFE15-.LFB15
 2444 0688 01       		.uleb128 0x1
 2445 0689 9C       		.byte	0x9c
 2446 068a 9D060000 		.4byte	0x69d
 2447 068e 25       		.uleb128 0x25
 2448 068f 0D000000 		.4byte	.LASF65
 2449 0693 01       		.byte	0x1
 2450 0694 A503     		.2byte	0x3a5
 2451 0696 AE000000 		.4byte	0xae
 2452 069a 01       		.uleb128 0x1
 2453 069b 50       		.byte	0x50
 2454 069c 00       		.byte	0
 2455 069d 22       		.uleb128 0x22
 2456 069e 22030000 		.4byte	.LASF66
 2457 06a2 01       		.byte	0x1
 2458 06a3 C003     		.2byte	0x3c0
 2459 06a5 A2000000 		.4byte	0xa2
 2460 06a9 00000000 		.4byte	.LFB16
 2461 06ad 20000000 		.4byte	.LFE16-.LFB16
 2462 06b1 01       		.uleb128 0x1
 2463 06b2 9C       		.byte	0x9c
 2464 06b3 D8060000 		.4byte	0x6d8
 2465 06b7 20       		.uleb128 0x20
 2466 06b8 35050000 		.4byte	.LASF67
 2467 06bc 01       		.byte	0x1
 2468 06bd C003     		.2byte	0x3c0
 2469 06bf AE000000 		.4byte	0xae
 2470 06c3 BD030000 		.4byte	.LLST31
 2471 06c7 1F       		.uleb128 0x1f
 2472 06c8 71030000 		.4byte	.LASF68
 2473 06cc 01       		.byte	0x1
 2474 06cd C303     		.2byte	0x3c3
 2475 06cf A2000000 		.4byte	0xa2
 2476 06d3 EB030000 		.4byte	.LLST32
 2477 06d7 00       		.byte	0
 2478 06d8 21       		.uleb128 0x21
 2479 06d9 B4050000 		.4byte	.LASF69
 2480 06dd 01       		.byte	0x1
 2481 06de FD03     		.2byte	0x3fd
 2482 06e0 BA000000 		.4byte	0xba
 2483 06e4 00000000 		.4byte	.LFB17
 2484 06e8 2C000000 		.4byte	.LFE17-.LFB17
 2485 06ec 01       		.uleb128 0x1
 2486 06ed 9C       		.byte	0x9c
 2487 06ee 13070000 		.4byte	0x713
ARM GAS  C:\Users\chemi\AppData\Local\Temp\ccksh7Yh.s 			page 82


 2488 06f2 20       		.uleb128 0x20
 2489 06f3 35050000 		.4byte	.LASF67
 2490 06f7 01       		.byte	0x1
 2491 06f8 FD03     		.2byte	0x3fd
 2492 06fa AE000000 		.4byte	0xae
 2493 06fe 22040000 		.4byte	.LLST33
 2494 0702 1F       		.uleb128 0x1f
 2495 0703 5F010000 		.4byte	.LASF70
 2496 0707 01       		.byte	0x1
 2497 0708 0004     		.2byte	0x400
 2498 070a BA000000 		.4byte	0xba
 2499 070e 50040000 		.4byte	.LLST34
 2500 0712 00       		.byte	0
 2501 0713 22       		.uleb128 0x22
 2502 0714 82010000 		.4byte	.LASF71
 2503 0718 01       		.byte	0x1
 2504 0719 3F04     		.2byte	0x43f
 2505 071b AE000000 		.4byte	0xae
 2506 071f 00000000 		.4byte	.LFB18
 2507 0723 4C000000 		.4byte	.LFE18-.LFB18
 2508 0727 01       		.uleb128 0x1
 2509 0728 9C       		.byte	0x9c
 2510 0729 74070000 		.4byte	0x774
 2511 072d 20       		.uleb128 0x20
 2512 072e 35050000 		.4byte	.LASF67
 2513 0732 01       		.byte	0x1
 2514 0733 3F04     		.2byte	0x43f
 2515 0735 AE000000 		.4byte	0xae
 2516 0739 8F040000 		.4byte	.LLST35
 2517 073d 0B       		.uleb128 0xb
 2518 073e C8020000 		.4byte	.LASF72
 2519 0742 01       		.byte	0x1
 2520 0743 4204     		.2byte	0x442
 2521 0745 AE000000 		.4byte	0xae
 2522 0749 1F       		.uleb128 0x1f
 2523 074a F9040000 		.4byte	.LASF73
 2524 074e 01       		.byte	0x1
 2525 074f 4304     		.2byte	0x443
 2526 0751 AE000000 		.4byte	0xae
 2527 0755 B0040000 		.4byte	.LLST36
 2528 0759 24       		.uleb128 0x24
 2529 075a FF040000 		.4byte	.LASF74
 2530 075e 01       		.byte	0x1
 2531 075f 4404     		.2byte	0x444
 2532 0761 AE000000 		.4byte	0xae
 2533 0765 01       		.uleb128 0x1
 2534 0766 51       		.byte	0x51
 2535 0767 0B       		.uleb128 0xb
 2536 0768 EE040000 		.4byte	.LASF33
 2537 076c 01       		.byte	0x1
 2538 076d 4504     		.2byte	0x445
 2539 076f 72000000 		.4byte	0x72
 2540 0773 00       		.byte	0
 2541 0774 1E       		.uleb128 0x1e
 2542 0775 EB000000 		.4byte	.LASF75
 2543 0779 01       		.byte	0x1
 2544 077a 1006     		.2byte	0x610
ARM GAS  C:\Users\chemi\AppData\Local\Temp\ccksh7Yh.s 			page 83


 2545 077c 00000000 		.4byte	.LFB20
 2546 0780 4C000000 		.4byte	.LFE20-.LFB20
 2547 0784 01       		.uleb128 0x1
 2548 0785 9C       		.byte	0x9c
 2549 0786 F5070000 		.4byte	0x7f5
 2550 078a 20       		.uleb128 0x20
 2551 078b 11050000 		.4byte	.LASF27
 2552 078f 01       		.byte	0x1
 2553 0790 1006     		.2byte	0x610
 2554 0792 72000000 		.4byte	0x72
 2555 0796 C3040000 		.4byte	.LLST37
 2556 079a 20       		.uleb128 0x20
 2557 079b 1D050000 		.4byte	.LASF76
 2558 079f 01       		.byte	0x1
 2559 07a0 1006     		.2byte	0x610
 2560 07a2 72000000 		.4byte	0x72
 2561 07a6 E4040000 		.4byte	.LLST38
 2562 07aa 0E       		.uleb128 0xe
 2563 07ab 29010000 		.4byte	0x129
 2564 07af 1A000000 		.4byte	.LBB18
 2565 07b3 08000000 		.4byte	.LBE18-.LBB18
 2566 07b7 01       		.byte	0x1
 2567 07b8 2506     		.2byte	0x625
 2568 07ba D9070000 		.4byte	0x7d9
 2569 07be 0F       		.uleb128 0xf
 2570 07bf 36010000 		.4byte	0x136
 2571 07c3 05050000 		.4byte	.LLST39
 2572 07c7 15       		.uleb128 0x15
 2573 07c8 22000000 		.4byte	.LVL110
 2574 07cc E3010000 		.4byte	0x1e3
 2575 07d0 1A       		.uleb128 0x1a
 2576 07d1 36010000 		.4byte	0x136
 2577 07d5 01       		.uleb128 0x1
 2578 07d6 31       		.byte	0x31
 2579 07d7 00       		.byte	0
 2580 07d8 00       		.byte	0
 2581 07d9 12       		.uleb128 0x12
 2582 07da 1A000000 		.4byte	.LVL109
 2583 07de F5030000 		.4byte	0x3f5
 2584 07e2 12       		.uleb128 0x12
 2585 07e3 36000000 		.4byte	.LVL111
 2586 07e7 CC030000 		.4byte	0x3cc
 2587 07eb 1D       		.uleb128 0x1d
 2588 07ec 3E000000 		.4byte	.LVL112
 2589 07f0 45050000 		.4byte	0x545
 2590 07f4 00       		.byte	0
 2591 07f5 22       		.uleb128 0x22
 2592 07f6 78030000 		.4byte	.LASF77
 2593 07fa 01       		.byte	0x1
 2594 07fb E206     		.2byte	0x6e2
 2595 07fd 96000000 		.4byte	0x96
 2596 0801 00000000 		.4byte	.LFB23
 2597 0805 24000000 		.4byte	.LFE23-.LFB23
 2598 0809 01       		.uleb128 0x1
 2599 080a 9C       		.byte	0x9c
 2600 080b 4E080000 		.4byte	0x84e
 2601 080f 1F       		.uleb128 0x1f
ARM GAS  C:\Users\chemi\AppData\Local\Temp\ccksh7Yh.s 			page 84


 2602 0810 35010000 		.4byte	.LASF59
 2603 0814 01       		.byte	0x1
 2604 0815 E406     		.2byte	0x6e4
 2605 0817 96000000 		.4byte	0x96
 2606 081b 19050000 		.4byte	.LLST40
 2607 081f 12       		.uleb128 0x12
 2608 0820 10000000 		.4byte	.LVL113
 2609 0824 45050000 		.4byte	0x545
 2610 0828 13       		.uleb128 0x13
 2611 0829 16000000 		.4byte	.LVL114
 2612 082d 69050000 		.4byte	0x569
 2613 0831 3B080000 		.4byte	0x83b
 2614 0835 14       		.uleb128 0x14
 2615 0836 01       		.uleb128 0x1
 2616 0837 50       		.byte	0x50
 2617 0838 01       		.uleb128 0x1
 2618 0839 30       		.byte	0x30
 2619 083a 00       		.byte	0
 2620 083b 12       		.uleb128 0x12
 2621 083c 1A000000 		.4byte	.LVL115
 2622 0840 A4050000 		.4byte	0x5a4
 2623 0844 12       		.uleb128 0x12
 2624 0845 1E000000 		.4byte	.LVL116
 2625 0849 57050000 		.4byte	0x557
 2626 084d 00       		.byte	0
 2627 084e 22       		.uleb128 0x22
 2628 084f 24010000 		.4byte	.LASF78
 2629 0853 01       		.byte	0x1
 2630 0854 0307     		.2byte	0x703
 2631 0856 A2000000 		.4byte	0xa2
 2632 085a 00000000 		.4byte	.LFB24
 2633 085e 24000000 		.4byte	.LFE24-.LFB24
 2634 0862 01       		.uleb128 0x1
 2635 0863 9C       		.byte	0x9c
 2636 0864 A7080000 		.4byte	0x8a7
 2637 0868 1F       		.uleb128 0x1f
 2638 0869 35010000 		.4byte	.LASF59
 2639 086d 01       		.byte	0x1
 2640 086e 0507     		.2byte	0x705
 2641 0870 A2000000 		.4byte	0xa2
 2642 0874 2C050000 		.4byte	.LLST41
 2643 0878 12       		.uleb128 0x12
 2644 0879 10000000 		.4byte	.LVL117
 2645 087d 45050000 		.4byte	0x545
 2646 0881 13       		.uleb128 0x13
 2647 0882 16000000 		.4byte	.LVL118
 2648 0886 69050000 		.4byte	0x569
 2649 088a 94080000 		.4byte	0x894
 2650 088e 14       		.uleb128 0x14
 2651 088f 01       		.uleb128 0x1
 2652 0890 50       		.byte	0x50
 2653 0891 01       		.uleb128 0x1
 2654 0892 30       		.byte	0x30
 2655 0893 00       		.byte	0
 2656 0894 12       		.uleb128 0x12
 2657 0895 1A000000 		.4byte	.LVL119
 2658 0899 DD050000 		.4byte	0x5dd
ARM GAS  C:\Users\chemi\AppData\Local\Temp\ccksh7Yh.s 			page 85


 2659 089d 12       		.uleb128 0x12
 2660 089e 1E000000 		.4byte	.LVL120
 2661 08a2 57050000 		.4byte	0x557
 2662 08a6 00       		.byte	0
 2663 08a7 22       		.uleb128 0x22
 2664 08a8 8E030000 		.4byte	.LASF79
 2665 08ac 01       		.byte	0x1
 2666 08ad 2407     		.2byte	0x724
 2667 08af AE000000 		.4byte	0xae
 2668 08b3 00000000 		.4byte	.LFB25
 2669 08b7 24000000 		.4byte	.LFE25-.LFB25
 2670 08bb 01       		.uleb128 0x1
 2671 08bc 9C       		.byte	0x9c
 2672 08bd 00090000 		.4byte	0x900
 2673 08c1 1F       		.uleb128 0x1f
 2674 08c2 35010000 		.4byte	.LASF59
 2675 08c6 01       		.byte	0x1
 2676 08c7 2607     		.2byte	0x726
 2677 08c9 AE000000 		.4byte	0xae
 2678 08cd 3F050000 		.4byte	.LLST42
 2679 08d1 12       		.uleb128 0x12
 2680 08d2 10000000 		.4byte	.LVL121
 2681 08d6 45050000 		.4byte	0x545
 2682 08da 13       		.uleb128 0x13
 2683 08db 16000000 		.4byte	.LVL122
 2684 08df 69050000 		.4byte	0x569
 2685 08e3 ED080000 		.4byte	0x8ed
 2686 08e7 14       		.uleb128 0x14
 2687 08e8 01       		.uleb128 0x1
 2688 08e9 50       		.byte	0x50
 2689 08ea 01       		.uleb128 0x1
 2690 08eb 30       		.byte	0x30
 2691 08ec 00       		.byte	0
 2692 08ed 12       		.uleb128 0x12
 2693 08ee 1A000000 		.4byte	.LVL123
 2694 08f2 18060000 		.4byte	0x618
 2695 08f6 12       		.uleb128 0x12
 2696 08f7 1E000000 		.4byte	.LVL124
 2697 08fb 57050000 		.4byte	0x557
 2698 08ff 00       		.byte	0
 2699 0900 26       		.uleb128 0x26
 2700 0901 1E010000 		.4byte	0x11e
 2701 0905 10090000 		.4byte	0x910
 2702 0909 27       		.uleb128 0x27
 2703 090a F6000000 		.4byte	0xf6
 2704 090e 00       		.byte	0
 2705 090f 00       		.byte	0
 2706 0910 28       		.uleb128 0x28
 2707 0911 9F050000 		.4byte	.LASF80
 2708 0915 01       		.byte	0x1
 2709 0916 3D       		.byte	0x3d
 2710 0917 00090000 		.4byte	0x900
 2711 091b 05       		.uleb128 0x5
 2712 091c 03       		.byte	0x3
 2713 091d 02000000 		.4byte	ADC_therm_gcor
 2714 0921 29       		.uleb128 0x29
 2715 0922 62060000 		.4byte	.LASF81
ARM GAS  C:\Users\chemi\AppData\Local\Temp\ccksh7Yh.s 			page 86


 2716 0926 01       		.byte	0x1
 2717 0927 2C       		.byte	0x2c
 2718 0928 72000000 		.4byte	0x72
 2719 092c 05       		.uleb128 0x5
 2720 092d 03       		.byte	0x3
 2721 092e 00000000 		.4byte	ADC_therm_initVar
 2722 0932 29       		.uleb128 0x29
 2723 0933 B7030000 		.4byte	.LASF82
 2724 0937 01       		.byte	0x1
 2725 0938 24       		.byte	0x24
 2726 0939 E0000000 		.4byte	0xe0
 2727 093d 05       		.uleb128 0x5
 2728 093e 03       		.byte	0x3
 2729 093f 00000000 		.4byte	ADC_therm_convDone
 2730 0943 29       		.uleb128 0x29
 2731 0944 9C010000 		.4byte	.LASF83
 2732 0948 01       		.byte	0x1
 2733 0949 29       		.byte	0x29
 2734 094a E0000000 		.4byte	0xe0
 2735 094e 05       		.uleb128 0x5
 2736 094f 03       		.byte	0x3
 2737 0950 00000000 		.4byte	ADC_therm_stopConversion
 2738 0954 29       		.uleb128 0x29
 2739 0955 45000000 		.4byte	.LASF84
 2740 0959 01       		.byte	0x1
 2741 095a 2F       		.byte	0x2f
 2742 095b E0000000 		.4byte	0xe0
 2743 095f 05       		.uleb128 0x5
 2744 0960 03       		.byte	0x3
 2745 0961 00000000 		.4byte	ADC_therm_started
 2746 0965 29       		.uleb128 0x29
 2747 0966 C2000000 		.4byte	.LASF85
 2748 096a 01       		.byte	0x1
 2749 096b 32       		.byte	0x32
 2750 096c E0000000 		.4byte	0xe0
 2751 0970 05       		.uleb128 0x5
 2752 0971 03       		.byte	0x3
 2753 0972 00000000 		.4byte	ADC_therm_Config
 2754 0976 29       		.uleb128 0x29
 2755 0977 83050000 		.4byte	.LASF86
 2756 097b 01       		.byte	0x1
 2757 097c 34       		.byte	0x34
 2758 097d 87090000 		.4byte	0x987
 2759 0981 05       		.uleb128 0x5
 2760 0982 03       		.byte	0x3
 2761 0983 00000000 		.4byte	ADC_therm_Offset
 2762 0987 05       		.uleb128 0x5
 2763 0988 AE000000 		.4byte	0xae
 2764 098c 29       		.uleb128 0x29
 2765 098d 21060000 		.4byte	.LASF87
 2766 0991 01       		.byte	0x1
 2767 0992 35       		.byte	0x35
 2768 0993 87090000 		.4byte	0x987
 2769 0997 05       		.uleb128 0x5
 2770 0998 03       		.byte	0x3
 2771 0999 00000000 		.4byte	ADC_therm_CountsPerVolt
 2772 099d 2A       		.uleb128 0x2a
ARM GAS  C:\Users\chemi\AppData\Local\Temp\ccksh7Yh.s 			page 87


 2773 099e E1020000 		.4byte	.LASF88
 2774 09a2 E1020000 		.4byte	.LASF88
 2775 09a6 04       		.byte	0x4
 2776 09a7 7D       		.byte	0x7d
 2777 09a8 2A       		.uleb128 0x2a
 2778 09a9 3C010000 		.4byte	.LASF89
 2779 09ad 3C010000 		.4byte	.LASF89
 2780 09b1 04       		.byte	0x4
 2781 09b2 77       		.byte	0x77
 2782 09b3 2A       		.uleb128 0x2a
 2783 09b4 15000000 		.4byte	.LASF90
 2784 09b8 15000000 		.4byte	.LASF90
 2785 09bc 04       		.byte	0x4
 2786 09bd 7E       		.byte	0x7e
 2787 09be 2A       		.uleb128 0x2a
 2788 09bf 3F050000 		.4byte	.LASF91
 2789 09c3 3F050000 		.4byte	.LASF91
 2790 09c7 05       		.byte	0x5
 2791 09c8 57       		.byte	0x57
 2792 09c9 2A       		.uleb128 0x2a
 2793 09ca F2050000 		.4byte	.LASF92
 2794 09ce F2050000 		.4byte	.LASF92
 2795 09d2 06       		.byte	0x6
 2796 09d3 2F       		.byte	0x2f
 2797 09d4 2A       		.uleb128 0x2a
 2798 09d5 FE030000 		.4byte	.LASF93
 2799 09d9 FE030000 		.4byte	.LASF93
 2800 09dd 07       		.byte	0x7
 2801 09de 2F       		.byte	0x2f
 2802 09df 2A       		.uleb128 0x2a
 2803 09e0 CD050000 		.4byte	.LASF94
 2804 09e4 CD050000 		.4byte	.LASF94
 2805 09e8 06       		.byte	0x6
 2806 09e9 32       		.byte	0x32
 2807 09ea 2A       		.uleb128 0x2a
 2808 09eb 68040000 		.4byte	.LASF95
 2809 09ef 68040000 		.4byte	.LASF95
 2810 09f3 07       		.byte	0x7
 2811 09f4 32       		.byte	0x32
 2812 09f5 00       		.byte	0
 2813              		.section	.debug_abbrev,"",%progbits
 2814              	.Ldebug_abbrev0:
 2815 0000 01       		.uleb128 0x1
 2816 0001 11       		.uleb128 0x11
 2817 0002 01       		.byte	0x1
 2818 0003 25       		.uleb128 0x25
 2819 0004 0E       		.uleb128 0xe
 2820 0005 13       		.uleb128 0x13
 2821 0006 0B       		.uleb128 0xb
 2822 0007 03       		.uleb128 0x3
 2823 0008 0E       		.uleb128 0xe
 2824 0009 1B       		.uleb128 0x1b
 2825 000a 0E       		.uleb128 0xe
 2826 000b 55       		.uleb128 0x55
 2827 000c 17       		.uleb128 0x17
 2828 000d 11       		.uleb128 0x11
 2829 000e 01       		.uleb128 0x1
ARM GAS  C:\Users\chemi\AppData\Local\Temp\ccksh7Yh.s 			page 88


 2830 000f 10       		.uleb128 0x10
 2831 0010 17       		.uleb128 0x17
 2832 0011 00       		.byte	0
 2833 0012 00       		.byte	0
 2834 0013 02       		.uleb128 0x2
 2835 0014 24       		.uleb128 0x24
 2836 0015 00       		.byte	0
 2837 0016 0B       		.uleb128 0xb
 2838 0017 0B       		.uleb128 0xb
 2839 0018 3E       		.uleb128 0x3e
 2840 0019 0B       		.uleb128 0xb
 2841 001a 03       		.uleb128 0x3
 2842 001b 0E       		.uleb128 0xe
 2843 001c 00       		.byte	0
 2844 001d 00       		.byte	0
 2845 001e 03       		.uleb128 0x3
 2846 001f 24       		.uleb128 0x24
 2847 0020 00       		.byte	0
 2848 0021 0B       		.uleb128 0xb
 2849 0022 0B       		.uleb128 0xb
 2850 0023 3E       		.uleb128 0x3e
 2851 0024 0B       		.uleb128 0xb
 2852 0025 03       		.uleb128 0x3
 2853 0026 08       		.uleb128 0x8
 2854 0027 00       		.byte	0
 2855 0028 00       		.byte	0
 2856 0029 04       		.uleb128 0x4
 2857 002a 16       		.uleb128 0x16
 2858 002b 00       		.byte	0
 2859 002c 03       		.uleb128 0x3
 2860 002d 0E       		.uleb128 0xe
 2861 002e 3A       		.uleb128 0x3a
 2862 002f 0B       		.uleb128 0xb
 2863 0030 3B       		.uleb128 0x3b
 2864 0031 05       		.uleb128 0x5
 2865 0032 49       		.uleb128 0x49
 2866 0033 13       		.uleb128 0x13
 2867 0034 00       		.byte	0
 2868 0035 00       		.byte	0
 2869 0036 05       		.uleb128 0x5
 2870 0037 35       		.uleb128 0x35
 2871 0038 00       		.byte	0
 2872 0039 49       		.uleb128 0x49
 2873 003a 13       		.uleb128 0x13
 2874 003b 00       		.byte	0
 2875 003c 00       		.byte	0
 2876 003d 06       		.uleb128 0x6
 2877 003e 13       		.uleb128 0x13
 2878 003f 01       		.byte	0x1
 2879 0040 0B       		.uleb128 0xb
 2880 0041 0B       		.uleb128 0xb
 2881 0042 3A       		.uleb128 0x3a
 2882 0043 0B       		.uleb128 0xb
 2883 0044 3B       		.uleb128 0x3b
 2884 0045 0B       		.uleb128 0xb
 2885 0046 01       		.uleb128 0x1
 2886 0047 13       		.uleb128 0x13
ARM GAS  C:\Users\chemi\AppData\Local\Temp\ccksh7Yh.s 			page 89


 2887 0048 00       		.byte	0
 2888 0049 00       		.byte	0
 2889 004a 07       		.uleb128 0x7
 2890 004b 0D       		.uleb128 0xd
 2891 004c 00       		.byte	0
 2892 004d 03       		.uleb128 0x3
 2893 004e 0E       		.uleb128 0xe
 2894 004f 3A       		.uleb128 0x3a
 2895 0050 0B       		.uleb128 0xb
 2896 0051 3B       		.uleb128 0x3b
 2897 0052 0B       		.uleb128 0xb
 2898 0053 49       		.uleb128 0x49
 2899 0054 13       		.uleb128 0x13
 2900 0055 38       		.uleb128 0x38
 2901 0056 0B       		.uleb128 0xb
 2902 0057 00       		.byte	0
 2903 0058 00       		.byte	0
 2904 0059 08       		.uleb128 0x8
 2905 005a 16       		.uleb128 0x16
 2906 005b 00       		.byte	0
 2907 005c 03       		.uleb128 0x3
 2908 005d 0E       		.uleb128 0xe
 2909 005e 3A       		.uleb128 0x3a
 2910 005f 0B       		.uleb128 0xb
 2911 0060 3B       		.uleb128 0x3b
 2912 0061 0B       		.uleb128 0xb
 2913 0062 49       		.uleb128 0x49
 2914 0063 13       		.uleb128 0x13
 2915 0064 00       		.byte	0
 2916 0065 00       		.byte	0
 2917 0066 09       		.uleb128 0x9
 2918 0067 2E       		.uleb128 0x2e
 2919 0068 01       		.byte	0x1
 2920 0069 03       		.uleb128 0x3
 2921 006a 0E       		.uleb128 0xe
 2922 006b 3A       		.uleb128 0x3a
 2923 006c 0B       		.uleb128 0xb
 2924 006d 3B       		.uleb128 0x3b
 2925 006e 05       		.uleb128 0x5
 2926 006f 27       		.uleb128 0x27
 2927 0070 19       		.uleb128 0x19
 2928 0071 20       		.uleb128 0x20
 2929 0072 0B       		.uleb128 0xb
 2930 0073 01       		.uleb128 0x1
 2931 0074 13       		.uleb128 0x13
 2932 0075 00       		.byte	0
 2933 0076 00       		.byte	0
 2934 0077 0A       		.uleb128 0xa
 2935 0078 05       		.uleb128 0x5
 2936 0079 00       		.byte	0
 2937 007a 03       		.uleb128 0x3
 2938 007b 0E       		.uleb128 0xe
 2939 007c 3A       		.uleb128 0x3a
 2940 007d 0B       		.uleb128 0xb
 2941 007e 3B       		.uleb128 0x3b
 2942 007f 05       		.uleb128 0x5
 2943 0080 49       		.uleb128 0x49
ARM GAS  C:\Users\chemi\AppData\Local\Temp\ccksh7Yh.s 			page 90


 2944 0081 13       		.uleb128 0x13
 2945 0082 00       		.byte	0
 2946 0083 00       		.byte	0
 2947 0084 0B       		.uleb128 0xb
 2948 0085 34       		.uleb128 0x34
 2949 0086 00       		.byte	0
 2950 0087 03       		.uleb128 0x3
 2951 0088 0E       		.uleb128 0xe
 2952 0089 3A       		.uleb128 0x3a
 2953 008a 0B       		.uleb128 0xb
 2954 008b 3B       		.uleb128 0x3b
 2955 008c 05       		.uleb128 0x5
 2956 008d 49       		.uleb128 0x49
 2957 008e 13       		.uleb128 0x13
 2958 008f 00       		.byte	0
 2959 0090 00       		.byte	0
 2960 0091 0C       		.uleb128 0xc
 2961 0092 2E       		.uleb128 0x2e
 2962 0093 01       		.byte	0x1
 2963 0094 31       		.uleb128 0x31
 2964 0095 13       		.uleb128 0x13
 2965 0096 11       		.uleb128 0x11
 2966 0097 01       		.uleb128 0x1
 2967 0098 12       		.uleb128 0x12
 2968 0099 06       		.uleb128 0x6
 2969 009a 40       		.uleb128 0x40
 2970 009b 18       		.uleb128 0x18
 2971 009c 9742     		.uleb128 0x2117
 2972 009e 19       		.uleb128 0x19
 2973 009f 01       		.uleb128 0x1
 2974 00a0 13       		.uleb128 0x13
 2975 00a1 00       		.byte	0
 2976 00a2 00       		.byte	0
 2977 00a3 0D       		.uleb128 0xd
 2978 00a4 05       		.uleb128 0x5
 2979 00a5 00       		.byte	0
 2980 00a6 31       		.uleb128 0x31
 2981 00a7 13       		.uleb128 0x13
 2982 00a8 02       		.uleb128 0x2
 2983 00a9 18       		.uleb128 0x18
 2984 00aa 00       		.byte	0
 2985 00ab 00       		.byte	0
 2986 00ac 0E       		.uleb128 0xe
 2987 00ad 1D       		.uleb128 0x1d
 2988 00ae 01       		.byte	0x1
 2989 00af 31       		.uleb128 0x31
 2990 00b0 13       		.uleb128 0x13
 2991 00b1 11       		.uleb128 0x11
 2992 00b2 01       		.uleb128 0x1
 2993 00b3 12       		.uleb128 0x12
 2994 00b4 06       		.uleb128 0x6
 2995 00b5 58       		.uleb128 0x58
 2996 00b6 0B       		.uleb128 0xb
 2997 00b7 59       		.uleb128 0x59
 2998 00b8 05       		.uleb128 0x5
 2999 00b9 01       		.uleb128 0x1
 3000 00ba 13       		.uleb128 0x13
ARM GAS  C:\Users\chemi\AppData\Local\Temp\ccksh7Yh.s 			page 91


 3001 00bb 00       		.byte	0
 3002 00bc 00       		.byte	0
 3003 00bd 0F       		.uleb128 0xf
 3004 00be 05       		.uleb128 0x5
 3005 00bf 00       		.byte	0
 3006 00c0 31       		.uleb128 0x31
 3007 00c1 13       		.uleb128 0x13
 3008 00c2 02       		.uleb128 0x2
 3009 00c3 17       		.uleb128 0x17
 3010 00c4 00       		.byte	0
 3011 00c5 00       		.byte	0
 3012 00c6 10       		.uleb128 0x10
 3013 00c7 0B       		.uleb128 0xb
 3014 00c8 01       		.byte	0x1
 3015 00c9 11       		.uleb128 0x11
 3016 00ca 01       		.uleb128 0x1
 3017 00cb 12       		.uleb128 0x12
 3018 00cc 06       		.uleb128 0x6
 3019 00cd 00       		.byte	0
 3020 00ce 00       		.byte	0
 3021 00cf 11       		.uleb128 0x11
 3022 00d0 34       		.uleb128 0x34
 3023 00d1 00       		.byte	0
 3024 00d2 31       		.uleb128 0x31
 3025 00d3 13       		.uleb128 0x13
 3026 00d4 02       		.uleb128 0x2
 3027 00d5 17       		.uleb128 0x17
 3028 00d6 00       		.byte	0
 3029 00d7 00       		.byte	0
 3030 00d8 12       		.uleb128 0x12
 3031 00d9 898201   		.uleb128 0x4109
 3032 00dc 00       		.byte	0
 3033 00dd 11       		.uleb128 0x11
 3034 00de 01       		.uleb128 0x1
 3035 00df 31       		.uleb128 0x31
 3036 00e0 13       		.uleb128 0x13
 3037 00e1 00       		.byte	0
 3038 00e2 00       		.byte	0
 3039 00e3 13       		.uleb128 0x13
 3040 00e4 898201   		.uleb128 0x4109
 3041 00e7 01       		.byte	0x1
 3042 00e8 11       		.uleb128 0x11
 3043 00e9 01       		.uleb128 0x1
 3044 00ea 31       		.uleb128 0x31
 3045 00eb 13       		.uleb128 0x13
 3046 00ec 01       		.uleb128 0x1
 3047 00ed 13       		.uleb128 0x13
 3048 00ee 00       		.byte	0
 3049 00ef 00       		.byte	0
 3050 00f0 14       		.uleb128 0x14
 3051 00f1 8A8201   		.uleb128 0x410a
 3052 00f4 00       		.byte	0
 3053 00f5 02       		.uleb128 0x2
 3054 00f6 18       		.uleb128 0x18
 3055 00f7 9142     		.uleb128 0x2111
 3056 00f9 18       		.uleb128 0x18
 3057 00fa 00       		.byte	0
ARM GAS  C:\Users\chemi\AppData\Local\Temp\ccksh7Yh.s 			page 92


 3058 00fb 00       		.byte	0
 3059 00fc 15       		.uleb128 0x15
 3060 00fd 898201   		.uleb128 0x4109
 3061 0100 01       		.byte	0x1
 3062 0101 11       		.uleb128 0x11
 3063 0102 01       		.uleb128 0x1
 3064 0103 31       		.uleb128 0x31
 3065 0104 13       		.uleb128 0x13
 3066 0105 00       		.byte	0
 3067 0106 00       		.byte	0
 3068 0107 16       		.uleb128 0x16
 3069 0108 898201   		.uleb128 0x4109
 3070 010b 01       		.byte	0x1
 3071 010c 11       		.uleb128 0x11
 3072 010d 01       		.uleb128 0x1
 3073 010e 9542     		.uleb128 0x2115
 3074 0110 19       		.uleb128 0x19
 3075 0111 31       		.uleb128 0x31
 3076 0112 13       		.uleb128 0x13
 3077 0113 00       		.byte	0
 3078 0114 00       		.byte	0
 3079 0115 17       		.uleb128 0x17
 3080 0116 2E       		.uleb128 0x2e
 3081 0117 01       		.byte	0x1
 3082 0118 3F       		.uleb128 0x3f
 3083 0119 19       		.uleb128 0x19
 3084 011a 03       		.uleb128 0x3
 3085 011b 0E       		.uleb128 0xe
 3086 011c 3A       		.uleb128 0x3a
 3087 011d 0B       		.uleb128 0xb
 3088 011e 3B       		.uleb128 0x3b
 3089 011f 0B       		.uleb128 0xb
 3090 0120 27       		.uleb128 0x27
 3091 0121 19       		.uleb128 0x19
 3092 0122 11       		.uleb128 0x11
 3093 0123 01       		.uleb128 0x1
 3094 0124 12       		.uleb128 0x12
 3095 0125 06       		.uleb128 0x6
 3096 0126 40       		.uleb128 0x40
 3097 0127 18       		.uleb128 0x18
 3098 0128 9742     		.uleb128 0x2117
 3099 012a 19       		.uleb128 0x19
 3100 012b 01       		.uleb128 0x1
 3101 012c 13       		.uleb128 0x13
 3102 012d 00       		.byte	0
 3103 012e 00       		.byte	0
 3104 012f 18       		.uleb128 0x18
 3105 0130 1D       		.uleb128 0x1d
 3106 0131 01       		.byte	0x1
 3107 0132 31       		.uleb128 0x31
 3108 0133 13       		.uleb128 0x13
 3109 0134 11       		.uleb128 0x11
 3110 0135 01       		.uleb128 0x1
 3111 0136 12       		.uleb128 0x12
 3112 0137 06       		.uleb128 0x6
 3113 0138 58       		.uleb128 0x58
 3114 0139 0B       		.uleb128 0xb
ARM GAS  C:\Users\chemi\AppData\Local\Temp\ccksh7Yh.s 			page 93


 3115 013a 59       		.uleb128 0x59
 3116 013b 0B       		.uleb128 0xb
 3117 013c 01       		.uleb128 0x1
 3118 013d 13       		.uleb128 0x13
 3119 013e 00       		.byte	0
 3120 013f 00       		.byte	0
 3121 0140 19       		.uleb128 0x19
 3122 0141 1D       		.uleb128 0x1d
 3123 0142 01       		.byte	0x1
 3124 0143 31       		.uleb128 0x31
 3125 0144 13       		.uleb128 0x13
 3126 0145 52       		.uleb128 0x52
 3127 0146 01       		.uleb128 0x1
 3128 0147 55       		.uleb128 0x55
 3129 0148 17       		.uleb128 0x17
 3130 0149 58       		.uleb128 0x58
 3131 014a 0B       		.uleb128 0xb
 3132 014b 59       		.uleb128 0x59
 3133 014c 0B       		.uleb128 0xb
 3134 014d 01       		.uleb128 0x1
 3135 014e 13       		.uleb128 0x13
 3136 014f 00       		.byte	0
 3137 0150 00       		.byte	0
 3138 0151 1A       		.uleb128 0x1a
 3139 0152 8A8201   		.uleb128 0x410a
 3140 0155 00       		.byte	0
 3141 0156 31       		.uleb128 0x31
 3142 0157 13       		.uleb128 0x13
 3143 0158 9142     		.uleb128 0x2111
 3144 015a 18       		.uleb128 0x18
 3145 015b 00       		.byte	0
 3146 015c 00       		.byte	0
 3147 015d 1B       		.uleb128 0x1b
 3148 015e 34       		.uleb128 0x34
 3149 015f 00       		.byte	0
 3150 0160 03       		.uleb128 0x3
 3151 0161 0E       		.uleb128 0xe
 3152 0162 3A       		.uleb128 0x3a
 3153 0163 0B       		.uleb128 0xb
 3154 0164 3B       		.uleb128 0x3b
 3155 0165 0B       		.uleb128 0xb
 3156 0166 49       		.uleb128 0x49
 3157 0167 13       		.uleb128 0x13
 3158 0168 00       		.byte	0
 3159 0169 00       		.byte	0
 3160 016a 1C       		.uleb128 0x1c
 3161 016b 34       		.uleb128 0x34
 3162 016c 00       		.byte	0
 3163 016d 03       		.uleb128 0x3
 3164 016e 0E       		.uleb128 0xe
 3165 016f 3A       		.uleb128 0x3a
 3166 0170 0B       		.uleb128 0xb
 3167 0171 3B       		.uleb128 0x3b
 3168 0172 0B       		.uleb128 0xb
 3169 0173 49       		.uleb128 0x49
 3170 0174 13       		.uleb128 0x13
 3171 0175 02       		.uleb128 0x2
ARM GAS  C:\Users\chemi\AppData\Local\Temp\ccksh7Yh.s 			page 94


 3172 0176 17       		.uleb128 0x17
 3173 0177 00       		.byte	0
 3174 0178 00       		.byte	0
 3175 0179 1D       		.uleb128 0x1d
 3176 017a 898201   		.uleb128 0x4109
 3177 017d 00       		.byte	0
 3178 017e 11       		.uleb128 0x11
 3179 017f 01       		.uleb128 0x1
 3180 0180 9542     		.uleb128 0x2115
 3181 0182 19       		.uleb128 0x19
 3182 0183 31       		.uleb128 0x31
 3183 0184 13       		.uleb128 0x13
 3184 0185 00       		.byte	0
 3185 0186 00       		.byte	0
 3186 0187 1E       		.uleb128 0x1e
 3187 0188 2E       		.uleb128 0x2e
 3188 0189 01       		.byte	0x1
 3189 018a 3F       		.uleb128 0x3f
 3190 018b 19       		.uleb128 0x19
 3191 018c 03       		.uleb128 0x3
 3192 018d 0E       		.uleb128 0xe
 3193 018e 3A       		.uleb128 0x3a
 3194 018f 0B       		.uleb128 0xb
 3195 0190 3B       		.uleb128 0x3b
 3196 0191 05       		.uleb128 0x5
 3197 0192 27       		.uleb128 0x27
 3198 0193 19       		.uleb128 0x19
 3199 0194 11       		.uleb128 0x11
 3200 0195 01       		.uleb128 0x1
 3201 0196 12       		.uleb128 0x12
 3202 0197 06       		.uleb128 0x6
 3203 0198 40       		.uleb128 0x40
 3204 0199 18       		.uleb128 0x18
 3205 019a 9742     		.uleb128 0x2117
 3206 019c 19       		.uleb128 0x19
 3207 019d 01       		.uleb128 0x1
 3208 019e 13       		.uleb128 0x13
 3209 019f 00       		.byte	0
 3210 01a0 00       		.byte	0
 3211 01a1 1F       		.uleb128 0x1f
 3212 01a2 34       		.uleb128 0x34
 3213 01a3 00       		.byte	0
 3214 01a4 03       		.uleb128 0x3
 3215 01a5 0E       		.uleb128 0xe
 3216 01a6 3A       		.uleb128 0x3a
 3217 01a7 0B       		.uleb128 0xb
 3218 01a8 3B       		.uleb128 0x3b
 3219 01a9 05       		.uleb128 0x5
 3220 01aa 49       		.uleb128 0x49
 3221 01ab 13       		.uleb128 0x13
 3222 01ac 02       		.uleb128 0x2
 3223 01ad 17       		.uleb128 0x17
 3224 01ae 00       		.byte	0
 3225 01af 00       		.byte	0
 3226 01b0 20       		.uleb128 0x20
 3227 01b1 05       		.uleb128 0x5
 3228 01b2 00       		.byte	0
ARM GAS  C:\Users\chemi\AppData\Local\Temp\ccksh7Yh.s 			page 95


 3229 01b3 03       		.uleb128 0x3
 3230 01b4 0E       		.uleb128 0xe
 3231 01b5 3A       		.uleb128 0x3a
 3232 01b6 0B       		.uleb128 0xb
 3233 01b7 3B       		.uleb128 0x3b
 3234 01b8 05       		.uleb128 0x5
 3235 01b9 49       		.uleb128 0x49
 3236 01ba 13       		.uleb128 0x13
 3237 01bb 02       		.uleb128 0x2
 3238 01bc 17       		.uleb128 0x17
 3239 01bd 00       		.byte	0
 3240 01be 00       		.byte	0
 3241 01bf 21       		.uleb128 0x21
 3242 01c0 2E       		.uleb128 0x2e
 3243 01c1 01       		.byte	0x1
 3244 01c2 3F       		.uleb128 0x3f
 3245 01c3 19       		.uleb128 0x19
 3246 01c4 03       		.uleb128 0x3
 3247 01c5 0E       		.uleb128 0xe
 3248 01c6 3A       		.uleb128 0x3a
 3249 01c7 0B       		.uleb128 0xb
 3250 01c8 3B       		.uleb128 0x3b
 3251 01c9 05       		.uleb128 0x5
 3252 01ca 27       		.uleb128 0x27
 3253 01cb 19       		.uleb128 0x19
 3254 01cc 49       		.uleb128 0x49
 3255 01cd 13       		.uleb128 0x13
 3256 01ce 11       		.uleb128 0x11
 3257 01cf 01       		.uleb128 0x1
 3258 01d0 12       		.uleb128 0x12
 3259 01d1 06       		.uleb128 0x6
 3260 01d2 40       		.uleb128 0x40
 3261 01d3 18       		.uleb128 0x18
 3262 01d4 9642     		.uleb128 0x2116
 3263 01d6 19       		.uleb128 0x19
 3264 01d7 01       		.uleb128 0x1
 3265 01d8 13       		.uleb128 0x13
 3266 01d9 00       		.byte	0
 3267 01da 00       		.byte	0
 3268 01db 22       		.uleb128 0x22
 3269 01dc 2E       		.uleb128 0x2e
 3270 01dd 01       		.byte	0x1
 3271 01de 3F       		.uleb128 0x3f
 3272 01df 19       		.uleb128 0x19
 3273 01e0 03       		.uleb128 0x3
 3274 01e1 0E       		.uleb128 0xe
 3275 01e2 3A       		.uleb128 0x3a
 3276 01e3 0B       		.uleb128 0xb
 3277 01e4 3B       		.uleb128 0x3b
 3278 01e5 05       		.uleb128 0x5
 3279 01e6 27       		.uleb128 0x27
 3280 01e7 19       		.uleb128 0x19
 3281 01e8 49       		.uleb128 0x49
 3282 01e9 13       		.uleb128 0x13
 3283 01ea 11       		.uleb128 0x11
 3284 01eb 01       		.uleb128 0x1
 3285 01ec 12       		.uleb128 0x12
ARM GAS  C:\Users\chemi\AppData\Local\Temp\ccksh7Yh.s 			page 96


 3286 01ed 06       		.uleb128 0x6
 3287 01ee 40       		.uleb128 0x40
 3288 01ef 18       		.uleb128 0x18
 3289 01f0 9742     		.uleb128 0x2117
 3290 01f2 19       		.uleb128 0x19
 3291 01f3 01       		.uleb128 0x1
 3292 01f4 13       		.uleb128 0x13
 3293 01f5 00       		.byte	0
 3294 01f6 00       		.byte	0
 3295 01f7 23       		.uleb128 0x23
 3296 01f8 2E       		.uleb128 0x2e
 3297 01f9 00       		.byte	0
 3298 01fa 3F       		.uleb128 0x3f
 3299 01fb 19       		.uleb128 0x19
 3300 01fc 03       		.uleb128 0x3
 3301 01fd 0E       		.uleb128 0xe
 3302 01fe 3A       		.uleb128 0x3a
 3303 01ff 0B       		.uleb128 0xb
 3304 0200 3B       		.uleb128 0x3b
 3305 0201 05       		.uleb128 0x5
 3306 0202 27       		.uleb128 0x27
 3307 0203 19       		.uleb128 0x19
 3308 0204 11       		.uleb128 0x11
 3309 0205 01       		.uleb128 0x1
 3310 0206 12       		.uleb128 0x12
 3311 0207 06       		.uleb128 0x6
 3312 0208 40       		.uleb128 0x40
 3313 0209 18       		.uleb128 0x18
 3314 020a 9742     		.uleb128 0x2117
 3315 020c 19       		.uleb128 0x19
 3316 020d 00       		.byte	0
 3317 020e 00       		.byte	0
 3318 020f 24       		.uleb128 0x24
 3319 0210 34       		.uleb128 0x34
 3320 0211 00       		.byte	0
 3321 0212 03       		.uleb128 0x3
 3322 0213 0E       		.uleb128 0xe
 3323 0214 3A       		.uleb128 0x3a
 3324 0215 0B       		.uleb128 0xb
 3325 0216 3B       		.uleb128 0x3b
 3326 0217 05       		.uleb128 0x5
 3327 0218 49       		.uleb128 0x49
 3328 0219 13       		.uleb128 0x13
 3329 021a 02       		.uleb128 0x2
 3330 021b 18       		.uleb128 0x18
 3331 021c 00       		.byte	0
 3332 021d 00       		.byte	0
 3333 021e 25       		.uleb128 0x25
 3334 021f 05       		.uleb128 0x5
 3335 0220 00       		.byte	0
 3336 0221 03       		.uleb128 0x3
 3337 0222 0E       		.uleb128 0xe
 3338 0223 3A       		.uleb128 0x3a
 3339 0224 0B       		.uleb128 0xb
 3340 0225 3B       		.uleb128 0x3b
 3341 0226 05       		.uleb128 0x5
 3342 0227 49       		.uleb128 0x49
ARM GAS  C:\Users\chemi\AppData\Local\Temp\ccksh7Yh.s 			page 97


 3343 0228 13       		.uleb128 0x13
 3344 0229 02       		.uleb128 0x2
 3345 022a 18       		.uleb128 0x18
 3346 022b 00       		.byte	0
 3347 022c 00       		.byte	0
 3348 022d 26       		.uleb128 0x26
 3349 022e 01       		.uleb128 0x1
 3350 022f 01       		.byte	0x1
 3351 0230 49       		.uleb128 0x49
 3352 0231 13       		.uleb128 0x13
 3353 0232 01       		.uleb128 0x1
 3354 0233 13       		.uleb128 0x13
 3355 0234 00       		.byte	0
 3356 0235 00       		.byte	0
 3357 0236 27       		.uleb128 0x27
 3358 0237 21       		.uleb128 0x21
 3359 0238 00       		.byte	0
 3360 0239 49       		.uleb128 0x49
 3361 023a 13       		.uleb128 0x13
 3362 023b 2F       		.uleb128 0x2f
 3363 023c 0B       		.uleb128 0xb
 3364 023d 00       		.byte	0
 3365 023e 00       		.byte	0
 3366 023f 28       		.uleb128 0x28
 3367 0240 34       		.uleb128 0x34
 3368 0241 00       		.byte	0
 3369 0242 03       		.uleb128 0x3
 3370 0243 0E       		.uleb128 0xe
 3371 0244 3A       		.uleb128 0x3a
 3372 0245 0B       		.uleb128 0xb
 3373 0246 3B       		.uleb128 0x3b
 3374 0247 0B       		.uleb128 0xb
 3375 0248 49       		.uleb128 0x49
 3376 0249 13       		.uleb128 0x13
 3377 024a 02       		.uleb128 0x2
 3378 024b 18       		.uleb128 0x18
 3379 024c 00       		.byte	0
 3380 024d 00       		.byte	0
 3381 024e 29       		.uleb128 0x29
 3382 024f 34       		.uleb128 0x34
 3383 0250 00       		.byte	0
 3384 0251 03       		.uleb128 0x3
 3385 0252 0E       		.uleb128 0xe
 3386 0253 3A       		.uleb128 0x3a
 3387 0254 0B       		.uleb128 0xb
 3388 0255 3B       		.uleb128 0x3b
 3389 0256 0B       		.uleb128 0xb
 3390 0257 49       		.uleb128 0x49
 3391 0258 13       		.uleb128 0x13
 3392 0259 3F       		.uleb128 0x3f
 3393 025a 19       		.uleb128 0x19
 3394 025b 02       		.uleb128 0x2
 3395 025c 18       		.uleb128 0x18
 3396 025d 00       		.byte	0
 3397 025e 00       		.byte	0
 3398 025f 2A       		.uleb128 0x2a
 3399 0260 2E       		.uleb128 0x2e
ARM GAS  C:\Users\chemi\AppData\Local\Temp\ccksh7Yh.s 			page 98


 3400 0261 00       		.byte	0
 3401 0262 3F       		.uleb128 0x3f
 3402 0263 19       		.uleb128 0x19
 3403 0264 3C       		.uleb128 0x3c
 3404 0265 19       		.uleb128 0x19
 3405 0266 6E       		.uleb128 0x6e
 3406 0267 0E       		.uleb128 0xe
 3407 0268 03       		.uleb128 0x3
 3408 0269 0E       		.uleb128 0xe
 3409 026a 3A       		.uleb128 0x3a
 3410 026b 0B       		.uleb128 0xb
 3411 026c 3B       		.uleb128 0x3b
 3412 026d 0B       		.uleb128 0xb
 3413 026e 00       		.byte	0
 3414 026f 00       		.byte	0
 3415 0270 00       		.byte	0
 3416              		.section	.debug_loc,"",%progbits
 3417              	.Ldebug_loc0:
 3418              	.LLST0:
 3419 0000 68000000 		.4byte	.LVL1
 3420 0004 A4000000 		.4byte	.LVL5
 3421 0008 0300     		.2byte	0x3
 3422 000a 08       		.byte	0x8
 3423 000b 52       		.byte	0x52
 3424 000c 9F       		.byte	0x9f
 3425 000d 00000000 		.4byte	0
 3426 0011 00000000 		.4byte	0
 3427              	.LLST1:
 3428 0015 6E000000 		.4byte	.LVL3
 3429 0019 A4000000 		.4byte	.LVL5
 3430 001d 0100     		.2byte	0x1
 3431 001f 59       		.byte	0x59
 3432 0020 00000000 		.4byte	0
 3433 0024 00000000 		.4byte	0
 3434              	.LLST2:
 3435 0028 56000000 		.4byte	.LVL11
 3436 002c 60000000 		.4byte	.LVL12
 3437 0030 0200     		.2byte	0x2
 3438 0032 32       		.byte	0x32
 3439 0033 9F       		.byte	0x9f
 3440 0034 00000000 		.4byte	0
 3441 0038 00000000 		.4byte	0
 3442              	.LLST3:
 3443 003c 56000000 		.4byte	.LVL11
 3444 0040 60000000 		.4byte	.LVL12
 3445 0044 0400     		.2byte	0x4
 3446 0046 0B       		.byte	0xb
 3447 0047 6B8D     		.2byte	0x8d6b
 3448 0049 9F       		.byte	0x9f
 3449 004a 00000000 		.4byte	0
 3450 004e 00000000 		.4byte	0
 3451              	.LLST4:
 3452 0052 56000000 		.4byte	.LVL11
 3453 0056 60000000 		.4byte	.LVL12
 3454 005a 0400     		.2byte	0x4
 3455 005c 0B       		.byte	0xb
 3456 005d 0080     		.2byte	0x8000
ARM GAS  C:\Users\chemi\AppData\Local\Temp\ccksh7Yh.s 			page 99


 3457 005f 9F       		.byte	0x9f
 3458 0060 00000000 		.4byte	0
 3459 0064 00000000 		.4byte	0
 3460              	.LLST5:
 3461 0068 56000000 		.4byte	.LVL11
 3462 006c 60000000 		.4byte	.LVL12
 3463 0070 0200     		.2byte	0x2
 3464 0072 3C       		.byte	0x3c
 3465 0073 9F       		.byte	0x9f
 3466 0074 00000000 		.4byte	0
 3467 0078 00000000 		.4byte	0
 3468              	.LLST6:
 3469 007c 56000000 		.4byte	.LVL11
 3470 0080 60000000 		.4byte	.LVL12
 3471 0084 0200     		.2byte	0x2
 3472 0086 31       		.byte	0x31
 3473 0087 9F       		.byte	0x9f
 3474 0088 00000000 		.4byte	0
 3475 008c 00000000 		.4byte	0
 3476              	.LLST7:
 3477 0090 56000000 		.4byte	.LVL11
 3478 0094 60000000 		.4byte	.LVL12
 3479 0098 0200     		.2byte	0x2
 3480 009a 30       		.byte	0x30
 3481 009b 9F       		.byte	0x9f
 3482 009c 00000000 		.4byte	0
 3483 00a0 00000000 		.4byte	0
 3484              	.LLST8:
 3485 00a4 56000000 		.4byte	.LVL11
 3486 00a8 60000000 		.4byte	.LVL12
 3487 00ac 0400     		.2byte	0x4
 3488 00ae 0A       		.byte	0xa
 3489 00af 6B8D     		.2byte	0x8d6b
 3490 00b1 9F       		.byte	0x9f
 3491 00b2 00000000 		.4byte	0
 3492 00b6 00000000 		.4byte	0
 3493              	.LLST9:
 3494 00ba 56000000 		.4byte	.LVL11
 3495 00be 60000000 		.4byte	.LVL12
 3496 00c2 0400     		.2byte	0x4
 3497 00c4 0A       		.byte	0xa
 3498 00c5 5A23     		.2byte	0x235a
 3499 00c7 9F       		.byte	0x9f
 3500 00c8 00000000 		.4byte	0
 3501 00cc 00000000 		.4byte	0
 3502              	.LLST10:
 3503 00d0 56000000 		.4byte	.LVL11
 3504 00d4 60000000 		.4byte	.LVL12
 3505 00d8 0600     		.2byte	0x6
 3506 00da 0C       		.byte	0xc
 3507 00db 0080B546 		.4byte	0x46b58000
 3508 00df 9F       		.byte	0x9f
 3509 00e0 00000000 		.4byte	0
 3510 00e4 00000000 		.4byte	0
 3511              	.LLST11:
 3512 00e8 7A000000 		.4byte	.LVL13
 3513 00ec 87000000 		.4byte	.LVL14-1
ARM GAS  C:\Users\chemi\AppData\Local\Temp\ccksh7Yh.s 			page 100


 3514 00f0 0100     		.2byte	0x1
 3515 00f2 53       		.byte	0x53
 3516 00f3 88000000 		.4byte	.LVL14
 3517 00f7 A8000000 		.4byte	.LFE0
 3518 00fb 0100     		.2byte	0x1
 3519 00fd 53       		.byte	0x53
 3520 00fe 00000000 		.4byte	0
 3521 0102 00000000 		.4byte	0
 3522              	.LLST12:
 3523 0106 14000000 		.4byte	.LVL16
 3524 010a 9A000000 		.4byte	.LVL18
 3525 010e 0100     		.2byte	0x1
 3526 0110 56       		.byte	0x56
 3527 0111 00000000 		.4byte	0
 3528 0115 00000000 		.4byte	0
 3529              	.LLST13:
 3530 0119 18000000 		.4byte	.LVL23
 3531 011d C6000000 		.4byte	.LVL25
 3532 0121 0100     		.2byte	0x1
 3533 0123 56       		.byte	0x56
 3534 0124 00000000 		.4byte	0
 3535 0128 00000000 		.4byte	0
 3536              	.LLST14:
 3537 012c 00000000 		.4byte	.LVL27
 3538 0130 04000000 		.4byte	.LVL28
 3539 0134 0100     		.2byte	0x1
 3540 0136 50       		.byte	0x50
 3541 0137 04000000 		.4byte	.LVL28
 3542 013b 18000000 		.4byte	.LFE4
 3543 013f 0400     		.2byte	0x4
 3544 0141 F3       		.byte	0xf3
 3545 0142 01       		.uleb128 0x1
 3546 0143 50       		.byte	0x50
 3547 0144 9F       		.byte	0x9f
 3548 0145 00000000 		.4byte	0
 3549 0149 00000000 		.4byte	0
 3550              	.LLST15:
 3551 014d 0E000000 		.4byte	.LVL29
 3552 0151 10000000 		.4byte	.LVL30
 3553 0155 0100     		.2byte	0x1
 3554 0157 53       		.byte	0x53
 3555 0158 10000000 		.4byte	.LVL30
 3556 015c 18000000 		.4byte	.LFE4
 3557 0160 0100     		.2byte	0x1
 3558 0162 50       		.byte	0x50
 3559 0163 00000000 		.4byte	0
 3560 0167 00000000 		.4byte	0
 3561              	.LLST16:
 3562 016b 00000000 		.4byte	.LVL31
 3563 016f 06000000 		.4byte	.LVL32
 3564 0173 0100     		.2byte	0x1
 3565 0175 50       		.byte	0x50
 3566 0176 06000000 		.4byte	.LVL32
 3567 017a 18000000 		.4byte	.LFE5
 3568 017e 0400     		.2byte	0x4
 3569 0180 F3       		.byte	0xf3
 3570 0181 01       		.uleb128 0x1
ARM GAS  C:\Users\chemi\AppData\Local\Temp\ccksh7Yh.s 			page 101


 3571 0182 50       		.byte	0x50
 3572 0183 9F       		.byte	0x9f
 3573 0184 00000000 		.4byte	0
 3574 0188 00000000 		.4byte	0
 3575              	.LLST17:
 3576 018c 0C000000 		.4byte	.LVL33
 3577 0190 0E000000 		.4byte	.LVL34
 3578 0194 0100     		.2byte	0x1
 3579 0196 53       		.byte	0x53
 3580 0197 0E000000 		.4byte	.LVL34
 3581 019b 18000000 		.4byte	.LFE5
 3582 019f 0100     		.2byte	0x1
 3583 01a1 50       		.byte	0x50
 3584 01a2 00000000 		.4byte	0
 3585 01a6 00000000 		.4byte	0
 3586              	.LLST18:
 3587 01aa 00000000 		.4byte	.LVL35
 3588 01ae 12000000 		.4byte	.LVL38
 3589 01b2 0100     		.2byte	0x1
 3590 01b4 50       		.byte	0x50
 3591 01b5 12000000 		.4byte	.LVL38
 3592 01b9 36000000 		.4byte	.LVL45
 3593 01bd 0100     		.2byte	0x1
 3594 01bf 54       		.byte	0x54
 3595 01c0 36000000 		.4byte	.LVL45
 3596 01c4 74000000 		.4byte	.LFE6
 3597 01c8 0600     		.2byte	0x6
 3598 01ca F3       		.byte	0xf3
 3599 01cb 03       		.uleb128 0x3
 3600 01cc F5       		.byte	0xf5
 3601 01cd 00       		.uleb128 0
 3602 01ce 25       		.uleb128 0x25
 3603 01cf 9F       		.byte	0x9f
 3604 01d0 00000000 		.4byte	0
 3605 01d4 00000000 		.4byte	0
 3606              	.LLST19:
 3607 01d8 0A000000 		.4byte	.LVL36
 3608 01dc 0E000000 		.4byte	.LVL37
 3609 01e0 0A00     		.2byte	0xa
 3610 01e2 73       		.byte	0x73
 3611 01e3 7F       		.sleb128 -1
 3612 01e4 32       		.byte	0x32
 3613 01e5 24       		.byte	0x24
 3614 01e6 03       		.byte	0x3
 3615 01e7 02000000 		.4byte	ADC_therm_gcor
 3616 01eb 22       		.byte	0x22
 3617 01ec 4A000000 		.4byte	.LVL49
 3618 01f0 58000000 		.4byte	.LVL51
 3619 01f4 0100     		.2byte	0x1
 3620 01f6 50       		.byte	0x50
 3621 01f7 58000000 		.4byte	.LVL51
 3622 01fb 5A000000 		.4byte	.LVL52
 3623 01ff 0200     		.2byte	0x2
 3624 0201 75       		.byte	0x75
 3625 0202 7E       		.sleb128 -2
 3626 0203 00000000 		.4byte	0
 3627 0207 00000000 		.4byte	0
ARM GAS  C:\Users\chemi\AppData\Local\Temp\ccksh7Yh.s 			page 102


 3628              	.LLST20:
 3629 020b 56000000 		.4byte	.LVL50
 3630 020f 5A000000 		.4byte	.LVL52
 3631 0213 0200     		.2byte	0x2
 3632 0215 30       		.byte	0x30
 3633 0216 9F       		.byte	0x9f
 3634 0217 5C000000 		.4byte	.LVL53
 3635 021b 74000000 		.4byte	.LFE6
 3636 021f 0100     		.2byte	0x1
 3637 0221 50       		.byte	0x50
 3638 0222 00000000 		.4byte	0
 3639 0226 00000000 		.4byte	0
 3640              	.LLST21:
 3641 022a 1E000000 		.4byte	.LVL40
 3642 022e 23000000 		.4byte	.LVL41-1
 3643 0232 0100     		.2byte	0x1
 3644 0234 50       		.byte	0x50
 3645 0235 26000000 		.4byte	.LVL42
 3646 0239 29000000 		.4byte	.LVL43-1
 3647 023d 0100     		.2byte	0x1
 3648 023f 50       		.byte	0x50
 3649 0240 29000000 		.4byte	.LVL43-1
 3650 0244 38000000 		.4byte	.LVL46
 3651 0248 0100     		.2byte	0x1
 3652 024a 57       		.byte	0x57
 3653 024b 38000000 		.4byte	.LVL46
 3654 024f 5A000000 		.4byte	.LVL52
 3655 0253 0C00     		.2byte	0xc
 3656 0255 F5       		.byte	0xf5
 3657 0256 07       		.uleb128 0x7
 3658 0257 25       		.uleb128 0x25
 3659 0258 F4       		.byte	0xf4
 3660 0259 25       		.uleb128 0x25
 3661 025a 04       		.byte	0x4
 3662 025b 00000047 		.4byte	0x47000000
 3663 025f 1E       		.byte	0x1e
 3664 0260 9F       		.byte	0x9f
 3665 0261 5A000000 		.4byte	.LVL52
 3666 0265 5E000000 		.4byte	.LVL54
 3667 0269 0100     		.2byte	0x1
 3668 026b 57       		.byte	0x57
 3669 026c 00000000 		.4byte	0
 3670 0270 00000000 		.4byte	0
 3671              	.LLST22:
 3672 0274 0A000000 		.4byte	.LVL55
 3673 0278 14000000 		.4byte	.LVL57
 3674 027c 0100     		.2byte	0x1
 3675 027e 53       		.byte	0x53
 3676 027f 00000000 		.4byte	0
 3677 0283 00000000 		.4byte	0
 3678              	.LLST23:
 3679 0287 0E000000 		.4byte	.LVL56
 3680 028b 16000000 		.4byte	.LVL58
 3681 028f 0100     		.2byte	0x1
 3682 0291 50       		.byte	0x50
 3683 0292 18000000 		.4byte	.LVL59
 3684 0296 24000000 		.4byte	.LFE7
ARM GAS  C:\Users\chemi\AppData\Local\Temp\ccksh7Yh.s 			page 103


 3685 029a 0100     		.2byte	0x1
 3686 029c 50       		.byte	0x50
 3687 029d 00000000 		.4byte	0
 3688 02a1 00000000 		.4byte	0
 3689              	.LLST24:
 3690 02a5 00000000 		.4byte	.LVL60
 3691 02a9 1E000000 		.4byte	.LVL64
 3692 02ad 0100     		.2byte	0x1
 3693 02af 50       		.byte	0x50
 3694 02b0 1E000000 		.4byte	.LVL64
 3695 02b4 28000000 		.4byte	.LFE10
 3696 02b8 0400     		.2byte	0x4
 3697 02ba F3       		.byte	0xf3
 3698 02bb 01       		.uleb128 0x1
 3699 02bc 50       		.byte	0x50
 3700 02bd 9F       		.byte	0x9f
 3701 02be 00000000 		.4byte	0
 3702 02c2 00000000 		.4byte	0
 3703              	.LLST25:
 3704 02c6 0C000000 		.4byte	.LVL61
 3705 02ca 0E000000 		.4byte	.LVL62
 3706 02ce 0100     		.2byte	0x1
 3707 02d0 53       		.byte	0x53
 3708 02d1 14000000 		.4byte	.LVL63
 3709 02d5 28000000 		.4byte	.LFE10
 3710 02d9 0100     		.2byte	0x1
 3711 02db 53       		.byte	0x53
 3712 02dc 00000000 		.4byte	0
 3713 02e0 00000000 		.4byte	0
 3714              	.LLST26:
 3715 02e4 0C000000 		.4byte	.LVL65
 3716 02e8 14000000 		.4byte	.LVL67
 3717 02ec 0100     		.2byte	0x1
 3718 02ee 53       		.byte	0x53
 3719 02ef 16000000 		.4byte	.LVL68
 3720 02f3 1C000000 		.4byte	.LVL69
 3721 02f7 0100     		.2byte	0x1
 3722 02f9 53       		.byte	0x53
 3723 02fa 00000000 		.4byte	0
 3724 02fe 00000000 		.4byte	0
 3725              	.LLST27:
 3726 0302 12000000 		.4byte	.LVL71
 3727 0306 14000000 		.4byte	.LVL72
 3728 030a 0100     		.2byte	0x1
 3729 030c 50       		.byte	0x50
 3730 030d 18000000 		.4byte	.LVL73
 3731 0311 20000000 		.4byte	.LVL74
 3732 0315 0100     		.2byte	0x1
 3733 0317 53       		.byte	0x53
 3734 0318 20000000 		.4byte	.LVL74
 3735 031c 44000000 		.4byte	.LFE12
 3736 0320 0100     		.2byte	0x1
 3737 0322 50       		.byte	0x50
 3738 0323 00000000 		.4byte	0
 3739 0327 00000000 		.4byte	0
 3740              	.LLST28:
 3741 032b 0A000000 		.4byte	.LVL70
ARM GAS  C:\Users\chemi\AppData\Local\Temp\ccksh7Yh.s 			page 104


 3742 032f 2A000000 		.4byte	.LVL75
 3743 0333 0100     		.2byte	0x1
 3744 0335 52       		.byte	0x52
 3745 0336 00000000 		.4byte	0
 3746 033a 00000000 		.4byte	0
 3747              	.LLST29:
 3748 033e 12000000 		.4byte	.LVL77
 3749 0342 18000000 		.4byte	.LVL78
 3750 0346 0700     		.2byte	0x7
 3751 0348 73       		.byte	0x73
 3752 0349 00       		.sleb128 0
 3753 034a 0A       		.byte	0xa
 3754 034b FFFF     		.2byte	0xffff
 3755 034d 1A       		.byte	0x1a
 3756 034e 9F       		.byte	0x9f
 3757 034f 20000000 		.4byte	.LVL80
 3758 0353 22000000 		.4byte	.LVL81
 3759 0357 0700     		.2byte	0x7
 3760 0359 70       		.byte	0x70
 3761 035a 00       		.sleb128 0
 3762 035b 0A       		.byte	0xa
 3763 035c FFFF     		.2byte	0xffff
 3764 035e 1A       		.byte	0x1a
 3765 035f 9F       		.byte	0x9f
 3766 0360 22000000 		.4byte	.LVL81
 3767 0364 2A000000 		.4byte	.LVL82
 3768 0368 0C00     		.2byte	0xc
 3769 036a 70       		.byte	0x70
 3770 036b 00       		.sleb128 0
 3771 036c 0A       		.byte	0xa
 3772 036d FFFF     		.2byte	0xffff
 3773 036f 1A       		.byte	0x1a
 3774 0370 40       		.byte	0x40
 3775 0371 24       		.byte	0x24
 3776 0372 72       		.byte	0x72
 3777 0373 00       		.sleb128 0
 3778 0374 21       		.byte	0x21
 3779 0375 9F       		.byte	0x9f
 3780 0376 2C000000 		.4byte	.LVL83
 3781 037a 2E000000 		.4byte	.LVL84
 3782 037e 0100     		.2byte	0x1
 3783 0380 50       		.byte	0x50
 3784 0381 38000000 		.4byte	.LVL87
 3785 0385 58000000 		.4byte	.LFE13
 3786 0389 0100     		.2byte	0x1
 3787 038b 50       		.byte	0x50
 3788 038c 00000000 		.4byte	0
 3789 0390 00000000 		.4byte	0
 3790              	.LLST30:
 3791 0394 0C000000 		.4byte	.LVL76
 3792 0398 12000000 		.4byte	.LVL77
 3793 039c 0100     		.2byte	0x1
 3794 039e 53       		.byte	0x53
 3795 039f 18000000 		.4byte	.LVL78
 3796 03a3 1E000000 		.4byte	.LVL79
 3797 03a7 0100     		.2byte	0x1
 3798 03a9 53       		.byte	0x53
ARM GAS  C:\Users\chemi\AppData\Local\Temp\ccksh7Yh.s 			page 105


 3799 03aa 2E000000 		.4byte	.LVL84
 3800 03ae 32000000 		.4byte	.LVL85
 3801 03b2 0100     		.2byte	0x1
 3802 03b4 53       		.byte	0x53
 3803 03b5 00000000 		.4byte	0
 3804 03b9 00000000 		.4byte	0
 3805              	.LLST31:
 3806 03bd 00000000 		.4byte	.LVL90
 3807 03c1 06000000 		.4byte	.LVL91
 3808 03c5 0100     		.2byte	0x1
 3809 03c7 50       		.byte	0x50
 3810 03c8 06000000 		.4byte	.LVL91
 3811 03cc 0A000000 		.4byte	.LVL93
 3812 03d0 0600     		.2byte	0x6
 3813 03d2 70       		.byte	0x70
 3814 03d3 00       		.sleb128 0
 3815 03d4 73       		.byte	0x73
 3816 03d5 00       		.sleb128 0
 3817 03d6 1C       		.byte	0x1c
 3818 03d7 9F       		.byte	0x9f
 3819 03d8 0A000000 		.4byte	.LVL93
 3820 03dc 10000000 		.4byte	.LVL95
 3821 03e0 0100     		.2byte	0x1
 3822 03e2 50       		.byte	0x50
 3823 03e3 00000000 		.4byte	0
 3824 03e7 00000000 		.4byte	0
 3825              	.LLST32:
 3826 03eb 08000000 		.4byte	.LVL92
 3827 03ef 0A000000 		.4byte	.LVL93
 3828 03f3 0D00     		.2byte	0xd
 3829 03f5 70       		.byte	0x70
 3830 03f6 00       		.sleb128 0
 3831 03f7 73       		.byte	0x73
 3832 03f8 00       		.sleb128 0
 3833 03f9 1C       		.byte	0x1c
 3834 03fa 0A       		.byte	0xa
 3835 03fb E803     		.2byte	0x3e8
 3836 03fd 1E       		.byte	0x1e
 3837 03fe 72       		.byte	0x72
 3838 03ff 00       		.sleb128 0
 3839 0400 1B       		.byte	0x1b
 3840 0401 9F       		.byte	0x9f
 3841 0402 0A000000 		.4byte	.LVL93
 3842 0406 0E000000 		.4byte	.LVL94
 3843 040a 0E00     		.2byte	0xe
 3844 040c F3       		.byte	0xf3
 3845 040d 01       		.uleb128 0x1
 3846 040e 50       		.byte	0x50
 3847 040f 73       		.byte	0x73
 3848 0410 00       		.sleb128 0
 3849 0411 1C       		.byte	0x1c
 3850 0412 0A       		.byte	0xa
 3851 0413 E803     		.2byte	0x3e8
 3852 0415 1E       		.byte	0x1e
 3853 0416 72       		.byte	0x72
 3854 0417 00       		.sleb128 0
 3855 0418 1B       		.byte	0x1b
ARM GAS  C:\Users\chemi\AppData\Local\Temp\ccksh7Yh.s 			page 106


 3856 0419 9F       		.byte	0x9f
 3857 041a 00000000 		.4byte	0
 3858 041e 00000000 		.4byte	0
 3859              	.LLST33:
 3860 0422 00000000 		.4byte	.LVL96
 3861 0426 08000000 		.4byte	.LVL97
 3862 042a 0100     		.2byte	0x1
 3863 042c 50       		.byte	0x50
 3864 042d 08000000 		.4byte	.LVL97
 3865 0431 0C000000 		.4byte	.LVL99
 3866 0435 0600     		.2byte	0x6
 3867 0437 70       		.byte	0x70
 3868 0438 00       		.sleb128 0
 3869 0439 73       		.byte	0x73
 3870 043a 00       		.sleb128 0
 3871 043b 1C       		.byte	0x1c
 3872 043c 9F       		.byte	0x9f
 3873 043d 0C000000 		.4byte	.LVL99
 3874 0441 0F000000 		.4byte	.LVL100-1
 3875 0445 0100     		.2byte	0x1
 3876 0447 50       		.byte	0x50
 3877 0448 00000000 		.4byte	0
 3878 044c 00000000 		.4byte	0
 3879              	.LLST34:
 3880 0450 0A000000 		.4byte	.LVL98
 3881 0454 0C000000 		.4byte	.LVL99
 3882 0458 1100     		.2byte	0x11
 3883 045a 70       		.byte	0x70
 3884 045b 00       		.sleb128 0
 3885 045c 73       		.byte	0x73
 3886 045d 00       		.sleb128 0
 3887 045e 1C       		.byte	0x1c
 3888 045f F7       		.byte	0xf7
 3889 0460 2C       		.uleb128 0x2c
 3890 0461 F7       		.byte	0xf7
 3891 0462 25       		.uleb128 0x25
 3892 0463 75       		.byte	0x75
 3893 0464 00       		.sleb128 0
 3894 0465 F7       		.byte	0xf7
 3895 0466 2C       		.uleb128 0x2c
 3896 0467 F7       		.byte	0xf7
 3897 0468 25       		.uleb128 0x25
 3898 0469 1B       		.byte	0x1b
 3899 046a 9F       		.byte	0x9f
 3900 046b 0C000000 		.4byte	.LVL99
 3901 046f 0F000000 		.4byte	.LVL100-1
 3902 0473 1200     		.2byte	0x12
 3903 0475 F3       		.byte	0xf3
 3904 0476 01       		.uleb128 0x1
 3905 0477 50       		.byte	0x50
 3906 0478 73       		.byte	0x73
 3907 0479 00       		.sleb128 0
 3908 047a 1C       		.byte	0x1c
 3909 047b F7       		.byte	0xf7
 3910 047c 2C       		.uleb128 0x2c
 3911 047d F7       		.byte	0xf7
 3912 047e 25       		.uleb128 0x25
ARM GAS  C:\Users\chemi\AppData\Local\Temp\ccksh7Yh.s 			page 107


 3913 047f 75       		.byte	0x75
 3914 0480 00       		.sleb128 0
 3915 0481 F7       		.byte	0xf7
 3916 0482 2C       		.uleb128 0x2c
 3917 0483 F7       		.byte	0xf7
 3918 0484 25       		.uleb128 0x25
 3919 0485 1B       		.byte	0x1b
 3920 0486 9F       		.byte	0x9f
 3921 0487 00000000 		.4byte	0
 3922 048b 00000000 		.4byte	0
 3923              	.LLST35:
 3924 048f 00000000 		.4byte	.LVL103
 3925 0493 22000000 		.4byte	.LVL105
 3926 0497 0100     		.2byte	0x1
 3927 0499 50       		.byte	0x50
 3928 049a 22000000 		.4byte	.LVL105
 3929 049e 4C000000 		.4byte	.LFE18
 3930 04a2 0400     		.2byte	0x4
 3931 04a4 F3       		.byte	0xf3
 3932 04a5 01       		.uleb128 0x1
 3933 04a6 50       		.byte	0x50
 3934 04a7 9F       		.byte	0x9f
 3935 04a8 00000000 		.4byte	0
 3936 04ac 00000000 		.4byte	0
 3937              	.LLST36:
 3938 04b0 1E000000 		.4byte	.LVL104
 3939 04b4 32000000 		.4byte	.LVL107
 3940 04b8 0100     		.2byte	0x1
 3941 04ba 53       		.byte	0x53
 3942 04bb 00000000 		.4byte	0
 3943 04bf 00000000 		.4byte	0
 3944              	.LLST37:
 3945 04c3 00000000 		.4byte	.LVL108
 3946 04c7 19000000 		.4byte	.LVL109-1
 3947 04cb 0100     		.2byte	0x1
 3948 04cd 50       		.byte	0x50
 3949 04ce 19000000 		.4byte	.LVL109-1
 3950 04d2 4C000000 		.4byte	.LFE20
 3951 04d6 0400     		.2byte	0x4
 3952 04d8 F3       		.byte	0xf3
 3953 04d9 01       		.uleb128 0x1
 3954 04da 50       		.byte	0x50
 3955 04db 9F       		.byte	0x9f
 3956 04dc 00000000 		.4byte	0
 3957 04e0 00000000 		.4byte	0
 3958              	.LLST38:
 3959 04e4 00000000 		.4byte	.LVL108
 3960 04e8 19000000 		.4byte	.LVL109-1
 3961 04ec 0100     		.2byte	0x1
 3962 04ee 51       		.byte	0x51
 3963 04ef 19000000 		.4byte	.LVL109-1
 3964 04f3 4C000000 		.4byte	.LFE20
 3965 04f7 0400     		.2byte	0x4
 3966 04f9 F3       		.byte	0xf3
 3967 04fa 01       		.uleb128 0x1
 3968 04fb 51       		.byte	0x51
 3969 04fc 9F       		.byte	0x9f
ARM GAS  C:\Users\chemi\AppData\Local\Temp\ccksh7Yh.s 			page 108


 3970 04fd 00000000 		.4byte	0
 3971 0501 00000000 		.4byte	0
 3972              	.LLST39:
 3973 0505 1A000000 		.4byte	.LVL109
 3974 0509 22000000 		.4byte	.LVL110
 3975 050d 0200     		.2byte	0x2
 3976 050f 31       		.byte	0x31
 3977 0510 9F       		.byte	0x9f
 3978 0511 00000000 		.4byte	0
 3979 0515 00000000 		.4byte	0
 3980              	.LLST40:
 3981 0519 1A000000 		.4byte	.LVL115
 3982 051d 1D000000 		.4byte	.LVL116-1
 3983 0521 0100     		.2byte	0x1
 3984 0523 50       		.byte	0x50
 3985 0524 00000000 		.4byte	0
 3986 0528 00000000 		.4byte	0
 3987              	.LLST41:
 3988 052c 1A000000 		.4byte	.LVL119
 3989 0530 1D000000 		.4byte	.LVL120-1
 3990 0534 0100     		.2byte	0x1
 3991 0536 50       		.byte	0x50
 3992 0537 00000000 		.4byte	0
 3993 053b 00000000 		.4byte	0
 3994              	.LLST42:
 3995 053f 1A000000 		.4byte	.LVL123
 3996 0543 1D000000 		.4byte	.LVL124-1
 3997 0547 0100     		.2byte	0x1
 3998 0549 50       		.byte	0x50
 3999 054a 00000000 		.4byte	0
 4000 054e 00000000 		.4byte	0
 4001              		.section	.debug_aranges,"",%progbits
 4002 0000 D4000000 		.4byte	0xd4
 4003 0004 0200     		.2byte	0x2
 4004 0006 00000000 		.4byte	.Ldebug_info0
 4005 000a 04       		.byte	0x4
 4006 000b 00       		.byte	0
 4007 000c 0000     		.2byte	0
 4008 000e 0000     		.2byte	0
 4009 0010 00000000 		.4byte	.LFB26
 4010 0014 F4000000 		.4byte	.LFE26-.LFB26
 4011 0018 00000000 		.4byte	.LFB0
 4012 001c A8000000 		.4byte	.LFE0-.LFB0
 4013 0020 00000000 		.4byte	.LFB1
 4014 0024 C0000000 		.4byte	.LFE1-.LFB1
 4015 0028 00000000 		.4byte	.LFB2
 4016 002c 20000000 		.4byte	.LFE2-.LFB2
 4017 0030 00000000 		.4byte	.LFB3
 4018 0034 E0000000 		.4byte	.LFE3-.LFB3
 4019 0038 00000000 		.4byte	.LFB4
 4020 003c 18000000 		.4byte	.LFE4-.LFB4
 4021 0040 00000000 		.4byte	.LFB5
 4022 0044 18000000 		.4byte	.LFE5-.LFB5
 4023 0048 00000000 		.4byte	.LFB6
 4024 004c 74000000 		.4byte	.LFE6-.LFB6
 4025 0050 00000000 		.4byte	.LFB7
 4026 0054 24000000 		.4byte	.LFE7-.LFB7
ARM GAS  C:\Users\chemi\AppData\Local\Temp\ccksh7Yh.s 			page 109


 4027 0058 00000000 		.4byte	.LFB8
 4028 005c 10000000 		.4byte	.LFE8-.LFB8
 4029 0060 00000000 		.4byte	.LFB9
 4030 0064 10000000 		.4byte	.LFE9-.LFB9
 4031 0068 00000000 		.4byte	.LFB10
 4032 006c 28000000 		.4byte	.LFE10-.LFB10
 4033 0070 00000000 		.4byte	.LFB11
 4034 0074 40000000 		.4byte	.LFE11-.LFB11
 4035 0078 00000000 		.4byte	.LFB12
 4036 007c 44000000 		.4byte	.LFE12-.LFB12
 4037 0080 00000000 		.4byte	.LFB13
 4038 0084 58000000 		.4byte	.LFE13-.LFB13
 4039 0088 00000000 		.4byte	.LFB14
 4040 008c 0C000000 		.4byte	.LFE14-.LFB14
 4041 0090 00000000 		.4byte	.LFB15
 4042 0094 0C000000 		.4byte	.LFE15-.LFB15
 4043 0098 00000000 		.4byte	.LFB16
 4044 009c 20000000 		.4byte	.LFE16-.LFB16
 4045 00a0 00000000 		.4byte	.LFB17
 4046 00a4 2C000000 		.4byte	.LFE17-.LFB17
 4047 00a8 00000000 		.4byte	.LFB18
 4048 00ac 4C000000 		.4byte	.LFE18-.LFB18
 4049 00b0 00000000 		.4byte	.LFB20
 4050 00b4 4C000000 		.4byte	.LFE20-.LFB20
 4051 00b8 00000000 		.4byte	.LFB23
 4052 00bc 24000000 		.4byte	.LFE23-.LFB23
 4053 00c0 00000000 		.4byte	.LFB24
 4054 00c4 24000000 		.4byte	.LFE24-.LFB24
 4055 00c8 00000000 		.4byte	.LFB25
 4056 00cc 24000000 		.4byte	.LFE25-.LFB25
 4057 00d0 00000000 		.4byte	0
 4058 00d4 00000000 		.4byte	0
 4059              		.section	.debug_ranges,"",%progbits
 4060              	.Ldebug_ranges0:
 4061 0000 7A000000 		.4byte	.LBB12
 4062 0004 80000000 		.4byte	.LBE12
 4063 0008 84000000 		.4byte	.LBB15
 4064 000c A8000000 		.4byte	.LBE15
 4065 0010 00000000 		.4byte	0
 4066 0014 00000000 		.4byte	0
 4067 0018 00000000 		.4byte	.LFB26
 4068 001c F4000000 		.4byte	.LFE26
 4069 0020 00000000 		.4byte	.LFB0
 4070 0024 A8000000 		.4byte	.LFE0
 4071 0028 00000000 		.4byte	.LFB1
 4072 002c C0000000 		.4byte	.LFE1
 4073 0030 00000000 		.4byte	.LFB2
 4074 0034 20000000 		.4byte	.LFE2
 4075 0038 00000000 		.4byte	.LFB3
 4076 003c E0000000 		.4byte	.LFE3
 4077 0040 00000000 		.4byte	.LFB4
 4078 0044 18000000 		.4byte	.LFE4
 4079 0048 00000000 		.4byte	.LFB5
 4080 004c 18000000 		.4byte	.LFE5
 4081 0050 00000000 		.4byte	.LFB6
 4082 0054 74000000 		.4byte	.LFE6
 4083 0058 00000000 		.4byte	.LFB7
ARM GAS  C:\Users\chemi\AppData\Local\Temp\ccksh7Yh.s 			page 110


 4084 005c 24000000 		.4byte	.LFE7
 4085 0060 00000000 		.4byte	.LFB8
 4086 0064 10000000 		.4byte	.LFE8
 4087 0068 00000000 		.4byte	.LFB9
 4088 006c 10000000 		.4byte	.LFE9
 4089 0070 00000000 		.4byte	.LFB10
 4090 0074 28000000 		.4byte	.LFE10
 4091 0078 00000000 		.4byte	.LFB11
 4092 007c 40000000 		.4byte	.LFE11
 4093 0080 00000000 		.4byte	.LFB12
 4094 0084 44000000 		.4byte	.LFE12
 4095 0088 00000000 		.4byte	.LFB13
 4096 008c 58000000 		.4byte	.LFE13
 4097 0090 00000000 		.4byte	.LFB14
 4098 0094 0C000000 		.4byte	.LFE14
 4099 0098 00000000 		.4byte	.LFB15
 4100 009c 0C000000 		.4byte	.LFE15
 4101 00a0 00000000 		.4byte	.LFB16
 4102 00a4 20000000 		.4byte	.LFE16
 4103 00a8 00000000 		.4byte	.LFB17
 4104 00ac 2C000000 		.4byte	.LFE17
 4105 00b0 00000000 		.4byte	.LFB18
 4106 00b4 4C000000 		.4byte	.LFE18
 4107 00b8 00000000 		.4byte	.LFB20
 4108 00bc 4C000000 		.4byte	.LFE20
 4109 00c0 00000000 		.4byte	.LFB23
 4110 00c4 24000000 		.4byte	.LFE23
 4111 00c8 00000000 		.4byte	.LFB24
 4112 00cc 24000000 		.4byte	.LFE24
 4113 00d0 00000000 		.4byte	.LFB25
 4114 00d4 24000000 		.4byte	.LFE25
 4115 00d8 00000000 		.4byte	0
 4116 00dc 00000000 		.4byte	0
 4117              		.section	.debug_line,"",%progbits
 4118              	.Ldebug_line0:
 4119 0000 D8030000 		.section	.debug_str,"MS",%progbits,1
 4119      0200A500 
 4119      00000201 
 4119      FB0E0D00 
 4119      01010101 
 4120              	.LASF11:
 4121 0000 75696E74 		.ascii	"uint16\000"
 4121      313600
 4122              	.LASF28:
 4123 0007 76616C75 		.ascii	"value\000"
 4123      6500
 4124              	.LASF65:
 4125 000d 61646347 		.ascii	"adcGain\000"
 4125      61696E00 
 4126              	.LASF90:
 4127 0015 43794578 		.ascii	"CyExitCriticalSection\000"
 4127      69744372 
 4127      69746963 
 4127      616C5365 
 4127      6374696F 
 4128              	.LASF30:
 4129 002b 696E7075 		.ascii	"inputRange\000"
ARM GAS  C:\Users\chemi\AppData\Local\Temp\ccksh7Yh.s 			page 111


 4129      7452616E 
 4129      676500
 4130              	.LASF42:
 4131 0036 4144435F 		.ascii	"ADC_therm_Stop\000"
 4131      74686572 
 4131      6D5F5374 
 4131      6F7000
 4132              	.LASF84:
 4133 0045 4144435F 		.ascii	"ADC_therm_started\000"
 4133      74686572 
 4133      6D5F7374 
 4133      61727465 
 4133      6400
 4134              	.LASF22:
 4135 0057 67636F72 		.ascii	"gcor\000"
 4135      00
 4136              	.LASF98:
 4137 005c 433A5C55 		.ascii	"C:\\Users\\chemi\\UD3_QCW\\UD3_QFN.cydsn\000"
 4137      73657273 
 4137      5C636865 
 4137      6D695C55 
 4137      44335F51 
 4138              	.LASF8:
 4139 0081 6C6F6E67 		.ascii	"long long unsigned int\000"
 4139      206C6F6E 
 4139      6720756E 
 4139      7369676E 
 4139      65642069 
 4140              	.LASF32:
 4141 0098 69646561 		.ascii	"idealOddDecGain\000"
 4141      6C4F6464 
 4141      44656347 
 4141      61696E00 
 4142              	.LASF7:
 4143 00a8 6C6F6E67 		.ascii	"long long int\000"
 4143      206C6F6E 
 4143      6720696E 
 4143      7400
 4144              	.LASF1:
 4145 00b6 7369676E 		.ascii	"signed char\000"
 4145      65642063 
 4145      68617200 
 4146              	.LASF85:
 4147 00c2 4144435F 		.ascii	"ADC_therm_Config\000"
 4147      74686572 
 4147      6D5F436F 
 4147      6E666967 
 4147      00
 4148              	.LASF43:
 4149 00d3 4144435F 		.ascii	"ADC_therm_SetBufferGain\000"
 4149      74686572 
 4149      6D5F5365 
 4149      74427566 
 4149      66657247 
 4150              	.LASF75:
 4151 00eb 4144435F 		.ascii	"ADC_therm_SelectConfiguration\000"
 4151      74686572 
ARM GAS  C:\Users\chemi\AppData\Local\Temp\ccksh7Yh.s 			page 112


 4151      6D5F5365 
 4151      6C656374 
 4151      436F6E66 
 4152              	.LASF15:
 4153 0109 696E7433 		.ascii	"int32\000"
 4153      3200
 4154              	.LASF5:
 4155 010f 6C6F6E67 		.ascii	"long int\000"
 4155      20696E74 
 4155      00
 4156              	.LASF20:
 4157 0118 72656731 		.ascii	"reg16\000"
 4157      3600
 4158              	.LASF10:
 4159 011e 75696E74 		.ascii	"uint8\000"
 4159      3800
 4160              	.LASF78:
 4161 0124 4144435F 		.ascii	"ADC_therm_Read16\000"
 4161      74686572 
 4161      6D5F5265 
 4161      61643136 
 4161      00
 4162              	.LASF59:
 4163 0135 72657375 		.ascii	"result\000"
 4163      6C7400
 4164              	.LASF89:
 4165 013c 43794465 		.ascii	"CyDelayUs\000"
 4165      6C617955 
 4165      7300
 4166              	.LASF51:
 4167 0146 4144435F 		.ascii	"ADC_therm_SetGCOR\000"
 4167      74686572 
 4167      6D5F5365 
 4167      7447434F 
 4167      5200
 4168              	.LASF17:
 4169 0158 646F7562 		.ascii	"double\000"
 4169      6C6500
 4170              	.LASF70:
 4171 015f 566F6C74 		.ascii	"Volts\000"
 4171      7300
 4172              	.LASF55:
 4173 0165 4144435F 		.ascii	"ADC_therm_StopConvert\000"
 4173      74686572 
 4173      6D5F5374 
 4173      6F70436F 
 4173      6E766572 
 4174              	.LASF12:
 4175 017b 75696E74 		.ascii	"uint32\000"
 4175      333200
 4176              	.LASF71:
 4177 0182 4144435F 		.ascii	"ADC_therm_CountsTo_uVolts\000"
 4177      74686572 
 4177      6D5F436F 
 4177      756E7473 
 4177      546F5F75 
 4178              	.LASF83:
ARM GAS  C:\Users\chemi\AppData\Local\Temp\ccksh7Yh.s 			page 113


 4179 019c 4144435F 		.ascii	"ADC_therm_stopConversion\000"
 4179      74686572 
 4179      6D5F7374 
 4179      6F70436F 
 4179      6E766572 
 4180              	.LASF96:
 4181 01b5 474E5520 		.ascii	"GNU C99 5.4.1 20160609 (release) [ARM/embedded-5-br"
 4181      43393920 
 4181      352E342E 
 4181      31203230 
 4181      31363036 
 4182 01e8 616E6368 		.ascii	"anch revision 237715] -mcpu=cortex-m3 -mthumb -g -O"
 4182      20726576 
 4182      6973696F 
 4182      6E203233 
 4182      37373135 
 4183 021b 73202D73 		.ascii	"s -std=gnu99 -ffunction-sections -ffat-lto-objects\000"
 4183      74643D67 
 4183      6E753939 
 4183      202D6666 
 4183      756E6374 
 4184              	.LASF64:
 4185 024e 4144435F 		.ascii	"ADC_therm_SetGain\000"
 4185      74686572 
 4185      6D5F5365 
 4185      74476169 
 4185      6E00
 4186              	.LASF40:
 4187 0260 4144435F 		.ascii	"ADC_therm_Enable\000"
 4187      74686572 
 4187      6D5F456E 
 4187      61626C65 
 4187      00
 4188              	.LASF26:
 4189 0271 4144435F 		.ascii	"ADC_therm_SetDSMRef0Reg\000"
 4189      74686572 
 4189      6D5F5365 
 4189      7444534D 
 4189      52656630 
 4190              	.LASF57:
 4191 0289 7265744D 		.ascii	"retMode\000"
 4191      6F646500 
 4192              	.LASF9:
 4193 0291 756E7369 		.ascii	"unsigned int\000"
 4193      676E6564 
 4193      20696E74 
 4193      00
 4194              	.LASF25:
 4195 029e 4144435F 		.ascii	"ADC_therm_InitConfig\000"
 4195      74686572 
 4195      6D5F496E 
 4195      6974436F 
 4195      6E666967 
 4196              	.LASF58:
 4197 02b3 4144435F 		.ascii	"ADC_therm_GetResult8\000"
 4197      74686572 
 4197      6D5F4765 
ARM GAS  C:\Users\chemi\AppData\Local\Temp\ccksh7Yh.s 			page 114


 4197      74526573 
 4197      756C7438 
 4198              	.LASF72:
 4199 02c8 75566F6C 		.ascii	"uVolts\000"
 4199      747300
 4200              	.LASF6:
 4201 02cf 6C6F6E67 		.ascii	"long unsigned int\000"
 4201      20756E73 
 4201      69676E65 
 4201      6420696E 
 4201      7400
 4202              	.LASF88:
 4203 02e1 4379456E 		.ascii	"CyEnterCriticalSection\000"
 4203      74657243 
 4203      72697469 
 4203      63616C53 
 4203      65637469 
 4204              	.LASF54:
 4205 02f8 4144435F 		.ascii	"ADC_therm_StartConvert\000"
 4205      74686572 
 4205      6D5F5374 
 4205      61727443 
 4205      6F6E7665 
 4206              	.LASF4:
 4207 030f 73686F72 		.ascii	"short unsigned int\000"
 4207      7420756E 
 4207      7369676E 
 4207      65642069 
 4207      6E7400
 4208              	.LASF66:
 4209 0322 4144435F 		.ascii	"ADC_therm_CountsTo_mVolts\000"
 4209      74686572 
 4209      6D5F436F 
 4209      756E7473 
 4209      546F5F6D 
 4210              	.LASF13:
 4211 033c 696E7438 		.ascii	"int8\000"
 4211      00
 4212              	.LASF37:
 4213 0341 67636F72 		.ascii	"gcorValue\000"
 4213      56616C75 
 4213      6500
 4214              	.LASF39:
 4215 034b 4144435F 		.ascii	"ADC_therm_Init\000"
 4215      74686572 
 4215      6D5F496E 
 4215      697400
 4216              	.LASF45:
 4217 035a 4144435F 		.ascii	"ADC_therm_SetCoherency\000"
 4217      74686572 
 4217      6D5F5365 
 4217      74436F68 
 4217      6572656E 
 4218              	.LASF68:
 4219 0371 6D566F6C 		.ascii	"mVolts\000"
 4219      747300
 4220              	.LASF77:
ARM GAS  C:\Users\chemi\AppData\Local\Temp\ccksh7Yh.s 			page 115


 4221 0378 4144435F 		.ascii	"ADC_therm_Read8\000"
 4221      74686572 
 4221      6D5F5265 
 4221      61643800 
 4222              	.LASF35:
 4223 0388 666C6173 		.ascii	"flash\000"
 4223      6800
 4224              	.LASF79:
 4225 038e 4144435F 		.ascii	"ADC_therm_Read32\000"
 4225      74686572 
 4225      6D5F5265 
 4225      61643332 
 4225      00
 4226              	.LASF41:
 4227 039f 4144435F 		.ascii	"ADC_therm_Start\000"
 4227      74686572 
 4227      6D5F5374 
 4227      61727400 
 4228              	.LASF16:
 4229 03af 666C6F61 		.ascii	"float32\000"
 4229      74333200 
 4230              	.LASF82:
 4231 03b7 4144435F 		.ascii	"ADC_therm_convDone\000"
 4231      74686572 
 4231      6D5F636F 
 4231      6E76446F 
 4231      6E6500
 4232              	.LASF21:
 4233 03ca 73697A65 		.ascii	"sizetype\000"
 4233      74797065 
 4233      00
 4234              	.LASF47:
 4235 03d3 636F6865 		.ascii	"coherency\000"
 4235      72656E63 
 4235      7900
 4236              	.LASF46:
 4237 03dd 6761696E 		.ascii	"gain\000"
 4237      00
 4238              	.LASF60:
 4239 03e2 4144435F 		.ascii	"ADC_therm_GetResult16\000"
 4239      74686572 
 4239      6D5F4765 
 4239      74526573 
 4239      756C7431 
 4240              	.LASF0:
 4241 03f8 666C6F61 		.ascii	"float\000"
 4241      7400
 4242              	.LASF93:
 4243 03fe 4144435F 		.ascii	"ADC_therm_theACLK_SetDividerRegister\000"
 4243      74686572 
 4243      6D5F7468 
 4243      6541434C 
 4243      4B5F5365 
 4244              	.LASF56:
 4245 0423 4144435F 		.ascii	"ADC_therm_IsEndConversion\000"
 4245      74686572 
 4245      6D5F4973 
ARM GAS  C:\Users\chemi\AppData\Local\Temp\ccksh7Yh.s 			page 116


 4245      456E6443 
 4245      6F6E7665 
 4246              	.LASF19:
 4247 043d 72656738 		.ascii	"reg8\000"
 4247      00
 4248              	.LASF31:
 4249 0442 69646561 		.ascii	"idealDecGain\000"
 4249      6C446563 
 4249      4761696E 
 4249      00
 4250              	.LASF36:
 4251 044f 6E6F726D 		.ascii	"normalised\000"
 4251      616C6973 
 4251      656400
 4252              	.LASF2:
 4253 045a 756E7369 		.ascii	"unsigned char\000"
 4253      676E6564 
 4253      20636861 
 4253      7200
 4254              	.LASF95:
 4255 0468 4144435F 		.ascii	"ADC_therm_theACLK_SetModeRegister\000"
 4255      74686572 
 4255      6D5F7468 
 4255      6541434C 
 4255      4B5F5365 
 4256              	.LASF3:
 4257 048a 73686F72 		.ascii	"short int\000"
 4257      7420696E 
 4257      7400
 4258              	.LASF38:
 4259 0494 67636F72 		.ascii	"gcorTmp\000"
 4259      546D7000 
 4260              	.LASF62:
 4261 049c 4144435F 		.ascii	"ADC_therm_SetOffset\000"
 4261      74686572 
 4261      6D5F5365 
 4261      744F6666 
 4261      73657400 
 4262              	.LASF97:
 4263 04b0 47656E65 		.ascii	"Generated_Source\\PSoC5\\ADC_therm.c\000"
 4263      72617465 
 4263      645F536F 
 4263      75726365 
 4263      5C50536F 
 4264              	.LASF29:
 4265 04d3 4144435F 		.ascii	"ADC_therm_GainCompensation\000"
 4265      74686572 
 4265      6D5F4761 
 4265      696E436F 
 4265      6D70656E 
 4266              	.LASF33:
 4267 04ee 7265736F 		.ascii	"resolution\000"
 4267      6C757469 
 4267      6F6E00
 4268              	.LASF73:
 4269 04f9 636F6566 		.ascii	"coefA\000"
 4269      4100
ARM GAS  C:\Users\chemi\AppData\Local\Temp\ccksh7Yh.s 			page 117


 4270              	.LASF74:
 4271 04ff 636F6566 		.ascii	"coefB\000"
 4271      4200
 4272              	.LASF18:
 4273 0505 63686172 		.ascii	"char\000"
 4273      00
 4274              	.LASF53:
 4275 050a 6756616C 		.ascii	"gValue\000"
 4275      756500
 4276              	.LASF27:
 4277 0511 636F6E66 		.ascii	"config\000"
 4277      696700
 4278              	.LASF23:
 4279 0518 6776616C 		.ascii	"gval\000"
 4279      00
 4280              	.LASF76:
 4281 051d 72657374 		.ascii	"restart\000"
 4281      61727400 
 4282              	.LASF50:
 4283 0525 746D7056 		.ascii	"tmpValue\000"
 4283      616C7565 
 4283      00
 4284              	.LASF63:
 4285 052e 6F666673 		.ascii	"offset\000"
 4285      657400
 4286              	.LASF67:
 4287 0535 61646343 		.ascii	"adcCounts\000"
 4287      6F756E74 
 4287      7300
 4288              	.LASF91:
 4289 053f 4144435F 		.ascii	"ADC_therm_AMux_Select\000"
 4289      74686572 
 4289      6D5F414D 
 4289      75785F53 
 4289      656C6563 
 4290              	.LASF61:
 4291 0555 4144435F 		.ascii	"ADC_therm_GetResult32\000"
 4291      74686572 
 4291      6D5F4765 
 4291      74526573 
 4291      756C7433 
 4292              	.LASF34:
 4293 056b 656E6162 		.ascii	"enableInterrupts\000"
 4293      6C65496E 
 4293      74657272 
 4293      75707473 
 4293      00
 4294              	.LASF49:
 4295 057c 73746174 		.ascii	"status\000"
 4295      757300
 4296              	.LASF86:
 4297 0583 4144435F 		.ascii	"ADC_therm_Offset\000"
 4297      74686572 
 4297      6D5F4F66 
 4297      66736574 
 4297      00
 4298              	.LASF48:
ARM GAS  C:\Users\chemi\AppData\Local\Temp\ccksh7Yh.s 			page 118


 4299 0594 6761696E 		.ascii	"gainAdjust\000"
 4299      41646A75 
 4299      737400
 4300              	.LASF80:
 4301 059f 4144435F 		.ascii	"ADC_therm_gcor\000"
 4301      74686572 
 4301      6D5F6763 
 4301      6F7200
 4302              	.LASF14:
 4303 05ae 696E7431 		.ascii	"int16\000"
 4303      3600
 4304              	.LASF69:
 4305 05b4 4144435F 		.ascii	"ADC_therm_CountsTo_Volts\000"
 4305      74686572 
 4305      6D5F436F 
 4305      756E7473 
 4305      546F5F56 
 4306              	.LASF94:
 4307 05cd 4144435F 		.ascii	"ADC_therm_Ext_CP_Clk_SetModeRegister\000"
 4307      74686572 
 4307      6D5F4578 
 4307      745F4350 
 4307      5F436C6B 
 4308              	.LASF92:
 4309 05f2 4144435F 		.ascii	"ADC_therm_Ext_CP_Clk_SetDividerRegister\000"
 4309      74686572 
 4309      6D5F4578 
 4309      745F4350 
 4309      5F436C6B 
 4310              	.LASF44:
 4311 061a 746D7052 		.ascii	"tmpReg\000"
 4311      656700
 4312              	.LASF87:
 4313 0621 4144435F 		.ascii	"ADC_therm_CountsPerVolt\000"
 4313      74686572 
 4313      6D5F436F 
 4313      756E7473 
 4313      50657256 
 4314              	.LASF24:
 4315 0639 4144435F 		.ascii	"ADC_therm_GCOR_STRUCT\000"
 4315      74686572 
 4315      6D5F4743 
 4315      4F525F53 
 4315      54525543 
 4316              	.LASF52:
 4317 064f 4144435F 		.ascii	"ADC_therm_ReadGCOR\000"
 4317      74686572 
 4317      6D5F5265 
 4317      61644743 
 4317      4F5200
 4318              	.LASF81:
 4319 0662 4144435F 		.ascii	"ADC_therm_initVar\000"
 4319      74686572 
 4319      6D5F696E 
 4319      69745661 
 4319      7200
 4320              		.ident	"GCC: (GNU Tools for ARM Embedded Processors) 5.4.1 20160609 (release) [ARM/embedded-5-bran
ARM GAS  C:\Users\chemi\AppData\Local\Temp\ccksh7Yh.s 			page 119


