ARM GAS  C:\Users\chemi\AppData\Local\Temp\cc2E1rTW.s 			page 1


   1              		.syntax unified
   2              		.cpu cortex-m3
   3              		.fpu softvfp
   4              		.eabi_attribute 20, 1
   5              		.eabi_attribute 21, 1
   6              		.eabi_attribute 23, 3
   7              		.eabi_attribute 24, 1
   8              		.eabi_attribute 25, 1
   9              		.eabi_attribute 26, 1
  10              		.eabi_attribute 30, 4
  11              		.eabi_attribute 34, 1
  12              		.eabi_attribute 18, 4
  13              		.thumb
  14              		.syntax unified
  15              		.file	"buffer.c"
  16              		.text
  17              	.Ltext0:
  18              		.cfi_sections	.debug_frame
  19              		.section	.text.buffer_get_int16,"ax",%progbits
  20              		.align	1
  21              		.global	buffer_get_int16
  22              		.thumb
  23              		.thumb_func
  24              		.type	buffer_get_int16, %function
  25              	buffer_get_int16:
  26              	.LFB0:
  27              		.file 1 "..\\common\\ud3core\\helper\\buffer.c"
   1:..\common\ud3core\helper/buffer.c **** /*
   2:..\common\ud3core\helper/buffer.c ****  * UD3
   3:..\common\ud3core\helper/buffer.c ****  *
   4:..\common\ud3core\helper/buffer.c ****  * Copyright (c) 2022 Jens Kerrinnes
   5:..\common\ud3core\helper/buffer.c ****  *
   6:..\common\ud3core\helper/buffer.c ****  * Permission is hereby granted, free of charge, to any person obtaining a copy of
   7:..\common\ud3core\helper/buffer.c ****  * this software and associated documentation files (the "Software"), to deal in
   8:..\common\ud3core\helper/buffer.c ****  * the Software without restriction, including without limitation the rights to
   9:..\common\ud3core\helper/buffer.c ****  * use, copy, modify, merge, publish, distribute, sublicense, and/or sell copies of
  10:..\common\ud3core\helper/buffer.c ****  * the Software, and to permit persons to whom the Software is furnished to do so,
  11:..\common\ud3core\helper/buffer.c ****  * subject to the following conditions:
  12:..\common\ud3core\helper/buffer.c ****  *
  13:..\common\ud3core\helper/buffer.c ****  * The above copyright notice and this permission notice shall be included in all
  14:..\common\ud3core\helper/buffer.c ****  * copies or substantial portions of the Software.
  15:..\common\ud3core\helper/buffer.c ****  *
  16:..\common\ud3core\helper/buffer.c ****  * THE SOFTWARE IS PROVIDED "AS IS", WITHOUT WARRANTY OF ANY KIND, EXPRESS OR
  17:..\common\ud3core\helper/buffer.c ****  * IMPLIED, INCLUDING BUT NOT LIMITED TO THE WARRANTIES OF MERCHANTABILITY, FITNESS
  18:..\common\ud3core\helper/buffer.c ****  * FOR A PARTICULAR PURPOSE AND NONINFRINGEMENT. IN NO EVENT SHALL THE AUTHORS OR
  19:..\common\ud3core\helper/buffer.c ****  * COPYRIGHT HOLDERS BE LIABLE FOR ANY CLAIM, DAMAGES OR OTHER LIABILITY, WHETHER
  20:..\common\ud3core\helper/buffer.c ****  * IN AN ACTION OF CONTRACT, TORT OR OTHERWISE, ARISING FROM, OUT OF OR IN
  21:..\common\ud3core\helper/buffer.c ****  * CONNECTION WITH THE SOFTWARE OR THE USE OR OTHER DEALINGS IN THE SOFTWARE.
  22:..\common\ud3core\helper/buffer.c **** */
  23:..\common\ud3core\helper/buffer.c **** 
  24:..\common\ud3core\helper/buffer.c **** #include "buffer.h"
  25:..\common\ud3core\helper/buffer.c **** 
  26:..\common\ud3core\helper/buffer.c **** int16_t buffer_get_int16(const uint8_t *buf, int32_t *ind) {
  28              		.loc 1 26 0
  29              		.cfi_startproc
  30              		@ args = 0, pretend = 0, frame = 0
  31              		@ frame_needed = 0, uses_anonymous_args = 0
ARM GAS  C:\Users\chemi\AppData\Local\Temp\cc2E1rTW.s 			page 2


  32              	.LVL0:
  33 0000 10B5     		push	{r4, lr}
  34              		.cfi_def_cfa_offset 8
  35              		.cfi_offset 4, -8
  36              		.cfi_offset 14, -4
  27:..\common\ud3core\helper/buffer.c **** 	int16_t res =	((uint16_t) buf[*ind]) << 8 |
  37              		.loc 1 27 0
  38 0002 0B68     		ldr	r3, [r1]
  39 0004 C45C     		ldrb	r4, [r0, r3]	@ zero_extendqisi2
  28:..\common\ud3core\helper/buffer.c **** 					((uint16_t) buf[*ind + 1]);
  40              		.loc 1 28 0
  41 0006 1844     		add	r0, r0, r3
  42              	.LVL1:
  27:..\common\ud3core\helper/buffer.c **** 	int16_t res =	((uint16_t) buf[*ind]) << 8 |
  43              		.loc 1 27 0
  44 0008 4278     		ldrb	r2, [r0, #1]	@ zero_extendqisi2
  29:..\common\ud3core\helper/buffer.c **** 	*ind += 2;
  45              		.loc 1 29 0
  46 000a 0233     		adds	r3, r3, #2
  27:..\common\ud3core\helper/buffer.c **** 	int16_t res =	((uint16_t) buf[*ind]) << 8 |
  47              		.loc 1 27 0
  48 000c 42EA0420 		orr	r0, r2, r4, lsl #8
  49              	.LVL2:
  50              		.loc 1 29 0
  51 0010 0B60     		str	r3, [r1]
  30:..\common\ud3core\helper/buffer.c **** 	return res;
  31:..\common\ud3core\helper/buffer.c **** }
  52              		.loc 1 31 0
  53 0012 00B2     		sxth	r0, r0
  54 0014 10BD     		pop	{r4, pc}
  55              		.cfi_endproc
  56              	.LFE0:
  57              		.size	buffer_get_int16, .-buffer_get_int16
  58              		.section	.text.buffer_get_uint16,"ax",%progbits
  59              		.align	1
  60              		.global	buffer_get_uint16
  61              		.thumb
  62              		.thumb_func
  63              		.type	buffer_get_uint16, %function
  64              	buffer_get_uint16:
  65              	.LFB1:
  32:..\common\ud3core\helper/buffer.c **** 
  33:..\common\ud3core\helper/buffer.c **** uint16_t buffer_get_uint16(const uint8_t *buf, int32_t *ind) {
  66              		.loc 1 33 0
  67              		.cfi_startproc
  68              		@ args = 0, pretend = 0, frame = 0
  69              		@ frame_needed = 0, uses_anonymous_args = 0
  70              	.LVL3:
  71 0000 10B5     		push	{r4, lr}
  72              		.cfi_def_cfa_offset 8
  73              		.cfi_offset 4, -8
  74              		.cfi_offset 14, -4
  34:..\common\ud3core\helper/buffer.c **** 	uint16_t res = 	((uint16_t) buf[*ind]) << 8 |
  75              		.loc 1 34 0
  76 0002 0B68     		ldr	r3, [r1]
  77 0004 C45C     		ldrb	r4, [r0, r3]	@ zero_extendqisi2
  35:..\common\ud3core\helper/buffer.c **** 					((uint16_t) buf[*ind + 1]);
ARM GAS  C:\Users\chemi\AppData\Local\Temp\cc2E1rTW.s 			page 3


  78              		.loc 1 35 0
  79 0006 1844     		add	r0, r0, r3
  80              	.LVL4:
  34:..\common\ud3core\helper/buffer.c **** 	uint16_t res = 	((uint16_t) buf[*ind]) << 8 |
  81              		.loc 1 34 0
  82 0008 4078     		ldrb	r0, [r0, #1]	@ zero_extendqisi2
  83              	.LVL5:
  36:..\common\ud3core\helper/buffer.c **** 	*ind += 2;
  84              		.loc 1 36 0
  85 000a 0233     		adds	r3, r3, #2
  86 000c 0B60     		str	r3, [r1]
  37:..\common\ud3core\helper/buffer.c **** 	return res;
  38:..\common\ud3core\helper/buffer.c **** }
  87              		.loc 1 38 0
  88 000e 40EA0420 		orr	r0, r0, r4, lsl #8
  89              	.LVL6:
  90 0012 10BD     		pop	{r4, pc}
  91              		.cfi_endproc
  92              	.LFE1:
  93              		.size	buffer_get_uint16, .-buffer_get_uint16
  94              		.section	.text.buffer_get_int32,"ax",%progbits
  95              		.align	1
  96              		.global	buffer_get_int32
  97              		.thumb
  98              		.thumb_func
  99              		.type	buffer_get_int32, %function
 100              	buffer_get_int32:
 101              	.LFB2:
  39:..\common\ud3core\helper/buffer.c **** 
  40:..\common\ud3core\helper/buffer.c **** int32_t buffer_get_int32(const uint8_t *buf, int32_t *ind) {
 102              		.loc 1 40 0
 103              		.cfi_startproc
 104              		@ args = 0, pretend = 0, frame = 0
 105              		@ frame_needed = 0, uses_anonymous_args = 0
 106              	.LVL7:
 107 0000 30B5     		push	{r4, r5, lr}
 108              		.cfi_def_cfa_offset 12
 109              		.cfi_offset 4, -12
 110              		.cfi_offset 5, -8
 111              		.cfi_offset 14, -4
  41:..\common\ud3core\helper/buffer.c **** 	int32_t res =	((uint32_t) buf[*ind]) << 24 |
 112              		.loc 1 41 0
 113 0002 0C68     		ldr	r4, [r1]
  42:..\common\ud3core\helper/buffer.c **** 					((uint32_t) buf[*ind + 1]) << 16 |
  43:..\common\ud3core\helper/buffer.c **** 					((uint32_t) buf[*ind + 2]) << 8 |
  44:..\common\ud3core\helper/buffer.c **** 					((uint32_t) buf[*ind + 3]);
 114              		.loc 1 44 0
 115 0004 0319     		adds	r3, r0, r4
  41:..\common\ud3core\helper/buffer.c **** 	int32_t res =	((uint32_t) buf[*ind]) << 24 |
 116              		.loc 1 41 0
 117 0006 055D     		ldrb	r5, [r0, r4]	@ zero_extendqisi2
 118 0008 DA78     		ldrb	r2, [r3, #3]	@ zero_extendqisi2
 119 000a 5878     		ldrb	r0, [r3, #1]	@ zero_extendqisi2
 120              	.LVL8:
 121 000c 42EA0562 		orr	r2, r2, r5, lsl #24
 122 0010 42EA0042 		orr	r2, r2, r0, lsl #16
 123 0014 9878     		ldrb	r0, [r3, #2]	@ zero_extendqisi2
ARM GAS  C:\Users\chemi\AppData\Local\Temp\cc2E1rTW.s 			page 4


 124              	.LVL9:
  45:..\common\ud3core\helper/buffer.c **** 	*ind += 4;
 125              		.loc 1 45 0
 126 0016 0434     		adds	r4, r4, #4
 127 0018 0C60     		str	r4, [r1]
  46:..\common\ud3core\helper/buffer.c **** 	return res;
  47:..\common\ud3core\helper/buffer.c **** }
 128              		.loc 1 47 0
 129 001a 42EA0020 		orr	r0, r2, r0, lsl #8
 130              	.LVL10:
 131 001e 30BD     		pop	{r4, r5, pc}
 132              		.cfi_endproc
 133              	.LFE2:
 134              		.size	buffer_get_int32, .-buffer_get_int32
 135              		.section	.text.buffer_get_uint32,"ax",%progbits
 136              		.align	1
 137              		.global	buffer_get_uint32
 138              		.thumb
 139              		.thumb_func
 140              		.type	buffer_get_uint32, %function
 141              	buffer_get_uint32:
 142              	.LFB3:
  48:..\common\ud3core\helper/buffer.c **** 
  49:..\common\ud3core\helper/buffer.c **** uint32_t buffer_get_uint32(const uint8_t *buf, int32_t *ind) {
 143              		.loc 1 49 0
 144              		.cfi_startproc
 145              		@ args = 0, pretend = 0, frame = 0
 146              		@ frame_needed = 0, uses_anonymous_args = 0
 147              	.LVL11:
 148 0000 30B5     		push	{r4, r5, lr}
 149              		.cfi_def_cfa_offset 12
 150              		.cfi_offset 4, -12
 151              		.cfi_offset 5, -8
 152              		.cfi_offset 14, -4
  50:..\common\ud3core\helper/buffer.c **** 	uint32_t res =	((uint32_t) buf[*ind]) << 24 |
 153              		.loc 1 50 0
 154 0002 0C68     		ldr	r4, [r1]
  51:..\common\ud3core\helper/buffer.c **** 					((uint32_t) buf[*ind + 1]) << 16 |
  52:..\common\ud3core\helper/buffer.c **** 					((uint32_t) buf[*ind + 2]) << 8 |
  53:..\common\ud3core\helper/buffer.c **** 					((uint32_t) buf[*ind + 3]);
 155              		.loc 1 53 0
 156 0004 0319     		adds	r3, r0, r4
  50:..\common\ud3core\helper/buffer.c **** 	uint32_t res =	((uint32_t) buf[*ind]) << 24 |
 157              		.loc 1 50 0
 158 0006 055D     		ldrb	r5, [r0, r4]	@ zero_extendqisi2
 159 0008 DA78     		ldrb	r2, [r3, #3]	@ zero_extendqisi2
 160 000a 5878     		ldrb	r0, [r3, #1]	@ zero_extendqisi2
 161              	.LVL12:
 162 000c 42EA0562 		orr	r2, r2, r5, lsl #24
 163 0010 42EA0042 		orr	r2, r2, r0, lsl #16
 164 0014 9878     		ldrb	r0, [r3, #2]	@ zero_extendqisi2
 165              	.LVL13:
  54:..\common\ud3core\helper/buffer.c **** 	*ind += 4;
 166              		.loc 1 54 0
 167 0016 0434     		adds	r4, r4, #4
 168 0018 0C60     		str	r4, [r1]
  55:..\common\ud3core\helper/buffer.c **** 	return res;
ARM GAS  C:\Users\chemi\AppData\Local\Temp\cc2E1rTW.s 			page 5


  56:..\common\ud3core\helper/buffer.c **** }
 169              		.loc 1 56 0
 170 001a 42EA0020 		orr	r0, r2, r0, lsl #8
 171              	.LVL14:
 172 001e 30BD     		pop	{r4, r5, pc}
 173              		.cfi_endproc
 174              	.LFE3:
 175              		.size	buffer_get_uint32, .-buffer_get_uint32
 176              		.text
 177              	.Letext0:
 178              		.file 2 "c:\\program files (x86)\\cypress\\psoc creator\\4.4\\psoc creator\\import\\gnu\\arm\\5.4.
 179              		.file 3 "c:\\program files (x86)\\cypress\\psoc creator\\4.4\\psoc creator\\import\\gnu\\arm\\5.4.