ARM GAS  C:\Users\chemi\AppData\Local\Temp\ccFrP3K3.s 			page 1


   1              		.syntax unified
   2              		.cpu cortex-m3
   3              		.fpu softvfp
   4              		.eabi_attribute 20, 1
   5              		.eabi_attribute 21, 1
   6              		.eabi_attribute 23, 3
   7              		.eabi_attribute 24, 1
   8              		.eabi_attribute 25, 1
   9              		.eabi_attribute 26, 1
  10              		.eabi_attribute 30, 4
  11              		.eabi_attribute 34, 1
  12              		.eabi_attribute 18, 4
  13              		.thumb
  14              		.syntax unified
  15              		.file	"cli_common.c"
  16              		.text
  17              	.Ltext0:
  18              		.cfi_sections	.debug_frame
  19              		.section	.text.callback_TuneFunction,"ax",%progbits
  20              		.align	1
  21              		.global	callback_TuneFunction
  22              		.thumb
  23              		.thumb_func
  24              		.type	callback_TuneFunction, %function
  25              	callback_TuneFunction:
  26              	.LFB77:
  27              		.file 1 "..\\common\\ud3core\\cli_common.c"
   1:..\common\ud3core/cli_common.c **** /*
   2:..\common\ud3core/cli_common.c ****  * UD3
   3:..\common\ud3core/cli_common.c ****  *
   4:..\common\ud3core/cli_common.c ****  * Copyright (c) 2018 Jens Kerrinnes
   5:..\common\ud3core/cli_common.c ****  * Copyright (c) 2015 Steve Ward
   6:..\common\ud3core/cli_common.c ****  *
   7:..\common\ud3core/cli_common.c ****  * Permission is hereby granted, free of charge, to any person obtaining a copy of
   8:..\common\ud3core/cli_common.c ****  * this software and associated documentation files (the "Software"), to deal in
   9:..\common\ud3core/cli_common.c ****  * the Software without restriction, including without limitation the rights to
  10:..\common\ud3core/cli_common.c ****  * use, copy, modify, merge, publish, distribute, sublicense, and/or sell copies of
  11:..\common\ud3core/cli_common.c ****  * the Software, and to permit persons to whom the Software is furnished to do so,
  12:..\common\ud3core/cli_common.c ****  * subject to the following conditions:
  13:..\common\ud3core/cli_common.c ****  *
  14:..\common\ud3core/cli_common.c ****  * The above copyright notice and this permission notice shall be included in all
  15:..\common\ud3core/cli_common.c ****  * copies or substantial portions of the Software.
  16:..\common\ud3core/cli_common.c ****  *
  17:..\common\ud3core/cli_common.c ****  * THE SOFTWARE IS PROVIDED "AS IS", WITHOUT WARRANTY OF ANY KIND, EXPRESS OR
  18:..\common\ud3core/cli_common.c ****  * IMPLIED, INCLUDING BUT NOT LIMITED TO THE WARRANTIES OF MERCHANTABILITY, FITNESS
  19:..\common\ud3core/cli_common.c ****  * FOR A PARTICULAR PURPOSE AND NONINFRINGEMENT. IN NO EVENT SHALL THE AUTHORS OR
  20:..\common\ud3core/cli_common.c ****  * COPYRIGHT HOLDERS BE LIABLE FOR ANY CLAIM, DAMAGES OR OTHER LIABILITY, WHETHER
  21:..\common\ud3core/cli_common.c ****  * IN AN ACTION OF CONTRACT, TORT OR OTHERWISE, ARISING FROM, OUT OF OR IN
  22:..\common\ud3core/cli_common.c ****  * CONNECTION WITH THE SOFTWARE OR THE USE OR OTHER DEALINGS IN THE SOFTWARE.
  23:..\common\ud3core/cli_common.c **** */
  24:..\common\ud3core/cli_common.c **** 
  25:..\common\ud3core/cli_common.c **** #include "cli_common.h"
  26:..\common\ud3core/cli_common.c **** #include "ZCDtoPWM.h"
  27:..\common\ud3core/cli_common.c **** #include "autotune.h"
  28:..\common\ud3core/cli_common.c **** #include "interrupter.h"
  29:..\common\ud3core/cli_common.c **** #include "clock.h"
  30:..\common\ud3core/cli_common.c **** #include "hardware.h"
ARM GAS  C:\Users\chemi\AppData\Local\Temp\ccFrP3K3.s 			page 2


  31:..\common\ud3core/cli_common.c **** #include "telemetry.h"
  32:..\common\ud3core/cli_common.c **** #include <project.h>
  33:..\common\ud3core/cli_common.c **** #include <stdint.h>
  34:..\common\ud3core/cli_common.c **** #include <stdlib.h>
  35:..\common\ud3core/cli_common.c **** #include "helper/printf.h"
  36:..\common\ud3core/cli_common.c **** #include "helper/debug.h"
  37:..\common\ud3core/cli_common.c **** 
  38:..\common\ud3core/cli_common.c **** #include "cyapicallbacks.h"
  39:..\common\ud3core/cli_common.c **** #include <cytypes.h>
  40:..\common\ud3core/cli_common.c **** 
  41:..\common\ud3core/cli_common.c **** #include "tasks/tsk_analog.h"
  42:..\common\ud3core/cli_common.c **** #include "tasks/tsk_overlay.h"
  43:..\common\ud3core/cli_common.c **** #include "tasks/tsk_priority.h"
  44:..\common\ud3core/cli_common.c **** #include "tasks/tsk_midi.h"
  45:..\common\ud3core/cli_common.c **** #include "tasks/tsk_cli.h"
  46:..\common\ud3core/cli_common.c **** #include "tasks/tsk_min.h"
  47:..\common\ud3core/cli_common.c **** #include "tasks/tsk_fault.h"
  48:..\common\ud3core/cli_common.c **** #include "tasks/tsk_hwGauge.h"
  49:..\common\ud3core/cli_common.c **** #include "min_id.h"
  50:..\common\ud3core/cli_common.c **** #include "helper/teslaterm.h"
  51:..\common\ud3core/cli_common.c **** #include "math.h"
  52:..\common\ud3core/cli_common.c **** #include "alarmevent.h"
  53:..\common\ud3core/cli_common.c **** #include "version.h"
  54:..\common\ud3core/cli_common.c **** #include "qcw.h"
  55:..\common\ud3core/cli_common.c **** #include "system.h"
  56:..\common\ud3core/cli_common.c **** #include "SidFilter.h"
  57:..\common\ud3core/cli_common.c **** 
  58:..\common\ud3core/cli_common.c **** #include "helper/digipot.h"
  59:..\common\ud3core/cli_common.c **** 
  60:..\common\ud3core/cli_common.c **** 
  61:..\common\ud3core/cli_common.c **** #define UNUSED_VARIABLE(N) \
  62:..\common\ud3core/cli_common.c **** 	do {                   \
  63:..\common\ud3core/cli_common.c **** 		(void)(N);         \
  64:..\common\ud3core/cli_common.c **** 	} while (0)
  65:..\common\ud3core/cli_common.c ****         
  66:..\common\ud3core/cli_common.c **** 	
  67:..\common\ud3core/cli_common.c **** uint8_t callback_ConfigFunction(parameter_entry * params, uint8_t index, TERMINAL_HANDLE * handle);
  68:..\common\ud3core/cli_common.c **** uint8_t callback_DefaultFunction(parameter_entry * params, uint8_t index, TERMINAL_HANDLE * handle)
  69:..\common\ud3core/cli_common.c **** uint8_t callback_TuneFunction(parameter_entry * params, uint8_t index, TERMINAL_HANDLE * handle);
  70:..\common\ud3core/cli_common.c **** uint8_t callback_TTupdateFunction(parameter_entry * params, uint8_t index, TERMINAL_HANDLE * handle
  71:..\common\ud3core/cli_common.c **** uint8_t callback_OfftimeFunction(parameter_entry * params, uint8_t index, TERMINAL_HANDLE * handle)
  72:..\common\ud3core/cli_common.c **** uint8_t callback_i2tFunction(parameter_entry * params, uint8_t index, TERMINAL_HANDLE * handle);
  73:..\common\ud3core/cli_common.c **** uint8_t callback_baudrateFunction(parameter_entry * params, uint8_t index, TERMINAL_HANDLE * handle
  74:..\common\ud3core/cli_common.c **** uint8_t callback_SPIspeedFunction(parameter_entry * params, uint8_t index, TERMINAL_HANDLE * handle
  75:..\common\ud3core/cli_common.c **** uint8_t callback_VisibleFunction(parameter_entry * params, uint8_t index, TERMINAL_HANDLE * handle)
  76:..\common\ud3core/cli_common.c **** uint8_t callback_MchFunction(parameter_entry * params, uint8_t index, TERMINAL_HANDLE * handle);
  77:..\common\ud3core/cli_common.c **** uint8_t callback_MchCopyFunction(parameter_entry * params, uint8_t index, TERMINAL_HANDLE * handle)
  78:..\common\ud3core/cli_common.c **** uint8_t callback_ivoUART(parameter_entry * params, uint8_t index, TERMINAL_HANDLE * handle);
  79:..\common\ud3core/cli_common.c **** uint8_t callback_ivoLED(parameter_entry * params, uint8_t index, TERMINAL_HANDLE * handle);
  80:..\common\ud3core/cli_common.c **** 
  81:..\common\ud3core/cli_common.c **** void update_ivo();
  82:..\common\ud3core/cli_common.c **** 
  83:..\common\ud3core/cli_common.c **** cli_config configuration;
  84:..\common\ud3core/cli_common.c **** cli_parameter param;
  85:..\common\ud3core/cli_common.c **** 
  86:..\common\ud3core/cli_common.c **** enum uart_ivo{
  87:..\common\ud3core/cli_common.c ****     UART_IVO_NONE=0,
ARM GAS  C:\Users\chemi\AppData\Local\Temp\ccFrP3K3.s 			page 3


  88:..\common\ud3core/cli_common.c ****     UART_IVO_TX=1,
  89:..\common\ud3core/cli_common.c ****     UART_IVO_RX=10,
  90:..\common\ud3core/cli_common.c ****     UART_IVO_RX_TX=11
  91:..\common\ud3core/cli_common.c **** };
  92:..\common\ud3core/cli_common.c **** 
  93:..\common\ud3core/cli_common.c **** 
  94:..\common\ud3core/cli_common.c **** /*****************************************************************************
  95:..\common\ud3core/cli_common.c **** * Initializes parameters with default values
  96:..\common\ud3core/cli_common.c **** ******************************************************************************/
  97:..\common\ud3core/cli_common.c **** void init_config(){
  98:..\common\ud3core/cli_common.c ****     configuration.watchdog = 1;
  99:..\common\ud3core/cli_common.c ****     configuration.watchdog_timeout = 1000;
 100:..\common\ud3core/cli_common.c ****     configuration.max_tr_pw = 1000;
 101:..\common\ud3core/cli_common.c ****     configuration.max_tr_prf = 800;
 102:..\common\ud3core/cli_common.c ****     configuration.max_qcw_pw = 1000;
 103:..\common\ud3core/cli_common.c ****     configuration.max_tr_current = 400;
 104:..\common\ud3core/cli_common.c ****     configuration.min_tr_current = 100;
 105:..\common\ud3core/cli_common.c ****     configuration.max_qcw_current = 300;
 106:..\common\ud3core/cli_common.c ****     configuration.temp1_max = 40;
 107:..\common\ud3core/cli_common.c ****     configuration.temp2_max = 40;
 108:..\common\ud3core/cli_common.c ****     configuration.ct1_ratio = 600;
 109:..\common\ud3core/cli_common.c ****     configuration.ct2_ratio = 1000;
 110:..\common\ud3core/cli_common.c ****     configuration.ct1_burden = 33;
 111:..\common\ud3core/cli_common.c ****     configuration.ct2_burden = 500;
 112:..\common\ud3core/cli_common.c ****     configuration.lead_time = 500;
 113:..\common\ud3core/cli_common.c ****     configuration.start_freq = 630;
 114:..\common\ud3core/cli_common.c ****     configuration.start_cycles = 20;
 115:..\common\ud3core/cli_common.c ****     configuration.max_tr_duty = 100;
 116:..\common\ud3core/cli_common.c ****     configuration.max_qcw_duty = 350;
 117:..\common\ud3core/cli_common.c ****     configuration.temp1_setpoint = 30;
 118:..\common\ud3core/cli_common.c ****     configuration.pid_temp_set = 45;
 119:..\common\ud3core/cli_common.c ****     configuration.pid_temp_mode = 0;
 120:..\common\ud3core/cli_common.c ****     configuration.pid_temp_p = 0.2;
 121:..\common\ud3core/cli_common.c ****     configuration.pid_temp_i = 0.2;
 122:..\common\ud3core/cli_common.c ****     configuration.temp2_setpoint = 30;
 123:..\common\ud3core/cli_common.c ****     configuration.temp2_mode = 0;
 124:..\common\ud3core/cli_common.c ****     configuration.ps_scheme = 2;
 125:..\common\ud3core/cli_common.c ****     configuration.autotune_s = 1;
 126:..\common\ud3core/cli_common.c ****     configuration.baudrate = 115200;
 127:..\common\ud3core/cli_common.c ****     configuration.r_top = 500000;
 128:..\common\ud3core/cli_common.c ****     strncpy(configuration.ud_name,"UD3-Tesla", sizeof(configuration.ud_name));
 129:..\common\ud3core/cli_common.c ****     configuration.ct2_type = CT2_TYPE_CURRENT;
 130:..\common\ud3core/cli_common.c ****     configuration.ct2_voltage = 4000;
 131:..\common\ud3core/cli_common.c ****     configuration.ct2_offset = 0;
 132:..\common\ud3core/cli_common.c ****     configuration.ct2_current = 0;
 133:..\common\ud3core/cli_common.c ****     configuration.chargedelay = 1000;
 134:..\common\ud3core/cli_common.c ****     configuration.ivo_uart = UART_IVO_NONE;
 135:..\common\ud3core/cli_common.c ****     configuration.ext_interrupter = 0;
 136:..\common\ud3core/cli_common.c ****     configuration.pca9685 = 0;
 137:..\common\ud3core/cli_common.c ****     configuration.max_fb_errors = 0;
 138:..\common\ud3core/cli_common.c ****     configuration.ivo_led = 0;
 139:..\common\ud3core/cli_common.c ****     configuration.uvlo_analog = 0;
 140:..\common\ud3core/cli_common.c ****     
 141:..\common\ud3core/cli_common.c ****     configuration.SigGen_minOtOffset = 0;
 142:..\common\ud3core/cli_common.c ****     
 143:..\common\ud3core/cli_common.c ****     configuration.min_fb_current = 25;
 144:..\common\ud3core/cli_common.c ****     
ARM GAS  C:\Users\chemi\AppData\Local\Temp\ccFrP3K3.s 			page 4


 145:..\common\ud3core/cli_common.c ****     configuration.compressor_attac = 20;
 146:..\common\ud3core/cli_common.c ****     configuration.compressor_sustain = 44;
 147:..\common\ud3core/cli_common.c ****     configuration.compressor_release = 20;
 148:..\common\ud3core/cli_common.c ****     configuration.compressor_maxDutyOffset = 64;
 149:..\common\ud3core/cli_common.c ****     
 150:..\common\ud3core/cli_common.c ****     configuration.ntc_b = 3977;
 151:..\common\ud3core/cli_common.c ****     configuration.ntc_r25 = 10000;
 152:..\common\ud3core/cli_common.c ****     
 153:..\common\ud3core/cli_common.c ****     configuration.idac = 185;
 154:..\common\ud3core/cli_common.c ****     
 155:..\common\ud3core/cli_common.c ****     configuration.vdrive = 15.0f;
 156:..\common\ud3core/cli_common.c ****     
 157:..\common\ud3core/cli_common.c ****     configuration.hw_rev = SYS_detect_hw_rev();
 158:..\common\ud3core/cli_common.c ****     configuration.autostart = pdFALSE;
 159:..\common\ud3core/cli_common.c ****     
 160:..\common\ud3core/cli_common.c ****     configuration.drive_factor = 1.0f;
 161:..\common\ud3core/cli_common.c ****     
 162:..\common\ud3core/cli_common.c ****     interrupter.mod = INTR_MOD_PW;
 163:..\common\ud3core/cli_common.c ****     
 164:..\common\ud3core/cli_common.c ****     param.pw = 0;
 165:..\common\ud3core/cli_common.c ****     param.vol = 0;
 166:..\common\ud3core/cli_common.c ****     param.burst_on = 0;
 167:..\common\ud3core/cli_common.c ****     param.burst_off = 500;
 168:..\common\ud3core/cli_common.c ****     param.tune_start = 400;
 169:..\common\ud3core/cli_common.c ****     param.tune_end = 1000;
 170:..\common\ud3core/cli_common.c ****     param.tune_pw = 50;
 171:..\common\ud3core/cli_common.c ****     param.tune_delay = 50;
 172:..\common\ud3core/cli_common.c ****     param.offtime = 3;
 173:..\common\ud3core/cli_common.c ****     
 174:..\common\ud3core/cli_common.c ****     param.qcw_repeat = 99;
 175:..\common\ud3core/cli_common.c ****     param.synth = SYNTH_OFF;
 176:..\common\ud3core/cli_common.c ****     
 177:..\common\ud3core/cli_common.c ****     param.qcw_holdoff = 0;
 178:..\common\ud3core/cli_common.c ****     param.qcw_max = 255;
 179:..\common\ud3core/cli_common.c ****     param.qcw_offset = 0;
 180:..\common\ud3core/cli_common.c ****     param.qcw_ramp = 200;
 181:..\common\ud3core/cli_common.c ****     param.qcw_freq = 5000;
 182:..\common\ud3core/cli_common.c ****     param.qcw_vol = 0;
 183:..\common\ud3core/cli_common.c ****     
 184:..\common\ud3core/cli_common.c ****     update_ivo();
 185:..\common\ud3core/cli_common.c ****     
 186:..\common\ud3core/cli_common.c ****     ramp.changed = pdTRUE;
 187:..\common\ud3core/cli_common.c ****     qcw_regenerate_ramp();
 188:..\common\ud3core/cli_common.c **** }
 189:..\common\ud3core/cli_common.c **** 
 190:..\common\ud3core/cli_common.c **** // clang-format off
 191:..\common\ud3core/cli_common.c **** 
 192:..\common\ud3core/cli_common.c **** /*****************************************************************************
 193:..\common\ud3core/cli_common.c **** * Parameter struct
 194:..\common\ud3core/cli_common.c **** ******************************************************************************/
 195:..\common\ud3core/cli_common.c **** 
 196:..\common\ud3core/cli_common.c **** parameter_entry confparam[] = {
 197:..\common\ud3core/cli_common.c ****     //       Parameter Type ,Visible,"Text   "         , Value ptr                     ,Min     ,Ma
 198:..\common\ud3core/cli_common.c ****     ADD_PARAM(PARAM_DEFAULT ,pdTRUE ,"pw"              , param.pw                      , 0      ,10
 199:..\common\ud3core/cli_common.c ****     ADD_PARAM(PARAM_DEFAULT ,pdTRUE ,"pwd"             , param.pwd                     , 0      ,60
 200:..\common\ud3core/cli_common.c ****     ADD_PARAM(PARAM_DEFAULT ,pdTRUE ,"vol"             , param.vol                     , 0      ,MA
 201:..\common\ud3core/cli_common.c ****     ADD_PARAM(PARAM_DEFAULT ,pdTRUE ,"bon"             , param.burst_on                , 0      ,10
ARM GAS  C:\Users\chemi\AppData\Local\Temp\ccFrP3K3.s 			page 5


 202:..\common\ud3core/cli_common.c ****     ADD_PARAM(PARAM_DEFAULT ,pdTRUE ,"boff"            , param.burst_off               , 0      ,10
 203:..\common\ud3core/cli_common.c ****     ADD_PARAM(PARAM_CONFIG  ,pdTRUE ,"tune_start"      , param.tune_start              , 5      ,50
 204:..\common\ud3core/cli_common.c ****     ADD_PARAM(PARAM_CONFIG  ,pdTRUE ,"tune_end"        , param.tune_end                , 5      ,50
 205:..\common\ud3core/cli_common.c ****     ADD_PARAM(PARAM_CONFIG  ,pdTRUE ,"tune_pw"         , param.tune_pw                 , 0      ,80
 206:..\common\ud3core/cli_common.c ****     ADD_PARAM(PARAM_CONFIG  ,pdTRUE ,"tune_delay"      , param.tune_delay              , 1      ,20
 207:..\common\ud3core/cli_common.c ****     ADD_PARAM(PARAM_CONFIG  ,pdTRUE ,"offtime"         , param.offtime                 , 3      ,25
 208:..\common\ud3core/cli_common.c ****     ADD_PARAM(PARAM_DEFAULT ,pdTRUE ,"qcw_ramp"        , param.qcw_ramp                , 1      ,10
 209:..\common\ud3core/cli_common.c ****     ADD_PARAM(PARAM_DEFAULT ,pdTRUE ,"qcw_offset"      , param.qcw_offset              , 0      ,25
 210:..\common\ud3core/cli_common.c ****     ADD_PARAM(PARAM_DEFAULT ,pdTRUE ,"qcw_hold"        , param.qcw_holdoff             , 0      ,25
 211:..\common\ud3core/cli_common.c ****     ADD_PARAM(PARAM_DEFAULT ,pdTRUE ,"qcw_max"         , param.qcw_max                 , 0      ,25
 212:..\common\ud3core/cli_common.c ****     ADD_PARAM(PARAM_DEFAULT ,pdTRUE ,"qcw_freq"        , param.qcw_freq                , 0      ,40
 213:..\common\ud3core/cli_common.c ****     ADD_PARAM(PARAM_DEFAULT ,pdTRUE ,"qcw_vol"         , param.qcw_vol                 , 0      ,25
 214:..\common\ud3core/cli_common.c ****     ADD_PARAM(PARAM_DEFAULT ,pdTRUE ,"qcw_repeat"      , param.qcw_repeat              , 0      ,10
 215:..\common\ud3core/cli_common.c ****     ADD_PARAM(PARAM_DEFAULT ,pdTRUE ,"synth"           , param.synth                   , 0      ,3 
 216:..\common\ud3core/cli_common.c ****     ADD_PARAM(PARAM_DEFAULT ,pdTRUE ,"sid_hpv_enabled" , SID_filterData.hpvEnabledGlobally, 0      
 217:..\common\ud3core/cli_common.c ****     ADD_PARAM(PARAM_DEFAULT ,pdTRUE ,"sid_noise_volume", SID_filterData.noiseVolume    , 0      ,MA
 218:..\common\ud3core/cli_common.c ****     ADD_PARAM(PARAM_DEFAULT ,pdTRUE ,"sid_ch1_volume"  , SID_filterData.channelVolume[0], 0     ,MA
 219:..\common\ud3core/cli_common.c ****     ADD_PARAM(PARAM_DEFAULT ,pdTRUE ,"sid_ch2_volume"  , SID_filterData.channelVolume[1], 0     ,MA
 220:..\common\ud3core/cli_common.c ****     ADD_PARAM(PARAM_DEFAULT ,pdTRUE ,"sid_ch3_volume"  , SID_filterData.channelVolume[2], 0     ,MA
 221:..\common\ud3core/cli_common.c ****     ADD_PARAM(PARAM_CONFIG  ,pdTRUE ,"watchdog"        , configuration.watchdog        , 0      ,1 
 222:..\common\ud3core/cli_common.c ****     ADD_PARAM(PARAM_CONFIG  ,pdTRUE ,"watchdog_timeout", configuration.watchdog_timeout, 1      ,10
 223:..\common\ud3core/cli_common.c ****     ADD_PARAM(PARAM_CONFIG  ,pdTRUE ,"max_tr_pw"       , configuration.max_tr_pw       , 0      ,10
 224:..\common\ud3core/cli_common.c ****     ADD_PARAM(PARAM_CONFIG  ,pdTRUE ,"max_tr_prf"      , configuration.max_tr_prf      , 0      ,30
 225:..\common\ud3core/cli_common.c ****     ADD_PARAM(PARAM_CONFIG  ,pdTRUE ,"max_qcw_pw"      , configuration.max_qcw_pw      , 0      ,50
 226:..\common\ud3core/cli_common.c ****     ADD_PARAM(PARAM_CONFIG  ,pdTRUE ,"max_tr_current"  , configuration.max_tr_current  , 0      ,80
 227:..\common\ud3core/cli_common.c ****     ADD_PARAM(PARAM_CONFIG  ,pdTRUE ,"min_tr_current"  , configuration.min_tr_current  , 0      ,80
 228:..\common\ud3core/cli_common.c ****     ADD_PARAM(PARAM_CONFIG  ,pdTRUE ,"max_qcw_current" , configuration.max_qcw_current , 0      ,80
 229:..\common\ud3core/cli_common.c ****     ADD_PARAM(PARAM_CONFIG  ,pdTRUE ,"temp1_max"       , configuration.temp1_max       , 0      ,10
 230:..\common\ud3core/cli_common.c ****     ADD_PARAM(PARAM_CONFIG  ,pdTRUE ,"temp2_max"       , configuration.temp2_max       , 0      ,10
 231:..\common\ud3core/cli_common.c ****     ADD_PARAM(PARAM_CONFIG  ,pdTRUE ,"ct1_ratio"       , configuration.ct1_ratio       , 1      ,50
 232:..\common\ud3core/cli_common.c ****     ADD_PARAM(PARAM_CONFIG  ,pdTRUE ,"ct2_ratio"       , configuration.ct2_ratio       , 1      ,50
 233:..\common\ud3core/cli_common.c ****     ADD_PARAM(PARAM_CONFIG  ,pdTRUE ,"ct1_burden"      , configuration.ct1_burden      , 1      ,10
 234:..\common\ud3core/cli_common.c ****     ADD_PARAM(PARAM_CONFIG  ,pdTRUE ,"ct2_burden"      , configuration.ct2_burden      , 1      ,10
 235:..\common\ud3core/cli_common.c ****     ADD_PARAM(PARAM_CONFIG  ,pdTRUE ,"ct2_type"        , configuration.ct2_type        , 0      ,1 
 236:..\common\ud3core/cli_common.c ****     ADD_PARAM(PARAM_CONFIG  ,pdTRUE ,"ct2_current"     , configuration.ct2_current     , 0      ,20
 237:..\common\ud3core/cli_common.c ****     ADD_PARAM(PARAM_CONFIG  ,pdTRUE ,"ct2_voltage"     , configuration.ct2_voltage     , 0      ,50
 238:..\common\ud3core/cli_common.c ****     ADD_PARAM(PARAM_CONFIG  ,pdTRUE ,"ct2_offset"      , configuration.ct2_offset      , 0      ,50
 239:..\common\ud3core/cli_common.c ****     ADD_PARAM(PARAM_CONFIG  ,pdTRUE ,"lead_time"       , configuration.lead_time       , 0      ,40
 240:..\common\ud3core/cli_common.c ****     ADD_PARAM(PARAM_CONFIG  ,pdTRUE ,"start_freq"      , configuration.start_freq      , 0      ,50
 241:..\common\ud3core/cli_common.c ****     ADD_PARAM(PARAM_CONFIG  ,pdTRUE ,"start_cycles"    , configuration.start_cycles    , 0      ,20
 242:..\common\ud3core/cli_common.c ****     ADD_PARAM(PARAM_CONFIG  ,pdTRUE ,"max_tr_duty"     , configuration.max_tr_duty     , 1      ,50
 243:..\common\ud3core/cli_common.c ****     ADD_PARAM(PARAM_CONFIG  ,pdTRUE ,"max_qcw_duty"    , configuration.max_qcw_duty    , 1      ,50
 244:..\common\ud3core/cli_common.c ****     ADD_PARAM(PARAM_CONFIG  ,pdTRUE ,"temp1_setpoint"  , configuration.temp1_setpoint  , 0      ,10
 245:..\common\ud3core/cli_common.c ****     ADD_PARAM(PARAM_CONFIG  ,pdTRUE ,"pid_temp_set"    , configuration.pid_temp_set    , 0      ,10
 246:..\common\ud3core/cli_common.c ****     ADD_PARAM(PARAM_CONFIG  ,pdTRUE ,"pid_temp_mode"   , configuration.pid_temp_mode   , 0      ,4 
 247:..\common\ud3core/cli_common.c ****     ADD_PARAM(PARAM_CONFIG  ,pdTRUE ,"pid_temp_p"      , configuration.pid_temp_p      , 0      ,20
 248:..\common\ud3core/cli_common.c ****     ADD_PARAM(PARAM_CONFIG  ,pdTRUE ,"pid_temp_i"      , configuration.pid_temp_i      , 0      ,20
 249:..\common\ud3core/cli_common.c ****     ADD_PARAM(PARAM_CONFIG  ,pdTRUE ,"temp2_setpoint"  , configuration.temp2_setpoint  , 0      ,10
 250:..\common\ud3core/cli_common.c ****     ADD_PARAM(PARAM_CONFIG  ,pdTRUE ,"temp2_mode"      , configuration.temp2_mode      , 0      ,4 
 251:..\common\ud3core/cli_common.c ****     ADD_PARAM(PARAM_CONFIG  ,pdTRUE ,"ps_scheme"       , configuration.ps_scheme       , 0      ,5 
 252:..\common\ud3core/cli_common.c ****     ADD_PARAM(PARAM_CONFIG  ,pdTRUE ,"charge_delay"    , configuration.chargedelay     , 1      ,60
 253:..\common\ud3core/cli_common.c ****     ADD_PARAM(PARAM_CONFIG  ,pdTRUE ,"autotune_s"      , configuration.autotune_s      , 1      ,32
 254:..\common\ud3core/cli_common.c ****     ADD_PARAM(PARAM_CONFIG  ,pdTRUE ,"ud_name"         , configuration.ud_name         , 0      ,0 
 255:..\common\ud3core/cli_common.c ****     ADD_PARAM(PARAM_CONFIG  ,pdTRUE ,"baudrate"        , configuration.baudrate        , 1200   ,40
 256:..\common\ud3core/cli_common.c ****     ADD_PARAM(PARAM_CONFIG  ,pdTRUE ,"ivo_uart"        , configuration.ivo_uart        , 0      ,11
 257:..\common\ud3core/cli_common.c ****     ADD_PARAM(PARAM_CONFIG  ,pdTRUE ,"r_bus"           , configuration.r_top           , 100    ,10
 258:..\common\ud3core/cli_common.c ****     ADD_PARAM(PARAM_CONFIG  ,pdTRUE ,"ena_ext_int"     , configuration.ext_interrupter , 0      ,2 
ARM GAS  C:\Users\chemi\AppData\Local\Temp\ccFrP3K3.s 			page 6


 259:..\common\ud3core/cli_common.c ****     ADD_PARAM(PARAM_CONFIG  ,pdTRUE ,"qcw_coil"        , configuration.is_qcw          , 0      ,1 
 260:..\common\ud3core/cli_common.c ****     ADD_PARAM(PARAM_CONFIG  ,pdTRUE ,"pca9685"         , configuration.pca9685         , 0      ,1 
 261:..\common\ud3core/cli_common.c ****     ADD_PARAM(PARAM_CONFIG  ,pdTRUE ,"max_fb_errors"   , configuration.max_fb_errors   , 0      ,60
 262:..\common\ud3core/cli_common.c ****     ADD_PARAM(PARAM_CONFIG  ,pdTRUE ,"ntc_b"           , configuration.ntc_b           , 0      ,10
 263:..\common\ud3core/cli_common.c ****     ADD_PARAM(PARAM_CONFIG  ,pdTRUE ,"ntc_r25"         , configuration.ntc_r25         , 0      ,33
 264:..\common\ud3core/cli_common.c ****     ADD_PARAM(PARAM_CONFIG  ,pdTRUE ,"ntc_idac"        , configuration.idac            , 0      ,20
 265:..\common\ud3core/cli_common.c ****     ADD_PARAM(PARAM_CONFIG  ,pdFALSE,"d_factor"        , configuration.drive_factor    , 0      ,10
 266:..\common\ud3core/cli_common.c ****     ADD_PARAM(PARAM_CONFIG  ,pdFALSE,"hwGauge_cfg"     , hwGauges.rawData              , 0      ,0 
 267:..\common\ud3core/cli_common.c ****     ADD_PARAM(PARAM_CONFIG  ,pdTRUE ,"vdrive"          , configuration.vdrive          , 10     ,24
 268:..\common\ud3core/cli_common.c ****     ADD_PARAM(PARAM_CONFIG  ,pdTRUE ,"ivo_led"         , configuration.ivo_led         , 0      ,1 
 269:..\common\ud3core/cli_common.c ****     ADD_PARAM(PARAM_CONFIG  ,pdTRUE ,"uvlo_analog"     , configuration.uvlo_analog     , 0      ,32
 270:..\common\ud3core/cli_common.c ****     ADD_PARAM(PARAM_CONFIG  ,pdTRUE ,"hw_rev"          , configuration.hw_rev          , 0      ,2 
 271:..\common\ud3core/cli_common.c ****     ADD_PARAM(PARAM_CONFIG  ,pdTRUE ,"autostart"       , configuration.autostart       , 0      ,1 
 272:..\common\ud3core/cli_common.c ****     ADD_PARAM(PARAM_CONFIG  ,pdTRUE ,"min_fb_current"  , configuration.min_fb_current  , 0      ,25
 273:..\common\ud3core/cli_common.c ****     ADD_PARAM(PARAM_CONFIG  ,pdTRUE ,"minDutyOffset"   , configuration.SigGen_minOtOffset  , 0     
 274:..\common\ud3core/cli_common.c ****     ADD_PARAM(PARAM_CONFIG  ,pdTRUE ,"comp_attac"      , configuration.compressor_attac  , 0      ,
 275:..\common\ud3core/cli_common.c ****     ADD_PARAM(PARAM_CONFIG  ,pdTRUE ,"comp_sustain"    , configuration.compressor_sustain  , 0     
 276:..\common\ud3core/cli_common.c ****     ADD_PARAM(PARAM_CONFIG  ,pdTRUE ,"comp_release"    , configuration.compressor_release  , 0     
 277:..\common\ud3core/cli_common.c ****     ADD_PARAM(PARAM_CONFIG  ,pdTRUE ,"comp_dutyOffset" , configuration.compressor_maxDutyOffset  , 
 278:..\common\ud3core/cli_common.c **** };
 279:..\common\ud3core/cli_common.c **** 
 280:..\common\ud3core/cli_common.c ****    
 281:..\common\ud3core/cli_common.c **** void eeprom_load(TERMINAL_HANDLE * handle){
 282:..\common\ud3core/cli_common.c ****     EEPROM_read_conf(confparam, PARAM_SIZE(confparam) ,0,handle);
 283:..\common\ud3core/cli_common.c ****     if(param.offtime<3) param.offtime=3;
 284:..\common\ud3core/cli_common.c ****     update_ivo();
 285:..\common\ud3core/cli_common.c ****     update_visibilty();
 286:..\common\ud3core/cli_common.c ****     uart_baudrate(configuration.baudrate);
 287:..\common\ud3core/cli_common.c ****     ramp.changed = pdTRUE;
 288:..\common\ud3core/cli_common.c ****     qcw_regenerate_ramp();
 289:..\common\ud3core/cli_common.c ****     init_telemetry();
 290:..\common\ud3core/cli_common.c ****     callback_temp_pid(confparam,0,handle);
 291:..\common\ud3core/cli_common.c ****     callback_ext_interrupter(confparam,0,handle);
 292:..\common\ud3core/cli_common.c ****     callback_ConfigFunction(confparam,0,handle);
 293:..\common\ud3core/cli_common.c **** }
 294:..\common\ud3core/cli_common.c **** 
 295:..\common\ud3core/cli_common.c **** 
 296:..\common\ud3core/cli_common.c **** 
 297:..\common\ud3core/cli_common.c **** void update_visibilty(void){
 298:..\common\ud3core/cli_common.c **** 
 299:..\common\ud3core/cli_common.c ****     switch(configuration.ct2_type){
 300:..\common\ud3core/cli_common.c ****         case CT2_TYPE_CURRENT:
 301:..\common\ud3core/cli_common.c ****             set_visibility(confparam,CONF_SIZE, "ct2_current",pdFALSE);
 302:..\common\ud3core/cli_common.c ****             set_visibility(confparam,CONF_SIZE, "ct2_voltage",pdFALSE);
 303:..\common\ud3core/cli_common.c ****             set_visibility(confparam,CONF_SIZE, "ct2_offset",pdFALSE);
 304:..\common\ud3core/cli_common.c ****             set_visibility(confparam,CONF_SIZE, "ct2_ratio",pdTRUE);
 305:..\common\ud3core/cli_common.c ****             set_visibility(confparam,CONF_SIZE, "ct2_burden",pdTRUE);
 306:..\common\ud3core/cli_common.c ****         break;
 307:..\common\ud3core/cli_common.c ****         case CT2_TYPE_VOLTAGE:
 308:..\common\ud3core/cli_common.c ****             set_visibility(confparam,CONF_SIZE, "ct2_ratio",pdFALSE);
 309:..\common\ud3core/cli_common.c ****             set_visibility(confparam,CONF_SIZE, "ct2_burden",pdFALSE);
 310:..\common\ud3core/cli_common.c ****             set_visibility(confparam,CONF_SIZE, "ct2_current",pdTRUE);
 311:..\common\ud3core/cli_common.c ****             set_visibility(confparam,CONF_SIZE, "ct2_voltage",pdTRUE);
 312:..\common\ud3core/cli_common.c ****             set_visibility(confparam,CONF_SIZE, "ct2_offset",pdTRUE);
 313:..\common\ud3core/cli_common.c ****         break;
 314:..\common\ud3core/cli_common.c ****     }
 315:..\common\ud3core/cli_common.c ****     
ARM GAS  C:\Users\chemi\AppData\Local\Temp\ccFrP3K3.s 			page 7


 316:..\common\ud3core/cli_common.c ****     set_visibility(confparam, CONF_SIZE, "vdrive", configuration.hw_rev > 0 ? pdTRUE : pdFALSE);   
 317:..\common\ud3core/cli_common.c **** 
 318:..\common\ud3core/cli_common.c **** }
 319:..\common\ud3core/cli_common.c **** 
 320:..\common\ud3core/cli_common.c **** // clang-format on
 321:..\common\ud3core/cli_common.c **** 
 322:..\common\ud3core/cli_common.c **** void init_tt_if_enabled(TERMINAL_HANDLE* handle) {
 323:..\common\ud3core/cli_common.c ****     if (portM->term_mode!=PORT_TERM_VT100) {
 324:..\common\ud3core/cli_common.c ****         uint8_t include_chart;
 325:..\common\ud3core/cli_common.c ****         if (portM->term_mode==PORT_TERM_TT) {
 326:..\common\ud3core/cli_common.c ****             include_chart = pdTRUE;
 327:..\common\ud3core/cli_common.c ****         } else {
 328:..\common\ud3core/cli_common.c ****             include_chart = pdFALSE;
 329:..\common\ud3core/cli_common.c ****         }
 330:..\common\ud3core/cli_common.c ****         init_tt(include_chart,handle);
 331:..\common\ud3core/cli_common.c ****     }
 332:..\common\ud3core/cli_common.c **** }
 333:..\common\ud3core/cli_common.c **** 
 334:..\common\ud3core/cli_common.c **** /*****************************************************************************
 335:..\common\ud3core/cli_common.c **** * Callback for invert option UART
 336:..\common\ud3core/cli_common.c **** ******************************************************************************/
 337:..\common\ud3core/cli_common.c **** 
 338:..\common\ud3core/cli_common.c **** void update_ivo(){
 339:..\common\ud3core/cli_common.c ****     switch(configuration.ivo_uart){
 340:..\common\ud3core/cli_common.c ****     case UART_IVO_NONE:
 341:..\common\ud3core/cli_common.c ****         clear_bit(IVO_Control, IVO_UART_TX_BIT);
 342:..\common\ud3core/cli_common.c ****         clear_bit(IVO_Control, IVO_UART_RX_BIT);
 343:..\common\ud3core/cli_common.c ****         break;
 344:..\common\ud3core/cli_common.c ****     case UART_IVO_TX:
 345:..\common\ud3core/cli_common.c ****         set_bit(IVO_Control, IVO_UART_TX_BIT);
 346:..\common\ud3core/cli_common.c ****         clear_bit(IVO_Control, IVO_UART_RX_BIT);
 347:..\common\ud3core/cli_common.c ****         break;
 348:..\common\ud3core/cli_common.c ****     case UART_IVO_RX:
 349:..\common\ud3core/cli_common.c ****         set_bit(IVO_Control, IVO_UART_RX_BIT);
 350:..\common\ud3core/cli_common.c ****         clear_bit(IVO_Control, IVO_UART_TX_BIT);
 351:..\common\ud3core/cli_common.c ****         break;
 352:..\common\ud3core/cli_common.c ****     case UART_IVO_RX_TX:
 353:..\common\ud3core/cli_common.c ****         set_bit(IVO_Control, IVO_UART_RX_BIT);
 354:..\common\ud3core/cli_common.c ****         set_bit(IVO_Control, IVO_UART_TX_BIT);
 355:..\common\ud3core/cli_common.c ****         break;
 356:..\common\ud3core/cli_common.c ****     }  
 357:..\common\ud3core/cli_common.c ****     if(configuration.ivo_led){
 358:..\common\ud3core/cli_common.c ****         set_bit(IVO_Control, IVO_LED_BIT);
 359:..\common\ud3core/cli_common.c ****     }else{
 360:..\common\ud3core/cli_common.c ****         clear_bit(IVO_Control, IVO_LED_BIT);
 361:..\common\ud3core/cli_common.c ****     }
 362:..\common\ud3core/cli_common.c ****     
 363:..\common\ud3core/cli_common.c **** }
 364:..\common\ud3core/cli_common.c **** 
 365:..\common\ud3core/cli_common.c **** uint8_t callback_ivoUART(parameter_entry * params, uint8_t index, TERMINAL_HANDLE * handle){
 366:..\common\ud3core/cli_common.c ****     if(configuration.ivo_uart == UART_IVO_NONE || configuration.ivo_uart == UART_IVO_TX || configur
 367:..\common\ud3core/cli_common.c ****         update_ivo();   
 368:..\common\ud3core/cli_common.c ****         return 1;
 369:..\common\ud3core/cli_common.c ****     }else{
 370:..\common\ud3core/cli_common.c ****         ttprintf("Only the folowing combinations are allowed\r\n");
 371:..\common\ud3core/cli_common.c ****         ttprintf("0  = no inversion\r\n");
 372:..\common\ud3core/cli_common.c ****         ttprintf("1  = rx inverted, tx not inverted\r\n");
ARM GAS  C:\Users\chemi\AppData\Local\Temp\ccFrP3K3.s 			page 8


 373:..\common\ud3core/cli_common.c ****         ttprintf("10 = rx not inverted, tx inverted\r\n");
 374:..\common\ud3core/cli_common.c ****         ttprintf("11 = rx and tx inverted\r\n");
 375:..\common\ud3core/cli_common.c ****         return 0;
 376:..\common\ud3core/cli_common.c ****     }
 377:..\common\ud3core/cli_common.c **** }
 378:..\common\ud3core/cli_common.c **** 
 379:..\common\ud3core/cli_common.c **** uint8_t callback_ivoLED(parameter_entry * params, uint8_t index, TERMINAL_HANDLE * handle){
 380:..\common\ud3core/cli_common.c ****     update_ivo();
 381:..\common\ud3core/cli_common.c ****     return 1;
 382:..\common\ud3core/cli_common.c **** }
 383:..\common\ud3core/cli_common.c **** 
 384:..\common\ud3core/cli_common.c **** 
 385:..\common\ud3core/cli_common.c **** /*****************************************************************************
 386:..\common\ud3core/cli_common.c **** * Callback if the offtime parameter is changed
 387:..\common\ud3core/cli_common.c **** ******************************************************************************/
 388:..\common\ud3core/cli_common.c **** uint8_t callback_VisibleFunction(parameter_entry * params, uint8_t index, TERMINAL_HANDLE * handle)
 389:..\common\ud3core/cli_common.c ****     update_visibilty();
 390:..\common\ud3core/cli_common.c ****     return 1;
 391:..\common\ud3core/cli_common.c **** }
 392:..\common\ud3core/cli_common.c **** 
 393:..\common\ud3core/cli_common.c **** 
 394:..\common\ud3core/cli_common.c **** /*****************************************************************************
 395:..\common\ud3core/cli_common.c **** * Callback if the maximum current is changed
 396:..\common\ud3core/cli_common.c **** ******************************************************************************/
 397:..\common\ud3core/cli_common.c **** uint8_t callback_TTupdateFunction(parameter_entry * params, uint8_t index, TERMINAL_HANDLE * handle
 398:..\common\ud3core/cli_common.c ****     
 399:..\common\ud3core/cli_common.c ****     uint32_t max_current_cmp = ((4080ul * configuration.ct1_ratio) / configuration.ct1_burden)/100;
 400:..\common\ud3core/cli_common.c ****     uint32_t max_current_meas = ((5000ul * configuration.ct1_ratio) / configuration.ct1_burden)/100
 401:..\common\ud3core/cli_common.c ****     
 402:..\common\ud3core/cli_common.c ****     if(configuration.max_tr_current>max_current_cmp || configuration.max_qcw_current>max_current_cm
 403:..\common\ud3core/cli_common.c ****         ttprintf("Warning: Max CT1 current with the current setup is %uA for OCD and %uA for peak m
 404:..\common\ud3core/cli_common.c ****         if(configuration.max_tr_current>max_current_cmp) configuration.max_tr_current = max_current
 405:..\common\ud3core/cli_common.c ****         if(configuration.max_qcw_current>max_current_cmp) configuration.max_qcw_current = max_curre
 406:..\common\ud3core/cli_common.c ****     }
 407:..\common\ud3core/cli_common.c ****     uint8 sfflag = system_fault_Read();
 408:..\common\ud3core/cli_common.c ****     
 409:..\common\ud3core/cli_common.c ****     sysflt_set(pdTRUE); //halt tesla coil operation during updates!
 410:..\common\ud3core/cli_common.c ****     
 411:..\common\ud3core/cli_common.c ****     configure_ZCD_to_PWM();
 412:..\common\ud3core/cli_common.c ****     
 413:..\common\ud3core/cli_common.c ****     system_fault_Control = sfflag;
 414:..\common\ud3core/cli_common.c ****     
 415:..\common\ud3core/cli_common.c ****     init_tt_if_enabled(handle);
 416:..\common\ud3core/cli_common.c **** 	return 1;
 417:..\common\ud3core/cli_common.c **** }
 418:..\common\ud3core/cli_common.c **** 
 419:..\common\ud3core/cli_common.c **** /*****************************************************************************
 420:..\common\ud3core/cli_common.c **** * Callback if a autotune parameter is changed
 421:..\common\ud3core/cli_common.c **** ******************************************************************************/
 422:..\common\ud3core/cli_common.c **** uint8_t callback_TuneFunction(parameter_entry * params, uint8_t index, TERMINAL_HANDLE * handle) {
  28              		.loc 1 422 0
  29              		.cfi_startproc
  30              		@ args = 0, pretend = 0, frame = 0
  31              		@ frame_needed = 0, uses_anonymous_args = 0
  32              	.LVL0:
  33 0000 08B5     		push	{r3, lr}
  34              		.cfi_def_cfa_offset 8
ARM GAS  C:\Users\chemi\AppData\Local\Temp\ccFrP3K3.s 			page 9


  35              		.cfi_offset 3, -8
  36              		.cfi_offset 14, -4
 423:..\common\ud3core/cli_common.c ****     if(param.tune_start >= param.tune_end){
  37              		.loc 1 423 0
  38 0002 054B     		ldr	r3, .L4
  39 0004 D988     		ldrh	r1, [r3, #6]
  40              	.LVL1:
  41 0006 1B89     		ldrh	r3, [r3, #8]
  42 0008 9942     		cmp	r1, r3
  43 000a 03D3     		bcc	.L2
  44              	.LVL2:
  45              	.LBB4:
  46              	.LBB5:
 424:..\common\ud3core/cli_common.c ****         ttprintf("ERROR: tune_start > tune_end\r\n");
  47              		.loc 1 424 0
  48 000c 536A     		ldr	r3, [r2, #36]
  49 000e 0349     		ldr	r1, .L4+4
  50 0010 5068     		ldr	r0, [r2, #4]
  51              	.LVL3:
  52 0012 9847     		blx	r3
  53              	.LVL4:
  54              	.L2:
  55              	.LBE5:
  56              	.LBE4:
 425:..\common\ud3core/cli_common.c **** 		return 1;
 426:..\common\ud3core/cli_common.c **** 	} else
 427:..\common\ud3core/cli_common.c **** 		return 1;
 428:..\common\ud3core/cli_common.c **** }
  57              		.loc 1 428 0
  58 0014 0120     		movs	r0, #1
  59 0016 08BD     		pop	{r3, pc}
  60              	.L5:
  61              		.align	2
  62              	.L4:
  63 0018 00000000 		.word	param
  64 001c 00000000 		.word	.LC0
  65              		.cfi_endproc
  66              	.LFE77:
  67              		.size	callback_TuneFunction, .-callback_TuneFunction
  68              		.section	.text.update_visibilty,"ax",%progbits
  69              		.align	1
  70              		.global	update_visibilty
  71              		.thumb
  72              		.thumb_func
  73              		.type	update_visibilty, %function
  74              	update_visibilty:
  75              	.LFB70:
 297:..\common\ud3core/cli_common.c **** 
  76              		.loc 1 297 0
  77              		.cfi_startproc
  78              		@ args = 0, pretend = 0, frame = 0
  79              		@ frame_needed = 0, uses_anonymous_args = 0
  80 0000 70B5     		push	{r4, r5, r6, lr}
  81              		.cfi_def_cfa_offset 16
  82              		.cfi_offset 4, -16
  83              		.cfi_offset 5, -12
  84              		.cfi_offset 6, -8
ARM GAS  C:\Users\chemi\AppData\Local\Temp\ccFrP3K3.s 			page 10


  85              		.cfi_offset 14, -4
 299:..\common\ud3core/cli_common.c ****         case CT2_TYPE_CURRENT:
  86              		.loc 1 299 0
  87 0002 264B     		ldr	r3, .L11
  88 0004 93F84C40 		ldrb	r4, [r3, #76]	@ zero_extendqisi2
  89 0008 1D46     		mov	r5, r3
  90 000a E4B1     		cbz	r4, .L8
  91 000c 012C     		cmp	r4, #1
  92 000e 38D1     		bne	.L7
 308:..\common\ud3core/cli_common.c ****             set_visibility(confparam,CONF_SIZE, "ct2_burden",pdFALSE);
  93              		.loc 1 308 0
  94 0010 0023     		movs	r3, #0
  95 0012 234A     		ldr	r2, .L11+4
  96 0014 5021     		movs	r1, #80
  97 0016 2348     		ldr	r0, .L11+8
  98 0018 FFF7FEFF 		bl	set_visibility
  99              	.LVL5:
 309:..\common\ud3core/cli_common.c ****             set_visibility(confparam,CONF_SIZE, "ct2_current",pdTRUE);
 100              		.loc 1 309 0
 101 001c 0023     		movs	r3, #0
 102 001e 224A     		ldr	r2, .L11+12
 103 0020 5021     		movs	r1, #80
 104 0022 2048     		ldr	r0, .L11+8
 105 0024 FFF7FEFF 		bl	set_visibility
 106              	.LVL6:
 310:..\common\ud3core/cli_common.c ****             set_visibility(confparam,CONF_SIZE, "ct2_voltage",pdTRUE);
 107              		.loc 1 310 0
 108 0028 2346     		mov	r3, r4
 109 002a 204A     		ldr	r2, .L11+16
 110 002c 5021     		movs	r1, #80
 111 002e 1D48     		ldr	r0, .L11+8
 112 0030 FFF7FEFF 		bl	set_visibility
 113              	.LVL7:
 311:..\common\ud3core/cli_common.c ****             set_visibility(confparam,CONF_SIZE, "ct2_offset",pdTRUE);
 114              		.loc 1 311 0
 115 0034 2346     		mov	r3, r4
 116 0036 1E4A     		ldr	r2, .L11+20
 117 0038 5021     		movs	r1, #80
 118 003a 1A48     		ldr	r0, .L11+8
 119 003c FFF7FEFF 		bl	set_visibility
 120              	.LVL8:
 312:..\common\ud3core/cli_common.c ****         break;
 121              		.loc 1 312 0
 122 0040 2346     		mov	r3, r4
 123 0042 1C4A     		ldr	r2, .L11+24
 124 0044 19E0     		b	.L10
 125              	.L8:
 301:..\common\ud3core/cli_common.c ****             set_visibility(confparam,CONF_SIZE, "ct2_voltage",pdFALSE);
 126              		.loc 1 301 0
 127 0046 2346     		mov	r3, r4
 128 0048 184A     		ldr	r2, .L11+16
 129 004a 5021     		movs	r1, #80
 130 004c 1548     		ldr	r0, .L11+8
 131 004e FFF7FEFF 		bl	set_visibility
 132              	.LVL9:
 302:..\common\ud3core/cli_common.c ****             set_visibility(confparam,CONF_SIZE, "ct2_offset",pdFALSE);
 133              		.loc 1 302 0
ARM GAS  C:\Users\chemi\AppData\Local\Temp\ccFrP3K3.s 			page 11


 134 0052 2346     		mov	r3, r4
 135 0054 164A     		ldr	r2, .L11+20
 136 0056 5021     		movs	r1, #80
 137 0058 1248     		ldr	r0, .L11+8
 138 005a FFF7FEFF 		bl	set_visibility
 139              	.LVL10:
 303:..\common\ud3core/cli_common.c ****             set_visibility(confparam,CONF_SIZE, "ct2_ratio",pdTRUE);
 140              		.loc 1 303 0
 141 005e 2346     		mov	r3, r4
 142 0060 144A     		ldr	r2, .L11+24
 143 0062 5021     		movs	r1, #80
 144 0064 0F48     		ldr	r0, .L11+8
 145 0066 FFF7FEFF 		bl	set_visibility
 146              	.LVL11:
 304:..\common\ud3core/cli_common.c ****             set_visibility(confparam,CONF_SIZE, "ct2_burden",pdTRUE);
 147              		.loc 1 304 0
 148 006a 0123     		movs	r3, #1
 149 006c 0C4A     		ldr	r2, .L11+4
 150 006e 5021     		movs	r1, #80
 151 0070 0C48     		ldr	r0, .L11+8
 152 0072 FFF7FEFF 		bl	set_visibility
 153              	.LVL12:
 305:..\common\ud3core/cli_common.c ****         break;
 154              		.loc 1 305 0
 155 0076 0C4A     		ldr	r2, .L11+12
 156 0078 0123     		movs	r3, #1
 157              	.L10:
 312:..\common\ud3core/cli_common.c ****         break;
 158              		.loc 1 312 0
 159 007a 5021     		movs	r1, #80
 160 007c 0948     		ldr	r0, .L11+8
 161 007e FFF7FEFF 		bl	set_visibility
 162              	.LVL13:
 163              	.L7:
 316:..\common\ud3core/cli_common.c **** 
 164              		.loc 1 316 0
 165 0082 95F87030 		ldrb	r3, [r5, #112]	@ zero_extendqisi2
 166 0086 0C4A     		ldr	r2, .L11+28
 167 0088 0033     		adds	r3, r3, #0
 168 008a 18BF     		it	ne
 169 008c 0123     		movne	r3, #1
 170 008e 5021     		movs	r1, #80
 171 0090 0448     		ldr	r0, .L11+8
 318:..\common\ud3core/cli_common.c **** 
 172              		.loc 1 318 0
 173 0092 BDE87040 		pop	{r4, r5, r6, lr}
 174              		.cfi_restore 14
 175              		.cfi_restore 6
 176              		.cfi_restore 5
 177              		.cfi_restore 4
 178              		.cfi_def_cfa_offset 0
 316:..\common\ud3core/cli_common.c **** 
 179              		.loc 1 316 0
 180 0096 FFF7FEBF 		b	set_visibility
 181              	.LVL14:
 182              	.L12:
 183 009a 00BF     		.align	2
ARM GAS  C:\Users\chemi\AppData\Local\Temp\ccFrP3K3.s 			page 12


 184              	.L11:
 185 009c 00000000 		.word	configuration
 186 00a0 42000000 		.word	.LC4
 187 00a4 00000000 		.word	.LANCHOR0
 188 00a8 4C000000 		.word	.LC5
 189 00ac 1F000000 		.word	.LC1
 190 00b0 2B000000 		.word	.LC2
 191 00b4 37000000 		.word	.LC3
 192 00b8 57000000 		.word	.LC6
 193              		.cfi_endproc
 194              	.LFE70:
 195              		.size	update_visibilty, .-update_visibilty
 196              		.section	.text.init_tt_if_enabled,"ax",%progbits
 197              		.align	1
 198              		.global	init_tt_if_enabled
 199              		.thumb
 200              		.thumb_func
 201              		.type	init_tt_if_enabled, %function
 202              	init_tt_if_enabled:
 203              	.LFB71:
 322:..\common\ud3core/cli_common.c ****     if (portM->term_mode!=PORT_TERM_VT100) {
 204              		.loc 1 322 0
 205              		.cfi_startproc
 206              		@ args = 0, pretend = 0, frame = 0
 207              		@ frame_needed = 0, uses_anonymous_args = 0
 208              		@ link register save eliminated.
 209              	.LVL15:
 323:..\common\ud3core/cli_common.c ****         uint8_t include_chart;
 210              		.loc 1 323 0
 211 0000 4368     		ldr	r3, [r0, #4]
 322:..\common\ud3core/cli_common.c ****     if (portM->term_mode!=PORT_TERM_VT100) {
 212              		.loc 1 322 0
 213 0002 0146     		mov	r1, r0
 323:..\common\ud3core/cli_common.c ****         uint8_t include_chart;
 214              		.loc 1 323 0
 215 0004 9878     		ldrb	r0, [r3, #2]	@ zero_extendqisi2
 216              	.LVL16:
 217 0006 0428     		cmp	r0, #4
 218 0008 04D0     		beq	.L13
 219              	.LVL17:
 220              	.LBB6:
 330:..\common\ud3core/cli_common.c ****     }
 221              		.loc 1 330 0
 222 000a 431F     		subs	r3, r0, #5
 223 000c 5842     		rsbs	r0, r3, #0
 224              	.LVL18:
 225 000e 5841     		adcs	r0, r0, r3
 226 0010 FFF7FEBF 		b	init_tt
 227              	.LVL19:
 228              	.L13:
 229 0014 7047     		bx	lr
 230              	.LBE6:
 231              		.cfi_endproc
 232              	.LFE71:
 233              		.size	init_tt_if_enabled, .-init_tt_if_enabled
 234              		.section	.text.callback_TTupdateFunction,"ax",%progbits
 235              		.align	1
ARM GAS  C:\Users\chemi\AppData\Local\Temp\ccFrP3K3.s 			page 13


 236              		.global	callback_TTupdateFunction
 237              		.thumb
 238              		.thumb_func
 239              		.type	callback_TTupdateFunction, %function
 240              	callback_TTupdateFunction:
 241              	.LFB76:
 397:..\common\ud3core/cli_common.c ****     
 242              		.loc 1 397 0
 243              		.cfi_startproc
 244              		@ args = 0, pretend = 0, frame = 0
 245              		@ frame_needed = 0, uses_anonymous_args = 0
 246              	.LVL20:
 399:..\common\ud3core/cli_common.c ****     uint32_t max_current_meas = ((5000ul * configuration.ct1_ratio) / configuration.ct1_burden)/100
 247              		.loc 1 399 0
 248 0000 1C49     		ldr	r1, .L20
 249              	.LVL21:
 397:..\common\ud3core/cli_common.c ****     
 250              		.loc 1 397 0
 251 0002 F8B5     		push	{r3, r4, r5, r6, r7, lr}
 252              		.cfi_def_cfa_offset 24
 253              		.cfi_offset 3, -24
 254              		.cfi_offset 4, -20
 255              		.cfi_offset 5, -16
 256              		.cfi_offset 6, -12
 257              		.cfi_offset 7, -8
 258              		.cfi_offset 14, -4
 399:..\common\ud3core/cli_common.c ****     uint32_t max_current_meas = ((5000ul * configuration.ct1_ratio) / configuration.ct1_burden)/100
 259              		.loc 1 399 0
 260 0004 4B8A     		ldrh	r3, [r1, #18]
 261 0006 4FF47F64 		mov	r4, #4080
 262 000a 5C43     		muls	r4, r3, r4
 263 000c C88A     		ldrh	r0, [r1, #22]
 264              	.LVL22:
 397:..\common\ud3core/cli_common.c ****     
 265              		.loc 1 397 0
 266 000e 1546     		mov	r5, r2
 399:..\common\ud3core/cli_common.c ****     uint32_t max_current_meas = ((5000ul * configuration.ct1_ratio) / configuration.ct1_burden)/100
 267              		.loc 1 399 0
 268 0010 B4FBF0F2 		udiv	r2, r4, r0
 269              	.LVL23:
 270 0014 6424     		movs	r4, #100
 271 0016 B2FBF4F4 		udiv	r4, r2, r4
 272              	.LVL24:
 402:..\common\ud3core/cli_common.c ****         ttprintf("Warning: Max CT1 current with the current setup is %uA for OCD and %uA for peak m
 273              		.loc 1 402 0
 274 001a 4A89     		ldrh	r2, [r1, #10]
 275 001c 0F46     		mov	r7, r1
 276 001e 9442     		cmp	r4, r2
 277 0020 02D3     		bcc	.L16
 402:..\common\ud3core/cli_common.c ****         ttprintf("Warning: Max CT1 current with the current setup is %uA for OCD and %uA for peak m
 278              		.loc 1 402 0 is_stmt 0 discriminator 1
 279 0022 CA89     		ldrh	r2, [r1, #14]
 280 0024 9442     		cmp	r4, r2
 281 0026 16D2     		bcs	.L17
 282              	.L16:
 403:..\common\ud3core/cli_common.c ****         if(configuration.max_tr_current>max_current_cmp) configuration.max_tr_current = max_current
 283              		.loc 1 403 0 is_stmt 1
ARM GAS  C:\Users\chemi\AppData\Local\Temp\ccFrP3K3.s 			page 14


 284 0028 41F28832 		movw	r2, #5000
 285 002c 5343     		muls	r3, r2, r3
 286              	.LVL25:
 287 002e B3FBF0F3 		udiv	r3, r3, r0
 288 0032 6422     		movs	r2, #100
 289 0034 B3FBF2F3 		udiv	r3, r3, r2
 290 0038 6E6A     		ldr	r6, [r5, #36]
 291 003a 2246     		mov	r2, r4
 292 003c 0E49     		ldr	r1, .L20+4
 293 003e 6868     		ldr	r0, [r5, #4]
 294              	.LVL26:
 295 0040 B047     		blx	r6
 296              	.LVL27:
 404:..\common\ud3core/cli_common.c ****         if(configuration.max_qcw_current>max_current_cmp) configuration.max_qcw_current = max_curre
 297              		.loc 1 404 0
 298 0042 7B89     		ldrh	r3, [r7, #10]
 299 0044 9C42     		cmp	r4, r3
 300 0046 3CBF     		itt	cc
 301 0048 0A4B     		ldrcc	r3, .L20
 302 004a 5C81     		strhcc	r4, [r3, #10]	@ movhi
 405:..\common\ud3core/cli_common.c ****     }
 303              		.loc 1 405 0
 304 004c FB89     		ldrh	r3, [r7, #14]
 305 004e 9C42     		cmp	r4, r3
 306 0050 3CBF     		itt	cc
 307 0052 084B     		ldrcc	r3, .L20
 308 0054 DC81     		strhcc	r4, [r3, #14]	@ movhi
 309              	.L17:
 407:..\common\ud3core/cli_common.c ****     
 310              		.loc 1 407 0
 311 0056 FFF7FEFF 		bl	system_fault_Read
 312              	.LVL28:
 313 005a 0446     		mov	r4, r0
 314              	.LVL29:
 409:..\common\ud3core/cli_common.c ****     
 315              		.loc 1 409 0
 316 005c 0120     		movs	r0, #1
 317 005e FFF7FEFF 		bl	sysflt_set
 318              	.LVL30:
 411:..\common\ud3core/cli_common.c ****     
 319              		.loc 1 411 0
 320 0062 FFF7FEFF 		bl	configure_ZCD_to_PWM
 321              	.LVL31:
 413:..\common\ud3core/cli_common.c ****     
 322              		.loc 1 413 0
 323 0066 054B     		ldr	r3, .L20+8
 415:..\common\ud3core/cli_common.c **** 	return 1;
 324              		.loc 1 415 0
 325 0068 2846     		mov	r0, r5
 413:..\common\ud3core/cli_common.c ****     
 326              		.loc 1 413 0
 327 006a 1C70     		strb	r4, [r3]
 415:..\common\ud3core/cli_common.c **** 	return 1;
 328              		.loc 1 415 0
 329 006c FFF7FEFF 		bl	init_tt_if_enabled
 330              	.LVL32:
 417:..\common\ud3core/cli_common.c **** 
ARM GAS  C:\Users\chemi\AppData\Local\Temp\ccFrP3K3.s 			page 15


 331              		.loc 1 417 0
 332 0070 0120     		movs	r0, #1
 333 0072 F8BD     		pop	{r3, r4, r5, r6, r7, pc}
 334              	.LVL33:
 335              	.L21:
 336              		.align	2
 337              	.L20:
 338 0074 00000000 		.word	configuration
 339 0078 5E000000 		.word	.LC7
 340 007c 7E640040 		.word	1073767550
 341              		.cfi_endproc
 342              	.LFE76:
 343              		.size	callback_TTupdateFunction, .-callback_TTupdateFunction
 344              		.section	.text.callback_ConfigFunction,"ax",%progbits
 345              		.align	1
 346              		.global	callback_ConfigFunction
 347              		.thumb
 348              		.thumb_func
 349              		.type	callback_ConfigFunction, %function
 350              	callback_ConfigFunction:
 351              	.LFB80:
 429:..\common\ud3core/cli_common.c **** 
 430:..\common\ud3core/cli_common.c **** 
 431:..\common\ud3core/cli_common.c **** 
 432:..\common\ud3core/cli_common.c **** /*****************************************************************************
 433:..\common\ud3core/cli_common.c **** * Callback if the baudrate is changed
 434:..\common\ud3core/cli_common.c **** ******************************************************************************/
 435:..\common\ud3core/cli_common.c **** void uart_baudrate(uint32_t baudrate){
 436:..\common\ud3core/cli_common.c ****     float divider = (float)(BCLK__BUS_CLK__HZ/8)/(float)baudrate;
 437:..\common\ud3core/cli_common.c ****     uint16_t divider_selected=1;
 438:..\common\ud3core/cli_common.c ****     
 439:..\common\ud3core/cli_common.c ****     uint32_t down_rate = (BCLK__BUS_CLK__HZ/8)/floor(divider);
 440:..\common\ud3core/cli_common.c ****     uint32_t up_rate = (BCLK__BUS_CLK__HZ/8)/ceil(divider);
 441:..\common\ud3core/cli_common.c ****    
 442:..\common\ud3core/cli_common.c ****     float down_rate_error = (down_rate/(float)baudrate)-1;
 443:..\common\ud3core/cli_common.c ****     float up_rate_error = (up_rate/(float)baudrate)-1;
 444:..\common\ud3core/cli_common.c ****     
 445:..\common\ud3core/cli_common.c ****     UART_Stop();
 446:..\common\ud3core/cli_common.c ****     if(fabs(down_rate_error) < fabs(up_rate_error)){
 447:..\common\ud3core/cli_common.c ****         //selected round down divider
 448:..\common\ud3core/cli_common.c ****         divider_selected = floor(divider);
 449:..\common\ud3core/cli_common.c ****     }else{
 450:..\common\ud3core/cli_common.c ****         //selected round up divider
 451:..\common\ud3core/cli_common.c ****         divider_selected = ceil(divider);
 452:..\common\ud3core/cli_common.c ****     }
 453:..\common\ud3core/cli_common.c **** 
 454:..\common\ud3core/cli_common.c ****     UART_CLK_SetDividerValue(divider_selected);
 455:..\common\ud3core/cli_common.c ****     
 456:..\common\ud3core/cli_common.c ****     tt.n.rx_datarate.max = baudrate / 8;
 457:..\common\ud3core/cli_common.c ****     tt.n.tx_datarate.max = baudrate / 8;
 458:..\common\ud3core/cli_common.c ****     
 459:..\common\ud3core/cli_common.c ****     UART_Start();  
 460:..\common\ud3core/cli_common.c ****     
 461:..\common\ud3core/cli_common.c **** }
 462:..\common\ud3core/cli_common.c **** 
 463:..\common\ud3core/cli_common.c **** uint8_t callback_baudrateFunction(parameter_entry * params, uint8_t index, TERMINAL_HANDLE * handle
 464:..\common\ud3core/cli_common.c ****     uart_baudrate(configuration.baudrate);
ARM GAS  C:\Users\chemi\AppData\Local\Temp\ccFrP3K3.s 			page 16


 465:..\common\ud3core/cli_common.c ****  
 466:..\common\ud3core/cli_common.c ****     return 1;
 467:..\common\ud3core/cli_common.c **** }
 468:..\common\ud3core/cli_common.c **** 
 469:..\common\ud3core/cli_common.c **** 
 470:..\common\ud3core/cli_common.c **** /*****************************************************************************
 471:..\common\ud3core/cli_common.c **** * Callback if a configuration relevant parameter is changed
 472:..\common\ud3core/cli_common.c **** ******************************************************************************/
 473:..\common\ud3core/cli_common.c **** uint8_t callback_ConfigFunction(parameter_entry * params, uint8_t index, TERMINAL_HANDLE * handle){
 352              		.loc 1 473 0
 353              		.cfi_startproc
 354              		@ args = 0, pretend = 0, frame = 0
 355              		@ frame_needed = 0, uses_anonymous_args = 0
 356              	.LVL34:
 357 0000 70B5     		push	{r4, r5, r6, lr}
 358              		.cfi_def_cfa_offset 16
 359              		.cfi_offset 4, -16
 360              		.cfi_offset 5, -12
 361              		.cfi_offset 6, -8
 362              		.cfi_offset 14, -4
 363              		.loc 1 473 0
 364 0002 1646     		mov	r6, r2
 474:..\common\ud3core/cli_common.c ****     uint8 sfflag = system_fault_Read();
 365              		.loc 1 474 0
 366 0004 FFF7FEFF 		bl	system_fault_Read
 367              	.LVL35:
 475:..\common\ud3core/cli_common.c ****     sysflt_set(pdTRUE); //halt tesla coil operation during updates!
 476:..\common\ud3core/cli_common.c ****     
 477:..\common\ud3core/cli_common.c ****     if(configuration.hw_rev > 0){
 368              		.loc 1 477 0
 369 0008 184C     		ldr	r4, .L35
 474:..\common\ud3core/cli_common.c ****     uint8 sfflag = system_fault_Read();
 370              		.loc 1 474 0
 371 000a 0546     		mov	r5, r0
 372              	.LVL36:
 475:..\common\ud3core/cli_common.c ****     sysflt_set(pdTRUE); //halt tesla coil operation during updates!
 373              		.loc 1 475 0
 374 000c 0120     		movs	r0, #1
 375 000e FFF7FEFF 		bl	sysflt_set
 376              	.LVL37:
 377              		.loc 1 477 0
 378 0012 94F87030 		ldrb	r3, [r4, #112]	@ zero_extendqisi2
 379 0016 2BB1     		cbz	r3, .L23
 478:..\common\ud3core/cli_common.c ****         dcdc_ena_Write(0); //disable DCDC
 380              		.loc 1 478 0
 381 0018 0020     		movs	r0, #0
 382 001a FFF7FEFF 		bl	dcdc_ena_Write
 383              	.LVL38:
 479:..\common\ud3core/cli_common.c ****         digipot_set_voltage(configuration.vdrive);
 384              		.loc 1 479 0
 385 001e E06E     		ldr	r0, [r4, #108]	@ float
 386 0020 FFF7FEFF 		bl	digipot_set_voltage
 387              	.LVL39:
 388              	.L23:
 480:..\common\ud3core/cli_common.c ****     }
 481:..\common\ud3core/cli_common.c ****     
 482:..\common\ud3core/cli_common.c ****     WD_enable(configuration.watchdog);
ARM GAS  C:\Users\chemi\AppData\Local\Temp\ccFrP3K3.s 			page 17


 389              		.loc 1 482 0
 390 0024 2078     		ldrb	r0, [r4]	@ zero_extendqisi2
 391 0026 FFF7FEFF 		bl	WD_enable
 392              	.LVL40:
 483:..\common\ud3core/cli_common.c ****     configure_interrupter();
 393              		.loc 1 483 0
 394 002a FFF7FEFF 		bl	configure_interrupter
 395              	.LVL41:
 484:..\common\ud3core/cli_common.c **** 	initialize_charging();
 396              		.loc 1 484 0
 397 002e FFF7FEFF 		bl	initialize_charging
 398              	.LVL42:
 485:..\common\ud3core/cli_common.c **** 	configure_ZCD_to_PWM();
 399              		.loc 1 485 0
 400 0032 FFF7FEFF 		bl	configure_ZCD_to_PWM
 401              	.LVL43:
 486:..\common\ud3core/cli_common.c ****     update_visibilty();
 402              		.loc 1 486 0
 403 0036 FFF7FEFF 		bl	update_visibilty
 404              	.LVL44:
 487:..\common\ud3core/cli_common.c ****     reconfig_charge_timer();
 405              		.loc 1 487 0
 406 003a FFF7FEFF 		bl	reconfig_charge_timer
 407              	.LVL45:
 488:..\common\ud3core/cli_common.c ****     
 489:..\common\ud3core/cli_common.c ****     recalc_telemetry_limits();
 408              		.loc 1 489 0
 409 003e FFF7FEFF 		bl	recalc_telemetry_limits
 410              	.LVL46:
 490:..\common\ud3core/cli_common.c **** 
 491:..\common\ud3core/cli_common.c ****     init_tt_if_enabled(handle);
 411              		.loc 1 491 0
 412 0042 3046     		mov	r0, r6
 413 0044 FFF7FEFF 		bl	init_tt_if_enabled
 414              	.LVL47:
 492:..\common\ud3core/cli_common.c ****     
 493:..\common\ud3core/cli_common.c ****     if(configuration.hw_rev > 0){
 415              		.loc 1 493 0
 416 0048 94F87030 		ldrb	r3, [r4, #112]	@ zero_extendqisi2
 417 004c 13B1     		cbz	r3, .L24
 494:..\common\ud3core/cli_common.c ****         dcdc_ena_Write(1); //enable DCDC
 418              		.loc 1 494 0
 419 004e 0120     		movs	r0, #1
 420 0050 FFF7FEFF 		bl	dcdc_ena_Write
 421              	.LVL48:
 422              	.L24:
 495:..\common\ud3core/cli_common.c ****     }
 496:..\common\ud3core/cli_common.c ****     tsk_analog_recalc_drive_top(configuration.drive_factor);
 423              		.loc 1 496 0
 424 0054 A06F     		ldr	r0, [r4, #120]	@ float
 425 0056 FFF7FEFF 		bl	tsk_analog_recalc_drive_top
 426              	.LVL49:
 497:..\common\ud3core/cli_common.c ****     
 498:..\common\ud3core/cli_common.c ****     if(configuration.is_qcw){
 427              		.loc 1 498 0
 428 005a 94F85C30 		ldrb	r3, [r4, #92]	@ zero_extendqisi2
 429 005e 0BB1     		cbz	r3, .L25
ARM GAS  C:\Users\chemi\AppData\Local\Temp\ccFrP3K3.s 			page 18


 499:..\common\ud3core/cli_common.c ****         qcw_regenerate_ramp();   
 430              		.loc 1 499 0
 431 0060 FFF7FEFF 		bl	qcw_regenerate_ramp
 432              	.LVL50:
 433              	.L25:
 500:..\common\ud3core/cli_common.c ****     }
 501:..\common\ud3core/cli_common.c ****     
 502:..\common\ud3core/cli_common.c **** 	system_fault_Control = sfflag;
 434              		.loc 1 502 0
 435 0064 024B     		ldr	r3, .L35+4
 503:..\common\ud3core/cli_common.c ****     return 1;
 504:..\common\ud3core/cli_common.c **** }
 436              		.loc 1 504 0
 437 0066 0120     		movs	r0, #1
 502:..\common\ud3core/cli_common.c ****     return 1;
 438              		.loc 1 502 0
 439 0068 1D70     		strb	r5, [r3]
 440              		.loc 1 504 0
 441 006a 70BD     		pop	{r4, r5, r6, pc}
 442              	.LVL51:
 443              	.L36:
 444              		.align	2
 445              	.L35:
 446 006c 00000000 		.word	configuration
 447 0070 7E640040 		.word	1073767550
 448              		.cfi_endproc
 449              	.LFE80:
 450              		.size	callback_ConfigFunction, .-callback_ConfigFunction
 451              		.section	.text.update_ivo,"ax",%progbits
 452              		.align	1
 453              		.global	update_ivo
 454              		.thumb
 455              		.thumb_func
 456              		.type	update_ivo, %function
 457              	update_ivo:
 458              	.LFB72:
 338:..\common\ud3core/cli_common.c ****     switch(configuration.ivo_uart){
 459              		.loc 1 338 0
 460              		.cfi_startproc
 461              		@ args = 0, pretend = 0, frame = 0
 462              		@ frame_needed = 0, uses_anonymous_args = 0
 463              		@ link register save eliminated.
 339:..\common\ud3core/cli_common.c ****     case UART_IVO_NONE:
 464              		.loc 1 339 0
 465 0000 1A4A     		ldr	r2, .L49
 466 0002 1B4B     		ldr	r3, .L49+4
 467 0004 92F85A10 		ldrb	r1, [r2, #90]	@ zero_extendqisi2
 468 0008 0B29     		cmp	r1, #11
 469 000a 23D8     		bhi	.L38
 470 000c DFE801F0 		tbb	[pc, r1]
 471              	.L40:
 472 0010 06       		.byte	(.L39-.L40)/2
 473 0011 0A       		.byte	(.L41-.L40)/2
 474 0012 22       		.byte	(.L38-.L40)/2
 475 0013 22       		.byte	(.L38-.L40)/2
 476 0014 22       		.byte	(.L38-.L40)/2
 477 0015 22       		.byte	(.L38-.L40)/2
ARM GAS  C:\Users\chemi\AppData\Local\Temp\ccFrP3K3.s 			page 19


 478 0016 22       		.byte	(.L38-.L40)/2
 479 0017 22       		.byte	(.L38-.L40)/2
 480 0018 22       		.byte	(.L38-.L40)/2
 481 0019 22       		.byte	(.L38-.L40)/2
 482 001a 12       		.byte	(.L42-.L40)/2
 483 001b 1A       		.byte	(.L43-.L40)/2
 484              		.p2align 1
 485              	.L39:
 341:..\common\ud3core/cli_common.c ****         clear_bit(IVO_Control, IVO_UART_RX_BIT);
 486              		.loc 1 341 0
 487 001c 1978     		ldrb	r1, [r3]	@ zero_extendqisi2
 488 001e 01F0FD01 		and	r1, r1, #253
 489 0022 02E0     		b	.L48
 490              	.L41:
 345:..\common\ud3core/cli_common.c ****         clear_bit(IVO_Control, IVO_UART_RX_BIT);
 491              		.loc 1 345 0
 492 0024 1978     		ldrb	r1, [r3]	@ zero_extendqisi2
 493 0026 41F00201 		orr	r1, r1, #2
 494              	.L48:
 495 002a 1970     		strb	r1, [r3]
 346:..\common\ud3core/cli_common.c ****         break;
 496              		.loc 1 346 0
 497 002c 1978     		ldrb	r1, [r3]	@ zero_extendqisi2
 498 002e 01F0FE01 		and	r1, r1, #254
 499 0032 0EE0     		b	.L46
 500              	.L42:
 349:..\common\ud3core/cli_common.c ****         clear_bit(IVO_Control, IVO_UART_TX_BIT);
 501              		.loc 1 349 0
 502 0034 1978     		ldrb	r1, [r3]	@ zero_extendqisi2
 503 0036 41F00101 		orr	r1, r1, #1
 504 003a 1970     		strb	r1, [r3]
 350:..\common\ud3core/cli_common.c ****         break;
 505              		.loc 1 350 0
 506 003c 1978     		ldrb	r1, [r3]	@ zero_extendqisi2
 507 003e 01F0FD01 		and	r1, r1, #253
 508 0042 06E0     		b	.L46
 509              	.L43:
 353:..\common\ud3core/cli_common.c ****         set_bit(IVO_Control, IVO_UART_TX_BIT);
 510              		.loc 1 353 0
 511 0044 1978     		ldrb	r1, [r3]	@ zero_extendqisi2
 512 0046 41F00101 		orr	r1, r1, #1
 513 004a 1970     		strb	r1, [r3]
 354:..\common\ud3core/cli_common.c ****         break;
 514              		.loc 1 354 0
 515 004c 1978     		ldrb	r1, [r3]	@ zero_extendqisi2
 516 004e 41F00201 		orr	r1, r1, #2
 517              	.L46:
 518 0052 1970     		strb	r1, [r3]
 519              	.L38:
 357:..\common\ud3core/cli_common.c ****         set_bit(IVO_Control, IVO_LED_BIT);
 520              		.loc 1 357 0
 521 0054 92F86620 		ldrb	r2, [r2, #102]	@ zero_extendqisi2
 522 0058 1AB1     		cbz	r2, .L44
 358:..\common\ud3core/cli_common.c ****     }else{
 523              		.loc 1 358 0
 524 005a 1A78     		ldrb	r2, [r3]	@ zero_extendqisi2
 525 005c 42F00402 		orr	r2, r2, #4
ARM GAS  C:\Users\chemi\AppData\Local\Temp\ccFrP3K3.s 			page 20


 526 0060 02E0     		b	.L47
 527              	.L44:
 360:..\common\ud3core/cli_common.c ****     }
 528              		.loc 1 360 0
 529 0062 1A78     		ldrb	r2, [r3]	@ zero_extendqisi2
 530 0064 02F0FB02 		and	r2, r2, #251
 531              	.L47:
 532 0068 1A70     		strb	r2, [r3]
 533 006a 7047     		bx	lr
 534              	.L50:
 535              		.align	2
 536              	.L49:
 537 006c 00000000 		.word	configuration
 538 0070 77650040 		.word	1073767799
 539              		.cfi_endproc
 540              	.LFE72:
 541              		.size	update_ivo, .-update_ivo
 542              		.section	.text.init_config,"ax",%progbits
 543              		.align	1
 544              		.global	init_config
 545              		.thumb
 546              		.thumb_func
 547              		.type	init_config, %function
 548              	init_config:
 549              	.LFB68:
  97:..\common\ud3core/cli_common.c ****     configuration.watchdog = 1;
 550              		.loc 1 97 0
 551              		.cfi_startproc
 552              		@ args = 0, pretend = 0, frame = 0
 553              		@ frame_needed = 0, uses_anonymous_args = 0
 554 0000 2DE9F047 		push	{r4, r5, r6, r7, r8, r9, r10, lr}
 555              		.cfi_def_cfa_offset 32
 556              		.cfi_offset 4, -32
 557              		.cfi_offset 5, -28
 558              		.cfi_offset 6, -24
 559              		.cfi_offset 7, -20
 560              		.cfi_offset 8, -16
 561              		.cfi_offset 9, -12
 562              		.cfi_offset 10, -8
 563              		.cfi_offset 14, -4
  98:..\common\ud3core/cli_common.c ****     configuration.watchdog_timeout = 1000;
 564              		.loc 1 98 0
 565 0004 564C     		ldr	r4, .L52
 105:..\common\ud3core/cli_common.c ****     configuration.temp1_max = 40;
 566              		.loc 1 105 0
 567 0006 4FF49672 		mov	r2, #300
 568 000a E281     		strh	r2, [r4, #14]	@ movhi
 106:..\common\ud3core/cli_common.c ****     configuration.temp2_max = 40;
 569              		.loc 1 106 0
 570 000c 2822     		movs	r2, #40
 571 000e 2274     		strb	r2, [r4, #16]
 107:..\common\ud3core/cli_common.c ****     configuration.ct1_ratio = 600;
 572              		.loc 1 107 0
 573 0010 6274     		strb	r2, [r4, #17]
 108:..\common\ud3core/cli_common.c ****     configuration.ct2_ratio = 1000;
 574              		.loc 1 108 0
 575 0012 4FF41672 		mov	r2, #600
ARM GAS  C:\Users\chemi\AppData\Local\Temp\ccFrP3K3.s 			page 21


 576 0016 6282     		strh	r2, [r4, #18]	@ movhi
 110:..\common\ud3core/cli_common.c ****     configuration.ct2_burden = 500;
 577              		.loc 1 110 0
 578 0018 2122     		movs	r2, #33
 579 001a E282     		strh	r2, [r4, #22]	@ movhi
 113:..\common\ud3core/cli_common.c ****     configuration.start_cycles = 20;
 580              		.loc 1 113 0
 581 001c 40F27622 		movw	r2, #630
 101:..\common\ud3core/cli_common.c ****     configuration.max_qcw_pw = 1000;
 582              		.loc 1 101 0
 583 0020 4FF44873 		mov	r3, #800
 584 0024 E380     		strh	r3, [r4, #6]	@ movhi
 104:..\common\ud3core/cli_common.c ****     configuration.max_qcw_current = 300;
 585              		.loc 1 104 0
 586 0026 6423     		movs	r3, #100
 587 0028 A381     		strh	r3, [r4, #12]	@ movhi
 115:..\common\ud3core/cli_common.c ****     configuration.max_qcw_duty = 350;
 588              		.loc 1 115 0
 589 002a 2384     		strh	r3, [r4, #32]	@ movhi
 116:..\common\ud3core/cli_common.c ****     configuration.temp1_setpoint = 30;
 590              		.loc 1 116 0
 591 002c 4FF4AF73 		mov	r3, #350
 592 0030 6384     		strh	r3, [r4, #34]	@ movhi
 117:..\common\ud3core/cli_common.c ****     configuration.pid_temp_set = 45;
 593              		.loc 1 117 0
 594 0032 1E23     		movs	r3, #30
 113:..\common\ud3core/cli_common.c ****     configuration.start_cycles = 20;
 595              		.loc 1 113 0
 596 0034 A283     		strh	r2, [r4, #28]	@ movhi
 117:..\common\ud3core/cli_common.c ****     configuration.pid_temp_set = 45;
 597              		.loc 1 117 0
 598 0036 A384     		strh	r3, [r4, #36]	@ movhi
 122:..\common\ud3core/cli_common.c ****     configuration.temp2_mode = 0;
 599              		.loc 1 122 0
 600 0038 E384     		strh	r3, [r4, #38]	@ movhi
 118:..\common\ud3core/cli_common.c ****     configuration.pid_temp_mode = 0;
 601              		.loc 1 118 0
 602 003a 2D22     		movs	r2, #45
 124:..\common\ud3core/cli_common.c ****     configuration.autotune_s = 1;
 603              		.loc 1 124 0
 604 003c 0223     		movs	r3, #2
 118:..\common\ud3core/cli_common.c ****     configuration.pid_temp_mode = 0;
 605              		.loc 1 118 0
 606 003e 2285     		strh	r2, [r4, #40]	@ movhi
 124:..\common\ud3core/cli_common.c ****     configuration.autotune_s = 1;
 607              		.loc 1 124 0
 608 0040 84F83530 		strb	r3, [r4, #53]
 120:..\common\ud3core/cli_common.c ****     configuration.pid_temp_i = 0.2;
 609              		.loc 1 120 0
 610 0044 474A     		ldr	r2, .L52+4
 126:..\common\ud3core/cli_common.c ****     configuration.r_top = 500000;
 611              		.loc 1 126 0
 612 0046 4FF4E133 		mov	r3, #115200
 613 004a A364     		str	r3, [r4, #72]
 127:..\common\ud3core/cli_common.c ****     strncpy(configuration.ud_name,"UD3-Tesla", sizeof(configuration.ud_name));
 614              		.loc 1 127 0
 615 004c 464B     		ldr	r3, .L52+8
ARM GAS  C:\Users\chemi\AppData\Local\Temp\ccFrP3K3.s 			page 22


 119:..\common\ud3core/cli_common.c ****     configuration.pid_temp_p = 0.2;
 616              		.loc 1 119 0
 617 004e 0025     		movs	r5, #0
  99:..\common\ud3core/cli_common.c ****     configuration.max_tr_pw = 1000;
 618              		.loc 1 99 0
 619 0050 4FF47A76 		mov	r6, #1000
  98:..\common\ud3core/cli_common.c ****     configuration.watchdog_timeout = 1000;
 620              		.loc 1 98 0
 621 0054 0127     		movs	r7, #1
 111:..\common\ud3core/cli_common.c ****     configuration.lead_time = 500;
 622              		.loc 1 111 0
 623 0056 4FF4FA78 		mov	r8, #500
 114:..\common\ud3core/cli_common.c ****     configuration.max_tr_duty = 100;
 624              		.loc 1 114 0
 625 005a 4FF01409 		mov	r9, #20
 103:..\common\ud3core/cli_common.c ****     configuration.min_tr_current = 100;
 626              		.loc 1 103 0
 627 005e 4FF4C87A 		mov	r10, #400
 120:..\common\ud3core/cli_common.c ****     configuration.pid_temp_i = 0.2;
 628              		.loc 1 120 0
 629 0062 E262     		str	r2, [r4, #44]	@ float
 121:..\common\ud3core/cli_common.c ****     configuration.temp2_setpoint = 30;
 630              		.loc 1 121 0
 631 0064 2263     		str	r2, [r4, #48]	@ float
 128:..\common\ud3core/cli_common.c ****     configuration.ct2_type = CT2_TYPE_CURRENT;
 632              		.loc 1 128 0
 633 0066 4149     		ldr	r1, .L52+12
 634 0068 1022     		movs	r2, #16
 635 006a 04F13700 		add	r0, r4, #55
 127:..\common\ud3core/cli_common.c ****     strncpy(configuration.ud_name,"UD3-Tesla", sizeof(configuration.ud_name));
 636              		.loc 1 127 0
 637 006e 6365     		str	r3, [r4, #84]
  98:..\common\ud3core/cli_common.c ****     configuration.watchdog_timeout = 1000;
 638              		.loc 1 98 0
 639 0070 2770     		strb	r7, [r4]
  99:..\common\ud3core/cli_common.c ****     configuration.max_tr_pw = 1000;
 640              		.loc 1 99 0
 641 0072 6680     		strh	r6, [r4, #2]	@ movhi
 100:..\common\ud3core/cli_common.c ****     configuration.max_tr_prf = 800;
 642              		.loc 1 100 0
 643 0074 A680     		strh	r6, [r4, #4]	@ movhi
 102:..\common\ud3core/cli_common.c ****     configuration.max_tr_current = 400;
 644              		.loc 1 102 0
 645 0076 2681     		strh	r6, [r4, #8]	@ movhi
 103:..\common\ud3core/cli_common.c ****     configuration.min_tr_current = 100;
 646              		.loc 1 103 0
 647 0078 A4F80AA0 		strh	r10, [r4, #10]	@ movhi
 109:..\common\ud3core/cli_common.c ****     configuration.ct1_burden = 33;
 648              		.loc 1 109 0
 649 007c A682     		strh	r6, [r4, #20]	@ movhi
 111:..\common\ud3core/cli_common.c ****     configuration.lead_time = 500;
 650              		.loc 1 111 0
 651 007e A4F81880 		strh	r8, [r4, #24]	@ movhi
 112:..\common\ud3core/cli_common.c ****     configuration.start_freq = 630;
 652              		.loc 1 112 0
 653 0082 A4F81A80 		strh	r8, [r4, #26]	@ movhi
 114:..\common\ud3core/cli_common.c ****     configuration.max_tr_duty = 100;
ARM GAS  C:\Users\chemi\AppData\Local\Temp\ccFrP3K3.s 			page 23


 654              		.loc 1 114 0
 655 0086 84F81E90 		strb	r9, [r4, #30]
 119:..\common\ud3core/cli_common.c ****     configuration.pid_temp_p = 0.2;
 656              		.loc 1 119 0
 657 008a 84F82A50 		strb	r5, [r4, #42]
 123:..\common\ud3core/cli_common.c ****     configuration.ps_scheme = 2;
 658              		.loc 1 123 0
 659 008e 84F83450 		strb	r5, [r4, #52]
 125:..\common\ud3core/cli_common.c ****     configuration.baudrate = 115200;
 660              		.loc 1 125 0
 661 0092 84F83670 		strb	r7, [r4, #54]
 128:..\common\ud3core/cli_common.c ****     configuration.ct2_type = CT2_TYPE_CURRENT;
 662              		.loc 1 128 0
 663 0096 FFF7FEFF 		bl	strncpy
 664              	.LVL52:
 130:..\common\ud3core/cli_common.c ****     configuration.ct2_offset = 0;
 665              		.loc 1 130 0
 666 009a 4FF47A63 		mov	r3, #4000
 667 009e A4F85030 		strh	r3, [r4, #80]	@ movhi
 143:..\common\ud3core/cli_common.c ****     
 668              		.loc 1 143 0
 669 00a2 1923     		movs	r3, #25
 670 00a4 84F87230 		strb	r3, [r4, #114]
 146:..\common\ud3core/cli_common.c ****     configuration.compressor_release = 20;
 671              		.loc 1 146 0
 672 00a8 2C23     		movs	r3, #44
 673 00aa 84F87530 		strb	r3, [r4, #117]
 148:..\common\ud3core/cli_common.c ****     
 674              		.loc 1 148 0
 675 00ae 4023     		movs	r3, #64
 676 00b0 84F87730 		strb	r3, [r4, #119]
 150:..\common\ud3core/cli_common.c ****     configuration.ntc_r25 = 10000;
 677              		.loc 1 150 0
 678 00b4 40F68973 		movw	r3, #3977
 679 00b8 A4F86030 		strh	r3, [r4, #96]	@ movhi
 151:..\common\ud3core/cli_common.c ****     
 680              		.loc 1 151 0
 681 00bc 42F21073 		movw	r3, #10000
 682 00c0 A4F86230 		strh	r3, [r4, #98]	@ movhi
 153:..\common\ud3core/cli_common.c ****     
 683              		.loc 1 153 0
 684 00c4 B923     		movs	r3, #185
 685 00c6 A4F86430 		strh	r3, [r4, #100]	@ movhi
 155:..\common\ud3core/cli_common.c ****     
 686              		.loc 1 155 0
 687 00ca 294B     		ldr	r3, .L52+16
 129:..\common\ud3core/cli_common.c ****     configuration.ct2_voltage = 4000;
 688              		.loc 1 129 0
 689 00cc 84F84C50 		strb	r5, [r4, #76]
 155:..\common\ud3core/cli_common.c ****     
 690              		.loc 1 155 0
 691 00d0 E366     		str	r3, [r4, #108]	@ float
 131:..\common\ud3core/cli_common.c ****     configuration.ct2_current = 0;
 692              		.loc 1 131 0
 693 00d2 A4F85250 		strh	r5, [r4, #82]	@ movhi
 132:..\common\ud3core/cli_common.c ****     configuration.chargedelay = 1000;
 694              		.loc 1 132 0
ARM GAS  C:\Users\chemi\AppData\Local\Temp\ccFrP3K3.s 			page 24


 695 00d6 A4F84E50 		strh	r5, [r4, #78]	@ movhi
 133:..\common\ud3core/cli_common.c ****     configuration.ivo_uart = UART_IVO_NONE;
 696              		.loc 1 133 0
 697 00da A4F85860 		strh	r6, [r4, #88]	@ movhi
 134:..\common\ud3core/cli_common.c ****     configuration.ext_interrupter = 0;
 698              		.loc 1 134 0
 699 00de 84F85A50 		strb	r5, [r4, #90]
 135:..\common\ud3core/cli_common.c ****     configuration.pca9685 = 0;
 700              		.loc 1 135 0
 701 00e2 84F85B50 		strb	r5, [r4, #91]
 136:..\common\ud3core/cli_common.c ****     configuration.max_fb_errors = 0;
 702              		.loc 1 136 0
 703 00e6 84F85D50 		strb	r5, [r4, #93]
 137:..\common\ud3core/cli_common.c ****     configuration.ivo_led = 0;
 704              		.loc 1 137 0
 705 00ea A4F85E50 		strh	r5, [r4, #94]	@ movhi
 138:..\common\ud3core/cli_common.c ****     configuration.uvlo_analog = 0;
 706              		.loc 1 138 0
 707 00ee 84F86650 		strb	r5, [r4, #102]
 139:..\common\ud3core/cli_common.c ****     
 708              		.loc 1 139 0
 709 00f2 A4F86850 		strh	r5, [r4, #104]	@ movhi
 141:..\common\ud3core/cli_common.c ****     
 710              		.loc 1 141 0
 711 00f6 84F87350 		strb	r5, [r4, #115]
 145:..\common\ud3core/cli_common.c ****     configuration.compressor_sustain = 44;
 712              		.loc 1 145 0
 713 00fa 84F87490 		strb	r9, [r4, #116]
 147:..\common\ud3core/cli_common.c ****     configuration.compressor_maxDutyOffset = 64;
 714              		.loc 1 147 0
 715 00fe 84F87690 		strb	r9, [r4, #118]
 157:..\common\ud3core/cli_common.c ****     configuration.autostart = pdFALSE;
 716              		.loc 1 157 0
 717 0102 FFF7FEFF 		bl	SYS_detect_hw_rev
 718              	.LVL53:
 160:..\common\ud3core/cli_common.c ****     
 719              		.loc 1 160 0
 720 0106 4FF07E53 		mov	r3, #1065353216
 721 010a A367     		str	r3, [r4, #120]	@ float
 162:..\common\ud3core/cli_common.c ****     
 722              		.loc 1 162 0
 723 010c 194B     		ldr	r3, .L52+20
 170:..\common\ud3core/cli_common.c ****     param.tune_delay = 50;
 724              		.loc 1 170 0
 725 010e 3222     		movs	r2, #50
 162:..\common\ud3core/cli_common.c ****     
 726              		.loc 1 162 0
 727 0110 9D71     		strb	r5, [r3, #6]
 164:..\common\ud3core/cli_common.c ****     param.vol = 0;
 728              		.loc 1 164 0
 729 0112 194B     		ldr	r3, .L52+24
 157:..\common\ud3core/cli_common.c ****     configuration.autostart = pdFALSE;
 730              		.loc 1 157 0
 731 0114 84F87000 		strb	r0, [r4, #112]
 170:..\common\ud3core/cli_common.c ****     param.tune_delay = 50;
 732              		.loc 1 170 0
 733 0118 5A81     		strh	r2, [r3, #10]	@ movhi
ARM GAS  C:\Users\chemi\AppData\Local\Temp\ccFrP3K3.s 			page 25


 171:..\common\ud3core/cli_common.c ****     param.offtime = 3;
 734              		.loc 1 171 0
 735 011a 9A81     		strh	r2, [r3, #12]	@ movhi
 172:..\common\ud3core/cli_common.c ****     
 736              		.loc 1 172 0
 737 011c 0322     		movs	r2, #3
 738 011e DA81     		strh	r2, [r3, #14]	@ movhi
 174:..\common\ud3core/cli_common.c ****     param.synth = SYNTH_OFF;
 739              		.loc 1 174 0
 740 0120 6322     		movs	r2, #99
 741 0122 DA82     		strh	r2, [r3, #22]	@ movhi
 178:..\common\ud3core/cli_common.c ****     param.qcw_offset = 0;
 742              		.loc 1 178 0
 743 0124 FF22     		movs	r2, #255
 744 0126 1A75     		strb	r2, [r3, #20]
 180:..\common\ud3core/cli_common.c ****     param.qcw_freq = 5000;
 745              		.loc 1 180 0
 746 0128 C822     		movs	r2, #200
 747 012a 1A82     		strh	r2, [r3, #16]	@ movhi
 181:..\common\ud3core/cli_common.c ****     param.qcw_vol = 0;
 748              		.loc 1 181 0
 749 012c 41F28832 		movw	r2, #5000
 164:..\common\ud3core/cli_common.c ****     param.vol = 0;
 750              		.loc 1 164 0
 751 0130 1D80     		strh	r5, [r3]	@ movhi
 165:..\common\ud3core/cli_common.c ****     param.burst_on = 0;
 752              		.loc 1 165 0
 753 0132 9D80     		strh	r5, [r3, #4]	@ movhi
 166:..\common\ud3core/cli_common.c ****     param.burst_off = 500;
 754              		.loc 1 166 0
 755 0134 9D83     		strh	r5, [r3, #28]	@ movhi
 167:..\common\ud3core/cli_common.c ****     param.tune_start = 400;
 756              		.loc 1 167 0
 757 0136 A3F81E80 		strh	r8, [r3, #30]	@ movhi
 168:..\common\ud3core/cli_common.c ****     param.tune_end = 1000;
 758              		.loc 1 168 0
 759 013a A3F806A0 		strh	r10, [r3, #6]	@ movhi
 169:..\common\ud3core/cli_common.c ****     param.tune_pw = 50;
 760              		.loc 1 169 0
 761 013e 1E81     		strh	r6, [r3, #8]	@ movhi
 175:..\common\ud3core/cli_common.c ****     
 762              		.loc 1 175 0
 763 0140 83F82050 		strb	r5, [r3, #32]
 177:..\common\ud3core/cli_common.c ****     param.qcw_max = 255;
 764              		.loc 1 177 0
 765 0144 9D74     		strb	r5, [r3, #18]
 179:..\common\ud3core/cli_common.c ****     param.qcw_ramp = 200;
 766              		.loc 1 179 0
 767 0146 DD74     		strb	r5, [r3, #19]
 182:..\common\ud3core/cli_common.c ****     
 768              		.loc 1 182 0
 769 0148 9D76     		strb	r5, [r3, #26]
 158:..\common\ud3core/cli_common.c ****     
 770              		.loc 1 158 0
 771 014a 84F87150 		strb	r5, [r4, #113]
 181:..\common\ud3core/cli_common.c ****     param.qcw_vol = 0;
 772              		.loc 1 181 0
ARM GAS  C:\Users\chemi\AppData\Local\Temp\ccFrP3K3.s 			page 26


 773 014e 1A83     		strh	r2, [r3, #24]	@ movhi
 184:..\common\ud3core/cli_common.c ****     
 774              		.loc 1 184 0
 775 0150 FFF7FEFF 		bl	update_ivo
 776              	.LVL54:
 186:..\common\ud3core/cli_common.c ****     qcw_regenerate_ramp();
 777              		.loc 1 186 0
 778 0154 094B     		ldr	r3, .L52+28
 779 0156 1F70     		strb	r7, [r3]
 188:..\common\ud3core/cli_common.c **** 
 780              		.loc 1 188 0
 781 0158 BDE8F047 		pop	{r4, r5, r6, r7, r8, r9, r10, lr}
 782              		.cfi_restore 14
 783              		.cfi_restore 10
 784              		.cfi_restore 9
 785              		.cfi_restore 8
 786              		.cfi_restore 7
 787              		.cfi_restore 6
 788              		.cfi_restore 5
 789              		.cfi_restore 4
 790              		.cfi_def_cfa_offset 0
 187:..\common\ud3core/cli_common.c **** }
 791              		.loc 1 187 0
 792 015c FFF7FEBF 		b	qcw_regenerate_ramp
 793              	.LVL55:
 794              	.L53:
 795              		.align	2
 796              	.L52:
 797 0160 00000000 		.word	configuration
 798 0164 CDCC4C3E 		.word	1045220557
 799 0168 20A10700 		.word	500000
 800 016c BC000000 		.word	.LC8
 801 0170 00007041 		.word	1097859072
 802 0174 00000000 		.word	interrupter
 803 0178 00000000 		.word	param
 804 017c 00000000 		.word	ramp
 805              		.cfi_endproc
 806              	.LFE68:
 807              		.size	init_config, .-init_config
 808              		.section	.text.callback_ivoUART,"ax",%progbits
 809              		.align	1
 810              		.global	callback_ivoUART
 811              		.thumb
 812              		.thumb_func
 813              		.type	callback_ivoUART, %function
 814              	callback_ivoUART:
 815              	.LFB73:
 365:..\common\ud3core/cli_common.c ****     if(configuration.ivo_uart == UART_IVO_NONE || configuration.ivo_uart == UART_IVO_TX || configur
 816              		.loc 1 365 0
 817              		.cfi_startproc
 818              		@ args = 0, pretend = 0, frame = 0
 819              		@ frame_needed = 0, uses_anonymous_args = 0
 820              	.LVL56:
 821 0000 10B5     		push	{r4, lr}
 822              		.cfi_def_cfa_offset 8
 823              		.cfi_offset 4, -8
 824              		.cfi_offset 14, -4
ARM GAS  C:\Users\chemi\AppData\Local\Temp\ccFrP3K3.s 			page 27


 366:..\common\ud3core/cli_common.c ****         update_ivo();   
 825              		.loc 1 366 0
 826 0002 114B     		ldr	r3, .L58
 365:..\common\ud3core/cli_common.c ****     if(configuration.ivo_uart == UART_IVO_NONE || configuration.ivo_uart == UART_IVO_TX || configur
 827              		.loc 1 365 0
 828 0004 1446     		mov	r4, r2
 366:..\common\ud3core/cli_common.c ****         update_ivo();   
 829              		.loc 1 366 0
 830 0006 93F85A30 		ldrb	r3, [r3, #90]	@ zero_extendqisi2
 831 000a 012B     		cmp	r3, #1
 832 000c 02D9     		bls	.L55
 366:..\common\ud3core/cli_common.c ****         update_ivo();   
 833              		.loc 1 366 0 is_stmt 0 discriminator 1
 834 000e 0A3B     		subs	r3, r3, #10
 835 0010 012B     		cmp	r3, #1
 836 0012 03D8     		bhi	.L56
 837              	.L55:
 367:..\common\ud3core/cli_common.c ****         return 1;
 838              		.loc 1 367 0 is_stmt 1
 839 0014 FFF7FEFF 		bl	update_ivo
 840              	.LVL57:
 368:..\common\ud3core/cli_common.c ****     }else{
 841              		.loc 1 368 0
 842 0018 0120     		movs	r0, #1
 843 001a 10BD     		pop	{r4, pc}
 844              	.LVL58:
 845              	.L56:
 846              	.LBB9:
 847              	.LBB10:
 370:..\common\ud3core/cli_common.c ****         ttprintf("0  = no inversion\r\n");
 848              		.loc 1 370 0
 849 001c 536A     		ldr	r3, [r2, #36]
 850 001e 5068     		ldr	r0, [r2, #4]
 851              	.LVL59:
 852 0020 0A49     		ldr	r1, .L58+4
 853              	.LVL60:
 854 0022 9847     		blx	r3
 855              	.LVL61:
 371:..\common\ud3core/cli_common.c ****         ttprintf("1  = rx inverted, tx not inverted\r\n");
 856              		.loc 1 371 0
 857 0024 636A     		ldr	r3, [r4, #36]
 858 0026 0A49     		ldr	r1, .L58+8
 859 0028 6068     		ldr	r0, [r4, #4]
 860 002a 9847     		blx	r3
 861              	.LVL62:
 372:..\common\ud3core/cli_common.c ****         ttprintf("10 = rx not inverted, tx inverted\r\n");
 862              		.loc 1 372 0
 863 002c 636A     		ldr	r3, [r4, #36]
 864 002e 0949     		ldr	r1, .L58+12
 865 0030 6068     		ldr	r0, [r4, #4]
 866 0032 9847     		blx	r3
 867              	.LVL63:
 373:..\common\ud3core/cli_common.c ****         ttprintf("11 = rx and tx inverted\r\n");
 868              		.loc 1 373 0
 869 0034 636A     		ldr	r3, [r4, #36]
 870 0036 0849     		ldr	r1, .L58+16
 871 0038 6068     		ldr	r0, [r4, #4]
ARM GAS  C:\Users\chemi\AppData\Local\Temp\ccFrP3K3.s 			page 28


 872 003a 9847     		blx	r3
 873              	.LVL64:
 374:..\common\ud3core/cli_common.c ****         return 0;
 874              		.loc 1 374 0
 875 003c 636A     		ldr	r3, [r4, #36]
 876 003e 0749     		ldr	r1, .L58+20
 877 0040 6068     		ldr	r0, [r4, #4]
 878 0042 9847     		blx	r3
 879              	.LVL65:
 880 0044 0020     		movs	r0, #0
 881              	.LBE10:
 882              	.LBE9:
 377:..\common\ud3core/cli_common.c **** 
 883              		.loc 1 377 0
 884 0046 10BD     		pop	{r4, pc}
 885              	.LVL66:
 886              	.L59:
 887              		.align	2
 888              	.L58:
 889 0048 00000000 		.word	configuration
 890 004c C6000000 		.word	.LC9
 891 0050 F3000000 		.word	.LC10
 892 0054 07010000 		.word	.LC11
 893 0058 2B010000 		.word	.LC12
 894 005c 4F010000 		.word	.LC13
 895              		.cfi_endproc
 896              	.LFE73:
 897              		.size	callback_ivoUART, .-callback_ivoUART
 898              		.section	.text.callback_ivoLED,"ax",%progbits
 899              		.align	1
 900              		.global	callback_ivoLED
 901              		.thumb
 902              		.thumb_func
 903              		.type	callback_ivoLED, %function
 904              	callback_ivoLED:
 905              	.LFB74:
 379:..\common\ud3core/cli_common.c ****     update_ivo();
 906              		.loc 1 379 0
 907              		.cfi_startproc
 908              		@ args = 0, pretend = 0, frame = 0
 909              		@ frame_needed = 0, uses_anonymous_args = 0
 910              	.LVL67:
 911 0000 08B5     		push	{r3, lr}
 912              		.cfi_def_cfa_offset 8
 913              		.cfi_offset 3, -8
 914              		.cfi_offset 14, -4
 380:..\common\ud3core/cli_common.c ****     return 1;
 915              		.loc 1 380 0
 916 0002 FFF7FEFF 		bl	update_ivo
 917              	.LVL68:
 382:..\common\ud3core/cli_common.c **** 
 918              		.loc 1 382 0
 919 0006 0120     		movs	r0, #1
 920 0008 08BD     		pop	{r3, pc}
 921              		.cfi_endproc
 922              	.LFE74:
 923              		.size	callback_ivoLED, .-callback_ivoLED
ARM GAS  C:\Users\chemi\AppData\Local\Temp\ccFrP3K3.s 			page 29


 924              		.section	.text.callback_VisibleFunction,"ax",%progbits
 925              		.align	1
 926              		.global	callback_VisibleFunction
 927              		.thumb
 928              		.thumb_func
 929              		.type	callback_VisibleFunction, %function
 930              	callback_VisibleFunction:
 931              	.LFB75:
 388:..\common\ud3core/cli_common.c ****     update_visibilty();
 932              		.loc 1 388 0
 933              		.cfi_startproc
 934              		@ args = 0, pretend = 0, frame = 0
 935              		@ frame_needed = 0, uses_anonymous_args = 0
 936              	.LVL69:
 937 0000 08B5     		push	{r3, lr}
 938              		.cfi_def_cfa_offset 8
 939              		.cfi_offset 3, -8
 940              		.cfi_offset 14, -4
 389:..\common\ud3core/cli_common.c ****     return 1;
 941              		.loc 1 389 0
 942 0002 FFF7FEFF 		bl	update_visibilty
 943              	.LVL70:
 391:..\common\ud3core/cli_common.c **** 
 944              		.loc 1 391 0
 945 0006 0120     		movs	r0, #1
 946 0008 08BD     		pop	{r3, pc}
 947              		.cfi_endproc
 948              	.LFE75:
 949              		.size	callback_VisibleFunction, .-callback_VisibleFunction
 950              		.global	__aeabi_ui2f
 951              		.global	__aeabi_fdiv
 952              		.global	__aeabi_f2d
 953              		.global	__aeabi_ddiv
 954              		.global	__aeabi_d2uiz
 955              		.global	__aeabi_fsub
 956              		.global	__aeabi_fcmplt
 957              		.section	.text.uart_baudrate,"ax",%progbits
 958              		.align	1
 959              		.global	uart_baudrate
 960              		.thumb
 961              		.thumb_func
 962              		.type	uart_baudrate, %function
 963              	uart_baudrate:
 964              	.LFB78:
 435:..\common\ud3core/cli_common.c ****     float divider = (float)(BCLK__BUS_CLK__HZ/8)/(float)baudrate;
 965              		.loc 1 435 0
 966              		.cfi_startproc
 967              		@ args = 0, pretend = 0, frame = 0
 968              		@ frame_needed = 0, uses_anonymous_args = 0
 969              	.LVL71:
 970 0000 2DE9F047 		push	{r4, r5, r6, r7, r8, r9, r10, lr}
 971              		.cfi_def_cfa_offset 32
 972              		.cfi_offset 4, -32
 973              		.cfi_offset 5, -28
 974              		.cfi_offset 6, -24
 975              		.cfi_offset 7, -20
 976              		.cfi_offset 8, -16
ARM GAS  C:\Users\chemi\AppData\Local\Temp\ccFrP3K3.s 			page 30


 977              		.cfi_offset 9, -12
 978              		.cfi_offset 10, -8
 979              		.cfi_offset 14, -4
 435:..\common\ud3core/cli_common.c ****     float divider = (float)(BCLK__BUS_CLK__HZ/8)/(float)baudrate;
 980              		.loc 1 435 0
 981 0004 0446     		mov	r4, r0
 436:..\common\ud3core/cli_common.c ****     uint16_t divider_selected=1;
 982              		.loc 1 436 0
 983 0006 FFF7FEFF 		bl	__aeabi_ui2f
 984              	.LVL72:
 985 000a 0546     		mov	r5, r0
 986              	.LVL73:
 439:..\common\ud3core/cli_common.c ****     uint32_t up_rate = (BCLK__BUS_CLK__HZ/8)/ceil(divider);
 987              		.loc 1 439 0
 988 000c 0146     		mov	r1, r0
 989 000e 2E48     		ldr	r0, .L69+8
 990              	.LVL74:
 991 0010 FFF7FEFF 		bl	__aeabi_fdiv
 992              	.LVL75:
 993 0014 FFF7FEFF 		bl	__aeabi_f2d
 994              	.LVL76:
 995 0018 0646     		mov	r6, r0
 996 001a 0F46     		mov	r7, r1
 997 001c FFF7FEFF 		bl	floor
 998              	.LVL77:
 999 0020 8046     		mov	r8, r0
 1000 0022 8946     		mov	r9, r1
 1001              	.LVL78:
 440:..\common\ud3core/cli_common.c ****    
 1002              		.loc 1 440 0
 1003 0024 3046     		mov	r0, r6
 1004 0026 3946     		mov	r1, r7
 1005 0028 FFF7FEFF 		bl	ceil
 1006              	.LVL79:
 1007 002c 0646     		mov	r6, r0
 1008 002e 0F46     		mov	r7, r1
 1009              	.LVL80:
 445:..\common\ud3core/cli_common.c ****     if(fabs(down_rate_error) < fabs(up_rate_error)){
 1010              		.loc 1 445 0
 1011 0030 FFF7FEFF 		bl	UART_Stop
 1012              	.LVL81:
 446:..\common\ud3core/cli_common.c ****         //selected round down divider
 1013              		.loc 1 446 0
 1014 0034 22A1     		adr	r1, .L69
 1015 0036 D1E90001 		ldrd	r0, [r1]
 1016 003a 4246     		mov	r2, r8
 1017 003c 4B46     		mov	r3, r9
 1018 003e FFF7FEFF 		bl	__aeabi_ddiv
 1019              	.LVL82:
 1020 0042 FFF7FEFF 		bl	__aeabi_d2uiz
 1021              	.LVL83:
 1022 0046 FFF7FEFF 		bl	__aeabi_ui2f
 1023              	.LVL84:
 1024 004a 2946     		mov	r1, r5
 1025 004c FFF7FEFF 		bl	__aeabi_fdiv
 1026              	.LVL85:
 1027 0050 4FF07E51 		mov	r1, #1065353216
ARM GAS  C:\Users\chemi\AppData\Local\Temp\ccFrP3K3.s 			page 31


 1028 0054 FFF7FEFF 		bl	__aeabi_fsub
 1029              	.LVL86:
 1030 0058 3246     		mov	r2, r6
 1031 005a 3B46     		mov	r3, r7
 1032 005c 20F0004A 		bic	r10, r0, #-2147483648
 1033 0060 17A1     		adr	r1, .L69
 1034 0062 D1E90001 		ldrd	r0, [r1]
 1035 0066 FFF7FEFF 		bl	__aeabi_ddiv
 1036              	.LVL87:
 1037 006a FFF7FEFF 		bl	__aeabi_d2uiz
 1038              	.LVL88:
 1039 006e FFF7FEFF 		bl	__aeabi_ui2f
 1040              	.LVL89:
 1041 0072 2946     		mov	r1, r5
 1042 0074 FFF7FEFF 		bl	__aeabi_fdiv
 1043              	.LVL90:
 1044 0078 4FF07E51 		mov	r1, #1065353216
 1045 007c FFF7FEFF 		bl	__aeabi_fsub
 1046              	.LVL91:
 1047 0080 20F00041 		bic	r1, r0, #-2147483648
 1048 0084 5046     		mov	r0, r10
 1049 0086 FFF7FEFF 		bl	__aeabi_fcmplt
 1050              	.LVL92:
 1051 008a 10B1     		cbz	r0, .L67
 448:..\common\ud3core/cli_common.c ****     }else{
 1052              		.loc 1 448 0
 1053 008c 4046     		mov	r0, r8
 1054 008e 4946     		mov	r1, r9
 1055 0090 01E0     		b	.L68
 1056              	.L67:
 451:..\common\ud3core/cli_common.c ****     }
 1057              		.loc 1 451 0
 1058 0092 3046     		mov	r0, r6
 1059 0094 3946     		mov	r1, r7
 1060              	.L68:
 1061 0096 FFF7FEFF 		bl	__aeabi_d2uiz
 1062              	.LVL93:
 1063 009a 80B2     		uxth	r0, r0
 1064              	.LVL94:
 454:..\common\ud3core/cli_common.c ****     
 1065              		.loc 1 454 0
 1066 009c 0138     		subs	r0, r0, #1
 1067              	.LVL95:
 1068 009e 80B2     		uxth	r0, r0
 1069              	.LVL96:
 1070 00a0 0121     		movs	r1, #1
 1071 00a2 FFF7FEFF 		bl	UART_CLK_SetDividerRegister
 1072              	.LVL97:
 456:..\common\ud3core/cli_common.c ****     tt.n.tx_datarate.max = baudrate / 8;
 1073              		.loc 1 456 0
 1074 00a6 094B     		ldr	r3, .L69+12
 1075 00a8 E008     		lsrs	r0, r4, #3
 1076 00aa C3F8B001 		str	r0, [r3, #432]
 457:..\common\ud3core/cli_common.c ****     
 1077              		.loc 1 457 0
 1078 00ae C3F89001 		str	r0, [r3, #400]
 461:..\common\ud3core/cli_common.c **** 
ARM GAS  C:\Users\chemi\AppData\Local\Temp\ccFrP3K3.s 			page 32


 1079              		.loc 1 461 0
 1080 00b2 BDE8F047 		pop	{r4, r5, r6, r7, r8, r9, r10, lr}
 1081              		.cfi_restore 14
 1082              		.cfi_restore 10
 1083              		.cfi_restore 9
 1084              		.cfi_restore 8
 1085              		.cfi_restore 7
 1086              		.cfi_restore 6
 1087              		.cfi_restore 5
 1088              		.cfi_restore 4
 1089              		.cfi_def_cfa_offset 0
 1090              	.LVL98:
 459:..\common\ud3core/cli_common.c ****     
 1091              		.loc 1 459 0
 1092 00b6 FFF7FEBF 		b	UART_Start
 1093              	.LVL99:
 1094              	.L70:
 1095 00ba 00BFAFF3 		.align	3
 1095      0080
 1096              	.L69:
 1097 00c0 00000000 		.word	0
 1098 00c4 80845E41 		.word	1096713344
 1099 00c8 0024F44A 		.word	1257513984
 1100 00cc 00000000 		.word	tt
 1101              		.cfi_endproc
 1102              	.LFE78:
 1103              		.size	uart_baudrate, .-uart_baudrate
 1104              		.section	.text.eeprom_load,"ax",%progbits
 1105              		.align	1
 1106              		.global	eeprom_load
 1107              		.thumb
 1108              		.thumb_func
 1109              		.type	eeprom_load, %function
 1110              	eeprom_load:
 1111              	.LFB69:
 281:..\common\ud3core/cli_common.c ****     EEPROM_read_conf(confparam, PARAM_SIZE(confparam) ,0,handle);
 1112              		.loc 1 281 0
 1113              		.cfi_startproc
 1114              		@ args = 0, pretend = 0, frame = 0
 1115              		@ frame_needed = 0, uses_anonymous_args = 0
 1116              	.LVL100:
 1117 0000 10B5     		push	{r4, lr}
 1118              		.cfi_def_cfa_offset 8
 1119              		.cfi_offset 4, -8
 1120              		.cfi_offset 14, -4
 281:..\common\ud3core/cli_common.c ****     EEPROM_read_conf(confparam, PARAM_SIZE(confparam) ,0,handle);
 1121              		.loc 1 281 0
 1122 0002 0446     		mov	r4, r0
 282:..\common\ud3core/cli_common.c ****     if(param.offtime<3) param.offtime=3;
 1123              		.loc 1 282 0
 1124 0004 5021     		movs	r1, #80
 1125 0006 0346     		mov	r3, r0
 1126 0008 0022     		movs	r2, #0
 1127 000a 1448     		ldr	r0, .L73
 1128              	.LVL101:
 1129 000c FFF7FEFF 		bl	EEPROM_read_conf
 1130              	.LVL102:
ARM GAS  C:\Users\chemi\AppData\Local\Temp\ccFrP3K3.s 			page 33


 283:..\common\ud3core/cli_common.c ****     update_ivo();
 1131              		.loc 1 283 0
 1132 0010 134B     		ldr	r3, .L73+4
 1133 0012 DA89     		ldrh	r2, [r3, #14]
 1134 0014 022A     		cmp	r2, #2
 1135 0016 9CBF     		itt	ls
 1136 0018 0322     		movls	r2, #3
 1137 001a DA81     		strhls	r2, [r3, #14]	@ movhi
 284:..\common\ud3core/cli_common.c ****     update_visibilty();
 1138              		.loc 1 284 0
 1139 001c FFF7FEFF 		bl	update_ivo
 1140              	.LVL103:
 285:..\common\ud3core/cli_common.c ****     uart_baudrate(configuration.baudrate);
 1141              		.loc 1 285 0
 1142 0020 FFF7FEFF 		bl	update_visibilty
 1143              	.LVL104:
 286:..\common\ud3core/cli_common.c ****     ramp.changed = pdTRUE;
 1144              		.loc 1 286 0
 1145 0024 0F4B     		ldr	r3, .L73+8
 1146 0026 986C     		ldr	r0, [r3, #72]
 1147 0028 FFF7FEFF 		bl	uart_baudrate
 1148              	.LVL105:
 287:..\common\ud3core/cli_common.c ****     qcw_regenerate_ramp();
 1149              		.loc 1 287 0
 1150 002c 0E4B     		ldr	r3, .L73+12
 1151 002e 0122     		movs	r2, #1
 1152 0030 1A70     		strb	r2, [r3]
 288:..\common\ud3core/cli_common.c ****     init_telemetry();
 1153              		.loc 1 288 0
 1154 0032 FFF7FEFF 		bl	qcw_regenerate_ramp
 1155              	.LVL106:
 289:..\common\ud3core/cli_common.c ****     callback_temp_pid(confparam,0,handle);
 1156              		.loc 1 289 0
 1157 0036 FFF7FEFF 		bl	init_telemetry
 1158              	.LVL107:
 290:..\common\ud3core/cli_common.c ****     callback_ext_interrupter(confparam,0,handle);
 1159              		.loc 1 290 0
 1160 003a 2246     		mov	r2, r4
 1161 003c 0021     		movs	r1, #0
 1162 003e 0748     		ldr	r0, .L73
 1163 0040 FFF7FEFF 		bl	callback_temp_pid
 1164              	.LVL108:
 291:..\common\ud3core/cli_common.c ****     callback_ConfigFunction(confparam,0,handle);
 1165              		.loc 1 291 0
 1166 0044 2246     		mov	r2, r4
 1167 0046 0021     		movs	r1, #0
 1168 0048 0448     		ldr	r0, .L73
 1169 004a FFF7FEFF 		bl	callback_ext_interrupter
 1170              	.LVL109:
 292:..\common\ud3core/cli_common.c **** }
 1171              		.loc 1 292 0
 1172 004e 2246     		mov	r2, r4
 293:..\common\ud3core/cli_common.c **** 
 1173              		.loc 1 293 0
 1174 0050 BDE81040 		pop	{r4, lr}
 1175              		.cfi_restore 14
 1176              		.cfi_restore 4
ARM GAS  C:\Users\chemi\AppData\Local\Temp\ccFrP3K3.s 			page 34


 1177              		.cfi_def_cfa_offset 0
 1178              	.LVL110:
 292:..\common\ud3core/cli_common.c **** }
 1179              		.loc 1 292 0
 1180 0054 0021     		movs	r1, #0
 1181 0056 0148     		ldr	r0, .L73
 1182 0058 FFF7FEBF 		b	callback_ConfigFunction
 1183              	.LVL111:
 1184              	.L74:
 1185              		.align	2
 1186              	.L73:
 1187 005c 00000000 		.word	.LANCHOR0
 1188 0060 00000000 		.word	param
 1189 0064 00000000 		.word	configuration
 1190 0068 00000000 		.word	ramp
 1191              		.cfi_endproc
 1192              	.LFE69:
 1193              		.size	eeprom_load, .-eeprom_load
 1194              		.section	.text.callback_baudrateFunction,"ax",%progbits
 1195              		.align	1
 1196              		.global	callback_baudrateFunction
 1197              		.thumb
 1198              		.thumb_func
 1199              		.type	callback_baudrateFunction, %function
 1200              	callback_baudrateFunction:
 1201              	.LFB79:
 463:..\common\ud3core/cli_common.c ****     uart_baudrate(configuration.baudrate);
 1202              		.loc 1 463 0
 1203              		.cfi_startproc
 1204              		@ args = 0, pretend = 0, frame = 0
 1205              		@ frame_needed = 0, uses_anonymous_args = 0
 1206              	.LVL112:
 1207 0000 08B5     		push	{r3, lr}
 1208              		.cfi_def_cfa_offset 8
 1209              		.cfi_offset 3, -8
 1210              		.cfi_offset 14, -4
 464:..\common\ud3core/cli_common.c ****  
 1211              		.loc 1 464 0
 1212 0002 034B     		ldr	r3, .L76
 1213 0004 986C     		ldr	r0, [r3, #72]
 1214              	.LVL113:
 1215 0006 FFF7FEFF 		bl	uart_baudrate
 1216              	.LVL114:
 467:..\common\ud3core/cli_common.c **** 
 1217              		.loc 1 467 0
 1218 000a 0120     		movs	r0, #1
 1219 000c 08BD     		pop	{r3, pc}
 1220              	.L77:
 1221 000e 00BF     		.align	2
 1222              	.L76:
 1223 0010 00000000 		.word	configuration
 1224              		.cfi_endproc
 1225              	.LFE79:
 1226              		.size	callback_baudrateFunction, .-callback_baudrateFunction
 1227              		.section	.text.callback_DefaultFunction,"ax",%progbits
 1228              		.align	1
 1229              		.global	callback_DefaultFunction
ARM GAS  C:\Users\chemi\AppData\Local\Temp\ccFrP3K3.s 			page 35


 1230              		.thumb
 1231              		.thumb_func
 1232              		.type	callback_DefaultFunction, %function
 1233              	callback_DefaultFunction:
 1234              	.LFB81:
 505:..\common\ud3core/cli_common.c **** 
 506:..\common\ud3core/cli_common.c **** /*****************************************************************************
 507:..\common\ud3core/cli_common.c **** * Default function if a parameter is changes (not used)
 508:..\common\ud3core/cli_common.c **** ******************************************************************************/
 509:..\common\ud3core/cli_common.c **** uint8_t callback_DefaultFunction(parameter_entry * params, uint8_t index, TERMINAL_HANDLE * handle)
 1235              		.loc 1 509 0
 1236              		.cfi_startproc
 1237              		@ args = 0, pretend = 0, frame = 0
 1238              		@ frame_needed = 0, uses_anonymous_args = 0
 1239              		@ link register save eliminated.
 1240              	.LVL115:
 510:..\common\ud3core/cli_common.c ****     
 511:..\common\ud3core/cli_common.c ****     return 1;
 512:..\common\ud3core/cli_common.c **** }
 1241              		.loc 1 512 0
 1242 0000 0120     		movs	r0, #1
 1243              	.LVL116:
 1244 0002 7047     		bx	lr
 1245              		.cfi_endproc
 1246              	.LFE81:
 1247              		.size	callback_DefaultFunction, .-callback_DefaultFunction
 1248              		.section	.text.con_info,"ax",%progbits
 1249              		.align	1
 1250              		.global	con_info
 1251              		.thumb
 1252              		.thumb_func
 1253              		.type	con_info, %function
 1254              	con_info:
 1255              	.LFB82:
 513:..\common\ud3core/cli_common.c **** 
 514:..\common\ud3core/cli_common.c **** 
 515:..\common\ud3core/cli_common.c **** void con_info(TERMINAL_HANDLE * handle){
 1256              		.loc 1 515 0
 1257              		.cfi_startproc
 1258              		@ args = 0, pretend = 0, frame = 0
 1259              		@ frame_needed = 0, uses_anonymous_args = 0
 1260              	.LVL117:
 1261 0000 70B5     		push	{r4, r5, r6, lr}
 1262              		.cfi_def_cfa_offset 16
 1263              		.cfi_offset 4, -16
 1264              		.cfi_offset 5, -12
 1265              		.cfi_offset 6, -8
 1266              		.cfi_offset 14, -4
 1267              		.loc 1 515 0
 1268 0002 0446     		mov	r4, r0
 516:..\common\ud3core/cli_common.c ****     #define COL_A 9
 517:..\common\ud3core/cli_common.c ****     #define COL_B 15
 518:..\common\ud3core/cli_common.c ****     ttprintf("\r\nConnected clients:\r\n");
 1269              		.loc 1 518 0
 1270 0004 436A     		ldr	r3, [r0, #36]
 1271 0006 1D49     		ldr	r1, .L83
 1272 0008 4068     		ldr	r0, [r0, #4]
ARM GAS  C:\Users\chemi\AppData\Local\Temp\ccFrP3K3.s 			page 36


 1273              	.LVL118:
 1274 000a 9847     		blx	r3
 1275              	.LVL119:
 519:..\common\ud3core/cli_common.c ****     TERM_sendVT100Code(handle, _VT100_CURSOR_SET_COLUMN, COL_A);
 1276              		.loc 1 519 0
 1277 000c 0922     		movs	r2, #9
 1278 000e 1A21     		movs	r1, #26
 1279 0010 2046     		mov	r0, r4
 1280 0012 FFF7FEFF 		bl	TERM_sendVT100Code
 1281              	.LVL120:
 520:..\common\ud3core/cli_common.c ****     ttprintf("Num");
 1282              		.loc 1 520 0
 1283 0016 636A     		ldr	r3, [r4, #36]
 1284 0018 1949     		ldr	r1, .L83+4
 1285 001a 6068     		ldr	r0, [r4, #4]
 1286 001c 9847     		blx	r3
 1287              	.LVL121:
 521:..\common\ud3core/cli_common.c ****     TERM_sendVT100Code(handle, _VT100_CURSOR_SET_COLUMN, COL_B);
 1288              		.loc 1 521 0
 1289 001e 0F22     		movs	r2, #15
 1290 0020 1A21     		movs	r1, #26
 1291 0022 2046     		mov	r0, r4
 1292 0024 FFF7FEFF 		bl	TERM_sendVT100Code
 1293              	.LVL122:
 522:..\common\ud3core/cli_common.c ****     ttprintf("| Remote IP\r\n");
 1294              		.loc 1 522 0
 1295 0028 636A     		ldr	r3, [r4, #36]
 1296 002a 1649     		ldr	r1, .L83+8
 1297 002c 6068     		ldr	r0, [r4, #4]
 1298 002e 9847     		blx	r3
 1299              	.LVL123:
 1300 0030 154E     		ldr	r6, .L83+12
 1301 0032 0025     		movs	r5, #0
 1302              	.LVL124:
 1303              	.L81:
 1304              	.LBB11:
 523:..\common\ud3core/cli_common.c ****     
 524:..\common\ud3core/cli_common.c ****     for(uint8_t i=0;i<NUM_MIN_CON;i++){
 525:..\common\ud3core/cli_common.c ****         if(socket_info[i].socket==SOCKET_CONNECTED){
 1305              		.loc 1 525 0
 1306 0034 16F8023C 		ldrb	r3, [r6, #-2]	@ zero_extendqisi2
 1307 0038 012B     		cmp	r3, #1
 1308 003a 13D1     		bne	.L80
 526:..\common\ud3core/cli_common.c ****             TERM_sendVT100Code(handle, _VT100_CURSOR_SET_COLUMN, COL_A);
 1309              		.loc 1 526 0
 1310 003c 0922     		movs	r2, #9
 1311 003e 1A21     		movs	r1, #26
 1312 0040 2046     		mov	r0, r4
 1313 0042 FFF7FEFF 		bl	TERM_sendVT100Code
 1314              	.LVL125:
 527:..\common\ud3core/cli_common.c ****             ttprintf("\033[36m%d", i);
 1315              		.loc 1 527 0
 1316 0046 636A     		ldr	r3, [r4, #36]
 1317 0048 2A46     		mov	r2, r5
 1318 004a 1049     		ldr	r1, .L83+16
 1319 004c 6068     		ldr	r0, [r4, #4]
 1320 004e 9847     		blx	r3
ARM GAS  C:\Users\chemi\AppData\Local\Temp\ccFrP3K3.s 			page 37


 1321              	.LVL126:
 528:..\common\ud3core/cli_common.c ****             TERM_sendVT100Code(handle, _VT100_CURSOR_SET_COLUMN, COL_B);
 1322              		.loc 1 528 0
 1323 0050 0F22     		movs	r2, #15
 1324 0052 1A21     		movs	r1, #26
 1325 0054 2046     		mov	r0, r4
 1326 0056 FFF7FEFF 		bl	TERM_sendVT100Code
 1327              	.LVL127:
 529:..\common\ud3core/cli_common.c ****             ttprintf("\033[32m%s\r\n", socket_info[i].info);
 1328              		.loc 1 529 0
 1329 005a 636A     		ldr	r3, [r4, #36]
 1330 005c 3246     		mov	r2, r6
 1331 005e 0C49     		ldr	r1, .L83+20
 1332 0060 6068     		ldr	r0, [r4, #4]
 1333 0062 9847     		blx	r3
 1334              	.LVL128:
 1335              	.L80:
 1336 0064 0135     		adds	r5, r5, #1
 1337              	.LVL129:
 524:..\common\ud3core/cli_common.c ****         if(socket_info[i].socket==SOCKET_CONNECTED){
 1338              		.loc 1 524 0 discriminator 2
 1339 0066 042D     		cmp	r5, #4
 1340 0068 06F11206 		add	r6, r6, #18
 1341 006c E2D1     		bne	.L81
 1342              	.LBE11:
 530:..\common\ud3core/cli_common.c ****         }
 531:..\common\ud3core/cli_common.c ****     }
 532:..\common\ud3core/cli_common.c ****     TERM_sendVT100Code(handle, _VT100_FOREGROUND_COLOR, _VT100_WHITE);
 1343              		.loc 1 532 0
 1344 006e 2046     		mov	r0, r4
 533:..\common\ud3core/cli_common.c **** }
 1345              		.loc 1 533 0
 1346 0070 BDE87040 		pop	{r4, r5, r6, lr}
 1347              		.cfi_restore 14
 1348              		.cfi_restore 6
 1349              		.cfi_restore 5
 1350              		.cfi_restore 4
 1351              		.cfi_def_cfa_offset 0
 1352              	.LVL130:
 532:..\common\ud3core/cli_common.c **** }
 1353              		.loc 1 532 0
 1354 0074 0722     		movs	r2, #7
 1355 0076 0221     		movs	r1, #2
 1356 0078 FFF7FEBF 		b	TERM_sendVT100Code
 1357              	.LVL131:
 1358              	.L84:
 1359              		.align	2
 1360              	.L83:
 1361 007c 69010000 		.word	.LC14
 1362 0080 80010000 		.word	.LC15
 1363 0084 84010000 		.word	.LC16
 1364 0088 02000000 		.word	socket_info+2
 1365 008c 92010000 		.word	.LC17
 1366 0090 9A010000 		.word	.LC18
 1367              		.cfi_endproc
 1368              	.LFE82:
 1369              		.size	con_info, .-con_info
ARM GAS  C:\Users\chemi\AppData\Local\Temp\ccFrP3K3.s 			page 38


 1370              		.section	.text.con_numcon,"ax",%progbits
 1371              		.align	1
 1372              		.global	con_numcon
 1373              		.thumb
 1374              		.thumb_func
 1375              		.type	con_numcon, %function
 1376              	con_numcon:
 1377              	.LFB83:
 534:..\common\ud3core/cli_common.c **** 
 535:..\common\ud3core/cli_common.c **** void con_numcon(TERMINAL_HANDLE * handle){
 1378              		.loc 1 535 0
 1379              		.cfi_startproc
 1380              		@ args = 0, pretend = 0, frame = 0
 1381              		@ frame_needed = 0, uses_anonymous_args = 0
 1382              		@ link register save eliminated.
 1383              	.LVL132:
 1384 0000 0023     		movs	r3, #0
 536:..\common\ud3core/cli_common.c ****     uint8_t cnt=0;
 1385              		.loc 1 536 0
 1386 0002 1A46     		mov	r2, r3
 535:..\common\ud3core/cli_common.c ****     uint8_t cnt=0;
 1387              		.loc 1 535 0
 1388 0004 10B4     		push	{r4}
 1389              		.cfi_def_cfa_offset 4
 1390              		.cfi_offset 4, -4
 1391              	.LBB12:
 537:..\common\ud3core/cli_common.c ****     for(uint8_t i=0;i<NUM_MIN_CON;i++){
 538:..\common\ud3core/cli_common.c ****         if(socket_info[i].socket==SOCKET_CONNECTED){
 1392              		.loc 1 538 0
 1393 0006 0849     		ldr	r1, .L89
 1394              	.LVL133:
 1395              	.L87:
 1396 0008 5C5C     		ldrb	r4, [r3, r1]	@ zero_extendqisi2
 1397 000a 1233     		adds	r3, r3, #18
 1398 000c 012C     		cmp	r4, #1
 539:..\common\ud3core/cli_common.c ****             cnt++;
 1399              		.loc 1 539 0
 1400 000e 04BF     		itt	eq
 1401 0010 0132     		addeq	r2, r2, #1
 1402              	.LVL134:
 1403 0012 D2B2     		uxtbeq	r2, r2
 1404              	.LVL135:
 537:..\common\ud3core/cli_common.c ****     for(uint8_t i=0;i<NUM_MIN_CON;i++){
 1405              		.loc 1 537 0
 1406 0014 482B     		cmp	r3, #72
 1407 0016 F7D1     		bne	.L87
 1408              	.LBE12:
 540:..\common\ud3core/cli_common.c ****         }
 541:..\common\ud3core/cli_common.c ****     }
 542:..\common\ud3core/cli_common.c ****     ttprintf("CLI-Sessions: %u/%u\r\n",cnt ,NUM_MIN_CON);
 1409              		.loc 1 542 0
 1410 0018 446A     		ldr	r4, [r0, #36]
 1411 001a 0423     		movs	r3, #4
 1412 001c A446     		mov	ip, r4
 1413 001e 0349     		ldr	r1, .L89+4
 1414 0020 4068     		ldr	r0, [r0, #4]
 1415              	.LVL136:
ARM GAS  C:\Users\chemi\AppData\Local\Temp\ccFrP3K3.s 			page 39


 543:..\common\ud3core/cli_common.c **** }
 1416              		.loc 1 543 0
 1417 0022 10BC     		pop	{r4}
 1418              		.cfi_restore 4
 1419              		.cfi_def_cfa_offset 0
 542:..\common\ud3core/cli_common.c **** }
 1420              		.loc 1 542 0
 1421 0024 6047     		bx	ip
 1422              	.LVL137:
 1423              	.L90:
 1424 0026 00BF     		.align	2
 1425              	.L89:
 1426 0028 00000000 		.word	socket_info
 1427 002c A4010000 		.word	.LC19
 1428              		.cfi_endproc
 1429              	.LFE83:
 1430              		.size	con_numcon, .-con_numcon
 1431              		.section	.text.con_minstat,"ax",%progbits
 1432              		.align	1
 1433              		.global	con_minstat
 1434              		.thumb
 1435              		.thumb_func
 1436              		.type	con_minstat, %function
 1437              	con_minstat:
 1438              	.LFB84:
 544:..\common\ud3core/cli_common.c **** 
 545:..\common\ud3core/cli_common.c **** /*****************************************************************************
 546:..\common\ud3core/cli_common.c **** * Displays the statistics of the min protocol
 547:..\common\ud3core/cli_common.c **** ******************************************************************************/
 548:..\common\ud3core/cli_common.c **** uint8_t con_minstat(TERMINAL_HANDLE * handle){
 1439              		.loc 1 548 0
 1440              		.cfi_startproc
 1441              		@ args = 0, pretend = 0, frame = 0
 1442              		@ frame_needed = 0, uses_anonymous_args = 0
 1443              	.LVL138:
 1444 0000 2DE9F041 		push	{r4, r5, r6, r7, r8, lr}
 1445              		.cfi_def_cfa_offset 24
 1446              		.cfi_offset 4, -24
 1447              		.cfi_offset 5, -20
 1448              		.cfi_offset 6, -16
 1449              		.cfi_offset 7, -12
 1450              		.cfi_offset 8, -8
 1451              		.cfi_offset 14, -4
 1452              		.loc 1 548 0
 1453 0004 0446     		mov	r4, r0
 549:..\common\ud3core/cli_common.c ****     TERM_sendVT100Code(handle, _VT100_CLS,0);
 1454              		.loc 1 549 0
 1455 0006 0022     		movs	r2, #0
 1456 0008 1B21     		movs	r1, #27
 1457 000a FFF7FEFF 		bl	TERM_sendVT100Code
 1458              	.LVL139:
 550:..\common\ud3core/cli_common.c ****     TERM_sendVT100Code(handle, _VT100_CURSOR_DISABLE,0);
 1459              		.loc 1 550 0
 1460 000e 0022     		movs	r2, #0
 1461 0010 1921     		movs	r1, #25
 1462 0012 2046     		mov	r0, r4
 1463 0014 FFF7FEFF 		bl	TERM_sendVT100Code
ARM GAS  C:\Users\chemi\AppData\Local\Temp\ccFrP3K3.s 			page 40


 1464              	.LVL140:
 1465 0018 564D     		ldr	r5, .L101
 1466 001a 574E     		ldr	r6, .L101+4
 1467              	.L94:
 1468              	.LBB13:
 551:..\common\ud3core/cli_common.c ****   
 552:..\common\ud3core/cli_common.c ****     while(true){
 553:..\common\ud3core/cli_common.c **** 
 554:..\common\ud3core/cli_common.c ****         uint8_t c = getch(handle, 200 /portTICK_RATE_MS);
 1469              		.loc 1 554 0
 1470 001c C821     		movs	r1, #200
 1471 001e 2046     		mov	r0, r4
 1472 0020 FFF7FEFF 		bl	getch
 1473              	.LVL141:
 555:..\common\ud3core/cli_common.c ****         if(c == CTRL_C || c == 'q'){  //0x03 = CTRL+C
 1474              		.loc 1 555 0
 1475 0024 0328     		cmp	r0, #3
 1476 0026 00F09C80 		beq	.L92
 1477              		.loc 1 555 0 is_stmt 0 discriminator 1
 1478 002a 7128     		cmp	r0, #113
 1479 002c 00F09980 		beq	.L92
 556:..\common\ud3core/cli_common.c ****             break;   
 557:..\common\ud3core/cli_common.c ****         }else if ( c == 'r'){
 1480              		.loc 1 557 0 is_stmt 1
 1481 0030 7228     		cmp	r0, #114
 1482 0032 0DD1     		bne	.L93
 558:..\common\ud3core/cli_common.c ****             min_ctx.transport_fifo.dropped_frames = 0;
 1483              		.loc 1 558 0
 1484 0034 0023     		movs	r3, #0
 1485 0036 C5F8CC30 		str	r3, [r5, #204]
 559:..\common\ud3core/cli_common.c ****             min_ctx.transport_fifo.spurious_acks = 0;
 1486              		.loc 1 559 0
 1487 003a C5F8D030 		str	r3, [r5, #208]
 560:..\common\ud3core/cli_common.c ****             min_ctx.transport_fifo.resets_received = 0;
 1488              		.loc 1 560 0
 1489 003e C5F8D830 		str	r3, [r5, #216]
 561:..\common\ud3core/cli_common.c ****             min_ctx.transport_fifo.sequence_mismatch_drop = 0;
 1490              		.loc 1 561 0
 1491 0042 C5F8D430 		str	r3, [r5, #212]
 562:..\common\ud3core/cli_common.c ****             min_ctx.transport_fifo.n_frames_max = 0;
 1492              		.loc 1 562 0
 1493 0046 85F8E730 		strb	r3, [r5, #231]
 563:..\common\ud3core/cli_common.c ****             min_ctx.transport_fifo.crc_fails = 0;
 1494              		.loc 1 563 0
 1495 004a C5F8DC30 		str	r3, [r5, #220]
 564:..\common\ud3core/cli_common.c ****             min_time.resync = 0;
 1496              		.loc 1 564 0
 1497 004e F360     		str	r3, [r6, #12]
 1498              	.L93:
 565:..\common\ud3core/cli_common.c ****         }
 566:..\common\ud3core/cli_common.c ****         
 567:..\common\ud3core/cli_common.c ****         TERM_sendVT100Code(handle, _VT100_CURSOR_POS1,0);
 1499              		.loc 1 567 0
 1500 0050 0022     		movs	r2, #0
 1501 0052 1146     		mov	r1, r2
 1502 0054 2046     		mov	r0, r4
 1503              	.LVL142:
ARM GAS  C:\Users\chemi\AppData\Local\Temp\ccFrP3K3.s 			page 41


 1504 0056 FFF7FEFF 		bl	TERM_sendVT100Code
 1505              	.LVL143:
 568:..\common\ud3core/cli_common.c ****         ttprintf("MIN monitor    (press [CTRL+C] for quit or press [r] for reset stats)\r\n");
 1506              		.loc 1 568 0
 1507 005a 636A     		ldr	r3, [r4, #36]
 1508 005c 4749     		ldr	r1, .L101+8
 1509 005e 6068     		ldr	r0, [r4, #4]
 1510 0060 9847     		blx	r3
 1511              	.LVL144:
 569:..\common\ud3core/cli_common.c ****         ttprintf("%sDropped frames        : %lu\r\n", TERM_getVT100Code(_VT100_ERASE_LINE_END, 0), 
 1512              		.loc 1 569 0
 1513 0062 0021     		movs	r1, #0
 1514 0064 1120     		movs	r0, #17
 1515 0066 676A     		ldr	r7, [r4, #36]
 1516 0068 D4F80480 		ldr	r8, [r4, #4]
 1517 006c FFF7FEFF 		bl	TERM_getVT100Code
 1518              	.LVL145:
 1519 0070 D5F8CC30 		ldr	r3, [r5, #204]
 1520 0074 0246     		mov	r2, r0
 1521 0076 4249     		ldr	r1, .L101+12
 1522 0078 4046     		mov	r0, r8
 1523 007a B847     		blx	r7
 1524              	.LVL146:
 570:..\common\ud3core/cli_common.c ****         ttprintf("%sSpurious acks         : %lu\r\n", TERM_getVT100Code(_VT100_ERASE_LINE_END, 0),m
 1525              		.loc 1 570 0
 1526 007c 0021     		movs	r1, #0
 1527 007e 1120     		movs	r0, #17
 1528 0080 676A     		ldr	r7, [r4, #36]
 1529 0082 D4F80480 		ldr	r8, [r4, #4]
 1530 0086 FFF7FEFF 		bl	TERM_getVT100Code
 1531              	.LVL147:
 1532 008a D5F8D030 		ldr	r3, [r5, #208]
 1533 008e 0246     		mov	r2, r0
 1534 0090 3C49     		ldr	r1, .L101+16
 1535 0092 4046     		mov	r0, r8
 1536 0094 B847     		blx	r7
 1537              	.LVL148:
 571:..\common\ud3core/cli_common.c ****         ttprintf("%sResets received       : %lu\r\n", TERM_getVT100Code(_VT100_ERASE_LINE_END, 0),m
 1538              		.loc 1 571 0
 1539 0096 0021     		movs	r1, #0
 1540 0098 1120     		movs	r0, #17
 1541 009a 676A     		ldr	r7, [r4, #36]
 1542 009c D4F80480 		ldr	r8, [r4, #4]
 1543 00a0 FFF7FEFF 		bl	TERM_getVT100Code
 1544              	.LVL149:
 1545 00a4 D5F8D830 		ldr	r3, [r5, #216]
 1546 00a8 0246     		mov	r2, r0
 1547 00aa 3749     		ldr	r1, .L101+20
 1548 00ac 4046     		mov	r0, r8
 1549 00ae B847     		blx	r7
 1550              	.LVL150:
 572:..\common\ud3core/cli_common.c ****         ttprintf("%sSequence mismatch drop: %lu\r\n", TERM_getVT100Code(_VT100_ERASE_LINE_END, 0),m
 1551              		.loc 1 572 0
 1552 00b0 0021     		movs	r1, #0
 1553 00b2 1120     		movs	r0, #17
 1554 00b4 676A     		ldr	r7, [r4, #36]
 1555 00b6 D4F80480 		ldr	r8, [r4, #4]
ARM GAS  C:\Users\chemi\AppData\Local\Temp\ccFrP3K3.s 			page 42


 1556 00ba FFF7FEFF 		bl	TERM_getVT100Code
 1557              	.LVL151:
 1558 00be D5F8D430 		ldr	r3, [r5, #212]
 1559 00c2 0246     		mov	r2, r0
 1560 00c4 3149     		ldr	r1, .L101+24
 1561 00c6 4046     		mov	r0, r8
 1562 00c8 B847     		blx	r7
 1563              	.LVL152:
 573:..\common\ud3core/cli_common.c ****         ttprintf("%sMax frames in buffer  : %u\r\n", TERM_getVT100Code(_VT100_ERASE_LINE_END, 0),mi
 1564              		.loc 1 573 0
 1565 00ca 0021     		movs	r1, #0
 1566 00cc 1120     		movs	r0, #17
 1567 00ce 676A     		ldr	r7, [r4, #36]
 1568 00d0 D4F80480 		ldr	r8, [r4, #4]
 1569 00d4 FFF7FEFF 		bl	TERM_getVT100Code
 1570              	.LVL153:
 1571 00d8 95F8E730 		ldrb	r3, [r5, #231]	@ zero_extendqisi2
 1572 00dc 0246     		mov	r2, r0
 1573 00de 2C49     		ldr	r1, .L101+28
 1574 00e0 4046     		mov	r0, r8
 1575 00e2 B847     		blx	r7
 1576              	.LVL154:
 574:..\common\ud3core/cli_common.c ****         ttprintf("%sCRC errors            : %u\r\n", TERM_getVT100Code(_VT100_ERASE_LINE_END, 0),mi
 1577              		.loc 1 574 0
 1578 00e4 0021     		movs	r1, #0
 1579 00e6 1120     		movs	r0, #17
 1580 00e8 676A     		ldr	r7, [r4, #36]
 1581 00ea D4F80480 		ldr	r8, [r4, #4]
 1582 00ee FFF7FEFF 		bl	TERM_getVT100Code
 1583              	.LVL155:
 1584 00f2 D5F8DC30 		ldr	r3, [r5, #220]
 1585 00f6 0246     		mov	r2, r0
 1586 00f8 2649     		ldr	r1, .L101+32
 1587 00fa 4046     		mov	r0, r8
 1588 00fc B847     		blx	r7
 1589              	.LVL156:
 575:..\common\ud3core/cli_common.c ****         ttprintf("%sRemote Time           : %u\r\n", TERM_getVT100Code(_VT100_ERASE_LINE_END, 0),mi
 1590              		.loc 1 575 0
 1591 00fe 0021     		movs	r1, #0
 1592 0100 1120     		movs	r0, #17
 1593 0102 676A     		ldr	r7, [r4, #36]
 1594 0104 D4F80480 		ldr	r8, [r4, #4]
 1595 0108 FFF7FEFF 		bl	TERM_getVT100Code
 1596              	.LVL157:
 1597 010c 3368     		ldr	r3, [r6]
 1598 010e 0246     		mov	r2, r0
 1599 0110 2149     		ldr	r1, .L101+36
 1600 0112 4046     		mov	r0, r8
 1601 0114 B847     		blx	r7
 1602              	.LVL158:
 576:..\common\ud3core/cli_common.c ****         ttprintf("%sLocal Time            : %u\r\n", TERM_getVT100Code(_VT100_ERASE_LINE_END, 0),l_
 1603              		.loc 1 576 0
 1604 0116 0021     		movs	r1, #0
 1605 0118 1120     		movs	r0, #17
 1606 011a 676A     		ldr	r7, [r4, #36]
 1607 011c D4F80480 		ldr	r8, [r4, #4]
 1608 0120 FFF7FEFF 		bl	TERM_getVT100Code
ARM GAS  C:\Users\chemi\AppData\Local\Temp\ccFrP3K3.s 			page 43


 1609              	.LVL159:
 1610 0124 1D4B     		ldr	r3, .L101+40
 1611 0126 0246     		mov	r2, r0
 1612 0128 1B68     		ldr	r3, [r3]
 1613 012a 1D49     		ldr	r1, .L101+44
 1614 012c 4046     		mov	r0, r8
 1615 012e B847     		blx	r7
 1616              	.LVL160:
 577:..\common\ud3core/cli_common.c ****         ttprintf("%sDiff Time             : %i\r\n", TERM_getVT100Code(_VT100_ERASE_LINE_END, 0),mi
 1617              		.loc 1 577 0
 1618 0130 0021     		movs	r1, #0
 1619 0132 1120     		movs	r0, #17
 1620 0134 676A     		ldr	r7, [r4, #36]
 1621 0136 D4F80480 		ldr	r8, [r4, #4]
 1622 013a FFF7FEFF 		bl	TERM_getVT100Code
 1623              	.LVL161:
 1624 013e 7368     		ldr	r3, [r6, #4]
 1625 0140 0246     		mov	r2, r0
 1626 0142 1849     		ldr	r1, .L101+48
 1627 0144 4046     		mov	r0, r8
 1628 0146 B847     		blx	r7
 1629              	.LVL162:
 578:..\common\ud3core/cli_common.c ****         ttprintf("%sResync count          : %u\r\n", TERM_getVT100Code(_VT100_ERASE_LINE_END, 0),mi
 1630              		.loc 1 578 0
 1631 0148 0021     		movs	r1, #0
 1632 014a 1120     		movs	r0, #17
 1633 014c D4F80480 		ldr	r8, [r4, #4]
 1634 0150 676A     		ldr	r7, [r4, #36]
 1635 0152 FFF7FEFF 		bl	TERM_getVT100Code
 1636              	.LVL163:
 1637 0156 F368     		ldr	r3, [r6, #12]
 1638 0158 0246     		mov	r2, r0
 1639 015a 1349     		ldr	r1, .L101+52
 1640 015c 4046     		mov	r0, r8
 1641 015e B847     		blx	r7
 1642              	.LVL164:
 1643              	.LBE13:
 579:..\common\ud3core/cli_common.c ****     }
 1644              		.loc 1 579 0
 1645 0160 5CE7     		b	.L94
 1646              	.LVL165:
 1647              	.L92:
 580:..\common\ud3core/cli_common.c ****     TERM_sendVT100Code(handle, _VT100_CURSOR_ENABLE,0);
 1648              		.loc 1 580 0
 1649 0162 2046     		mov	r0, r4
 1650              	.LVL166:
 1651 0164 0022     		movs	r2, #0
 1652 0166 1821     		movs	r1, #24
 1653 0168 FFF7FEFF 		bl	TERM_sendVT100Code
 1654              	.LVL167:
 581:..\common\ud3core/cli_common.c ****     return 1; 
 582:..\common\ud3core/cli_common.c **** }
 1655              		.loc 1 582 0
 1656 016c 0120     		movs	r0, #1
 1657 016e BDE8F081 		pop	{r4, r5, r6, r7, r8, pc}
 1658              	.LVL168:
 1659              	.L102:
ARM GAS  C:\Users\chemi\AppData\Local\Temp\ccFrP3K3.s 			page 44


 1660 0172 00BF     		.align	2
 1661              	.L101:
 1662 0174 00000000 		.word	min_ctx
 1663 0178 00000000 		.word	min_time
 1664 017c BA010000 		.word	.LC20
 1665 0180 02020000 		.word	.LC21
 1666 0184 22020000 		.word	.LC22
 1667 0188 42020000 		.word	.LC23
 1668 018c 62020000 		.word	.LC24
 1669 0190 82020000 		.word	.LC25
 1670 0194 A1020000 		.word	.LC26
 1671 0198 C0020000 		.word	.LC27
 1672 019c 00000000 		.word	l_time
 1673 01a0 DF020000 		.word	.LC28
 1674 01a4 FE020000 		.word	.LC29
 1675 01a8 1D030000 		.word	.LC30
 1676              		.cfi_endproc
 1677              	.LFE84:
 1678              		.size	con_minstat, .-con_minstat
 1679              		.section	.text.CMD_con,"ax",%progbits
 1680              		.align	1
 1681              		.global	CMD_con
 1682              		.thumb
 1683              		.thumb_func
 1684              		.type	CMD_con, %function
 1685              	CMD_con:
 1686              	.LFB85:
 583:..\common\ud3core/cli_common.c **** 
 584:..\common\ud3core/cli_common.c **** /*****************************************************************************
 585:..\common\ud3core/cli_common.c **** * Prints the ethernet connections
 586:..\common\ud3core/cli_common.c **** ******************************************************************************/
 587:..\common\ud3core/cli_common.c **** uint8_t CMD_con(TERMINAL_HANDLE * handle, uint8_t argCount, char ** args) {
 1687              		.loc 1 587 0
 1688              		.cfi_startproc
 1689              		@ args = 0, pretend = 0, frame = 0
 1690              		@ frame_needed = 0, uses_anonymous_args = 0
 1691              	.LVL169:
 1692 0000 38B5     		push	{r3, r4, r5, lr}
 1693              		.cfi_def_cfa_offset 16
 1694              		.cfi_offset 3, -16
 1695              		.cfi_offset 4, -12
 1696              		.cfi_offset 5, -8
 1697              		.cfi_offset 14, -4
 1698              		.loc 1 587 0
 1699 0002 0446     		mov	r4, r0
 588:..\common\ud3core/cli_common.c ****     if(argCount==0 || strcmp(args[0], "-?") == 0){
 1700              		.loc 1 588 0
 1701 0004 29B1     		cbz	r1, .L104
 1702              		.loc 1 588 0 is_stmt 0 discriminator 1
 1703 0006 1568     		ldr	r5, [r2]
 1704 0008 1249     		ldr	r1, .L112
 1705              	.LVL170:
 1706 000a 2846     		mov	r0, r5
 1707              	.LVL171:
 1708 000c FFF7FEFF 		bl	strcmp
 1709              	.LVL172:
 1710 0010 20B9     		cbnz	r0, .L105
ARM GAS  C:\Users\chemi\AppData\Local\Temp\ccFrP3K3.s 			page 45


 1711              	.L104:
 589:..\common\ud3core/cli_common.c ****         ttprintf("con [info|numcon|min]\r\n");
 1712              		.loc 1 589 0 is_stmt 1
 1713 0012 636A     		ldr	r3, [r4, #36]
 1714 0014 1049     		ldr	r1, .L112+4
 1715 0016 6068     		ldr	r0, [r4, #4]
 1716 0018 9847     		blx	r3
 1717              	.LVL173:
 590:..\common\ud3core/cli_common.c ****         return TERM_CMD_EXIT_SUCCESS;
 1718              		.loc 1 590 0
 1719 001a 19E0     		b	.L106
 1720              	.L105:
 591:..\common\ud3core/cli_common.c ****     }
 592:..\common\ud3core/cli_common.c **** 
 593:..\common\ud3core/cli_common.c ****     if(strcmp(args[0], "info") == 0){
 1721              		.loc 1 593 0
 1722 001c 0F49     		ldr	r1, .L112+8
 1723 001e 2846     		mov	r0, r5
 1724 0020 FFF7FEFF 		bl	strcmp
 1725              	.LVL174:
 1726 0024 18B9     		cbnz	r0, .L107
 594:..\common\ud3core/cli_common.c ****         con_info(handle);
 1727              		.loc 1 594 0
 1728 0026 2046     		mov	r0, r4
 1729 0028 FFF7FEFF 		bl	con_info
 1730              	.LVL175:
 595:..\common\ud3core/cli_common.c ****         return TERM_CMD_EXIT_SUCCESS;
 1731              		.loc 1 595 0
 1732 002c 10E0     		b	.L106
 1733              	.L107:
 596:..\common\ud3core/cli_common.c ****     }
 597:..\common\ud3core/cli_common.c **** 
 598:..\common\ud3core/cli_common.c ****     if(strcmp(args[0], "numcon") == 0){
 1734              		.loc 1 598 0
 1735 002e 0C49     		ldr	r1, .L112+12
 1736 0030 2846     		mov	r0, r5
 1737 0032 FFF7FEFF 		bl	strcmp
 1738              	.LVL176:
 1739 0036 18B9     		cbnz	r0, .L108
 599:..\common\ud3core/cli_common.c ****         con_numcon(handle);
 1740              		.loc 1 599 0
 1741 0038 2046     		mov	r0, r4
 1742 003a FFF7FEFF 		bl	con_numcon
 1743              	.LVL177:
 600:..\common\ud3core/cli_common.c ****         return TERM_CMD_EXIT_SUCCESS;
 1744              		.loc 1 600 0
 1745 003e 07E0     		b	.L106
 1746              	.L108:
 601:..\common\ud3core/cli_common.c ****     }
 602:..\common\ud3core/cli_common.c **** 
 603:..\common\ud3core/cli_common.c ****     if(strcmp(args[0], "min") == 0){
 1747              		.loc 1 603 0
 1748 0040 0849     		ldr	r1, .L112+16
 1749 0042 2846     		mov	r0, r5
 1750 0044 FFF7FEFF 		bl	strcmp
 1751              	.LVL178:
 1752 0048 10B9     		cbnz	r0, .L106
ARM GAS  C:\Users\chemi\AppData\Local\Temp\ccFrP3K3.s 			page 46


 604:..\common\ud3core/cli_common.c ****         con_minstat(handle);
 1753              		.loc 1 604 0
 1754 004a 2046     		mov	r0, r4
 1755 004c FFF7FEFF 		bl	con_minstat
 1756              	.LVL179:
 1757              	.L106:
 605:..\common\ud3core/cli_common.c ****         return TERM_CMD_EXIT_SUCCESS;
 606:..\common\ud3core/cli_common.c ****     }
 607:..\common\ud3core/cli_common.c ****     return TERM_CMD_EXIT_SUCCESS;
 608:..\common\ud3core/cli_common.c **** }
 1758              		.loc 1 608 0
 1759 0050 FF20     		movs	r0, #255
 1760 0052 38BD     		pop	{r3, r4, r5, pc}
 1761              	.LVL180:
 1762              	.L113:
 1763              		.align	2
 1764              	.L112:
 1765 0054 3C030000 		.word	.LC31
 1766 0058 3F030000 		.word	.LC32
 1767 005c 57030000 		.word	.LC33
 1768 0060 5C030000 		.word	.LC34
 1769 0064 63030000 		.word	.LC35
 1770              		.cfi_endproc
 1771              	.LFE85:
 1772              		.size	CMD_con, .-CMD_con
 1773              		.global	__aeabi_d2f
 1774              		.global	__aeabi_fmul
 1775              		.section	.text.CMD_calib,"ax",%progbits
 1776              		.align	1
 1777              		.global	CMD_calib
 1778              		.thumb
 1779              		.thumb_func
 1780              		.type	CMD_calib, %function
 1781              	CMD_calib:
 1782              	.LFB86:
 609:..\common\ud3core/cli_common.c **** 
 610:..\common\ud3core/cli_common.c **** /*****************************************************************************
 611:..\common\ud3core/cli_common.c **** * Calibrate Vdriver
 612:..\common\ud3core/cli_common.c **** ******************************************************************************/
 613:..\common\ud3core/cli_common.c **** uint8_t CMD_calib(TERMINAL_HANDLE * handle, uint8_t argCount, char ** args) {
 1783              		.loc 1 613 0
 1784              		.cfi_startproc
 1785              		@ args = 0, pretend = 0, frame = 0
 1786              		@ frame_needed = 0, uses_anonymous_args = 0
 1787              	.LVL181:
 1788 0000 2DE9F041 		push	{r4, r5, r6, r7, r8, lr}
 1789              		.cfi_def_cfa_offset 24
 1790              		.cfi_offset 4, -24
 1791              		.cfi_offset 5, -20
 1792              		.cfi_offset 6, -16
 1793              		.cfi_offset 7, -12
 1794              		.cfi_offset 8, -8
 1795              		.cfi_offset 14, -4
 1796              		.loc 1 613 0
 1797 0004 0446     		mov	r4, r0
 614:..\common\ud3core/cli_common.c ****     
 615:..\common\ud3core/cli_common.c ****     #define NUM_CALIB_SAMPLES 16    
ARM GAS  C:\Users\chemi\AppData\Local\Temp\ccFrP3K3.s 			page 47


 616:..\common\ud3core/cli_common.c ****     
 617:..\common\ud3core/cli_common.c ****     if(argCount==0 || strcmp(args[0], "-?") == 0){
 1798              		.loc 1 617 0
 1799 0006 29B1     		cbz	r1, .L115
 1800              		.loc 1 617 0 is_stmt 0 discriminator 1
 1801 0008 1568     		ldr	r5, [r2]
 1802 000a 2A49     		ldr	r1, .L125
 1803              	.LVL182:
 1804 000c 2846     		mov	r0, r5
 1805              	.LVL183:
 1806 000e FFF7FEFF 		bl	strcmp
 1807              	.LVL184:
 1808 0012 20B9     		cbnz	r0, .L116
 1809              	.L115:
 618:..\common\ud3core/cli_common.c ****         ttprintf("calib [measured voltage]\r\n");
 1810              		.loc 1 618 0 is_stmt 1
 1811 0014 636A     		ldr	r3, [r4, #36]
 1812 0016 2849     		ldr	r1, .L125+4
 1813 0018 6068     		ldr	r0, [r4, #4]
 1814 001a 9847     		blx	r3
 1815              	.LVL185:
 619:..\common\ud3core/cli_common.c ****         return TERM_CMD_EXIT_SUCCESS;
 1816              		.loc 1 619 0
 1817 001c 47E0     		b	.L117
 1818              	.L116:
 620:..\common\ud3core/cli_common.c ****     }
 621:..\common\ud3core/cli_common.c **** 
 622:..\common\ud3core/cli_common.c ****     float voltage = atof(args[0]);
 1819              		.loc 1 622 0
 1820 001e 2846     		mov	r0, r5
 1821 0020 FFF7FEFF 		bl	atof
 1822              	.LVL186:
 1823 0024 FFF7FEFF 		bl	__aeabi_d2f
 1824              	.LVL187:
 1825 0028 8046     		mov	r8, r0
 1826              	.LVL188:
 623:..\common\ud3core/cli_common.c ****     tsk_analog_recalc_drive_top(1.0f);
 1827              		.loc 1 623 0
 1828 002a 4FF07E50 		mov	r0, #1065353216
 1829              	.LVL189:
 1830 002e FFF7FEFF 		bl	tsk_analog_recalc_drive_top
 1831              	.LVL190:
 624:..\common\ud3core/cli_common.c ****     
 625:..\common\ud3core/cli_common.c ****     ttprintf("Collecting samples for %f drive Voltage ...\r\n", voltage);
 1832              		.loc 1 625 0
 1833 0032 4046     		mov	r0, r8
 1834 0034 FFF7FEFF 		bl	__aeabi_f2d
 1835              	.LVL191:
 1836 0038 656A     		ldr	r5, [r4, #36]
 1837 003a 0246     		mov	r2, r0
 1838 003c 0B46     		mov	r3, r1
 1839 003e 6068     		ldr	r0, [r4, #4]
 1840 0040 1E49     		ldr	r1, .L125+8
 1841 0042 A847     		blx	r5
 1842              	.LVL192:
 626:..\common\ud3core/cli_common.c ****     Term_check_break(handle,100);
 1843              		.loc 1 626 0
ARM GAS  C:\Users\chemi\AppData\Local\Temp\ccFrP3K3.s 			page 48


 1844 0044 6421     		movs	r1, #100
 1845 0046 2046     		mov	r0, r4
 1846 0048 FFF7FEFF 		bl	Term_check_break
 1847              	.LVL193:
 627:..\common\ud3core/cli_common.c ****     
 628:..\common\ud3core/cli_common.c ****     
 629:..\common\ud3core/cli_common.c ****     uint32_t i=NUM_CALIB_SAMPLES;
 630:..\common\ud3core/cli_common.c ****     
 631:..\common\ud3core/cli_common.c ****     uint32_t accu = 0;
 1848              		.loc 1 631 0
 1849 004c 0026     		movs	r6, #0
 629:..\common\ud3core/cli_common.c ****     
 1850              		.loc 1 629 0
 1851 004e 1025     		movs	r5, #16
 1852              	.LVL194:
 1853              	.L120:
 1854              	.LBB14:
 632:..\common\ud3core/cli_common.c ****     
 633:..\common\ud3core/cli_common.c ****     while(i){
 634:..\common\ud3core/cli_common.c ****         uint32_t sample = read_driver_mv();
 1855              		.loc 1 634 0
 1856 0050 FFF7FEFF 		bl	read_driver_mv
 1857              	.LVL195:
 635:..\common\ud3core/cli_common.c ****         accu += sample;
 636:..\common\ud3core/cli_common.c ****         ttprintf("Sample %u: %u mv\r\n", i, sample); 
 1858              		.loc 1 636 0
 1859 0054 1A49     		ldr	r1, .L125+12
 634:..\common\ud3core/cli_common.c ****         accu += sample;
 1860              		.loc 1 634 0
 1861 0056 0346     		mov	r3, r0
 1862              	.LVL196:
 635:..\common\ud3core/cli_common.c ****         accu += sample;
 1863              		.loc 1 635 0
 1864 0058 0644     		add	r6, r6, r0
 1865              	.LVL197:
 1866              		.loc 1 636 0
 1867 005a 676A     		ldr	r7, [r4, #36]
 1868 005c 2A46     		mov	r2, r5
 1869 005e 6068     		ldr	r0, [r4, #4]
 1870              	.LVL198:
 1871 0060 B847     		blx	r7
 1872              	.LVL199:
 637:..\common\ud3core/cli_common.c ****         
 638:..\common\ud3core/cli_common.c ****         if(Term_check_break(handle,100) == pdFALSE){
 1873              		.loc 1 638 0
 1874 0062 6421     		movs	r1, #100
 1875 0064 2046     		mov	r0, r4
 1876 0066 FFF7FEFF 		bl	Term_check_break
 1877              	.LVL200:
 1878 006a 20B9     		cbnz	r0, .L118
 639:..\common\ud3core/cli_common.c ****             ttprintf("Canceled by user\r\n");
 1879              		.loc 1 639 0
 1880 006c 636A     		ldr	r3, [r4, #36]
 1881 006e 1549     		ldr	r1, .L125+16
 1882 0070 6068     		ldr	r0, [r4, #4]
 1883 0072 9847     		blx	r3
 1884              	.LVL201:
ARM GAS  C:\Users\chemi\AppData\Local\Temp\ccFrP3K3.s 			page 49


 640:..\common\ud3core/cli_common.c ****             goto abort;
 1885              		.loc 1 640 0
 1886 0074 17E0     		b	.L119
 1887              	.L118:
 1888              	.LVL202:
 1889              	.LBE14:
 633:..\common\ud3core/cli_common.c ****         uint32_t sample = read_driver_mv();
 1890              		.loc 1 633 0
 1891 0076 013D     		subs	r5, r5, #1
 1892              	.LVL203:
 1893 0078 EAD1     		bne	.L120
 1894              	.LVL204:
 641:..\common\ud3core/cli_common.c ****         }
 642:..\common\ud3core/cli_common.c ****         i--;
 643:..\common\ud3core/cli_common.c ****     }
 644:..\common\ud3core/cli_common.c ****     
 645:..\common\ud3core/cli_common.c ****     accu = accu / NUM_CALIB_SAMPLES;
 646:..\common\ud3core/cli_common.c ****     
 647:..\common\ud3core/cli_common.c ****     configuration.drive_factor =  voltage * 1000.0f / (float)accu;
 1895              		.loc 1 647 0
 1896 007a 1349     		ldr	r1, .L125+20
 1897 007c 4046     		mov	r0, r8
 1898 007e FFF7FEFF 		bl	__aeabi_fmul
 1899              	.LVL205:
 1900 0082 0546     		mov	r5, r0
 1901              	.LVL206:
 1902 0084 3009     		lsrs	r0, r6, #4
 1903              	.LVL207:
 1904 0086 FFF7FEFF 		bl	__aeabi_ui2f
 1905              	.LVL208:
 1906 008a 0146     		mov	r1, r0
 1907 008c 2846     		mov	r0, r5
 1908 008e FFF7FEFF 		bl	__aeabi_fdiv
 1909              	.LVL209:
 1910 0092 0E4B     		ldr	r3, .L125+24
 1911 0094 9867     		str	r0, [r3, #120]	@ float
 648:..\common\ud3core/cli_common.c ****     
 649:..\common\ud3core/cli_common.c ****     ttprintf ("New factor: %f\r\n", configuration.drive_factor);
 1912              		.loc 1 649 0
 1913 0096 FFF7FEFF 		bl	__aeabi_f2d
 1914              	.LVL210:
 1915 009a 656A     		ldr	r5, [r4, #36]
 1916 009c 0246     		mov	r2, r0
 1917 009e 0B46     		mov	r3, r1
 1918 00a0 6068     		ldr	r0, [r4, #4]
 1919 00a2 0B49     		ldr	r1, .L125+28
 1920 00a4 A847     		blx	r5
 1921              	.LVL211:
 1922              	.L119:
 650:..\common\ud3core/cli_common.c ****     
 651:..\common\ud3core/cli_common.c ****     abort:
 652:..\common\ud3core/cli_common.c ****     
 653:..\common\ud3core/cli_common.c ****     tsk_analog_recalc_drive_top(configuration.drive_factor);
 1923              		.loc 1 653 0
 1924 00a6 094B     		ldr	r3, .L125+24
 1925 00a8 986F     		ldr	r0, [r3, #120]	@ float
 1926 00aa FFF7FEFF 		bl	tsk_analog_recalc_drive_top
ARM GAS  C:\Users\chemi\AppData\Local\Temp\ccFrP3K3.s 			page 50


 1927              	.LVL212:
 1928              	.L117:
 654:..\common\ud3core/cli_common.c ****     
 655:..\common\ud3core/cli_common.c ****     return TERM_CMD_EXIT_SUCCESS;
 656:..\common\ud3core/cli_common.c **** }
 1929              		.loc 1 656 0
 1930 00ae FF20     		movs	r0, #255
 1931 00b0 BDE8F081 		pop	{r4, r5, r6, r7, r8, pc}
 1932              	.LVL213:
 1933              	.L126:
 1934              		.align	2
 1935              	.L125:
 1936 00b4 3C030000 		.word	.LC31
 1937 00b8 67030000 		.word	.LC36
 1938 00bc 82030000 		.word	.LC37
 1939 00c0 B0030000 		.word	.LC38
 1940 00c4 C3030000 		.word	.LC39
 1941 00c8 00007A44 		.word	1148846080
 1942 00cc 00000000 		.word	configuration
 1943 00d0 D6030000 		.word	.LC40
 1944              		.cfi_endproc
 1945              	.LFE86:
 1946              		.size	CMD_calib, .-CMD_calib
 1947              		.section	.text.CMD_features,"ax",%progbits
 1948              		.align	1
 1949              		.global	CMD_features
 1950              		.thumb
 1951              		.thumb_func
 1952              		.type	CMD_features, %function
 1953              	CMD_features:
 1954              	.LFB87:
 657:..\common\ud3core/cli_common.c **** 
 658:..\common\ud3core/cli_common.c **** /*****************************************************************************
 659:..\common\ud3core/cli_common.c **** * Sends the features to teslaterm
 660:..\common\ud3core/cli_common.c **** ******************************************************************************/
 661:..\common\ud3core/cli_common.c **** uint8_t CMD_features(TERMINAL_HANDLE * handle, uint8_t argCount, char ** args) {
 1955              		.loc 1 661 0
 1956              		.cfi_startproc
 1957              		@ args = 0, pretend = 0, frame = 0
 1958              		@ frame_needed = 0, uses_anonymous_args = 0
 1959              	.LVL214:
 1960 0000 70B5     		push	{r4, r5, r6, lr}
 1961              		.cfi_def_cfa_offset 16
 1962              		.cfi_offset 4, -16
 1963              		.cfi_offset 5, -12
 1964              		.cfi_offset 6, -8
 1965              		.cfi_offset 14, -4
 1966              		.loc 1 661 0
 1967 0002 0646     		mov	r6, r0
 1968              	.LBB15:
 662:..\common\ud3core/cli_common.c **** 	for (uint8_t i = 0; i < sizeof(version)/sizeof(char*); i++) {
 663:..\common\ud3core/cli_common.c ****        send_features(version[i],handle); 
 1969              		.loc 1 663 0
 1970 0004 054D     		ldr	r5, .L130
 1971              	.LBE15:
 661:..\common\ud3core/cli_common.c **** 	for (uint8_t i = 0; i < sizeof(version)/sizeof(char*); i++) {
 1972              		.loc 1 661 0
ARM GAS  C:\Users\chemi\AppData\Local\Temp\ccFrP3K3.s 			page 51


 1973 0006 0024     		movs	r4, #0
 1974              	.LVL215:
 1975              	.L128:
 1976              	.LBB16:
 1977              		.loc 1 663 0 discriminator 3
 1978 0008 55F82400 		ldr	r0, [r5, r4, lsl #2]
 1979 000c 3146     		mov	r1, r6
 1980 000e 0134     		adds	r4, r4, #1
 1981              	.LVL216:
 1982 0010 FFF7FEFF 		bl	send_features
 1983              	.LVL217:
 662:..\common\ud3core/cli_common.c **** 	for (uint8_t i = 0; i < sizeof(version)/sizeof(char*); i++) {
 1984              		.loc 1 662 0 discriminator 3
 1985 0014 062C     		cmp	r4, #6
 1986 0016 F7D1     		bne	.L128
 1987              	.LBE16:
 664:..\common\ud3core/cli_common.c ****     }
 665:..\common\ud3core/cli_common.c ****     return TERM_CMD_EXIT_SUCCESS; 
 666:..\common\ud3core/cli_common.c **** }
 1988              		.loc 1 666 0
 1989 0018 FF20     		movs	r0, #255
 1990 001a 70BD     		pop	{r4, r5, r6, pc}
 1991              	.LVL218:
 1992              	.L131:
 1993              		.align	2
 1994              	.L130:
 1995 001c 00000000 		.word	.LANCHOR1
 1996              		.cfi_endproc
 1997              	.LFE87:
 1998              		.size	CMD_features, .-CMD_features
 1999              		.section	.text.CMD_config_get,"ax",%progbits
 2000              		.align	1
 2001              		.global	CMD_config_get
 2002              		.thumb
 2003              		.thumb_func
 2004              		.type	CMD_config_get, %function
 2005              	CMD_config_get:
 2006              	.LFB88:
 667:..\common\ud3core/cli_common.c **** 
 668:..\common\ud3core/cli_common.c **** /*****************************************************************************
 669:..\common\ud3core/cli_common.c **** * Sends the configuration to teslaterm
 670:..\common\ud3core/cli_common.c **** ******************************************************************************/
 671:..\common\ud3core/cli_common.c **** uint8_t CMD_config_get(TERMINAL_HANDLE * handle, uint8_t argCount, char ** args){
 2007              		.loc 1 671 0
 2008              		.cfi_startproc
 2009              		@ args = 0, pretend = 0, frame = 80
 2010              		@ frame_needed = 0, uses_anonymous_args = 0
 2011              	.LVL219:
 2012 0000 70B5     		push	{r4, r5, r6, lr}
 2013              		.cfi_def_cfa_offset 16
 2014              		.cfi_offset 4, -16
 2015              		.cfi_offset 5, -12
 2016              		.cfi_offset 6, -8
 2017              		.cfi_offset 14, -4
 2018 0002 0646     		mov	r6, r0
 2019 0004 104C     		ldr	r4, .L139
 2020 0006 94B0     		sub	sp, sp, #80
ARM GAS  C:\Users\chemi\AppData\Local\Temp\ccFrP3K3.s 			page 52


 2021              		.cfi_def_cfa_offset 96
 2022              		.loc 1 671 0
 2023 0008 0025     		movs	r5, #0
 2024              	.LVL220:
 2025              	.L134:
 2026              	.LBB17:
 672:..\common\ud3core/cli_common.c ****     char buffer[80];
 673:..\common\ud3core/cli_common.c **** 	for (uint8_t current_parameter = 0; current_parameter < sizeof(confparam) / sizeof(parameter_entry
 674:..\common\ud3core/cli_common.c ****         if(confparam[current_parameter].parameter_type == PARAM_CONFIG  && confparam[current_parame
 2027              		.loc 1 674 0
 2028 000a 14F8013C 		ldrb	r3, [r4, #-1]	@ zero_extendqisi2
 2029 000e EAB2     		uxtb	r2, r5
 2030              	.LVL221:
 2031 0010 012B     		cmp	r3, #1
 2032 0012 0BD1     		bne	.L133
 2033              		.loc 1 674 0 is_stmt 0 discriminator 1
 2034 0014 2378     		ldrb	r3, [r4]	@ zero_extendqisi2
 2035 0016 4BB1     		cbz	r3, .L133
 675:..\common\ud3core/cli_common.c ****             print_param_buffer(buffer, confparam, current_parameter);
 2036              		.loc 1 675 0 is_stmt 1
 2037 0018 0C49     		ldr	r1, .L139+4
 2038 001a 6846     		mov	r0, sp
 2039 001c FFF7FEFF 		bl	print_param_buffer
 2040              	.LVL222:
 676:..\common\ud3core/cli_common.c ****             send_config(buffer,confparam[current_parameter].help, handle);
 2041              		.loc 1 676 0
 2042 0020 3246     		mov	r2, r6
 2043 0022 D4F81F10 		ldr	r1, [r4, #31]
 2044 0026 6846     		mov	r0, sp
 2045 0028 FFF7FEFF 		bl	send_config
 2046              	.LVL223:
 2047              	.L133:
 2048 002c 0135     		adds	r5, r5, #1
 2049              	.LVL224:
 673:..\common\ud3core/cli_common.c ****         if(confparam[current_parameter].parameter_type == PARAM_CONFIG  && confparam[current_parame
 2050              		.loc 1 673 0 discriminator 2
 2051 002e 502D     		cmp	r5, #80
 2052 0030 04F12404 		add	r4, r4, #36
 2053 0034 E9D1     		bne	.L134
 2054              	.LBE17:
 677:..\common\ud3core/cli_common.c ****         }
 678:..\common\ud3core/cli_common.c ****     }
 679:..\common\ud3core/cli_common.c ****     send_config("NULL","NULL", handle);
 2055              		.loc 1 679 0
 2056 0036 0649     		ldr	r1, .L139+8
 2057 0038 3246     		mov	r2, r6
 2058 003a 0846     		mov	r0, r1
 2059 003c FFF7FEFF 		bl	send_config
 2060              	.LVL225:
 680:..\common\ud3core/cli_common.c ****     return TERM_CMD_EXIT_SUCCESS; 
 681:..\common\ud3core/cli_common.c **** }
 2061              		.loc 1 681 0
 2062 0040 FF20     		movs	r0, #255
 2063 0042 14B0     		add	sp, sp, #80
 2064              		.cfi_def_cfa_offset 16
 2065              		@ sp needed
 2066 0044 70BD     		pop	{r4, r5, r6, pc}
ARM GAS  C:\Users\chemi\AppData\Local\Temp\ccFrP3K3.s 			page 53


 2067              	.LVL226:
 2068              	.L140:
 2069 0046 00BF     		.align	2
 2070              	.L139:
 2071 0048 01000000 		.word	.LANCHOR0+1
 2072 004c 00000000 		.word	.LANCHOR0
 2073 0050 E7030000 		.word	.LC41
 2074              		.cfi_endproc
 2075              	.LFE88:
 2076              		.size	CMD_config_get, .-CMD_config_get
 2077              		.section	.text.CMD_bootloader,"ax",%progbits
 2078              		.align	1
 2079              		.global	CMD_bootloader
 2080              		.thumb
 2081              		.thumb_func
 2082              		.type	CMD_bootloader, %function
 2083              	CMD_bootloader:
 2084              	.LFB89:
 682:..\common\ud3core/cli_common.c **** 
 683:..\common\ud3core/cli_common.c **** /*****************************************************************************
 684:..\common\ud3core/cli_common.c **** * Kicks the controller into the bootloader
 685:..\common\ud3core/cli_common.c **** ******************************************************************************/
 686:..\common\ud3core/cli_common.c **** uint8_t CMD_bootloader(TERMINAL_HANDLE * handle, uint8_t argCount, char ** args){
 2085              		.loc 1 686 0
 2086              		.cfi_startproc
 2087              		@ args = 0, pretend = 0, frame = 0
 2088              		@ frame_needed = 0, uses_anonymous_args = 0
 2089              	.LVL227:
 2090 0000 08B5     		push	{r3, lr}
 2091              		.cfi_def_cfa_offset 8
 2092              		.cfi_offset 3, -8
 2093              		.cfi_offset 14, -4
 687:..\common\ud3core/cli_common.c **** #if USE_BOOTLOADER
 688:..\common\ud3core/cli_common.c ****     Bootloadable_Load();
 2094              		.loc 1 688 0
 2095 0002 FFF7FEFF 		bl	Bootloadable_Load
 2096              	.LVL228:
 689:..\common\ud3core/cli_common.c **** #endif
 690:..\common\ud3core/cli_common.c **** 	return TERM_CMD_EXIT_SUCCESS;
 691:..\common\ud3core/cli_common.c **** }
 2097              		.loc 1 691 0
 2098 0006 FF20     		movs	r0, #255
 2099 0008 08BD     		pop	{r3, pc}
 2100              		.cfi_endproc
 2101              	.LFE89:
 2102              		.size	CMD_bootloader, .-CMD_bootloader
 2103              		.section	.text.CMD_udkill,"ax",%progbits
 2104              		.align	1
 2105              		.global	CMD_udkill
 2106              		.thumb
 2107              		.thumb_func
 2108              		.type	CMD_udkill, %function
 2109              	CMD_udkill:
 2110              	.LFB90:
 692:..\common\ud3core/cli_common.c **** 
 693:..\common\ud3core/cli_common.c **** 
 694:..\common\ud3core/cli_common.c **** /*****************************************************************************
ARM GAS  C:\Users\chemi\AppData\Local\Temp\ccFrP3K3.s 			page 54


 695:..\common\ud3core/cli_common.c **** * sets the kill bit, stops the interrupter and switches the bus off
 696:..\common\ud3core/cli_common.c **** ******************************************************************************/
 697:..\common\ud3core/cli_common.c **** uint8_t CMD_udkill(TERMINAL_HANDLE * handle, uint8_t argCount, char ** args) {
 2111              		.loc 1 697 0
 2112              		.cfi_startproc
 2113              		@ args = 0, pretend = 0, frame = 0
 2114              		@ frame_needed = 0, uses_anonymous_args = 0
 2115              	.LVL229:
 2116 0000 70B5     		push	{r4, r5, r6, lr}
 2117              		.cfi_def_cfa_offset 16
 2118              		.cfi_offset 4, -16
 2119              		.cfi_offset 5, -12
 2120              		.cfi_offset 6, -8
 2121              		.cfi_offset 14, -4
 2122              		.loc 1 697 0
 2123 0002 0446     		mov	r4, r0
 698:..\common\ud3core/cli_common.c ****     
 699:..\common\ud3core/cli_common.c ****     if(argCount==0 || strcmp(args[0], "-?") == 0){
 2124              		.loc 1 699 0
 2125 0004 29B1     		cbz	r1, .L143
 2126              		.loc 1 699 0 is_stmt 0 discriminator 1
 2127 0006 1568     		ldr	r5, [r2]
 2128 0008 2E49     		ldr	r1, .L153
 2129              	.LVL230:
 2130 000a 2846     		mov	r0, r5
 2131              	.LVL231:
 2132 000c FFF7FEFF 		bl	strcmp
 2133              	.LVL232:
 2134 0010 20B9     		cbnz	r0, .L144
 2135              	.L143:
 700:..\common\ud3core/cli_common.c ****         ttprintf("Usage: kill [set|reset|get]\r\n");
 2136              		.loc 1 700 0 is_stmt 1
 2137 0012 636A     		ldr	r3, [r4, #36]
 2138 0014 2C49     		ldr	r1, .L153+4
 2139 0016 6068     		ldr	r0, [r4, #4]
 2140 0018 9847     		blx	r3
 2141              	.LVL233:
 701:..\common\ud3core/cli_common.c ****         return TERM_CMD_EXIT_SUCCESS;
 2142              		.loc 1 701 0
 2143 001a 51E0     		b	.L145
 2144              	.L144:
 702:..\common\ud3core/cli_common.c ****     }
 703:..\common\ud3core/cli_common.c ****     
 704:..\common\ud3core/cli_common.c ****     if(strcmp(args[0], "set") == 0){
 2145              		.loc 1 704 0
 2146 001c 2B49     		ldr	r1, .L153+8
 2147 001e 2846     		mov	r0, r5
 2148 0020 FFF7FEFF 		bl	strcmp
 2149              	.LVL234:
 2150 0024 0646     		mov	r6, r0
 2151 0026 C8B9     		cbnz	r0, .L146
 705:..\common\ud3core/cli_common.c ****         interrupter_kill();
 2152              		.loc 1 705 0
 2153 0028 FFF7FEFF 		bl	interrupter_kill
 2154              	.LVL235:
 706:..\common\ud3core/cli_common.c ****     	tsk_midi_kill();
 2155              		.loc 1 706 0
ARM GAS  C:\Users\chemi\AppData\Local\Temp\ccFrP3K3.s 			page 55


 2156 002c FFF7FEFF 		bl	tsk_midi_kill
 2157              	.LVL236:
 707:..\common\ud3core/cli_common.c ****     	bus_command = BUS_COMMAND_OFF;
 2158              		.loc 1 707 0
 2159 0030 274B     		ldr	r3, .L153+12
 2160 0032 1E70     		strb	r6, [r3]
 708:..\common\ud3core/cli_common.c ****         
 709:..\common\ud3core/cli_common.c ****         QCW_delete_timer();
 2161              		.loc 1 709 0
 2162 0034 FFF7FEFF 		bl	QCW_delete_timer
 2163              	.LVL237:
 710:..\common\ud3core/cli_common.c ****         
 711:..\common\ud3core/cli_common.c ****     	interrupter1_control_Control = 0;
 2164              		.loc 1 711 0
 2165 0038 264B     		ldr	r3, .L153+16
 712:..\common\ud3core/cli_common.c ****     	QCW_enable_Control = 0;
 713:..\common\ud3core/cli_common.c ****     	TERM_sendVT100Code(handle, _VT100_FOREGROUND_COLOR, _VT100_GREEN);
 2166              		.loc 1 713 0
 2167 003a 0222     		movs	r2, #2
 2168 003c 1146     		mov	r1, r2
 711:..\common\ud3core/cli_common.c ****     	QCW_enable_Control = 0;
 2169              		.loc 1 711 0
 2170 003e 1E70     		strb	r6, [r3]
 2171              		.loc 1 713 0
 2172 0040 2046     		mov	r0, r4
 712:..\common\ud3core/cli_common.c ****     	QCW_enable_Control = 0;
 2173              		.loc 1 712 0
 2174 0042 03F8046C 		strb	r6, [r3, #-4]
 2175              		.loc 1 713 0
 2176 0046 FFF7FEFF 		bl	TERM_sendVT100Code
 2177              	.LVL238:
 714:..\common\ud3core/cli_common.c ****     	ttprintf("Killbit set\r\n");
 2178              		.loc 1 714 0
 2179 004a 2349     		ldr	r1, .L153+20
 2180 004c 636A     		ldr	r3, [r4, #36]
 2181 004e 6068     		ldr	r0, [r4, #4]
 2182 0050 9847     		blx	r3
 2183              	.LVL239:
 715:..\common\ud3core/cli_common.c ****         alarm_push(ALM_PRIO_CRITICAL, "FAULT: Killbit set", ALM_NO_VALUE);
 2184              		.loc 1 715 0
 2185 0052 4FF00042 		mov	r2, #-2147483648
 2186 0056 2149     		ldr	r1, .L153+24
 2187 0058 0320     		movs	r0, #3
 2188 005a 19E0     		b	.L152
 2189              	.L146:
 716:..\common\ud3core/cli_common.c ****     	TERM_sendVT100Code(handle, _VT100_FOREGROUND_COLOR, _VT100_WHITE);
 717:..\common\ud3core/cli_common.c ****         return TERM_CMD_EXIT_SUCCESS;
 718:..\common\ud3core/cli_common.c ****     }else if(strcmp(args[0], "reset") == 0){
 2190              		.loc 1 718 0
 2191 005c 2049     		ldr	r1, .L153+28
 2192 005e 2846     		mov	r0, r5
 2193 0060 FFF7FEFF 		bl	strcmp
 2194              	.LVL240:
 2195 0064 0646     		mov	r6, r0
 2196 0066 B0B9     		cbnz	r0, .L147
 719:..\common\ud3core/cli_common.c ****         interrupter_unkill();
 2197              		.loc 1 719 0
ARM GAS  C:\Users\chemi\AppData\Local\Temp\ccFrP3K3.s 			page 56


 2198 0068 FFF7FEFF 		bl	interrupter_unkill
 2199              	.LVL241:
 720:..\common\ud3core/cli_common.c ****         reset_fault();
 2200              		.loc 1 720 0
 2201 006c FFF7FEFF 		bl	reset_fault
 2202              	.LVL242:
 721:..\common\ud3core/cli_common.c ****         sysflt_clr(pdTRUE); 
 2203              		.loc 1 721 0
 2204 0070 0120     		movs	r0, #1
 2205 0072 FFF7FEFF 		bl	sysflt_clr
 2206              	.LVL243:
 722:..\common\ud3core/cli_common.c ****         TERM_sendVT100Code(handle, _VT100_FOREGROUND_COLOR, _VT100_GREEN);
 2207              		.loc 1 722 0
 2208 0076 0222     		movs	r2, #2
 2209 0078 1146     		mov	r1, r2
 2210 007a 2046     		mov	r0, r4
 2211 007c FFF7FEFF 		bl	TERM_sendVT100Code
 2212              	.LVL244:
 723:..\common\ud3core/cli_common.c ****     	ttprintf("Killbit reset\r\n");
 2213              		.loc 1 723 0
 2214 0080 1849     		ldr	r1, .L153+32
 2215 0082 636A     		ldr	r3, [r4, #36]
 2216 0084 6068     		ldr	r0, [r4, #4]
 2217 0086 9847     		blx	r3
 2218              	.LVL245:
 724:..\common\ud3core/cli_common.c ****         alarm_push(ALM_PRIO_INFO, "INFO: Killbit reset", ALM_NO_VALUE);
 2219              		.loc 1 724 0
 2220 0088 3046     		mov	r0, r6
 2221 008a 1749     		ldr	r1, .L153+36
 2222 008c 4FF00042 		mov	r2, #-2147483648
 2223              	.L152:
 2224 0090 FFF7FEFF 		bl	alarm_push
 2225              	.LVL246:
 2226 0094 0FE0     		b	.L151
 2227              	.L147:
 725:..\common\ud3core/cli_common.c ****     	TERM_sendVT100Code(handle, _VT100_FOREGROUND_COLOR, _VT100_WHITE);
 726:..\common\ud3core/cli_common.c ****         return TERM_CMD_EXIT_SUCCESS;
 727:..\common\ud3core/cli_common.c ****     }else if(strcmp(args[0], "get") == 0){
 2228              		.loc 1 727 0
 2229 0096 1549     		ldr	r1, .L153+40
 2230 0098 2846     		mov	r0, r5
 2231 009a FFF7FEFF 		bl	strcmp
 2232              	.LVL247:
 2233 009e 78B9     		cbnz	r0, .L145
 728:..\common\ud3core/cli_common.c ****         TERM_sendVT100Code(handle, _VT100_FOREGROUND_COLOR, _VT100_RED);
 2234              		.loc 1 728 0
 2235 00a0 0122     		movs	r2, #1
 2236 00a2 0221     		movs	r1, #2
 2237 00a4 2046     		mov	r0, r4
 2238 00a6 FFF7FEFF 		bl	TERM_sendVT100Code
 2239              	.LVL248:
 729:..\common\ud3core/cli_common.c ****         ttprintf("Killbit: %u\r\n",sysfault.interlock);
 2240              		.loc 1 729 0
 2241 00aa 114A     		ldr	r2, .L153+44
 2242 00ac 636A     		ldr	r3, [r4, #36]
 2243 00ae 127A     		ldrb	r2, [r2, #8]	@ zero_extendqisi2
 2244 00b0 1049     		ldr	r1, .L153+48
ARM GAS  C:\Users\chemi\AppData\Local\Temp\ccFrP3K3.s 			page 57


 2245 00b2 6068     		ldr	r0, [r4, #4]
 2246 00b4 9847     		blx	r3
 2247              	.LVL249:
 2248              	.L151:
 730:..\common\ud3core/cli_common.c ****         TERM_sendVT100Code(handle, _VT100_FOREGROUND_COLOR, _VT100_WHITE);;
 2249              		.loc 1 730 0
 2250 00b6 0722     		movs	r2, #7
 2251 00b8 0221     		movs	r1, #2
 2252 00ba 2046     		mov	r0, r4
 2253 00bc FFF7FEFF 		bl	TERM_sendVT100Code
 2254              	.LVL250:
 2255              	.L145:
 731:..\common\ud3core/cli_common.c ****         return TERM_CMD_EXIT_SUCCESS;
 732:..\common\ud3core/cli_common.c ****     }
 733:..\common\ud3core/cli_common.c ****     return TERM_CMD_EXIT_SUCCESS;
 734:..\common\ud3core/cli_common.c **** }
 2256              		.loc 1 734 0
 2257 00c0 FF20     		movs	r0, #255
 2258 00c2 70BD     		pop	{r4, r5, r6, pc}
 2259              	.LVL251:
 2260              	.L154:
 2261              		.align	2
 2262              	.L153:
 2263 00c4 3C030000 		.word	.LC31
 2264 00c8 EC030000 		.word	.LC42
 2265 00cc 0A040000 		.word	.LC43
 2266 00d0 00000000 		.word	bus_command
 2267 00d4 7D640040 		.word	1073767549
 2268 00d8 0E040000 		.word	.LC44
 2269 00dc 1C040000 		.word	.LC45
 2270 00e0 2F040000 		.word	.LC46
 2271 00e4 35040000 		.word	.LC47
 2272 00e8 45040000 		.word	.LC48
 2273 00ec 59040000 		.word	.LC49
 2274 00f0 00000000 		.word	sysfault
 2275 00f4 5D040000 		.word	.LC50
 2276              		.cfi_endproc
 2277              	.LFE90:
 2278              		.size	CMD_udkill, .-CMD_udkill
 2279              		.section	.text.CMD_get,"ax",%progbits
 2280              		.align	1
 2281              		.global	CMD_get
 2282              		.thumb
 2283              		.thumb_func
 2284              		.type	CMD_get, %function
 2285              	CMD_get:
 2286              	.LFB91:
 735:..\common\ud3core/cli_common.c **** 
 736:..\common\ud3core/cli_common.c **** 
 737:..\common\ud3core/cli_common.c **** /*****************************************************************************
 738:..\common\ud3core/cli_common.c **** * Get a value from a parameter or print all parameters
 739:..\common\ud3core/cli_common.c **** ******************************************************************************/
 740:..\common\ud3core/cli_common.c **** uint8_t CMD_get(TERMINAL_HANDLE * handle, uint8_t argCount, char ** args) {
 2287              		.loc 1 740 0
 2288              		.cfi_startproc
 2289              		@ args = 0, pretend = 0, frame = 0
 2290              		@ frame_needed = 0, uses_anonymous_args = 0
ARM GAS  C:\Users\chemi\AppData\Local\Temp\ccFrP3K3.s 			page 58


 2291              	.LVL252:
 2292 0000 2DE9F843 		push	{r3, r4, r5, r6, r7, r8, r9, lr}
 2293              		.cfi_def_cfa_offset 32
 2294              		.cfi_offset 3, -32
 2295              		.cfi_offset 4, -28
 2296              		.cfi_offset 5, -24
 2297              		.cfi_offset 6, -20
 2298              		.cfi_offset 7, -16
 2299              		.cfi_offset 8, -12
 2300              		.cfi_offset 9, -8
 2301              		.cfi_offset 14, -4
 2302              		.loc 1 740 0
 2303 0004 0446     		mov	r4, r0
 741:..\common\ud3core/cli_common.c ****     
 742:..\common\ud3core/cli_common.c ****     if(argCount==0){
 2304              		.loc 1 742 0
 2305 0006 29B9     		cbnz	r1, .L156
 743:..\common\ud3core/cli_common.c ****         print_param_help(confparam, PARAM_SIZE(confparam), handle);
 2306              		.loc 1 743 0
 2307 0008 0246     		mov	r2, r0
 2308              	.LVL253:
 2309 000a 5021     		movs	r1, #80
 2310              	.LVL254:
 2311 000c 1B48     		ldr	r0, .L163
 2312              	.LVL255:
 2313 000e FFF7FEFF 		bl	print_param_help
 2314              	.LVL256:
 2315 0012 09E0     		b	.L162
 2316              	.LVL257:
 2317              	.L156:
 744:..\common\ud3core/cli_common.c ****         return TERM_CMD_EXIT_SUCCESS;
 745:..\common\ud3core/cli_common.c ****     }
 746:..\common\ud3core/cli_common.c ****     
 747:..\common\ud3core/cli_common.c ****     if(strcmp(args[0], "-?") == 0){
 2318              		.loc 1 747 0
 2319 0014 1668     		ldr	r6, [r2]
 2320 0016 1A49     		ldr	r1, .L163+4
 2321              	.LVL258:
 2322 0018 3046     		mov	r0, r6
 2323              	.LVL259:
 2324 001a FFF7FEFF 		bl	strcmp
 2325              	.LVL260:
 2326 001e 30B9     		cbnz	r0, .L158
 748:..\common\ud3core/cli_common.c ****         ttprintf("Usage: get [parameter]\r\n");
 2327              		.loc 1 748 0
 2328 0020 636A     		ldr	r3, [r4, #36]
 2329 0022 1849     		ldr	r1, .L163+8
 2330 0024 6068     		ldr	r0, [r4, #4]
 2331 0026 9847     		blx	r3
 2332              	.LVL261:
 2333              	.L162:
 749:..\common\ud3core/cli_common.c ****         return TERM_CMD_EXIT_SUCCESS;
 2334              		.loc 1 749 0
 2335 0028 FF20     		movs	r0, #255
 2336 002a BDE8F883 		pop	{r3, r4, r5, r6, r7, r8, r9, pc}
 2337              	.LVL262:
 2338              	.L158:
ARM GAS  C:\Users\chemi\AppData\Local\Temp\ccFrP3K3.s 			page 59


 2339              	.LBB18:
 750:..\common\ud3core/cli_common.c ****     }
 751:..\common\ud3core/cli_common.c ****     
 752:..\common\ud3core/cli_common.c **** 	for (uint8_t current_parameter = 0; current_parameter < sizeof(confparam) / sizeof(parameter_entry
 753:..\common\ud3core/cli_common.c **** 		if (strcmp(args[0], confparam[current_parameter].name) == 0) {
 2340              		.loc 1 753 0
 2341 002e 134F     		ldr	r7, .L163
 2342              	.LBE18:
 2343 0030 0025     		movs	r5, #0
 2344              	.LBB19:
 2345 0032 4FF02408 		mov	r8, #36
 2346              	.L160:
 2347 0036 08FB0573 		mla	r3, r8, r5, r7
 2348 003a 3046     		mov	r0, r6
 2349 003c 5968     		ldr	r1, [r3, #4]
 2350 003e 5FFA85F9 		uxtb	r9, r5
 2351              	.LVL263:
 2352 0042 FFF7FEFF 		bl	strcmp
 2353              	.LVL264:
 2354 0046 28B9     		cbnz	r0, .L159
 754:..\common\ud3core/cli_common.c **** 			//Parameter found:
 755:..\common\ud3core/cli_common.c **** 			print_param(confparam,current_parameter,handle);
 2355              		.loc 1 755 0
 2356 0048 2246     		mov	r2, r4
 2357 004a 4946     		mov	r1, r9
 2358 004c 0B48     		ldr	r0, .L163
 2359 004e FFF7FEFF 		bl	print_param
 2360              	.LVL265:
 2361 0052 E9E7     		b	.L162
 2362              	.L159:
 2363              	.LVL266:
 2364 0054 0135     		adds	r5, r5, #1
 2365              	.LVL267:
 752:..\common\ud3core/cli_common.c **** 		if (strcmp(args[0], confparam[current_parameter].name) == 0) {
 2366              		.loc 1 752 0 discriminator 2
 2367 0056 502D     		cmp	r5, #80
 2368 0058 EDD1     		bne	.L160
 2369              	.LBE19:
 756:..\common\ud3core/cli_common.c **** 			return TERM_CMD_EXIT_SUCCESS;
 757:..\common\ud3core/cli_common.c **** 		}
 758:..\common\ud3core/cli_common.c **** 	}
 759:..\common\ud3core/cli_common.c **** 	TERM_sendVT100Code(handle, _VT100_FOREGROUND_COLOR, _VT100_RED);
 2370              		.loc 1 759 0
 2371 005a 0122     		movs	r2, #1
 2372 005c 2046     		mov	r0, r4
 2373 005e 0221     		movs	r1, #2
 2374 0060 FFF7FEFF 		bl	TERM_sendVT100Code
 2375              	.LVL268:
 760:..\common\ud3core/cli_common.c **** 	ttprintf("E: unknown param\r\n");
 2376              		.loc 1 760 0
 2377 0064 636A     		ldr	r3, [r4, #36]
 2378 0066 0849     		ldr	r1, .L163+12
 2379 0068 6068     		ldr	r0, [r4, #4]
 2380 006a 9847     		blx	r3
 2381              	.LVL269:
 761:..\common\ud3core/cli_common.c **** 	TERM_sendVT100Code(handle, _VT100_FOREGROUND_COLOR, _VT100_WHITE);
 2382              		.loc 1 761 0
ARM GAS  C:\Users\chemi\AppData\Local\Temp\ccFrP3K3.s 			page 60


 2383 006c 2046     		mov	r0, r4
 2384 006e 0722     		movs	r2, #7
 2385 0070 0221     		movs	r1, #2
 2386 0072 FFF7FEFF 		bl	TERM_sendVT100Code
 2387              	.LVL270:
 762:..\common\ud3core/cli_common.c **** 	return 0;
 2388              		.loc 1 762 0
 2389 0076 0020     		movs	r0, #0
 763:..\common\ud3core/cli_common.c **** }
 2390              		.loc 1 763 0
 2391 0078 BDE8F883 		pop	{r3, r4, r5, r6, r7, r8, r9, pc}
 2392              	.LVL271:
 2393              	.L164:
 2394              		.align	2
 2395              	.L163:
 2396 007c 00000000 		.word	.LANCHOR0
 2397 0080 3C030000 		.word	.LC31
 2398 0084 6B040000 		.word	.LC51
 2399 0088 84040000 		.word	.LC52
 2400              		.cfi_endproc
 2401              	.LFE91:
 2402              		.size	CMD_get, .-CMD_get
 2403              		.section	.text.CMD_set,"ax",%progbits
 2404              		.align	1
 2405              		.global	CMD_set
 2406              		.thumb
 2407              		.thumb_func
 2408              		.type	CMD_set, %function
 2409              	CMD_set:
 2410              	.LFB92:
 764:..\common\ud3core/cli_common.c **** 
 765:..\common\ud3core/cli_common.c **** /*****************************************************************************
 766:..\common\ud3core/cli_common.c **** * Set a new value to a parameter
 767:..\common\ud3core/cli_common.c **** ******************************************************************************/
 768:..\common\ud3core/cli_common.c **** uint8_t CMD_set(TERMINAL_HANDLE * handle, uint8_t argCount, char ** args) {
 2411              		.loc 1 768 0
 2412              		.cfi_startproc
 2413              		@ args = 0, pretend = 0, frame = 0
 2414              		@ frame_needed = 0, uses_anonymous_args = 0
 2415              	.LVL272:
 769:..\common\ud3core/cli_common.c **** 
 770:..\common\ud3core/cli_common.c **** 	if(argCount<2){
 2416              		.loc 1 770 0
 2417 0000 0129     		cmp	r1, #1
 768:..\common\ud3core/cli_common.c **** 
 2418              		.loc 1 768 0
 2419 0002 2DE9F84F 		push	{r3, r4, r5, r6, r7, r8, r9, r10, fp, lr}
 2420              		.cfi_def_cfa_offset 40
 2421              		.cfi_offset 3, -40
 2422              		.cfi_offset 4, -36
 2423              		.cfi_offset 5, -32
 2424              		.cfi_offset 6, -28
 2425              		.cfi_offset 7, -24
 2426              		.cfi_offset 8, -20
 2427              		.cfi_offset 9, -16
 2428              		.cfi_offset 10, -12
 2429              		.cfi_offset 11, -8
ARM GAS  C:\Users\chemi\AppData\Local\Temp\ccFrP3K3.s 			page 61


 2430              		.cfi_offset 14, -4
 768:..\common\ud3core/cli_common.c **** 
 2431              		.loc 1 768 0
 2432 0006 0446     		mov	r4, r0
 2433 0008 1646     		mov	r6, r2
 2434              		.loc 1 770 0
 2435 000a 04D8     		bhi	.L166
 771:..\common\ud3core/cli_common.c ****         ttprintf("Usage: set [parameter] [value]\r\n");
 2436              		.loc 1 771 0
 2437 000c 436A     		ldr	r3, [r0, #36]
 2438 000e 2749     		ldr	r1, .L175
 2439              	.LVL273:
 2440 0010 4068     		ldr	r0, [r0, #4]
 2441              	.LVL274:
 2442 0012 9847     		blx	r3
 2443              	.LVL275:
 772:..\common\ud3core/cli_common.c ****         return TERM_CMD_EXIT_SUCCESS;
 2444              		.loc 1 772 0
 2445 0014 47E0     		b	.L167
 2446              	.LVL276:
 2447              	.L166:
 2448              	.LBB20:
 773:..\common\ud3core/cli_common.c ****     }
 774:..\common\ud3core/cli_common.c ****   
 775:..\common\ud3core/cli_common.c **** 	for (uint8_t current_parameter = 0; current_parameter < sizeof(confparam) / sizeof(parameter_entry
 776:..\common\ud3core/cli_common.c **** 		if (strcmp(args[0], confparam[current_parameter].name) == 0) {
 2449              		.loc 1 776 0
 2450 0016 D2F80090 		ldr	r9, [r2]
 2451 001a DFF894A0 		ldr	r10, .L175+4
 2452 001e 0025     		movs	r5, #0
 2453 0020 4FF0240B 		mov	fp, #36
 2454              	.LVL277:
 2455              	.L172:
 2456 0024 0BFB05A8 		mla	r8, fp, r5, r10
 2457 0028 4846     		mov	r0, r9
 2458 002a D8F80410 		ldr	r1, [r8, #4]
 2459 002e EFB2     		uxtb	r7, r5
 2460              	.LVL278:
 2461 0030 FFF7FEFF 		bl	strcmp
 2462              	.LVL279:
 2463 0034 30BB     		cbnz	r0, .L168
 777:..\common\ud3core/cli_common.c **** 			//parameter name found:
 778:..\common\ud3core/cli_common.c **** 
 779:..\common\ud3core/cli_common.c **** 			if (updateDefaultFunction(confparam, args[1],current_parameter, handle)){
 2464              		.loc 1 779 0
 2465 0036 2346     		mov	r3, r4
 2466 0038 3A46     		mov	r2, r7
 2467 003a 7168     		ldr	r1, [r6, #4]
 2468 003c 1C48     		ldr	r0, .L175+4
 2469 003e FFF7FEFF 		bl	updateDefaultFunction
 2470              	.LVL280:
 2471 0042 B8B1     		cbz	r0, .L169
 780:..\common\ud3core/cli_common.c ****                 if(confparam[current_parameter].callback_function){
 2472              		.loc 1 780 0
 2473 0044 D8F81C30 		ldr	r3, [r8, #28]
 2474 0048 63B1     		cbz	r3, .L170
 781:..\common\ud3core/cli_common.c ****                     if (confparam[current_parameter].callback_function(confparam, current_parameter
ARM GAS  C:\Users\chemi\AppData\Local\Temp\ccFrP3K3.s 			page 62


 2475              		.loc 1 781 0
 2476 004a 2246     		mov	r2, r4
 2477 004c 3946     		mov	r1, r7
 2478 004e 1848     		ldr	r0, .L175+4
 2479 0050 9847     		blx	r3
 2480              	.LVL281:
 2481 0052 38B9     		cbnz	r0, .L170
 782:..\common\ud3core/cli_common.c ****                         TERM_sendVT100Code(handle, _VT100_FOREGROUND_COLOR, _VT100_GREEN);
 783:..\common\ud3core/cli_common.c ****                         ttprintf("OK\r\n");
 784:..\common\ud3core/cli_common.c ****                         TERM_sendVT100Code(handle, _VT100_FOREGROUND_COLOR, _VT100_WHITE);
 785:..\common\ud3core/cli_common.c ****                         return TERM_CMD_EXIT_SUCCESS;
 786:..\common\ud3core/cli_common.c ****                     }else{
 787:..\common\ud3core/cli_common.c ****                         TERM_sendVT100Code(handle, _VT100_FOREGROUND_COLOR, _VT100_RED);
 2482              		.loc 1 787 0
 2483 0054 0221     		movs	r1, #2
 2484 0056 0122     		movs	r2, #1
 2485 0058 2046     		mov	r0, r4
 2486 005a FFF7FEFF 		bl	TERM_sendVT100Code
 2487              	.LVL282:
 788:..\common\ud3core/cli_common.c ****                         ttprintf("ERROR: Callback\r\n");
 2488              		.loc 1 788 0
 2489 005e 636A     		ldr	r3, [r4, #36]
 2490 0060 1449     		ldr	r1, .L175+8
 2491 0062 19E0     		b	.L174
 2492              	.L170:
 789:..\common\ud3core/cli_common.c ****                         TERM_sendVT100Code(handle, _VT100_FOREGROUND_COLOR, _VT100_WHITE);
 790:..\common\ud3core/cli_common.c ****                         return TERM_CMD_EXIT_SUCCESS;
 791:..\common\ud3core/cli_common.c ****                     }
 792:..\common\ud3core/cli_common.c ****                 }else{
 793:..\common\ud3core/cli_common.c ****                     TERM_sendVT100Code(handle, _VT100_FOREGROUND_COLOR, _VT100_GREEN);
 2493              		.loc 1 793 0
 2494 0064 0222     		movs	r2, #2
 2495 0066 1146     		mov	r1, r2
 2496 0068 2046     		mov	r0, r4
 2497 006a FFF7FEFF 		bl	TERM_sendVT100Code
 2498              	.LVL283:
 794:..\common\ud3core/cli_common.c ****                     ttprintf("OK\r\n");
 2499              		.loc 1 794 0
 2500 006e 636A     		ldr	r3, [r4, #36]
 2501 0070 1149     		ldr	r1, .L175+12
 2502 0072 11E0     		b	.L174
 2503              	.L169:
 795:..\common\ud3core/cli_common.c ****                     TERM_sendVT100Code(handle, _VT100_FOREGROUND_COLOR, _VT100_WHITE);
 796:..\common\ud3core/cli_common.c ****                     return TERM_CMD_EXIT_SUCCESS;
 797:..\common\ud3core/cli_common.c ****                 }
 798:..\common\ud3core/cli_common.c **** 			} else {
 799:..\common\ud3core/cli_common.c **** 				TERM_sendVT100Code(handle, _VT100_FOREGROUND_COLOR, _VT100_RED);
 2504              		.loc 1 799 0
 2505 0074 0221     		movs	r1, #2
 2506 0076 0122     		movs	r2, #1
 2507 0078 2046     		mov	r0, r4
 2508 007a FFF7FEFF 		bl	TERM_sendVT100Code
 2509              	.LVL284:
 800:..\common\ud3core/cli_common.c **** 				ttprintf("NOK\r\n");
 2510              		.loc 1 800 0
 2511 007e 636A     		ldr	r3, [r4, #36]
 2512 0080 0E49     		ldr	r1, .L175+16
ARM GAS  C:\Users\chemi\AppData\Local\Temp\ccFrP3K3.s 			page 63


 2513 0082 09E0     		b	.L174
 2514              	.L168:
 2515              	.LVL285:
 2516 0084 0135     		adds	r5, r5, #1
 2517              	.LVL286:
 775:..\common\ud3core/cli_common.c **** 		if (strcmp(args[0], confparam[current_parameter].name) == 0) {
 2518              		.loc 1 775 0 discriminator 2
 2519 0086 502D     		cmp	r5, #80
 2520 0088 CCD1     		bne	.L172
 2521              	.LBE20:
 801:..\common\ud3core/cli_common.c **** 				TERM_sendVT100Code(handle, _VT100_FOREGROUND_COLOR, _VT100_WHITE);
 802:..\common\ud3core/cli_common.c **** 				return TERM_CMD_EXIT_SUCCESS;
 803:..\common\ud3core/cli_common.c **** 			}
 804:..\common\ud3core/cli_common.c **** 		}
 805:..\common\ud3core/cli_common.c **** 	}
 806:..\common\ud3core/cli_common.c **** 	TERM_sendVT100Code(handle, _VT100_FOREGROUND_COLOR, _VT100_RED);
 2522              		.loc 1 806 0
 2523 008a 0221     		movs	r1, #2
 2524 008c 0122     		movs	r2, #1
 2525 008e 2046     		mov	r0, r4
 2526 0090 FFF7FEFF 		bl	TERM_sendVT100Code
 2527              	.LVL287:
 807:..\common\ud3core/cli_common.c **** 	ttprintf("E: unknown param\r\n");
 2528              		.loc 1 807 0
 2529 0094 636A     		ldr	r3, [r4, #36]
 2530 0096 0A49     		ldr	r1, .L175+20
 2531              	.LVL288:
 2532              	.L174:
 2533 0098 6068     		ldr	r0, [r4, #4]
 2534 009a 9847     		blx	r3
 2535              	.LVL289:
 808:..\common\ud3core/cli_common.c **** 	TERM_sendVT100Code(handle, _VT100_FOREGROUND_COLOR, _VT100_WHITE);
 2536              		.loc 1 808 0
 2537 009c 0722     		movs	r2, #7
 2538 009e 0221     		movs	r1, #2
 2539 00a0 2046     		mov	r0, r4
 2540 00a2 FFF7FEFF 		bl	TERM_sendVT100Code
 2541              	.LVL290:
 2542              	.L167:
 809:..\common\ud3core/cli_common.c **** 	return TERM_CMD_EXIT_SUCCESS;
 810:..\common\ud3core/cli_common.c **** }
 2543              		.loc 1 810 0
 2544 00a6 FF20     		movs	r0, #255
 2545 00a8 BDE8F88F 		pop	{r3, r4, r5, r6, r7, r8, r9, r10, fp, pc}
 2546              	.LVL291:
 2547              	.L176:
 2548              		.align	2
 2549              	.L175:
 2550 00ac 97040000 		.word	.LC53
 2551 00b0 00000000 		.word	.LANCHOR0
 2552 00b4 BD040000 		.word	.LC55
 2553 00b8 B8040000 		.word	.LC54
 2554 00bc CF040000 		.word	.LC56
 2555 00c0 84040000 		.word	.LC52
 2556              		.cfi_endproc
 2557              	.LFE92:
 2558              		.size	CMD_set, .-CMD_set
ARM GAS  C:\Users\chemi\AppData\Local\Temp\ccFrP3K3.s 			page 64


 2559              		.section	.text.CMD_eeprom,"ax",%progbits
 2560              		.align	1
 2561              		.global	CMD_eeprom
 2562              		.thumb
 2563              		.thumb_func
 2564              		.type	CMD_eeprom, %function
 2565              	CMD_eeprom:
 2566              	.LFB93:
 811:..\common\ud3core/cli_common.c **** 
 812:..\common\ud3core/cli_common.c **** 
 813:..\common\ud3core/cli_common.c **** /*****************************************************************************
 814:..\common\ud3core/cli_common.c **** * Saves confparams to eeprom
 815:..\common\ud3core/cli_common.c **** ******************************************************************************/
 816:..\common\ud3core/cli_common.c **** uint8_t CMD_eeprom(TERMINAL_HANDLE * handle, uint8_t argCount, char ** args) {
 2567              		.loc 1 816 0
 2568              		.cfi_startproc
 2569              		@ args = 0, pretend = 0, frame = 0
 2570              		@ frame_needed = 0, uses_anonymous_args = 0
 2571              	.LVL292:
 2572 0000 F8B5     		push	{r3, r4, r5, r6, r7, lr}
 2573              		.cfi_def_cfa_offset 24
 2574              		.cfi_offset 3, -24
 2575              		.cfi_offset 4, -20
 2576              		.cfi_offset 5, -16
 2577              		.cfi_offset 6, -12
 2578              		.cfi_offset 7, -8
 2579              		.cfi_offset 14, -4
 2580              		.loc 1 816 0
 2581 0002 0446     		mov	r4, r0
 2582 0004 1546     		mov	r5, r2
 817:..\common\ud3core/cli_common.c ****     if(argCount==0 || strcmp(args[0], "-?") == 0){
 2583              		.loc 1 817 0
 2584 0006 21B1     		cbz	r1, .L178
 2585              		.loc 1 817 0 is_stmt 0 discriminator 1
 2586 0008 1C49     		ldr	r1, .L186
 2587              	.LVL293:
 2588 000a 1068     		ldr	r0, [r2]
 2589              	.LVL294:
 2590 000c FFF7FEFF 		bl	strcmp
 2591              	.LVL295:
 2592 0010 20B9     		cbnz	r0, .L179
 2593              	.L178:
 818:..\common\ud3core/cli_common.c ****         ttprintf("Usage: eeprom [load|save]\r\n");
 2594              		.loc 1 818 0 is_stmt 1
 2595 0012 636A     		ldr	r3, [r4, #36]
 2596 0014 1A49     		ldr	r1, .L186+4
 2597 0016 6068     		ldr	r0, [r4, #4]
 2598 0018 9847     		blx	r3
 2599              	.LVL296:
 819:..\common\ud3core/cli_common.c ****         return TERM_CMD_EXIT_SUCCESS;
 2600              		.loc 1 819 0
 2601 001a 2DE0     		b	.L180
 2602              	.L179:
 820:..\common\ud3core/cli_common.c ****     }
 821:..\common\ud3core/cli_common.c ****     EEPROM_1_UpdateTemperature();
 2603              		.loc 1 821 0
 2604 001c FFF7FEFF 		bl	EEPROM_1_UpdateTemperature
ARM GAS  C:\Users\chemi\AppData\Local\Temp\ccFrP3K3.s 			page 65


 2605              	.LVL297:
 822:..\common\ud3core/cli_common.c **** 	uint8 sfflag = system_fault_Read();
 2606              		.loc 1 822 0
 2607 0020 FFF7FEFF 		bl	system_fault_Read
 2608              	.LVL298:
 2609 0024 0746     		mov	r7, r0
 2610              	.LVL299:
 823:..\common\ud3core/cli_common.c **** 	sysflt_set(pdTRUE); //halt tesla coil operation during updates!
 2611              		.loc 1 823 0
 2612 0026 0120     		movs	r0, #1
 2613 0028 FFF7FEFF 		bl	sysflt_set
 2614              	.LVL300:
 824:..\common\ud3core/cli_common.c ****     
 825:..\common\ud3core/cli_common.c **** 	if(strcmp(args[0], "save") == 0){
 2615              		.loc 1 825 0
 2616 002c 2D68     		ldr	r5, [r5]
 2617              	.LVL301:
 2618 002e 1549     		ldr	r1, .L186+8
 2619 0030 2846     		mov	r0, r5
 2620 0032 FFF7FEFF 		bl	strcmp
 2621              	.LVL302:
 2622 0036 0646     		mov	r6, r0
 2623 0038 58B9     		cbnz	r0, .L181
 826:..\common\ud3core/cli_common.c ****         EEPROM_check_hash(confparam,PARAM_SIZE(confparam),handle);
 2624              		.loc 1 826 0
 2625 003a 2246     		mov	r2, r4
 2626 003c 5021     		movs	r1, #80
 2627 003e 1248     		ldr	r0, .L186+12
 2628 0040 FFF7FEFF 		bl	EEPROM_check_hash
 2629              	.LVL303:
 827:..\common\ud3core/cli_common.c **** 	    EEPROM_write_conf(confparam, PARAM_SIZE(confparam),0, handle);
 2630              		.loc 1 827 0
 2631 0044 2346     		mov	r3, r4
 2632 0046 3246     		mov	r2, r6
 2633 0048 5021     		movs	r1, #80
 2634 004a 0F48     		ldr	r0, .L186+12
 2635 004c FFF7FEFF 		bl	EEPROM_write_conf
 2636              	.LVL304:
 2637 0050 10E0     		b	.L182
 2638              	.L181:
 828:..\common\ud3core/cli_common.c ****         
 829:..\common\ud3core/cli_common.c **** 	}else if(strcmp(args[0], "load") == 0){
 2639              		.loc 1 829 0
 2640 0052 0E49     		ldr	r1, .L186+16
 2641 0054 2846     		mov	r0, r5
 2642 0056 FFF7FEFF 		bl	strcmp
 2643              	.LVL305:
 2644 005a 0246     		mov	r2, r0
 2645 005c 50B9     		cbnz	r0, .L182
 830:..\common\ud3core/cli_common.c **** 		EEPROM_read_conf(confparam, PARAM_SIZE(confparam) ,0,handle);
 2646              		.loc 1 830 0
 2647 005e 2346     		mov	r3, r4
 2648 0060 5021     		movs	r1, #80
 2649 0062 0948     		ldr	r0, .L186+12
 2650 0064 FFF7FEFF 		bl	EEPROM_read_conf
 2651              	.LVL306:
 831:..\common\ud3core/cli_common.c ****         
ARM GAS  C:\Users\chemi\AppData\Local\Temp\ccFrP3K3.s 			page 66


 832:..\common\ud3core/cli_common.c ****         configure_interrupter();
 2652              		.loc 1 832 0
 2653 0068 FFF7FEFF 		bl	configure_interrupter
 2654              	.LVL307:
 833:..\common\ud3core/cli_common.c **** 	    initialize_charging();
 2655              		.loc 1 833 0
 2656 006c FFF7FEFF 		bl	initialize_charging
 2657              	.LVL308:
 834:..\common\ud3core/cli_common.c **** 	    configure_ZCD_to_PWM();
 2658              		.loc 1 834 0
 2659 0070 FFF7FEFF 		bl	configure_ZCD_to_PWM
 2660              	.LVL309:
 2661              	.L182:
 835:..\common\ud3core/cli_common.c **** 	}
 836:..\common\ud3core/cli_common.c ****     
 837:..\common\ud3core/cli_common.c ****     system_fault_Control = sfflag;
 2662              		.loc 1 837 0
 2663 0074 064B     		ldr	r3, .L186+20
 2664 0076 1F70     		strb	r7, [r3]
 2665              	.LVL310:
 2666              	.L180:
 838:..\common\ud3core/cli_common.c **** 	return TERM_CMD_EXIT_SUCCESS;
 839:..\common\ud3core/cli_common.c **** }
 2667              		.loc 1 839 0
 2668 0078 FF20     		movs	r0, #255
 2669 007a F8BD     		pop	{r3, r4, r5, r6, r7, pc}
 2670              	.LVL311:
 2671              	.L187:
 2672              		.align	2
 2673              	.L186:
 2674 007c 3C030000 		.word	.LC31
 2675 0080 D5040000 		.word	.LC57
 2676 0084 F1040000 		.word	.LC58
 2677 0088 00000000 		.word	.LANCHOR0
 2678 008c F6040000 		.word	.LC59
 2679 0090 7E640040 		.word	1073767550
 2680              		.cfi_endproc
 2681              	.LFE93:
 2682              		.size	CMD_eeprom, .-CMD_eeprom
 2683              		.section	.text.CMD_bus,"ax",%progbits
 2684              		.align	1
 2685              		.global	CMD_bus
 2686              		.thumb
 2687              		.thumb_func
 2688              		.type	CMD_bus, %function
 2689              	CMD_bus:
 2690              	.LFB94:
 840:..\common\ud3core/cli_common.c **** 
 841:..\common\ud3core/cli_common.c **** /*****************************************************************************
 842:..\common\ud3core/cli_common.c **** * Switches the bus on/off
 843:..\common\ud3core/cli_common.c **** ******************************************************************************/
 844:..\common\ud3core/cli_common.c **** uint8_t CMD_bus(TERMINAL_HANDLE * handle, uint8_t argCount, char ** args){
 2691              		.loc 1 844 0
 2692              		.cfi_startproc
 2693              		@ args = 0, pretend = 0, frame = 0
 2694              		@ frame_needed = 0, uses_anonymous_args = 0
 2695              	.LVL312:
ARM GAS  C:\Users\chemi\AppData\Local\Temp\ccFrP3K3.s 			page 67


 2696 0000 38B5     		push	{r3, r4, r5, lr}
 2697              		.cfi_def_cfa_offset 16
 2698              		.cfi_offset 3, -16
 2699              		.cfi_offset 4, -12
 2700              		.cfi_offset 5, -8
 2701              		.cfi_offset 14, -4
 2702              		.loc 1 844 0
 2703 0002 0446     		mov	r4, r0
 845:..\common\ud3core/cli_common.c ****     if(argCount==0 || strcmp(args[0], "-?") == 0){
 2704              		.loc 1 845 0
 2705 0004 29B1     		cbz	r1, .L189
 2706              		.loc 1 845 0 is_stmt 0 discriminator 1
 2707 0006 1568     		ldr	r5, [r2]
 2708 0008 0F49     		ldr	r1, .L197
 2709              	.LVL313:
 2710 000a 2846     		mov	r0, r5
 2711              	.LVL314:
 2712 000c FFF7FEFF 		bl	strcmp
 2713              	.LVL315:
 2714 0010 10B9     		cbnz	r0, .L190
 2715              	.L189:
 846:..\common\ud3core/cli_common.c ****         ttprintf("Usage: bus [on|off]\r\n");
 2716              		.loc 1 846 0 is_stmt 1
 2717 0012 636A     		ldr	r3, [r4, #36]
 2718 0014 0D49     		ldr	r1, .L197+4
 2719 0016 13E0     		b	.L196
 2720              	.L190:
 847:..\common\ud3core/cli_common.c ****         return TERM_CMD_EXIT_SUCCESS;
 848:..\common\ud3core/cli_common.c ****     }
 849:..\common\ud3core/cli_common.c **** 
 850:..\common\ud3core/cli_common.c **** 	if(strcmp(args[0], "on") == 0){
 2721              		.loc 1 850 0
 2722 0018 0D49     		ldr	r1, .L197+8
 2723 001a 2846     		mov	r0, r5
 2724 001c FFF7FEFF 		bl	strcmp
 2725              	.LVL316:
 2726 0020 28B9     		cbnz	r0, .L192
 851:..\common\ud3core/cli_common.c **** 		bus_command = BUS_COMMAND_ON;
 2727              		.loc 1 851 0
 2728 0022 0C4B     		ldr	r3, .L197+12
 2729 0024 0122     		movs	r2, #1
 2730 0026 1A70     		strb	r2, [r3]
 852:..\common\ud3core/cli_common.c **** 		ttprintf("BUS ON\r\n");
 2731              		.loc 1 852 0
 2732 0028 0B49     		ldr	r1, .L197+16
 2733 002a 636A     		ldr	r3, [r4, #36]
 2734 002c 08E0     		b	.L196
 2735              	.L192:
 853:..\common\ud3core/cli_common.c ****         return TERM_CMD_EXIT_SUCCESS;
 854:..\common\ud3core/cli_common.c **** 	}
 855:..\common\ud3core/cli_common.c **** 	if(strcmp(args[0], "off") == 0){
 2736              		.loc 1 855 0
 2737 002e 0B49     		ldr	r1, .L197+20
 2738 0030 2846     		mov	r0, r5
 2739 0032 FFF7FEFF 		bl	strcmp
 2740              	.LVL317:
 2741 0036 28B9     		cbnz	r0, .L191
ARM GAS  C:\Users\chemi\AppData\Local\Temp\ccFrP3K3.s 			page 68


 856:..\common\ud3core/cli_common.c **** 		bus_command = BUS_COMMAND_OFF;
 2742              		.loc 1 856 0
 2743 0038 064B     		ldr	r3, .L197+12
 857:..\common\ud3core/cli_common.c **** 		ttprintf("BUS OFF\r\n");
 2744              		.loc 1 857 0
 2745 003a 0949     		ldr	r1, .L197+24
 856:..\common\ud3core/cli_common.c **** 		bus_command = BUS_COMMAND_OFF;
 2746              		.loc 1 856 0
 2747 003c 1870     		strb	r0, [r3]
 2748              		.loc 1 857 0
 2749 003e 636A     		ldr	r3, [r4, #36]
 2750              	.L196:
 2751 0040 6068     		ldr	r0, [r4, #4]
 2752 0042 9847     		blx	r3
 2753              	.LVL318:
 2754              	.L191:
 858:..\common\ud3core/cli_common.c ****         return TERM_CMD_EXIT_SUCCESS;
 859:..\common\ud3core/cli_common.c **** 	}
 860:..\common\ud3core/cli_common.c ****     return TERM_CMD_EXIT_SUCCESS;
 861:..\common\ud3core/cli_common.c **** }
 2755              		.loc 1 861 0
 2756 0044 FF20     		movs	r0, #255
 2757 0046 38BD     		pop	{r3, r4, r5, pc}
 2758              	.LVL319:
 2759              	.L198:
 2760              		.align	2
 2761              	.L197:
 2762 0048 3C030000 		.word	.LC31
 2763 004c FB040000 		.word	.LC60
 2764 0050 11050000 		.word	.LC61
 2765 0054 00000000 		.word	bus_command
 2766 0058 14050000 		.word	.LC62
 2767 005c 1D050000 		.word	.LC63
 2768 0060 21050000 		.word	.LC64
 2769              		.cfi_endproc
 2770              	.LFE94:
 2771              		.size	CMD_bus, .-CMD_bus
 2772              		.section	.text.CMD_load_defaults,"ax",%progbits
 2773              		.align	1
 2774              		.global	CMD_load_defaults
 2775              		.thumb
 2776              		.thumb_func
 2777              		.type	CMD_load_defaults, %function
 2778              	CMD_load_defaults:
 2779              	.LFB95:
 862:..\common\ud3core/cli_common.c **** 
 863:..\common\ud3core/cli_common.c **** /*****************************************************************************
 864:..\common\ud3core/cli_common.c **** * Loads the default parametes out of flash
 865:..\common\ud3core/cli_common.c **** ******************************************************************************/
 866:..\common\ud3core/cli_common.c **** uint8_t CMD_load_defaults(TERMINAL_HANDLE * handle, uint8_t argCount, char ** args){
 2780              		.loc 1 866 0
 2781              		.cfi_startproc
 2782              		@ args = 0, pretend = 0, frame = 0
 2783              		@ frame_needed = 0, uses_anonymous_args = 0
 2784              	.LVL320:
 2785 0000 08B5     		push	{r3, lr}
 2786              		.cfi_def_cfa_offset 8
ARM GAS  C:\Users\chemi\AppData\Local\Temp\ccFrP3K3.s 			page 69


 2787              		.cfi_offset 3, -8
 2788              		.cfi_offset 14, -4
 867:..\common\ud3core/cli_common.c ****     ttprintf("Default parameters loaded\r\n");
 2789              		.loc 1 867 0
 2790 0002 0449     		ldr	r1, .L200
 2791              	.LVL321:
 2792 0004 436A     		ldr	r3, [r0, #36]
 2793 0006 4068     		ldr	r0, [r0, #4]
 2794              	.LVL322:
 2795 0008 9847     		blx	r3
 2796              	.LVL323:
 868:..\common\ud3core/cli_common.c ****     init_config();
 2797              		.loc 1 868 0
 2798 000a FFF7FEFF 		bl	init_config
 2799              	.LVL324:
 869:..\common\ud3core/cli_common.c ****     return TERM_CMD_EXIT_SUCCESS;
 870:..\common\ud3core/cli_common.c **** }
 2800              		.loc 1 870 0
 2801 000e FF20     		movs	r0, #255
 2802 0010 08BD     		pop	{r3, pc}
 2803              	.L201:
 2804 0012 00BF     		.align	2
 2805              	.L200:
 2806 0014 2B050000 		.word	.LC65
 2807              		.cfi_endproc
 2808              	.LFE95:
 2809              		.size	CMD_load_defaults, .-CMD_load_defaults
 2810              		.section	.text.CMD_reset,"ax",%progbits
 2811              		.align	1
 2812              		.global	CMD_reset
 2813              		.thumb
 2814              		.thumb_func
 2815              		.type	CMD_reset, %function
 2816              	CMD_reset:
 2817              	.LFB96:
 871:..\common\ud3core/cli_common.c **** 
 872:..\common\ud3core/cli_common.c **** /*****************************************************************************
 873:..\common\ud3core/cli_common.c **** * Reset of the controller
 874:..\common\ud3core/cli_common.c **** ******************************************************************************/
 875:..\common\ud3core/cli_common.c **** uint8_t CMD_reset(TERMINAL_HANDLE * handle, uint8_t argCount, char ** args){
 2818              		.loc 1 875 0
 2819              		.cfi_startproc
 2820              		@ args = 0, pretend = 0, frame = 0
 2821              		@ frame_needed = 0, uses_anonymous_args = 0
 2822              	.LVL325:
 2823 0000 08B5     		push	{r3, lr}
 2824              		.cfi_def_cfa_offset 8
 2825              		.cfi_offset 3, -8
 2826              		.cfi_offset 14, -4
 876:..\common\ud3core/cli_common.c ****     CySoftwareReset();
 2827              		.loc 1 876 0
 2828 0002 FFF7FEFF 		bl	CySoftwareReset
 2829              	.LVL326:
 877:..\common\ud3core/cli_common.c ****     return TERM_CMD_EXIT_SUCCESS;
 878:..\common\ud3core/cli_common.c **** }
 2830              		.loc 1 878 0
 2831 0006 FF20     		movs	r0, #255
ARM GAS  C:\Users\chemi\AppData\Local\Temp\ccFrP3K3.s 			page 70


 2832 0008 08BD     		pop	{r3, pc}
 2833              		.cfi_endproc
 2834              	.LFE96:
 2835              		.size	CMD_reset, .-CMD_reset
 2836              		.section	.text.CMD_relay,"ax",%progbits
 2837              		.align	1
 2838              		.global	CMD_relay
 2839              		.thumb
 2840              		.thumb_func
 2841              		.type	CMD_relay, %function
 2842              	CMD_relay:
 2843              	.LFB97:
 879:..\common\ud3core/cli_common.c **** 
 880:..\common\ud3core/cli_common.c **** /*****************************************************************************
 881:..\common\ud3core/cli_common.c **** * Switches the user relay 3 or 4
 882:..\common\ud3core/cli_common.c **** ******************************************************************************/
 883:..\common\ud3core/cli_common.c **** uint8_t CMD_relay(TERMINAL_HANDLE * handle, uint8_t argCount, char ** args){
 2844              		.loc 1 883 0
 2845              		.cfi_startproc
 2846              		@ args = 0, pretend = 0, frame = 0
 2847              		@ frame_needed = 0, uses_anonymous_args = 0
 2848              	.LVL327:
 884:..\common\ud3core/cli_common.c ****     if(argCount<2 || strcmp(args[0], "-?") == 0){
 2849              		.loc 1 884 0
 2850 0000 0129     		cmp	r1, #1
 883:..\common\ud3core/cli_common.c ****     if(argCount<2 || strcmp(args[0], "-?") == 0){
 2851              		.loc 1 883 0
 2852 0002 70B5     		push	{r4, r5, r6, lr}
 2853              		.cfi_def_cfa_offset 16
 2854              		.cfi_offset 4, -16
 2855              		.cfi_offset 5, -12
 2856              		.cfi_offset 6, -8
 2857              		.cfi_offset 14, -4
 883:..\common\ud3core/cli_common.c ****     if(argCount<2 || strcmp(args[0], "-?") == 0){
 2858              		.loc 1 883 0
 2859 0004 0546     		mov	r5, r0
 2860 0006 1646     		mov	r6, r2
 2861              		.loc 1 884 0
 2862 0008 0FD9     		bls	.L209
 2863              		.loc 1 884 0 is_stmt 0 discriminator 1
 2864 000a 1468     		ldr	r4, [r2]
 2865 000c 1149     		ldr	r1, .L210
 2866              	.LVL328:
 2867 000e 2046     		mov	r0, r4
 2868              	.LVL329:
 2869 0010 FFF7FEFF 		bl	strcmp
 2870              	.LVL330:
 2871 0014 48B1     		cbz	r0, .L209
 885:..\common\ud3core/cli_common.c ****         ttprintf("Usage: relay 3/4 [1|0]\r\n");
 886:..\common\ud3core/cli_common.c ****         return TERM_CMD_EXIT_SUCCESS;
 887:..\common\ud3core/cli_common.c ****     }
 888:..\common\ud3core/cli_common.c ****     
 889:..\common\ud3core/cli_common.c ****     uint8_t r_number = atoi(args[0]);
 2872              		.loc 1 889 0 is_stmt 1
 2873 0016 2046     		mov	r0, r4
 2874 0018 FFF7FEFF 		bl	atoi
 2875              	.LVL331:
ARM GAS  C:\Users\chemi\AppData\Local\Temp\ccFrP3K3.s 			page 71


 2876 001c 0446     		mov	r4, r0
 2877              	.LVL332:
 890:..\common\ud3core/cli_common.c ****     uint8_t value = atoi(args[1]);
 2878              		.loc 1 890 0
 2879 001e 7068     		ldr	r0, [r6, #4]
 2880 0020 FFF7FEFF 		bl	atoi
 2881              	.LVL333:
 2882 0024 C0B2     		uxtb	r0, r0
 2883              	.LVL334:
 891:..\common\ud3core/cli_common.c ****     if(value > 1){
 2884              		.loc 1 891 0
 2885 0026 0128     		cmp	r0, #1
 2886 0028 04D9     		bls	.L207
 2887              	.LVL335:
 2888              	.L209:
 892:..\common\ud3core/cli_common.c ****         ttprintf("Usage: relay 3/4 [1|0]\r\n");
 2889              		.loc 1 892 0
 2890 002a 6B6A     		ldr	r3, [r5, #36]
 2891 002c 0A49     		ldr	r1, .L210+4
 2892 002e 6868     		ldr	r0, [r5, #4]
 2893 0030 9847     		blx	r3
 2894              	.LVL336:
 893:..\common\ud3core/cli_common.c ****         return TERM_CMD_EXIT_SUCCESS;
 2895              		.loc 1 893 0
 2896 0032 0DE0     		b	.L206
 2897              	.LVL337:
 2898              	.L207:
 889:..\common\ud3core/cli_common.c ****     uint8_t value = atoi(args[1]);
 2899              		.loc 1 889 0
 2900 0034 E3B2     		uxtb	r3, r4
 894:..\common\ud3core/cli_common.c ****     }
 895:..\common\ud3core/cli_common.c ****     
 896:..\common\ud3core/cli_common.c ****     if(r_number == 3){
 2901              		.loc 1 896 0
 2902 0036 032B     		cmp	r3, #3
 2903 0038 04D1     		bne	.L208
 897:..\common\ud3core/cli_common.c ****         temp_pwm_WriteCompare1(value ? 255 : 0);
 2904              		.loc 1 897 0
 2905 003a 4042     		negs	r0, r0
 2906              	.LVL338:
 2907 003c C0B2     		uxtb	r0, r0
 2908              	.LVL339:
 2909 003e FFF7FEFF 		bl	temp_pwm_WriteCompare1
 2910              	.LVL340:
 898:..\common\ud3core/cli_common.c ****         return TERM_CMD_EXIT_SUCCESS;
 2911              		.loc 1 898 0
 2912 0042 05E0     		b	.L206
 2913              	.LVL341:
 2914              	.L208:
 899:..\common\ud3core/cli_common.c ****     }
 900:..\common\ud3core/cli_common.c ****     if(r_number == 4){
 2915              		.loc 1 900 0
 2916 0044 042B     		cmp	r3, #4
 2917 0046 03D1     		bne	.L206
 901:..\common\ud3core/cli_common.c ****         temp_pwm_WriteCompare2(value ? 255 : 0);
 2918              		.loc 1 901 0
 2919 0048 4042     		negs	r0, r0
ARM GAS  C:\Users\chemi\AppData\Local\Temp\ccFrP3K3.s 			page 72


 2920              	.LVL342:
 2921 004a C0B2     		uxtb	r0, r0
 2922              	.LVL343:
 2923 004c FFF7FEFF 		bl	temp_pwm_WriteCompare2
 2924              	.LVL344:
 2925              	.L206:
 902:..\common\ud3core/cli_common.c ****         return TERM_CMD_EXIT_SUCCESS;
 903:..\common\ud3core/cli_common.c ****     }
 904:..\common\ud3core/cli_common.c ****     return TERM_CMD_EXIT_SUCCESS;
 905:..\common\ud3core/cli_common.c **** }
 2926              		.loc 1 905 0
 2927 0050 FF20     		movs	r0, #255
 2928 0052 70BD     		pop	{r4, r5, r6, pc}
 2929              	.LVL345:
 2930              	.L211:
 2931              		.align	2
 2932              	.L210:
 2933 0054 3C030000 		.word	.LC31
 2934 0058 47050000 		.word	.LC66
 2935              		.cfi_endproc
 2936              	.LFE97:
 2937              		.size	CMD_relay, .-CMD_relay
 2938              		.section	.text.CMD_pwm,"ax",%progbits
 2939              		.align	1
 2940              		.global	CMD_pwm
 2941              		.thumb
 2942              		.thumb_func
 2943              		.type	CMD_pwm, %function
 2944              	CMD_pwm:
 2945              	.LFB98:
 906:..\common\ud3core/cli_common.c **** 
 907:..\common\ud3core/cli_common.c **** /*****************************************************************************
 908:..\common\ud3core/cli_common.c **** * Switches the user relay 3 or 4
 909:..\common\ud3core/cli_common.c **** ******************************************************************************/
 910:..\common\ud3core/cli_common.c **** uint8_t CMD_pwm(TERMINAL_HANDLE * handle, uint8_t argCount, char ** args){
 2946              		.loc 1 910 0
 2947              		.cfi_startproc
 2948              		@ args = 0, pretend = 0, frame = 0
 2949              		@ frame_needed = 0, uses_anonymous_args = 0
 2950              	.LVL346:
 911:..\common\ud3core/cli_common.c ****     if(argCount<2 || strcmp(args[0], "-?") == 0){
 2951              		.loc 1 911 0
 2952 0000 0129     		cmp	r1, #1
 910:..\common\ud3core/cli_common.c ****     if(argCount<2 || strcmp(args[0], "-?") == 0){
 2953              		.loc 1 910 0
 2954 0002 70B5     		push	{r4, r5, r6, lr}
 2955              		.cfi_def_cfa_offset 16
 2956              		.cfi_offset 4, -16
 2957              		.cfi_offset 5, -12
 2958              		.cfi_offset 6, -8
 2959              		.cfi_offset 14, -4
 910:..\common\ud3core/cli_common.c ****     if(argCount<2 || strcmp(args[0], "-?") == 0){
 2960              		.loc 1 910 0
 2961 0004 0646     		mov	r6, r0
 2962 0006 1546     		mov	r5, r2
 2963              		.loc 1 911 0
 2964 0008 05D9     		bls	.L213
ARM GAS  C:\Users\chemi\AppData\Local\Temp\ccFrP3K3.s 			page 73


 2965              		.loc 1 911 0 is_stmt 0 discriminator 1
 2966 000a 1468     		ldr	r4, [r2]
 2967 000c 0E49     		ldr	r1, .L217
 2968              	.LVL347:
 2969 000e 2046     		mov	r0, r4
 2970              	.LVL348:
 2971 0010 FFF7FEFF 		bl	strcmp
 2972              	.LVL349:
 2973 0014 20B9     		cbnz	r0, .L214
 2974              	.L213:
 912:..\common\ud3core/cli_common.c ****         ttprintf("Usage: pwm 3/4 [0-255]\r\n");
 2975              		.loc 1 912 0 is_stmt 1
 2976 0016 736A     		ldr	r3, [r6, #36]
 2977 0018 0C49     		ldr	r1, .L217+4
 2978 001a 7068     		ldr	r0, [r6, #4]
 2979 001c 9847     		blx	r3
 2980              	.LVL350:
 913:..\common\ud3core/cli_common.c ****         return TERM_CMD_EXIT_SUCCESS;
 2981              		.loc 1 913 0
 2982 001e 10E0     		b	.L215
 2983              	.L214:
 914:..\common\ud3core/cli_common.c ****     }
 915:..\common\ud3core/cli_common.c ****     
 916:..\common\ud3core/cli_common.c ****     uint8_t pwm_number = atoi(args[0]);
 2984              		.loc 1 916 0
 2985 0020 2046     		mov	r0, r4
 2986 0022 FFF7FEFF 		bl	atoi
 2987              	.LVL351:
 2988 0026 C4B2     		uxtb	r4, r0
 2989              	.LVL352:
 917:..\common\ud3core/cli_common.c ****     uint8_t value = atoi(args[1]);
 2990              		.loc 1 917 0
 2991 0028 6868     		ldr	r0, [r5, #4]
 2992 002a FFF7FEFF 		bl	atoi
 2993              	.LVL353:
 918:..\common\ud3core/cli_common.c ****     if(value > 255){
 919:..\common\ud3core/cli_common.c ****         value = 255;
 920:..\common\ud3core/cli_common.c ****     }
 921:..\common\ud3core/cli_common.c ****     
 922:..\common\ud3core/cli_common.c ****     if(pwm_number == 3){
 2994              		.loc 1 922 0
 2995 002e 032C     		cmp	r4, #3
 917:..\common\ud3core/cli_common.c ****     uint8_t value = atoi(args[1]);
 2996              		.loc 1 917 0
 2997 0030 C0B2     		uxtb	r0, r0
 2998              	.LVL354:
 2999              		.loc 1 922 0
 3000 0032 02D1     		bne	.L216
 923:..\common\ud3core/cli_common.c ****         temp_pwm_WriteCompare1(value);
 3001              		.loc 1 923 0
 3002 0034 FFF7FEFF 		bl	temp_pwm_WriteCompare1
 3003              	.LVL355:
 924:..\common\ud3core/cli_common.c ****         return TERM_CMD_EXIT_SUCCESS;
 3004              		.loc 1 924 0
 3005 0038 03E0     		b	.L215
 3006              	.LVL356:
 3007              	.L216:
ARM GAS  C:\Users\chemi\AppData\Local\Temp\ccFrP3K3.s 			page 74


 925:..\common\ud3core/cli_common.c ****     }
 926:..\common\ud3core/cli_common.c ****     if(pwm_number == 4){
 3008              		.loc 1 926 0
 3009 003a 042C     		cmp	r4, #4
 3010 003c 01D1     		bne	.L215
 927:..\common\ud3core/cli_common.c ****         temp_pwm_WriteCompare2(value);
 3011              		.loc 1 927 0
 3012 003e FFF7FEFF 		bl	temp_pwm_WriteCompare2
 3013              	.LVL357:
 3014              	.L215:
 928:..\common\ud3core/cli_common.c ****         return TERM_CMD_EXIT_SUCCESS;
 929:..\common\ud3core/cli_common.c ****     }
 930:..\common\ud3core/cli_common.c ****     return TERM_CMD_EXIT_SUCCESS;
 931:..\common\ud3core/cli_common.c **** }
 3015              		.loc 1 931 0
 3016 0042 FF20     		movs	r0, #255
 3017 0044 70BD     		pop	{r4, r5, r6, pc}
 3018              	.LVL358:
 3019              	.L218:
 3020 0046 00BF     		.align	2
 3021              	.L217:
 3022 0048 3C030000 		.word	.LC31
 3023 004c 60050000 		.word	.LC67
 3024              		.cfi_endproc
 3025              	.LFE98:
 3026              		.size	CMD_pwm, .-CMD_pwm
 3027              		.section	.text.CMD_hwrev,"ax",%progbits
 3028              		.align	1
 3029              		.global	CMD_hwrev
 3030              		.thumb
 3031              		.thumb_func
 3032              		.type	CMD_hwrev, %function
 3033              	CMD_hwrev:
 3034              	.LFB99:
 932:..\common\ud3core/cli_common.c **** 
 933:..\common\ud3core/cli_common.c **** 
 934:..\common\ud3core/cli_common.c **** /*****************************************************************************
 935:..\common\ud3core/cli_common.c **** * Read hardware revision bits
 936:..\common\ud3core/cli_common.c **** ******************************************************************************/
 937:..\common\ud3core/cli_common.c **** uint8_t CMD_hwrev(TERMINAL_HANDLE * handle, uint8_t argCount, char ** args){
 3035              		.loc 1 937 0
 3036              		.cfi_startproc
 3037              		@ args = 0, pretend = 0, frame = 0
 3038              		@ frame_needed = 0, uses_anonymous_args = 0
 3039              	.LVL359:
 3040 0000 F8B5     		push	{r3, r4, r5, r6, r7, lr}
 3041              		.cfi_def_cfa_offset 24
 3042              		.cfi_offset 3, -24
 3043              		.cfi_offset 4, -20
 3044              		.cfi_offset 5, -16
 3045              		.cfi_offset 6, -12
 3046              		.cfi_offset 7, -8
 3047              		.cfi_offset 14, -4
 938:..\common\ud3core/cli_common.c ****     ttprintf("Hardware revision is set to: %u = %s\r\n", configuration.hw_rev, SYS_get_rev_string(c
 3048              		.loc 1 938 0
 3049 0002 0E4B     		ldr	r3, .L220
 3050 0004 466A     		ldr	r6, [r0, #36]
ARM GAS  C:\Users\chemi\AppData\Local\Temp\ccFrP3K3.s 			page 75


 3051 0006 93F87050 		ldrb	r5, [r3, #112]	@ zero_extendqisi2
 3052 000a 4768     		ldr	r7, [r0, #4]
 937:..\common\ud3core/cli_common.c ****     ttprintf("Hardware revision is set to: %u = %s\r\n", configuration.hw_rev, SYS_get_rev_string(c
 3053              		.loc 1 937 0
 3054 000c 0446     		mov	r4, r0
 3055              		.loc 1 938 0
 3056 000e 2846     		mov	r0, r5
 3057              	.LVL360:
 3058 0010 FFF7FEFF 		bl	SYS_get_rev_string
 3059              	.LVL361:
 3060 0014 2A46     		mov	r2, r5
 3061 0016 0346     		mov	r3, r0
 3062 0018 0949     		ldr	r1, .L220+4
 3063 001a 3846     		mov	r0, r7
 3064 001c B047     		blx	r6
 3065              	.LVL362:
 939:..\common\ud3core/cli_common.c ****     
 940:..\common\ud3core/cli_common.c ****     uint8_t rev = SYS_detect_hw_rev();
 3066              		.loc 1 940 0
 3067 001e FFF7FEFF 		bl	SYS_detect_hw_rev
 3068              	.LVL363:
 941:..\common\ud3core/cli_common.c ****     
 942:..\common\ud3core/cli_common.c ****     ttprintf("Hardware revision bits: %u = %s\r\n", rev, SYS_get_rev_string(rev));
 3069              		.loc 1 942 0
 3070 0022 656A     		ldr	r5, [r4, #36]
 940:..\common\ud3core/cli_common.c ****     
 3071              		.loc 1 940 0
 3072 0024 0646     		mov	r6, r0
 3073              	.LVL364:
 3074              		.loc 1 942 0
 3075 0026 6468     		ldr	r4, [r4, #4]
 3076              	.LVL365:
 3077 0028 FFF7FEFF 		bl	SYS_get_rev_string
 3078              	.LVL366:
 3079 002c 3246     		mov	r2, r6
 3080 002e 0346     		mov	r3, r0
 3081 0030 0449     		ldr	r1, .L220+8
 3082 0032 2046     		mov	r0, r4
 3083 0034 A847     		blx	r5
 3084              	.LVL367:
 943:..\common\ud3core/cli_common.c ****     
 944:..\common\ud3core/cli_common.c **** 
 945:..\common\ud3core/cli_common.c ****     return TERM_CMD_EXIT_SUCCESS;
 946:..\common\ud3core/cli_common.c **** }
 3085              		.loc 1 946 0
 3086 0036 FF20     		movs	r0, #255
 3087 0038 F8BD     		pop	{r3, r4, r5, r6, r7, pc}
 3088              	.LVL368:
 3089              	.L221:
 3090 003a 00BF     		.align	2
 3091              	.L220:
 3092 003c 00000000 		.word	configuration
 3093 0040 79050000 		.word	.LC68
 3094 0044 A0050000 		.word	.LC69
 3095              		.cfi_endproc
 3096              	.LFE99:
 3097              		.size	CMD_hwrev, .-CMD_hwrev
ARM GAS  C:\Users\chemi\AppData\Local\Temp\ccFrP3K3.s 			page 76


 3098              		.section	.text.send_signal_state_new,"ax",%progbits
 3099              		.align	1
 3100              		.global	send_signal_state_new
 3101              		.thumb
 3102              		.thumb_func
 3103              		.type	send_signal_state_new, %function
 3104              	send_signal_state_new:
 3105              	.LFB100:
 947:..\common\ud3core/cli_common.c **** 
 948:..\common\ud3core/cli_common.c **** /*****************************************************************************
 949:..\common\ud3core/cli_common.c **** * Signal debugging
 950:..\common\ud3core/cli_common.c **** ******************************************************************************/
 951:..\common\ud3core/cli_common.c **** 
 952:..\common\ud3core/cli_common.c **** void send_signal_state_new(uint8_t signal, uint8_t inverted, TERMINAL_HANDLE * handle){
 3106              		.loc 1 952 0
 3107              		.cfi_startproc
 3108              		@ args = 0, pretend = 0, frame = 0
 3109              		@ frame_needed = 0, uses_anonymous_args = 0
 3110              	.LVL369:
 3111 0000 10B5     		push	{r4, lr}
 3112              		.cfi_def_cfa_offset 8
 3113              		.cfi_offset 4, -8
 3114              		.cfi_offset 14, -4
 3115              		.loc 1 952 0
 3116 0002 1446     		mov	r4, r2
 953:..\common\ud3core/cli_common.c ****     if(inverted) signal = !signal; 
 3117              		.loc 1 953 0
 3118 0004 11B1     		cbz	r1, .L223
 3119              		.loc 1 953 0 is_stmt 0 discriminator 1
 3120 0006 B0FA80F0 		clz	r0, r0
 3121              	.LVL370:
 3122 000a 4009     		lsrs	r0, r0, #5
 3123              	.LVL371:
 3124              	.L223:
 954:..\common\ud3core/cli_common.c ****     if(signal){
 3125              		.loc 1 954 0 is_stmt 1
 3126 000c 38B1     		cbz	r0, .L224
 3127              	.LVL372:
 3128              	.LBB23:
 3129              	.LBB24:
 955:..\common\ud3core/cli_common.c ****         TERM_sendVT100Code(handle, _VT100_FOREGROUND_COLOR, _VT100_RED);
 3130              		.loc 1 955 0
 3131 000e 0221     		movs	r1, #2
 3132              	.LVL373:
 3133 0010 0122     		movs	r2, #1
 3134              	.LVL374:
 3135 0012 2046     		mov	r0, r4
 3136 0014 FFF7FEFF 		bl	TERM_sendVT100Code
 3137              	.LVL375:
 956:..\common\ud3core/cli_common.c ****         ttprintf("true \r\n");
 3138              		.loc 1 956 0
 3139 0018 636A     		ldr	r3, [r4, #36]
 3140 001a 0949     		ldr	r1, .L229
 3141 001c 06E0     		b	.L228
 3142              	.LVL376:
 3143              	.L224:
 3144              	.LBE24:
ARM GAS  C:\Users\chemi\AppData\Local\Temp\ccFrP3K3.s 			page 77


 3145              	.LBE23:
 957:..\common\ud3core/cli_common.c ****         TERM_sendVT100Code(handle, _VT100_FOREGROUND_COLOR, _VT100_WHITE); 
 958:..\common\ud3core/cli_common.c ****     }else{
 959:..\common\ud3core/cli_common.c ****         TERM_sendVT100Code(handle, _VT100_FOREGROUND_COLOR, _VT100_GREEN);
 3146              		.loc 1 959 0
 3147 001e 0222     		movs	r2, #2
 3148              	.LVL377:
 3149 0020 1146     		mov	r1, r2
 3150              	.LVL378:
 3151 0022 2046     		mov	r0, r4
 3152 0024 FFF7FEFF 		bl	TERM_sendVT100Code
 3153              	.LVL379:
 960:..\common\ud3core/cli_common.c ****         ttprintf("false\r\n");
 3154              		.loc 1 960 0
 3155 0028 636A     		ldr	r3, [r4, #36]
 3156 002a 0649     		ldr	r1, .L229+4
 3157              	.L228:
 3158 002c 6068     		ldr	r0, [r4, #4]
 3159 002e 9847     		blx	r3
 3160              	.LVL380:
 961:..\common\ud3core/cli_common.c ****         TERM_sendVT100Code(handle, _VT100_FOREGROUND_COLOR, _VT100_WHITE);
 3161              		.loc 1 961 0
 3162 0030 2046     		mov	r0, r4
 962:..\common\ud3core/cli_common.c ****     }
 963:..\common\ud3core/cli_common.c **** }
 3163              		.loc 1 963 0
 3164 0032 BDE81040 		pop	{r4, lr}
 3165              		.cfi_restore 14
 3166              		.cfi_restore 4
 3167              		.cfi_def_cfa_offset 0
 3168              	.LVL381:
 961:..\common\ud3core/cli_common.c ****         TERM_sendVT100Code(handle, _VT100_FOREGROUND_COLOR, _VT100_WHITE);
 3169              		.loc 1 961 0
 3170 0036 0722     		movs	r2, #7
 3171 0038 0221     		movs	r1, #2
 3172 003a FFF7FEBF 		b	TERM_sendVT100Code
 3173              	.LVL382:
 3174              	.L230:
 3175 003e 00BF     		.align	2
 3176              	.L229:
 3177 0040 C2050000 		.word	.LC70
 3178 0044 CA050000 		.word	.LC71
 3179              		.cfi_endproc
 3180              	.LFE100:
 3181              		.size	send_signal_state_new, .-send_signal_state_new
 3182              		.section	.text.send_signal_state_wo_new,"ax",%progbits
 3183              		.align	1
 3184              		.global	send_signal_state_wo_new
 3185              		.thumb
 3186              		.thumb_func
 3187              		.type	send_signal_state_wo_new, %function
 3188              	send_signal_state_wo_new:
 3189              	.LFB101:
 964:..\common\ud3core/cli_common.c **** void send_signal_state_wo_new(uint8_t signal, uint8_t inverted, TERMINAL_HANDLE * handle){
 3190              		.loc 1 964 0
 3191              		.cfi_startproc
 3192              		@ args = 0, pretend = 0, frame = 0
ARM GAS  C:\Users\chemi\AppData\Local\Temp\ccFrP3K3.s 			page 78


 3193              		@ frame_needed = 0, uses_anonymous_args = 0
 3194              	.LVL383:
 3195 0000 10B5     		push	{r4, lr}
 3196              		.cfi_def_cfa_offset 8
 3197              		.cfi_offset 4, -8
 3198              		.cfi_offset 14, -4
 3199              		.loc 1 964 0
 3200 0002 1446     		mov	r4, r2
 965:..\common\ud3core/cli_common.c ****     if(inverted) signal = !signal; 
 3201              		.loc 1 965 0
 3202 0004 11B1     		cbz	r1, .L232
 3203              		.loc 1 965 0 is_stmt 0 discriminator 1
 3204 0006 B0FA80F0 		clz	r0, r0
 3205              	.LVL384:
 3206 000a 4009     		lsrs	r0, r0, #5
 3207              	.LVL385:
 3208              	.L232:
 966:..\common\ud3core/cli_common.c ****     if(signal){
 3209              		.loc 1 966 0 is_stmt 1
 3210 000c 38B1     		cbz	r0, .L233
 3211              	.LVL386:
 3212              	.LBB27:
 3213              	.LBB28:
 967:..\common\ud3core/cli_common.c ****         TERM_sendVT100Code(handle, _VT100_FOREGROUND_COLOR, _VT100_RED);
 3214              		.loc 1 967 0
 3215 000e 0221     		movs	r1, #2
 3216              	.LVL387:
 3217 0010 0122     		movs	r2, #1
 3218              	.LVL388:
 3219 0012 2046     		mov	r0, r4
 3220 0014 FFF7FEFF 		bl	TERM_sendVT100Code
 3221              	.LVL389:
 968:..\common\ud3core/cli_common.c ****         ttprintf("true ");
 3222              		.loc 1 968 0
 3223 0018 636A     		ldr	r3, [r4, #36]
 3224 001a 0949     		ldr	r1, .L238
 3225 001c 06E0     		b	.L237
 3226              	.LVL390:
 3227              	.L233:
 3228              	.LBE28:
 3229              	.LBE27:
 969:..\common\ud3core/cli_common.c ****         TERM_sendVT100Code(handle, _VT100_FOREGROUND_COLOR, _VT100_WHITE);
 970:..\common\ud3core/cli_common.c ****     }else{
 971:..\common\ud3core/cli_common.c ****         TERM_sendVT100Code(handle, _VT100_FOREGROUND_COLOR, _VT100_GREEN);
 3230              		.loc 1 971 0
 3231 001e 0222     		movs	r2, #2
 3232              	.LVL391:
 3233 0020 1146     		mov	r1, r2
 3234              	.LVL392:
 3235 0022 2046     		mov	r0, r4
 3236 0024 FFF7FEFF 		bl	TERM_sendVT100Code
 3237              	.LVL393:
 972:..\common\ud3core/cli_common.c ****         ttprintf("false");
 3238              		.loc 1 972 0
 3239 0028 636A     		ldr	r3, [r4, #36]
 3240 002a 0649     		ldr	r1, .L238+4
 3241              	.L237:
ARM GAS  C:\Users\chemi\AppData\Local\Temp\ccFrP3K3.s 			page 79


 3242 002c 6068     		ldr	r0, [r4, #4]
 3243 002e 9847     		blx	r3
 3244              	.LVL394:
 973:..\common\ud3core/cli_common.c ****         TERM_sendVT100Code(handle, _VT100_FOREGROUND_COLOR, _VT100_WHITE);
 3245              		.loc 1 973 0
 3246 0030 2046     		mov	r0, r4
 974:..\common\ud3core/cli_common.c ****     }
 975:..\common\ud3core/cli_common.c **** }
 3247              		.loc 1 975 0
 3248 0032 BDE81040 		pop	{r4, lr}
 3249              		.cfi_restore 14
 3250              		.cfi_restore 4
 3251              		.cfi_def_cfa_offset 0
 3252              	.LVL395:
 973:..\common\ud3core/cli_common.c ****         TERM_sendVT100Code(handle, _VT100_FOREGROUND_COLOR, _VT100_WHITE);
 3253              		.loc 1 973 0
 3254 0036 0722     		movs	r2, #7
 3255 0038 0221     		movs	r1, #2
 3256 003a FFF7FEBF 		b	TERM_sendVT100Code
 3257              	.LVL396:
 3258              	.L239:
 3259 003e 00BF     		.align	2
 3260              	.L238:
 3261 0040 D2050000 		.word	.LC72
 3262 0044 D8050000 		.word	.LC73
 3263              		.cfi_endproc
 3264              	.LFE101:
 3265              		.size	send_signal_state_wo_new, .-send_signal_state_wo_new
 3266              		.section	.text.CMD_signals,"ax",%progbits
 3267              		.align	1
 3268              		.global	CMD_signals
 3269              		.thumb
 3270              		.thumb_func
 3271              		.type	CMD_signals, %function
 3272              	CMD_signals:
 3273              	.LFB102:
 976:..\common\ud3core/cli_common.c **** 
 977:..\common\ud3core/cli_common.c **** uint8_t CMD_signals(TERMINAL_HANDLE * handle, uint8_t argCount, char ** args){
 3274              		.loc 1 977 0
 3275              		.cfi_startproc
 3276              		@ args = 0, pretend = 0, frame = 0
 3277              		@ frame_needed = 0, uses_anonymous_args = 0
 3278              	.LVL397:
 3279 0000 2DE9F743 		push	{r0, r1, r2, r4, r5, r6, r7, r8, r9, lr}
 3280              		.cfi_def_cfa_offset 40
 3281              		.cfi_offset 4, -28
 3282              		.cfi_offset 5, -24
 3283              		.cfi_offset 6, -20
 3284              		.cfi_offset 7, -16
 3285              		.cfi_offset 8, -12
 3286              		.cfi_offset 9, -8
 3287              		.cfi_offset 14, -4
 3288              		.loc 1 977 0
 3289 0004 0446     		mov	r4, r0
 978:..\common\ud3core/cli_common.c ****     TERM_sendVT100Code(handle, _VT100_CLS, 0);
 3290              		.loc 1 978 0
 3291 0006 0022     		movs	r2, #0
ARM GAS  C:\Users\chemi\AppData\Local\Temp\ccFrP3K3.s 			page 80


 3292              	.LVL398:
 3293 0008 1B21     		movs	r1, #27
 3294              	.LVL399:
 3295 000a FFF7FEFF 		bl	TERM_sendVT100Code
 3296              	.LVL400:
 979:..\common\ud3core/cli_common.c ****     TERM_sendVT100Code(handle, _VT100_CURSOR_DISABLE, 0);
 3297              		.loc 1 979 0
 3298 000e 0022     		movs	r2, #0
 3299 0010 1921     		movs	r1, #25
 3300 0012 2046     		mov	r0, r4
 3301 0014 FFF7FEFF 		bl	TERM_sendVT100Code
 3302              	.LVL401:
 3303              	.L249:
 980:..\common\ud3core/cli_common.c ****     do{
 981:..\common\ud3core/cli_common.c ****         TERM_sendVT100Code(handle, _VT100_CURSOR_POS1, 0);
 3304              		.loc 1 981 0
 3305 0018 0022     		movs	r2, #0
 3306 001a 1146     		mov	r1, r2
 3307 001c 2046     		mov	r0, r4
 3308 001e FFF7FEFF 		bl	TERM_sendVT100Code
 3309              	.LVL402:
 982:..\common\ud3core/cli_common.c ****         ttprintf("Signal state [CTRL+C] for quit:\r\n");
 3310              		.loc 1 982 0
 3311 0022 636A     		ldr	r3, [r4, #36]
 3312 0024 9E49     		ldr	r1, .L252
 3313 0026 6068     		ldr	r0, [r4, #4]
 3314 0028 9847     		blx	r3
 3315              	.LVL403:
 983:..\common\ud3core/cli_common.c ****         ttprintf("**************************\r\n");
 3316              		.loc 1 983 0
 3317 002a 636A     		ldr	r3, [r4, #36]
 3318 002c 9D49     		ldr	r1, .L252+4
 3319 002e 6068     		ldr	r0, [r4, #4]
 3320 0030 9847     		blx	r3
 3321              	.LVL404:
 984:..\common\ud3core/cli_common.c ****         ttprintf("UVLO pin: ");
 3322              		.loc 1 984 0
 3323 0032 636A     		ldr	r3, [r4, #36]
 3324 0034 9C49     		ldr	r1, .L252+8
 3325 0036 6068     		ldr	r0, [r4, #4]
 3326 0038 9847     		blx	r3
 3327              	.LVL405:
 985:..\common\ud3core/cli_common.c ****         send_signal_state_wo_new(UVLO_Read(), pdTRUE, handle);
 3328              		.loc 1 985 0
 3329 003a FFF7FEFF 		bl	UVLO_Read
 3330              	.LVL406:
 3331 003e 2246     		mov	r2, r4
 3332 0040 0121     		movs	r1, #1
 3333 0042 FFF7FEFF 		bl	send_signal_state_wo_new
 3334              	.LVL407:
 986:..\common\ud3core/cli_common.c ****         ttprintf(" Clock failure: ");
 3335              		.loc 1 986 0
 3336 0046 636A     		ldr	r3, [r4, #36]
 3337 0048 9849     		ldr	r1, .L252+12
 3338 004a 6068     		ldr	r0, [r4, #4]
 3339 004c 9847     		blx	r3
 3340              	.LVL408:
ARM GAS  C:\Users\chemi\AppData\Local\Temp\ccFrP3K3.s 			page 81


 987:..\common\ud3core/cli_common.c ****         #ifndef SIMULATOR
 988:..\common\ud3core/cli_common.c ****         send_signal_state_new(!(CY_GET_XTND_REG8((void CYFAR *)CYREG_FASTCLK_XMHZ_CSR) & 0x80u),pdT
 3341              		.loc 1 988 0
 3342 004e 984B     		ldr	r3, .L252+16
 989:..\common\ud3core/cli_common.c ****         #else
 990:..\common\ud3core/cli_common.c ****         send_signal_state_new(1,pdTRUE,handle);
 991:..\common\ud3core/cli_common.c ****         #endif
 992:..\common\ud3core/cli_common.c ****         ttprintf("Sysfault driver undervoltage: ");
 993:..\common\ud3core/cli_common.c ****         send_signal_state_new(sysfault.uvlo,pdFALSE,handle);
 3343              		.loc 1 993 0
 3344 0050 984D     		ldr	r5, .L252+20
 988:..\common\ud3core/cli_common.c ****         #else
 3345              		.loc 1 988 0
 3346 0052 1878     		ldrb	r0, [r3]	@ zero_extendqisi2
 3347 0054 2246     		mov	r2, r4
 3348 0056 C043     		mvns	r0, r0
 3349 0058 0121     		movs	r1, #1
 3350 005a C0F3C010 		ubfx	r0, r0, #7, #1
 3351 005e FFF7FEFF 		bl	send_signal_state_new
 3352              	.LVL409:
 992:..\common\ud3core/cli_common.c ****         send_signal_state_new(sysfault.uvlo,pdFALSE,handle);
 3353              		.loc 1 992 0
 3354 0062 636A     		ldr	r3, [r4, #36]
 3355 0064 9449     		ldr	r1, .L252+24
 3356 0066 6068     		ldr	r0, [r4, #4]
 3357 0068 9847     		blx	r3
 3358              	.LVL410:
 3359              		.loc 1 993 0
 3360 006a 2246     		mov	r2, r4
 3361 006c 2878     		ldrb	r0, [r5]	@ zero_extendqisi2
 3362 006e 0021     		movs	r1, #0
 3363 0070 FFF7FEFF 		bl	send_signal_state_new
 3364              	.LVL411:
 994:..\common\ud3core/cli_common.c ****         ttprintf("Sysfault Temp 1: ");
 3365              		.loc 1 994 0
 3366 0074 636A     		ldr	r3, [r4, #36]
 3367 0076 9149     		ldr	r1, .L252+28
 3368 0078 6068     		ldr	r0, [r4, #4]
 3369 007a 9847     		blx	r3
 3370              	.LVL412:
 995:..\common\ud3core/cli_common.c ****         send_signal_state_wo_new(sysfault.temp1,pdFALSE,handle);
 3371              		.loc 1 995 0
 3372 007c 2246     		mov	r2, r4
 3373 007e 6878     		ldrb	r0, [r5, #1]	@ zero_extendqisi2
 3374 0080 0021     		movs	r1, #0
 3375 0082 FFF7FEFF 		bl	send_signal_state_wo_new
 3376              	.LVL413:
 996:..\common\ud3core/cli_common.c ****         ttprintf(" Temp 2: ");
 3377              		.loc 1 996 0
 3378 0086 636A     		ldr	r3, [r4, #36]
 3379 0088 8D49     		ldr	r1, .L252+32
 3380 008a 6068     		ldr	r0, [r4, #4]
 3381 008c 9847     		blx	r3
 3382              	.LVL414:
 997:..\common\ud3core/cli_common.c ****         send_signal_state_new(sysfault.temp2,pdFALSE,handle);
 3383              		.loc 1 997 0
 3384 008e 2246     		mov	r2, r4
ARM GAS  C:\Users\chemi\AppData\Local\Temp\ccFrP3K3.s 			page 82


 3385 0090 A878     		ldrb	r0, [r5, #2]	@ zero_extendqisi2
 3386 0092 0021     		movs	r1, #0
 3387 0094 FFF7FEFF 		bl	send_signal_state_new
 3388              	.LVL415:
 998:..\common\ud3core/cli_common.c ****         ttprintf("Sysfault fuse: ");
 3389              		.loc 1 998 0
 3390 0098 636A     		ldr	r3, [r4, #36]
 3391 009a 8A49     		ldr	r1, .L252+36
 3392 009c 6068     		ldr	r0, [r4, #4]
 3393 009e 9847     		blx	r3
 3394              	.LVL416:
 999:..\common\ud3core/cli_common.c ****         send_signal_state_wo_new(sysfault.fuse,pdFALSE,handle);
 3395              		.loc 1 999 0
 3396 00a0 2246     		mov	r2, r4
 3397 00a2 E878     		ldrb	r0, [r5, #3]	@ zero_extendqisi2
 3398 00a4 0021     		movs	r1, #0
 3399 00a6 FFF7FEFF 		bl	send_signal_state_wo_new
 3400              	.LVL417:
1000:..\common\ud3core/cli_common.c ****         ttprintf(" charging: ");
 3401              		.loc 1 1000 0
 3402 00aa 636A     		ldr	r3, [r4, #36]
 3403 00ac 8649     		ldr	r1, .L252+40
 3404 00ae 6068     		ldr	r0, [r4, #4]
 3405 00b0 9847     		blx	r3
 3406              	.LVL418:
1001:..\common\ud3core/cli_common.c ****         send_signal_state_new(sysfault.charge,pdFALSE,handle);
 3407              		.loc 1 1001 0
 3408 00b2 2246     		mov	r2, r4
 3409 00b4 2879     		ldrb	r0, [r5, #4]	@ zero_extendqisi2
 3410 00b6 0021     		movs	r1, #0
 3411 00b8 FFF7FEFF 		bl	send_signal_state_new
 3412              	.LVL419:
1002:..\common\ud3core/cli_common.c ****         ttprintf("Sysfault watchdog: ");
 3413              		.loc 1 1002 0
 3414 00bc 636A     		ldr	r3, [r4, #36]
 3415 00be 8349     		ldr	r1, .L252+44
 3416 00c0 6068     		ldr	r0, [r4, #4]
 3417 00c2 9847     		blx	r3
 3418              	.LVL420:
1003:..\common\ud3core/cli_common.c ****         send_signal_state_wo_new(sysfault.watchdog,pdFALSE,handle);
 3419              		.loc 1 1003 0
 3420 00c4 2246     		mov	r2, r4
 3421 00c6 6879     		ldrb	r0, [r5, #5]	@ zero_extendqisi2
 3422 00c8 0021     		movs	r1, #0
 3423 00ca FFF7FEFF 		bl	send_signal_state_wo_new
 3424              	.LVL421:
1004:..\common\ud3core/cli_common.c ****         ttprintf(" updating: ");
 3425              		.loc 1 1004 0
 3426 00ce 636A     		ldr	r3, [r4, #36]
 3427 00d0 7F49     		ldr	r1, .L252+48
 3428 00d2 6068     		ldr	r0, [r4, #4]
 3429 00d4 9847     		blx	r3
 3430              	.LVL422:
1005:..\common\ud3core/cli_common.c ****         send_signal_state_new(sysfault.update,pdFALSE,handle);
 3431              		.loc 1 1005 0
 3432 00d6 2246     		mov	r2, r4
 3433 00d8 A879     		ldrb	r0, [r5, #6]	@ zero_extendqisi2
ARM GAS  C:\Users\chemi\AppData\Local\Temp\ccFrP3K3.s 			page 83


 3434 00da 0021     		movs	r1, #0
 3435 00dc FFF7FEFF 		bl	send_signal_state_new
 3436              	.LVL423:
1006:..\common\ud3core/cli_common.c ****         ttprintf("Sysfault bus uvlo: ");
 3437              		.loc 1 1006 0
 3438 00e0 636A     		ldr	r3, [r4, #36]
 3439 00e2 7C49     		ldr	r1, .L252+52
 3440 00e4 6068     		ldr	r0, [r4, #4]
 3441 00e6 9847     		blx	r3
 3442              	.LVL424:
1007:..\common\ud3core/cli_common.c ****         send_signal_state_wo_new(sysfault.bus_uv,pdFALSE,handle);
 3443              		.loc 1 1007 0
 3444 00e8 2246     		mov	r2, r4
 3445 00ea E879     		ldrb	r0, [r5, #7]	@ zero_extendqisi2
 3446 00ec 0021     		movs	r1, #0
 3447 00ee FFF7FEFF 		bl	send_signal_state_wo_new
 3448              	.LVL425:
1008:..\common\ud3core/cli_common.c ****         ttprintf(" feedback: ");
 3449              		.loc 1 1008 0
 3450 00f2 636A     		ldr	r3, [r4, #36]
 3451 00f4 7849     		ldr	r1, .L252+56
 3452 00f6 6068     		ldr	r0, [r4, #4]
 3453 00f8 9847     		blx	r3
 3454              	.LVL426:
1009:..\common\ud3core/cli_common.c ****         send_signal_state_new(sysfault.feedback,pdFALSE,handle);
 3455              		.loc 1 1009 0
 3456 00fa 2246     		mov	r2, r4
 3457 00fc A87A     		ldrb	r0, [r5, #10]	@ zero_extendqisi2
 3458 00fe 0021     		movs	r1, #0
 3459 0100 FFF7FEFF 		bl	send_signal_state_new
 3460              	.LVL427:
1010:..\common\ud3core/cli_common.c ****         ttprintf("Sysfault interlock: ");
 3461              		.loc 1 1010 0
 3462 0104 636A     		ldr	r3, [r4, #36]
 3463 0106 7549     		ldr	r1, .L252+60
 3464 0108 6068     		ldr	r0, [r4, #4]
 3465 010a 9847     		blx	r3
 3466              	.LVL428:
1011:..\common\ud3core/cli_common.c ****         send_signal_state_wo_new(sysfault.interlock,pdFALSE,handle);
 3467              		.loc 1 1011 0
 3468 010c 2246     		mov	r2, r4
 3469 010e 287A     		ldrb	r0, [r5, #8]	@ zero_extendqisi2
 3470 0110 0021     		movs	r1, #0
 3471 0112 FFF7FEFF 		bl	send_signal_state_wo_new
 3472              	.LVL429:
1012:..\common\ud3core/cli_common.c ****         ttprintf(" link: ");
 3473              		.loc 1 1012 0
 3474 0116 636A     		ldr	r3, [r4, #36]
 3475 0118 7149     		ldr	r1, .L252+64
 3476 011a 6068     		ldr	r0, [r4, #4]
 3477 011c 9847     		blx	r3
 3478              	.LVL430:
1013:..\common\ud3core/cli_common.c ****         send_signal_state_wo_new(sysfault.link_state,pdFALSE,handle);
 3479              		.loc 1 1013 0
 3480 011e 2246     		mov	r2, r4
 3481 0120 687A     		ldrb	r0, [r5, #9]	@ zero_extendqisi2
 3482 0122 0021     		movs	r1, #0
ARM GAS  C:\Users\chemi\AppData\Local\Temp\ccFrP3K3.s 			page 84


 3483 0124 FFF7FEFF 		bl	send_signal_state_wo_new
 3484              	.LVL431:
1014:..\common\ud3core/cli_common.c ****         ttprintf(" combined: ");
 3485              		.loc 1 1014 0
 3486 0128 636A     		ldr	r3, [r4, #36]
 3487 012a 6E49     		ldr	r1, .L252+68
 3488 012c 6068     		ldr	r0, [r4, #4]
 3489 012e 9847     		blx	r3
 3490              	.LVL432:
1015:..\common\ud3core/cli_common.c ****         send_signal_state_new(system_fault_Read(),pdTRUE,handle);
 3491              		.loc 1 1015 0
 3492 0130 FFF7FEFF 		bl	system_fault_Read
 3493              	.LVL433:
 3494 0134 2246     		mov	r2, r4
 3495 0136 0121     		movs	r1, #1
 3496 0138 FFF7FEFF 		bl	send_signal_state_new
 3497              	.LVL434:
1016:..\common\ud3core/cli_common.c ****         ttprintf("Feedback errors: %4u\r\n", feedback_error_cnt);
 3498              		.loc 1 1016 0
 3499 013c 6A4A     		ldr	r2, .L252+72
 3500 013e 636A     		ldr	r3, [r4, #36]
 3501 0140 1268     		ldr	r2, [r2]
 3502 0142 6A49     		ldr	r1, .L252+76
 3503 0144 6068     		ldr	r0, [r4, #4]
 3504 0146 9847     		blx	r3
 3505              	.LVL435:
1017:..\common\ud3core/cli_common.c ****         ttprintf("Relay 1: ");
 3506              		.loc 1 1017 0
 3507 0148 636A     		ldr	r3, [r4, #36]
 3508 014a 6949     		ldr	r1, .L252+80
 3509 014c 6068     		ldr	r0, [r4, #4]
 3510 014e 9847     		blx	r3
 3511              	.LVL436:
1018:..\common\ud3core/cli_common.c ****         send_signal_state_wo_new(relay_read_bus(),pdFALSE,handle);
 3512              		.loc 1 1018 0
 3513 0150 FFF7FEFF 		bl	Relay1_Read
 3514              	.LVL437:
 3515 0154 2246     		mov	r2, r4
 3516 0156 0021     		movs	r1, #0
 3517 0158 FFF7FEFF 		bl	send_signal_state_wo_new
 3518              	.LVL438:
1019:..\common\ud3core/cli_common.c ****         ttprintf(" Relay 2: ");
 3519              		.loc 1 1019 0
 3520 015c 636A     		ldr	r3, [r4, #36]
 3521 015e 6549     		ldr	r1, .L252+84
 3522 0160 6068     		ldr	r0, [r4, #4]
 3523 0162 9847     		blx	r3
 3524              	.LVL439:
1020:..\common\ud3core/cli_common.c ****         send_signal_state_wo_new(relay_read_charge_end(),pdFALSE,handle);
 3525              		.loc 1 1020 0
 3526 0164 FFF7FEFF 		bl	Relay2_Read
 3527              	.LVL440:
 3528 0168 2246     		mov	r2, r4
 3529 016a 0021     		movs	r1, #0
 3530 016c FFF7FEFF 		bl	send_signal_state_wo_new
 3531              	.LVL441:
1021:..\common\ud3core/cli_common.c ****         ttprintf(" Relay 3: ");
ARM GAS  C:\Users\chemi\AppData\Local\Temp\ccFrP3K3.s 			page 85


 3532              		.loc 1 1021 0
 3533 0170 636A     		ldr	r3, [r4, #36]
 3534 0172 6149     		ldr	r1, .L252+88
 3535 0174 6068     		ldr	r0, [r4, #4]
 3536 0176 9847     		blx	r3
 3537              	.LVL442:
1022:..\common\ud3core/cli_common.c ****         send_signal_state_wo_new(Relay3_Read(),pdFALSE,handle);
 3538              		.loc 1 1022 0
 3539 0178 FFF7FEFF 		bl	Relay3_Read
 3540              	.LVL443:
 3541 017c 2246     		mov	r2, r4
 3542 017e 0021     		movs	r1, #0
 3543 0180 FFF7FEFF 		bl	send_signal_state_wo_new
 3544              	.LVL444:
1023:..\common\ud3core/cli_common.c ****         ttprintf(" Relay 4: ");
 3545              		.loc 1 1023 0
 3546 0184 636A     		ldr	r3, [r4, #36]
 3547 0186 5D49     		ldr	r1, .L252+92
 3548 0188 6068     		ldr	r0, [r4, #4]
 3549 018a 9847     		blx	r3
 3550              	.LVL445:
1024:..\common\ud3core/cli_common.c ****         send_signal_state_new(Relay4_Read(),pdFALSE,handle);
 3551              		.loc 1 1024 0
 3552 018c FFF7FEFF 		bl	Relay4_Read
 3553              	.LVL446:
 3554 0190 2246     		mov	r2, r4
 3555 0192 0021     		movs	r1, #0
 3556 0194 FFF7FEFF 		bl	send_signal_state_new
 3557              	.LVL447:
1025:..\common\ud3core/cli_common.c ****         ttprintf("Fan: ");
 3558              		.loc 1 1025 0
 3559 0198 636A     		ldr	r3, [r4, #36]
 3560 019a 5949     		ldr	r1, .L252+96
 3561 019c 6068     		ldr	r0, [r4, #4]
 3562 019e 9847     		blx	r3
 3563              	.LVL448:
1026:..\common\ud3core/cli_common.c ****         send_signal_state_wo_new(Fan_Read(),pdFALSE,handle);
 3564              		.loc 1 1026 0
 3565 01a0 FFF7FEFF 		bl	Fan_Read
 3566              	.LVL449:
 3567 01a4 2246     		mov	r2, r4
 3568 01a6 0021     		movs	r1, #0
 3569 01a8 FFF7FEFF 		bl	send_signal_state_wo_new
 3570              	.LVL450:
1027:..\common\ud3core/cli_common.c ****         ttprintf(" Bus status: ");
1028:..\common\ud3core/cli_common.c ****         TERM_sendVT100Code(handle, _VT100_FOREGROUND_COLOR, _VT100_CYAN);
1029:..\common\ud3core/cli_common.c ****         switch(tt.n.bus_status.value){
 3571              		.loc 1 1029 0
 3572 01ac 554D     		ldr	r5, .L252+100
1027:..\common\ud3core/cli_common.c ****         ttprintf(" Bus status: ");
 3573              		.loc 1 1027 0
 3574 01ae 636A     		ldr	r3, [r4, #36]
 3575 01b0 5549     		ldr	r1, .L252+104
 3576 01b2 6068     		ldr	r0, [r4, #4]
 3577 01b4 9847     		blx	r3
 3578              	.LVL451:
1028:..\common\ud3core/cli_common.c ****         switch(tt.n.bus_status.value){
ARM GAS  C:\Users\chemi\AppData\Local\Temp\ccFrP3K3.s 			page 86


 3579              		.loc 1 1028 0
 3580 01b6 0622     		movs	r2, #6
 3581 01b8 0221     		movs	r1, #2
 3582 01ba 2046     		mov	r0, r4
 3583 01bc FFF7FEFF 		bl	TERM_sendVT100Code
 3584              	.LVL452:
 3585              		.loc 1 1029 0
 3586 01c0 D5F8A020 		ldr	r2, [r5, #160]
 3587 01c4 636A     		ldr	r3, [r4, #36]
 3588 01c6 072A     		cmp	r2, #7
 3589 01c8 12D8     		bhi	.L241
 3590 01ca DFE802F0 		tbb	[pc, r2]
 3591              	.L243:
 3592 01ce 0A       		.byte	(.L242-.L243)/2
 3593 01cf 08       		.byte	(.L244-.L243)/2
 3594 01d0 0C       		.byte	(.L245-.L243)/2
 3595 01d1 0E       		.byte	(.L246-.L243)/2
 3596 01d2 11       		.byte	(.L241-.L243)/2
 3597 01d3 11       		.byte	(.L241-.L243)/2
 3598 01d4 04       		.byte	(.L247-.L243)/2
 3599 01d5 06       		.byte	(.L248-.L243)/2
 3600              		.p2align 1
 3601              	.L247:
1030:..\common\ud3core/cli_common.c ****             case BUS_BATT_OV_FLT:
1031:..\common\ud3core/cli_common.c ****                 ttprintf("Overvoltage      ");
 3602              		.loc 1 1031 0
 3603 01d6 4D49     		ldr	r1, .L252+108
 3604 01d8 08E0     		b	.L251
 3605              	.L248:
1032:..\common\ud3core/cli_common.c ****             break;
1033:..\common\ud3core/cli_common.c ****             case BUS_BATT_UV_FLT:
1034:..\common\ud3core/cli_common.c ****                 ttprintf("Undervoltage     ");
 3606              		.loc 1 1034 0
 3607 01da 4D49     		ldr	r1, .L252+112
 3608 01dc 06E0     		b	.L251
 3609              	.L244:
1035:..\common\ud3core/cli_common.c ****             break;
1036:..\common\ud3core/cli_common.c ****             case BUS_CHARGING:
1037:..\common\ud3core/cli_common.c ****                 ttprintf("Charging         ");
 3610              		.loc 1 1037 0
 3611 01de 4D49     		ldr	r1, .L252+116
 3612 01e0 04E0     		b	.L251
 3613              	.L242:
1038:..\common\ud3core/cli_common.c ****             break;
1039:..\common\ud3core/cli_common.c ****             case BUS_OFF:
1040:..\common\ud3core/cli_common.c ****                 ttprintf("Off              ");
 3614              		.loc 1 1040 0
 3615 01e2 4D49     		ldr	r1, .L252+120
 3616 01e4 02E0     		b	.L251
 3617              	.L245:
1041:..\common\ud3core/cli_common.c ****             break;
1042:..\common\ud3core/cli_common.c ****             case BUS_READY:
1043:..\common\ud3core/cli_common.c ****                 ttprintf("Ready            ");
 3618              		.loc 1 1043 0
 3619 01e6 4D49     		ldr	r1, .L252+124
 3620 01e8 00E0     		b	.L251
 3621              	.L246:
ARM GAS  C:\Users\chemi\AppData\Local\Temp\ccFrP3K3.s 			page 87


1044:..\common\ud3core/cli_common.c ****             break;
1045:..\common\ud3core/cli_common.c ****             case BUS_TEMP1_FAULT:
1046:..\common\ud3core/cli_common.c ****                 ttprintf("Temperature fault");
 3622              		.loc 1 1046 0
 3623 01ea 4D49     		ldr	r1, .L252+128
 3624              	.L251:
 3625 01ec 6068     		ldr	r0, [r4, #4]
 3626 01ee 9847     		blx	r3
 3627              	.LVL453:
 3628              	.L241:
1047:..\common\ud3core/cli_common.c ****             break;
1048:..\common\ud3core/cli_common.c ****         }
1049:..\common\ud3core/cli_common.c ****         ttprintf("\r\n");
 3629              		.loc 1 1049 0
 3630 01f0 636A     		ldr	r3, [r4, #36]
 3631 01f2 4C49     		ldr	r1, .L252+132
 3632 01f4 6068     		ldr	r0, [r4, #4]
 3633 01f6 9847     		blx	r3
 3634              	.LVL454:
1050:..\common\ud3core/cli_common.c ****         TERM_sendVT100Code(handle, _VT100_FOREGROUND_COLOR, _VT100_WHITE);
 3635              		.loc 1 1050 0
 3636 01f8 0722     		movs	r2, #7
 3637 01fa 0221     		movs	r1, #2
 3638 01fc 2046     		mov	r0, r4
 3639 01fe FFF7FEFF 		bl	TERM_sendVT100Code
 3640              	.LVL455:
1051:..\common\ud3core/cli_common.c ****         ttprintf("                                    \r");
 3641              		.loc 1 1051 0
 3642 0202 636A     		ldr	r3, [r4, #36]
 3643 0204 4849     		ldr	r1, .L252+136
 3644 0206 6068     		ldr	r0, [r4, #4]
 3645 0208 9847     		blx	r3
 3646              	.LVL456:
1052:..\common\ud3core/cli_common.c ****         ttprintf("Temp 1: %i.%i*C Temp 2: %i.%i*C\r\n", tt.n.temp1.value/10, tt.n.temp1.value%10, t
 3647              		.loc 1 1052 0
 3648 020a D5F88010 		ldr	r1, [r5, #128]
 3649 020e 0A23     		movs	r3, #10
 3650 0210 91FBF3F6 		sdiv	r6, r1, r3
 3651 0214 286E     		ldr	r0, [r5, #96]
 3652 0216 03FB1611 		mls	r1, r3, r6, r1
 3653 021a 90FBF3F2 		sdiv	r2, r0, r3
 3654 021e 0191     		str	r1, [sp, #4]
 3655 0220 03FB1203 		mls	r3, r3, r2, r0
 3656 0224 0096     		str	r6, [sp]
 3657 0226 4149     		ldr	r1, .L252+140
 3658 0228 666A     		ldr	r6, [r4, #36]
 3659 022a 6068     		ldr	r0, [r4, #4]
 3660 022c B047     		blx	r6
 3661              	.LVL457:
1053:..\common\ud3core/cli_common.c ****         ttprintf("                                    \r");
1054:..\common\ud3core/cli_common.c ****         ttprintf("Vbus: %u mV Vbatt: %u mV\r\n", ADC_CountsTo_mVolts(ADC_active_sample_buf[0].v_bus
 3662              		.loc 1 1054 0
 3663 022e 404E     		ldr	r6, .L252+144
1053:..\common\ud3core/cli_common.c ****         ttprintf("                                    \r");
 3664              		.loc 1 1053 0
 3665 0230 3D49     		ldr	r1, .L252+136
 3666 0232 636A     		ldr	r3, [r4, #36]
ARM GAS  C:\Users\chemi\AppData\Local\Temp\ccFrP3K3.s 			page 88


 3667 0234 6068     		ldr	r0, [r4, #4]
 3668 0236 9847     		blx	r3
 3669              	.LVL458:
 3670              		.loc 1 1054 0
 3671 0238 3368     		ldr	r3, [r6]
 3672 023a 676A     		ldr	r7, [r4, #36]
 3673 023c B3F90000 		ldrsh	r0, [r3]
 3674 0240 D4F80480 		ldr	r8, [r4, #4]
 3675 0244 FFF7FEFF 		bl	ADC_CountsTo_mVolts
 3676              	.LVL459:
 3677 0248 3368     		ldr	r3, [r6]
 3678 024a 8146     		mov	r9, r0
 3679 024c B3F90200 		ldrsh	r0, [r3, #2]
 3680 0250 FFF7FEFF 		bl	ADC_CountsTo_mVolts
 3681              	.LVL460:
 3682 0254 4A46     		mov	r2, r9
 3683 0256 0346     		mov	r3, r0
 3684 0258 3649     		ldr	r1, .L252+148
 3685 025a 4046     		mov	r0, r8
 3686 025c B847     		blx	r7
 3687              	.LVL461:
1055:..\common\ud3core/cli_common.c ****         ttprintf("                                    \r");
 3688              		.loc 1 1055 0
 3689 025e 3249     		ldr	r1, .L252+136
 3690 0260 636A     		ldr	r3, [r4, #36]
 3691 0262 6068     		ldr	r0, [r4, #4]
 3692 0264 9847     		blx	r3
 3693              	.LVL462:
1056:..\common\ud3core/cli_common.c ****         ttprintf("Ibus: %u mV Vdriver: %u mV\r\n\r\n", ADC_CountsTo_mVolts(ADC_active_sample_buf[0]
 3694              		.loc 1 1056 0
 3695 0266 3368     		ldr	r3, [r6]
 3696 0268 676A     		ldr	r7, [r4, #36]
 3697 026a B3F90400 		ldrsh	r0, [r3, #4]
 3698 026e D4F80480 		ldr	r8, [r4, #4]
 3699 0272 FFF7FEFF 		bl	ADC_CountsTo_mVolts
 3700              	.LVL463:
 3701 0276 2B6C     		ldr	r3, [r5, #64]
 3702 0278 0246     		mov	r2, r0
 3703 027a 2F49     		ldr	r1, .L252+152
 3704 027c 4046     		mov	r0, r8
 3705 027e B847     		blx	r7
 3706              	.LVL464:
1057:..\common\ud3core/cli_common.c **** 
1058:..\common\ud3core/cli_common.c ****     }while(Term_check_break(handle,250));
 3707              		.loc 1 1058 0
 3708 0280 FA21     		movs	r1, #250
 3709 0282 2046     		mov	r0, r4
 3710 0284 FFF7FEFF 		bl	Term_check_break
 3711              	.LVL465:
 3712 0288 0246     		mov	r2, r0
 3713 028a 0028     		cmp	r0, #0
 3714 028c 7FF4C4AE 		bne	.L249
1059:..\common\ud3core/cli_common.c ****     
1060:..\common\ud3core/cli_common.c ****     TERM_sendVT100Code(handle, _VT100_RESET_ATTRIB, 0);
 3715              		.loc 1 1060 0
 3716 0290 2046     		mov	r0, r4
 3717 0292 0421     		movs	r1, #4
ARM GAS  C:\Users\chemi\AppData\Local\Temp\ccFrP3K3.s 			page 89


 3718 0294 FFF7FEFF 		bl	TERM_sendVT100Code
 3719              	.LVL466:
1061:..\common\ud3core/cli_common.c **** 
1062:..\common\ud3core/cli_common.c ****     return TERM_CMD_EXIT_SUCCESS;
1063:..\common\ud3core/cli_common.c **** }
 3720              		.loc 1 1063 0
 3721 0298 FF20     		movs	r0, #255
 3722 029a 03B0     		add	sp, sp, #12
 3723              		.cfi_def_cfa_offset 28
 3724              		@ sp needed
 3725 029c BDE8F083 		pop	{r4, r5, r6, r7, r8, r9, pc}
 3726              	.LVL467:
 3727              	.L253:
 3728              		.align	2
 3729              	.L252:
 3730 02a0 DE050000 		.word	.LC74
 3731 02a4 00060000 		.word	.LC75
 3732 02a8 1D060000 		.word	.LC76
 3733 02ac 28060000 		.word	.LC77
 3734 02b0 10420040 		.word	1073758736
 3735 02b4 00000000 		.word	sysfault
 3736 02b8 39060000 		.word	.LC78
 3737 02bc 58060000 		.word	.LC79
 3738 02c0 6A060000 		.word	.LC80
 3739 02c4 74060000 		.word	.LC81
 3740 02c8 84060000 		.word	.LC82
 3741 02cc 90060000 		.word	.LC83
 3742 02d0 A4060000 		.word	.LC84
 3743 02d4 B0060000 		.word	.LC85
 3744 02d8 C4060000 		.word	.LC86
 3745 02dc D0060000 		.word	.LC87
 3746 02e0 E5060000 		.word	.LC88
 3747 02e4 ED060000 		.word	.LC89
 3748 02e8 00000000 		.word	feedback_error_cnt
 3749 02ec F9060000 		.word	.LC90
 3750 02f0 10070000 		.word	.LC91
 3751 02f4 1A070000 		.word	.LC92
 3752 02f8 25070000 		.word	.LC93
 3753 02fc 30070000 		.word	.LC94
 3754 0300 3B070000 		.word	.LC95
 3755 0304 00000000 		.word	tt
 3756 0308 41070000 		.word	.LC96
 3757 030c 4F070000 		.word	.LC97
 3758 0310 61070000 		.word	.LC98
 3759 0314 73070000 		.word	.LC99
 3760 0318 85070000 		.word	.LC100
 3761 031c 97070000 		.word	.LC101
 3762 0320 A9070000 		.word	.LC102
 3763 0324 BB070000 		.word	.LC103
 3764 0328 BE070000 		.word	.LC104
 3765 032c E4070000 		.word	.LC105
 3766 0330 00000000 		.word	ADC_active_sample_buf
 3767 0334 06080000 		.word	.LC106
 3768 0338 21080000 		.word	.LC107
 3769              		.cfi_endproc
 3770              	.LFE102:
 3771              		.size	CMD_signals, .-CMD_signals
ARM GAS  C:\Users\chemi\AppData\Local\Temp\ccFrP3K3.s 			page 90


 3772              		.global	confparam
 3773              		.comm	param,36,2
 3774              		.comm	configuration,124,4
 3775              		.comm	ramp,406,2
 3776              		.comm	bus_command,1,1
 3777              		.comm	interrupter,12,4
 3778              		.comm	ct1_dac_val,3,1
 3779              		.comm	params,26,2
 3780              		.section	.rodata
 3781              		.align	2
 3782              		.set	.LANCHOR1,. + 0
 3783              		.type	version, %object
 3784              		.size	version, 24
 3785              	version:
 3786 0000 CE130000 		.word	.LC261
 3787 0004 DB130000 		.word	.LC262
 3788 0008 FB130000 		.word	.LC263
 3789 000c 09140000 		.word	.LC264
 3790 0010 17140000 		.word	.LC265
 3791 0014 2F140000 		.word	.LC266
 3792              		.section	.rodata.str1.1,"aMS",%progbits,1
 3793              	.LC0:
 3794 0000 4552524F 		.ascii	"ERROR: tune_start > tune_end\015\012\000"
 3794      523A2074 
 3794      756E655F 
 3794      73746172 
 3794      74203E20 
 3795              	.LC1:
 3796 001f 6374325F 		.ascii	"ct2_current\000"
 3796      63757272 
 3796      656E7400 
 3797              	.LC2:
 3798 002b 6374325F 		.ascii	"ct2_voltage\000"
 3798      766F6C74 
 3798      61676500 
 3799              	.LC3:
 3800 0037 6374325F 		.ascii	"ct2_offset\000"
 3800      6F666673 
 3800      657400
 3801              	.LC4:
 3802 0042 6374325F 		.ascii	"ct2_ratio\000"
 3802      72617469 
 3802      6F00
 3803              	.LC5:
 3804 004c 6374325F 		.ascii	"ct2_burden\000"
 3804      62757264 
 3804      656E00
 3805              	.LC6:
 3806 0057 76647269 		.ascii	"vdrive\000"
 3806      766500
 3807              	.LC7:
 3808 005e 5761726E 		.ascii	"Warning: Max CT1 current with the current setup is "
 3808      696E673A 
 3808      204D6178 
 3808      20435431 
 3808      20637572 
 3809 0091 25754120 		.ascii	"%uA for OCD and %uA for peak measurement\015\012\000"
ARM GAS  C:\Users\chemi\AppData\Local\Temp\ccFrP3K3.s 			page 91


 3809      666F7220 
 3809      4F434420 
 3809      616E6420 
 3809      25754120 
 3810              	.LC8:
 3811 00bc 5544332D 		.ascii	"UD3-Tesla\000"
 3811      5465736C 
 3811      6100
 3812              	.LC9:
 3813 00c6 4F6E6C79 		.ascii	"Only the folowing combinations are allowed\015\012\000"
 3813      20746865 
 3813      20666F6C 
 3813      6F77696E 
 3813      6720636F 
 3814              	.LC10:
 3815 00f3 3020203D 		.ascii	"0  = no inversion\015\012\000"
 3815      206E6F20 
 3815      696E7665 
 3815      7273696F 
 3815      6E0D0A00 
 3816              	.LC11:
 3817 0107 3120203D 		.ascii	"1  = rx inverted, tx not inverted\015\012\000"
 3817      20727820 
 3817      696E7665 
 3817      72746564 
 3817      2C207478 
 3818              	.LC12:
 3819 012b 3130203D 		.ascii	"10 = rx not inverted, tx inverted\015\012\000"
 3819      20727820 
 3819      6E6F7420 
 3819      696E7665 
 3819      72746564 
 3820              	.LC13:
 3821 014f 3131203D 		.ascii	"11 = rx and tx inverted\015\012\000"
 3821      20727820 
 3821      616E6420 
 3821      74782069 
 3821      6E766572 
 3822              	.LC14:
 3823 0169 0D0A436F 		.ascii	"\015\012Connected clients:\015\012\000"
 3823      6E6E6563 
 3823      74656420 
 3823      636C6965 
 3823      6E74733A 
 3824              	.LC15:
 3825 0180 4E756D00 		.ascii	"Num\000"
 3826              	.LC16:
 3827 0184 7C205265 		.ascii	"| Remote IP\015\012\000"
 3827      6D6F7465 
 3827      2049500D 
 3827      0A00
 3828              	.LC17:
 3829 0192 1B5B3336 		.ascii	"\033[36m%d\000"
 3829      6D256400 
 3830              	.LC18:
 3831 019a 1B5B3332 		.ascii	"\033[32m%s\015\012\000"
 3831      6D25730D 
ARM GAS  C:\Users\chemi\AppData\Local\Temp\ccFrP3K3.s 			page 92


 3831      0A00
 3832              	.LC19:
 3833 01a4 434C492D 		.ascii	"CLI-Sessions: %u/%u\015\012\000"
 3833      53657373 
 3833      696F6E73 
 3833      3A202575 
 3833      2F25750D 
 3834              	.LC20:
 3835 01ba 4D494E20 		.ascii	"MIN monitor    (press [CTRL+C] for quit or press [r"
 3835      6D6F6E69 
 3835      746F7220 
 3835      20202028 
 3835      70726573 
 3836 01ed 5D20666F 		.ascii	"] for reset stats)\015\012\000"
 3836      72207265 
 3836      73657420 
 3836      73746174 
 3836      73290D0A 
 3837              	.LC21:
 3838 0202 25734472 		.ascii	"%sDropped frames        : %lu\015\012\000"
 3838      6F707065 
 3838      64206672 
 3838      616D6573 
 3838      20202020 
 3839              	.LC22:
 3840 0222 25735370 		.ascii	"%sSpurious acks         : %lu\015\012\000"
 3840      7572696F 
 3840      75732061 
 3840      636B7320 
 3840      20202020 
 3841              	.LC23:
 3842 0242 25735265 		.ascii	"%sResets received       : %lu\015\012\000"
 3842      73657473 
 3842      20726563 
 3842      65697665 
 3842      64202020 
 3843              	.LC24:
 3844 0262 25735365 		.ascii	"%sSequence mismatch drop: %lu\015\012\000"
 3844      7175656E 
 3844      6365206D 
 3844      69736D61 
 3844      74636820 
 3845              	.LC25:
 3846 0282 25734D61 		.ascii	"%sMax frames in buffer  : %u\015\012\000"
 3846      78206672 
 3846      616D6573 
 3846      20696E20 
 3846      62756666 
 3847              	.LC26:
 3848 02a1 25734352 		.ascii	"%sCRC errors            : %u\015\012\000"
 3848      43206572 
 3848      726F7273 
 3848      20202020 
 3848      20202020 
 3849              	.LC27:
 3850 02c0 25735265 		.ascii	"%sRemote Time           : %u\015\012\000"
 3850      6D6F7465 
ARM GAS  C:\Users\chemi\AppData\Local\Temp\ccFrP3K3.s 			page 93


 3850      2054696D 
 3850      65202020 
 3850      20202020 
 3851              	.LC28:
 3852 02df 25734C6F 		.ascii	"%sLocal Time            : %u\015\012\000"
 3852      63616C20 
 3852      54696D65 
 3852      20202020 
 3852      20202020 
 3853              	.LC29:
 3854 02fe 25734469 		.ascii	"%sDiff Time             : %i\015\012\000"
 3854      66662054 
 3854      696D6520 
 3854      20202020 
 3854      20202020 
 3855              	.LC30:
 3856 031d 25735265 		.ascii	"%sResync count          : %u\015\012\000"
 3856      73796E63 
 3856      20636F75 
 3856      6E742020 
 3856      20202020 
 3857              	.LC31:
 3858 033c 2D3F00   		.ascii	"-?\000"
 3859              	.LC32:
 3860 033f 636F6E20 		.ascii	"con [info|numcon|min]\015\012\000"
 3860      5B696E66 
 3860      6F7C6E75 
 3860      6D636F6E 
 3860      7C6D696E 
 3861              	.LC33:
 3862 0357 696E666F 		.ascii	"info\000"
 3862      00
 3863              	.LC34:
 3864 035c 6E756D63 		.ascii	"numcon\000"
 3864      6F6E00
 3865              	.LC35:
 3866 0363 6D696E00 		.ascii	"min\000"
 3867              	.LC36:
 3868 0367 63616C69 		.ascii	"calib [measured voltage]\015\012\000"
 3868      62205B6D 
 3868      65617375 
 3868      72656420 
 3868      766F6C74 
 3869              	.LC37:
 3870 0382 436F6C6C 		.ascii	"Collecting samples for %f drive Voltage ...\015\012"
 3870      65637469 
 3870      6E672073 
 3870      616D706C 
 3870      65732066 
 3871 03af 00       		.ascii	"\000"
 3872              	.LC38:
 3873 03b0 53616D70 		.ascii	"Sample %u: %u mv\015\012\000"
 3873      6C652025 
 3873      753A2025 
 3873      75206D76 
 3873      0D0A00
 3874              	.LC39:
ARM GAS  C:\Users\chemi\AppData\Local\Temp\ccFrP3K3.s 			page 94


 3875 03c3 43616E63 		.ascii	"Canceled by user\015\012\000"
 3875      656C6564 
 3875      20627920 
 3875      75736572 
 3875      0D0A00
 3876              	.LC40:
 3877 03d6 4E657720 		.ascii	"New factor: %f\015\012\000"
 3877      66616374 
 3877      6F723A20 
 3877      25660D0A 
 3877      00
 3878              	.LC41:
 3879 03e7 4E554C4C 		.ascii	"NULL\000"
 3879      00
 3880              	.LC42:
 3881 03ec 55736167 		.ascii	"Usage: kill [set|reset|get]\015\012\000"
 3881      653A206B 
 3881      696C6C20 
 3881      5B736574 
 3881      7C726573 
 3882              	.LC43:
 3883 040a 73657400 		.ascii	"set\000"
 3884              	.LC44:
 3885 040e 4B696C6C 		.ascii	"Killbit set\015\012\000"
 3885      62697420 
 3885      7365740D 
 3885      0A00
 3886              	.LC45:
 3887 041c 4641554C 		.ascii	"FAULT: Killbit set\000"
 3887      543A204B 
 3887      696C6C62 
 3887      69742073 
 3887      657400
 3888              	.LC46:
 3889 042f 72657365 		.ascii	"reset\000"
 3889      7400
 3890              	.LC47:
 3891 0435 4B696C6C 		.ascii	"Killbit reset\015\012\000"
 3891      62697420 
 3891      72657365 
 3891      740D0A00 
 3892              	.LC48:
 3893 0445 494E464F 		.ascii	"INFO: Killbit reset\000"
 3893      3A204B69 
 3893      6C6C6269 
 3893      74207265 
 3893      73657400 
 3894              	.LC49:
 3895 0459 67657400 		.ascii	"get\000"
 3896              	.LC50:
 3897 045d 4B696C6C 		.ascii	"Killbit: %u\015\012\000"
 3897      6269743A 
 3897      2025750D 
 3897      0A00
 3898              	.LC51:
 3899 046b 55736167 		.ascii	"Usage: get [parameter]\015\012\000"
 3899      653A2067 
ARM GAS  C:\Users\chemi\AppData\Local\Temp\ccFrP3K3.s 			page 95


 3899      6574205B 
 3899      70617261 
 3899      6D657465 
 3900              	.LC52:
 3901 0484 453A2075 		.ascii	"E: unknown param\015\012\000"
 3901      6E6B6E6F 
 3901      776E2070 
 3901      6172616D 
 3901      0D0A00
 3902              	.LC53:
 3903 0497 55736167 		.ascii	"Usage: set [parameter] [value]\015\012\000"
 3903      653A2073 
 3903      6574205B 
 3903      70617261 
 3903      6D657465 
 3904              	.LC54:
 3905 04b8 4F4B0D0A 		.ascii	"OK\015\012\000"
 3905      00
 3906              	.LC55:
 3907 04bd 4552524F 		.ascii	"ERROR: Callback\015\012\000"
 3907      523A2043 
 3907      616C6C62 
 3907      61636B0D 
 3907      0A00
 3908              	.LC56:
 3909 04cf 4E4F4B0D 		.ascii	"NOK\015\012\000"
 3909      0A00
 3910              	.LC57:
 3911 04d5 55736167 		.ascii	"Usage: eeprom [load|save]\015\012\000"
 3911      653A2065 
 3911      6570726F 
 3911      6D205B6C 
 3911      6F61647C 
 3912              	.LC58:
 3913 04f1 73617665 		.ascii	"save\000"
 3913      00
 3914              	.LC59:
 3915 04f6 6C6F6164 		.ascii	"load\000"
 3915      00
 3916              	.LC60:
 3917 04fb 55736167 		.ascii	"Usage: bus [on|off]\015\012\000"
 3917      653A2062 
 3917      7573205B 
 3917      6F6E7C6F 
 3917      66665D0D 
 3918              	.LC61:
 3919 0511 6F6E00   		.ascii	"on\000"
 3920              	.LC62:
 3921 0514 42555320 		.ascii	"BUS ON\015\012\000"
 3921      4F4E0D0A 
 3921      00
 3922              	.LC63:
 3923 051d 6F666600 		.ascii	"off\000"
 3924              	.LC64:
 3925 0521 42555320 		.ascii	"BUS OFF\015\012\000"
 3925      4F46460D 
 3925      0A00
ARM GAS  C:\Users\chemi\AppData\Local\Temp\ccFrP3K3.s 			page 96


 3926              	.LC65:
 3927 052b 44656661 		.ascii	"Default parameters loaded\015\012\000"
 3927      756C7420 
 3927      70617261 
 3927      6D657465 
 3927      7273206C 
 3928              	.LC66:
 3929 0547 55736167 		.ascii	"Usage: relay 3/4 [1|0]\015\012\000"
 3929      653A2072 
 3929      656C6179 
 3929      20332F34 
 3929      205B317C 
 3930              	.LC67:
 3931 0560 55736167 		.ascii	"Usage: pwm 3/4 [0-255]\015\012\000"
 3931      653A2070 
 3931      776D2033 
 3931      2F34205B 
 3931      302D3235 
 3932              	.LC68:
 3933 0579 48617264 		.ascii	"Hardware revision is set to: %u = %s\015\012\000"
 3933      77617265 
 3933      20726576 
 3933      6973696F 
 3933      6E206973 
 3934              	.LC69:
 3935 05a0 48617264 		.ascii	"Hardware revision bits: %u = %s\015\012\000"
 3935      77617265 
 3935      20726576 
 3935      6973696F 
 3935      6E206269 
 3936              	.LC70:
 3937 05c2 74727565 		.ascii	"true \015\012\000"
 3937      200D0A00 
 3938              	.LC71:
 3939 05ca 66616C73 		.ascii	"false\015\012\000"
 3939      650D0A00 
 3940              	.LC72:
 3941 05d2 74727565 		.ascii	"true \000"
 3941      2000
 3942              	.LC73:
 3943 05d8 66616C73 		.ascii	"false\000"
 3943      6500
 3944              	.LC74:
 3945 05de 5369676E 		.ascii	"Signal state [CTRL+C] for quit:\015\012\000"
 3945      616C2073 
 3945      74617465 
 3945      205B4354 
 3945      524C2B43 
 3946              	.LC75:
 3947 0600 2A2A2A2A 		.ascii	"**************************\015\012\000"
 3947      2A2A2A2A 
 3947      2A2A2A2A 
 3947      2A2A2A2A 
 3947      2A2A2A2A 
 3948              	.LC76:
 3949 061d 55564C4F 		.ascii	"UVLO pin: \000"
 3949      2070696E 
ARM GAS  C:\Users\chemi\AppData\Local\Temp\ccFrP3K3.s 			page 97


 3949      3A2000
 3950              	.LC77:
 3951 0628 20436C6F 		.ascii	" Clock failure: \000"
 3951      636B2066 
 3951      61696C75 
 3951      72653A20 
 3951      00
 3952              	.LC78:
 3953 0639 53797366 		.ascii	"Sysfault driver undervoltage: \000"
 3953      61756C74 
 3953      20647269 
 3953      76657220 
 3953      756E6465 
 3954              	.LC79:
 3955 0658 53797366 		.ascii	"Sysfault Temp 1: \000"
 3955      61756C74 
 3955      2054656D 
 3955      7020313A 
 3955      2000
 3956              	.LC80:
 3957 066a 2054656D 		.ascii	" Temp 2: \000"
 3957      7020323A 
 3957      2000
 3958              	.LC81:
 3959 0674 53797366 		.ascii	"Sysfault fuse: \000"
 3959      61756C74 
 3959      20667573 
 3959      653A2000 
 3960              	.LC82:
 3961 0684 20636861 		.ascii	" charging: \000"
 3961      7267696E 
 3961      673A2000 
 3962              	.LC83:
 3963 0690 53797366 		.ascii	"Sysfault watchdog: \000"
 3963      61756C74 
 3963      20776174 
 3963      6368646F 
 3963      673A2000 
 3964              	.LC84:
 3965 06a4 20757064 		.ascii	" updating: \000"
 3965      6174696E 
 3965      673A2000 
 3966              	.LC85:
 3967 06b0 53797366 		.ascii	"Sysfault bus uvlo: \000"
 3967      61756C74 
 3967      20627573 
 3967      2075766C 
 3967      6F3A2000 
 3968              	.LC86:
 3969 06c4 20666565 		.ascii	" feedback: \000"
 3969      64626163 
 3969      6B3A2000 
 3970              	.LC87:
 3971 06d0 53797366 		.ascii	"Sysfault interlock: \000"
 3971      61756C74 
 3971      20696E74 
 3971      65726C6F 
ARM GAS  C:\Users\chemi\AppData\Local\Temp\ccFrP3K3.s 			page 98


 3971      636B3A20 
 3972              	.LC88:
 3973 06e5 206C696E 		.ascii	" link: \000"
 3973      6B3A2000 
 3974              	.LC89:
 3975 06ed 20636F6D 		.ascii	" combined: \000"
 3975      62696E65 
 3975      643A2000 
 3976              	.LC90:
 3977 06f9 46656564 		.ascii	"Feedback errors: %4u\015\012\000"
 3977      6261636B 
 3977      20657272 
 3977      6F72733A 
 3977      20253475 
 3978              	.LC91:
 3979 0710 52656C61 		.ascii	"Relay 1: \000"
 3979      7920313A 
 3979      2000
 3980              	.LC92:
 3981 071a 2052656C 		.ascii	" Relay 2: \000"
 3981      61792032 
 3981      3A2000
 3982              	.LC93:
 3983 0725 2052656C 		.ascii	" Relay 3: \000"
 3983      61792033 
 3983      3A2000
 3984              	.LC94:
 3985 0730 2052656C 		.ascii	" Relay 4: \000"
 3985      61792034 
 3985      3A2000
 3986              	.LC95:
 3987 073b 46616E3A 		.ascii	"Fan: \000"
 3987      2000
 3988              	.LC96:
 3989 0741 20427573 		.ascii	" Bus status: \000"
 3989      20737461 
 3989      7475733A 
 3989      2000
 3990              	.LC97:
 3991 074f 4F766572 		.ascii	"Overvoltage      \000"
 3991      766F6C74 
 3991      61676520 
 3991      20202020 
 3991      2000
 3992              	.LC98:
 3993 0761 556E6465 		.ascii	"Undervoltage     \000"
 3993      72766F6C 
 3993      74616765 
 3993      20202020 
 3993      2000
 3994              	.LC99:
 3995 0773 43686172 		.ascii	"Charging         \000"
 3995      67696E67 
 3995      20202020 
 3995      20202020 
 3995      2000
 3996              	.LC100:
ARM GAS  C:\Users\chemi\AppData\Local\Temp\ccFrP3K3.s 			page 99


 3997 0785 4F666620 		.ascii	"Off              \000"
 3997      20202020 
 3997      20202020 
 3997      20202020 
 3997      2000
 3998              	.LC101:
 3999 0797 52656164 		.ascii	"Ready            \000"
 3999      79202020 
 3999      20202020 
 3999      20202020 
 3999      2000
 4000              	.LC102:
 4001 07a9 54656D70 		.ascii	"Temperature fault\000"
 4001      65726174 
 4001      75726520 
 4001      6661756C 
 4001      7400
 4002              	.LC103:
 4003 07bb 0D0A00   		.ascii	"\015\012\000"
 4004              	.LC104:
 4005 07be 20202020 		.ascii	"                                    \015\000"
 4005      20202020 
 4005      20202020 
 4005      20202020 
 4005      20202020 
 4006              	.LC105:
 4007 07e4 54656D70 		.ascii	"Temp 1: %i.%i*C Temp 2: %i.%i*C\015\012\000"
 4007      20313A20 
 4007      25692E25 
 4007      692A4320 
 4007      54656D70 
 4008              	.LC106:
 4009 0806 56627573 		.ascii	"Vbus: %u mV Vbatt: %u mV\015\012\000"
 4009      3A202575 
 4009      206D5620 
 4009      56626174 
 4009      743A2025 
 4010              	.LC107:
 4011 0821 49627573 		.ascii	"Ibus: %u mV Vdriver: %u mV\015\012\015\012\000"
 4011      3A202575 
 4011      206D5620 
 4011      56647269 
 4011      7665723A 
 4012              	.LC108:
 4013 0840 707700   		.ascii	"pw\000"
 4014              	.LC109:
 4015 0843 50756C73 		.ascii	"Pulsewidth [us]\000"
 4015      65776964 
 4015      7468205B 
 4015      75735D00 
 4016              	.LC110:
 4017 0853 70776400 		.ascii	"pwd\000"
 4018              	.LC111:
 4019 0857 50756C73 		.ascii	"Pulse Period [us]\000"
 4019      65205065 
 4019      72696F64 
 4019      205B7573 
ARM GAS  C:\Users\chemi\AppData\Local\Temp\ccFrP3K3.s 			page 100


 4019      5D00
 4020              	.LC112:
 4021 0869 766F6C00 		.ascii	"vol\000"
 4022              	.LC113:
 4023 086d 566F6C75 		.ascii	"Volume [0-0xffff]\000"
 4023      6D65205B 
 4023      302D3078 
 4023      66666666 
 4023      5D00
 4024              	.LC114:
 4025 087f 626F6E00 		.ascii	"bon\000"
 4026              	.LC115:
 4027 0883 42757273 		.ascii	"Burst mode ontime [ms] 0=off\000"
 4027      74206D6F 
 4027      6465206F 
 4027      6E74696D 
 4027      65205B6D 
 4028              	.LC116:
 4029 08a0 626F6666 		.ascii	"boff\000"
 4029      00
 4030              	.LC117:
 4031 08a5 42757273 		.ascii	"Burst mode offtime [ms]\000"
 4031      74206D6F 
 4031      6465206F 
 4031      66667469 
 4031      6D65205B 
 4032              	.LC118:
 4033 08bd 74756E65 		.ascii	"tune_start\000"
 4033      5F737461 
 4033      727400
 4034              	.LC119:
 4035 08c8 53746172 		.ascii	"Start frequency [kHz]\000"
 4035      74206672 
 4035      65717565 
 4035      6E637920 
 4035      5B6B487A 
 4036              	.LC120:
 4037 08de 74756E65 		.ascii	"tune_end\000"
 4037      5F656E64 
 4037      00
 4038              	.LC121:
 4039 08e7 456E6420 		.ascii	"End frequency [kHz]\000"
 4039      66726571 
 4039      75656E63 
 4039      79205B6B 
 4039      487A5D00 
 4040              	.LC122:
 4041 08fb 74756E65 		.ascii	"tune_pw\000"
 4041      5F707700 
 4042              	.LC123:
 4043 0903 54756E65 		.ascii	"Tune pulsewidth\000"
 4043      2070756C 
 4043      73657769 
 4043      64746800 
 4044              	.LC124:
 4045 0913 74756E65 		.ascii	"tune_delay\000"
 4045      5F64656C 
ARM GAS  C:\Users\chemi\AppData\Local\Temp\ccFrP3K3.s 			page 101


 4045      617900
 4046              	.LC125:
 4047 091e 54756E65 		.ascii	"Tune delay\000"
 4047      2064656C 
 4047      617900
 4048              	.LC126:
 4049 0929 6F666674 		.ascii	"offtime\000"
 4049      696D6500 
 4050              	.LC127:
 4051 0931 4F666674 		.ascii	"Offtime for MIDI\000"
 4051      696D6520 
 4051      666F7220 
 4051      4D494449 
 4051      00
 4052              	.LC128:
 4053 0942 7163775F 		.ascii	"qcw_ramp\000"
 4053      72616D70 
 4053      00
 4054              	.LC129:
 4055 094b 51435720 		.ascii	"QCW Ramp inc/125us\000"
 4055      52616D70 
 4055      20696E63 
 4055      2F313235 
 4055      757300
 4056              	.LC130:
 4057 095e 7163775F 		.ascii	"qcw_offset\000"
 4057      6F666673 
 4057      657400
 4058              	.LC131:
 4059 0969 51435720 		.ascii	"QCW Ramp start value\000"
 4059      52616D70 
 4059      20737461 
 4059      72742076 
 4059      616C7565 
 4060              	.LC132:
 4061 097e 7163775F 		.ascii	"qcw_hold\000"
 4061      686F6C64 
 4061      00
 4062              	.LC133:
 4063 0987 51435720 		.ascii	"QCW Ramp time to start ramp [125 us]\000"
 4063      52616D70 
 4063      2074696D 
 4063      6520746F 
 4063      20737461 
 4064              	.LC134:
 4065 09ac 7163775F 		.ascii	"qcw_max\000"
 4065      6D617800 
 4066              	.LC135:
 4067 09b4 51435720 		.ascii	"QCW Ramp end value\000"
 4067      52616D70 
 4067      20656E64 
 4067      2076616C 
 4067      756500
 4068              	.LC136:
 4069 09c7 7163775F 		.ascii	"qcw_freq\000"
 4069      66726571 
 4069      00
ARM GAS  C:\Users\chemi\AppData\Local\Temp\ccFrP3K3.s 			page 102


 4070              	.LC137:
 4071 09d0 51435720 		.ascii	"QCW Ramp modulation frequency\000"
 4071      52616D70 
 4071      206D6F64 
 4071      756C6174 
 4071      696F6E20 
 4072              	.LC138:
 4073 09ee 7163775F 		.ascii	"qcw_vol\000"
 4073      766F6C00 
 4074              	.LC139:
 4075 09f6 51435720 		.ascii	"QCW Ramp modulation volume\000"
 4075      52616D70 
 4075      206D6F64 
 4075      756C6174 
 4075      696F6E20 
 4076              	.LC140:
 4077 0a11 7163775F 		.ascii	"qcw_repeat\000"
 4077      72657065 
 4077      617400
 4078              	.LC141:
 4079 0a1c 51435720 		.ascii	"QCW pulse repeat time [ms] <100=single shot\000"
 4079      70756C73 
 4079      65207265 
 4079      70656174 
 4079      2074696D 
 4080              	.LC142:
 4081 0a48 73796E74 		.ascii	"synth\000"
 4081      6800
 4082              	.LC143:
 4083 0a4e 303D6F66 		.ascii	"0=off 1=MIDI 2=SID 3=TR\000"
 4083      6620313D 
 4083      4D494449 
 4083      20323D53 
 4083      49442033 
 4084              	.LC144:
 4085 0a66 7369645F 		.ascii	"sid_hpv_enabled\000"
 4085      6870765F 
 4085      656E6162 
 4085      6C656400 
 4086              	.LC145:
 4087 0a76 75736520 		.ascii	"use hpv for playing square sid voices\000"
 4087      68707620 
 4087      666F7220 
 4087      706C6179 
 4087      696E6720 
 4088              	.LC146:
 4089 0a9c 7369645F 		.ascii	"sid_noise_volume\000"
 4089      6E6F6973 
 4089      655F766F 
 4089      6C756D65 
 4089      00
 4090              	.LC147:
 4091 0aad 73696420 		.ascii	"sid noise volume [0-MAX_VOL] = [0-32767]\000"
 4091      6E6F6973 
 4091      6520766F 
 4091      6C756D65 
 4091      205B302D 
ARM GAS  C:\Users\chemi\AppData\Local\Temp\ccFrP3K3.s 			page 103


 4092              	.LC148:
 4093 0ad6 7369645F 		.ascii	"sid_ch1_volume\000"
 4093      6368315F 
 4093      766F6C75 
 4093      6D6500
 4094              	.LC149:
 4095 0ae5 73696420 		.ascii	"sid channel 1 volume [0-MAX_VOL] = [0-32767]\000"
 4095      6368616E 
 4095      6E656C20 
 4095      3120766F 
 4095      6C756D65 
 4096              	.LC150:
 4097 0b12 7369645F 		.ascii	"sid_ch2_volume\000"
 4097      6368325F 
 4097      766F6C75 
 4097      6D6500
 4098              	.LC151:
 4099 0b21 73696420 		.ascii	"sid channel 2 volume [0-MAX_VOL] = [0-32767]\000"
 4099      6368616E 
 4099      6E656C20 
 4099      3220766F 
 4099      6C756D65 
 4100              	.LC152:
 4101 0b4e 7369645F 		.ascii	"sid_ch3_volume\000"
 4101      6368335F 
 4101      766F6C75 
 4101      6D6500
 4102              	.LC153:
 4103 0b5d 73696420 		.ascii	"sid channel 3 volume [0-MAX_VOL] = [0-32767]\000"
 4103      6368616E 
 4103      6E656C20 
 4103      3320766F 
 4103      6C756D65 
 4104              	.LC154:
 4105 0b8a 77617463 		.ascii	"watchdog\000"
 4105      68646F67 
 4105      00
 4106              	.LC155:
 4107 0b93 57617463 		.ascii	"Watchdog Enable\000"
 4107      68646F67 
 4107      20456E61 
 4107      626C6500 
 4108              	.LC156:
 4109 0ba3 77617463 		.ascii	"watchdog_timeout\000"
 4109      68646F67 
 4109      5F74696D 
 4109      656F7574 
 4109      00
 4110              	.LC157:
 4111 0bb4 57617463 		.ascii	"Watchdog timeout [ms]\000"
 4111      68646F67 
 4111      2074696D 
 4111      656F7574 
 4111      205B6D73 
 4112              	.LC158:
 4113 0bca 6D61785F 		.ascii	"max_tr_pw\000"
 4113      74725F70 
ARM GAS  C:\Users\chemi\AppData\Local\Temp\ccFrP3K3.s 			page 104


 4113      7700
 4114              	.LC159:
 4115 0bd4 4D617869 		.ascii	"Maximum TR PW [uSec]\000"
 4115      6D756D20 
 4115      54522050 
 4115      57205B75 
 4115      5365635D 
 4116              	.LC160:
 4117 0be9 6D61785F 		.ascii	"max_tr_prf\000"
 4117      74725F70 
 4117      726600
 4118              	.LC161:
 4119 0bf4 4D617869 		.ascii	"Maximum TR frequency [Hz]\000"
 4119      6D756D20 
 4119      54522066 
 4119      72657175 
 4119      656E6379 
 4120              	.LC162:
 4121 0c0e 6D61785F 		.ascii	"max_qcw_pw\000"
 4121      7163775F 
 4121      707700
 4122              	.LC163:
 4123 0c19 4D617869 		.ascii	"Maximum QCW PW [ms]\000"
 4123      6D756D20 
 4123      51435720 
 4123      5057205B 
 4123      6D735D00 
 4124              	.LC164:
 4125 0c2d 6D61785F 		.ascii	"max_tr_current\000"
 4125      74725F63 
 4125      75727265 
 4125      6E7400
 4126              	.LC165:
 4127 0c3c 4D617869 		.ascii	"Maximum TR current [A]\000"
 4127      6D756D20 
 4127      54522063 
 4127      75727265 
 4127      6E74205B 
 4128              	.LC166:
 4129 0c53 6D696E5F 		.ascii	"min_tr_current\000"
 4129      74725F63 
 4129      75727265 
 4129      6E7400
 4130              	.LC167:
 4131 0c62 4D696E69 		.ascii	"Minimum TR current [A]\000"
 4131      6D756D20 
 4131      54522063 
 4131      75727265 
 4131      6E74205B 
 4132              	.LC168:
 4133 0c79 6D61785F 		.ascii	"max_qcw_current\000"
 4133      7163775F 
 4133      63757272 
 4133      656E7400 
 4134              	.LC169:
 4135 0c89 4D617869 		.ascii	"Maximum QCW current [A]\000"
 4135      6D756D20 
ARM GAS  C:\Users\chemi\AppData\Local\Temp\ccFrP3K3.s 			page 105


 4135      51435720 
 4135      63757272 
 4135      656E7420 
 4136              	.LC170:
 4137 0ca1 74656D70 		.ascii	"temp1_max\000"
 4137      315F6D61 
 4137      7800
 4138              	.LC171:
 4139 0cab 4D617820 		.ascii	"Max temperature 1 [*C]\000"
 4139      74656D70 
 4139      65726174 
 4139      75726520 
 4139      31205B2A 
 4140              	.LC172:
 4141 0cc2 74656D70 		.ascii	"temp2_max\000"
 4141      325F6D61 
 4141      7800
 4142              	.LC173:
 4143 0ccc 4D617820 		.ascii	"Max temperature 2 [*C]\000"
 4143      74656D70 
 4143      65726174 
 4143      75726520 
 4143      32205B2A 
 4144              	.LC174:
 4145 0ce3 6374315F 		.ascii	"ct1_ratio\000"
 4145      72617469 
 4145      6F00
 4146              	.LC175:
 4147 0ced 43543120 		.ascii	"CT1 (feedback) [N Turns]\000"
 4147      28666565 
 4147      64626163 
 4147      6B29205B 
 4147      4E205475 
 4148              	.LC176:
 4149 0d06 43543220 		.ascii	"CT2 (bus) [N Turns]\000"
 4149      28627573 
 4149      29205B4E 
 4149      20547572 
 4149      6E735D00 
 4150              	.LC177:
 4151 0d1a 6374315F 		.ascii	"ct1_burden\000"
 4151      62757264 
 4151      656E00
 4152              	.LC178:
 4153 0d25 43543120 		.ascii	"CT1 (feedback) burden [Ohm]\000"
 4153      28666565 
 4153      64626163 
 4153      6B292062 
 4153      75726465 
 4154              	.LC179:
 4155 0d41 43543220 		.ascii	"CT2 (bus) burden [Ohm]\000"
 4155      28627573 
 4155      29206275 
 4155      7264656E 
 4155      205B4F68 
 4156              	.LC180:
 4157 0d58 6374325F 		.ascii	"ct2_type\000"
ARM GAS  C:\Users\chemi\AppData\Local\Temp\ccFrP3K3.s 			page 106


 4157      74797065 
 4157      00
 4158              	.LC181:
 4159 0d61 43543220 		.ascii	"CT2 type 0=current 1=voltage\000"
 4159      74797065 
 4159      20303D63 
 4159      75727265 
 4159      6E742031 
 4160              	.LC182:
 4161 0d7e 43543220 		.ascii	"CT2 current @ ct_voltage\000"
 4161      63757272 
 4161      656E7420 
 4161      40206374 
 4161      5F766F6C 
 4162              	.LC183:
 4163 0d97 43543220 		.ascii	"CT2 voltage @ ct_current\000"
 4163      766F6C74 
 4163      61676520 
 4163      40206374 
 4163      5F637572 
 4164              	.LC184:
 4165 0db0 43543220 		.ascii	"CT2 offset voltage\000"
 4165      6F666673 
 4165      65742076 
 4165      6F6C7461 
 4165      676500
 4166              	.LC185:
 4167 0dc3 6C656164 		.ascii	"lead_time\000"
 4167      5F74696D 
 4167      6500
 4168              	.LC186:
 4169 0dcd 4C656164 		.ascii	"Lead time [nSec]\000"
 4169      2074696D 
 4169      65205B6E 
 4169      5365635D 
 4169      00
 4170              	.LC187:
 4171 0dde 73746172 		.ascii	"start_freq\000"
 4171      745F6672 
 4171      657100
 4172              	.LC188:
 4173 0de9 5265736F 		.ascii	"Resonant freq [kHz]\000"
 4173      6E616E74 
 4173      20667265 
 4173      71205B6B 
 4173      487A5D00 
 4174              	.LC189:
 4175 0dfd 73746172 		.ascii	"start_cycles\000"
 4175      745F6379 
 4175      636C6573 
 4175      00
 4176              	.LC190:
 4177 0e0a 53746172 		.ascii	"Start Cyles [N]\000"
 4177      74204379 
 4177      6C657320 
 4177      5B4E5D00 
 4178              	.LC191:
ARM GAS  C:\Users\chemi\AppData\Local\Temp\ccFrP3K3.s 			page 107


 4179 0e1a 6D61785F 		.ascii	"max_tr_duty\000"
 4179      74725F64 
 4179      75747900 
 4180              	.LC192:
 4181 0e26 4D617820 		.ascii	"Max TR duty cycle [%]\000"
 4181      54522064 
 4181      75747920 
 4181      6379636C 
 4181      65205B25 
 4182              	.LC193:
 4183 0e3c 6D61785F 		.ascii	"max_qcw_duty\000"
 4183      7163775F 
 4183      64757479 
 4183      00
 4184              	.LC194:
 4185 0e49 4D617820 		.ascii	"Max QCW duty cycle [%]\000"
 4185      51435720 
 4185      64757479 
 4185      20637963 
 4185      6C65205B 
 4186              	.LC195:
 4187 0e60 74656D70 		.ascii	"temp1_setpoint\000"
 4187      315F7365 
 4187      74706F69 
 4187      6E7400
 4188              	.LC196:
 4189 0e6f 53657470 		.ascii	"Setpoint for fan [*C]\000"
 4189      6F696E74 
 4189      20666F72 
 4189      2066616E 
 4189      205B2A43 
 4190              	.LC197:
 4191 0e85 7069645F 		.ascii	"pid_temp_set\000"
 4191      74656D70 
 4191      5F736574 
 4191      00
 4192              	.LC198:
 4193 0e92 50494420 		.ascii	"PID temp setpoint\000"
 4193      74656D70 
 4193      20736574 
 4193      706F696E 
 4193      7400
 4194              	.LC199:
 4195 0ea4 7069645F 		.ascii	"pid_temp_mode\000"
 4195      74656D70 
 4195      5F6D6F64 
 4195      6500
 4196              	.LC200:
 4197 0eb2 50494420 		.ascii	"PID temp mode  0=disabled 1=PID3_Temp1 2=PID4_Temp1"
 4197      74656D70 
 4197      206D6F64 
 4197      65202030 
 4197      3D646973 
 4198 0ee5 20333D50 		.ascii	" 3=PID3_Temp2 4=PID4_Temp2\000"
 4198      4944335F 
 4198      54656D70 
 4198      3220343D 
ARM GAS  C:\Users\chemi\AppData\Local\Temp\ccFrP3K3.s 			page 108


 4198      50494434 
 4199              	.LC201:
 4200 0f00 7069645F 		.ascii	"pid_temp_p\000"
 4200      74656D70 
 4200      5F7000
 4201              	.LC202:
 4202 0f0b 54656D70 		.ascii	"Temperature PI\000"
 4202      65726174 
 4202      75726520 
 4202      504900
 4203              	.LC203:
 4204 0f1a 7069645F 		.ascii	"pid_temp_i\000"
 4204      74656D70 
 4204      5F6900
 4205              	.LC204:
 4206 0f25 74656D70 		.ascii	"temp2_setpoint\000"
 4206      325F7365 
 4206      74706F69 
 4206      6E7400
 4207              	.LC205:
 4208 0f34 53657470 		.ascii	"Setpoint for TH2 [*C] 0=disabled\000"
 4208      6F696E74 
 4208      20666F72 
 4208      20544832 
 4208      205B2A43 
 4209              	.LC206:
 4210 0f55 74656D70 		.ascii	"temp2_mode\000"
 4210      325F6D6F 
 4210      646500
 4211              	.LC207:
 4212 0f60 54483220 		.ascii	"TH2 setpoint mode  0=disabled 1=FAN 3=Relay3 4=Rela"
 4212      73657470 
 4212      6F696E74 
 4212      206D6F64 
 4212      65202030 
 4213 0f93 793400   		.ascii	"y4\000"
 4214              	.LC208:
 4215 0f96 70735F73 		.ascii	"ps_scheme\000"
 4215      6368656D 
 4215      6500
 4216              	.LC209:
 4217 0fa0 506F7765 		.ascii	"Power supply scheme\000"
 4217      72207375 
 4217      70706C79 
 4217      20736368 
 4217      656D6500 
 4218              	.LC210:
 4219 0fb4 63686172 		.ascii	"charge_delay\000"
 4219      67655F64 
 4219      656C6179 
 4219      00
 4220              	.LC211:
 4221 0fc1 44656C61 		.ascii	"Delay for the charge relay [ms]\000"
 4221      7920666F 
 4221      72207468 
 4221      65206368 
 4221      61726765 
ARM GAS  C:\Users\chemi\AppData\Local\Temp\ccFrP3K3.s 			page 109


 4222              	.LC212:
 4223 0fe1 6175746F 		.ascii	"autotune_s\000"
 4223      74756E65 
 4223      5F7300
 4224              	.LC213:
 4225 0fec 4E756D62 		.ascii	"Number of samples for Autotune\000"
 4225      6572206F 
 4225      66207361 
 4225      6D706C65 
 4225      7320666F 
 4226              	.LC214:
 4227 100b 75645F6E 		.ascii	"ud_name\000"
 4227      616D6500 
 4228              	.LC215:
 4229 1013 4E616D65 		.ascii	"Name of the Coil [15 chars]\000"
 4229      206F6620 
 4229      74686520 
 4229      436F696C 
 4229      205B3135 
 4230              	.LC216:
 4231 102f 62617564 		.ascii	"baudrate\000"
 4231      72617465 
 4231      00
 4232              	.LC217:
 4233 1038 53657269 		.ascii	"Serial baudrate\000"
 4233      616C2062 
 4233      61756472 
 4233      61746500 
 4234              	.LC218:
 4235 1048 69766F5F 		.ascii	"ivo_uart\000"
 4235      75617274 
 4235      00
 4236              	.LC219:
 4237 1051 5B52585D 		.ascii	"[RX][TX] 0=not inverted 1=inverted\000"
 4237      5B54585D 
 4237      20303D6E 
 4237      6F742069 
 4237      6E766572 
 4238              	.LC220:
 4239 1074 725F6275 		.ascii	"r_bus\000"
 4239      7300
 4240              	.LC221:
 4241 107a 53657269 		.ascii	"Series resistor of voltage input [kOhm]\000"
 4241      65732072 
 4241      65736973 
 4241      746F7220 
 4241      6F662076 
 4242              	.LC222:
 4243 10a2 656E615F 		.ascii	"ena_ext_int\000"
 4243      6578745F 
 4243      696E7400 
 4244              	.LC223:
 4245 10ae 456E6162 		.ascii	"Enable external interrupter 2=inverted\000"
 4245      6C652065 
 4245      78746572 
 4245      6E616C20 
 4245      696E7465 
ARM GAS  C:\Users\chemi\AppData\Local\Temp\ccFrP3K3.s 			page 110


 4246              	.LC224:
 4247 10d5 7163775F 		.ascii	"qcw_coil\000"
 4247      636F696C 
 4247      00
 4248              	.LC225:
 4249 10de 49732051 		.ascii	"Is QCW 1=true 0=false\000"
 4249      43572031 
 4249      3D747275 
 4249      6520303D 
 4249      66616C73 
 4250              	.LC226:
 4251 10f4 70636139 		.ascii	"pca9685\000"
 4251      36383500 
 4252              	.LC227:
 4253 10fc 303D6F66 		.ascii	"0=off 1=on\000"
 4253      6620313D 
 4253      6F6E00
 4254              	.LC228:
 4255 1107 6D61785F 		.ascii	"max_fb_errors\000"
 4255      66625F65 
 4255      72726F72 
 4255      7300
 4256              	.LC229:
 4257 1115 303D6F66 		.ascii	"0=off, number of feedback errors per second to sysf"
 4257      662C206E 
 4257      756D6265 
 4257      72206F66 
 4257      20666565 
 4258 1148 61756C74 		.ascii	"ault\000"
 4258      00
 4259              	.LC230:
 4260 114d 6E74635F 		.ascii	"ntc_b\000"
 4260      6200
 4261              	.LC231:
 4262 1153 4E544320 		.ascii	"NTC beta [k]\000"
 4262      62657461 
 4262      205B6B5D 
 4262      00
 4263              	.LC232:
 4264 1160 6E74635F 		.ascii	"ntc_r25\000"
 4264      72323500 
 4265              	.LC233:
 4266 1168 4E544320 		.ascii	"NTC R25 [kOhm]\000"
 4266      52323520 
 4266      5B6B4F68 
 4266      6D5D00
 4267              	.LC234:
 4268 1177 6E74635F 		.ascii	"ntc_idac\000"
 4268      69646163 
 4268      00
 4269              	.LC235:
 4270 1180 69444143 		.ascii	"iDAC measured [uA]\000"
 4270      206D6561 
 4270      73757265 
 4270      64205B75 
 4270      415D00
 4271              	.LC236:
ARM GAS  C:\Users\chemi\AppData\Local\Temp\ccFrP3K3.s 			page 111


 4272 1193 645F6661 		.ascii	"d_factor\000"
 4272      63746F72 
 4272      00
 4273              	.LC237:
 4274 119c 46616374 		.ascii	"Factor for drive voltage measurement\000"
 4274      6F722066 
 4274      6F722064 
 4274      72697665 
 4274      20766F6C 
 4275              	.LC238:
 4276 11c1 68774761 		.ascii	"hwGauge_cfg\000"
 4276      7567655F 
 4276      63666700 
 4277              	.LC239:
 4278 11cd 67617567 		.ascii	"gauge configs, configure with the \"hwGauge\" comma"
 4278      6520636F 
 4278      6E666967 
 4278      732C2063 
 4278      6F6E6669 
 4279 11fe 6E6400   		.ascii	"nd\000"
 4280              	.LC240:
 4281 1201 4368616E 		.ascii	"Change Vdrive voltage (digipot)\000"
 4281      67652056 
 4281      64726976 
 4281      6520766F 
 4281      6C746167 
 4282              	.LC241:
 4283 1221 69766F5F 		.ascii	"ivo_led\000"
 4283      6C656400 
 4284              	.LC242:
 4285 1229 4C454420 		.ascii	"LED invert option\000"
 4285      696E7665 
 4285      7274206F 
 4285      7074696F 
 4285      6E00
 4286              	.LC243:
 4287 123b 75766C6F 		.ascii	"uvlo_analog\000"
 4287      5F616E61 
 4287      6C6F6700 
 4288              	.LC244:
 4289 1247 55564C4F 		.ascii	"UVLO from ADC 0=GPIO UVLO\000"
 4289      2066726F 
 4289      6D204144 
 4289      4320303D 
 4289      4750494F 
 4290              	.LC245:
 4291 1261 68775F72 		.ascii	"hw_rev\000"
 4291      657600
 4292              	.LC246:
 4293 1268 48617264 		.ascii	"Hardware revision 0=3.0-3.1a 1=3.1b 2=3.1c\000"
 4293      77617265 
 4293      20726576 
 4293      6973696F 
 4293      6E20303D 
 4294              	.LC247:
 4295 1293 6175746F 		.ascii	"autostart\000"
 4295      73746172 
ARM GAS  C:\Users\chemi\AppData\Local\Temp\ccFrP3K3.s 			page 112


 4295      7400
 4296              	.LC248:
 4297 129d 4175746F 		.ascii	"Autostart\000"
 4297      73746172 
 4297      7400
 4298              	.LC249:
 4299 12a7 6D696E5F 		.ascii	"min_fb_current\000"
 4299      66625F63 
 4299      75727265 
 4299      6E7400
 4300              	.LC250:
 4301 12b6 43757272 		.ascii	"Current at which to switch to feedback\000"
 4301      656E7420 
 4301      61742077 
 4301      68696368 
 4301      20746F20 
 4302              	.LC251:
 4303 12dd 6D696E44 		.ascii	"minDutyOffset\000"
 4303      7574794F 
 4303      66667365 
 4303      7400
 4304              	.LC252:
 4305 12eb 4D696E69 		.ascii	"Minimum pulsewidth in percent of maximum pulsewidth"
 4305      6D756D20 
 4305      70756C73 
 4305      65776964 
 4305      74682069 
 4306 131e 00       		.ascii	"\000"
 4307              	.LC253:
 4308 131f 636F6D70 		.ascii	"comp_attac\000"
 4308      5F617474 
 4308      616300
 4309              	.LC254:
 4310 132a 436F6D70 		.ascii	"Compressor Attac Setting\000"
 4310      72657373 
 4310      6F722041 
 4310      74746163 
 4310      20536574 
 4311              	.LC255:
 4312 1343 636F6D70 		.ascii	"comp_sustain\000"
 4312      5F737573 
 4312      7461696E 
 4312      00
 4313              	.LC256:
 4314 1350 436F6D70 		.ascii	"Compressor Sustain Setting\000"
 4314      72657373 
 4314      6F722053 
 4314      75737461 
 4314      696E2053 
 4315              	.LC257:
 4316 136b 636F6D70 		.ascii	"comp_release\000"
 4316      5F72656C 
 4316      65617365 
 4316      00
 4317              	.LC258:
 4318 1378 436F6D70 		.ascii	"Compressor Release Setting\000"
 4318      72657373 
ARM GAS  C:\Users\chemi\AppData\Local\Temp\ccFrP3K3.s 			page 113


 4318      6F722052 
 4318      656C6561 
 4318      73652053 
 4319              	.LC259:
 4320 1393 636F6D70 		.ascii	"comp_dutyOffset\000"
 4320      5F647574 
 4320      794F6666 
 4320      73657400 
 4321              	.LC260:
 4322 13a3 4D617869 		.ascii	"Maximum Dutycycle offset before hard limit\000"
 4322      6D756D20 
 4322      44757479 
 4322      6379636C 
 4322      65206F66 
 4323              	.LC261:
 4324 13ce 70726F74 		.ascii	"protocol=3.0\000"
 4324      6F636F6C 
 4324      3D332E30 
 4324      00
 4325              	.LC262:
 4326 13db 6275696C 		.ascii	"build_time=Jan 13 2026;15:59:37\000"
 4326      645F7469 
 4326      6D653D4A 
 4326      616E2031 
 4326      33203230 
 4327              	.LC263:
 4328 13fb 74696D65 		.ascii	"timebase=1000\000"
 4328      62617365 
 4328      3D313030 
 4328      3000
 4329              	.LC264:
 4330 1409 74696D65 		.ascii	"time_count=up\000"
 4330      5F636F75 
 4330      6E743D75 
 4330      7000
 4331              	.LC265:
 4332 1417 6E6F7465 		.ascii	"notelemetry_supported=1\000"
 4332      6C656D65 
 4332      7472795F 
 4332      73757070 
 4332      6F727465 
 4333              	.LC266:
 4334 142f 6D696E5F 		.ascii	"min_sid_support=1\000"
 4334      7369645F 
 4334      73757070 
 4334      6F72743D 
 4334      3100
 4335              		.data
 4336              		.align	2
 4337              		.set	.LANCHOR0,. + 0
 4338              		.type	confparam, %object
 4339              		.size	confparam, 2880
 4340              	confparam:
 4341 0000 00       		.byte	0
 4342 0001 01       		.byte	1
 4343 0002 0000     		.space	2
 4344 0004 40080000 		.word	.LC108
ARM GAS  C:\Users\chemi\AppData\Local\Temp\ccFrP3K3.s 			page 114


 4345 0008 00000000 		.word	param
 4346 000c 02       		.byte	2
 4347 000d 00       		.byte	0
 4348 000e 0000     		.space	2
 4349 0010 00000000 		.word	0
 4350 0014 10270000 		.word	10000
 4351 0018 0000     		.short	0
 4352 001a 0000     		.space	2
 4353 001c 00000000 		.word	callback_PWFunction
 4354 0020 43080000 		.word	.LC109
 4355 0024 00       		.byte	0
 4356 0025 01       		.byte	1
 4357 0026 0000     		.space	2
 4358 0028 53080000 		.word	.LC110
 4359 002c 02000000 		.word	param+2
 4360 0030 02       		.byte	2
 4361 0031 00       		.byte	0
 4362 0032 0000     		.space	2
 4363 0034 00000000 		.word	0
 4364 0038 60EA0000 		.word	60000
 4365 003c 0000     		.short	0
 4366 003e 0000     		.space	2
 4367 0040 00000000 		.word	callback_PWFunction
 4368 0044 57080000 		.word	.LC111
 4369 0048 00       		.byte	0
 4370 0049 01       		.byte	1
 4371 004a 0000     		.space	2
 4372 004c 69080000 		.word	.LC112
 4373 0050 04000000 		.word	param+4
 4374 0054 02       		.byte	2
 4375 0055 00       		.byte	0
 4376 0056 0000     		.space	2
 4377 0058 00000000 		.word	0
 4378 005c FF7F0000 		.word	32767
 4379 0060 0000     		.short	0
 4380 0062 0000     		.space	2
 4381 0064 00000000 		.word	callback_VolFunction
 4382 0068 6D080000 		.word	.LC113
 4383 006c 00       		.byte	0
 4384 006d 01       		.byte	1
 4385 006e 0000     		.space	2
 4386 0070 7F080000 		.word	.LC114
 4387 0074 1C000000 		.word	param+28
 4388 0078 02       		.byte	2
 4389 0079 00       		.byte	0
 4390 007a 0000     		.space	2
 4391 007c 00000000 		.word	0
 4392 0080 E8030000 		.word	1000
 4393 0084 0000     		.short	0
 4394 0086 0000     		.space	2
 4395 0088 00000000 		.word	callback_BurstFunction
 4396 008c 83080000 		.word	.LC115
 4397 0090 00       		.byte	0
 4398 0091 01       		.byte	1
 4399 0092 0000     		.space	2
 4400 0094 A0080000 		.word	.LC116
 4401 0098 1E000000 		.word	param+30
ARM GAS  C:\Users\chemi\AppData\Local\Temp\ccFrP3K3.s 			page 115


 4402 009c 02       		.byte	2
 4403 009d 00       		.byte	0
 4404 009e 0000     		.space	2
 4405 00a0 00000000 		.word	0
 4406 00a4 E8030000 		.word	1000
 4407 00a8 0000     		.short	0
 4408 00aa 0000     		.space	2
 4409 00ac 00000000 		.word	callback_BurstFunction
 4410 00b0 A5080000 		.word	.LC117
 4411 00b4 01       		.byte	1
 4412 00b5 01       		.byte	1
 4413 00b6 0000     		.space	2
 4414 00b8 BD080000 		.word	.LC118
 4415 00bc 06000000 		.word	param+6
 4416 00c0 02       		.byte	2
 4417 00c1 00       		.byte	0
 4418 00c2 0000     		.space	2
 4419 00c4 05000000 		.word	5
 4420 00c8 88130000 		.word	5000
 4421 00cc 0A00     		.short	10
 4422 00ce 0000     		.space	2
 4423 00d0 00000000 		.word	callback_TuneFunction
 4424 00d4 C8080000 		.word	.LC119
 4425 00d8 01       		.byte	1
 4426 00d9 01       		.byte	1
 4427 00da 0000     		.space	2
 4428 00dc DE080000 		.word	.LC120
 4429 00e0 08000000 		.word	param+8
 4430 00e4 02       		.byte	2
 4431 00e5 00       		.byte	0
 4432 00e6 0000     		.space	2
 4433 00e8 05000000 		.word	5
 4434 00ec 88130000 		.word	5000
 4435 00f0 0A00     		.short	10
 4436 00f2 0000     		.space	2
 4437 00f4 00000000 		.word	callback_TuneFunction
 4438 00f8 E7080000 		.word	.LC121
 4439 00fc 01       		.byte	1
 4440 00fd 01       		.byte	1
 4441 00fe 0000     		.space	2
 4442 0100 FB080000 		.word	.LC122
 4443 0104 0A000000 		.word	param+10
 4444 0108 02       		.byte	2
 4445 0109 00       		.byte	0
 4446 010a 0000     		.space	2
 4447 010c 00000000 		.word	0
 4448 0110 20030000 		.word	800
 4449 0114 0000     		.short	0
 4450 0116 0000     		.space	2
 4451 0118 00000000 		.word	0
 4452 011c 03090000 		.word	.LC123
 4453 0120 01       		.byte	1
 4454 0121 01       		.byte	1
 4455 0122 0000     		.space	2
 4456 0124 13090000 		.word	.LC124
 4457 0128 0C000000 		.word	param+12
 4458 012c 02       		.byte	2
ARM GAS  C:\Users\chemi\AppData\Local\Temp\ccFrP3K3.s 			page 116


 4459 012d 00       		.byte	0
 4460 012e 0000     		.space	2
 4461 0130 01000000 		.word	1
 4462 0134 C8000000 		.word	200
 4463 0138 0000     		.short	0
 4464 013a 0000     		.space	2
 4465 013c 00000000 		.word	0
 4466 0140 1E090000 		.word	.LC125
 4467 0144 01       		.byte	1
 4468 0145 01       		.byte	1
 4469 0146 0000     		.space	2
 4470 0148 29090000 		.word	.LC126
 4471 014c 0E000000 		.word	param+14
 4472 0150 02       		.byte	2
 4473 0151 00       		.byte	0
 4474 0152 0000     		.space	2
 4475 0154 03000000 		.word	3
 4476 0158 FA000000 		.word	250
 4477 015c 0000     		.short	0
 4478 015e 0000     		.space	2
 4479 0160 00000000 		.word	callback_PWFunction
 4480 0164 31090000 		.word	.LC127
 4481 0168 00       		.byte	0
 4482 0169 01       		.byte	1
 4483 016a 0000     		.space	2
 4484 016c 42090000 		.word	.LC128
 4485 0170 10000000 		.word	param+16
 4486 0174 02       		.byte	2
 4487 0175 00       		.byte	0
 4488 0176 0000     		.space	2
 4489 0178 01000000 		.word	1
 4490 017c 10270000 		.word	10000
 4491 0180 6400     		.short	100
 4492 0182 0000     		.space	2
 4493 0184 00000000 		.word	callback_rampFunction
 4494 0188 4B090000 		.word	.LC129
 4495 018c 00       		.byte	0
 4496 018d 01       		.byte	1
 4497 018e 0000     		.space	2
 4498 0190 5E090000 		.word	.LC130
 4499 0194 13000000 		.word	param+19
 4500 0198 01       		.byte	1
 4501 0199 00       		.byte	0
 4502 019a 0000     		.space	2
 4503 019c 00000000 		.word	0
 4504 01a0 FF000000 		.word	255
 4505 01a4 0000     		.short	0
 4506 01a6 0000     		.space	2
 4507 01a8 00000000 		.word	callback_rampFunction
 4508 01ac 69090000 		.word	.LC131
 4509 01b0 00       		.byte	0
 4510 01b1 01       		.byte	1
 4511 01b2 0000     		.space	2
 4512 01b4 7E090000 		.word	.LC132
 4513 01b8 12000000 		.word	param+18
 4514 01bc 01       		.byte	1
 4515 01bd 00       		.byte	0
ARM GAS  C:\Users\chemi\AppData\Local\Temp\ccFrP3K3.s 			page 117


 4516 01be 0000     		.space	2
 4517 01c0 00000000 		.word	0
 4518 01c4 FF000000 		.word	255
 4519 01c8 0000     		.short	0
 4520 01ca 0000     		.space	2
 4521 01cc 00000000 		.word	callback_rampFunction
 4522 01d0 87090000 		.word	.LC133
 4523 01d4 00       		.byte	0
 4524 01d5 01       		.byte	1
 4525 01d6 0000     		.space	2
 4526 01d8 AC090000 		.word	.LC134
 4527 01dc 14000000 		.word	param+20
 4528 01e0 01       		.byte	1
 4529 01e1 00       		.byte	0
 4530 01e2 0000     		.space	2
 4531 01e4 00000000 		.word	0
 4532 01e8 FF000000 		.word	255
 4533 01ec 0000     		.short	0
 4534 01ee 0000     		.space	2
 4535 01f0 00000000 		.word	callback_rampFunction
 4536 01f4 B4090000 		.word	.LC135
 4537 01f8 00       		.byte	0
 4538 01f9 01       		.byte	1
 4539 01fa 0000     		.space	2
 4540 01fc C7090000 		.word	.LC136
 4541 0200 18000000 		.word	param+24
 4542 0204 02       		.byte	2
 4543 0205 00       		.byte	0
 4544 0206 0000     		.space	2
 4545 0208 00000000 		.word	0
 4546 020c 409C0000 		.word	40000
 4547 0210 0A00     		.short	10
 4548 0212 0000     		.space	2
 4549 0214 00000000 		.word	callback_rampFunction
 4550 0218 D0090000 		.word	.LC137
 4551 021c 00       		.byte	0
 4552 021d 01       		.byte	1
 4553 021e 0000     		.space	2
 4554 0220 EE090000 		.word	.LC138
 4555 0224 1A000000 		.word	param+26
 4556 0228 01       		.byte	1
 4557 0229 00       		.byte	0
 4558 022a 0000     		.space	2
 4559 022c 00000000 		.word	0
 4560 0230 FF000000 		.word	255
 4561 0234 0000     		.short	0
 4562 0236 0000     		.space	2
 4563 0238 00000000 		.word	callback_rampFunction
 4564 023c F6090000 		.word	.LC139
 4565 0240 00       		.byte	0
 4566 0241 01       		.byte	1
 4567 0242 0000     		.space	2
 4568 0244 110A0000 		.word	.LC140
 4569 0248 16000000 		.word	param+22
 4570 024c 02       		.byte	2
 4571 024d 00       		.byte	0
 4572 024e 0000     		.space	2
ARM GAS  C:\Users\chemi\AppData\Local\Temp\ccFrP3K3.s 			page 118


 4573 0250 00000000 		.word	0
 4574 0254 E8030000 		.word	1000
 4575 0258 0000     		.short	0
 4576 025a 0000     		.space	2
 4577 025c 00000000 		.word	0
 4578 0260 1C0A0000 		.word	.LC141
 4579 0264 00       		.byte	0
 4580 0265 01       		.byte	1
 4581 0266 0000     		.space	2
 4582 0268 480A0000 		.word	.LC142
 4583 026c 20000000 		.word	param+32
 4584 0270 01       		.byte	1
 4585 0271 00       		.byte	0
 4586 0272 0000     		.space	2
 4587 0274 00000000 		.word	0
 4588 0278 03000000 		.word	3
 4589 027c 0000     		.short	0
 4590 027e 0000     		.space	2
 4591 0280 00000000 		.word	callback_SynthFunction
 4592 0284 4E0A0000 		.word	.LC143
 4593 0288 00       		.byte	0
 4594 0289 01       		.byte	1
 4595 028a 0000     		.space	2
 4596 028c 660A0000 		.word	.LC144
 4597 0290 20000000 		.word	SID_filterData+32
 4598 0294 04       		.byte	4
 4599 0295 00       		.byte	0
 4600 0296 0000     		.space	2
 4601 0298 00000000 		.word	0
 4602 029c 01000000 		.word	1
 4603 02a0 0000     		.short	0
 4604 02a2 0000     		.space	2
 4605 02a4 00000000 		.word	0
 4606 02a8 760A0000 		.word	.LC145
 4607 02ac 00       		.byte	0
 4608 02ad 01       		.byte	1
 4609 02ae 0000     		.space	2
 4610 02b0 9C0A0000 		.word	.LC146
 4611 02b4 1C000000 		.word	SID_filterData+28
 4612 02b8 04       		.byte	4
 4613 02b9 00       		.byte	0
 4614 02ba 0000     		.space	2
 4615 02bc 00000000 		.word	0
 4616 02c0 FF7F0000 		.word	32767
 4617 02c4 0000     		.short	0
 4618 02c6 0000     		.space	2
 4619 02c8 00000000 		.word	0
 4620 02cc AD0A0000 		.word	.LC147
 4621 02d0 00       		.byte	0
 4622 02d1 01       		.byte	1
 4623 02d2 0000     		.space	2
 4624 02d4 D60A0000 		.word	.LC148
 4625 02d8 00000000 		.word	SID_filterData
 4626 02dc 04       		.byte	4
 4627 02dd 00       		.byte	0
 4628 02de 0000     		.space	2
 4629 02e0 00000000 		.word	0
ARM GAS  C:\Users\chemi\AppData\Local\Temp\ccFrP3K3.s 			page 119


 4630 02e4 FF7F0000 		.word	32767
 4631 02e8 0000     		.short	0
 4632 02ea 0000     		.space	2
 4633 02ec 00000000 		.word	0
 4634 02f0 E50A0000 		.word	.LC149
 4635 02f4 00       		.byte	0
 4636 02f5 01       		.byte	1
 4637 02f6 0000     		.space	2
 4638 02f8 120B0000 		.word	.LC150
 4639 02fc 04000000 		.word	SID_filterData+4
 4640 0300 04       		.byte	4
 4641 0301 00       		.byte	0
 4642 0302 0000     		.space	2
 4643 0304 00000000 		.word	0
 4644 0308 FF7F0000 		.word	32767
 4645 030c 0000     		.short	0
 4646 030e 0000     		.space	2
 4647 0310 00000000 		.word	0
 4648 0314 210B0000 		.word	.LC151
 4649 0318 00       		.byte	0
 4650 0319 01       		.byte	1
 4651 031a 0000     		.space	2
 4652 031c 4E0B0000 		.word	.LC152
 4653 0320 08000000 		.word	SID_filterData+8
 4654 0324 04       		.byte	4
 4655 0325 00       		.byte	0
 4656 0326 0000     		.space	2
 4657 0328 00000000 		.word	0
 4658 032c FF7F0000 		.word	32767
 4659 0330 0000     		.short	0
 4660 0332 0000     		.space	2
 4661 0334 00000000 		.word	0
 4662 0338 5D0B0000 		.word	.LC153
 4663 033c 01       		.byte	1
 4664 033d 01       		.byte	1
 4665 033e 0000     		.space	2
 4666 0340 8A0B0000 		.word	.LC154
 4667 0344 00000000 		.word	configuration
 4668 0348 01       		.byte	1
 4669 0349 00       		.byte	0
 4670 034a 0000     		.space	2
 4671 034c 00000000 		.word	0
 4672 0350 01000000 		.word	1
 4673 0354 0000     		.short	0
 4674 0356 0000     		.space	2
 4675 0358 00000000 		.word	callback_ConfigFunction
 4676 035c 930B0000 		.word	.LC155
 4677 0360 01       		.byte	1
 4678 0361 01       		.byte	1
 4679 0362 0000     		.space	2
 4680 0364 A30B0000 		.word	.LC156
 4681 0368 02000000 		.word	configuration+2
 4682 036c 02       		.byte	2
 4683 036d 00       		.byte	0
 4684 036e 0000     		.space	2
 4685 0370 01000000 		.word	1
 4686 0374 10270000 		.word	10000
ARM GAS  C:\Users\chemi\AppData\Local\Temp\ccFrP3K3.s 			page 120


 4687 0378 0000     		.short	0
 4688 037a 0000     		.space	2
 4689 037c 00000000 		.word	callback_ConfigFunction
 4690 0380 B40B0000 		.word	.LC157
 4691 0384 01       		.byte	1
 4692 0385 01       		.byte	1
 4693 0386 0000     		.space	2
 4694 0388 CA0B0000 		.word	.LC158
 4695 038c 04000000 		.word	configuration+4
 4696 0390 02       		.byte	2
 4697 0391 00       		.byte	0
 4698 0392 0000     		.space	2
 4699 0394 00000000 		.word	0
 4700 0398 10270000 		.word	10000
 4701 039c 0000     		.short	0
 4702 039e 0000     		.space	2
 4703 03a0 00000000 		.word	callback_ConfigFunction
 4704 03a4 D40B0000 		.word	.LC159
 4705 03a8 01       		.byte	1
 4706 03a9 01       		.byte	1
 4707 03aa 0000     		.space	2
 4708 03ac E90B0000 		.word	.LC160
 4709 03b0 06000000 		.word	configuration+6
 4710 03b4 02       		.byte	2
 4711 03b5 00       		.byte	0
 4712 03b6 0000     		.space	2
 4713 03b8 00000000 		.word	0
 4714 03bc B80B0000 		.word	3000
 4715 03c0 0000     		.short	0
 4716 03c2 0000     		.space	2
 4717 03c4 00000000 		.word	callback_ConfigFunction
 4718 03c8 F40B0000 		.word	.LC161
 4719 03cc 01       		.byte	1
 4720 03cd 01       		.byte	1
 4721 03ce 0000     		.space	2
 4722 03d0 0E0C0000 		.word	.LC162
 4723 03d4 08000000 		.word	configuration+8
 4724 03d8 02       		.byte	2
 4725 03d9 00       		.byte	0
 4726 03da 0000     		.space	2
 4727 03dc 00000000 		.word	0
 4728 03e0 88130000 		.word	5000
 4729 03e4 6400     		.short	100
 4730 03e6 0000     		.space	2
 4731 03e8 00000000 		.word	callback_ConfigFunction
 4732 03ec 190C0000 		.word	.LC163
 4733 03f0 01       		.byte	1
 4734 03f1 01       		.byte	1
 4735 03f2 0000     		.space	2
 4736 03f4 2D0C0000 		.word	.LC164
 4737 03f8 0A000000 		.word	configuration+10
 4738 03fc 02       		.byte	2
 4739 03fd 00       		.byte	0
 4740 03fe 0000     		.space	2
 4741 0400 00000000 		.word	0
 4742 0404 401F0000 		.word	8000
 4743 0408 0000     		.short	0
ARM GAS  C:\Users\chemi\AppData\Local\Temp\ccFrP3K3.s 			page 121


 4744 040a 0000     		.space	2
 4745 040c 00000000 		.word	callback_TTupdateFunction
 4746 0410 3C0C0000 		.word	.LC165
 4747 0414 01       		.byte	1
 4748 0415 01       		.byte	1
 4749 0416 0000     		.space	2
 4750 0418 530C0000 		.word	.LC166
 4751 041c 0C000000 		.word	configuration+12
 4752 0420 02       		.byte	2
 4753 0421 00       		.byte	0
 4754 0422 0000     		.space	2
 4755 0424 00000000 		.word	0
 4756 0428 401F0000 		.word	8000
 4757 042c 0000     		.short	0
 4758 042e 0000     		.space	2
 4759 0430 00000000 		.word	callback_ConfigFunction
 4760 0434 620C0000 		.word	.LC167
 4761 0438 01       		.byte	1
 4762 0439 01       		.byte	1
 4763 043a 0000     		.space	2
 4764 043c 790C0000 		.word	.LC168
 4765 0440 0E000000 		.word	configuration+14
 4766 0444 02       		.byte	2
 4767 0445 00       		.byte	0
 4768 0446 0000     		.space	2
 4769 0448 00000000 		.word	0
 4770 044c 401F0000 		.word	8000
 4771 0450 0000     		.short	0
 4772 0452 0000     		.space	2
 4773 0454 00000000 		.word	callback_TTupdateFunction
 4774 0458 890C0000 		.word	.LC169
 4775 045c 01       		.byte	1
 4776 045d 01       		.byte	1
 4777 045e 0000     		.space	2
 4778 0460 A10C0000 		.word	.LC170
 4779 0464 10000000 		.word	configuration+16
 4780 0468 01       		.byte	1
 4781 0469 00       		.byte	0
 4782 046a 0000     		.space	2
 4783 046c 00000000 		.word	0
 4784 0470 64000000 		.word	100
 4785 0474 0000     		.short	0
 4786 0476 0000     		.space	2
 4787 0478 00000000 		.word	callback_TTupdateFunction
 4788 047c AB0C0000 		.word	.LC171
 4789 0480 01       		.byte	1
 4790 0481 01       		.byte	1
 4791 0482 0000     		.space	2
 4792 0484 C20C0000 		.word	.LC172
 4793 0488 11000000 		.word	configuration+17
 4794 048c 01       		.byte	1
 4795 048d 00       		.byte	0
 4796 048e 0000     		.space	2
 4797 0490 00000000 		.word	0
 4798 0494 64000000 		.word	100
 4799 0498 0000     		.short	0
 4800 049a 0000     		.space	2
ARM GAS  C:\Users\chemi\AppData\Local\Temp\ccFrP3K3.s 			page 122


 4801 049c 00000000 		.word	0
 4802 04a0 CC0C0000 		.word	.LC173
 4803 04a4 01       		.byte	1
 4804 04a5 01       		.byte	1
 4805 04a6 0000     		.space	2
 4806 04a8 E30C0000 		.word	.LC174
 4807 04ac 12000000 		.word	configuration+18
 4808 04b0 02       		.byte	2
 4809 04b1 00       		.byte	0
 4810 04b2 0000     		.space	2
 4811 04b4 01000000 		.word	1
 4812 04b8 88130000 		.word	5000
 4813 04bc 0000     		.short	0
 4814 04be 0000     		.space	2
 4815 04c0 00000000 		.word	callback_TTupdateFunction
 4816 04c4 ED0C0000 		.word	.LC175
 4817 04c8 01       		.byte	1
 4818 04c9 01       		.byte	1
 4819 04ca 0000     		.space	2
 4820 04cc 42000000 		.word	.LC4
 4821 04d0 14000000 		.word	configuration+20
 4822 04d4 02       		.byte	2
 4823 04d5 00       		.byte	0
 4824 04d6 0000     		.space	2
 4825 04d8 01000000 		.word	1
 4826 04dc 88130000 		.word	5000
 4827 04e0 0000     		.short	0
 4828 04e2 0000     		.space	2
 4829 04e4 00000000 		.word	callback_ConfigFunction
 4830 04e8 060D0000 		.word	.LC176
 4831 04ec 01       		.byte	1
 4832 04ed 01       		.byte	1
 4833 04ee 0000     		.space	2
 4834 04f0 1A0D0000 		.word	.LC177
 4835 04f4 16000000 		.word	configuration+22
 4836 04f8 02       		.byte	2
 4837 04f9 00       		.byte	0
 4838 04fa 0000     		.space	2
 4839 04fc 01000000 		.word	1
 4840 0500 E8030000 		.word	1000
 4841 0504 0A00     		.short	10
 4842 0506 0000     		.space	2
 4843 0508 00000000 		.word	callback_TTupdateFunction
 4844 050c 250D0000 		.word	.LC178
 4845 0510 01       		.byte	1
 4846 0511 01       		.byte	1
 4847 0512 0000     		.space	2
 4848 0514 4C000000 		.word	.LC5
 4849 0518 18000000 		.word	configuration+24
 4850 051c 02       		.byte	2
 4851 051d 00       		.byte	0
 4852 051e 0000     		.space	2
 4853 0520 01000000 		.word	1
 4854 0524 E8030000 		.word	1000
 4855 0528 0A00     		.short	10
 4856 052a 0000     		.space	2
 4857 052c 00000000 		.word	callback_ConfigFunction
ARM GAS  C:\Users\chemi\AppData\Local\Temp\ccFrP3K3.s 			page 123


 4858 0530 410D0000 		.word	.LC179
 4859 0534 01       		.byte	1
 4860 0535 01       		.byte	1
 4861 0536 0000     		.space	2
 4862 0538 580D0000 		.word	.LC180
 4863 053c 4C000000 		.word	configuration+76
 4864 0540 01       		.byte	1
 4865 0541 00       		.byte	0
 4866 0542 0000     		.space	2
 4867 0544 00000000 		.word	0
 4868 0548 01000000 		.word	1
 4869 054c 0000     		.short	0
 4870 054e 0000     		.space	2
 4871 0550 00000000 		.word	callback_ConfigFunction
 4872 0554 610D0000 		.word	.LC181
 4873 0558 01       		.byte	1
 4874 0559 01       		.byte	1
 4875 055a 0000     		.space	2
 4876 055c 1F000000 		.word	.LC1
 4877 0560 4E000000 		.word	configuration+78
 4878 0564 02       		.byte	2
 4879 0565 00       		.byte	0
 4880 0566 0000     		.space	2
 4881 0568 00000000 		.word	0
 4882 056c 204E0000 		.word	20000
 4883 0570 0A00     		.short	10
 4884 0572 0000     		.space	2
 4885 0574 00000000 		.word	callback_ConfigFunction
 4886 0578 7E0D0000 		.word	.LC182
 4887 057c 01       		.byte	1
 4888 057d 01       		.byte	1
 4889 057e 0000     		.space	2
 4890 0580 2B000000 		.word	.LC2
 4891 0584 50000000 		.word	configuration+80
 4892 0588 02       		.byte	2
 4893 0589 00       		.byte	0
 4894 058a 0000     		.space	2
 4895 058c 00000000 		.word	0
 4896 0590 88130000 		.word	5000
 4897 0594 E803     		.short	1000
 4898 0596 0000     		.space	2
 4899 0598 00000000 		.word	callback_ConfigFunction
 4900 059c 970D0000 		.word	.LC183
 4901 05a0 01       		.byte	1
 4902 05a1 01       		.byte	1
 4903 05a2 0000     		.space	2
 4904 05a4 37000000 		.word	.LC3
 4905 05a8 52000000 		.word	configuration+82
 4906 05ac 02       		.byte	2
 4907 05ad 00       		.byte	0
 4908 05ae 0000     		.space	2
 4909 05b0 00000000 		.word	0
 4910 05b4 88130000 		.word	5000
 4911 05b8 E803     		.short	1000
 4912 05ba 0000     		.space	2
 4913 05bc 00000000 		.word	callback_ConfigFunction
 4914 05c0 B00D0000 		.word	.LC184
ARM GAS  C:\Users\chemi\AppData\Local\Temp\ccFrP3K3.s 			page 124


 4915 05c4 01       		.byte	1
 4916 05c5 01       		.byte	1
 4917 05c6 0000     		.space	2
 4918 05c8 C30D0000 		.word	.LC185
 4919 05cc 1A000000 		.word	configuration+26
 4920 05d0 02       		.byte	2
 4921 05d1 00       		.byte	0
 4922 05d2 0000     		.space	2
 4923 05d4 00000000 		.word	0
 4924 05d8 A00F0000 		.word	4000
 4925 05dc 0000     		.short	0
 4926 05de 0000     		.space	2
 4927 05e0 00000000 		.word	callback_ConfigFunction
 4928 05e4 CD0D0000 		.word	.LC186
 4929 05e8 01       		.byte	1
 4930 05e9 01       		.byte	1
 4931 05ea 0000     		.space	2
 4932 05ec DE0D0000 		.word	.LC187
 4933 05f0 1C000000 		.word	configuration+28
 4934 05f4 02       		.byte	2
 4935 05f5 00       		.byte	0
 4936 05f6 0000     		.space	2
 4937 05f8 00000000 		.word	0
 4938 05fc 88130000 		.word	5000
 4939 0600 0A00     		.short	10
 4940 0602 0000     		.space	2
 4941 0604 00000000 		.word	callback_ConfigFunction
 4942 0608 E90D0000 		.word	.LC188
 4943 060c 01       		.byte	1
 4944 060d 01       		.byte	1
 4945 060e 0000     		.space	2
 4946 0610 FD0D0000 		.word	.LC189
 4947 0614 1E000000 		.word	configuration+30
 4948 0618 01       		.byte	1
 4949 0619 00       		.byte	0
 4950 061a 0000     		.space	2
 4951 061c 00000000 		.word	0
 4952 0620 14000000 		.word	20
 4953 0624 0000     		.short	0
 4954 0626 0000     		.space	2
 4955 0628 00000000 		.word	callback_ConfigFunction
 4956 062c 0A0E0000 		.word	.LC190
 4957 0630 01       		.byte	1
 4958 0631 01       		.byte	1
 4959 0632 0000     		.space	2
 4960 0634 1A0E0000 		.word	.LC191
 4961 0638 20000000 		.word	configuration+32
 4962 063c 02       		.byte	2
 4963 063d 00       		.byte	0
 4964 063e 0000     		.space	2
 4965 0640 01000000 		.word	1
 4966 0644 F4010000 		.word	500
 4967 0648 0A00     		.short	10
 4968 064a 0000     		.space	2
 4969 064c 00000000 		.word	callback_ConfigFunction
 4970 0650 260E0000 		.word	.LC192
 4971 0654 01       		.byte	1
ARM GAS  C:\Users\chemi\AppData\Local\Temp\ccFrP3K3.s 			page 125


 4972 0655 01       		.byte	1
 4973 0656 0000     		.space	2
 4974 0658 3C0E0000 		.word	.LC193
 4975 065c 22000000 		.word	configuration+34
 4976 0660 02       		.byte	2
 4977 0661 00       		.byte	0
 4978 0662 0000     		.space	2
 4979 0664 01000000 		.word	1
 4980 0668 F4010000 		.word	500
 4981 066c 0A00     		.short	10
 4982 066e 0000     		.space	2
 4983 0670 00000000 		.word	callback_ConfigFunction
 4984 0674 490E0000 		.word	.LC194
 4985 0678 01       		.byte	1
 4986 0679 01       		.byte	1
 4987 067a 0000     		.space	2
 4988 067c 600E0000 		.word	.LC195
 4989 0680 24000000 		.word	configuration+36
 4990 0684 02       		.byte	2
 4991 0685 00       		.byte	0
 4992 0686 0000     		.space	2
 4993 0688 00000000 		.word	0
 4994 068c 64000000 		.word	100
 4995 0690 0000     		.short	0
 4996 0692 0000     		.space	2
 4997 0694 00000000 		.word	0
 4998 0698 6F0E0000 		.word	.LC196
 4999 069c 01       		.byte	1
 5000 069d 01       		.byte	1
 5001 069e 0000     		.space	2
 5002 06a0 850E0000 		.word	.LC197
 5003 06a4 28000000 		.word	configuration+40
 5004 06a8 02       		.byte	2
 5005 06a9 00       		.byte	0
 5006 06aa 0000     		.space	2
 5007 06ac 00000000 		.word	0
 5008 06b0 64000000 		.word	100
 5009 06b4 0000     		.short	0
 5010 06b6 0000     		.space	2
 5011 06b8 00000000 		.word	0
 5012 06bc 920E0000 		.word	.LC198
 5013 06c0 01       		.byte	1
 5014 06c1 01       		.byte	1
 5015 06c2 0000     		.space	2
 5016 06c4 A40E0000 		.word	.LC199
 5017 06c8 2A000000 		.word	configuration+42
 5018 06cc 01       		.byte	1
 5019 06cd 00       		.byte	0
 5020 06ce 0000     		.space	2
 5021 06d0 00000000 		.word	0
 5022 06d4 04000000 		.word	4
 5023 06d8 0000     		.short	0
 5024 06da 0000     		.space	2
 5025 06dc 00000000 		.word	0
 5026 06e0 B20E0000 		.word	.LC200
 5027 06e4 01       		.byte	1
 5028 06e5 01       		.byte	1
ARM GAS  C:\Users\chemi\AppData\Local\Temp\ccFrP3K3.s 			page 126


 5029 06e6 0000     		.space	2
 5030 06e8 000F0000 		.word	.LC201
 5031 06ec 2C000000 		.word	configuration+44
 5032 06f0 04       		.byte	4
 5033 06f1 02       		.byte	2
 5034 06f2 0000     		.space	2
 5035 06f4 00000000 		.word	0
 5036 06f8 C8000000 		.word	200
 5037 06fc 0000     		.short	0
 5038 06fe 0000     		.space	2
 5039 0700 00000000 		.word	callback_temp_pid
 5040 0704 0B0F0000 		.word	.LC202
 5041 0708 01       		.byte	1
 5042 0709 01       		.byte	1
 5043 070a 0000     		.space	2
 5044 070c 1A0F0000 		.word	.LC203
 5045 0710 30000000 		.word	configuration+48
 5046 0714 04       		.byte	4
 5047 0715 02       		.byte	2
 5048 0716 0000     		.space	2
 5049 0718 00000000 		.word	0
 5050 071c C8000000 		.word	200
 5051 0720 0000     		.short	0
 5052 0722 0000     		.space	2
 5053 0724 00000000 		.word	callback_temp_pid
 5054 0728 0B0F0000 		.word	.LC202
 5055 072c 01       		.byte	1
 5056 072d 01       		.byte	1
 5057 072e 0000     		.space	2
 5058 0730 250F0000 		.word	.LC204
 5059 0734 26000000 		.word	configuration+38
 5060 0738 02       		.byte	2
 5061 0739 00       		.byte	0
 5062 073a 0000     		.space	2
 5063 073c 00000000 		.word	0
 5064 0740 64000000 		.word	100
 5065 0744 0000     		.short	0
 5066 0746 0000     		.space	2
 5067 0748 00000000 		.word	0
 5068 074c 340F0000 		.word	.LC205
 5069 0750 01       		.byte	1
 5070 0751 01       		.byte	1
 5071 0752 0000     		.space	2
 5072 0754 550F0000 		.word	.LC206
 5073 0758 34000000 		.word	configuration+52
 5074 075c 01       		.byte	1
 5075 075d 00       		.byte	0
 5076 075e 0000     		.space	2
 5077 0760 00000000 		.word	0
 5078 0764 04000000 		.word	4
 5079 0768 0000     		.short	0
 5080 076a 0000     		.space	2
 5081 076c 00000000 		.word	0
 5082 0770 600F0000 		.word	.LC207
 5083 0774 01       		.byte	1
 5084 0775 01       		.byte	1
 5085 0776 0000     		.space	2
ARM GAS  C:\Users\chemi\AppData\Local\Temp\ccFrP3K3.s 			page 127


 5086 0778 960F0000 		.word	.LC208
 5087 077c 35000000 		.word	configuration+53
 5088 0780 01       		.byte	1
 5089 0781 00       		.byte	0
 5090 0782 0000     		.space	2
 5091 0784 00000000 		.word	0
 5092 0788 05000000 		.word	5
 5093 078c 0000     		.short	0
 5094 078e 0000     		.space	2
 5095 0790 00000000 		.word	callback_ConfigFunction
 5096 0794 A00F0000 		.word	.LC209
 5097 0798 01       		.byte	1
 5098 0799 01       		.byte	1
 5099 079a 0000     		.space	2
 5100 079c B40F0000 		.word	.LC210
 5101 07a0 58000000 		.word	configuration+88
 5102 07a4 02       		.byte	2
 5103 07a5 00       		.byte	0
 5104 07a6 0000     		.space	2
 5105 07a8 01000000 		.word	1
 5106 07ac 60EA0000 		.word	60000
 5107 07b0 0000     		.short	0
 5108 07b2 0000     		.space	2
 5109 07b4 00000000 		.word	callback_ConfigFunction
 5110 07b8 C10F0000 		.word	.LC211
 5111 07bc 01       		.byte	1
 5112 07bd 01       		.byte	1
 5113 07be 0000     		.space	2
 5114 07c0 E10F0000 		.word	.LC212
 5115 07c4 36000000 		.word	configuration+54
 5116 07c8 01       		.byte	1
 5117 07c9 00       		.byte	0
 5118 07ca 0000     		.space	2
 5119 07cc 01000000 		.word	1
 5120 07d0 20000000 		.word	32
 5121 07d4 0000     		.short	0
 5122 07d6 0000     		.space	2
 5123 07d8 00000000 		.word	0
 5124 07dc EC0F0000 		.word	.LC213
 5125 07e0 01       		.byte	1
 5126 07e1 01       		.byte	1
 5127 07e2 0000     		.space	2
 5128 07e4 0B100000 		.word	.LC214
 5129 07e8 37000000 		.word	configuration+55
 5130 07ec 10       		.byte	16
 5131 07ed 04       		.byte	4
 5132 07ee 0000     		.space	2
 5133 07f0 00000000 		.word	0
 5134 07f4 00000000 		.word	0
 5135 07f8 0000     		.short	0
 5136 07fa 0000     		.space	2
 5137 07fc 00000000 		.word	0
 5138 0800 13100000 		.word	.LC215
 5139 0804 01       		.byte	1
 5140 0805 01       		.byte	1
 5141 0806 0000     		.space	2
 5142 0808 2F100000 		.word	.LC216
ARM GAS  C:\Users\chemi\AppData\Local\Temp\ccFrP3K3.s 			page 128


 5143 080c 48000000 		.word	configuration+72
 5144 0810 04       		.byte	4
 5145 0811 00       		.byte	0
 5146 0812 0000     		.space	2
 5147 0814 B0040000 		.word	1200
 5148 0818 00093D00 		.word	4000000
 5149 081c 0000     		.short	0
 5150 081e 0000     		.space	2
 5151 0820 00000000 		.word	callback_baudrateFunction
 5152 0824 38100000 		.word	.LC217
 5153 0828 01       		.byte	1
 5154 0829 01       		.byte	1
 5155 082a 0000     		.space	2
 5156 082c 48100000 		.word	.LC218
 5157 0830 5A000000 		.word	configuration+90
 5158 0834 01       		.byte	1
 5159 0835 00       		.byte	0
 5160 0836 0000     		.space	2
 5161 0838 00000000 		.word	0
 5162 083c 0B000000 		.word	11
 5163 0840 0000     		.short	0
 5164 0842 0000     		.space	2
 5165 0844 00000000 		.word	callback_ivoUART
 5166 0848 51100000 		.word	.LC219
 5167 084c 01       		.byte	1
 5168 084d 01       		.byte	1
 5169 084e 0000     		.space	2
 5170 0850 74100000 		.word	.LC220
 5171 0854 54000000 		.word	configuration+84
 5172 0858 04       		.byte	4
 5173 0859 00       		.byte	0
 5174 085a 0000     		.space	2
 5175 085c 64000000 		.word	100
 5176 0860 40420F00 		.word	1000000
 5177 0864 E803     		.short	1000
 5178 0866 0000     		.space	2
 5179 0868 00000000 		.word	callback_TTupdateFunction
 5180 086c 7A100000 		.word	.LC221
 5181 0870 01       		.byte	1
 5182 0871 01       		.byte	1
 5183 0872 0000     		.space	2
 5184 0874 A2100000 		.word	.LC222
 5185 0878 5B000000 		.word	configuration+91
 5186 087c 01       		.byte	1
 5187 087d 00       		.byte	0
 5188 087e 0000     		.space	2
 5189 0880 00000000 		.word	0
 5190 0884 02000000 		.word	2
 5191 0888 0000     		.short	0
 5192 088a 0000     		.space	2
 5193 088c 00000000 		.word	callback_ext_interrupter
 5194 0890 AE100000 		.word	.LC223
 5195 0894 01       		.byte	1
 5196 0895 01       		.byte	1
 5197 0896 0000     		.space	2
 5198 0898 D5100000 		.word	.LC224
 5199 089c 5C000000 		.word	configuration+92
ARM GAS  C:\Users\chemi\AppData\Local\Temp\ccFrP3K3.s 			page 129


 5200 08a0 01       		.byte	1
 5201 08a1 00       		.byte	0
 5202 08a2 0000     		.space	2
 5203 08a4 00000000 		.word	0
 5204 08a8 01000000 		.word	1
 5205 08ac 0000     		.short	0
 5206 08ae 0000     		.space	2
 5207 08b0 00000000 		.word	0
 5208 08b4 DE100000 		.word	.LC225
 5209 08b8 01       		.byte	1
 5210 08b9 01       		.byte	1
 5211 08ba 0000     		.space	2
 5212 08bc F4100000 		.word	.LC226
 5213 08c0 5D000000 		.word	configuration+93
 5214 08c4 01       		.byte	1
 5215 08c5 00       		.byte	0
 5216 08c6 0000     		.space	2
 5217 08c8 00000000 		.word	0
 5218 08cc 01000000 		.word	1
 5219 08d0 0000     		.short	0
 5220 08d2 0000     		.space	2
 5221 08d4 00000000 		.word	0
 5222 08d8 FC100000 		.word	.LC227
 5223 08dc 01       		.byte	1
 5224 08dd 01       		.byte	1
 5225 08de 0000     		.space	2
 5226 08e0 07110000 		.word	.LC228
 5227 08e4 5E000000 		.word	configuration+94
 5228 08e8 02       		.byte	2
 5229 08e9 00       		.byte	0
 5230 08ea 0000     		.space	2
 5231 08ec 00000000 		.word	0
 5232 08f0 60EA0000 		.word	60000
 5233 08f4 0000     		.short	0
 5234 08f6 0000     		.space	2
 5235 08f8 00000000 		.word	0
 5236 08fc 15110000 		.word	.LC229
 5237 0900 01       		.byte	1
 5238 0901 01       		.byte	1
 5239 0902 0000     		.space	2
 5240 0904 4D110000 		.word	.LC230
 5241 0908 60000000 		.word	configuration+96
 5242 090c 02       		.byte	2
 5243 090d 00       		.byte	0
 5244 090e 0000     		.space	2
 5245 0910 00000000 		.word	0
 5246 0914 10270000 		.word	10000
 5247 0918 0000     		.short	0
 5248 091a 0000     		.space	2
 5249 091c 00000000 		.word	callback_ntc
 5250 0920 53110000 		.word	.LC231
 5251 0924 01       		.byte	1
 5252 0925 01       		.byte	1
 5253 0926 0000     		.space	2
 5254 0928 60110000 		.word	.LC232
 5255 092c 62000000 		.word	configuration+98
 5256 0930 02       		.byte	2
ARM GAS  C:\Users\chemi\AppData\Local\Temp\ccFrP3K3.s 			page 130


 5257 0931 00       		.byte	0
 5258 0932 0000     		.space	2
 5259 0934 00000000 		.word	0
 5260 0938 E8800000 		.word	33000
 5261 093c E803     		.short	1000
 5262 093e 0000     		.space	2
 5263 0940 00000000 		.word	callback_ntc
 5264 0944 68110000 		.word	.LC233
 5265 0948 01       		.byte	1
 5266 0949 01       		.byte	1
 5267 094a 0000     		.space	2
 5268 094c 77110000 		.word	.LC234
 5269 0950 64000000 		.word	configuration+100
 5270 0954 02       		.byte	2
 5271 0955 00       		.byte	0
 5272 0956 0000     		.space	2
 5273 0958 00000000 		.word	0
 5274 095c D0070000 		.word	2000
 5275 0960 0000     		.short	0
 5276 0962 0000     		.space	2
 5277 0964 00000000 		.word	callback_ntc
 5278 0968 80110000 		.word	.LC235
 5279 096c 01       		.byte	1
 5280 096d 00       		.byte	0
 5281 096e 0000     		.space	2
 5282 0970 93110000 		.word	.LC236
 5283 0974 78000000 		.word	configuration+120
 5284 0978 04       		.byte	4
 5285 0979 02       		.byte	2
 5286 097a 0000     		.space	2
 5287 097c 00000000 		.word	0
 5288 0980 0A000000 		.word	10
 5289 0984 0000     		.short	0
 5290 0986 0000     		.space	2
 5291 0988 00000000 		.word	callback_ConfigFunction
 5292 098c 9C110000 		.word	.LC237
 5293 0990 01       		.byte	1
 5294 0991 00       		.byte	0
 5295 0992 0000     		.space	2
 5296 0994 C1110000 		.word	.LC238
 5297 0998 00000000 		.word	hwGauges
 5298 099c 90       		.byte	-112
 5299 099d 05       		.byte	5
 5300 099e 0000     		.space	2
 5301 09a0 00000000 		.word	0
 5302 09a4 00000000 		.word	0
 5303 09a8 0000     		.short	0
 5304 09aa 0000     		.space	2
 5305 09ac 00000000 		.word	callback_hwGauge
 5306 09b0 CD110000 		.word	.LC239
 5307 09b4 01       		.byte	1
 5308 09b5 01       		.byte	1
 5309 09b6 0000     		.space	2
 5310 09b8 57000000 		.word	.LC6
 5311 09bc 6C000000 		.word	configuration+108
 5312 09c0 04       		.byte	4
 5313 09c1 02       		.byte	2
ARM GAS  C:\Users\chemi\AppData\Local\Temp\ccFrP3K3.s 			page 131


 5314 09c2 0000     		.space	2
 5315 09c4 0A000000 		.word	10
 5316 09c8 18000000 		.word	24
 5317 09cc 0000     		.short	0
 5318 09ce 0000     		.space	2
 5319 09d0 00000000 		.word	callback_ConfigFunction
 5320 09d4 01120000 		.word	.LC240
 5321 09d8 01       		.byte	1
 5322 09d9 01       		.byte	1
 5323 09da 0000     		.space	2
 5324 09dc 21120000 		.word	.LC241
 5325 09e0 66000000 		.word	configuration+102
 5326 09e4 01       		.byte	1
 5327 09e5 00       		.byte	0
 5328 09e6 0000     		.space	2
 5329 09e8 00000000 		.word	0
 5330 09ec 01000000 		.word	1
 5331 09f0 0000     		.short	0
 5332 09f2 0000     		.space	2
 5333 09f4 00000000 		.word	callback_ivoLED
 5334 09f8 29120000 		.word	.LC242
 5335 09fc 01       		.byte	1
 5336 09fd 01       		.byte	1
 5337 09fe 0000     		.space	2
 5338 0a00 3B120000 		.word	.LC243
 5339 0a04 68000000 		.word	configuration+104
 5340 0a08 02       		.byte	2
 5341 0a09 00       		.byte	0
 5342 0a0a 0000     		.space	2
 5343 0a0c 00000000 		.word	0
 5344 0a10 007D0000 		.word	32000
 5345 0a14 E803     		.short	1000
 5346 0a16 0000     		.space	2
 5347 0a18 00000000 		.word	0
 5348 0a1c 47120000 		.word	.LC244
 5349 0a20 01       		.byte	1
 5350 0a21 01       		.byte	1
 5351 0a22 0000     		.space	2
 5352 0a24 61120000 		.word	.LC245
 5353 0a28 70000000 		.word	configuration+112
 5354 0a2c 01       		.byte	1
 5355 0a2d 00       		.byte	0
 5356 0a2e 0000     		.space	2
 5357 0a30 00000000 		.word	0
 5358 0a34 02000000 		.word	2
 5359 0a38 0000     		.short	0
 5360 0a3a 0000     		.space	2
 5361 0a3c 00000000 		.word	callback_ConfigFunction
 5362 0a40 68120000 		.word	.LC246
 5363 0a44 01       		.byte	1
 5364 0a45 01       		.byte	1
 5365 0a46 0000     		.space	2
 5366 0a48 93120000 		.word	.LC247
 5367 0a4c 71000000 		.word	configuration+113
 5368 0a50 01       		.byte	1
 5369 0a51 00       		.byte	0
 5370 0a52 0000     		.space	2
ARM GAS  C:\Users\chemi\AppData\Local\Temp\ccFrP3K3.s 			page 132


 5371 0a54 00000000 		.word	0
 5372 0a58 01000000 		.word	1
 5373 0a5c 0000     		.short	0
 5374 0a5e 0000     		.space	2
 5375 0a60 00000000 		.word	0
 5376 0a64 9D120000 		.word	.LC248
 5377 0a68 01       		.byte	1
 5378 0a69 01       		.byte	1
 5379 0a6a 0000     		.space	2
 5380 0a6c A7120000 		.word	.LC249
 5381 0a70 72000000 		.word	configuration+114
 5382 0a74 01       		.byte	1
 5383 0a75 00       		.byte	0
 5384 0a76 0000     		.space	2
 5385 0a78 00000000 		.word	0
 5386 0a7c FF000000 		.word	255
 5387 0a80 0000     		.short	0
 5388 0a82 0000     		.space	2
 5389 0a84 00000000 		.word	callback_ConfigFunction
 5390 0a88 B6120000 		.word	.LC250
 5391 0a8c 01       		.byte	1
 5392 0a8d 01       		.byte	1
 5393 0a8e 0000     		.space	2
 5394 0a90 DD120000 		.word	.LC251
 5395 0a94 73000000 		.word	configuration+115
 5396 0a98 01       		.byte	1
 5397 0a99 00       		.byte	0
 5398 0a9a 0000     		.space	2
 5399 0a9c 00000000 		.word	0
 5400 0aa0 64000000 		.word	100
 5401 0aa4 0000     		.short	0
 5402 0aa6 0000     		.space	2
 5403 0aa8 00000000 		.word	callback_siggen
 5404 0aac EB120000 		.word	.LC252
 5405 0ab0 01       		.byte	1
 5406 0ab1 01       		.byte	1
 5407 0ab2 0000     		.space	2
 5408 0ab4 1F130000 		.word	.LC253
 5409 0ab8 74000000 		.word	configuration+116
 5410 0abc 01       		.byte	1
 5411 0abd 00       		.byte	0
 5412 0abe 0000     		.space	2
 5413 0ac0 00000000 		.word	0
 5414 0ac4 FF000000 		.word	255
 5415 0ac8 0000     		.short	0
 5416 0aca 0000     		.space	2
 5417 0acc 00000000 		.word	0
 5418 0ad0 2A130000 		.word	.LC254
 5419 0ad4 01       		.byte	1
 5420 0ad5 01       		.byte	1
 5421 0ad6 0000     		.space	2
 5422 0ad8 43130000 		.word	.LC255
 5423 0adc 75000000 		.word	configuration+117
 5424 0ae0 01       		.byte	1
 5425 0ae1 00       		.byte	0
 5426 0ae2 0000     		.space	2
 5427 0ae4 00000000 		.word	0
ARM GAS  C:\Users\chemi\AppData\Local\Temp\ccFrP3K3.s 			page 133


 5428 0ae8 FF000000 		.word	255
 5429 0aec 0000     		.short	0
 5430 0aee 0000     		.space	2
 5431 0af0 00000000 		.word	0
 5432 0af4 50130000 		.word	.LC256
 5433 0af8 01       		.byte	1
 5434 0af9 01       		.byte	1
 5435 0afa 0000     		.space	2
 5436 0afc 6B130000 		.word	.LC257
 5437 0b00 76000000 		.word	configuration+118
 5438 0b04 01       		.byte	1
 5439 0b05 00       		.byte	0
 5440 0b06 0000     		.space	2
 5441 0b08 00000000 		.word	0
 5442 0b0c FF000000 		.word	255
 5443 0b10 0000     		.short	0
 5444 0b12 0000     		.space	2
 5445 0b14 00000000 		.word	0
 5446 0b18 78130000 		.word	.LC258
 5447 0b1c 01       		.byte	1
 5448 0b1d 01       		.byte	1
 5449 0b1e 0000     		.space	2
 5450 0b20 93130000 		.word	.LC259
 5451 0b24 77000000 		.word	configuration+119
 5452 0b28 01       		.byte	1
 5453 0b29 00       		.byte	0
 5454 0b2a 0000     		.space	2
 5455 0b2c 00000000 		.word	0
 5456 0b30 FF000000 		.word	255
 5457 0b34 0000     		.short	0
 5458 0b36 0000     		.space	2
 5459 0b38 00000000 		.word	0
 5460 0b3c A3130000 		.word	.LC260
 5461              		.text
 5462              	.Letext0:
 5463              		.file 2 "c:\\program files (x86)\\cypress\\psoc creator\\4.4\\psoc creator\\import\\gnu\\arm\\5.4.
 5464              		.file 3 "c:\\program files (x86)\\cypress\\psoc creator\\4.4\\psoc creator\\import\\gnu\\arm\\5.4.
 5465              		.file 4 "Generated_Source\\PSoC5/cytypes.h"
 5466              		.file 5 "..\\common\\rtos\\portable\\GCC\\ARM_CM3/portmacro.h"
 5467              		.file 6 "..\\common\\rtos\\include/task.h"
 5468              		.file 7 "..\\common\\rtos\\include/queue.h"
 5469              		.file 8 "..\\common\\rtos\\include/semphr.h"
 5470              		.file 9 "..\\common\\rtos\\include/stream_buffer.h"
 5471              		.file 10 "..\\common\\tterm/TTerm.h"
 5472              		.file 11 "..\\common\\ud3core\\cli_basic.h"
 5473              		.file 12 "..\\common\\rtos\\include/timers.h"
 5474              		.file 13 "..\\common\\ud3core\\cli_common.h"
 5475              		.file 14 "..\\common\\ud3core\\ZCDtoPWM.h"
 5476              		.file 15 "..\\common\\ud3core\\interrupter.h"
 5477              		.file 16 "..\\common\\min/min.h"
 5478              		.file 17 "..\\common\\ud3core\\tasks/tsk_min.h"
 5479              		.file 18 "..\\common\\ud3core\\telemetry.h"
 5480              		.file 19 "..\\common\\ud3core\\tasks/tsk_analog.h"
 5481              		.file 20 "..\\common\\ud3core/SignalGenerator.h"
 5482              		.file 21 "..\\common\\ud3core\\tasks/tsk_fault.h"
 5483              		.file 22 "..\\common\\ud3core\\tasks/tsk_hwGauge.h"
 5484              		.file 23 "..\\common\\ud3core\\qcw.h"
ARM GAS  C:\Users\chemi\AppData\Local\Temp\ccFrP3K3.s 			page 134


 5485              		.file 24 "..\\common\\ud3core/tasks/tsk_sid.h"
 5486              		.file 25 "..\\common\\ud3core\\version.h"
 5487              		.file 26 "Generated_Source\\PSoC5/core_cm3.h"
 5488              		.file 27 "..\\common\\ud3core\\clock.h"
 5489              		.file 28 "..\\common\\vms/SidFilter.h"
 5490              		.file 29 "..\\common\\ud3core\\tasks/tsk_overlay.h"
 5491              		.file 30 "Generated_Source\\PSoC5/system_fault.h"
 5492              		.file 31 "Generated_Source\\PSoC5/dcdc_ena.h"
 5493              		.file 32 "..\\common\\ud3core\\helper/digipot.h"
 5494              		.file 33 "c:\\program files (x86)\\cypress\\psoc creator\\4.4\\psoc creator\\import\\gnu\\arm\\5.4
 5495              		.file 34 "..\\common\\ud3core\\system.h"
 5496              		.file 35 "c:\\program files (x86)\\cypress\\psoc creator\\4.4\\psoc creator\\import\\gnu\\arm\\5.4
 5497              		.file 36 "Generated_Source\\PSoC5/UART.h"
 5498              		.file 37 "Generated_Source\\PSoC5/UART_CLK.h"
 5499              		.file 38 "..\\common\\ud3core\\tasks/tsk_thermistor.h"
 5500              		.file 39 "c:\\program files (x86)\\cypress\\psoc creator\\4.4\\psoc creator\\import\\gnu\\arm\\5.4
 5501              		.file 40 "..\\common\\ud3core\\helper/teslaterm.h"
 5502              		.file 41 "Generated_Source\\PSoC5/Bootloadable.h"
 5503              		.file 42 "..\\common\\ud3core\\tasks/tsk_midi.h"
 5504              		.file 43 "..\\common\\ud3core/alarmevent.h"
 5505              		.file 44 "Generated_Source\\PSoC5/EEPROM_1.h"
 5506              		.file 45 "Generated_Source\\PSoC5/CyLib.h"
 5507              		.file 46 "Generated_Source\\PSoC5/temp_pwm.h"
 5508              		.file 47 "Generated_Source\\PSoC5/UVLO.h"
 5509              		.file 48 "Generated_Source\\PSoC5/Relay1.h"
 5510              		.file 49 "Generated_Source\\PSoC5/Relay2.h"
 5511              		.file 50 "Generated_Source\\PSoC5/Relay3.h"
 5512              		.file 51 "Generated_Source\\PSoC5/Relay4.h"
 5513              		.file 52 "Generated_Source\\PSoC5/Fan.h"
 5514              		.file 53 "Generated_Source\\PSoC5/ADC.h"
 5515              		.section	.debug_info,"",%progbits
 5516              	.Ldebug_info0:
 5517 0000 0C3A0000 		.4byte	0x3a0c
 5518 0004 0400     		.2byte	0x4
 5519 0006 00000000 		.4byte	.Ldebug_abbrev0
 5520 000a 04       		.byte	0x4
 5521 000b 01       		.uleb128 0x1
 5522 000c 8C000000 		.4byte	.LASF514
 5523 0010 0C       		.byte	0xc
 5524 0011 90020000 		.4byte	.LASF515
 5525 0015 42090000 		.4byte	.LASF516
 5526 0019 30000000 		.4byte	.Ldebug_ranges0+0x30
 5527 001d 00000000 		.4byte	0
 5528 0021 00000000 		.4byte	.Ldebug_line0
 5529 0025 02       		.uleb128 0x2
 5530 0026 04       		.byte	0x4
 5531 0027 07       		.byte	0x7
 5532 0028 95100000 		.4byte	.LASF0
 5533 002c 02       		.uleb128 0x2
 5534 002d 04       		.byte	0x4
 5535 002e 04       		.byte	0x4
 5536 002f F6190000 		.4byte	.LASF1
 5537 0033 02       		.uleb128 0x2
 5538 0034 08       		.byte	0x8
 5539 0035 04       		.byte	0x4
 5540 0036 EC0E0000 		.4byte	.LASF2
 5541 003a 03       		.uleb128 0x3
ARM GAS  C:\Users\chemi\AppData\Local\Temp\ccFrP3K3.s 			page 135


 5542 003b 4C140000 		.4byte	.LASF4
 5543 003f 02       		.byte	0x2
 5544 0040 1B       		.byte	0x1b
 5545 0041 45000000 		.4byte	0x45
 5546 0045 02       		.uleb128 0x2
 5547 0046 01       		.byte	0x1
 5548 0047 06       		.byte	0x6
 5549 0048 49060000 		.4byte	.LASF3
 5550 004c 03       		.uleb128 0x3
 5551 004d E8030000 		.4byte	.LASF5
 5552 0051 02       		.byte	0x2
 5553 0052 1D       		.byte	0x1d
 5554 0053 57000000 		.4byte	0x57
 5555 0057 02       		.uleb128 0x2
 5556 0058 01       		.byte	0x1
 5557 0059 08       		.byte	0x8
 5558 005a D4060000 		.4byte	.LASF6
 5559 005e 03       		.uleb128 0x3
 5560 005f F6150000 		.4byte	.LASF7
 5561 0063 02       		.byte	0x2
 5562 0064 29       		.byte	0x29
 5563 0065 69000000 		.4byte	0x69
 5564 0069 02       		.uleb128 0x2
 5565 006a 02       		.byte	0x2
 5566 006b 05       		.byte	0x5
 5567 006c 5C170000 		.4byte	.LASF8
 5568 0070 03       		.uleb128 0x3
 5569 0071 FE080000 		.4byte	.LASF9
 5570 0075 02       		.byte	0x2
 5571 0076 2B       		.byte	0x2b
 5572 0077 7B000000 		.4byte	0x7b
 5573 007b 02       		.uleb128 0x2
 5574 007c 02       		.byte	0x2
 5575 007d 07       		.byte	0x7
 5576 007e 34050000 		.4byte	.LASF10
 5577 0082 03       		.uleb128 0x3
 5578 0083 4E1A0000 		.4byte	.LASF11
 5579 0087 02       		.byte	0x2
 5580 0088 3F       		.byte	0x3f
 5581 0089 8D000000 		.4byte	0x8d
 5582 008d 02       		.uleb128 0x2
 5583 008e 04       		.byte	0x4
 5584 008f 05       		.byte	0x5
 5585 0090 C6040000 		.4byte	.LASF12
 5586 0094 03       		.uleb128 0x3
 5587 0095 860E0000 		.4byte	.LASF13
 5588 0099 02       		.byte	0x2
 5589 009a 41       		.byte	0x41
 5590 009b 9F000000 		.4byte	0x9f
 5591 009f 02       		.uleb128 0x2
 5592 00a0 04       		.byte	0x4
 5593 00a1 07       		.byte	0x7
 5594 00a2 9F0C0000 		.4byte	.LASF14
 5595 00a6 02       		.uleb128 0x2
 5596 00a7 08       		.byte	0x8
 5597 00a8 05       		.byte	0x5
 5598 00a9 9A0E0000 		.4byte	.LASF15
ARM GAS  C:\Users\chemi\AppData\Local\Temp\ccFrP3K3.s 			page 136


 5599 00ad 02       		.uleb128 0x2
 5600 00ae 08       		.byte	0x8
 5601 00af 07       		.byte	0x7
 5602 00b0 78140000 		.4byte	.LASF16
 5603 00b4 04       		.uleb128 0x4
 5604 00b5 04       		.byte	0x4
 5605 00b6 05       		.byte	0x5
 5606 00b7 696E7400 		.ascii	"int\000"
 5607 00bb 03       		.uleb128 0x3
 5608 00bc 3C000000 		.4byte	.LASF17
 5609 00c0 03       		.byte	0x3
 5610 00c1 14       		.byte	0x14
 5611 00c2 3A000000 		.4byte	0x3a
 5612 00c6 03       		.uleb128 0x3
 5613 00c7 60060000 		.4byte	.LASF18
 5614 00cb 03       		.byte	0x3
 5615 00cc 18       		.byte	0x18
 5616 00cd 4C000000 		.4byte	0x4c
 5617 00d1 03       		.uleb128 0x3
 5618 00d2 E5170000 		.4byte	.LASF19
 5619 00d6 03       		.byte	0x3
 5620 00d7 20       		.byte	0x20
 5621 00d8 5E000000 		.4byte	0x5e
 5622 00dc 03       		.uleb128 0x3
 5623 00dd 07150000 		.4byte	.LASF20
 5624 00e1 03       		.byte	0x3
 5625 00e2 24       		.byte	0x24
 5626 00e3 70000000 		.4byte	0x70
 5627 00e7 03       		.uleb128 0x3
 5628 00e8 8E010000 		.4byte	.LASF21
 5629 00ec 03       		.byte	0x3
 5630 00ed 2C       		.byte	0x2c
 5631 00ee 82000000 		.4byte	0x82
 5632 00f2 03       		.uleb128 0x3
 5633 00f3 40190000 		.4byte	.LASF22
 5634 00f7 03       		.byte	0x3
 5635 00f8 30       		.byte	0x30
 5636 00f9 94000000 		.4byte	0x94
 5637 00fd 05       		.uleb128 0x5
 5638 00fe 14170000 		.4byte	.LASF23
 5639 0102 04       		.byte	0x4
 5640 0103 9201     		.2byte	0x192
 5641 0105 57000000 		.4byte	0x57
 5642 0109 05       		.uleb128 0x5
 5643 010a E51A0000 		.4byte	.LASF24
 5644 010e 04       		.byte	0x4
 5645 010f 9301     		.2byte	0x193
 5646 0111 7B000000 		.4byte	0x7b
 5647 0115 02       		.uleb128 0x2
 5648 0116 01       		.byte	0x1
 5649 0117 08       		.byte	0x8
 5650 0118 36080000 		.4byte	.LASF25
 5651 011c 05       		.uleb128 0x5
 5652 011d A7150000 		.4byte	.LASF26
 5653 0121 04       		.byte	0x4
 5654 0122 3C02     		.2byte	0x23c
 5655 0124 28010000 		.4byte	0x128
ARM GAS  C:\Users\chemi\AppData\Local\Temp\ccFrP3K3.s 			page 137


 5656 0128 06       		.uleb128 0x6
 5657 0129 FD000000 		.4byte	0xfd
 5658 012d 02       		.uleb128 0x2
 5659 012e 04       		.byte	0x4
 5660 012f 07       		.byte	0x7
 5661 0130 83000000 		.4byte	.LASF27
 5662 0134 07       		.uleb128 0x7
 5663 0135 04       		.byte	0x4
 5664 0136 08       		.uleb128 0x8
 5665 0137 04       		.byte	0x4
 5666 0138 15010000 		.4byte	0x115
 5667 013c 08       		.uleb128 0x8
 5668 013d 04       		.byte	0x4
 5669 013e 42010000 		.4byte	0x142
 5670 0142 09       		.uleb128 0x9
 5671 0143 15010000 		.4byte	0x115
 5672 0147 06       		.uleb128 0x6
 5673 0148 F2000000 		.4byte	0xf2
 5674 014c 03       		.uleb128 0x3
 5675 014d 2F020000 		.4byte	.LASF28
 5676 0151 05       		.byte	0x5
 5677 0152 38       		.byte	0x38
 5678 0153 8D000000 		.4byte	0x8d
 5679 0157 03       		.uleb128 0x3
 5680 0158 9C150000 		.4byte	.LASF29
 5681 015c 05       		.byte	0x5
 5682 015d 3F       		.byte	0x3f
 5683 015e F2000000 		.4byte	0xf2
 5684 0162 03       		.uleb128 0x3
 5685 0163 73110000 		.4byte	.LASF30
 5686 0167 06       		.byte	0x6
 5687 0168 4E       		.byte	0x4e
 5688 0169 6D010000 		.4byte	0x16d
 5689 016d 08       		.uleb128 0x8
 5690 016e 04       		.byte	0x4
 5691 016f 73010000 		.4byte	0x173
 5692 0173 0A       		.uleb128 0xa
 5693 0174 E4130000 		.4byte	.LASF32
 5694 0178 03       		.uleb128 0x3
 5695 0179 3B060000 		.4byte	.LASF31
 5696 017d 07       		.byte	0x7
 5697 017e 31       		.byte	0x31
 5698 017f 83010000 		.4byte	0x183
 5699 0183 08       		.uleb128 0x8
 5700 0184 04       		.byte	0x4
 5701 0185 89010000 		.4byte	0x189
 5702 0189 0A       		.uleb128 0xa
 5703 018a E3040000 		.4byte	.LASF33
 5704 018e 03       		.uleb128 0x3
 5705 018f EC080000 		.4byte	.LASF34
 5706 0193 08       		.byte	0x8
 5707 0194 24       		.byte	0x24
 5708 0195 78010000 		.4byte	0x178
 5709 0199 03       		.uleb128 0x3
 5710 019a 66170000 		.4byte	.LASF35
 5711 019e 09       		.byte	0x9
 5712 019f 46       		.byte	0x46
ARM GAS  C:\Users\chemi\AppData\Local\Temp\ccFrP3K3.s 			page 138


 5713 01a0 A4010000 		.4byte	0x1a4
 5714 01a4 08       		.uleb128 0x8
 5715 01a5 04       		.byte	0x4
 5716 01a6 AA010000 		.4byte	0x1aa
 5717 01aa 0A       		.uleb128 0xa
 5718 01ab A4190000 		.4byte	.LASF36
 5719 01af 0B       		.uleb128 0xb
 5720 01b0 F8130000 		.4byte	.LASF65
 5721 01b4 01       		.byte	0x1
 5722 01b5 57000000 		.4byte	0x57
 5723 01b9 0A       		.byte	0xa
 5724 01ba 35       		.byte	0x35
 5725 01bb 68020000 		.4byte	0x268
 5726 01bf 0C       		.uleb128 0xc
 5727 01c0 FC170000 		.4byte	.LASF37
 5728 01c4 00       		.byte	0
 5729 01c5 0C       		.uleb128 0xc
 5730 01c6 69130000 		.4byte	.LASF38
 5731 01ca 01       		.byte	0x1
 5732 01cb 0C       		.uleb128 0xc
 5733 01cc 1C050000 		.4byte	.LASF39
 5734 01d0 02       		.byte	0x2
 5735 01d1 0C       		.uleb128 0xc
 5736 01d2 BA030000 		.4byte	.LASF40
 5737 01d6 03       		.byte	0x3
 5738 01d7 0C       		.uleb128 0xc
 5739 01d8 26040000 		.4byte	.LASF41
 5740 01dc 04       		.byte	0x4
 5741 01dd 0C       		.uleb128 0xc
 5742 01de 14160000 		.4byte	.LASF42
 5743 01e2 05       		.byte	0x5
 5744 01e3 0C       		.uleb128 0xc
 5745 01e4 950D0000 		.4byte	.LASF43
 5746 01e8 06       		.byte	0x6
 5747 01e9 0C       		.uleb128 0xc
 5748 01ea 07030000 		.4byte	.LASF44
 5749 01ee 07       		.byte	0x7
 5750 01ef 0C       		.uleb128 0xc
 5751 01f0 00020000 		.4byte	.LASF45
 5752 01f4 08       		.byte	0x8
 5753 01f5 0C       		.uleb128 0xc
 5754 01f6 69180000 		.4byte	.LASF46
 5755 01fa 09       		.byte	0x9
 5756 01fb 0C       		.uleb128 0xc
 5757 01fc EF070000 		.4byte	.LASF47
 5758 0200 0A       		.byte	0xa
 5759 0201 0C       		.uleb128 0xc
 5760 0202 07190000 		.4byte	.LASF48
 5761 0206 0B       		.byte	0xb
 5762 0207 0C       		.uleb128 0xc
 5763 0208 41070000 		.4byte	.LASF49
 5764 020c 0C       		.byte	0xc
 5765 020d 0C       		.uleb128 0xc
 5766 020e 170D0000 		.4byte	.LASF50
 5767 0212 0D       		.byte	0xd
 5768 0213 0C       		.uleb128 0xc
 5769 0214 260D0000 		.4byte	.LASF51
ARM GAS  C:\Users\chemi\AppData\Local\Temp\ccFrP3K3.s 			page 139


 5770 0218 0E       		.byte	0xe
 5771 0219 0C       		.uleb128 0xc
 5772 021a 81150000 		.4byte	.LASF52
 5773 021e 0F       		.byte	0xf
 5774 021f 0C       		.uleb128 0xc
 5775 0220 C8160000 		.4byte	.LASF53
 5776 0224 10       		.byte	0x10
 5777 0225 0C       		.uleb128 0xc
 5778 0226 54020000 		.4byte	.LASF54
 5779 022a 11       		.byte	0x11
 5780 022b 0C       		.uleb128 0xc
 5781 022c 55120000 		.4byte	.LASF55
 5782 0230 12       		.byte	0x12
 5783 0231 0C       		.uleb128 0xc
 5784 0232 EE090000 		.4byte	.LASF56
 5785 0236 13       		.byte	0x13
 5786 0237 0C       		.uleb128 0xc
 5787 0238 950B0000 		.4byte	.LASF57
 5788 023c 14       		.byte	0x14
 5789 023d 0C       		.uleb128 0xc
 5790 023e 05130000 		.4byte	.LASF58
 5791 0242 15       		.byte	0x15
 5792 0243 0C       		.uleb128 0xc
 5793 0244 3B080000 		.4byte	.LASF59
 5794 0248 16       		.byte	0x16
 5795 0249 0C       		.uleb128 0xc
 5796 024a 22100000 		.4byte	.LASF60
 5797 024e 17       		.byte	0x17
 5798 024f 0C       		.uleb128 0xc
 5799 0250 E50A0000 		.4byte	.LASF61
 5800 0254 18       		.byte	0x18
 5801 0255 0C       		.uleb128 0xc
 5802 0256 7F100000 		.4byte	.LASF62
 5803 025a 19       		.byte	0x19
 5804 025b 0C       		.uleb128 0xc
 5805 025c 96170000 		.4byte	.LASF63
 5806 0260 1A       		.byte	0x1a
 5807 0261 0C       		.uleb128 0xc
 5808 0262 DA0A0000 		.4byte	.LASF64
 5809 0266 1B       		.byte	0x1b
 5810 0267 00       		.byte	0
 5811 0268 0B       		.uleb128 0xb
 5812 0269 33160000 		.4byte	.LASF66
 5813 026d 01       		.byte	0x1
 5814 026e 57000000 		.4byte	0x57
 5815 0272 0A       		.byte	0xa
 5816 0273 65       		.byte	0x65
 5817 0274 A9020000 		.4byte	0x2a9
 5818 0278 0C       		.uleb128 0xc
 5819 0279 D6020000 		.4byte	.LASF67
 5820 027d 00       		.byte	0
 5821 027e 0C       		.uleb128 0xc
 5822 027f 57040000 		.4byte	.LASF68
 5823 0283 01       		.byte	0x1
 5824 0284 0C       		.uleb128 0xc
 5825 0285 53000000 		.4byte	.LASF69
 5826 0289 02       		.byte	0x2
ARM GAS  C:\Users\chemi\AppData\Local\Temp\ccFrP3K3.s 			page 140


 5827 028a 0C       		.uleb128 0xc
 5828 028b 72080000 		.4byte	.LASF70
 5829 028f 03       		.byte	0x3
 5830 0290 0C       		.uleb128 0xc
 5831 0291 550C0000 		.4byte	.LASF71
 5832 0295 04       		.byte	0x4
 5833 0296 0C       		.uleb128 0xc
 5834 0297 B50B0000 		.4byte	.LASF72
 5835 029b 05       		.byte	0x5
 5836 029c 0C       		.uleb128 0xc
 5837 029d B4090000 		.4byte	.LASF73
 5838 02a1 06       		.byte	0x6
 5839 02a2 0C       		.uleb128 0xc
 5840 02a3 FA0A0000 		.4byte	.LASF74
 5841 02a7 07       		.byte	0x7
 5842 02a8 00       		.byte	0
 5843 02a9 03       		.uleb128 0x3
 5844 02aa CC1A0000 		.4byte	.LASF75
 5845 02ae 0A       		.byte	0xa
 5846 02af A3       		.byte	0xa3
 5847 02b0 B4020000 		.4byte	0x2b4
 5848 02b4 0D       		.uleb128 0xd
 5849 02b5 6F090000 		.4byte	.LASF96
 5850 02b9 94       		.byte	0x94
 5851 02ba 0A       		.byte	0xa
 5852 02bb C6       		.byte	0xc6
 5853 02bc A5030000 		.4byte	0x3a5
 5854 02c0 0E       		.uleb128 0xe
 5855 02c1 361A0000 		.4byte	.LASF76
 5856 02c5 0A       		.byte	0xa
 5857 02c6 C7       		.byte	0xc7
 5858 02c7 36010000 		.4byte	0x136
 5859 02cb 00       		.byte	0
 5860 02cc 0E       		.uleb128 0xe
 5861 02cd 01120000 		.4byte	.LASF77
 5862 02d1 0A       		.byte	0xa
 5863 02d2 C9       		.byte	0xc9
 5864 02d3 34010000 		.4byte	0x134
 5865 02d7 04       		.byte	0x4
 5866 02d8 0E       		.uleb128 0xe
 5867 02d9 F40B0000 		.4byte	.LASF78
 5868 02dd 0A       		.byte	0xa
 5869 02de CB       		.byte	0xcb
 5870 02df F2000000 		.4byte	0xf2
 5871 02e3 08       		.byte	0x8
 5872 02e4 0E       		.uleb128 0xe
 5873 02e5 590A0000 		.4byte	.LASF79
 5874 02e9 0A       		.byte	0xa
 5875 02ea CC       		.byte	0xcc
 5876 02eb F2000000 		.4byte	0xf2
 5877 02ef 0C       		.byte	0xc
 5878 02f0 0E       		.uleb128 0xe
 5879 02f1 AF020000 		.4byte	.LASF80
 5880 02f5 0A       		.byte	0xa
 5881 02f6 CD       		.byte	0xcd
 5882 02f7 F2000000 		.4byte	0xf2
 5883 02fb 10       		.byte	0x10
ARM GAS  C:\Users\chemi\AppData\Local\Temp\ccFrP3K3.s 			page 141


 5884 02fc 0E       		.uleb128 0xe
 5885 02fd 48020000 		.4byte	.LASF81
 5886 0301 0A       		.byte	0xa
 5887 0302 CE       		.byte	0xce
 5888 0303 4A050000 		.4byte	0x54a
 5889 0307 14       		.byte	0x14
 5890 0308 0E       		.uleb128 0xe
 5891 0309 26140000 		.4byte	.LASF82
 5892 030d 0A       		.byte	0xa
 5893 030e CF       		.byte	0xcf
 5894 030f 4D040000 		.4byte	0x44d
 5895 0313 18       		.byte	0x18
 5896 0314 0E       		.uleb128 0xe
 5897 0315 23000000 		.4byte	.LASF83
 5898 0319 0A       		.byte	0xa
 5899 031a D0       		.byte	0xd0
 5900 031b F2000000 		.4byte	0xf2
 5901 031f 1C       		.byte	0x1c
 5902 0320 0E       		.uleb128 0xe
 5903 0321 6A020000 		.4byte	.LASF84
 5904 0325 0A       		.byte	0xa
 5905 0326 D1       		.byte	0xd1
 5906 0327 F2000000 		.4byte	0xf2
 5907 032b 20       		.byte	0x20
 5908 032c 0E       		.uleb128 0xe
 5909 032d 8D120000 		.4byte	.LASF85
 5910 0331 0A       		.byte	0xa
 5911 0332 D2       		.byte	0xd2
 5912 0333 9D040000 		.4byte	0x49d
 5913 0337 24       		.byte	0x24
 5914 0338 0E       		.uleb128 0xe
 5915 0339 C3120000 		.4byte	.LASF86
 5916 033d 0A       		.byte	0xa
 5917 033e D3       		.byte	0xd3
 5918 033f 36010000 		.4byte	0x136
 5919 0343 28       		.byte	0x28
 5920 0344 0E       		.uleb128 0xe
 5921 0345 ED180000 		.4byte	.LASF87
 5922 0349 0A       		.byte	0xa
 5923 034a D4       		.byte	0xd4
 5924 034b 50050000 		.4byte	0x550
 5925 034f 2C       		.byte	0x2c
 5926 0350 0E       		.uleb128 0xe
 5927 0351 2E010000 		.4byte	.LASF88
 5928 0355 0A       		.byte	0xa
 5929 0356 D5       		.byte	0xd5
 5930 0357 F2000000 		.4byte	0xf2
 5931 035b 6C       		.byte	0x6c
 5932 035c 0E       		.uleb128 0xe
 5933 035d 470B0000 		.4byte	.LASF89
 5934 0361 0A       		.byte	0xa
 5935 0362 D6       		.byte	0xd6
 5936 0363 F2000000 		.4byte	0xf2
 5937 0367 70       		.byte	0x70
 5938 0368 0E       		.uleb128 0xe
 5939 0369 75000000 		.4byte	.LASF90
 5940 036d 0A       		.byte	0xa
ARM GAS  C:\Users\chemi\AppData\Local\Temp\ccFrP3K3.s 			page 142


 5941 036e D7       		.byte	0xd7
 5942 036f C6000000 		.4byte	0xc6
 5943 0373 74       		.byte	0x74
 5944 0374 0E       		.uleb128 0xe
 5945 0375 A8070000 		.4byte	.LASF91
 5946 0379 0A       		.byte	0xa
 5947 037a D8       		.byte	0xd8
 5948 037b 60050000 		.4byte	0x560
 5949 037f 75       		.byte	0x75
 5950 0380 0E       		.uleb128 0xe
 5951 0381 BA140000 		.4byte	.LASF92
 5952 0385 0A       		.byte	0xa
 5953 0386 D9       		.byte	0xd9
 5954 0387 25000000 		.4byte	0x25
 5955 038b 88       		.byte	0x88
 5956 038c 0E       		.uleb128 0xe
 5957 038d D40B0000 		.4byte	.LASF93
 5958 0391 0A       		.byte	0xa
 5959 0392 DA       		.byte	0xda
 5960 0393 44050000 		.4byte	0x544
 5961 0397 8C       		.byte	0x8c
 5962 0398 0E       		.uleb128 0xe
 5963 0399 B6010000 		.4byte	.LASF94
 5964 039d 0A       		.byte	0xa
 5965 039e DB       		.byte	0xdb
 5966 039f 78040000 		.4byte	0x478
 5967 03a3 90       		.byte	0x90
 5968 03a4 00       		.byte	0
 5969 03a5 03       		.uleb128 0x3
 5970 03a6 D9070000 		.4byte	.LASF95
 5971 03aa 0A       		.byte	0xa
 5972 03ab A4       		.byte	0xa4
 5973 03ac B0030000 		.4byte	0x3b0
 5974 03b0 0D       		.uleb128 0xd
 5975 03b1 28090000 		.4byte	.LASF97
 5976 03b5 20       		.byte	0x20
 5977 03b6 0A       		.byte	0xa
 5978 03b7 BA       		.byte	0xba
 5979 03b8 1D040000 		.4byte	0x41d
 5980 03bc 0E       		.uleb128 0xe
 5981 03bd 66030000 		.4byte	.LASF98
 5982 03c1 0A       		.byte	0xa
 5983 03c2 BB       		.byte	0xbb
 5984 03c3 1D040000 		.4byte	0x41d
 5985 03c7 00       		.byte	0
 5986 03c8 0E       		.uleb128 0xe
 5987 03c9 C6140000 		.4byte	.LASF99
 5988 03cd 0A       		.byte	0xa
 5989 03ce BC       		.byte	0xbc
 5990 03cf 3C010000 		.4byte	0x13c
 5991 03d3 04       		.byte	0x4
 5992 03d4 0E       		.uleb128 0xe
 5993 03d5 BD100000 		.4byte	.LASF100
 5994 03d9 0A       		.byte	0xa
 5995 03da BD       		.byte	0xbd
 5996 03db 3C010000 		.4byte	0x13c
 5997 03df 08       		.byte	0x8
ARM GAS  C:\Users\chemi\AppData\Local\Temp\ccFrP3K3.s 			page 143


 5998 03e0 0E       		.uleb128 0xe
 5999 03e1 5A0E0000 		.4byte	.LASF101
 6000 03e5 0A       		.byte	0xa
 6001 03e6 BE       		.byte	0xbe
 6002 03e7 F2000000 		.4byte	0xf2
 6003 03eb 0C       		.byte	0xc
 6004 03ec 0E       		.uleb128 0xe
 6005 03ed 5E0F0000 		.4byte	.LASF102
 6006 03f1 0A       		.byte	0xa
 6007 03f2 BF       		.byte	0xbf
 6008 03f3 C6000000 		.4byte	0xc6
 6009 03f7 10       		.byte	0x10
 6010 03f8 0E       		.uleb128 0xe
 6011 03f9 E20E0000 		.4byte	.LASF103
 6012 03fd 0A       		.byte	0xa
 6013 03fe C0       		.byte	0xc0
 6014 03ff C3040000 		.4byte	0x4c3
 6015 0403 14       		.byte	0x14
 6016 0404 0E       		.uleb128 0xe
 6017 0405 1A000000 		.4byte	.LASF104
 6018 0409 0A       		.byte	0xa
 6019 040a C1       		.byte	0xc1
 6020 040b 34010000 		.4byte	0x134
 6021 040f 18       		.byte	0x18
 6022 0410 0E       		.uleb128 0xe
 6023 0411 CF050000 		.4byte	.LASF105
 6024 0415 0A       		.byte	0xa
 6025 0416 C3       		.byte	0xc3
 6026 0417 44050000 		.4byte	0x544
 6027 041b 1C       		.byte	0x1c
 6028 041c 00       		.byte	0
 6029 041d 03       		.uleb128 0x3
 6030 041e B4080000 		.4byte	.LASF106
 6031 0422 0A       		.byte	0xa
 6032 0423 A6       		.byte	0xa6
 6033 0424 28040000 		.4byte	0x428
 6034 0428 08       		.uleb128 0x8
 6035 0429 04       		.byte	0x4
 6036 042a 2E040000 		.4byte	0x42e
 6037 042e 0F       		.uleb128 0xf
 6038 042f C6000000 		.4byte	0xc6
 6039 0433 47040000 		.4byte	0x447
 6040 0437 10       		.uleb128 0x10
 6041 0438 47040000 		.4byte	0x447
 6042 043c 10       		.uleb128 0x10
 6043 043d C6000000 		.4byte	0xc6
 6044 0441 10       		.uleb128 0x10
 6045 0442 4D040000 		.4byte	0x44d
 6046 0446 00       		.byte	0
 6047 0447 08       		.uleb128 0x8
 6048 0448 04       		.byte	0x4
 6049 0449 A9020000 		.4byte	0x2a9
 6050 044d 08       		.uleb128 0x8
 6051 044e 04       		.byte	0x4
 6052 044f 36010000 		.4byte	0x136
 6053 0453 03       		.uleb128 0x3
 6054 0454 3F040000 		.4byte	.LASF107
ARM GAS  C:\Users\chemi\AppData\Local\Temp\ccFrP3K3.s 			page 144


 6055 0458 0A       		.byte	0xa
 6056 0459 A7       		.byte	0xa7
 6057 045a 5E040000 		.4byte	0x45e
 6058 045e 08       		.uleb128 0x8
 6059 045f 04       		.byte	0x4
 6060 0460 64040000 		.4byte	0x464
 6061 0464 0F       		.uleb128 0xf
 6062 0465 C6000000 		.4byte	0xc6
 6063 0469 78040000 		.4byte	0x478
 6064 046d 10       		.uleb128 0x10
 6065 046e 47040000 		.4byte	0x447
 6066 0472 10       		.uleb128 0x10
 6067 0473 DC000000 		.4byte	0xdc
 6068 0477 00       		.byte	0
 6069 0478 03       		.uleb128 0x3
 6070 0479 D3080000 		.4byte	.LASF108
 6071 047d 0A       		.byte	0xa
 6072 047e A8       		.byte	0xa8
 6073 047f 83040000 		.4byte	0x483
 6074 0483 08       		.uleb128 0x8
 6075 0484 04       		.byte	0x4
 6076 0485 89040000 		.4byte	0x489
 6077 0489 0F       		.uleb128 0xf
 6078 048a C6000000 		.4byte	0xc6
 6079 048e 9D040000 		.4byte	0x49d
 6080 0492 10       		.uleb128 0x10
 6081 0493 47040000 		.4byte	0x447
 6082 0497 10       		.uleb128 0x10
 6083 0498 F2000000 		.4byte	0xf2
 6084 049c 00       		.byte	0
 6085 049d 03       		.uleb128 0x3
 6086 049e 6B040000 		.4byte	.LASF109
 6087 04a2 0A       		.byte	0xa
 6088 04a3 AB       		.byte	0xab
 6089 04a4 A8040000 		.4byte	0x4a8
 6090 04a8 08       		.uleb128 0x8
 6091 04a9 04       		.byte	0x4
 6092 04aa AE040000 		.4byte	0x4ae
 6093 04ae 0F       		.uleb128 0xf
 6094 04af F2000000 		.4byte	0xf2
 6095 04b3 C3040000 		.4byte	0x4c3
 6096 04b7 10       		.uleb128 0x10
 6097 04b8 34010000 		.4byte	0x134
 6098 04bc 10       		.uleb128 0x10
 6099 04bd 36010000 		.4byte	0x136
 6100 04c1 11       		.uleb128 0x11
 6101 04c2 00       		.byte	0
 6102 04c3 03       		.uleb128 0x3
 6103 04c4 CA170000 		.4byte	.LASF110
 6104 04c8 0A       		.byte	0xa
 6105 04c9 AF       		.byte	0xaf
 6106 04ca CE040000 		.4byte	0x4ce
 6107 04ce 08       		.uleb128 0x8
 6108 04cf 04       		.byte	0x4
 6109 04d0 D4040000 		.4byte	0x4d4
 6110 04d4 0F       		.uleb128 0xf
 6111 04d5 C6000000 		.4byte	0xc6
ARM GAS  C:\Users\chemi\AppData\Local\Temp\ccFrP3K3.s 			page 145


 6112 04d9 E8040000 		.4byte	0x4e8
 6113 04dd 10       		.uleb128 0x10
 6114 04de 47040000 		.4byte	0x447
 6115 04e2 10       		.uleb128 0x10
 6116 04e3 34010000 		.4byte	0x134
 6117 04e7 00       		.byte	0
 6118 04e8 12       		.uleb128 0x12
 6119 04e9 18       		.byte	0x18
 6120 04ea 0A       		.byte	0xa
 6121 04eb B1       		.byte	0xb1
 6122 04ec 39050000 		.4byte	0x539
 6123 04f0 0E       		.uleb128 0xe
 6124 04f1 160B0000 		.4byte	.LASF111
 6125 04f5 0A       		.byte	0xa
 6126 04f6 B2       		.byte	0xb2
 6127 04f7 62010000 		.4byte	0x162
 6128 04fb 00       		.byte	0
 6129 04fc 0E       		.uleb128 0xe
 6130 04fd 77190000 		.4byte	.LASF112
 6131 0501 0A       		.byte	0xa
 6132 0502 B3       		.byte	0xb3
 6133 0503 53040000 		.4byte	0x453
 6134 0507 04       		.byte	0x4
 6135 0508 0E       		.uleb128 0xe
 6136 0509 7D0A0000 		.4byte	.LASF113
 6137 050d 0A       		.byte	0xa
 6138 050e B4       		.byte	0xb4
 6139 050f C6000000 		.4byte	0xc6
 6140 0513 08       		.byte	0x8
 6141 0514 0E       		.uleb128 0xe
 6142 0515 64070000 		.4byte	.LASF114
 6143 0519 0A       		.byte	0xa
 6144 051a B5       		.byte	0xb5
 6145 051b 99010000 		.4byte	0x199
 6146 051f 0C       		.byte	0xc
 6147 0520 0E       		.uleb128 0xe
 6148 0521 1D0E0000 		.4byte	.LASF115
 6149 0525 0A       		.byte	0xa
 6150 0526 B6       		.byte	0xb6
 6151 0527 4D040000 		.4byte	0x44d
 6152 052b 10       		.byte	0x10
 6153 052c 0E       		.uleb128 0xe
 6154 052d B7110000 		.4byte	.LASF116
 6155 0531 0A       		.byte	0xa
 6156 0532 B7       		.byte	0xb7
 6157 0533 C6000000 		.4byte	0xc6
 6158 0537 14       		.byte	0x14
 6159 0538 00       		.byte	0
 6160 0539 03       		.uleb128 0x3
 6161 053a 55160000 		.4byte	.LASF117
 6162 053e 0A       		.byte	0xa
 6163 053f B8       		.byte	0xb8
 6164 0540 E8040000 		.4byte	0x4e8
 6165 0544 08       		.uleb128 0x8
 6166 0545 04       		.byte	0x4
 6167 0546 A5030000 		.4byte	0x3a5
 6168 054a 08       		.uleb128 0x8
ARM GAS  C:\Users\chemi\AppData\Local\Temp\ccFrP3K3.s 			page 146


 6169 054b 04       		.byte	0x4
 6170 054c 39050000 		.4byte	0x539
 6171 0550 13       		.uleb128 0x13
 6172 0551 36010000 		.4byte	0x136
 6173 0555 60050000 		.4byte	0x560
 6174 0559 14       		.uleb128 0x14
 6175 055a 2D010000 		.4byte	0x12d
 6176 055e 0F       		.byte	0xf
 6177 055f 00       		.byte	0
 6178 0560 13       		.uleb128 0x13
 6179 0561 C6000000 		.4byte	0xc6
 6180 0565 70050000 		.4byte	0x570
 6181 0569 14       		.uleb128 0x14
 6182 056a 2D010000 		.4byte	0x12d
 6183 056e 0F       		.byte	0xf
 6184 056f 00       		.byte	0
 6185 0570 0B       		.uleb128 0xb
 6186 0571 6E1A0000 		.4byte	.LASF118
 6187 0575 01       		.byte	0x1
 6188 0576 57000000 		.4byte	0x57
 6189 057a 0B       		.byte	0xb
 6190 057b 1D       		.byte	0x1d
 6191 057c A5050000 		.4byte	0x5a5
 6192 0580 0C       		.uleb128 0xc
 6193 0581 AF0E0000 		.4byte	.LASF119
 6194 0585 00       		.byte	0
 6195 0586 0C       		.uleb128 0xc
 6196 0587 19130000 		.4byte	.LASF120
 6197 058b 01       		.byte	0x1
 6198 058c 0C       		.uleb128 0xc
 6199 058d 44120000 		.4byte	.LASF121
 6200 0591 02       		.byte	0x2
 6201 0592 0C       		.uleb128 0xc
 6202 0593 F2030000 		.4byte	.LASF122
 6203 0597 03       		.byte	0x3
 6204 0598 0C       		.uleb128 0xc
 6205 0599 790C0000 		.4byte	.LASF123
 6206 059d 04       		.byte	0x4
 6207 059e 0C       		.uleb128 0xc
 6208 059f FB180000 		.4byte	.LASF124
 6209 05a3 05       		.byte	0x5
 6210 05a4 00       		.byte	0
 6211 05a5 0B       		.uleb128 0xb
 6212 05a6 01120000 		.4byte	.LASF77
 6213 05aa 01       		.byte	0x1
 6214 05ab 57000000 		.4byte	0x57
 6215 05af 0B       		.byte	0xb
 6216 05b0 26       		.byte	0x26
 6217 05b1 E0050000 		.4byte	0x5e0
 6218 05b5 0C       		.uleb128 0xc
 6219 05b6 CF040000 		.4byte	.LASF125
 6220 05ba 00       		.byte	0
 6221 05bb 0C       		.uleb128 0xc
 6222 05bc E40C0000 		.4byte	.LASF126
 6223 05c0 01       		.byte	0x1
 6224 05c1 0C       		.uleb128 0xc
 6225 05c2 720D0000 		.4byte	.LASF127
ARM GAS  C:\Users\chemi\AppData\Local\Temp\ccFrP3K3.s 			page 147


 6226 05c6 02       		.byte	0x2
 6227 05c7 0C       		.uleb128 0xc
 6228 05c8 CA0E0000 		.4byte	.LASF128
 6229 05cc 03       		.byte	0x3
 6230 05cd 0C       		.uleb128 0xc
 6231 05ce 43000000 		.4byte	.LASF129
 6232 05d2 04       		.byte	0x4
 6233 05d3 0C       		.uleb128 0xc
 6234 05d4 5C130000 		.4byte	.LASF130
 6235 05d8 05       		.byte	0x5
 6236 05d9 0C       		.uleb128 0xc
 6237 05da 460C0000 		.4byte	.LASF131
 6238 05de 06       		.byte	0x6
 6239 05df 00       		.byte	0
 6240 05e0 03       		.uleb128 0x3
 6241 05e1 7C020000 		.4byte	.LASF132
 6242 05e5 0B       		.byte	0xb
 6243 05e6 56       		.byte	0x56
 6244 05e7 EB050000 		.4byte	0x5eb
 6245 05eb 0D       		.uleb128 0xd
 6246 05ec 5C190000 		.4byte	.LASF133
 6247 05f0 14       		.byte	0x14
 6248 05f1 0B       		.byte	0xb
 6249 05f2 57       		.byte	0x57
 6250 05f3 56060000 		.4byte	0x656
 6251 05f7 0E       		.uleb128 0xe
 6252 05f8 2A030000 		.4byte	.LASF134
 6253 05fc 0B       		.byte	0xb
 6254 05fd 58       		.byte	0x58
 6255 05fe C6000000 		.4byte	0xc6
 6256 0602 00       		.byte	0
 6257 0603 15       		.uleb128 0x15
 6258 0604 6E756D00 		.ascii	"num\000"
 6259 0608 0B       		.byte	0xb
 6260 0609 59       		.byte	0x59
 6261 060a C6000000 		.4byte	0xc6
 6262 060e 01       		.byte	0x1
 6263 060f 0E       		.uleb128 0xe
 6264 0610 15110000 		.4byte	.LASF135
 6265 0614 0B       		.byte	0xb
 6266 0615 5A       		.byte	0x5a
 6267 0616 C6000000 		.4byte	0xc6
 6268 061a 02       		.byte	0x2
 6269 061b 0E       		.uleb128 0xe
 6270 061c E5190000 		.4byte	.LASF136
 6271 0620 0B       		.byte	0xb
 6272 0621 5B       		.byte	0x5b
 6273 0622 C6000000 		.4byte	0xc6
 6274 0626 03       		.byte	0x3
 6275 0627 15       		.uleb128 0x15
 6276 0628 747800   		.ascii	"tx\000"
 6277 062b 0B       		.byte	0xb
 6278 062c 5C       		.byte	0x5c
 6279 062d 99010000 		.4byte	0x199
 6280 0631 04       		.byte	0x4
 6281 0632 15       		.uleb128 0x15
 6282 0633 727800   		.ascii	"rx\000"
ARM GAS  C:\Users\chemi\AppData\Local\Temp\ccFrP3K3.s 			page 148


 6283 0636 0B       		.byte	0xb
 6284 0637 5D       		.byte	0x5d
 6285 0638 99010000 		.4byte	0x199
 6286 063c 08       		.byte	0x8
 6287 063d 0E       		.uleb128 0xe
 6288 063e AF170000 		.4byte	.LASF137
 6289 0642 0B       		.byte	0xb
 6290 0643 5E       		.byte	0x5e
 6291 0644 8E010000 		.4byte	0x18e
 6292 0648 0C       		.byte	0xc
 6293 0649 0E       		.uleb128 0xe
 6294 064a 12120000 		.4byte	.LASF138
 6295 064e 0B       		.byte	0xb
 6296 064f 5F       		.byte	0x5f
 6297 0650 62010000 		.4byte	0x162
 6298 0654 10       		.byte	0x10
 6299 0655 00       		.byte	0
 6300 0656 03       		.uleb128 0x3
 6301 0657 78180000 		.4byte	.LASF139
 6302 065b 0B       		.byte	0xb
 6303 065c 63       		.byte	0x63
 6304 065d 61060000 		.4byte	0x661
 6305 0661 0D       		.uleb128 0xd
 6306 0662 710F0000 		.4byte	.LASF140
 6307 0666 24       		.byte	0x24
 6308 0667 0B       		.byte	0xb
 6309 0668 64       		.byte	0x64
 6310 0669 F2060000 		.4byte	0x6f2
 6311 066d 0E       		.uleb128 0xe
 6312 066e 23120000 		.4byte	.LASF141
 6313 0672 0B       		.byte	0xb
 6314 0673 65       		.byte	0x65
 6315 0674 F2060000 		.4byte	0x6f2
 6316 0678 00       		.byte	0
 6317 0679 0E       		.uleb128 0xe
 6318 067a 30170000 		.4byte	.LASF142
 6319 067e 0B       		.byte	0xb
 6320 067f 66       		.byte	0x66
 6321 0680 C6000000 		.4byte	0xc6
 6322 0684 01       		.byte	0x1
 6323 0685 0E       		.uleb128 0xe
 6324 0686 2E160000 		.4byte	.LASF143
 6325 068a 0B       		.byte	0xb
 6326 068b 67       		.byte	0x67
 6327 068c 3C010000 		.4byte	0x13c
 6328 0690 04       		.byte	0x4
 6329 0691 0E       		.uleb128 0xe
 6330 0692 19080000 		.4byte	.LASF144
 6331 0696 0B       		.byte	0xb
 6332 0697 68       		.byte	0x68
 6333 0698 34010000 		.4byte	0x134
 6334 069c 08       		.byte	0x8
 6335 069d 0E       		.uleb128 0xe
 6336 069e 6C140000 		.4byte	.LASF145
 6337 06a2 0B       		.byte	0xb
 6338 06a3 69       		.byte	0x69
 6339 06a4 F2060000 		.4byte	0x6f2
ARM GAS  C:\Users\chemi\AppData\Local\Temp\ccFrP3K3.s 			page 149


 6340 06a8 0C       		.byte	0xc
 6341 06a9 0E       		.uleb128 0xe
 6342 06aa 2A030000 		.4byte	.LASF134
 6343 06ae 0B       		.byte	0xb
 6344 06af 6A       		.byte	0x6a
 6345 06b0 F2060000 		.4byte	0x6f2
 6346 06b4 0D       		.byte	0xd
 6347 06b5 15       		.uleb128 0x15
 6348 06b6 6D696E00 		.ascii	"min\000"
 6349 06ba 0B       		.byte	0xb
 6350 06bb 6B       		.byte	0x6b
 6351 06bc F7060000 		.4byte	0x6f7
 6352 06c0 10       		.byte	0x10
 6353 06c1 15       		.uleb128 0x15
 6354 06c2 6D617800 		.ascii	"max\000"
 6355 06c6 0B       		.byte	0xb
 6356 06c7 6C       		.byte	0x6c
 6357 06c8 F7060000 		.4byte	0x6f7
 6358 06cc 14       		.byte	0x14
 6359 06cd 15       		.uleb128 0x15
 6360 06ce 64697600 		.ascii	"div\000"
 6361 06d2 0B       		.byte	0xb
 6362 06d3 6D       		.byte	0x6d
 6363 06d4 FC060000 		.4byte	0x6fc
 6364 06d8 18       		.byte	0x18
 6365 06d9 0E       		.uleb128 0xe
 6366 06da 3D0E0000 		.4byte	.LASF146
 6367 06de 0B       		.byte	0xb
 6368 06df 6E       		.byte	0x6e
 6369 06e0 20070000 		.4byte	0x720
 6370 06e4 1C       		.byte	0x1c
 6371 06e5 0E       		.uleb128 0xe
 6372 06e6 84190000 		.4byte	.LASF147
 6373 06ea 0B       		.byte	0xb
 6374 06eb 6F       		.byte	0x6f
 6375 06ec 3C010000 		.4byte	0x13c
 6376 06f0 20       		.byte	0x20
 6377 06f1 00       		.byte	0
 6378 06f2 09       		.uleb128 0x9
 6379 06f3 C6000000 		.4byte	0xc6
 6380 06f7 09       		.uleb128 0x9
 6381 06f8 E7000000 		.4byte	0xe7
 6382 06fc 09       		.uleb128 0x9
 6383 06fd DC000000 		.4byte	0xdc
 6384 0701 0F       		.uleb128 0xf
 6385 0702 C6000000 		.4byte	0xc6
 6386 0706 1A070000 		.4byte	0x71a
 6387 070a 10       		.uleb128 0x10
 6388 070b 1A070000 		.4byte	0x71a
 6389 070f 10       		.uleb128 0x10
 6390 0710 C6000000 		.4byte	0xc6
 6391 0714 10       		.uleb128 0x10
 6392 0715 47040000 		.4byte	0x447
 6393 0719 00       		.byte	0
 6394 071a 08       		.uleb128 0x8
 6395 071b 04       		.byte	0x4
 6396 071c 56060000 		.4byte	0x656
ARM GAS  C:\Users\chemi\AppData\Local\Temp\ccFrP3K3.s 			page 150


 6397 0720 08       		.uleb128 0x8
 6398 0721 04       		.byte	0x4
 6399 0722 01070000 		.4byte	0x701
 6400 0726 03       		.uleb128 0x3
 6401 0727 B30D0000 		.4byte	.LASF148
 6402 072b 0C       		.byte	0xc
 6403 072c 4E       		.byte	0x4e
 6404 072d 31070000 		.4byte	0x731
 6405 0731 08       		.uleb128 0x8
 6406 0732 04       		.byte	0x4
 6407 0733 37070000 		.4byte	0x737
 6408 0737 0A       		.uleb128 0xa
 6409 0738 220E0000 		.4byte	.LASF149
 6410 073c 0D       		.uleb128 0xd
 6411 073d 3F130000 		.4byte	.LASF150
 6412 0741 7C       		.byte	0x7c
 6413 0742 0D       		.byte	0xd
 6414 0743 4B       		.byte	0x4b
 6415 0744 E9090000 		.4byte	0x9e9
 6416 0748 0E       		.uleb128 0xe
 6417 0749 4A150000 		.4byte	.LASF151
 6418 074d 0D       		.byte	0xd
 6419 074e 4C       		.byte	0x4c
 6420 074f C6000000 		.4byte	0xc6
 6421 0753 00       		.byte	0
 6422 0754 0E       		.uleb128 0xe
 6423 0755 840B0000 		.4byte	.LASF152
 6424 0759 0D       		.byte	0xd
 6425 075a 4D       		.byte	0x4d
 6426 075b DC000000 		.4byte	0xdc
 6427 075f 02       		.byte	0x2
 6428 0760 0E       		.uleb128 0xe
 6429 0761 1E1B0000 		.4byte	.LASF153
 6430 0765 0D       		.byte	0xd
 6431 0766 4E       		.byte	0x4e
 6432 0767 DC000000 		.4byte	0xdc
 6433 076b 04       		.byte	0x4
 6434 076c 0E       		.uleb128 0xe
 6435 076d 6D0E0000 		.4byte	.LASF154
 6436 0771 0D       		.byte	0xd
 6437 0772 4F       		.byte	0x4f
 6438 0773 DC000000 		.4byte	0xdc
 6439 0777 06       		.byte	0x6
 6440 0778 0E       		.uleb128 0xe
 6441 0779 C8080000 		.4byte	.LASF155
 6442 077d 0D       		.byte	0xd
 6443 077e 50       		.byte	0x50
 6444 077f DC000000 		.4byte	0xdc
 6445 0783 08       		.byte	0x8
 6446 0784 0E       		.uleb128 0xe
 6447 0785 FD1A0000 		.4byte	.LASF156
 6448 0789 0D       		.byte	0xd
 6449 078a 51       		.byte	0x51
 6450 078b DC000000 		.4byte	0xdc
 6451 078f 0A       		.byte	0xa
 6452 0790 0E       		.uleb128 0xe
 6453 0791 06070000 		.4byte	.LASF157
ARM GAS  C:\Users\chemi\AppData\Local\Temp\ccFrP3K3.s 			page 151


 6454 0795 0D       		.byte	0xd
 6455 0796 52       		.byte	0x52
 6456 0797 DC000000 		.4byte	0xdc
 6457 079b 0C       		.byte	0xc
 6458 079c 0E       		.uleb128 0xe
 6459 079d A4090000 		.4byte	.LASF158
 6460 07a1 0D       		.byte	0xd
 6461 07a2 53       		.byte	0x53
 6462 07a3 DC000000 		.4byte	0xdc
 6463 07a7 0E       		.byte	0xe
 6464 07a8 0E       		.uleb128 0xe
 6465 07a9 C4150000 		.4byte	.LASF159
 6466 07ad 0D       		.byte	0xd
 6467 07ae 54       		.byte	0x54
 6468 07af C6000000 		.4byte	0xc6
 6469 07b3 10       		.byte	0x10
 6470 07b4 0E       		.uleb128 0xe
 6471 07b5 44110000 		.4byte	.LASF160
 6472 07b9 0D       		.byte	0xd
 6473 07ba 55       		.byte	0x55
 6474 07bb C6000000 		.4byte	0xc6
 6475 07bf 11       		.byte	0x11
 6476 07c0 0E       		.uleb128 0xe
 6477 07c1 3C0C0000 		.4byte	.LASF161
 6478 07c5 0D       		.byte	0xd
 6479 07c6 56       		.byte	0x56
 6480 07c7 DC000000 		.4byte	0xdc
 6481 07cb 12       		.byte	0x12
 6482 07cc 0E       		.uleb128 0xe
 6483 07cd A00D0000 		.4byte	.LASF162
 6484 07d1 0D       		.byte	0xd
 6485 07d2 57       		.byte	0x57
 6486 07d3 DC000000 		.4byte	0xdc
 6487 07d7 14       		.byte	0x14
 6488 07d8 0E       		.uleb128 0xe
 6489 07d9 131B0000 		.4byte	.LASF163
 6490 07dd 0D       		.byte	0xd
 6491 07de 58       		.byte	0x58
 6492 07df DC000000 		.4byte	0xdc
 6493 07e3 16       		.byte	0x16
 6494 07e4 0E       		.uleb128 0xe
 6495 07e5 93120000 		.4byte	.LASF164
 6496 07e9 0D       		.byte	0xd
 6497 07ea 59       		.byte	0x59
 6498 07eb DC000000 		.4byte	0xdc
 6499 07ef 18       		.byte	0x18
 6500 07f0 0E       		.uleb128 0xe
 6501 07f1 EC150000 		.4byte	.LASF165
 6502 07f5 0D       		.byte	0xd
 6503 07f6 5A       		.byte	0x5a
 6504 07f7 DC000000 		.4byte	0xdc
 6505 07fb 1A       		.byte	0x1a
 6506 07fc 0E       		.uleb128 0xe
 6507 07fd 86170000 		.4byte	.LASF166
 6508 0801 0D       		.byte	0xd
 6509 0802 5B       		.byte	0x5b
 6510 0803 DC000000 		.4byte	0xdc
ARM GAS  C:\Users\chemi\AppData\Local\Temp\ccFrP3K3.s 			page 152


 6511 0807 1C       		.byte	0x1c
 6512 0808 0E       		.uleb128 0xe
 6513 0809 39160000 		.4byte	.LASF167
 6514 080d 0D       		.byte	0xd
 6515 080e 5C       		.byte	0x5c
 6516 080f C6000000 		.4byte	0xc6
 6517 0813 1E       		.byte	0x1e
 6518 0814 0E       		.uleb128 0xe
 6519 0815 370A0000 		.4byte	.LASF168
 6520 0819 0D       		.byte	0xd
 6521 081a 5D       		.byte	0x5d
 6522 081b DC000000 		.4byte	0xdc
 6523 081f 20       		.byte	0x20
 6524 0820 0E       		.uleb128 0xe
 6525 0821 BD0E0000 		.4byte	.LASF169
 6526 0825 0D       		.byte	0xd
 6527 0826 5E       		.byte	0x5e
 6528 0827 DC000000 		.4byte	0xdc
 6529 082b 22       		.byte	0x22
 6530 082c 0E       		.uleb128 0xe
 6531 082d 350D0000 		.4byte	.LASF170
 6532 0831 0D       		.byte	0xd
 6533 0832 5F       		.byte	0x5f
 6534 0833 DC000000 		.4byte	0xdc
 6535 0837 24       		.byte	0x24
 6536 0838 0E       		.uleb128 0xe
 6537 0839 BE070000 		.4byte	.LASF171
 6538 083d 0D       		.byte	0xd
 6539 083e 60       		.byte	0x60
 6540 083f DC000000 		.4byte	0xdc
 6541 0843 26       		.byte	0x26
 6542 0844 0E       		.uleb128 0xe
 6543 0845 E7010000 		.4byte	.LASF172
 6544 0849 0D       		.byte	0xd
 6545 084a 61       		.byte	0x61
 6546 084b DC000000 		.4byte	0xdc
 6547 084f 28       		.byte	0x28
 6548 0850 0E       		.uleb128 0xe
 6549 0851 780E0000 		.4byte	.LASF173
 6550 0855 0D       		.byte	0xd
 6551 0856 62       		.byte	0x62
 6552 0857 C6000000 		.4byte	0xc6
 6553 085b 2A       		.byte	0x2a
 6554 085c 0E       		.uleb128 0xe
 6555 085d EE120000 		.4byte	.LASF174
 6556 0861 0D       		.byte	0xd
 6557 0862 63       		.byte	0x63
 6558 0863 2C000000 		.4byte	0x2c
 6559 0867 2C       		.byte	0x2c
 6560 0868 0E       		.uleb128 0xe
 6561 0869 D0120000 		.4byte	.LASF175
 6562 086d 0D       		.byte	0xd
 6563 086e 64       		.byte	0x64
 6564 086f 2C000000 		.4byte	0x2c
 6565 0873 30       		.byte	0x30
 6566 0874 0E       		.uleb128 0xe
 6567 0875 6A000000 		.4byte	.LASF176
ARM GAS  C:\Users\chemi\AppData\Local\Temp\ccFrP3K3.s 			page 153


 6568 0879 0D       		.byte	0xd
 6569 087a 65       		.byte	0x65
 6570 087b C6000000 		.4byte	0xc6
 6571 087f 34       		.byte	0x34
 6572 0880 0E       		.uleb128 0xe
 6573 0881 12040000 		.4byte	.LASF177
 6574 0885 0D       		.byte	0xd
 6575 0886 66       		.byte	0x66
 6576 0887 C6000000 		.4byte	0xc6
 6577 088b 35       		.byte	0x35
 6578 088c 0E       		.uleb128 0xe
 6579 088d 80060000 		.4byte	.LASF178
 6580 0891 0D       		.byte	0xd
 6581 0892 67       		.byte	0x67
 6582 0893 C6000000 		.4byte	0xc6
 6583 0897 36       		.byte	0x36
 6584 0898 0E       		.uleb128 0xe
 6585 0899 54170000 		.4byte	.LASF179
 6586 089d 0D       		.byte	0xd
 6587 089e 68       		.byte	0x68
 6588 089f E9090000 		.4byte	0x9e9
 6589 08a3 37       		.byte	0x37
 6590 08a4 0E       		.uleb128 0xe
 6591 08a5 5B180000 		.4byte	.LASF180
 6592 08a9 0D       		.byte	0xd
 6593 08aa 69       		.byte	0x69
 6594 08ab F2000000 		.4byte	0xf2
 6595 08af 48       		.byte	0x48
 6596 08b0 0E       		.uleb128 0xe
 6597 08b1 71060000 		.4byte	.LASF181
 6598 08b5 0D       		.byte	0xd
 6599 08b6 6A       		.byte	0x6a
 6600 08b7 C6000000 		.4byte	0xc6
 6601 08bb 4C       		.byte	0x4c
 6602 08bc 0E       		.uleb128 0xe
 6603 08bd 8F140000 		.4byte	.LASF182
 6604 08c1 0D       		.byte	0xd
 6605 08c2 6B       		.byte	0x6b
 6606 08c3 DC000000 		.4byte	0xdc
 6607 08c7 4E       		.byte	0x4e
 6608 08c8 0E       		.uleb128 0xe
 6609 08c9 FD0E0000 		.4byte	.LASF183
 6610 08cd 0D       		.byte	0xd
 6611 08ce 6C       		.byte	0x6c
 6612 08cf DC000000 		.4byte	0xdc
 6613 08d3 50       		.byte	0x50
 6614 08d4 0E       		.uleb128 0xe
 6615 08d5 98060000 		.4byte	.LASF184
 6616 08d9 0D       		.byte	0xd
 6617 08da 6D       		.byte	0x6d
 6618 08db DC000000 		.4byte	0xdc
 6619 08df 52       		.byte	0x52
 6620 08e0 0E       		.uleb128 0xe
 6621 08e1 22090000 		.4byte	.LASF185
 6622 08e5 0D       		.byte	0xd
 6623 08e6 6E       		.byte	0x6e
 6624 08e7 F2000000 		.4byte	0xf2
ARM GAS  C:\Users\chemi\AppData\Local\Temp\ccFrP3K3.s 			page 154


 6625 08eb 54       		.byte	0x54
 6626 08ec 0E       		.uleb128 0xe
 6627 08ed 421A0000 		.4byte	.LASF186
 6628 08f1 0D       		.byte	0xd
 6629 08f2 6F       		.byte	0x6f
 6630 08f3 DC000000 		.4byte	0xdc
 6631 08f7 58       		.byte	0x58
 6632 08f8 0E       		.uleb128 0xe
 6633 08f9 37190000 		.4byte	.LASF187
 6634 08fd 0D       		.byte	0xd
 6635 08fe 70       		.byte	0x70
 6636 08ff C6000000 		.4byte	0xc6
 6637 0903 5A       		.byte	0x5a
 6638 0904 0E       		.uleb128 0xe
 6639 0905 C40B0000 		.4byte	.LASF188
 6640 0909 0D       		.byte	0xd
 6641 090a 71       		.byte	0x71
 6642 090b C6000000 		.4byte	0xc6
 6643 090f 5B       		.byte	0x5b
 6644 0910 0E       		.uleb128 0xe
 6645 0911 96070000 		.4byte	.LASF189
 6646 0915 0D       		.byte	0xd
 6647 0916 72       		.byte	0x72
 6648 0917 C6000000 		.4byte	0xc6
 6649 091b 5C       		.byte	0x5c
 6650 091c 0E       		.uleb128 0xe
 6651 091d 82030000 		.4byte	.LASF190
 6652 0921 0D       		.byte	0xd
 6653 0922 73       		.byte	0x73
 6654 0923 C6000000 		.4byte	0xc6
 6655 0927 5D       		.byte	0x5d
 6656 0928 0E       		.uleb128 0xe
 6657 0929 5A110000 		.4byte	.LASF191
 6658 092d 0D       		.byte	0xd
 6659 092e 74       		.byte	0x74
 6660 092f DC000000 		.4byte	0xdc
 6661 0933 5E       		.byte	0x5e
 6662 0934 0E       		.uleb128 0xe
 6663 0935 5E070000 		.4byte	.LASF192
 6664 0939 0D       		.byte	0xd
 6665 093a 75       		.byte	0x75
 6666 093b DC000000 		.4byte	0xdc
 6667 093f 60       		.byte	0x60
 6668 0940 0E       		.uleb128 0xe
 6669 0941 B8180000 		.4byte	.LASF193
 6670 0945 0D       		.byte	0xd
 6671 0946 76       		.byte	0x76
 6672 0947 DC000000 		.4byte	0xdc
 6673 094b 62       		.byte	0x62
 6674 094c 0E       		.uleb128 0xe
 6675 094d 680E0000 		.4byte	.LASF194
 6676 0951 0D       		.byte	0xd
 6677 0952 77       		.byte	0x77
 6678 0953 DC000000 		.4byte	0xdc
 6679 0957 64       		.byte	0x64
 6680 0958 0E       		.uleb128 0xe
 6681 0959 4C170000 		.4byte	.LASF195
ARM GAS  C:\Users\chemi\AppData\Local\Temp\ccFrP3K3.s 			page 155


 6682 095d 0D       		.byte	0xd
 6683 095e 78       		.byte	0x78
 6684 095f C6000000 		.4byte	0xc6
 6685 0963 66       		.byte	0x66
 6686 0964 0E       		.uleb128 0xe
 6687 0965 CD070000 		.4byte	.LASF196
 6688 0969 0D       		.byte	0xd
 6689 096a 79       		.byte	0x79
 6690 096b DC000000 		.4byte	0xdc
 6691 096f 68       		.byte	0x68
 6692 0970 0E       		.uleb128 0xe
 6693 0971 160E0000 		.4byte	.LASF197
 6694 0975 0D       		.byte	0xd
 6695 0976 7A       		.byte	0x7a
 6696 0977 2C000000 		.4byte	0x2c
 6697 097b 6C       		.byte	0x6c
 6698 097c 0E       		.uleb128 0xe
 6699 097d A6080000 		.4byte	.LASF198
 6700 0981 0D       		.byte	0xd
 6701 0982 7B       		.byte	0x7b
 6702 0983 C6000000 		.4byte	0xc6
 6703 0987 70       		.byte	0x70
 6704 0988 0E       		.uleb128 0xe
 6705 0989 251A0000 		.4byte	.LASF199
 6706 098d 0D       		.byte	0xd
 6707 098e 7C       		.byte	0x7c
 6708 098f C6000000 		.4byte	0xc6
 6709 0993 71       		.byte	0x71
 6710 0994 0E       		.uleb128 0xe
 6711 0995 4C180000 		.4byte	.LASF200
 6712 0999 0D       		.byte	0xd
 6713 099a 7D       		.byte	0x7d
 6714 099b C6000000 		.4byte	0xc6
 6715 099f 72       		.byte	0x72
 6716 09a0 0E       		.uleb128 0xe
 6717 09a1 9B030000 		.4byte	.LASF201
 6718 09a5 0D       		.byte	0xd
 6719 09a6 7F       		.byte	0x7f
 6720 09a7 C6000000 		.4byte	0xc6
 6721 09ab 73       		.byte	0x73
 6722 09ac 0E       		.uleb128 0xe
 6723 09ad 15070000 		.4byte	.LASF202
 6724 09b1 0D       		.byte	0xd
 6725 09b2 81       		.byte	0x81
 6726 09b3 C6000000 		.4byte	0xc6
 6727 09b7 74       		.byte	0x74
 6728 09b8 0E       		.uleb128 0xe
 6729 09b9 190F0000 		.4byte	.LASF203
 6730 09bd 0D       		.byte	0xd
 6731 09be 82       		.byte	0x82
 6732 09bf C6000000 		.4byte	0xc6
 6733 09c3 75       		.byte	0x75
 6734 09c4 0E       		.uleb128 0xe
 6735 09c5 0F180000 		.4byte	.LASF204
 6736 09c9 0D       		.byte	0xd
 6737 09ca 83       		.byte	0x83
 6738 09cb C6000000 		.4byte	0xc6
ARM GAS  C:\Users\chemi\AppData\Local\Temp\ccFrP3K3.s 			page 156


 6739 09cf 76       		.byte	0x76
 6740 09d0 0E       		.uleb128 0xe
 6741 09d1 6C010000 		.4byte	.LASF205
 6742 09d5 0D       		.byte	0xd
 6743 09d6 84       		.byte	0x84
 6744 09d7 C6000000 		.4byte	0xc6
 6745 09db 77       		.byte	0x77
 6746 09dc 0E       		.uleb128 0xe
 6747 09dd 27110000 		.4byte	.LASF206
 6748 09e1 0D       		.byte	0xd
 6749 09e2 86       		.byte	0x86
 6750 09e3 2C000000 		.4byte	0x2c
 6751 09e7 78       		.byte	0x78
 6752 09e8 00       		.byte	0
 6753 09e9 13       		.uleb128 0x13
 6754 09ea 15010000 		.4byte	0x115
 6755 09ee F9090000 		.4byte	0x9f9
 6756 09f2 14       		.uleb128 0x14
 6757 09f3 2D010000 		.4byte	0x12d
 6758 09f7 0F       		.byte	0xf
 6759 09f8 00       		.byte	0
 6760 09f9 03       		.uleb128 0x3
 6761 09fa 68050000 		.4byte	.LASF207
 6762 09fe 0D       		.byte	0xd
 6763 09ff 88       		.byte	0x88
 6764 0a00 3C070000 		.4byte	0x73c
 6765 0a04 0D       		.uleb128 0xd
 6766 0a05 190C0000 		.4byte	.LASF208
 6767 0a09 24       		.byte	0x24
 6768 0a0a 0D       		.byte	0xd
 6769 0a0b 8A       		.byte	0x8a
 6770 0a0c F40A0000 		.4byte	0xaf4
 6771 0a10 15       		.uleb128 0x15
 6772 0a11 707700   		.ascii	"pw\000"
 6773 0a14 0D       		.byte	0xd
 6774 0a15 8B       		.byte	0x8b
 6775 0a16 DC000000 		.4byte	0xdc
 6776 0a1a 00       		.byte	0
 6777 0a1b 15       		.uleb128 0x15
 6778 0a1c 70776400 		.ascii	"pwd\000"
 6779 0a20 0D       		.byte	0xd
 6780 0a21 8C       		.byte	0x8c
 6781 0a22 DC000000 		.4byte	0xdc
 6782 0a26 02       		.byte	0x2
 6783 0a27 15       		.uleb128 0x15
 6784 0a28 766F6C00 		.ascii	"vol\000"
 6785 0a2c 0D       		.byte	0xd
 6786 0a2d 8D       		.byte	0x8d
 6787 0a2e DC000000 		.4byte	0xdc
 6788 0a32 04       		.byte	0x4
 6789 0a33 0E       		.uleb128 0xe
 6790 0a34 73050000 		.4byte	.LASF209
 6791 0a38 0D       		.byte	0xd
 6792 0a39 8E       		.byte	0x8e
 6793 0a3a DC000000 		.4byte	0xdc
 6794 0a3e 06       		.byte	0x6
 6795 0a3f 0E       		.uleb128 0xe
ARM GAS  C:\Users\chemi\AppData\Local\Temp\ccFrP3K3.s 			page 157


 6796 0a40 96050000 		.4byte	.LASF210
 6797 0a44 0D       		.byte	0xd
 6798 0a45 8F       		.byte	0x8f
 6799 0a46 DC000000 		.4byte	0xdc
 6800 0a4a 08       		.byte	0x8
 6801 0a4b 0E       		.uleb128 0xe
 6802 0a4c 44140000 		.4byte	.LASF211
 6803 0a50 0D       		.byte	0xd
 6804 0a51 90       		.byte	0x90
 6805 0a52 DC000000 		.4byte	0xdc
 6806 0a56 0A       		.byte	0xa
 6807 0a57 0E       		.uleb128 0xe
 6808 0a58 68110000 		.4byte	.LASF212
 6809 0a5c 0D       		.byte	0xd
 6810 0a5d 91       		.byte	0x91
 6811 0a5e DC000000 		.4byte	0xdc
 6812 0a62 0C       		.byte	0xc
 6813 0a63 0E       		.uleb128 0xe
 6814 0a64 C0090000 		.4byte	.LASF213
 6815 0a68 0D       		.byte	0xd
 6816 0a69 92       		.byte	0x92
 6817 0a6a DC000000 		.4byte	0xdc
 6818 0a6e 0E       		.byte	0xe
 6819 0a6f 0E       		.uleb128 0xe
 6820 0a70 151A0000 		.4byte	.LASF214
 6821 0a74 0D       		.byte	0xd
 6822 0a75 93       		.byte	0x93
 6823 0a76 DC000000 		.4byte	0xdc
 6824 0a7a 10       		.byte	0x10
 6825 0a7b 0E       		.uleb128 0xe
 6826 0a7c C3050000 		.4byte	.LASF215
 6827 0a80 0D       		.byte	0xd
 6828 0a81 94       		.byte	0x94
 6829 0a82 C6000000 		.4byte	0xc6
 6830 0a86 12       		.byte	0x12
 6831 0a87 0E       		.uleb128 0xe
 6832 0a88 5B030000 		.4byte	.LASF216
 6833 0a8c 0D       		.byte	0xd
 6834 0a8d 95       		.byte	0x95
 6835 0a8e C6000000 		.4byte	0xc6
 6836 0a92 13       		.byte	0x13
 6837 0a93 0E       		.uleb128 0xe
 6838 0a94 850C0000 		.4byte	.LASF217
 6839 0a98 0D       		.byte	0xd
 6840 0a99 96       		.byte	0x96
 6841 0a9a C6000000 		.4byte	0xc6
 6842 0a9e 14       		.byte	0x14
 6843 0a9f 0E       		.uleb128 0xe
 6844 0aa0 530F0000 		.4byte	.LASF218
 6845 0aa4 0D       		.byte	0xd
 6846 0aa5 97       		.byte	0x97
 6847 0aa6 DC000000 		.4byte	0xdc
 6848 0aaa 16       		.byte	0x16
 6849 0aab 0E       		.uleb128 0xe
 6850 0aac CE010000 		.4byte	.LASF219
 6851 0ab0 0D       		.byte	0xd
 6852 0ab1 98       		.byte	0x98
ARM GAS  C:\Users\chemi\AppData\Local\Temp\ccFrP3K3.s 			page 158


 6853 0ab2 DC000000 		.4byte	0xdc
 6854 0ab6 18       		.byte	0x18
 6855 0ab7 0E       		.uleb128 0xe
 6856 0ab8 1E140000 		.4byte	.LASF220
 6857 0abc 0D       		.byte	0xd
 6858 0abd 99       		.byte	0x99
 6859 0abe C6000000 		.4byte	0xc6
 6860 0ac2 1A       		.byte	0x1a
 6861 0ac3 0E       		.uleb128 0xe
 6862 0ac4 62040000 		.4byte	.LASF221
 6863 0ac8 0D       		.byte	0xd
 6864 0ac9 9A       		.byte	0x9a
 6865 0aca DC000000 		.4byte	0xdc
 6866 0ace 1C       		.byte	0x1c
 6867 0acf 0E       		.uleb128 0xe
 6868 0ad0 D80E0000 		.4byte	.LASF222
 6869 0ad4 0D       		.byte	0xd
 6870 0ad5 9B       		.byte	0x9b
 6871 0ad6 DC000000 		.4byte	0xdc
 6872 0ada 1E       		.byte	0x1e
 6873 0adb 0E       		.uleb128 0xe
 6874 0adc B5060000 		.4byte	.LASF223
 6875 0ae0 0D       		.byte	0xd
 6876 0ae1 9C       		.byte	0x9c
 6877 0ae2 C6000000 		.4byte	0xc6
 6878 0ae6 20       		.byte	0x20
 6879 0ae7 0E       		.uleb128 0xe
 6880 0ae8 AB0B0000 		.4byte	.LASF224
 6881 0aec 0D       		.byte	0xd
 6882 0aed 9D       		.byte	0x9d
 6883 0aee DC000000 		.4byte	0xdc
 6884 0af2 22       		.byte	0x22
 6885 0af3 00       		.byte	0
 6886 0af4 03       		.uleb128 0x3
 6887 0af5 EF020000 		.4byte	.LASF225
 6888 0af9 0D       		.byte	0xd
 6889 0afa 9F       		.byte	0x9f
 6890 0afb 040A0000 		.4byte	0xa04
 6891 0aff 12       		.uleb128 0x12
 6892 0b00 1A       		.byte	0x1a
 6893 0b01 0E       		.byte	0xe
 6894 0b02 21       		.byte	0x21
 6895 0b03 B00B0000 		.4byte	0xbb0
 6896 0b07 0E       		.uleb128 0xe
 6897 0b08 F20F0000 		.4byte	.LASF226
 6898 0b0c 0E       		.byte	0xe
 6899 0b0d 23       		.byte	0x23
 6900 0b0e FD000000 		.4byte	0xfd
 6901 0b12 00       		.byte	0
 6902 0b13 0E       		.uleb128 0xe
 6903 0b14 AB140000 		.4byte	.LASF227
 6904 0b18 0E       		.byte	0xe
 6905 0b19 24       		.byte	0x24
 6906 0b1a 09010000 		.4byte	0x109
 6907 0b1e 02       		.byte	0x2
 6908 0b1f 0E       		.uleb128 0xe
 6909 0b20 68190000 		.4byte	.LASF228
ARM GAS  C:\Users\chemi\AppData\Local\Temp\ccFrP3K3.s 			page 159


 6910 0b24 0E       		.byte	0xe
 6911 0b25 25       		.byte	0x25
 6912 0b26 09010000 		.4byte	0x109
 6913 0b2a 04       		.byte	0x4
 6914 0b2b 0E       		.uleb128 0xe
 6915 0b2c 89190000 		.4byte	.LASF229
 6916 0b30 0E       		.byte	0xe
 6917 0b31 26       		.byte	0x26
 6918 0b32 09010000 		.4byte	0x109
 6919 0b36 06       		.byte	0x6
 6920 0b37 0E       		.uleb128 0xe
 6921 0b38 1B190000 		.4byte	.LASF230
 6922 0b3c 0E       		.byte	0xe
 6923 0b3d 27       		.byte	0x27
 6924 0b3e 09010000 		.4byte	0x109
 6925 0b42 08       		.byte	0x8
 6926 0b43 0E       		.uleb128 0xe
 6927 0b44 AE010000 		.4byte	.LASF231
 6928 0b48 0E       		.byte	0xe
 6929 0b49 28       		.byte	0x28
 6930 0b4a 09010000 		.4byte	0x109
 6931 0b4e 0A       		.byte	0xa
 6932 0b4f 0E       		.uleb128 0xe
 6933 0b50 B6120000 		.4byte	.LASF232
 6934 0b54 0E       		.byte	0xe
 6935 0b55 29       		.byte	0x29
 6936 0b56 09010000 		.4byte	0x109
 6937 0b5a 0C       		.byte	0xc
 6938 0b5b 0E       		.uleb128 0xe
 6939 0b5c 2A190000 		.4byte	.LASF233
 6940 0b60 0E       		.byte	0xe
 6941 0b61 2A       		.byte	0x2a
 6942 0b62 09010000 		.4byte	0x109
 6943 0b66 0E       		.byte	0xe
 6944 0b67 0E       		.uleb128 0xe
 6945 0b68 360F0000 		.4byte	.LASF234
 6946 0b6c 0E       		.byte	0xe
 6947 0b6d 2B       		.byte	0x2b
 6948 0b6e 09010000 		.4byte	0x109
 6949 0b72 10       		.byte	0x10
 6950 0b73 0E       		.uleb128 0xe
 6951 0b74 B3070000 		.4byte	.LASF235
 6952 0b78 0E       		.byte	0xe
 6953 0b79 2C       		.byte	0x2c
 6954 0b7a 09010000 		.4byte	0x109
 6955 0b7e 12       		.byte	0x12
 6956 0b7f 0E       		.uleb128 0xe
 6957 0b80 A3060000 		.4byte	.LASF236
 6958 0b84 0E       		.byte	0xe
 6959 0b85 2D       		.byte	0x2d
 6960 0b86 FD000000 		.4byte	0xfd
 6961 0b8a 14       		.byte	0x14
 6962 0b8b 0E       		.uleb128 0xe
 6963 0b8c B0050000 		.4byte	.LASF237
 6964 0b90 0E       		.byte	0xe
 6965 0b91 2E       		.byte	0x2e
 6966 0b92 FD000000 		.4byte	0xfd
ARM GAS  C:\Users\chemi\AppData\Local\Temp\ccFrP3K3.s 			page 160


 6967 0b96 15       		.byte	0x15
 6968 0b97 0E       		.uleb128 0xe
 6969 0b98 E0180000 		.4byte	.LASF238
 6970 0b9c 0E       		.byte	0xe
 6971 0b9d 2F       		.byte	0x2f
 6972 0b9e DC000000 		.4byte	0xdc
 6973 0ba2 16       		.byte	0x16
 6974 0ba3 0E       		.uleb128 0xe
 6975 0ba4 F8140000 		.4byte	.LASF239
 6976 0ba8 0E       		.byte	0xe
 6977 0ba9 30       		.byte	0x30
 6978 0baa DC000000 		.4byte	0xdc
 6979 0bae 18       		.byte	0x18
 6980 0baf 00       		.byte	0
 6981 0bb0 03       		.uleb128 0x3
 6982 0bb1 C3010000 		.4byte	.LASF240
 6983 0bb5 0E       		.byte	0xe
 6984 0bb6 31       		.byte	0x31
 6985 0bb7 FF0A0000 		.4byte	0xaff
 6986 0bbb 0B       		.uleb128 0xb
 6987 0bbc 5D100000 		.4byte	.LASF241
 6988 0bc0 01       		.byte	0x1
 6989 0bc1 57000000 		.4byte	0x57
 6990 0bc5 0F       		.byte	0xf
 6991 0bc6 38       		.byte	0x38
 6992 0bc7 D80B0000 		.4byte	0xbd8
 6993 0bcb 0C       		.uleb128 0xc
 6994 0bcc AC150000 		.4byte	.LASF242
 6995 0bd0 00       		.byte	0
 6996 0bd1 0C       		.uleb128 0xc
 6997 0bd2 8B060000 		.4byte	.LASF243
 6998 0bd6 01       		.byte	0x1
 6999 0bd7 00       		.byte	0
 7000 0bd8 0B       		.uleb128 0xb
 7001 0bd9 FC030000 		.4byte	.LASF244
 7002 0bdd 01       		.byte	0x1
 7003 0bde 57000000 		.4byte	0x57
 7004 0be2 0F       		.byte	0xf
 7005 0be3 3D       		.byte	0x3d
 7006 0be4 FB0B0000 		.4byte	0xbfb
 7007 0be8 0C       		.uleb128 0xc
 7008 0be9 FA040000 		.4byte	.LASF245
 7009 0bed 00       		.byte	0
 7010 0bee 0C       		.uleb128 0xc
 7011 0bef 80110000 		.4byte	.LASF246
 7012 0bf3 01       		.byte	0x1
 7013 0bf4 0C       		.uleb128 0xc
 7014 0bf5 2A0C0000 		.4byte	.LASF247
 7015 0bf9 02       		.byte	0x2
 7016 0bfa 00       		.byte	0
 7017 0bfb 0B       		.uleb128 0xb
 7018 0bfc 3E030000 		.4byte	.LASF248
 7019 0c00 01       		.byte	0x1
 7020 0c01 57000000 		.4byte	0x57
 7021 0c05 0F       		.byte	0xf
 7022 0c06 43       		.byte	0x43
 7023 0c07 180C0000 		.4byte	0xc18
ARM GAS  C:\Users\chemi\AppData\Local\Temp\ccFrP3K3.s 			page 161


 7024 0c0b 0C       		.uleb128 0xc
 7025 0c0c 25010000 		.4byte	.LASF249
 7026 0c10 00       		.byte	0
 7027 0c11 0C       		.uleb128 0xc
 7028 0c12 5B010000 		.4byte	.LASF250
 7029 0c16 01       		.byte	0x1
 7030 0c17 00       		.byte	0
 7031 0c18 0B       		.uleb128 0xb
 7032 0c19 200A0000 		.4byte	.LASF251
 7033 0c1d 01       		.byte	0x1
 7034 0c1e 57000000 		.4byte	0x57
 7035 0c22 0F       		.byte	0xf
 7036 0c23 49       		.byte	0x49
 7037 0c24 350C0000 		.4byte	0xc35
 7038 0c28 0C       		.uleb128 0xc
 7039 0c29 6A0A0000 		.4byte	.LASF252
 7040 0c2d 00       		.byte	0
 7041 0c2e 0C       		.uleb128 0xc
 7042 0c2f D2030000 		.4byte	.LASF253
 7043 0c33 01       		.byte	0x1
 7044 0c34 00       		.byte	0
 7045 0c35 12       		.uleb128 0x12
 7046 0c36 0C       		.byte	0xc
 7047 0c37 0F       		.byte	0xf
 7048 0c38 4E       		.byte	0x4e
 7049 0c39 910C0000 		.4byte	0xc91
 7050 0c3d 15       		.uleb128 0x15
 7051 0c3e 707700   		.ascii	"pw\000"
 7052 0c41 0F       		.byte	0xf
 7053 0c42 50       		.byte	0x50
 7054 0c43 DC000000 		.4byte	0xdc
 7055 0c47 00       		.byte	0
 7056 0c48 15       		.uleb128 0x15
 7057 0c49 70726400 		.ascii	"prd\000"
 7058 0c4d 0F       		.byte	0xf
 7059 0c4e 51       		.byte	0x51
 7060 0c4f DC000000 		.4byte	0xdc
 7061 0c53 02       		.byte	0x2
 7062 0c54 0E       		.uleb128 0xe
 7063 0c55 91170000 		.4byte	.LASF254
 7064 0c59 0F       		.byte	0xf
 7065 0c5a 52       		.byte	0x52
 7066 0c5b D80B0000 		.4byte	0xbd8
 7067 0c5f 04       		.byte	0x4
 7068 0c60 0E       		.uleb128 0xe
 7069 0c61 A3110000 		.4byte	.LASF255
 7070 0c65 0F       		.byte	0xf
 7071 0c66 53       		.byte	0x53
 7072 0c67 FB0B0000 		.4byte	0xbfb
 7073 0c6b 05       		.byte	0x5
 7074 0c6c 15       		.uleb128 0x15
 7075 0c6d 6D6F6400 		.ascii	"mod\000"
 7076 0c71 0F       		.byte	0xf
 7077 0c72 54       		.byte	0x54
 7078 0c73 180C0000 		.4byte	0xc18
 7079 0c77 06       		.byte	0x6
 7080 0c78 0E       		.uleb128 0xe
ARM GAS  C:\Users\chemi\AppData\Local\Temp\ccFrP3K3.s 			page 162


 7081 0c79 C90A0000 		.4byte	.LASF256
 7082 0c7d 0F       		.byte	0xf
 7083 0c7e 55       		.byte	0x55
 7084 0c7f BB0B0000 		.4byte	0xbbb
 7085 0c83 07       		.byte	0x7
 7086 0c84 0E       		.uleb128 0xe
 7087 0c85 581A0000 		.4byte	.LASF257
 7088 0c89 0F       		.byte	0xf
 7089 0c8a 56       		.byte	0x56
 7090 0c8b 26070000 		.4byte	0x726
 7091 0c8f 08       		.byte	0x8
 7092 0c90 00       		.byte	0
 7093 0c91 03       		.uleb128 0x3
 7094 0c92 4A100000 		.4byte	.LASF258
 7095 0c96 0F       		.byte	0xf
 7096 0c97 57       		.byte	0x57
 7097 0c98 350C0000 		.4byte	0xc35
 7098 0c9c 0D       		.uleb128 0xd
 7099 0c9d D7190000 		.4byte	.LASF259
 7100 0ca1 04       		.byte	0x4
 7101 0ca2 10       		.byte	0x10
 7102 0ca3 67       		.byte	0x67
 7103 0ca4 B50C0000 		.4byte	0xcb5
 7104 0ca8 15       		.uleb128 0x15
 7105 0ca9 63726300 		.ascii	"crc\000"
 7106 0cad 10       		.byte	0x10
 7107 0cae 68       		.byte	0x68
 7108 0caf F2000000 		.4byte	0xf2
 7109 0cb3 00       		.byte	0
 7110 0cb4 00       		.byte	0
 7111 0cb5 0D       		.uleb128 0xd
 7112 0cb6 9B140000 		.4byte	.LASF260
 7113 0cba 0C       		.byte	0xc
 7114 0cbb 10       		.byte	0x10
 7115 0cbc 6D       		.byte	0x6d
 7116 0cbd FE0C0000 		.4byte	0xcfe
 7117 0cc1 0E       		.uleb128 0xe
 7118 0cc2 B10C0000 		.4byte	.LASF261
 7119 0cc6 10       		.byte	0x10
 7120 0cc7 6E       		.byte	0x6e
 7121 0cc8 F2000000 		.4byte	0xf2
 7122 0ccc 00       		.byte	0
 7123 0ccd 0E       		.uleb128 0xe
 7124 0cce B9160000 		.4byte	.LASF262
 7125 0cd2 10       		.byte	0x10
 7126 0cd3 6F       		.byte	0x6f
 7127 0cd4 DC000000 		.4byte	0xdc
 7128 0cd8 04       		.byte	0x4
 7129 0cd9 0E       		.uleb128 0xe
 7130 0cda 800D0000 		.4byte	.LASF263
 7131 0cde 10       		.byte	0x10
 7132 0cdf 70       		.byte	0x70
 7133 0ce0 C6000000 		.4byte	0xc6
 7134 0ce4 06       		.byte	0x6
 7135 0ce5 0E       		.uleb128 0xe
 7136 0ce6 6E150000 		.4byte	.LASF264
 7137 0cea 10       		.byte	0x10
ARM GAS  C:\Users\chemi\AppData\Local\Temp\ccFrP3K3.s 			page 163


 7138 0ceb 71       		.byte	0x71
 7139 0cec C6000000 		.4byte	0xc6
 7140 0cf0 07       		.byte	0x7
 7141 0cf1 15       		.uleb128 0x15
 7142 0cf2 73657100 		.ascii	"seq\000"
 7143 0cf6 10       		.byte	0x10
 7144 0cf7 72       		.byte	0x72
 7145 0cf8 F2000000 		.4byte	0xf2
 7146 0cfc 08       		.byte	0x8
 7147 0cfd 00       		.byte	0
 7148 0cfe 0D       		.uleb128 0xd
 7149 0cff ED170000 		.4byte	.LASF265
 7150 0d03 F8       		.byte	0xf8
 7151 0d04 10       		.byte	0x10
 7152 0d05 75       		.byte	0x75
 7153 0d06 EE0D0000 		.4byte	0xdee
 7154 0d0a 0E       		.uleb128 0xe
 7155 0d0b A80E0000 		.4byte	.LASF266
 7156 0d0f 10       		.byte	0x10
 7157 0d10 76       		.byte	0x76
 7158 0d11 EE0D0000 		.4byte	0xdee
 7159 0d15 00       		.byte	0
 7160 0d16 0E       		.uleb128 0xe
 7161 0d17 D6150000 		.4byte	.LASF267
 7162 0d1b 10       		.byte	0x10
 7163 0d1c 77       		.byte	0x77
 7164 0d1d F2000000 		.4byte	0xf2
 7165 0d21 C0       		.byte	0xc0
 7166 0d22 0E       		.uleb128 0xe
 7167 0d23 25130000 		.4byte	.LASF268
 7168 0d27 10       		.byte	0x10
 7169 0d28 78       		.byte	0x78
 7170 0d29 F2000000 		.4byte	0xf2
 7171 0d2d C4       		.byte	0xc4
 7172 0d2e 0E       		.uleb128 0xe
 7173 0d2f E90D0000 		.4byte	.LASF269
 7174 0d33 10       		.byte	0x10
 7175 0d34 79       		.byte	0x79
 7176 0d35 F2000000 		.4byte	0xf2
 7177 0d39 C8       		.byte	0xc8
 7178 0d3a 0E       		.uleb128 0xe
 7179 0d3b 5F150000 		.4byte	.LASF270
 7180 0d3f 10       		.byte	0x10
 7181 0d40 7A       		.byte	0x7a
 7182 0d41 F2000000 		.4byte	0xf2
 7183 0d45 CC       		.byte	0xcc
 7184 0d46 0E       		.uleb128 0xe
 7185 0d47 8F180000 		.4byte	.LASF271
 7186 0d4b 10       		.byte	0x10
 7187 0d4c 7B       		.byte	0x7b
 7188 0d4d F2000000 		.4byte	0xf2
 7189 0d51 D0       		.byte	0xd0
 7190 0d52 0E       		.uleb128 0xe
 7191 0d53 61160000 		.4byte	.LASF272
 7192 0d57 10       		.byte	0x10
 7193 0d58 7C       		.byte	0x7c
 7194 0d59 F2000000 		.4byte	0xf2
ARM GAS  C:\Users\chemi\AppData\Local\Temp\ccFrP3K3.s 			page 164


 7195 0d5d D4       		.byte	0xd4
 7196 0d5e 0E       		.uleb128 0xe
 7197 0d5f B90A0000 		.4byte	.LASF273
 7198 0d63 10       		.byte	0x10
 7199 0d64 7D       		.byte	0x7d
 7200 0d65 F2000000 		.4byte	0xf2
 7201 0d69 D8       		.byte	0xd8
 7202 0d6a 0E       		.uleb128 0xe
 7203 0d6b A30A0000 		.4byte	.LASF274
 7204 0d6f 10       		.byte	0x10
 7205 0d70 7E       		.byte	0x7e
 7206 0d71 F2000000 		.4byte	0xf2
 7207 0d75 DC       		.byte	0xdc
 7208 0d76 0E       		.uleb128 0xe
 7209 0d77 C30C0000 		.4byte	.LASF275
 7210 0d7b 10       		.byte	0x10
 7211 0d7c 7F       		.byte	0x7f
 7212 0d7d DC000000 		.4byte	0xdc
 7213 0d81 E0       		.byte	0xe0
 7214 0d82 0E       		.uleb128 0xe
 7215 0d83 75120000 		.4byte	.LASF276
 7216 0d87 10       		.byte	0x10
 7217 0d88 80       		.byte	0x80
 7218 0d89 DC000000 		.4byte	0xdc
 7219 0d8d E2       		.byte	0xe2
 7220 0d8e 0E       		.uleb128 0xe
 7221 0d8f 7E050000 		.4byte	.LASF277
 7222 0d93 10       		.byte	0x10
 7223 0d94 81       		.byte	0x81
 7224 0d95 DC000000 		.4byte	0xdc
 7225 0d99 E4       		.byte	0xe4
 7226 0d9a 0E       		.uleb128 0xe
 7227 0d9b 5F0B0000 		.4byte	.LASF278
 7228 0d9f 10       		.byte	0x10
 7229 0da0 82       		.byte	0x82
 7230 0da1 C6000000 		.4byte	0xc6
 7231 0da5 E6       		.byte	0xe6
 7232 0da6 0E       		.uleb128 0xe
 7233 0da7 B50F0000 		.4byte	.LASF279
 7234 0dab 10       		.byte	0x10
 7235 0dac 83       		.byte	0x83
 7236 0dad C6000000 		.4byte	0xc6
 7237 0db1 E7       		.byte	0xe7
 7238 0db2 0E       		.uleb128 0xe
 7239 0db3 8C0D0000 		.4byte	.LASF280
 7240 0db7 10       		.byte	0x10
 7241 0db8 84       		.byte	0x84
 7242 0db9 C6000000 		.4byte	0xc6
 7243 0dbd E8       		.byte	0xe8
 7244 0dbe 0E       		.uleb128 0xe
 7245 0dbf C20F0000 		.4byte	.LASF281
 7246 0dc3 10       		.byte	0x10
 7247 0dc4 85       		.byte	0x85
 7248 0dc5 C6000000 		.4byte	0xc6
 7249 0dc9 E9       		.byte	0xe9
 7250 0dca 0E       		.uleb128 0xe
 7251 0dcb A10F0000 		.4byte	.LASF282
ARM GAS  C:\Users\chemi\AppData\Local\Temp\ccFrP3K3.s 			page 165


 7252 0dcf 10       		.byte	0x10
 7253 0dd0 86       		.byte	0x86
 7254 0dd1 F2000000 		.4byte	0xf2
 7255 0dd5 EC       		.byte	0xec
 7256 0dd6 0E       		.uleb128 0xe
 7257 0dd7 AD080000 		.4byte	.LASF283
 7258 0ddb 10       		.byte	0x10
 7259 0ddc 87       		.byte	0x87
 7260 0ddd F2000000 		.4byte	0xf2
 7261 0de1 F0       		.byte	0xf0
 7262 0de2 15       		.uleb128 0x15
 7263 0de3 726E00   		.ascii	"rn\000"
 7264 0de6 10       		.byte	0x10
 7265 0de7 88       		.byte	0x88
 7266 0de8 F2000000 		.4byte	0xf2
 7267 0dec F4       		.byte	0xf4
 7268 0ded 00       		.byte	0
 7269 0dee 13       		.uleb128 0x13
 7270 0def B50C0000 		.4byte	0xcb5
 7271 0df3 FE0D0000 		.4byte	0xdfe
 7272 0df7 14       		.uleb128 0x14
 7273 0df8 2D010000 		.4byte	0x12d
 7274 0dfc 0F       		.byte	0xf
 7275 0dfd 00       		.byte	0
 7276 0dfe 16       		.uleb128 0x16
 7277 0dff 08160000 		.4byte	.LASF284
 7278 0e03 1802     		.2byte	0x218
 7279 0e05 10       		.byte	0x10
 7280 0e06 8C       		.byte	0x8c
 7281 0e07 DA0E0000 		.4byte	0xeda
 7282 0e0b 0E       		.uleb128 0xe
 7283 0e0c ED170000 		.4byte	.LASF265
 7284 0e10 10       		.byte	0x10
 7285 0e11 8E       		.byte	0x8e
 7286 0e12 FE0C0000 		.4byte	0xcfe
 7287 0e16 00       		.byte	0
 7288 0e17 0E       		.uleb128 0xe
 7289 0e18 CA130000 		.4byte	.LASF285
 7290 0e1c 10       		.byte	0x10
 7291 0e1d 90       		.byte	0x90
 7292 0e1e DA0E0000 		.4byte	0xeda
 7293 0e22 F8       		.byte	0xf8
 7294 0e23 17       		.uleb128 0x17
 7295 0e24 8D0C0000 		.4byte	.LASF286
 7296 0e28 10       		.byte	0x10
 7297 0e29 91       		.byte	0x91
 7298 0e2a F2000000 		.4byte	0xf2
 7299 0e2e F801     		.2byte	0x1f8
 7300 0e30 17       		.uleb128 0x17
 7301 0e31 0D0C0000 		.4byte	.LASF287
 7302 0e35 10       		.byte	0x10
 7303 0e36 92       		.byte	0x92
 7304 0e37 9C0C0000 		.4byte	0xc9c
 7305 0e3b FC01     		.2byte	0x1fc
 7306 0e3d 17       		.uleb128 0x17
 7307 0e3e 06120000 		.4byte	.LASF288
 7308 0e42 10       		.byte	0x10
ARM GAS  C:\Users\chemi\AppData\Local\Temp\ccFrP3K3.s 			page 166


 7309 0e43 93       		.byte	0x93
 7310 0e44 9C0C0000 		.4byte	0xc9c
 7311 0e48 0002     		.2byte	0x200
 7312 0e4a 17       		.uleb128 0x17
 7313 0e4b E2060000 		.4byte	.LASF289
 7314 0e4f 10       		.byte	0x10
 7315 0e50 94       		.byte	0x94
 7316 0e51 C6000000 		.4byte	0xc6
 7317 0e55 0402     		.2byte	0x204
 7318 0e57 17       		.uleb128 0x17
 7319 0e58 4D130000 		.4byte	.LASF290
 7320 0e5c 10       		.byte	0x10
 7321 0e5d 95       		.byte	0x95
 7322 0e5e C6000000 		.4byte	0xc6
 7323 0e62 0502     		.2byte	0x205
 7324 0e64 17       		.uleb128 0x17
 7325 0e65 55140000 		.4byte	.LASF291
 7326 0e69 10       		.byte	0x10
 7327 0e6a 96       		.byte	0x96
 7328 0e6b C6000000 		.4byte	0xc6
 7329 0e6f 0602     		.2byte	0x206
 7330 0e71 17       		.uleb128 0x17
 7331 0e72 F50C0000 		.4byte	.LASF292
 7332 0e76 10       		.byte	0x10
 7333 0e77 97       		.byte	0x97
 7334 0e78 C6000000 		.4byte	0xc6
 7335 0e7c 0702     		.2byte	0x207
 7336 0e7e 17       		.uleb128 0x17
 7337 0e7f 08110000 		.4byte	.LASF293
 7338 0e83 10       		.byte	0x10
 7339 0e84 98       		.byte	0x98
 7340 0e85 F2000000 		.4byte	0xf2
 7341 0e89 0802     		.2byte	0x208
 7342 0e8b 17       		.uleb128 0x17
 7343 0e8c 090F0000 		.4byte	.LASF294
 7344 0e90 10       		.byte	0x10
 7345 0e91 99       		.byte	0x99
 7346 0e92 C6000000 		.4byte	0xc6
 7347 0e96 0C02     		.2byte	0x20c
 7348 0e98 17       		.uleb128 0x17
 7349 0e99 38180000 		.4byte	.LASF295
 7350 0e9d 10       		.byte	0x10
 7351 0e9e 9A       		.byte	0x9a
 7352 0e9f C6000000 		.4byte	0xc6
 7353 0ea3 0D02     		.2byte	0x20d
 7354 0ea5 17       		.uleb128 0x17
 7355 0ea6 76070000 		.4byte	.LASF296
 7356 0eaa 10       		.byte	0x10
 7357 0eab 9B       		.byte	0x9b
 7358 0eac C6000000 		.4byte	0xc6
 7359 0eb0 0E02     		.2byte	0x20e
 7360 0eb2 17       		.uleb128 0x17
 7361 0eb3 01120000 		.4byte	.LASF77
 7362 0eb7 10       		.byte	0x10
 7363 0eb8 9C       		.byte	0x9c
 7364 0eb9 C6000000 		.4byte	0xc6
 7365 0ebd 0F02     		.2byte	0x20f
ARM GAS  C:\Users\chemi\AppData\Local\Temp\ccFrP3K3.s 			page 167


 7366 0ebf 17       		.uleb128 0x17
 7367 0ec0 AA0D0000 		.4byte	.LASF297
 7368 0ec4 10       		.byte	0x10
 7369 0ec5 9D       		.byte	0x9d
 7370 0ec6 F2000000 		.4byte	0xf2
 7371 0eca 1002     		.2byte	0x210
 7372 0ecc 17       		.uleb128 0x17
 7373 0ecd 1F080000 		.4byte	.LASF298
 7374 0ed1 10       		.byte	0x10
 7375 0ed2 9E       		.byte	0x9e
 7376 0ed3 F2000000 		.4byte	0xf2
 7377 0ed7 1402     		.2byte	0x214
 7378 0ed9 00       		.byte	0
 7379 0eda 13       		.uleb128 0x13
 7380 0edb C6000000 		.4byte	0xc6
 7381 0edf EA0E0000 		.4byte	0xeea
 7382 0ee3 14       		.uleb128 0x14
 7383 0ee4 2D010000 		.4byte	0x12d
 7384 0ee8 FE       		.byte	0xfe
 7385 0ee9 00       		.byte	0
 7386 0eea 0D       		.uleb128 0xd
 7387 0eeb 9E120000 		.4byte	.LASF299
 7388 0eef 12       		.byte	0x12
 7389 0ef0 11       		.byte	0x11
 7390 0ef1 2C       		.byte	0x2c
 7391 0ef2 1B0F0000 		.4byte	0xf1b
 7392 0ef6 0E       		.uleb128 0xe
 7393 0ef7 88180000 		.4byte	.LASF300
 7394 0efb 11       		.byte	0x11
 7395 0efc 2D       		.byte	0x2d
 7396 0efd C6000000 		.4byte	0xc6
 7397 0f01 00       		.byte	0
 7398 0f02 0E       		.uleb128 0xe
 7399 0f03 1C040000 		.4byte	.LASF301
 7400 0f07 11       		.byte	0x11
 7401 0f08 2E       		.byte	0x2e
 7402 0f09 C6000000 		.4byte	0xc6
 7403 0f0d 01       		.byte	0x1
 7404 0f0e 0E       		.uleb128 0xe
 7405 0f0f DF130000 		.4byte	.LASF302
 7406 0f13 11       		.byte	0x11
 7407 0f14 2F       		.byte	0x2f
 7408 0f15 E9090000 		.4byte	0x9e9
 7409 0f19 02       		.byte	0x2
 7410 0f1a 00       		.byte	0
 7411 0f1b 0D       		.uleb128 0xd
 7412 0f1c 3B070000 		.4byte	.LASF303
 7413 0f20 10       		.byte	0x10
 7414 0f21 11       		.byte	0x11
 7415 0f22 32       		.byte	0x32
 7416 0f23 580F0000 		.4byte	0xf58
 7417 0f27 0E       		.uleb128 0xe
 7418 0f28 B3040000 		.4byte	.LASF304
 7419 0f2c 11       		.byte	0x11
 7420 0f2d 33       		.byte	0x33
 7421 0f2e F2000000 		.4byte	0xf2
 7422 0f32 00       		.byte	0
ARM GAS  C:\Users\chemi\AppData\Local\Temp\ccFrP3K3.s 			page 168


 7423 0f33 0E       		.uleb128 0xe
 7424 0f34 3A040000 		.4byte	.LASF305
 7425 0f38 11       		.byte	0x11
 7426 0f39 34       		.byte	0x34
 7427 0f3a E7000000 		.4byte	0xe7
 7428 0f3e 04       		.byte	0x4
 7429 0f3f 0E       		.uleb128 0xe
 7430 0f40 49190000 		.4byte	.LASF306
 7431 0f44 11       		.byte	0x11
 7432 0f45 35       		.byte	0x35
 7433 0f46 E7000000 		.4byte	0xe7
 7434 0f4a 08       		.byte	0x8
 7435 0f4b 0E       		.uleb128 0xe
 7436 0f4c 0C1B0000 		.4byte	.LASF307
 7437 0f50 11       		.byte	0x11
 7438 0f51 36       		.byte	0x36
 7439 0f52 F2000000 		.4byte	0xf2
 7440 0f56 0C       		.byte	0xc
 7441 0f57 00       		.byte	0
 7442 0f58 0D       		.uleb128 0xd
 7443 0f59 28180000 		.4byte	.LASF308
 7444 0f5d 20       		.byte	0x20
 7445 0f5e 12       		.byte	0x12
 7446 0f5f 31       		.byte	0x31
 7447 0f60 E90F0000 		.4byte	0xfe9
 7448 0f64 0E       		.uleb128 0xe
 7449 0f65 19080000 		.4byte	.LASF144
 7450 0f69 12       		.byte	0x12
 7451 0f6a 32       		.byte	0x32
 7452 0f6b E7000000 		.4byte	0xe7
 7453 0f6f 00       		.byte	0
 7454 0f70 0E       		.uleb128 0xe
 7455 0f71 DE040000 		.4byte	.LASF309
 7456 0f75 12       		.byte	0x12
 7457 0f76 33       		.byte	0x33
 7458 0f77 C6000000 		.4byte	0xc6
 7459 0f7b 04       		.byte	0x4
 7460 0f7c 0E       		.uleb128 0xe
 7461 0f7d 2E160000 		.4byte	.LASF143
 7462 0f81 12       		.byte	0x12
 7463 0f82 34       		.byte	0x34
 7464 0f83 36010000 		.4byte	0x136
 7465 0f87 08       		.byte	0x8
 7466 0f88 15       		.uleb128 0x15
 7467 0f89 6D696E00 		.ascii	"min\000"
 7468 0f8d 12       		.byte	0x12
 7469 0f8e 35       		.byte	0x35
 7470 0f8f F2000000 		.4byte	0xf2
 7471 0f93 0C       		.byte	0xc
 7472 0f94 15       		.uleb128 0x15
 7473 0f95 6D617800 		.ascii	"max\000"
 7474 0f99 12       		.byte	0x12
 7475 0f9a 36       		.byte	0x36
 7476 0f9b F2000000 		.4byte	0xf2
 7477 0f9f 10       		.byte	0x10
 7478 0fa0 0E       		.uleb128 0xe
 7479 0fa1 CC110000 		.4byte	.LASF310
ARM GAS  C:\Users\chemi\AppData\Local\Temp\ccFrP3K3.s 			page 169


 7480 0fa5 12       		.byte	0x12
 7481 0fa6 37       		.byte	0x37
 7482 0fa7 E7000000 		.4byte	0xe7
 7483 0fab 14       		.byte	0x14
 7484 0fac 0E       		.uleb128 0xe
 7485 0fad 23150000 		.4byte	.LASF311
 7486 0fb1 12       		.byte	0x12
 7487 0fb2 38       		.byte	0x38
 7488 0fb3 D1000000 		.4byte	0xd1
 7489 0fb7 18       		.byte	0x18
 7490 0fb8 0E       		.uleb128 0xe
 7491 0fb9 B8150000 		.4byte	.LASF312
 7492 0fbd 12       		.byte	0x12
 7493 0fbe 39       		.byte	0x39
 7494 0fbf DC000000 		.4byte	0xdc
 7495 0fc3 1A       		.byte	0x1a
 7496 0fc4 0E       		.uleb128 0xe
 7497 0fc5 68060000 		.4byte	.LASF313
 7498 0fc9 12       		.byte	0x12
 7499 0fca 3A       		.byte	0x3a
 7500 0fcb C6000000 		.4byte	0xc6
 7501 0fcf 1C       		.byte	0x1c
 7502 0fd0 0E       		.uleb128 0xe
 7503 0fd1 4F120000 		.4byte	.LASF314
 7504 0fd5 12       		.byte	0x12
 7505 0fd6 3B       		.byte	0x3b
 7506 0fd7 BB000000 		.4byte	0xbb
 7507 0fdb 1D       		.byte	0x1d
 7508 0fdc 0E       		.uleb128 0xe
 7509 0fdd 95030000 		.4byte	.LASF315
 7510 0fe1 12       		.byte	0x12
 7511 0fe2 3C       		.byte	0x3c
 7512 0fe3 BB000000 		.4byte	0xbb
 7513 0fe7 1E       		.byte	0x1e
 7514 0fe8 00       		.byte	0
 7515 0fe9 03       		.uleb128 0x3
 7516 0fea D2190000 		.4byte	.LASF316
 7517 0fee 12       		.byte	0x12
 7518 0fef 3D       		.byte	0x3d
 7519 0ff0 580F0000 		.4byte	0xf58
 7520 0ff4 16       		.uleb128 0x16
 7521 0ff5 070B0000 		.4byte	.LASF317
 7522 0ff9 E001     		.2byte	0x1e0
 7523 0ffb 12       		.byte	0x12
 7524 0ffc 40       		.byte	0x40
 7525 0ffd BD100000 		.4byte	0x10bd
 7526 1001 0E       		.uleb128 0xe
 7527 1002 22180000 		.4byte	.LASF318
 7528 1006 12       		.byte	0x12
 7529 1007 41       		.byte	0x41
 7530 1008 E90F0000 		.4byte	0xfe9
 7531 100c 00       		.byte	0
 7532 100d 0E       		.uleb128 0xe
 7533 100e F3040000 		.4byte	.LASF319
 7534 1012 12       		.byte	0x12
 7535 1013 42       		.byte	0x42
 7536 1014 E90F0000 		.4byte	0xfe9
ARM GAS  C:\Users\chemi\AppData\Local\Temp\ccFrP3K3.s 			page 170


 7537 1018 20       		.byte	0x20
 7538 1019 0E       		.uleb128 0xe
 7539 101a 870A0000 		.4byte	.LASF320
 7540 101e 12       		.byte	0x12
 7541 101f 43       		.byte	0x43
 7542 1020 E90F0000 		.4byte	0xfe9
 7543 1024 40       		.byte	0x40
 7544 1025 0E       		.uleb128 0xe
 7545 1026 C0110000 		.4byte	.LASF321
 7546 102a 12       		.byte	0x12
 7547 102b 44       		.byte	0x44
 7548 102c E90F0000 		.4byte	0xfe9
 7549 1030 60       		.byte	0x60
 7550 1031 0E       		.uleb128 0xe
 7551 1032 C6110000 		.4byte	.LASF322
 7552 1036 12       		.byte	0x12
 7553 1037 45       		.byte	0x45
 7554 1038 E90F0000 		.4byte	0xfe9
 7555 103c 80       		.byte	0x80
 7556 103d 0E       		.uleb128 0xe
 7557 103e 3F150000 		.4byte	.LASF323
 7558 1042 12       		.byte	0x12
 7559 1043 46       		.byte	0x46
 7560 1044 E90F0000 		.4byte	0xfe9
 7561 1048 A0       		.byte	0xa0
 7562 1049 0E       		.uleb128 0xe
 7563 104a FD020000 		.4byte	.LASF324
 7564 104e 12       		.byte	0x12
 7565 104f 47       		.byte	0x47
 7566 1050 E90F0000 		.4byte	0xfe9
 7567 1054 C0       		.byte	0xc0
 7568 1055 0E       		.uleb128 0xe
 7569 1056 E9110000 		.4byte	.LASF325
 7570 105a 12       		.byte	0x12
 7571 105b 48       		.byte	0x48
 7572 105c E90F0000 		.4byte	0xfe9
 7573 1060 E0       		.byte	0xe0
 7574 1061 17       		.uleb128 0x17
 7575 1062 55030000 		.4byte	.LASF326
 7576 1066 12       		.byte	0x12
 7577 1067 49       		.byte	0x49
 7578 1068 E90F0000 		.4byte	0xfe9
 7579 106c 0001     		.2byte	0x100
 7580 106e 17       		.uleb128 0x17
 7581 106f 52190000 		.4byte	.LASF327
 7582 1073 12       		.byte	0x12
 7583 1074 4A       		.byte	0x4a
 7584 1075 E90F0000 		.4byte	0xfe9
 7585 1079 2001     		.2byte	0x120
 7586 107b 17       		.uleb128 0x17
 7587 107c BA040000 		.4byte	.LASF328
 7588 1080 12       		.byte	0x12
 7589 1081 4B       		.byte	0x4b
 7590 1082 E90F0000 		.4byte	0xfe9
 7591 1086 4001     		.2byte	0x140
 7592 1088 17       		.uleb128 0x17
 7593 1089 D70C0000 		.4byte	.LASF329
ARM GAS  C:\Users\chemi\AppData\Local\Temp\ccFrP3K3.s 			page 171


 7594 108d 12       		.byte	0x12
 7595 108e 4C       		.byte	0x4c
 7596 108f E90F0000 		.4byte	0xfe9
 7597 1093 6001     		.2byte	0x160
 7598 1095 17       		.uleb128 0x17
 7599 1096 12140000 		.4byte	.LASF330
 7600 109a 12       		.byte	0x12
 7601 109b 4D       		.byte	0x4d
 7602 109c E90F0000 		.4byte	0xfe9
 7603 10a0 8001     		.2byte	0x180
 7604 10a2 17       		.uleb128 0x17
 7605 10a3 75150000 		.4byte	.LASF331
 7606 10a7 12       		.byte	0x12
 7607 10a8 4E       		.byte	0x4e
 7608 10a9 E90F0000 		.4byte	0xfe9
 7609 10ad A001     		.2byte	0x1a0
 7610 10af 17       		.uleb128 0x17
 7611 10b0 0B1A0000 		.4byte	.LASF332
 7612 10b4 12       		.byte	0x12
 7613 10b5 4F       		.byte	0x4f
 7614 10b6 E90F0000 		.4byte	0xfe9
 7615 10ba C001     		.2byte	0x1c0
 7616 10bc 00       		.byte	0
 7617 10bd 03       		.uleb128 0x3
 7618 10be 4F0E0000 		.4byte	.LASF333
 7619 10c2 12       		.byte	0x12
 7620 10c3 50       		.byte	0x50
 7621 10c4 F40F0000 		.4byte	0xff4
 7622 10c8 18       		.uleb128 0x18
 7623 10c9 04100000 		.4byte	.LASF517
 7624 10cd E001     		.2byte	0x1e0
 7625 10cf 12       		.byte	0x12
 7626 10d0 54       		.byte	0x54
 7627 10d1 E8100000 		.4byte	0x10e8
 7628 10d5 19       		.uleb128 0x19
 7629 10d6 6E00     		.ascii	"n\000"
 7630 10d8 12       		.byte	0x12
 7631 10d9 56       		.byte	0x56
 7632 10da BD100000 		.4byte	0x10bd
 7633 10de 19       		.uleb128 0x19
 7634 10df 6100     		.ascii	"a\000"
 7635 10e1 12       		.byte	0x12
 7636 10e2 57       		.byte	0x57
 7637 10e3 E8100000 		.4byte	0x10e8
 7638 10e7 00       		.byte	0
 7639 10e8 13       		.uleb128 0x13
 7640 10e9 E90F0000 		.4byte	0xfe9
 7641 10ed F8100000 		.4byte	0x10f8
 7642 10f1 14       		.uleb128 0x14
 7643 10f2 2D010000 		.4byte	0x12d
 7644 10f6 0E       		.byte	0xe
 7645 10f7 00       		.byte	0
 7646 10f8 03       		.uleb128 0x3
 7647 10f9 60000000 		.4byte	.LASF334
 7648 10fd 12       		.byte	0x12
 7649 10fe 58       		.byte	0x58
 7650 10ff C8100000 		.4byte	0x10c8
ARM GAS  C:\Users\chemi\AppData\Local\Temp\ccFrP3K3.s 			page 172


 7651 1103 12       		.uleb128 0x12
 7652 1104 08       		.byte	0x8
 7653 1105 13       		.byte	0x13
 7654 1106 52       		.byte	0x52
 7655 1107 3C110000 		.4byte	0x113c
 7656 110b 0E       		.uleb128 0xe
 7657 110c 70070000 		.4byte	.LASF335
 7658 1110 13       		.byte	0x13
 7659 1111 54       		.byte	0x54
 7660 1112 DC000000 		.4byte	0xdc
 7661 1116 00       		.byte	0
 7662 1117 0E       		.uleb128 0xe
 7663 1118 34110000 		.4byte	.LASF336
 7664 111c 13       		.byte	0x13
 7665 111d 55       		.byte	0x55
 7666 111e DC000000 		.4byte	0xdc
 7667 1122 02       		.byte	0x2
 7668 1123 0E       		.uleb128 0xe
 7669 1124 051A0000 		.4byte	.LASF337
 7670 1128 13       		.byte	0x13
 7671 1129 56       		.byte	0x56
 7672 112a DC000000 		.4byte	0xdc
 7673 112e 04       		.byte	0x4
 7674 112f 0E       		.uleb128 0xe
 7675 1130 41100000 		.4byte	.LASF338
 7676 1134 13       		.byte	0x13
 7677 1135 57       		.byte	0x57
 7678 1136 DC000000 		.4byte	0xdc
 7679 113a 06       		.byte	0x6
 7680 113b 00       		.byte	0
 7681 113c 03       		.uleb128 0x3
 7682 113d C0180000 		.4byte	.LASF339
 7683 1141 13       		.byte	0x13
 7684 1142 58       		.byte	0x58
 7685 1143 03110000 		.4byte	0x1103
 7686 1147 0B       		.uleb128 0xb
 7687 1148 58050000 		.4byte	.LASF340
 7688 114c 01       		.byte	0x1
 7689 114d 57000000 		.4byte	0x57
 7690 1151 14       		.byte	0x14
 7691 1152 22       		.byte	0x22
 7692 1153 7C110000 		.4byte	0x117c
 7693 1157 0C       		.uleb128 0xc
 7694 1158 32120000 		.4byte	.LASF341
 7695 115c 00       		.byte	0
 7696 115d 0C       		.uleb128 0xc
 7697 115e 39140000 		.4byte	.LASF342
 7698 1162 01       		.byte	0x1
 7699 1163 0C       		.uleb128 0xc
 7700 1164 F30E0000 		.4byte	.LASF343
 7701 1168 02       		.byte	0x2
 7702 1169 0C       		.uleb128 0xc
 7703 116a 43180000 		.4byte	.LASF344
 7704 116e 03       		.byte	0x3
 7705 116f 0C       		.uleb128 0xc
 7706 1170 2F030000 		.4byte	.LASF345
 7707 1174 04       		.byte	0x4
ARM GAS  C:\Users\chemi\AppData\Local\Temp\ccFrP3K3.s 			page 173


 7708 1175 0C       		.uleb128 0xc
 7709 1176 FD070000 		.4byte	.LASF346
 7710 117a 05       		.byte	0x5
 7711 117b 00       		.byte	0
 7712 117c 06       		.uleb128 0x6
 7713 117d E7000000 		.4byte	0xe7
 7714 1181 0D       		.uleb128 0xd
 7715 1182 8D040000 		.4byte	.LASF347
 7716 1186 0B       		.byte	0xb
 7717 1187 15       		.byte	0x15
 7718 1188 25       		.byte	0x25
 7719 1189 12120000 		.4byte	0x1212
 7720 118d 0E       		.uleb128 0xe
 7721 118e 64180000 		.4byte	.LASF348
 7722 1192 15       		.byte	0x15
 7723 1193 26       		.byte	0x26
 7724 1194 C6000000 		.4byte	0xc6
 7725 1198 00       		.byte	0
 7726 1199 0E       		.uleb128 0xe
 7727 119a C0110000 		.4byte	.LASF321
 7728 119e 15       		.byte	0x15
 7729 119f 27       		.byte	0x27
 7730 11a0 C6000000 		.4byte	0xc6
 7731 11a4 01       		.byte	0x1
 7732 11a5 0E       		.uleb128 0xe
 7733 11a6 C6110000 		.4byte	.LASF322
 7734 11aa 15       		.byte	0x15
 7735 11ab 28       		.byte	0x28
 7736 11ac C6000000 		.4byte	0xc6
 7737 11b0 02       		.byte	0x2
 7738 11b1 0E       		.uleb128 0xe
 7739 11b2 F81A0000 		.4byte	.LASF349
 7740 11b6 15       		.byte	0x15
 7741 11b7 29       		.byte	0x29
 7742 11b8 C6000000 		.4byte	0xc6
 7743 11bc 03       		.byte	0x3
 7744 11bd 0E       		.uleb128 0xe
 7745 11be 2F1A0000 		.4byte	.LASF350
 7746 11c2 15       		.byte	0x15
 7747 11c3 2A       		.byte	0x2a
 7748 11c4 C6000000 		.4byte	0xc6
 7749 11c8 04       		.byte	0x4
 7750 11c9 0E       		.uleb128 0xe
 7751 11ca 4A150000 		.4byte	.LASF151
 7752 11ce 15       		.byte	0x15
 7753 11cf 2B       		.byte	0x2b
 7754 11d0 C6000000 		.4byte	0xc6
 7755 11d4 05       		.byte	0x5
 7756 11d5 0E       		.uleb128 0xe
 7757 11d6 8F070000 		.4byte	.LASF351
 7758 11da 15       		.byte	0x15
 7759 11db 2C       		.byte	0x2c
 7760 11dc C6000000 		.4byte	0xc6
 7761 11e0 06       		.byte	0x6
 7762 11e1 0E       		.uleb128 0xe
 7763 11e2 65010000 		.4byte	.LASF352
 7764 11e6 15       		.byte	0x15
ARM GAS  C:\Users\chemi\AppData\Local\Temp\ccFrP3K3.s 			page 174


 7765 11e7 2D       		.byte	0x2d
 7766 11e8 C6000000 		.4byte	0xc6
 7767 11ec 07       		.byte	0x7
 7768 11ed 0E       		.uleb128 0xe
 7769 11ee 1B0B0000 		.4byte	.LASF353
 7770 11f2 15       		.byte	0x15
 7771 11f3 2E       		.byte	0x2e
 7772 11f4 C6000000 		.4byte	0xc6
 7773 11f8 08       		.byte	0x8
 7774 11f9 0E       		.uleb128 0xe
 7775 11fa B01A0000 		.4byte	.LASF354
 7776 11fe 15       		.byte	0x15
 7777 11ff 2F       		.byte	0x2f
 7778 1200 C6000000 		.4byte	0xc6
 7779 1204 09       		.byte	0x9
 7780 1205 0E       		.uleb128 0xe
 7781 1206 AF180000 		.4byte	.LASF355
 7782 120a 15       		.byte	0x15
 7783 120b 30       		.byte	0x30
 7784 120c C6000000 		.4byte	0xc6
 7785 1210 0A       		.byte	0xa
 7786 1211 00       		.byte	0
 7787 1212 03       		.uleb128 0x3
 7788 1213 FC190000 		.4byte	.LASF356
 7789 1217 15       		.byte	0x15
 7790 1218 31       		.byte	0x31
 7791 1219 81110000 		.4byte	0x1181
 7792 121d 12       		.uleb128 0x12
 7793 121e 18       		.byte	0x18
 7794 121f 16       		.byte	0x16
 7795 1220 26       		.byte	0x26
 7796 1221 7A120000 		.4byte	0x127a
 7797 1225 15       		.uleb128 0x15
 7798 1226 73726300 		.ascii	"src\000"
 7799 122a 16       		.byte	0x16
 7800 122b 27       		.byte	0x27
 7801 122c 7A120000 		.4byte	0x127a
 7802 1230 00       		.byte	0
 7803 1231 0E       		.uleb128 0xe
 7804 1232 CE150000 		.4byte	.LASF357
 7805 1236 16       		.byte	0x16
 7806 1237 28       		.byte	0x28
 7807 1238 C6000000 		.4byte	0xc6
 7808 123c 04       		.byte	0x4
 7809 123d 0E       		.uleb128 0xe
 7810 123e 490F0000 		.4byte	.LASF358
 7811 1242 16       		.byte	0x16
 7812 1243 29       		.byte	0x29
 7813 1244 F2000000 		.4byte	0xf2
 7814 1248 08       		.byte	0x8
 7815 1249 0E       		.uleb128 0xe
 7816 124a 0E060000 		.4byte	.LASF359
 7817 124e 16       		.byte	0x16
 7818 124f 2A       		.byte	0x2a
 7819 1250 D1000000 		.4byte	0xd1
 7820 1254 0C       		.byte	0xc
 7821 1255 0E       		.uleb128 0xe
ARM GAS  C:\Users\chemi\AppData\Local\Temp\ccFrP3K3.s 			page 175


 7822 1256 1E1A0000 		.4byte	.LASF360
 7823 125a 16       		.byte	0x16
 7824 125b 2B       		.byte	0x2b
 7825 125c D1000000 		.4byte	0xd1
 7826 1260 0E       		.byte	0xe
 7827 1261 0E       		.uleb128 0xe
 7828 1262 67090000 		.4byte	.LASF361
 7829 1266 16       		.byte	0x16
 7830 1267 2C       		.byte	0x2c
 7831 1268 E7000000 		.4byte	0xe7
 7832 126c 10       		.byte	0x10
 7833 126d 0E       		.uleb128 0xe
 7834 126e D20A0000 		.4byte	.LASF362
 7835 1272 16       		.byte	0x16
 7836 1273 2D       		.byte	0x2d
 7837 1274 E7000000 		.4byte	0xe7
 7838 1278 14       		.byte	0x14
 7839 1279 00       		.byte	0
 7840 127a 08       		.uleb128 0x8
 7841 127b 04       		.byte	0x4
 7842 127c E90F0000 		.4byte	0xfe9
 7843 1280 03       		.uleb128 0x3
 7844 1281 25060000 		.4byte	.LASF363
 7845 1285 16       		.byte	0x16
 7846 1286 30       		.byte	0x30
 7847 1287 1D120000 		.4byte	0x121d
 7848 128b 1A       		.uleb128 0x1a
 7849 128c 90       		.byte	0x90
 7850 128d 16       		.byte	0x16
 7851 128e 32       		.byte	0x32
 7852 128f AA120000 		.4byte	0x12aa
 7853 1293 1B       		.uleb128 0x1b
 7854 1294 4F120000 		.4byte	.LASF314
 7855 1298 16       		.byte	0x16
 7856 1299 33       		.byte	0x33
 7857 129a AA120000 		.4byte	0x12aa
 7858 129e 1B       		.uleb128 0x1b
 7859 129f 87160000 		.4byte	.LASF364
 7860 12a3 16       		.byte	0x16
 7861 12a4 34       		.byte	0x34
 7862 12a5 BA120000 		.4byte	0x12ba
 7863 12a9 00       		.byte	0
 7864 12aa 13       		.uleb128 0x13
 7865 12ab 80120000 		.4byte	0x1280
 7866 12af BA120000 		.4byte	0x12ba
 7867 12b3 14       		.uleb128 0x14
 7868 12b4 2D010000 		.4byte	0x12d
 7869 12b8 05       		.byte	0x5
 7870 12b9 00       		.byte	0
 7871 12ba 13       		.uleb128 0x13
 7872 12bb DC000000 		.4byte	0xdc
 7873 12bf CA120000 		.4byte	0x12ca
 7874 12c3 14       		.uleb128 0x14
 7875 12c4 2D010000 		.4byte	0x12d
 7876 12c8 47       		.byte	0x47
 7877 12c9 00       		.byte	0
 7878 12ca 03       		.uleb128 0x3
ARM GAS  C:\Users\chemi\AppData\Local\Temp\ccFrP3K3.s 			page 176


 7879 12cb E4080000 		.4byte	.LASF365
 7880 12cf 16       		.byte	0x16
 7881 12d0 35       		.byte	0x35
 7882 12d1 8B120000 		.4byte	0x128b
 7883 12d5 02       		.uleb128 0x2
 7884 12d6 08       		.byte	0x8
 7885 12d7 04       		.byte	0x4
 7886 12d8 F9120000 		.4byte	.LASF366
 7887 12dc 1C       		.uleb128 0x1c
 7888 12dd 9601     		.2byte	0x196
 7889 12df 17       		.byte	0x17
 7890 12e0 22       		.byte	0x22
 7891 12e1 16130000 		.4byte	0x1316
 7892 12e5 0E       		.uleb128 0xe
 7893 12e6 1D060000 		.4byte	.LASF367
 7894 12ea 17       		.byte	0x17
 7895 12eb 24       		.byte	0x24
 7896 12ec C6000000 		.4byte	0xc6
 7897 12f0 00       		.byte	0
 7898 12f1 0E       		.uleb128 0xe
 7899 12f2 070C0000 		.4byte	.LASF368
 7900 12f6 17       		.byte	0x17
 7901 12f7 25       		.byte	0x25
 7902 12f8 DC000000 		.4byte	0xdc
 7903 12fc 02       		.byte	0x2
 7904 12fd 0E       		.uleb128 0xe
 7905 12fe 980A0000 		.4byte	.LASF369
 7906 1302 17       		.byte	0x17
 7907 1303 26       		.byte	0x26
 7908 1304 DC000000 		.4byte	0xdc
 7909 1308 04       		.byte	0x4
 7910 1309 0E       		.uleb128 0xe
 7911 130a C71A0000 		.4byte	.LASF370
 7912 130e 17       		.byte	0x17
 7913 130f 27       		.byte	0x27
 7914 1310 16130000 		.4byte	0x1316
 7915 1314 06       		.byte	0x6
 7916 1315 00       		.byte	0
 7917 1316 13       		.uleb128 0x13
 7918 1317 C6000000 		.4byte	0xc6
 7919 131b 27130000 		.4byte	0x1327
 7920 131f 1D       		.uleb128 0x1d
 7921 1320 2D010000 		.4byte	0x12d
 7922 1324 8F01     		.2byte	0x18f
 7923 1326 00       		.byte	0
 7924 1327 03       		.uleb128 0x3
 7925 1328 C10D0000 		.4byte	.LASF371
 7926 132c 17       		.byte	0x17
 7927 132d 28       		.byte	0x28
 7928 132e DC120000 		.4byte	0x12dc
 7929 1332 13       		.uleb128 0x13
 7930 1333 F2000000 		.4byte	0xf2
 7931 1337 42130000 		.4byte	0x1342
 7932 133b 14       		.uleb128 0x14
 7933 133c 2D010000 		.4byte	0x12d
 7934 1340 02       		.byte	0x2
 7935 1341 00       		.byte	0
ARM GAS  C:\Users\chemi\AppData\Local\Temp\ccFrP3K3.s 			page 177


 7936 1342 12       		.uleb128 0x12
 7937 1343 24       		.byte	0x24
 7938 1344 18       		.byte	0x18
 7939 1345 68       		.byte	0x68
 7940 1346 87130000 		.4byte	0x1387
 7941 134a 0E       		.uleb128 0xe
 7942 134b 0B080000 		.4byte	.LASF372
 7943 134f 18       		.byte	0x18
 7944 1350 6A       		.byte	0x6a
 7945 1351 32130000 		.4byte	0x1332
 7946 1355 00       		.byte	0
 7947 1356 0E       		.uleb128 0xe
 7948 1357 85020000 		.4byte	.LASF373
 7949 135b 18       		.byte	0x18
 7950 135c 6B       		.byte	0x6b
 7951 135d 32130000 		.4byte	0x1332
 7952 1361 0C       		.byte	0xc
 7953 1362 0E       		.uleb128 0xe
 7954 1363 C8090000 		.4byte	.LASF374
 7955 1367 18       		.byte	0x18
 7956 1368 6E       		.byte	0x6e
 7957 1369 F2000000 		.4byte	0xf2
 7958 136d 18       		.byte	0x18
 7959 136e 0E       		.uleb128 0xe
 7960 136f 98190000 		.4byte	.LASF375
 7961 1373 18       		.byte	0x18
 7962 1374 70       		.byte	0x70
 7963 1375 F2000000 		.4byte	0xf2
 7964 1379 1C       		.byte	0x1c
 7965 137a 0E       		.uleb128 0xe
 7966 137b 6F030000 		.4byte	.LASF376
 7967 137f 18       		.byte	0x18
 7968 1380 71       		.byte	0x71
 7969 1381 F2000000 		.4byte	0xf2
 7970 1385 20       		.byte	0x20
 7971 1386 00       		.byte	0
 7972 1387 03       		.uleb128 0x3
 7973 1388 871A0000 		.4byte	.LASF377
 7974 138c 18       		.byte	0x18
 7975 138d 72       		.byte	0x72
 7976 138e 42130000 		.4byte	0x1342
 7977 1392 0B       		.uleb128 0xb
 7978 1393 85010000 		.4byte	.LASF378
 7979 1397 01       		.byte	0x1
 7980 1398 57000000 		.4byte	0x57
 7981 139c 01       		.byte	0x1
 7982 139d 56       		.byte	0x56
 7983 139e BB130000 		.4byte	0x13bb
 7984 13a2 0C       		.uleb128 0xc
 7985 13a3 EA140000 		.4byte	.LASF379
 7986 13a7 00       		.byte	0
 7987 13a8 0C       		.uleb128 0xc
 7988 13a9 22160000 		.4byte	.LASF380
 7989 13ad 01       		.byte	0x1
 7990 13ae 0C       		.uleb128 0xc
 7991 13af 4E110000 		.4byte	.LASF381
 7992 13b3 0A       		.byte	0xa
ARM GAS  C:\Users\chemi\AppData\Local\Temp\ccFrP3K3.s 			page 178


 7993 13b4 0C       		.uleb128 0xc
 7994 13b5 46160000 		.4byte	.LASF382
 7995 13b9 0B       		.byte	0xb
 7996 13ba 00       		.byte	0
 7997 13bb 1E       		.uleb128 0x1e
 7998 13bc DC0F0000 		.4byte	.LASF385
 7999 13c0 01       		.byte	0x1
 8000 13c1 A601     		.2byte	0x1a6
 8001 13c3 C6000000 		.4byte	0xc6
 8002 13c7 01       		.byte	0x1
 8003 13c8 F1130000 		.4byte	0x13f1
 8004 13cc 1F       		.uleb128 0x1f
 8005 13cd 2F080000 		.4byte	.LASF383
 8006 13d1 01       		.byte	0x1
 8007 13d2 A601     		.2byte	0x1a6
 8008 13d4 1A070000 		.4byte	0x71a
 8009 13d8 1F       		.uleb128 0x1f
 8010 13d9 070C0000 		.4byte	.LASF368
 8011 13dd 01       		.byte	0x1
 8012 13de A601     		.2byte	0x1a6
 8013 13e0 C6000000 		.4byte	0xc6
 8014 13e4 1F       		.uleb128 0x1f
 8015 13e5 8F130000 		.4byte	.LASF384
 8016 13e9 01       		.byte	0x1
 8017 13ea A601     		.2byte	0x1a6
 8018 13ec 47040000 		.4byte	0x447
 8019 13f0 00       		.byte	0
 8020 13f1 1E       		.uleb128 0x1e
 8021 13f2 B9130000 		.4byte	.LASF386
 8022 13f6 01       		.byte	0x1
 8023 13f7 6D01     		.2byte	0x16d
 8024 13f9 C6000000 		.4byte	0xc6
 8025 13fd 01       		.byte	0x1
 8026 13fe 27140000 		.4byte	0x1427
 8027 1402 1F       		.uleb128 0x1f
 8028 1403 2F080000 		.4byte	.LASF383
 8029 1407 01       		.byte	0x1
 8030 1408 6D01     		.2byte	0x16d
 8031 140a 1A070000 		.4byte	0x71a
 8032 140e 1F       		.uleb128 0x1f
 8033 140f 070C0000 		.4byte	.LASF368
 8034 1413 01       		.byte	0x1
 8035 1414 6D01     		.2byte	0x16d
 8036 1416 C6000000 		.4byte	0xc6
 8037 141a 1F       		.uleb128 0x1f
 8038 141b 8F130000 		.4byte	.LASF384
 8039 141f 01       		.byte	0x1
 8040 1420 6D01     		.2byte	0x16d
 8041 1422 47040000 		.4byte	0x447
 8042 1426 00       		.byte	0
 8043 1427 20       		.uleb128 0x20
 8044 1428 D3110000 		.4byte	.LASF389
 8045 142c 01       		.byte	0x1
 8046 142d B803     		.2byte	0x3b8
 8047 142f 01       		.byte	0x1
 8048 1430 59140000 		.4byte	0x1459
 8049 1434 1F       		.uleb128 0x1f
ARM GAS  C:\Users\chemi\AppData\Local\Temp\ccFrP3K3.s 			page 179


 8050 1435 09090000 		.4byte	.LASF387
 8051 1439 01       		.byte	0x1
 8052 143a B803     		.2byte	0x3b8
 8053 143c C6000000 		.4byte	0xc6
 8054 1440 1F       		.uleb128 0x1f
 8055 1441 610C0000 		.4byte	.LASF388
 8056 1445 01       		.byte	0x1
 8057 1446 B803     		.2byte	0x3b8
 8058 1448 C6000000 		.4byte	0xc6
 8059 144c 1F       		.uleb128 0x1f
 8060 144d 8F130000 		.4byte	.LASF384
 8061 1451 01       		.byte	0x1
 8062 1452 B803     		.2byte	0x3b8
 8063 1454 47040000 		.4byte	0x447
 8064 1458 00       		.byte	0
 8065 1459 20       		.uleb128 0x20
 8066 145a 880F0000 		.4byte	.LASF390
 8067 145e 01       		.byte	0x1
 8068 145f C403     		.2byte	0x3c4
 8069 1461 01       		.byte	0x1
 8070 1462 8B140000 		.4byte	0x148b
 8071 1466 1F       		.uleb128 0x1f
 8072 1467 09090000 		.4byte	.LASF387
 8073 146b 01       		.byte	0x1
 8074 146c C403     		.2byte	0x3c4
 8075 146e C6000000 		.4byte	0xc6
 8076 1472 1F       		.uleb128 0x1f
 8077 1473 610C0000 		.4byte	.LASF388
 8078 1477 01       		.byte	0x1
 8079 1478 C403     		.2byte	0x3c4
 8080 147a C6000000 		.4byte	0xc6
 8081 147e 1F       		.uleb128 0x1f
 8082 147f 8F130000 		.4byte	.LASF384
 8083 1483 01       		.byte	0x1
 8084 1484 C403     		.2byte	0x3c4
 8085 1486 47040000 		.4byte	0x447
 8086 148a 00       		.byte	0
 8087 148b 21       		.uleb128 0x21
 8088 148c BB130000 		.4byte	0x13bb
 8089 1490 00000000 		.4byte	.LFB77
 8090 1494 20000000 		.4byte	.LFE77-.LFB77
 8091 1498 01       		.uleb128 0x1
 8092 1499 9C       		.byte	0x9c
 8093 149a EE140000 		.4byte	0x14ee
 8094 149e 22       		.uleb128 0x22
 8095 149f CC130000 		.4byte	0x13cc
 8096 14a3 00000000 		.4byte	.LLST0
 8097 14a7 22       		.uleb128 0x22
 8098 14a8 D8130000 		.4byte	0x13d8
 8099 14ac 21000000 		.4byte	.LLST1
 8100 14b0 22       		.uleb128 0x22
 8101 14b1 E4130000 		.4byte	0x13e4
 8102 14b5 42000000 		.4byte	.LLST2
 8103 14b9 23       		.uleb128 0x23
 8104 14ba 0C000000 		.4byte	.LBB4
 8105 14be 08000000 		.4byte	.LBE4-.LBB4
 8106 14c2 22       		.uleb128 0x22
ARM GAS  C:\Users\chemi\AppData\Local\Temp\ccFrP3K3.s 			page 180


 8107 14c3 CC130000 		.4byte	0x13cc
 8108 14c7 63000000 		.4byte	.LLST3
 8109 14cb 22       		.uleb128 0x22
 8110 14cc D8130000 		.4byte	0x13d8
 8111 14d0 84000000 		.4byte	.LLST4
 8112 14d4 22       		.uleb128 0x22
 8113 14d5 E4130000 		.4byte	0x13e4
 8114 14d9 9A000000 		.4byte	.LLST5
 8115 14dd 24       		.uleb128 0x24
 8116 14de 14000000 		.4byte	.LVL4
 8117 14e2 25       		.uleb128 0x25
 8118 14e3 01       		.uleb128 0x1
 8119 14e4 51       		.byte	0x51
 8120 14e5 05       		.uleb128 0x5
 8121 14e6 03       		.byte	0x3
 8122 14e7 00000000 		.4byte	.LC0
 8123 14eb 00       		.byte	0
 8124 14ec 00       		.byte	0
 8125 14ed 00       		.byte	0
 8126 14ee 26       		.uleb128 0x26
 8127 14ef CB0F0000 		.4byte	.LASF391
 8128 14f3 01       		.byte	0x1
 8129 14f4 2901     		.2byte	0x129
 8130 14f6 00000000 		.4byte	.LFB70
 8131 14fa BC000000 		.4byte	.LFE70-.LFB70
 8132 14fe 01       		.uleb128 0x1
 8133 14ff 9C       		.byte	0x9c
 8134 1500 A1160000 		.4byte	0x16a1
 8135 1504 27       		.uleb128 0x27
 8136 1505 1C000000 		.4byte	.LVL5
 8137 1509 70370000 		.4byte	0x3770
 8138 150d 2F150000 		.4byte	0x152f
 8139 1511 25       		.uleb128 0x25
 8140 1512 01       		.uleb128 0x1
 8141 1513 50       		.byte	0x50
 8142 1514 05       		.uleb128 0x5
 8143 1515 03       		.byte	0x3
 8144 1516 00000000 		.4byte	.LANCHOR0
 8145 151a 25       		.uleb128 0x25
 8146 151b 01       		.uleb128 0x1
 8147 151c 51       		.byte	0x51
 8148 151d 02       		.uleb128 0x2
 8149 151e 08       		.byte	0x8
 8150 151f 50       		.byte	0x50
 8151 1520 25       		.uleb128 0x25
 8152 1521 01       		.uleb128 0x1
 8153 1522 52       		.byte	0x52
 8154 1523 05       		.uleb128 0x5
 8155 1524 03       		.byte	0x3
 8156 1525 42000000 		.4byte	.LC4
 8157 1529 25       		.uleb128 0x25
 8158 152a 01       		.uleb128 0x1
 8159 152b 53       		.byte	0x53
 8160 152c 01       		.uleb128 0x1
 8161 152d 30       		.byte	0x30
 8162 152e 00       		.byte	0
 8163 152f 27       		.uleb128 0x27
ARM GAS  C:\Users\chemi\AppData\Local\Temp\ccFrP3K3.s 			page 181


 8164 1530 28000000 		.4byte	.LVL6
 8165 1534 70370000 		.4byte	0x3770
 8166 1538 5A150000 		.4byte	0x155a
 8167 153c 25       		.uleb128 0x25
 8168 153d 01       		.uleb128 0x1
 8169 153e 50       		.byte	0x50
 8170 153f 05       		.uleb128 0x5
 8171 1540 03       		.byte	0x3
 8172 1541 00000000 		.4byte	.LANCHOR0
 8173 1545 25       		.uleb128 0x25
 8174 1546 01       		.uleb128 0x1
 8175 1547 51       		.byte	0x51
 8176 1548 02       		.uleb128 0x2
 8177 1549 08       		.byte	0x8
 8178 154a 50       		.byte	0x50
 8179 154b 25       		.uleb128 0x25
 8180 154c 01       		.uleb128 0x1
 8181 154d 52       		.byte	0x52
 8182 154e 05       		.uleb128 0x5
 8183 154f 03       		.byte	0x3
 8184 1550 4C000000 		.4byte	.LC5
 8185 1554 25       		.uleb128 0x25
 8186 1555 01       		.uleb128 0x1
 8187 1556 53       		.byte	0x53
 8188 1557 01       		.uleb128 0x1
 8189 1558 30       		.byte	0x30
 8190 1559 00       		.byte	0
 8191 155a 27       		.uleb128 0x27
 8192 155b 34000000 		.4byte	.LVL7
 8193 155f 70370000 		.4byte	0x3770
 8194 1563 86150000 		.4byte	0x1586
 8195 1567 25       		.uleb128 0x25
 8196 1568 01       		.uleb128 0x1
 8197 1569 50       		.byte	0x50
 8198 156a 05       		.uleb128 0x5
 8199 156b 03       		.byte	0x3
 8200 156c 00000000 		.4byte	.LANCHOR0
 8201 1570 25       		.uleb128 0x25
 8202 1571 01       		.uleb128 0x1
 8203 1572 51       		.byte	0x51
 8204 1573 02       		.uleb128 0x2
 8205 1574 08       		.byte	0x8
 8206 1575 50       		.byte	0x50
 8207 1576 25       		.uleb128 0x25
 8208 1577 01       		.uleb128 0x1
 8209 1578 52       		.byte	0x52
 8210 1579 05       		.uleb128 0x5
 8211 157a 03       		.byte	0x3
 8212 157b 1F000000 		.4byte	.LC1
 8213 157f 25       		.uleb128 0x25
 8214 1580 01       		.uleb128 0x1
 8215 1581 53       		.byte	0x53
 8216 1582 02       		.uleb128 0x2
 8217 1583 74       		.byte	0x74
 8218 1584 00       		.sleb128 0
 8219 1585 00       		.byte	0
 8220 1586 27       		.uleb128 0x27
ARM GAS  C:\Users\chemi\AppData\Local\Temp\ccFrP3K3.s 			page 182


 8221 1587 40000000 		.4byte	.LVL8
 8222 158b 70370000 		.4byte	0x3770
 8223 158f B2150000 		.4byte	0x15b2
 8224 1593 25       		.uleb128 0x25
 8225 1594 01       		.uleb128 0x1
 8226 1595 50       		.byte	0x50
 8227 1596 05       		.uleb128 0x5
 8228 1597 03       		.byte	0x3
 8229 1598 00000000 		.4byte	.LANCHOR0
 8230 159c 25       		.uleb128 0x25
 8231 159d 01       		.uleb128 0x1
 8232 159e 51       		.byte	0x51
 8233 159f 02       		.uleb128 0x2
 8234 15a0 08       		.byte	0x8
 8235 15a1 50       		.byte	0x50
 8236 15a2 25       		.uleb128 0x25
 8237 15a3 01       		.uleb128 0x1
 8238 15a4 52       		.byte	0x52
 8239 15a5 05       		.uleb128 0x5
 8240 15a6 03       		.byte	0x3
 8241 15a7 2B000000 		.4byte	.LC2
 8242 15ab 25       		.uleb128 0x25
 8243 15ac 01       		.uleb128 0x1
 8244 15ad 53       		.byte	0x53
 8245 15ae 02       		.uleb128 0x2
 8246 15af 74       		.byte	0x74
 8247 15b0 00       		.sleb128 0
 8248 15b1 00       		.byte	0
 8249 15b2 27       		.uleb128 0x27
 8250 15b3 52000000 		.4byte	.LVL9
 8251 15b7 70370000 		.4byte	0x3770
 8252 15bb DE150000 		.4byte	0x15de
 8253 15bf 25       		.uleb128 0x25
 8254 15c0 01       		.uleb128 0x1
 8255 15c1 50       		.byte	0x50
 8256 15c2 05       		.uleb128 0x5
 8257 15c3 03       		.byte	0x3
 8258 15c4 00000000 		.4byte	.LANCHOR0
 8259 15c8 25       		.uleb128 0x25
 8260 15c9 01       		.uleb128 0x1
 8261 15ca 51       		.byte	0x51
 8262 15cb 02       		.uleb128 0x2
 8263 15cc 08       		.byte	0x8
 8264 15cd 50       		.byte	0x50
 8265 15ce 25       		.uleb128 0x25
 8266 15cf 01       		.uleb128 0x1
 8267 15d0 52       		.byte	0x52
 8268 15d1 05       		.uleb128 0x5
 8269 15d2 03       		.byte	0x3
 8270 15d3 1F000000 		.4byte	.LC1
 8271 15d7 25       		.uleb128 0x25
 8272 15d8 01       		.uleb128 0x1
 8273 15d9 53       		.byte	0x53
 8274 15da 02       		.uleb128 0x2
 8275 15db 74       		.byte	0x74
 8276 15dc 00       		.sleb128 0
 8277 15dd 00       		.byte	0
ARM GAS  C:\Users\chemi\AppData\Local\Temp\ccFrP3K3.s 			page 183


 8278 15de 27       		.uleb128 0x27
 8279 15df 5E000000 		.4byte	.LVL10
 8280 15e3 70370000 		.4byte	0x3770
 8281 15e7 0A160000 		.4byte	0x160a
 8282 15eb 25       		.uleb128 0x25
 8283 15ec 01       		.uleb128 0x1
 8284 15ed 50       		.byte	0x50
 8285 15ee 05       		.uleb128 0x5
 8286 15ef 03       		.byte	0x3
 8287 15f0 00000000 		.4byte	.LANCHOR0
 8288 15f4 25       		.uleb128 0x25
 8289 15f5 01       		.uleb128 0x1
 8290 15f6 51       		.byte	0x51
 8291 15f7 02       		.uleb128 0x2
 8292 15f8 08       		.byte	0x8
 8293 15f9 50       		.byte	0x50
 8294 15fa 25       		.uleb128 0x25
 8295 15fb 01       		.uleb128 0x1
 8296 15fc 52       		.byte	0x52
 8297 15fd 05       		.uleb128 0x5
 8298 15fe 03       		.byte	0x3
 8299 15ff 2B000000 		.4byte	.LC2
 8300 1603 25       		.uleb128 0x25
 8301 1604 01       		.uleb128 0x1
 8302 1605 53       		.byte	0x53
 8303 1606 02       		.uleb128 0x2
 8304 1607 74       		.byte	0x74
 8305 1608 00       		.sleb128 0
 8306 1609 00       		.byte	0
 8307 160a 27       		.uleb128 0x27
 8308 160b 6A000000 		.4byte	.LVL11
 8309 160f 70370000 		.4byte	0x3770
 8310 1613 36160000 		.4byte	0x1636
 8311 1617 25       		.uleb128 0x25
 8312 1618 01       		.uleb128 0x1
 8313 1619 50       		.byte	0x50
 8314 161a 05       		.uleb128 0x5
 8315 161b 03       		.byte	0x3
 8316 161c 00000000 		.4byte	.LANCHOR0
 8317 1620 25       		.uleb128 0x25
 8318 1621 01       		.uleb128 0x1
 8319 1622 51       		.byte	0x51
 8320 1623 02       		.uleb128 0x2
 8321 1624 08       		.byte	0x8
 8322 1625 50       		.byte	0x50
 8323 1626 25       		.uleb128 0x25
 8324 1627 01       		.uleb128 0x1
 8325 1628 52       		.byte	0x52
 8326 1629 05       		.uleb128 0x5
 8327 162a 03       		.byte	0x3
 8328 162b 37000000 		.4byte	.LC3
 8329 162f 25       		.uleb128 0x25
 8330 1630 01       		.uleb128 0x1
 8331 1631 53       		.byte	0x53
 8332 1632 02       		.uleb128 0x2
 8333 1633 74       		.byte	0x74
 8334 1634 00       		.sleb128 0
ARM GAS  C:\Users\chemi\AppData\Local\Temp\ccFrP3K3.s 			page 184


 8335 1635 00       		.byte	0
 8336 1636 27       		.uleb128 0x27
 8337 1637 76000000 		.4byte	.LVL12
 8338 163b 70370000 		.4byte	0x3770
 8339 163f 61160000 		.4byte	0x1661
 8340 1643 25       		.uleb128 0x25
 8341 1644 01       		.uleb128 0x1
 8342 1645 50       		.byte	0x50
 8343 1646 05       		.uleb128 0x5
 8344 1647 03       		.byte	0x3
 8345 1648 00000000 		.4byte	.LANCHOR0
 8346 164c 25       		.uleb128 0x25
 8347 164d 01       		.uleb128 0x1
 8348 164e 51       		.byte	0x51
 8349 164f 02       		.uleb128 0x2
 8350 1650 08       		.byte	0x8
 8351 1651 50       		.byte	0x50
 8352 1652 25       		.uleb128 0x25
 8353 1653 01       		.uleb128 0x1
 8354 1654 52       		.byte	0x52
 8355 1655 05       		.uleb128 0x5
 8356 1656 03       		.byte	0x3
 8357 1657 42000000 		.4byte	.LC4
 8358 165b 25       		.uleb128 0x25
 8359 165c 01       		.uleb128 0x1
 8360 165d 53       		.byte	0x53
 8361 165e 01       		.uleb128 0x1
 8362 165f 31       		.byte	0x31
 8363 1660 00       		.byte	0
 8364 1661 27       		.uleb128 0x27
 8365 1662 82000000 		.4byte	.LVL13
 8366 1666 70370000 		.4byte	0x3770
 8367 166a 7E160000 		.4byte	0x167e
 8368 166e 25       		.uleb128 0x25
 8369 166f 01       		.uleb128 0x1
 8370 1670 50       		.byte	0x50
 8371 1671 05       		.uleb128 0x5
 8372 1672 03       		.byte	0x3
 8373 1673 00000000 		.4byte	.LANCHOR0
 8374 1677 25       		.uleb128 0x25
 8375 1678 01       		.uleb128 0x1
 8376 1679 51       		.byte	0x51
 8377 167a 02       		.uleb128 0x2
 8378 167b 08       		.byte	0x8
 8379 167c 50       		.byte	0x50
 8380 167d 00       		.byte	0
 8381 167e 28       		.uleb128 0x28
 8382 167f 9A000000 		.4byte	.LVL14
 8383 1683 70370000 		.4byte	0x3770
 8384 1687 25       		.uleb128 0x25
 8385 1688 01       		.uleb128 0x1
 8386 1689 50       		.byte	0x50
 8387 168a 05       		.uleb128 0x5
 8388 168b 03       		.byte	0x3
 8389 168c 00000000 		.4byte	.LANCHOR0
 8390 1690 25       		.uleb128 0x25
 8391 1691 01       		.uleb128 0x1
ARM GAS  C:\Users\chemi\AppData\Local\Temp\ccFrP3K3.s 			page 185


 8392 1692 51       		.byte	0x51
 8393 1693 02       		.uleb128 0x2
 8394 1694 08       		.byte	0x8
 8395 1695 50       		.byte	0x50
 8396 1696 25       		.uleb128 0x25
 8397 1697 01       		.uleb128 0x1
 8398 1698 52       		.byte	0x52
 8399 1699 05       		.uleb128 0x5
 8400 169a 03       		.byte	0x3
 8401 169b 57000000 		.4byte	.LC6
 8402 169f 00       		.byte	0
 8403 16a0 00       		.byte	0
 8404 16a1 26       		.uleb128 0x26
 8405 16a2 A2100000 		.4byte	.LASF392
 8406 16a6 01       		.byte	0x1
 8407 16a7 4201     		.2byte	0x142
 8408 16a9 00000000 		.4byte	.LFB71
 8409 16ad 16000000 		.4byte	.LFE71-.LFB71
 8410 16b1 01       		.uleb128 0x1
 8411 16b2 9C       		.byte	0x9c
 8412 16b3 F3160000 		.4byte	0x16f3
 8413 16b7 29       		.uleb128 0x29
 8414 16b8 8F130000 		.4byte	.LASF384
 8415 16bc 01       		.byte	0x1
 8416 16bd 4201     		.2byte	0x142
 8417 16bf 47040000 		.4byte	0x447
 8418 16c3 BB000000 		.4byte	.LLST6
 8419 16c7 23       		.uleb128 0x23
 8420 16c8 0A000000 		.4byte	.LBB6
 8421 16cc 0C000000 		.4byte	.LBE6-.LBB6
 8422 16d0 2A       		.uleb128 0x2a
 8423 16d1 3A020000 		.4byte	.LASF393
 8424 16d5 01       		.byte	0x1
 8425 16d6 4401     		.2byte	0x144
 8426 16d8 C6000000 		.4byte	0xc6
 8427 16dc F2000000 		.4byte	.LLST7
 8428 16e0 28       		.uleb128 0x28
 8429 16e1 14000000 		.4byte	.LVL19
 8430 16e5 7B370000 		.4byte	0x377b
 8431 16e9 25       		.uleb128 0x25
 8432 16ea 01       		.uleb128 0x1
 8433 16eb 51       		.byte	0x51
 8434 16ec 03       		.uleb128 0x3
 8435 16ed F3       		.byte	0xf3
 8436 16ee 01       		.uleb128 0x1
 8437 16ef 50       		.byte	0x50
 8438 16f0 00       		.byte	0
 8439 16f1 00       		.byte	0
 8440 16f2 00       		.byte	0
 8441 16f3 2B       		.uleb128 0x2b
 8442 16f4 D4090000 		.4byte	.LASF397
 8443 16f8 01       		.byte	0x1
 8444 16f9 8D01     		.2byte	0x18d
 8445 16fb C6000000 		.4byte	0xc6
 8446 16ff 00000000 		.4byte	.LFB76
 8447 1703 80000000 		.4byte	.LFE76-.LFB76
 8448 1707 01       		.uleb128 0x1
ARM GAS  C:\Users\chemi\AppData\Local\Temp\ccFrP3K3.s 			page 186


 8449 1708 9C       		.byte	0x9c
 8450 1709 BF170000 		.4byte	0x17bf
 8451 170d 29       		.uleb128 0x29
 8452 170e 2F080000 		.4byte	.LASF383
 8453 1712 01       		.byte	0x1
 8454 1713 8D01     		.2byte	0x18d
 8455 1715 1A070000 		.4byte	0x71a
 8456 1719 1E010000 		.4byte	.LLST8
 8457 171d 29       		.uleb128 0x29
 8458 171e 070C0000 		.4byte	.LASF368
 8459 1722 01       		.byte	0x1
 8460 1723 8D01     		.2byte	0x18d
 8461 1725 C6000000 		.4byte	0xc6
 8462 1729 3F010000 		.4byte	.LLST9
 8463 172d 29       		.uleb128 0x29
 8464 172e 8F130000 		.4byte	.LASF384
 8465 1732 01       		.byte	0x1
 8466 1733 8D01     		.2byte	0x18d
 8467 1735 47040000 		.4byte	0x447
 8468 1739 60010000 		.4byte	.LLST10
 8469 173d 2A       		.uleb128 0x2a
 8470 173e BA170000 		.4byte	.LASF394
 8471 1742 01       		.byte	0x1
 8472 1743 8F01     		.2byte	0x18f
 8473 1745 F2000000 		.4byte	0xf2
 8474 1749 8C010000 		.4byte	.LLST11
 8475 174d 2A       		.uleb128 0x2a
 8476 174e 480A0000 		.4byte	.LASF395
 8477 1752 01       		.byte	0x1
 8478 1753 9001     		.2byte	0x190
 8479 1755 F2000000 		.4byte	0xf2
 8480 1759 9F010000 		.4byte	.LLST12
 8481 175d 2A       		.uleb128 0x2a
 8482 175e 31180000 		.4byte	.LASF396
 8483 1762 01       		.byte	0x1
 8484 1763 9701     		.2byte	0x197
 8485 1765 FD000000 		.4byte	0xfd
 8486 1769 2B020000 		.4byte	.LLST13
 8487 176d 2C       		.uleb128 0x2c
 8488 176e 42000000 		.4byte	.LVL27
 8489 1772 02       		.uleb128 0x2
 8490 1773 76       		.byte	0x76
 8491 1774 00       		.sleb128 0
 8492 1775 89170000 		.4byte	0x1789
 8493 1779 25       		.uleb128 0x25
 8494 177a 01       		.uleb128 0x1
 8495 177b 51       		.byte	0x51
 8496 177c 05       		.uleb128 0x5
 8497 177d 03       		.byte	0x3
 8498 177e 5E000000 		.4byte	.LC7
 8499 1782 25       		.uleb128 0x25
 8500 1783 01       		.uleb128 0x1
 8501 1784 52       		.byte	0x52
 8502 1785 02       		.uleb128 0x2
 8503 1786 74       		.byte	0x74
 8504 1787 00       		.sleb128 0
 8505 1788 00       		.byte	0
ARM GAS  C:\Users\chemi\AppData\Local\Temp\ccFrP3K3.s 			page 187


 8506 1789 2D       		.uleb128 0x2d
 8507 178a 5A000000 		.4byte	.LVL28
 8508 178e 86370000 		.4byte	0x3786
 8509 1792 27       		.uleb128 0x27
 8510 1793 62000000 		.4byte	.LVL30
 8511 1797 91370000 		.4byte	0x3791
 8512 179b A5170000 		.4byte	0x17a5
 8513 179f 25       		.uleb128 0x25
 8514 17a0 01       		.uleb128 0x1
 8515 17a1 50       		.byte	0x50
 8516 17a2 01       		.uleb128 0x1
 8517 17a3 31       		.byte	0x31
 8518 17a4 00       		.byte	0
 8519 17a5 2D       		.uleb128 0x2d
 8520 17a6 66000000 		.4byte	.LVL31
 8521 17aa 9C370000 		.4byte	0x379c
 8522 17ae 2E       		.uleb128 0x2e
 8523 17af 70000000 		.4byte	.LVL32
 8524 17b3 A1160000 		.4byte	0x16a1
 8525 17b7 25       		.uleb128 0x25
 8526 17b8 01       		.uleb128 0x1
 8527 17b9 50       		.byte	0x50
 8528 17ba 02       		.uleb128 0x2
 8529 17bb 75       		.byte	0x75
 8530 17bc 00       		.sleb128 0
 8531 17bd 00       		.byte	0
 8532 17be 00       		.byte	0
 8533 17bf 2B       		.uleb128 0x2b
 8534 17c0 96010000 		.4byte	.LASF398
 8535 17c4 01       		.byte	0x1
 8536 17c5 D901     		.2byte	0x1d9
 8537 17c7 C6000000 		.4byte	0xc6
 8538 17cb 00000000 		.4byte	.LFB80
 8539 17cf 74000000 		.4byte	.LFE80-.LFB80
 8540 17d3 01       		.uleb128 0x1
 8541 17d4 9C       		.byte	0x9c
 8542 17d5 CA180000 		.4byte	0x18ca
 8543 17d9 29       		.uleb128 0x29
 8544 17da 2F080000 		.4byte	.LASF383
 8545 17de 01       		.byte	0x1
 8546 17df D901     		.2byte	0x1d9
 8547 17e1 1A070000 		.4byte	0x71a
 8548 17e5 3E020000 		.4byte	.LLST14
 8549 17e9 29       		.uleb128 0x29
 8550 17ea 070C0000 		.4byte	.LASF368
 8551 17ee 01       		.byte	0x1
 8552 17ef D901     		.2byte	0x1d9
 8553 17f1 C6000000 		.4byte	0xc6
 8554 17f5 5F020000 		.4byte	.LLST15
 8555 17f9 29       		.uleb128 0x29
 8556 17fa 8F130000 		.4byte	.LASF384
 8557 17fe 01       		.byte	0x1
 8558 17ff D901     		.2byte	0x1d9
 8559 1801 47040000 		.4byte	0x447
 8560 1805 80020000 		.4byte	.LLST16
 8561 1809 2A       		.uleb128 0x2a
 8562 180a 31180000 		.4byte	.LASF396
ARM GAS  C:\Users\chemi\AppData\Local\Temp\ccFrP3K3.s 			page 188


 8563 180e 01       		.byte	0x1
 8564 180f DA01     		.2byte	0x1da
 8565 1811 FD000000 		.4byte	0xfd
 8566 1815 AC020000 		.4byte	.LLST17
 8567 1819 2D       		.uleb128 0x2d
 8568 181a 08000000 		.4byte	.LVL35
 8569 181e 86370000 		.4byte	0x3786
 8570 1822 27       		.uleb128 0x27
 8571 1823 12000000 		.4byte	.LVL37
 8572 1827 91370000 		.4byte	0x3791
 8573 182b 35180000 		.4byte	0x1835
 8574 182f 25       		.uleb128 0x25
 8575 1830 01       		.uleb128 0x1
 8576 1831 50       		.byte	0x50
 8577 1832 01       		.uleb128 0x1
 8578 1833 31       		.byte	0x31
 8579 1834 00       		.byte	0
 8580 1835 27       		.uleb128 0x27
 8581 1836 1E000000 		.4byte	.LVL38
 8582 183a A7370000 		.4byte	0x37a7
 8583 183e 48180000 		.4byte	0x1848
 8584 1842 25       		.uleb128 0x25
 8585 1843 01       		.uleb128 0x1
 8586 1844 50       		.byte	0x50
 8587 1845 01       		.uleb128 0x1
 8588 1846 30       		.byte	0x30
 8589 1847 00       		.byte	0
 8590 1848 2D       		.uleb128 0x2d
 8591 1849 24000000 		.4byte	.LVL39
 8592 184d B2370000 		.4byte	0x37b2
 8593 1851 2D       		.uleb128 0x2d
 8594 1852 2A000000 		.4byte	.LVL40
 8595 1856 BD370000 		.4byte	0x37bd
 8596 185a 2D       		.uleb128 0x2d
 8597 185b 2E000000 		.4byte	.LVL41
 8598 185f C8370000 		.4byte	0x37c8
 8599 1863 2D       		.uleb128 0x2d
 8600 1864 32000000 		.4byte	.LVL42
 8601 1868 D3370000 		.4byte	0x37d3
 8602 186c 2D       		.uleb128 0x2d
 8603 186d 36000000 		.4byte	.LVL43
 8604 1871 9C370000 		.4byte	0x379c
 8605 1875 2D       		.uleb128 0x2d
 8606 1876 3A000000 		.4byte	.LVL44
 8607 187a EE140000 		.4byte	0x14ee
 8608 187e 2D       		.uleb128 0x2d
 8609 187f 3E000000 		.4byte	.LVL45
 8610 1883 DE370000 		.4byte	0x37de
 8611 1887 2D       		.uleb128 0x2d
 8612 1888 42000000 		.4byte	.LVL46
 8613 188c E9370000 		.4byte	0x37e9
 8614 1890 27       		.uleb128 0x27
 8615 1891 48000000 		.4byte	.LVL47
 8616 1895 A1160000 		.4byte	0x16a1
 8617 1899 A4180000 		.4byte	0x18a4
 8618 189d 25       		.uleb128 0x25
 8619 189e 01       		.uleb128 0x1
ARM GAS  C:\Users\chemi\AppData\Local\Temp\ccFrP3K3.s 			page 189


 8620 189f 50       		.byte	0x50
 8621 18a0 02       		.uleb128 0x2
 8622 18a1 76       		.byte	0x76
 8623 18a2 00       		.sleb128 0
 8624 18a3 00       		.byte	0
 8625 18a4 27       		.uleb128 0x27
 8626 18a5 54000000 		.4byte	.LVL48
 8627 18a9 A7370000 		.4byte	0x37a7
 8628 18ad B7180000 		.4byte	0x18b7
 8629 18b1 25       		.uleb128 0x25
 8630 18b2 01       		.uleb128 0x1
 8631 18b3 50       		.byte	0x50
 8632 18b4 01       		.uleb128 0x1
 8633 18b5 31       		.byte	0x31
 8634 18b6 00       		.byte	0
 8635 18b7 2D       		.uleb128 0x2d
 8636 18b8 5A000000 		.4byte	.LVL49
 8637 18bc F4370000 		.4byte	0x37f4
 8638 18c0 2D       		.uleb128 0x2d
 8639 18c1 64000000 		.4byte	.LVL50
 8640 18c5 FF370000 		.4byte	0x37ff
 8641 18c9 00       		.byte	0
 8642 18ca 2F       		.uleb128 0x2f
 8643 18cb 320E0000 		.4byte	.LASF518
 8644 18cf 01       		.byte	0x1
 8645 18d0 5201     		.2byte	0x152
 8646 18d2 00000000 		.4byte	.LFB72
 8647 18d6 74000000 		.4byte	.LFE72-.LFB72
 8648 18da 01       		.uleb128 0x1
 8649 18db 9C       		.byte	0x9c
 8650 18dc 30       		.uleb128 0x30
 8651 18dd F4010000 		.4byte	.LASF519
 8652 18e1 01       		.byte	0x1
 8653 18e2 61       		.byte	0x61
 8654 18e3 00000000 		.4byte	.LFB68
 8655 18e7 80010000 		.4byte	.LFE68-.LFB68
 8656 18eb 01       		.uleb128 0x1
 8657 18ec 9C       		.byte	0x9c
 8658 18ed 2F190000 		.4byte	0x192f
 8659 18f1 27       		.uleb128 0x27
 8660 18f2 9A000000 		.4byte	.LVL52
 8661 18f6 0A380000 		.4byte	0x380a
 8662 18fa 13190000 		.4byte	0x1913
 8663 18fe 25       		.uleb128 0x25
 8664 18ff 01       		.uleb128 0x1
 8665 1900 50       		.byte	0x50
 8666 1901 02       		.uleb128 0x2
 8667 1902 74       		.byte	0x74
 8668 1903 37       		.sleb128 55
 8669 1904 25       		.uleb128 0x25
 8670 1905 01       		.uleb128 0x1
 8671 1906 51       		.byte	0x51
 8672 1907 05       		.uleb128 0x5
 8673 1908 03       		.byte	0x3
 8674 1909 BC000000 		.4byte	.LC8
 8675 190d 25       		.uleb128 0x25
 8676 190e 01       		.uleb128 0x1
ARM GAS  C:\Users\chemi\AppData\Local\Temp\ccFrP3K3.s 			page 190


 8677 190f 52       		.byte	0x52
 8678 1910 01       		.uleb128 0x1
 8679 1911 40       		.byte	0x40
 8680 1912 00       		.byte	0
 8681 1913 2D       		.uleb128 0x2d
 8682 1914 06010000 		.4byte	.LVL53
 8683 1918 15380000 		.4byte	0x3815
 8684 191c 2D       		.uleb128 0x2d
 8685 191d 54010000 		.4byte	.LVL54
 8686 1921 CA180000 		.4byte	0x18ca
 8687 1925 31       		.uleb128 0x31
 8688 1926 60010000 		.4byte	.LVL55
 8689 192a FF370000 		.4byte	0x37ff
 8690 192e 00       		.byte	0
 8691 192f 21       		.uleb128 0x21
 8692 1930 F1130000 		.4byte	0x13f1
 8693 1934 00000000 		.4byte	.LFB73
 8694 1938 60000000 		.4byte	.LFE73-.LFB73
 8695 193c 01       		.uleb128 0x1
 8696 193d 9C       		.byte	0x9c
 8697 193e EB190000 		.4byte	0x19eb
 8698 1942 22       		.uleb128 0x22
 8699 1943 02140000 		.4byte	0x1402
 8700 1947 CB020000 		.4byte	.LLST18
 8701 194b 22       		.uleb128 0x22
 8702 194c 0E140000 		.4byte	0x140e
 8703 1950 05030000 		.4byte	.LLST19
 8704 1954 22       		.uleb128 0x22
 8705 1955 1A140000 		.4byte	0x141a
 8706 1959 3F030000 		.4byte	.LLST20
 8707 195d 32       		.uleb128 0x32
 8708 195e 1C000000 		.4byte	.LBB9
 8709 1962 2A000000 		.4byte	.LBE9-.LBB9
 8710 1966 E1190000 		.4byte	0x19e1
 8711 196a 22       		.uleb128 0x22
 8712 196b 02140000 		.4byte	0x1402
 8713 196f 81030000 		.4byte	.LLST21
 8714 1973 22       		.uleb128 0x22
 8715 1974 0E140000 		.4byte	0x140e
 8716 1978 A2030000 		.4byte	.LLST22
 8717 197c 22       		.uleb128 0x22
 8718 197d 1A140000 		.4byte	0x141a
 8719 1981 B8030000 		.4byte	.LLST23
 8720 1985 33       		.uleb128 0x33
 8721 1986 24000000 		.4byte	.LVL61
 8722 198a 98190000 		.4byte	0x1998
 8723 198e 25       		.uleb128 0x25
 8724 198f 01       		.uleb128 0x1
 8725 1990 51       		.byte	0x51
 8726 1991 05       		.uleb128 0x5
 8727 1992 03       		.byte	0x3
 8728 1993 C6000000 		.4byte	.LC9
 8729 1997 00       		.byte	0
 8730 1998 33       		.uleb128 0x33
 8731 1999 2C000000 		.4byte	.LVL62
 8732 199d AB190000 		.4byte	0x19ab
 8733 19a1 25       		.uleb128 0x25
ARM GAS  C:\Users\chemi\AppData\Local\Temp\ccFrP3K3.s 			page 191


 8734 19a2 01       		.uleb128 0x1
 8735 19a3 51       		.byte	0x51
 8736 19a4 05       		.uleb128 0x5
 8737 19a5 03       		.byte	0x3
 8738 19a6 F3000000 		.4byte	.LC10
 8739 19aa 00       		.byte	0
 8740 19ab 33       		.uleb128 0x33
 8741 19ac 34000000 		.4byte	.LVL63
 8742 19b0 BE190000 		.4byte	0x19be
 8743 19b4 25       		.uleb128 0x25
 8744 19b5 01       		.uleb128 0x1
 8745 19b6 51       		.byte	0x51
 8746 19b7 05       		.uleb128 0x5
 8747 19b8 03       		.byte	0x3
 8748 19b9 07010000 		.4byte	.LC11
 8749 19bd 00       		.byte	0
 8750 19be 33       		.uleb128 0x33
 8751 19bf 3C000000 		.4byte	.LVL64
 8752 19c3 D1190000 		.4byte	0x19d1
 8753 19c7 25       		.uleb128 0x25
 8754 19c8 01       		.uleb128 0x1
 8755 19c9 51       		.byte	0x51
 8756 19ca 05       		.uleb128 0x5
 8757 19cb 03       		.byte	0x3
 8758 19cc 2B010000 		.4byte	.LC12
 8759 19d0 00       		.byte	0
 8760 19d1 24       		.uleb128 0x24
 8761 19d2 44000000 		.4byte	.LVL65
 8762 19d6 25       		.uleb128 0x25
 8763 19d7 01       		.uleb128 0x1
 8764 19d8 51       		.byte	0x51
 8765 19d9 05       		.uleb128 0x5
 8766 19da 03       		.byte	0x3
 8767 19db 4F010000 		.4byte	.LC13
 8768 19df 00       		.byte	0
 8769 19e0 00       		.byte	0
 8770 19e1 2D       		.uleb128 0x2d
 8771 19e2 18000000 		.4byte	.LVL57
 8772 19e6 CA180000 		.4byte	0x18ca
 8773 19ea 00       		.byte	0
 8774 19eb 2B       		.uleb128 0x2b
 8775 19ec DF100000 		.4byte	.LASF399
 8776 19f0 01       		.byte	0x1
 8777 19f1 7B01     		.2byte	0x17b
 8778 19f3 C6000000 		.4byte	0xc6
 8779 19f7 00000000 		.4byte	.LFB74
 8780 19fb 0A000000 		.4byte	.LFE74-.LFB74
 8781 19ff 01       		.uleb128 0x1
 8782 1a00 9C       		.byte	0x9c
 8783 1a01 3F1A0000 		.4byte	0x1a3f
 8784 1a05 29       		.uleb128 0x29
 8785 1a06 2F080000 		.4byte	.LASF383
 8786 1a0a 01       		.byte	0x1
 8787 1a0b 7B01     		.2byte	0x17b
 8788 1a0d 1A070000 		.4byte	0x71a
 8789 1a11 D6030000 		.4byte	.LLST24
 8790 1a15 29       		.uleb128 0x29
ARM GAS  C:\Users\chemi\AppData\Local\Temp\ccFrP3K3.s 			page 192


 8791 1a16 070C0000 		.4byte	.LASF368
 8792 1a1a 01       		.byte	0x1
 8793 1a1b 7B01     		.2byte	0x17b
 8794 1a1d C6000000 		.4byte	0xc6
 8795 1a21 F7030000 		.4byte	.LLST25
 8796 1a25 29       		.uleb128 0x29
 8797 1a26 8F130000 		.4byte	.LASF384
 8798 1a2a 01       		.byte	0x1
 8799 1a2b 7B01     		.2byte	0x17b
 8800 1a2d 47040000 		.4byte	0x447
 8801 1a31 18040000 		.4byte	.LLST26
 8802 1a35 2D       		.uleb128 0x2d
 8803 1a36 06000000 		.4byte	.LVL68
 8804 1a3a CA180000 		.4byte	0x18ca
 8805 1a3e 00       		.byte	0
 8806 1a3f 2B       		.uleb128 0x2b
 8807 1a40 EF100000 		.4byte	.LASF400
 8808 1a44 01       		.byte	0x1
 8809 1a45 8401     		.2byte	0x184
 8810 1a47 C6000000 		.4byte	0xc6
 8811 1a4b 00000000 		.4byte	.LFB75
 8812 1a4f 0A000000 		.4byte	.LFE75-.LFB75
 8813 1a53 01       		.uleb128 0x1
 8814 1a54 9C       		.byte	0x9c
 8815 1a55 931A0000 		.4byte	0x1a93
 8816 1a59 29       		.uleb128 0x29
 8817 1a5a 2F080000 		.4byte	.LASF383
 8818 1a5e 01       		.byte	0x1
 8819 1a5f 8401     		.2byte	0x184
 8820 1a61 1A070000 		.4byte	0x71a
 8821 1a65 39040000 		.4byte	.LLST27
 8822 1a69 29       		.uleb128 0x29
 8823 1a6a 070C0000 		.4byte	.LASF368
 8824 1a6e 01       		.byte	0x1
 8825 1a6f 8401     		.2byte	0x184
 8826 1a71 C6000000 		.4byte	0xc6
 8827 1a75 5A040000 		.4byte	.LLST28
 8828 1a79 29       		.uleb128 0x29
 8829 1a7a 8F130000 		.4byte	.LASF384
 8830 1a7e 01       		.byte	0x1
 8831 1a7f 8401     		.2byte	0x184
 8832 1a81 47040000 		.4byte	0x447
 8833 1a85 7B040000 		.4byte	.LLST29
 8834 1a89 2D       		.uleb128 0x2d
 8835 1a8a 06000000 		.4byte	.LVL70
 8836 1a8e EE140000 		.4byte	0x14ee
 8837 1a92 00       		.byte	0
 8838 1a93 34       		.uleb128 0x34
 8839 1a94 DC140000 		.4byte	.LASF401
 8840 1a98 01       		.byte	0x1
 8841 1a99 B301     		.2byte	0x1b3
 8842 1a9b 00000000 		.4byte	.LFB78
 8843 1a9f D0000000 		.4byte	.LFE78-.LFB78
 8844 1aa3 01       		.uleb128 0x1
 8845 1aa4 9C       		.byte	0x9c
 8846 1aa5 511B0000 		.4byte	0x1b51
 8847 1aa9 29       		.uleb128 0x29
ARM GAS  C:\Users\chemi\AppData\Local\Temp\ccFrP3K3.s 			page 193


 8848 1aaa 5B180000 		.4byte	.LASF180
 8849 1aae 01       		.byte	0x1
 8850 1aaf B301     		.2byte	0x1b3
 8851 1ab1 F2000000 		.4byte	0xf2
 8852 1ab5 9C040000 		.4byte	.LLST30
 8853 1ab9 2A       		.uleb128 0x2a
 8854 1aba 23150000 		.4byte	.LASF311
 8855 1abe 01       		.byte	0x1
 8856 1abf B401     		.2byte	0x1b4
 8857 1ac1 2C000000 		.4byte	0x2c
 8858 1ac5 C8040000 		.4byte	.LLST31
 8859 1ac9 2A       		.uleb128 0x2a
 8860 1aca C5020000 		.4byte	.LASF402
 8861 1ace 01       		.byte	0x1
 8862 1acf B501     		.2byte	0x1b5
 8863 1ad1 DC000000 		.4byte	0xdc
 8864 1ad5 12050000 		.4byte	.LLST32
 8865 1ad9 2A       		.uleb128 0x2a
 8866 1ada 9A040000 		.4byte	.LASF403
 8867 1ade 01       		.byte	0x1
 8868 1adf B701     		.2byte	0x1b7
 8869 1ae1 F2000000 		.4byte	0xf2
 8870 1ae5 3E050000 		.4byte	.LLST33
 8871 1ae9 2A       		.uleb128 0x2a
 8872 1aea 090D0000 		.4byte	.LASF404
 8873 1aee 01       		.byte	0x1
 8874 1aef B801     		.2byte	0x1b8
 8875 1af1 F2000000 		.4byte	0xf2
 8876 1af5 62050000 		.4byte	.LLST34
 8877 1af9 2A       		.uleb128 0x2a
 8878 1afa 1F020000 		.4byte	.LASF405
 8879 1afe 01       		.byte	0x1
 8880 1aff BA01     		.2byte	0x1ba
 8881 1b01 2C000000 		.4byte	0x2c
 8882 1b05 86050000 		.4byte	.LLST35
 8883 1b09 2A       		.uleb128 0x2a
 8884 1b0a 06170000 		.4byte	.LASF406
 8885 1b0e 01       		.byte	0x1
 8886 1b0f BB01     		.2byte	0x1bb
 8887 1b11 2C000000 		.4byte	0x2c
 8888 1b15 B8050000 		.4byte	.LLST36
 8889 1b19 2D       		.uleb128 0x2d
 8890 1b1a 20000000 		.4byte	.LVL77
 8891 1b1e 20380000 		.4byte	0x3820
 8892 1b22 2D       		.uleb128 0x2d
 8893 1b23 2C000000 		.4byte	.LVL79
 8894 1b27 2B380000 		.4byte	0x382b
 8895 1b2b 2D       		.uleb128 0x2d
 8896 1b2c 34000000 		.4byte	.LVL81
 8897 1b30 36380000 		.4byte	0x3836
 8898 1b34 27       		.uleb128 0x27
 8899 1b35 A6000000 		.4byte	.LVL97
 8900 1b39 41380000 		.4byte	0x3841
 8901 1b3d 471B0000 		.4byte	0x1b47
 8902 1b41 25       		.uleb128 0x25
 8903 1b42 01       		.uleb128 0x1
 8904 1b43 51       		.byte	0x51
ARM GAS  C:\Users\chemi\AppData\Local\Temp\ccFrP3K3.s 			page 194


 8905 1b44 01       		.uleb128 0x1
 8906 1b45 31       		.byte	0x31
 8907 1b46 00       		.byte	0
 8908 1b47 31       		.uleb128 0x31
 8909 1b48 BA000000 		.4byte	.LVL99
 8910 1b4c 4C380000 		.4byte	0x384c
 8911 1b50 00       		.byte	0
 8912 1b51 26       		.uleb128 0x26
 8913 1b52 BB1A0000 		.4byte	.LASF407
 8914 1b56 01       		.byte	0x1
 8915 1b57 1901     		.2byte	0x119
 8916 1b59 00000000 		.4byte	.LFB69
 8917 1b5d 6C000000 		.4byte	.LFE69-.LFB69
 8918 1b61 01       		.uleb128 0x1
 8919 1b62 9C       		.byte	0x9c
 8920 1b63 301C0000 		.4byte	0x1c30
 8921 1b67 29       		.uleb128 0x29
 8922 1b68 8F130000 		.4byte	.LASF384
 8923 1b6c 01       		.byte	0x1
 8924 1b6d 1901     		.2byte	0x119
 8925 1b6f 47040000 		.4byte	0x447
 8926 1b73 EA050000 		.4byte	.LLST37
 8927 1b77 27       		.uleb128 0x27
 8928 1b78 10000000 		.4byte	.LVL102
 8929 1b7c 57380000 		.4byte	0x3857
 8930 1b80 9F1B0000 		.4byte	0x1b9f
 8931 1b84 25       		.uleb128 0x25
 8932 1b85 01       		.uleb128 0x1
 8933 1b86 50       		.byte	0x50
 8934 1b87 05       		.uleb128 0x5
 8935 1b88 03       		.byte	0x3
 8936 1b89 00000000 		.4byte	.LANCHOR0
 8937 1b8d 25       		.uleb128 0x25
 8938 1b8e 01       		.uleb128 0x1
 8939 1b8f 51       		.byte	0x51
 8940 1b90 02       		.uleb128 0x2
 8941 1b91 08       		.byte	0x8
 8942 1b92 50       		.byte	0x50
 8943 1b93 25       		.uleb128 0x25
 8944 1b94 01       		.uleb128 0x1
 8945 1b95 52       		.byte	0x52
 8946 1b96 01       		.uleb128 0x1
 8947 1b97 30       		.byte	0x30
 8948 1b98 25       		.uleb128 0x25
 8949 1b99 01       		.uleb128 0x1
 8950 1b9a 53       		.byte	0x53
 8951 1b9b 02       		.uleb128 0x2
 8952 1b9c 74       		.byte	0x74
 8953 1b9d 00       		.sleb128 0
 8954 1b9e 00       		.byte	0
 8955 1b9f 2D       		.uleb128 0x2d
 8956 1ba0 20000000 		.4byte	.LVL103
 8957 1ba4 CA180000 		.4byte	0x18ca
 8958 1ba8 2D       		.uleb128 0x2d
 8959 1ba9 24000000 		.4byte	.LVL104
 8960 1bad EE140000 		.4byte	0x14ee
 8961 1bb1 2D       		.uleb128 0x2d
ARM GAS  C:\Users\chemi\AppData\Local\Temp\ccFrP3K3.s 			page 195


 8962 1bb2 2C000000 		.4byte	.LVL105
 8963 1bb6 931A0000 		.4byte	0x1a93
 8964 1bba 2D       		.uleb128 0x2d
 8965 1bbb 36000000 		.4byte	.LVL106
 8966 1bbf FF370000 		.4byte	0x37ff
 8967 1bc3 2D       		.uleb128 0x2d
 8968 1bc4 3A000000 		.4byte	.LVL107
 8969 1bc8 62380000 		.4byte	0x3862
 8970 1bcc 27       		.uleb128 0x27
 8971 1bcd 44000000 		.4byte	.LVL108
 8972 1bd1 6D380000 		.4byte	0x386d
 8973 1bd5 EE1B0000 		.4byte	0x1bee
 8974 1bd9 25       		.uleb128 0x25
 8975 1bda 01       		.uleb128 0x1
 8976 1bdb 50       		.byte	0x50
 8977 1bdc 05       		.uleb128 0x5
 8978 1bdd 03       		.byte	0x3
 8979 1bde 00000000 		.4byte	.LANCHOR0
 8980 1be2 25       		.uleb128 0x25
 8981 1be3 01       		.uleb128 0x1
 8982 1be4 51       		.byte	0x51
 8983 1be5 01       		.uleb128 0x1
 8984 1be6 30       		.byte	0x30
 8985 1be7 25       		.uleb128 0x25
 8986 1be8 01       		.uleb128 0x1
 8987 1be9 52       		.byte	0x52
 8988 1bea 02       		.uleb128 0x2
 8989 1beb 74       		.byte	0x74
 8990 1bec 00       		.sleb128 0
 8991 1bed 00       		.byte	0
 8992 1bee 27       		.uleb128 0x27
 8993 1bef 4E000000 		.4byte	.LVL109
 8994 1bf3 78380000 		.4byte	0x3878
 8995 1bf7 101C0000 		.4byte	0x1c10
 8996 1bfb 25       		.uleb128 0x25
 8997 1bfc 01       		.uleb128 0x1
 8998 1bfd 50       		.byte	0x50
 8999 1bfe 05       		.uleb128 0x5
 9000 1bff 03       		.byte	0x3
 9001 1c00 00000000 		.4byte	.LANCHOR0
 9002 1c04 25       		.uleb128 0x25
 9003 1c05 01       		.uleb128 0x1
 9004 1c06 51       		.byte	0x51
 9005 1c07 01       		.uleb128 0x1
 9006 1c08 30       		.byte	0x30
 9007 1c09 25       		.uleb128 0x25
 9008 1c0a 01       		.uleb128 0x1
 9009 1c0b 52       		.byte	0x52
 9010 1c0c 02       		.uleb128 0x2
 9011 1c0d 74       		.byte	0x74
 9012 1c0e 00       		.sleb128 0
 9013 1c0f 00       		.byte	0
 9014 1c10 28       		.uleb128 0x28
 9015 1c11 5C000000 		.4byte	.LVL111
 9016 1c15 BF170000 		.4byte	0x17bf
 9017 1c19 25       		.uleb128 0x25
 9018 1c1a 01       		.uleb128 0x1
ARM GAS  C:\Users\chemi\AppData\Local\Temp\ccFrP3K3.s 			page 196


 9019 1c1b 50       		.byte	0x50
 9020 1c1c 05       		.uleb128 0x5
 9021 1c1d 03       		.byte	0x3
 9022 1c1e 00000000 		.4byte	.LANCHOR0
 9023 1c22 25       		.uleb128 0x25
 9024 1c23 01       		.uleb128 0x1
 9025 1c24 51       		.byte	0x51
 9026 1c25 01       		.uleb128 0x1
 9027 1c26 30       		.byte	0x30
 9028 1c27 25       		.uleb128 0x25
 9029 1c28 01       		.uleb128 0x1
 9030 1c29 52       		.byte	0x52
 9031 1c2a 03       		.uleb128 0x3
 9032 1c2b F3       		.byte	0xf3
 9033 1c2c 01       		.uleb128 0x1
 9034 1c2d 50       		.byte	0x50
 9035 1c2e 00       		.byte	0
 9036 1c2f 00       		.byte	0
 9037 1c30 2B       		.uleb128 0x2b
 9038 1c31 00000000 		.4byte	.LASF408
 9039 1c35 01       		.byte	0x1
 9040 1c36 CF01     		.2byte	0x1cf
 9041 1c38 C6000000 		.4byte	0xc6
 9042 1c3c 00000000 		.4byte	.LFB79
 9043 1c40 14000000 		.4byte	.LFE79-.LFB79
 9044 1c44 01       		.uleb128 0x1
 9045 1c45 9C       		.byte	0x9c
 9046 1c46 841C0000 		.4byte	0x1c84
 9047 1c4a 29       		.uleb128 0x29
 9048 1c4b 2F080000 		.4byte	.LASF383
 9049 1c4f 01       		.byte	0x1
 9050 1c50 CF01     		.2byte	0x1cf
 9051 1c52 1A070000 		.4byte	0x71a
 9052 1c56 2C060000 		.4byte	.LLST38
 9053 1c5a 29       		.uleb128 0x29
 9054 1c5b 070C0000 		.4byte	.LASF368
 9055 1c5f 01       		.byte	0x1
 9056 1c60 CF01     		.2byte	0x1cf
 9057 1c62 C6000000 		.4byte	0xc6
 9058 1c66 4D060000 		.4byte	.LLST39
 9059 1c6a 29       		.uleb128 0x29
 9060 1c6b 8F130000 		.4byte	.LASF384
 9061 1c6f 01       		.byte	0x1
 9062 1c70 CF01     		.2byte	0x1cf
 9063 1c72 47040000 		.4byte	0x447
 9064 1c76 6E060000 		.4byte	.LLST40
 9065 1c7a 2D       		.uleb128 0x2d
 9066 1c7b 0A000000 		.4byte	.LVL114
 9067 1c7f 931A0000 		.4byte	0x1a93
 9068 1c83 00       		.byte	0
 9069 1c84 2B       		.uleb128 0x2b
 9070 1c85 BB060000 		.4byte	.LASF409
 9071 1c89 01       		.byte	0x1
 9072 1c8a FD01     		.2byte	0x1fd
 9073 1c8c C6000000 		.4byte	0xc6
 9074 1c90 00000000 		.4byte	.LFB81
 9075 1c94 04000000 		.4byte	.LFE81-.LFB81
ARM GAS  C:\Users\chemi\AppData\Local\Temp\ccFrP3K3.s 			page 197


 9076 1c98 01       		.uleb128 0x1
 9077 1c99 9C       		.byte	0x9c
 9078 1c9a CB1C0000 		.4byte	0x1ccb
 9079 1c9e 29       		.uleb128 0x29
 9080 1c9f 2F080000 		.4byte	.LASF383
 9081 1ca3 01       		.byte	0x1
 9082 1ca4 FD01     		.2byte	0x1fd
 9083 1ca6 1A070000 		.4byte	0x71a
 9084 1caa 8F060000 		.4byte	.LLST41
 9085 1cae 35       		.uleb128 0x35
 9086 1caf 070C0000 		.4byte	.LASF368
 9087 1cb3 01       		.byte	0x1
 9088 1cb4 FD01     		.2byte	0x1fd
 9089 1cb6 C6000000 		.4byte	0xc6
 9090 1cba 01       		.uleb128 0x1
 9091 1cbb 51       		.byte	0x51
 9092 1cbc 35       		.uleb128 0x35
 9093 1cbd 8F130000 		.4byte	.LASF384
 9094 1cc1 01       		.byte	0x1
 9095 1cc2 FD01     		.2byte	0x1fd
 9096 1cc4 47040000 		.4byte	0x447
 9097 1cc8 01       		.uleb128 0x1
 9098 1cc9 52       		.byte	0x52
 9099 1cca 00       		.byte	0
 9100 1ccb 26       		.uleb128 0x26
 9101 1ccc 651A0000 		.4byte	.LASF410
 9102 1cd0 01       		.byte	0x1
 9103 1cd1 0302     		.2byte	0x203
 9104 1cd3 00000000 		.4byte	.LFB82
 9105 1cd7 94000000 		.4byte	.LFE82-.LFB82
 9106 1cdb 01       		.uleb128 0x1
 9107 1cdc 9C       		.byte	0x9c
 9108 1cdd 081E0000 		.4byte	0x1e08
 9109 1ce1 29       		.uleb128 0x29
 9110 1ce2 8F130000 		.4byte	.LASF384
 9111 1ce6 01       		.byte	0x1
 9112 1ce7 0302     		.2byte	0x203
 9113 1ce9 47040000 		.4byte	0x447
 9114 1ced B0060000 		.4byte	.LLST42
 9115 1cf1 32       		.uleb128 0x32
 9116 1cf2 34000000 		.4byte	.LBB11
 9117 1cf6 3A000000 		.4byte	.LBE11-.LBB11
 9118 1cfa 771D0000 		.4byte	0x1d77
 9119 1cfe 36       		.uleb128 0x36
 9120 1cff 6900     		.ascii	"i\000"
 9121 1d01 01       		.byte	0x1
 9122 1d02 0C02     		.2byte	0x20c
 9123 1d04 C6000000 		.4byte	0xc6
 9124 1d08 E7060000 		.4byte	.LLST43
 9125 1d0c 27       		.uleb128 0x27
 9126 1d0d 46000000 		.4byte	.LVL125
 9127 1d11 83380000 		.4byte	0x3883
 9128 1d15 2A1D0000 		.4byte	0x1d2a
 9129 1d19 25       		.uleb128 0x25
 9130 1d1a 01       		.uleb128 0x1
 9131 1d1b 50       		.byte	0x50
 9132 1d1c 02       		.uleb128 0x2
ARM GAS  C:\Users\chemi\AppData\Local\Temp\ccFrP3K3.s 			page 198


 9133 1d1d 74       		.byte	0x74
 9134 1d1e 00       		.sleb128 0
 9135 1d1f 25       		.uleb128 0x25
 9136 1d20 01       		.uleb128 0x1
 9137 1d21 51       		.byte	0x51
 9138 1d22 01       		.uleb128 0x1
 9139 1d23 4A       		.byte	0x4a
 9140 1d24 25       		.uleb128 0x25
 9141 1d25 01       		.uleb128 0x1
 9142 1d26 52       		.byte	0x52
 9143 1d27 01       		.uleb128 0x1
 9144 1d28 39       		.byte	0x39
 9145 1d29 00       		.byte	0
 9146 1d2a 33       		.uleb128 0x33
 9147 1d2b 50000000 		.4byte	.LVL126
 9148 1d2f 431D0000 		.4byte	0x1d43
 9149 1d33 25       		.uleb128 0x25
 9150 1d34 01       		.uleb128 0x1
 9151 1d35 51       		.byte	0x51
 9152 1d36 05       		.uleb128 0x5
 9153 1d37 03       		.byte	0x3
 9154 1d38 92010000 		.4byte	.LC17
 9155 1d3c 25       		.uleb128 0x25
 9156 1d3d 01       		.uleb128 0x1
 9157 1d3e 52       		.byte	0x52
 9158 1d3f 02       		.uleb128 0x2
 9159 1d40 75       		.byte	0x75
 9160 1d41 00       		.sleb128 0
 9161 1d42 00       		.byte	0
 9162 1d43 27       		.uleb128 0x27
 9163 1d44 5A000000 		.4byte	.LVL127
 9164 1d48 83380000 		.4byte	0x3883
 9165 1d4c 611D0000 		.4byte	0x1d61
 9166 1d50 25       		.uleb128 0x25
 9167 1d51 01       		.uleb128 0x1
 9168 1d52 50       		.byte	0x50
 9169 1d53 02       		.uleb128 0x2
 9170 1d54 74       		.byte	0x74
 9171 1d55 00       		.sleb128 0
 9172 1d56 25       		.uleb128 0x25
 9173 1d57 01       		.uleb128 0x1
 9174 1d58 51       		.byte	0x51
 9175 1d59 01       		.uleb128 0x1
 9176 1d5a 4A       		.byte	0x4a
 9177 1d5b 25       		.uleb128 0x25
 9178 1d5c 01       		.uleb128 0x1
 9179 1d5d 52       		.byte	0x52
 9180 1d5e 01       		.uleb128 0x1
 9181 1d5f 3F       		.byte	0x3f
 9182 1d60 00       		.byte	0
 9183 1d61 24       		.uleb128 0x24
 9184 1d62 64000000 		.4byte	.LVL128
 9185 1d66 25       		.uleb128 0x25
 9186 1d67 01       		.uleb128 0x1
 9187 1d68 51       		.byte	0x51
 9188 1d69 05       		.uleb128 0x5
 9189 1d6a 03       		.byte	0x3
ARM GAS  C:\Users\chemi\AppData\Local\Temp\ccFrP3K3.s 			page 199


 9190 1d6b 9A010000 		.4byte	.LC18
 9191 1d6f 25       		.uleb128 0x25
 9192 1d70 01       		.uleb128 0x1
 9193 1d71 52       		.byte	0x52
 9194 1d72 02       		.uleb128 0x2
 9195 1d73 76       		.byte	0x76
 9196 1d74 00       		.sleb128 0
 9197 1d75 00       		.byte	0
 9198 1d76 00       		.byte	0
 9199 1d77 33       		.uleb128 0x33
 9200 1d78 0C000000 		.4byte	.LVL119
 9201 1d7c 8A1D0000 		.4byte	0x1d8a
 9202 1d80 25       		.uleb128 0x25
 9203 1d81 01       		.uleb128 0x1
 9204 1d82 51       		.byte	0x51
 9205 1d83 05       		.uleb128 0x5
 9206 1d84 03       		.byte	0x3
 9207 1d85 69010000 		.4byte	.LC14
 9208 1d89 00       		.byte	0
 9209 1d8a 27       		.uleb128 0x27
 9210 1d8b 16000000 		.4byte	.LVL120
 9211 1d8f 83380000 		.4byte	0x3883
 9212 1d93 A81D0000 		.4byte	0x1da8
 9213 1d97 25       		.uleb128 0x25
 9214 1d98 01       		.uleb128 0x1
 9215 1d99 50       		.byte	0x50
 9216 1d9a 02       		.uleb128 0x2
 9217 1d9b 74       		.byte	0x74
 9218 1d9c 00       		.sleb128 0
 9219 1d9d 25       		.uleb128 0x25
 9220 1d9e 01       		.uleb128 0x1
 9221 1d9f 51       		.byte	0x51
 9222 1da0 01       		.uleb128 0x1
 9223 1da1 4A       		.byte	0x4a
 9224 1da2 25       		.uleb128 0x25
 9225 1da3 01       		.uleb128 0x1
 9226 1da4 52       		.byte	0x52
 9227 1da5 01       		.uleb128 0x1
 9228 1da6 39       		.byte	0x39
 9229 1da7 00       		.byte	0
 9230 1da8 33       		.uleb128 0x33
 9231 1da9 1E000000 		.4byte	.LVL121
 9232 1dad BB1D0000 		.4byte	0x1dbb
 9233 1db1 25       		.uleb128 0x25
 9234 1db2 01       		.uleb128 0x1
 9235 1db3 51       		.byte	0x51
 9236 1db4 05       		.uleb128 0x5
 9237 1db5 03       		.byte	0x3
 9238 1db6 80010000 		.4byte	.LC15
 9239 1dba 00       		.byte	0
 9240 1dbb 27       		.uleb128 0x27
 9241 1dbc 28000000 		.4byte	.LVL122
 9242 1dc0 83380000 		.4byte	0x3883
 9243 1dc4 D91D0000 		.4byte	0x1dd9
 9244 1dc8 25       		.uleb128 0x25
 9245 1dc9 01       		.uleb128 0x1
 9246 1dca 50       		.byte	0x50
ARM GAS  C:\Users\chemi\AppData\Local\Temp\ccFrP3K3.s 			page 200


 9247 1dcb 02       		.uleb128 0x2
 9248 1dcc 74       		.byte	0x74
 9249 1dcd 00       		.sleb128 0
 9250 1dce 25       		.uleb128 0x25
 9251 1dcf 01       		.uleb128 0x1
 9252 1dd0 51       		.byte	0x51
 9253 1dd1 01       		.uleb128 0x1
 9254 1dd2 4A       		.byte	0x4a
 9255 1dd3 25       		.uleb128 0x25
 9256 1dd4 01       		.uleb128 0x1
 9257 1dd5 52       		.byte	0x52
 9258 1dd6 01       		.uleb128 0x1
 9259 1dd7 3F       		.byte	0x3f
 9260 1dd8 00       		.byte	0
 9261 1dd9 33       		.uleb128 0x33
 9262 1dda 30000000 		.4byte	.LVL123
 9263 1dde EC1D0000 		.4byte	0x1dec
 9264 1de2 25       		.uleb128 0x25
 9265 1de3 01       		.uleb128 0x1
 9266 1de4 51       		.byte	0x51
 9267 1de5 05       		.uleb128 0x5
 9268 1de6 03       		.byte	0x3
 9269 1de7 84010000 		.4byte	.LC16
 9270 1deb 00       		.byte	0
 9271 1dec 28       		.uleb128 0x28
 9272 1ded 7C000000 		.4byte	.LVL131
 9273 1df1 83380000 		.4byte	0x3883
 9274 1df5 25       		.uleb128 0x25
 9275 1df6 01       		.uleb128 0x1
 9276 1df7 50       		.byte	0x50
 9277 1df8 03       		.uleb128 0x3
 9278 1df9 F3       		.byte	0xf3
 9279 1dfa 01       		.uleb128 0x1
 9280 1dfb 50       		.byte	0x50
 9281 1dfc 25       		.uleb128 0x25
 9282 1dfd 01       		.uleb128 0x1
 9283 1dfe 51       		.byte	0x51
 9284 1dff 01       		.uleb128 0x1
 9285 1e00 32       		.byte	0x32
 9286 1e01 25       		.uleb128 0x25
 9287 1e02 01       		.uleb128 0x1
 9288 1e03 52       		.byte	0x52
 9289 1e04 01       		.uleb128 0x1
 9290 1e05 37       		.byte	0x37
 9291 1e06 00       		.byte	0
 9292 1e07 00       		.byte	0
 9293 1e08 26       		.uleb128 0x26
 9294 1e09 8A030000 		.4byte	.LASF411
 9295 1e0d 01       		.byte	0x1
 9296 1e0e 1702     		.2byte	0x217
 9297 1e10 00000000 		.4byte	.LFB83
 9298 1e14 30000000 		.4byte	.LFE83-.LFB83
 9299 1e18 01       		.uleb128 0x1
 9300 1e19 9C       		.byte	0x9c
 9301 1e1a 6F1E0000 		.4byte	0x1e6f
 9302 1e1e 29       		.uleb128 0x29
 9303 1e1f 8F130000 		.4byte	.LASF384
ARM GAS  C:\Users\chemi\AppData\Local\Temp\ccFrP3K3.s 			page 201


 9304 1e23 01       		.byte	0x1
 9305 1e24 1702     		.2byte	0x217
 9306 1e26 47040000 		.4byte	0x447
 9307 1e2a 13070000 		.4byte	.LLST44
 9308 1e2e 36       		.uleb128 0x36
 9309 1e2f 636E7400 		.ascii	"cnt\000"
 9310 1e33 01       		.byte	0x1
 9311 1e34 1802     		.2byte	0x218
 9312 1e36 C6000000 		.4byte	0xc6
 9313 1e3a 34070000 		.4byte	.LLST45
 9314 1e3e 32       		.uleb128 0x32
 9315 1e3f 06000000 		.4byte	.LBB12
 9316 1e43 12000000 		.4byte	.LBE12-.LBB12
 9317 1e47 5A1E0000 		.4byte	0x1e5a
 9318 1e4b 36       		.uleb128 0x36
 9319 1e4c 6900     		.ascii	"i\000"
 9320 1e4e 01       		.byte	0x1
 9321 1e4f 1902     		.2byte	0x219
 9322 1e51 C6000000 		.4byte	0xc6
 9323 1e55 5E070000 		.4byte	.LLST46
 9324 1e59 00       		.byte	0
 9325 1e5a 37       		.uleb128 0x37
 9326 1e5b 26000000 		.4byte	.LVL137
 9327 1e5f 25       		.uleb128 0x25
 9328 1e60 01       		.uleb128 0x1
 9329 1e61 51       		.byte	0x51
 9330 1e62 05       		.uleb128 0x5
 9331 1e63 03       		.byte	0x3
 9332 1e64 A4010000 		.4byte	.LC19
 9333 1e68 25       		.uleb128 0x25
 9334 1e69 01       		.uleb128 0x1
 9335 1e6a 53       		.byte	0x53
 9336 1e6b 01       		.uleb128 0x1
 9337 1e6c 34       		.byte	0x34
 9338 1e6d 00       		.byte	0
 9339 1e6e 00       		.byte	0
 9340 1e6f 2B       		.uleb128 0x2b
 9341 1e70 90150000 		.4byte	.LASF412
 9342 1e74 01       		.byte	0x1
 9343 1e75 2402     		.2byte	0x224
 9344 1e77 C6000000 		.4byte	0xc6
 9345 1e7b 00000000 		.4byte	.LFB84
 9346 1e7f AC010000 		.4byte	.LFE84-.LFB84
 9347 1e83 01       		.uleb128 0x1
 9348 1e84 9C       		.byte	0x9c
 9349 1e85 5B210000 		.4byte	0x215b
 9350 1e89 29       		.uleb128 0x29
 9351 1e8a 8F130000 		.4byte	.LASF384
 9352 1e8e 01       		.byte	0x1
 9353 1e8f 2402     		.2byte	0x224
 9354 1e91 47040000 		.4byte	0x447
 9355 1e95 72070000 		.4byte	.LLST47
 9356 1e99 32       		.uleb128 0x32
 9357 1e9a 1C000000 		.4byte	.LBB13
 9358 1e9e 44010000 		.4byte	.LBE13-.LBB13
 9359 1ea2 04210000 		.4byte	0x2104
 9360 1ea6 36       		.uleb128 0x36
ARM GAS  C:\Users\chemi\AppData\Local\Temp\ccFrP3K3.s 			page 202


 9361 1ea7 6300     		.ascii	"c\000"
 9362 1ea9 01       		.byte	0x1
 9363 1eaa 2A02     		.2byte	0x22a
 9364 1eac C6000000 		.4byte	0xc6
 9365 1eb0 9E070000 		.4byte	.LLST48
 9366 1eb4 27       		.uleb128 0x27
 9367 1eb5 24000000 		.4byte	.LVL141
 9368 1eb9 8E380000 		.4byte	0x388e
 9369 1ebd CE1E0000 		.4byte	0x1ece
 9370 1ec1 25       		.uleb128 0x25
 9371 1ec2 01       		.uleb128 0x1
 9372 1ec3 50       		.byte	0x50
 9373 1ec4 02       		.uleb128 0x2
 9374 1ec5 74       		.byte	0x74
 9375 1ec6 00       		.sleb128 0
 9376 1ec7 25       		.uleb128 0x25
 9377 1ec8 01       		.uleb128 0x1
 9378 1ec9 51       		.byte	0x51
 9379 1eca 02       		.uleb128 0x2
 9380 1ecb 08       		.byte	0x8
 9381 1ecc C8       		.byte	0xc8
 9382 1ecd 00       		.byte	0
 9383 1ece 27       		.uleb128 0x27
 9384 1ecf 5A000000 		.4byte	.LVL143
 9385 1ed3 83380000 		.4byte	0x3883
 9386 1ed7 EC1E0000 		.4byte	0x1eec
 9387 1edb 25       		.uleb128 0x25
 9388 1edc 01       		.uleb128 0x1
 9389 1edd 50       		.byte	0x50
 9390 1ede 02       		.uleb128 0x2
 9391 1edf 74       		.byte	0x74
 9392 1ee0 00       		.sleb128 0
 9393 1ee1 25       		.uleb128 0x25
 9394 1ee2 01       		.uleb128 0x1
 9395 1ee3 51       		.byte	0x51
 9396 1ee4 01       		.uleb128 0x1
 9397 1ee5 30       		.byte	0x30
 9398 1ee6 25       		.uleb128 0x25
 9399 1ee7 01       		.uleb128 0x1
 9400 1ee8 52       		.byte	0x52
 9401 1ee9 01       		.uleb128 0x1
 9402 1eea 30       		.byte	0x30
 9403 1eeb 00       		.byte	0
 9404 1eec 33       		.uleb128 0x33
 9405 1eed 62000000 		.4byte	.LVL144
 9406 1ef1 FF1E0000 		.4byte	0x1eff
 9407 1ef5 25       		.uleb128 0x25
 9408 1ef6 01       		.uleb128 0x1
 9409 1ef7 51       		.byte	0x51
 9410 1ef8 05       		.uleb128 0x5
 9411 1ef9 03       		.byte	0x3
 9412 1efa BA010000 		.4byte	.LC20
 9413 1efe 00       		.byte	0
 9414 1eff 27       		.uleb128 0x27
 9415 1f00 70000000 		.4byte	.LVL145
 9416 1f04 99380000 		.4byte	0x3899
 9417 1f08 171F0000 		.4byte	0x1f17
ARM GAS  C:\Users\chemi\AppData\Local\Temp\ccFrP3K3.s 			page 203


 9418 1f0c 25       		.uleb128 0x25
 9419 1f0d 01       		.uleb128 0x1
 9420 1f0e 50       		.byte	0x50
 9421 1f0f 01       		.uleb128 0x1
 9422 1f10 41       		.byte	0x41
 9423 1f11 25       		.uleb128 0x25
 9424 1f12 01       		.uleb128 0x1
 9425 1f13 51       		.byte	0x51
 9426 1f14 01       		.uleb128 0x1
 9427 1f15 30       		.byte	0x30
 9428 1f16 00       		.byte	0
 9429 1f17 2C       		.uleb128 0x2c
 9430 1f18 7C000000 		.4byte	.LVL146
 9431 1f1c 02       		.uleb128 0x2
 9432 1f1d 77       		.byte	0x77
 9433 1f1e 00       		.sleb128 0
 9434 1f1f 331F0000 		.4byte	0x1f33
 9435 1f23 25       		.uleb128 0x25
 9436 1f24 01       		.uleb128 0x1
 9437 1f25 50       		.byte	0x50
 9438 1f26 02       		.uleb128 0x2
 9439 1f27 78       		.byte	0x78
 9440 1f28 00       		.sleb128 0
 9441 1f29 25       		.uleb128 0x25
 9442 1f2a 01       		.uleb128 0x1
 9443 1f2b 51       		.byte	0x51
 9444 1f2c 05       		.uleb128 0x5
 9445 1f2d 03       		.byte	0x3
 9446 1f2e 02020000 		.4byte	.LC21
 9447 1f32 00       		.byte	0
 9448 1f33 27       		.uleb128 0x27
 9449 1f34 8A000000 		.4byte	.LVL147
 9450 1f38 99380000 		.4byte	0x3899
 9451 1f3c 4B1F0000 		.4byte	0x1f4b
 9452 1f40 25       		.uleb128 0x25
 9453 1f41 01       		.uleb128 0x1
 9454 1f42 50       		.byte	0x50
 9455 1f43 01       		.uleb128 0x1
 9456 1f44 41       		.byte	0x41
 9457 1f45 25       		.uleb128 0x25
 9458 1f46 01       		.uleb128 0x1
 9459 1f47 51       		.byte	0x51
 9460 1f48 01       		.uleb128 0x1
 9461 1f49 30       		.byte	0x30
 9462 1f4a 00       		.byte	0
 9463 1f4b 2C       		.uleb128 0x2c
 9464 1f4c 96000000 		.4byte	.LVL148
 9465 1f50 02       		.uleb128 0x2
 9466 1f51 77       		.byte	0x77
 9467 1f52 00       		.sleb128 0
 9468 1f53 671F0000 		.4byte	0x1f67
 9469 1f57 25       		.uleb128 0x25
 9470 1f58 01       		.uleb128 0x1
 9471 1f59 50       		.byte	0x50
 9472 1f5a 02       		.uleb128 0x2
 9473 1f5b 78       		.byte	0x78
 9474 1f5c 00       		.sleb128 0
ARM GAS  C:\Users\chemi\AppData\Local\Temp\ccFrP3K3.s 			page 204


 9475 1f5d 25       		.uleb128 0x25
 9476 1f5e 01       		.uleb128 0x1
 9477 1f5f 51       		.byte	0x51
 9478 1f60 05       		.uleb128 0x5
 9479 1f61 03       		.byte	0x3
 9480 1f62 22020000 		.4byte	.LC22
 9481 1f66 00       		.byte	0
 9482 1f67 27       		.uleb128 0x27
 9483 1f68 A4000000 		.4byte	.LVL149
 9484 1f6c 99380000 		.4byte	0x3899
 9485 1f70 7F1F0000 		.4byte	0x1f7f
 9486 1f74 25       		.uleb128 0x25
 9487 1f75 01       		.uleb128 0x1
 9488 1f76 50       		.byte	0x50
 9489 1f77 01       		.uleb128 0x1
 9490 1f78 41       		.byte	0x41
 9491 1f79 25       		.uleb128 0x25
 9492 1f7a 01       		.uleb128 0x1
 9493 1f7b 51       		.byte	0x51
 9494 1f7c 01       		.uleb128 0x1
 9495 1f7d 30       		.byte	0x30
 9496 1f7e 00       		.byte	0
 9497 1f7f 2C       		.uleb128 0x2c
 9498 1f80 B0000000 		.4byte	.LVL150
 9499 1f84 02       		.uleb128 0x2
 9500 1f85 77       		.byte	0x77
 9501 1f86 00       		.sleb128 0
 9502 1f87 9B1F0000 		.4byte	0x1f9b
 9503 1f8b 25       		.uleb128 0x25
 9504 1f8c 01       		.uleb128 0x1
 9505 1f8d 50       		.byte	0x50
 9506 1f8e 02       		.uleb128 0x2
 9507 1f8f 78       		.byte	0x78
 9508 1f90 00       		.sleb128 0
 9509 1f91 25       		.uleb128 0x25
 9510 1f92 01       		.uleb128 0x1
 9511 1f93 51       		.byte	0x51
 9512 1f94 05       		.uleb128 0x5
 9513 1f95 03       		.byte	0x3
 9514 1f96 42020000 		.4byte	.LC23
 9515 1f9a 00       		.byte	0
 9516 1f9b 27       		.uleb128 0x27
 9517 1f9c BE000000 		.4byte	.LVL151
 9518 1fa0 99380000 		.4byte	0x3899
 9519 1fa4 B31F0000 		.4byte	0x1fb3
 9520 1fa8 25       		.uleb128 0x25
 9521 1fa9 01       		.uleb128 0x1
 9522 1faa 50       		.byte	0x50
 9523 1fab 01       		.uleb128 0x1
 9524 1fac 41       		.byte	0x41
 9525 1fad 25       		.uleb128 0x25
 9526 1fae 01       		.uleb128 0x1
 9527 1faf 51       		.byte	0x51
 9528 1fb0 01       		.uleb128 0x1
 9529 1fb1 30       		.byte	0x30
 9530 1fb2 00       		.byte	0
 9531 1fb3 2C       		.uleb128 0x2c
ARM GAS  C:\Users\chemi\AppData\Local\Temp\ccFrP3K3.s 			page 205


 9532 1fb4 CA000000 		.4byte	.LVL152
 9533 1fb8 02       		.uleb128 0x2
 9534 1fb9 77       		.byte	0x77
 9535 1fba 00       		.sleb128 0
 9536 1fbb CF1F0000 		.4byte	0x1fcf
 9537 1fbf 25       		.uleb128 0x25
 9538 1fc0 01       		.uleb128 0x1
 9539 1fc1 50       		.byte	0x50
 9540 1fc2 02       		.uleb128 0x2
 9541 1fc3 78       		.byte	0x78
 9542 1fc4 00       		.sleb128 0
 9543 1fc5 25       		.uleb128 0x25
 9544 1fc6 01       		.uleb128 0x1
 9545 1fc7 51       		.byte	0x51
 9546 1fc8 05       		.uleb128 0x5
 9547 1fc9 03       		.byte	0x3
 9548 1fca 62020000 		.4byte	.LC24
 9549 1fce 00       		.byte	0
 9550 1fcf 27       		.uleb128 0x27
 9551 1fd0 D8000000 		.4byte	.LVL153
 9552 1fd4 99380000 		.4byte	0x3899
 9553 1fd8 E71F0000 		.4byte	0x1fe7
 9554 1fdc 25       		.uleb128 0x25
 9555 1fdd 01       		.uleb128 0x1
 9556 1fde 50       		.byte	0x50
 9557 1fdf 01       		.uleb128 0x1
 9558 1fe0 41       		.byte	0x41
 9559 1fe1 25       		.uleb128 0x25
 9560 1fe2 01       		.uleb128 0x1
 9561 1fe3 51       		.byte	0x51
 9562 1fe4 01       		.uleb128 0x1
 9563 1fe5 30       		.byte	0x30
 9564 1fe6 00       		.byte	0
 9565 1fe7 2C       		.uleb128 0x2c
 9566 1fe8 E4000000 		.4byte	.LVL154
 9567 1fec 02       		.uleb128 0x2
 9568 1fed 77       		.byte	0x77
 9569 1fee 00       		.sleb128 0
 9570 1fef 03200000 		.4byte	0x2003
 9571 1ff3 25       		.uleb128 0x25
 9572 1ff4 01       		.uleb128 0x1
 9573 1ff5 50       		.byte	0x50
 9574 1ff6 02       		.uleb128 0x2
 9575 1ff7 78       		.byte	0x78
 9576 1ff8 00       		.sleb128 0
 9577 1ff9 25       		.uleb128 0x25
 9578 1ffa 01       		.uleb128 0x1
 9579 1ffb 51       		.byte	0x51
 9580 1ffc 05       		.uleb128 0x5
 9581 1ffd 03       		.byte	0x3
 9582 1ffe 82020000 		.4byte	.LC25
 9583 2002 00       		.byte	0
 9584 2003 27       		.uleb128 0x27
 9585 2004 F2000000 		.4byte	.LVL155
 9586 2008 99380000 		.4byte	0x3899
 9587 200c 1B200000 		.4byte	0x201b
 9588 2010 25       		.uleb128 0x25
ARM GAS  C:\Users\chemi\AppData\Local\Temp\ccFrP3K3.s 			page 206


 9589 2011 01       		.uleb128 0x1
 9590 2012 50       		.byte	0x50
 9591 2013 01       		.uleb128 0x1
 9592 2014 41       		.byte	0x41
 9593 2015 25       		.uleb128 0x25
 9594 2016 01       		.uleb128 0x1
 9595 2017 51       		.byte	0x51
 9596 2018 01       		.uleb128 0x1
 9597 2019 30       		.byte	0x30
 9598 201a 00       		.byte	0
 9599 201b 2C       		.uleb128 0x2c
 9600 201c FE000000 		.4byte	.LVL156
 9601 2020 02       		.uleb128 0x2
 9602 2021 77       		.byte	0x77
 9603 2022 00       		.sleb128 0
 9604 2023 37200000 		.4byte	0x2037
 9605 2027 25       		.uleb128 0x25
 9606 2028 01       		.uleb128 0x1
 9607 2029 50       		.byte	0x50
 9608 202a 02       		.uleb128 0x2
 9609 202b 78       		.byte	0x78
 9610 202c 00       		.sleb128 0
 9611 202d 25       		.uleb128 0x25
 9612 202e 01       		.uleb128 0x1
 9613 202f 51       		.byte	0x51
 9614 2030 05       		.uleb128 0x5
 9615 2031 03       		.byte	0x3
 9616 2032 A1020000 		.4byte	.LC26
 9617 2036 00       		.byte	0
 9618 2037 27       		.uleb128 0x27
 9619 2038 0C010000 		.4byte	.LVL157
 9620 203c 99380000 		.4byte	0x3899
 9621 2040 4F200000 		.4byte	0x204f
 9622 2044 25       		.uleb128 0x25
 9623 2045 01       		.uleb128 0x1
 9624 2046 50       		.byte	0x50
 9625 2047 01       		.uleb128 0x1
 9626 2048 41       		.byte	0x41
 9627 2049 25       		.uleb128 0x25
 9628 204a 01       		.uleb128 0x1
 9629 204b 51       		.byte	0x51
 9630 204c 01       		.uleb128 0x1
 9631 204d 30       		.byte	0x30
 9632 204e 00       		.byte	0
 9633 204f 2C       		.uleb128 0x2c
 9634 2050 16010000 		.4byte	.LVL158
 9635 2054 02       		.uleb128 0x2
 9636 2055 77       		.byte	0x77
 9637 2056 00       		.sleb128 0
 9638 2057 6B200000 		.4byte	0x206b
 9639 205b 25       		.uleb128 0x25
 9640 205c 01       		.uleb128 0x1
 9641 205d 50       		.byte	0x50
 9642 205e 02       		.uleb128 0x2
 9643 205f 78       		.byte	0x78
 9644 2060 00       		.sleb128 0
 9645 2061 25       		.uleb128 0x25
ARM GAS  C:\Users\chemi\AppData\Local\Temp\ccFrP3K3.s 			page 207


 9646 2062 01       		.uleb128 0x1
 9647 2063 51       		.byte	0x51
 9648 2064 05       		.uleb128 0x5
 9649 2065 03       		.byte	0x3
 9650 2066 C0020000 		.4byte	.LC27
 9651 206a 00       		.byte	0
 9652 206b 27       		.uleb128 0x27
 9653 206c 24010000 		.4byte	.LVL159
 9654 2070 99380000 		.4byte	0x3899
 9655 2074 83200000 		.4byte	0x2083
 9656 2078 25       		.uleb128 0x25
 9657 2079 01       		.uleb128 0x1
 9658 207a 50       		.byte	0x50
 9659 207b 01       		.uleb128 0x1
 9660 207c 41       		.byte	0x41
 9661 207d 25       		.uleb128 0x25
 9662 207e 01       		.uleb128 0x1
 9663 207f 51       		.byte	0x51
 9664 2080 01       		.uleb128 0x1
 9665 2081 30       		.byte	0x30
 9666 2082 00       		.byte	0
 9667 2083 2C       		.uleb128 0x2c
 9668 2084 30010000 		.4byte	.LVL160
 9669 2088 02       		.uleb128 0x2
 9670 2089 77       		.byte	0x77
 9671 208a 00       		.sleb128 0
 9672 208b 9F200000 		.4byte	0x209f
 9673 208f 25       		.uleb128 0x25
 9674 2090 01       		.uleb128 0x1
 9675 2091 50       		.byte	0x50
 9676 2092 02       		.uleb128 0x2
 9677 2093 78       		.byte	0x78
 9678 2094 00       		.sleb128 0
 9679 2095 25       		.uleb128 0x25
 9680 2096 01       		.uleb128 0x1
 9681 2097 51       		.byte	0x51
 9682 2098 05       		.uleb128 0x5
 9683 2099 03       		.byte	0x3
 9684 209a DF020000 		.4byte	.LC28
 9685 209e 00       		.byte	0
 9686 209f 27       		.uleb128 0x27
 9687 20a0 3E010000 		.4byte	.LVL161
 9688 20a4 99380000 		.4byte	0x3899
 9689 20a8 B7200000 		.4byte	0x20b7
 9690 20ac 25       		.uleb128 0x25
 9691 20ad 01       		.uleb128 0x1
 9692 20ae 50       		.byte	0x50
 9693 20af 01       		.uleb128 0x1
 9694 20b0 41       		.byte	0x41
 9695 20b1 25       		.uleb128 0x25
 9696 20b2 01       		.uleb128 0x1
 9697 20b3 51       		.byte	0x51
 9698 20b4 01       		.uleb128 0x1
 9699 20b5 30       		.byte	0x30
 9700 20b6 00       		.byte	0
 9701 20b7 2C       		.uleb128 0x2c
 9702 20b8 48010000 		.4byte	.LVL162
ARM GAS  C:\Users\chemi\AppData\Local\Temp\ccFrP3K3.s 			page 208


 9703 20bc 02       		.uleb128 0x2
 9704 20bd 77       		.byte	0x77
 9705 20be 00       		.sleb128 0
 9706 20bf D3200000 		.4byte	0x20d3
 9707 20c3 25       		.uleb128 0x25
 9708 20c4 01       		.uleb128 0x1
 9709 20c5 50       		.byte	0x50
 9710 20c6 02       		.uleb128 0x2
 9711 20c7 78       		.byte	0x78
 9712 20c8 00       		.sleb128 0
 9713 20c9 25       		.uleb128 0x25
 9714 20ca 01       		.uleb128 0x1
 9715 20cb 51       		.byte	0x51
 9716 20cc 05       		.uleb128 0x5
 9717 20cd 03       		.byte	0x3
 9718 20ce FE020000 		.4byte	.LC29
 9719 20d2 00       		.byte	0
 9720 20d3 27       		.uleb128 0x27
 9721 20d4 56010000 		.4byte	.LVL163
 9722 20d8 99380000 		.4byte	0x3899
 9723 20dc EB200000 		.4byte	0x20eb
 9724 20e0 25       		.uleb128 0x25
 9725 20e1 01       		.uleb128 0x1
 9726 20e2 50       		.byte	0x50
 9727 20e3 01       		.uleb128 0x1
 9728 20e4 41       		.byte	0x41
 9729 20e5 25       		.uleb128 0x25
 9730 20e6 01       		.uleb128 0x1
 9731 20e7 51       		.byte	0x51
 9732 20e8 01       		.uleb128 0x1
 9733 20e9 30       		.byte	0x30
 9734 20ea 00       		.byte	0
 9735 20eb 38       		.uleb128 0x38
 9736 20ec 60010000 		.4byte	.LVL164
 9737 20f0 02       		.uleb128 0x2
 9738 20f1 77       		.byte	0x77
 9739 20f2 00       		.sleb128 0
 9740 20f3 25       		.uleb128 0x25
 9741 20f4 01       		.uleb128 0x1
 9742 20f5 50       		.byte	0x50
 9743 20f6 02       		.uleb128 0x2
 9744 20f7 78       		.byte	0x78
 9745 20f8 00       		.sleb128 0
 9746 20f9 25       		.uleb128 0x25
 9747 20fa 01       		.uleb128 0x1
 9748 20fb 51       		.byte	0x51
 9749 20fc 05       		.uleb128 0x5
 9750 20fd 03       		.byte	0x3
 9751 20fe 1D030000 		.4byte	.LC30
 9752 2102 00       		.byte	0
 9753 2103 00       		.byte	0
 9754 2104 27       		.uleb128 0x27
 9755 2105 0E000000 		.4byte	.LVL139
 9756 2109 83380000 		.4byte	0x3883
 9757 210d 22210000 		.4byte	0x2122
 9758 2111 25       		.uleb128 0x25
 9759 2112 01       		.uleb128 0x1
ARM GAS  C:\Users\chemi\AppData\Local\Temp\ccFrP3K3.s 			page 209


 9760 2113 50       		.byte	0x50
 9761 2114 02       		.uleb128 0x2
 9762 2115 74       		.byte	0x74
 9763 2116 00       		.sleb128 0
 9764 2117 25       		.uleb128 0x25
 9765 2118 01       		.uleb128 0x1
 9766 2119 51       		.byte	0x51
 9767 211a 01       		.uleb128 0x1
 9768 211b 4B       		.byte	0x4b
 9769 211c 25       		.uleb128 0x25
 9770 211d 01       		.uleb128 0x1
 9771 211e 52       		.byte	0x52
 9772 211f 01       		.uleb128 0x1
 9773 2120 30       		.byte	0x30
 9774 2121 00       		.byte	0
 9775 2122 27       		.uleb128 0x27
 9776 2123 18000000 		.4byte	.LVL140
 9777 2127 83380000 		.4byte	0x3883
 9778 212b 40210000 		.4byte	0x2140
 9779 212f 25       		.uleb128 0x25
 9780 2130 01       		.uleb128 0x1
 9781 2131 50       		.byte	0x50
 9782 2132 02       		.uleb128 0x2
 9783 2133 74       		.byte	0x74
 9784 2134 00       		.sleb128 0
 9785 2135 25       		.uleb128 0x25
 9786 2136 01       		.uleb128 0x1
 9787 2137 51       		.byte	0x51
 9788 2138 01       		.uleb128 0x1
 9789 2139 49       		.byte	0x49
 9790 213a 25       		.uleb128 0x25
 9791 213b 01       		.uleb128 0x1
 9792 213c 52       		.byte	0x52
 9793 213d 01       		.uleb128 0x1
 9794 213e 30       		.byte	0x30
 9795 213f 00       		.byte	0
 9796 2140 2E       		.uleb128 0x2e
 9797 2141 6C010000 		.4byte	.LVL167
 9798 2145 83380000 		.4byte	0x3883
 9799 2149 25       		.uleb128 0x25
 9800 214a 01       		.uleb128 0x1
 9801 214b 50       		.byte	0x50
 9802 214c 02       		.uleb128 0x2
 9803 214d 74       		.byte	0x74
 9804 214e 00       		.sleb128 0
 9805 214f 25       		.uleb128 0x25
 9806 2150 01       		.uleb128 0x1
 9807 2151 51       		.byte	0x51
 9808 2152 01       		.uleb128 0x1
 9809 2153 48       		.byte	0x48
 9810 2154 25       		.uleb128 0x25
 9811 2155 01       		.uleb128 0x1
 9812 2156 52       		.byte	0x52
 9813 2157 01       		.uleb128 0x1
 9814 2158 30       		.byte	0x30
 9815 2159 00       		.byte	0
 9816 215a 00       		.byte	0
ARM GAS  C:\Users\chemi\AppData\Local\Temp\ccFrP3K3.s 			page 210


 9817 215b 2B       		.uleb128 0x2b
 9818 215c 0A140000 		.4byte	.LASF413
 9819 2160 01       		.byte	0x1
 9820 2161 4B02     		.2byte	0x24b
 9821 2163 C6000000 		.4byte	0xc6
 9822 2167 00000000 		.4byte	.LFB85
 9823 216b 68000000 		.4byte	.LFE85-.LFB85
 9824 216f 01       		.uleb128 0x1
 9825 2170 9C       		.byte	0x9c
 9826 2171 65220000 		.4byte	0x2265
 9827 2175 29       		.uleb128 0x29
 9828 2176 8F130000 		.4byte	.LASF384
 9829 217a 01       		.byte	0x1
 9830 217b 4B02     		.2byte	0x24b
 9831 217d 47040000 		.4byte	0x447
 9832 2181 BC070000 		.4byte	.LLST49
 9833 2185 29       		.uleb128 0x29
 9834 2186 B7110000 		.4byte	.LASF116
 9835 218a 01       		.byte	0x1
 9836 218b 4B02     		.2byte	0x24b
 9837 218d C6000000 		.4byte	0xc6
 9838 2191 E8070000 		.4byte	.LLST50
 9839 2195 29       		.uleb128 0x29
 9840 2196 1D0E0000 		.4byte	.LASF115
 9841 219a 01       		.byte	0x1
 9842 219b 4B02     		.2byte	0x24b
 9843 219d 4D040000 		.4byte	0x44d
 9844 21a1 09080000 		.4byte	.LLST51
 9845 21a5 27       		.uleb128 0x27
 9846 21a6 10000000 		.4byte	.LVL172
 9847 21aa A4380000 		.4byte	0x38a4
 9848 21ae C2210000 		.4byte	0x21c2
 9849 21b2 25       		.uleb128 0x25
 9850 21b3 01       		.uleb128 0x1
 9851 21b4 50       		.byte	0x50
 9852 21b5 02       		.uleb128 0x2
 9853 21b6 75       		.byte	0x75
 9854 21b7 00       		.sleb128 0
 9855 21b8 25       		.uleb128 0x25
 9856 21b9 01       		.uleb128 0x1
 9857 21ba 51       		.byte	0x51
 9858 21bb 05       		.uleb128 0x5
 9859 21bc 03       		.byte	0x3
 9860 21bd 3C030000 		.4byte	.LC31
 9861 21c1 00       		.byte	0
 9862 21c2 33       		.uleb128 0x33
 9863 21c3 1A000000 		.4byte	.LVL173
 9864 21c7 D5210000 		.4byte	0x21d5
 9865 21cb 25       		.uleb128 0x25
 9866 21cc 01       		.uleb128 0x1
 9867 21cd 51       		.byte	0x51
 9868 21ce 05       		.uleb128 0x5
 9869 21cf 03       		.byte	0x3
 9870 21d0 3F030000 		.4byte	.LC32
 9871 21d4 00       		.byte	0
 9872 21d5 27       		.uleb128 0x27
 9873 21d6 24000000 		.4byte	.LVL174
ARM GAS  C:\Users\chemi\AppData\Local\Temp\ccFrP3K3.s 			page 211


 9874 21da A4380000 		.4byte	0x38a4
 9875 21de F2210000 		.4byte	0x21f2
 9876 21e2 25       		.uleb128 0x25
 9877 21e3 01       		.uleb128 0x1
 9878 21e4 50       		.byte	0x50
 9879 21e5 02       		.uleb128 0x2
 9880 21e6 75       		.byte	0x75
 9881 21e7 00       		.sleb128 0
 9882 21e8 25       		.uleb128 0x25
 9883 21e9 01       		.uleb128 0x1
 9884 21ea 51       		.byte	0x51
 9885 21eb 05       		.uleb128 0x5
 9886 21ec 03       		.byte	0x3
 9887 21ed 57030000 		.4byte	.LC33
 9888 21f1 00       		.byte	0
 9889 21f2 27       		.uleb128 0x27
 9890 21f3 2C000000 		.4byte	.LVL175
 9891 21f7 CB1C0000 		.4byte	0x1ccb
 9892 21fb 06220000 		.4byte	0x2206
 9893 21ff 25       		.uleb128 0x25
 9894 2200 01       		.uleb128 0x1
 9895 2201 50       		.byte	0x50
 9896 2202 02       		.uleb128 0x2
 9897 2203 74       		.byte	0x74
 9898 2204 00       		.sleb128 0
 9899 2205 00       		.byte	0
 9900 2206 27       		.uleb128 0x27
 9901 2207 36000000 		.4byte	.LVL176
 9902 220b A4380000 		.4byte	0x38a4
 9903 220f 23220000 		.4byte	0x2223
 9904 2213 25       		.uleb128 0x25
 9905 2214 01       		.uleb128 0x1
 9906 2215 50       		.byte	0x50
 9907 2216 02       		.uleb128 0x2
 9908 2217 75       		.byte	0x75
 9909 2218 00       		.sleb128 0
 9910 2219 25       		.uleb128 0x25
 9911 221a 01       		.uleb128 0x1
 9912 221b 51       		.byte	0x51
 9913 221c 05       		.uleb128 0x5
 9914 221d 03       		.byte	0x3
 9915 221e 5C030000 		.4byte	.LC34
 9916 2222 00       		.byte	0
 9917 2223 27       		.uleb128 0x27
 9918 2224 3E000000 		.4byte	.LVL177
 9919 2228 081E0000 		.4byte	0x1e08
 9920 222c 37220000 		.4byte	0x2237
 9921 2230 25       		.uleb128 0x25
 9922 2231 01       		.uleb128 0x1
 9923 2232 50       		.byte	0x50
 9924 2233 02       		.uleb128 0x2
 9925 2234 74       		.byte	0x74
 9926 2235 00       		.sleb128 0
 9927 2236 00       		.byte	0
 9928 2237 27       		.uleb128 0x27
 9929 2238 48000000 		.4byte	.LVL178
 9930 223c A4380000 		.4byte	0x38a4
ARM GAS  C:\Users\chemi\AppData\Local\Temp\ccFrP3K3.s 			page 212


 9931 2240 54220000 		.4byte	0x2254
 9932 2244 25       		.uleb128 0x25
 9933 2245 01       		.uleb128 0x1
 9934 2246 50       		.byte	0x50
 9935 2247 02       		.uleb128 0x2
 9936 2248 75       		.byte	0x75
 9937 2249 00       		.sleb128 0
 9938 224a 25       		.uleb128 0x25
 9939 224b 01       		.uleb128 0x1
 9940 224c 51       		.byte	0x51
 9941 224d 05       		.uleb128 0x5
 9942 224e 03       		.byte	0x3
 9943 224f 63030000 		.4byte	.LC35
 9944 2253 00       		.byte	0
 9945 2254 2E       		.uleb128 0x2e
 9946 2255 50000000 		.4byte	.LVL179
 9947 2259 6F1E0000 		.4byte	0x1e6f
 9948 225d 25       		.uleb128 0x25
 9949 225e 01       		.uleb128 0x1
 9950 225f 50       		.byte	0x50
 9951 2260 02       		.uleb128 0x2
 9952 2261 74       		.byte	0x74
 9953 2262 00       		.sleb128 0
 9954 2263 00       		.byte	0
 9955 2264 00       		.byte	0
 9956 2265 39       		.uleb128 0x39
 9957 2266 04060000 		.4byte	.LASF414
 9958 226a 01       		.byte	0x1
 9959 226b 6502     		.2byte	0x265
 9960 226d C6000000 		.4byte	0xc6
 9961 2271 00000000 		.4byte	.LFB86
 9962 2275 D4000000 		.4byte	.LFE86-.LFB86
 9963 2279 01       		.uleb128 0x1
 9964 227a 9C       		.byte	0x9c
 9965 227b F2230000 		.4byte	0x23f2
 9966 227f 29       		.uleb128 0x29
 9967 2280 8F130000 		.4byte	.LASF384
 9968 2284 01       		.byte	0x1
 9969 2285 6502     		.2byte	0x265
 9970 2287 47040000 		.4byte	0x447
 9971 228b 2A080000 		.4byte	.LLST52
 9972 228f 29       		.uleb128 0x29
 9973 2290 B7110000 		.4byte	.LASF116
 9974 2294 01       		.byte	0x1
 9975 2295 6502     		.2byte	0x265
 9976 2297 C6000000 		.4byte	0xc6
 9977 229b 56080000 		.4byte	.LLST53
 9978 229f 29       		.uleb128 0x29
 9979 22a0 1D0E0000 		.4byte	.LASF115
 9980 22a4 01       		.byte	0x1
 9981 22a5 6502     		.2byte	0x265
 9982 22a7 4D040000 		.4byte	0x44d
 9983 22ab 77080000 		.4byte	.LLST54
 9984 22af 2A       		.uleb128 0x2a
 9985 22b0 DC0C0000 		.4byte	.LASF415
 9986 22b4 01       		.byte	0x1
 9987 22b5 6E02     		.2byte	0x26e
ARM GAS  C:\Users\chemi\AppData\Local\Temp\ccFrP3K3.s 			page 213


 9988 22b7 2C000000 		.4byte	0x2c
 9989 22bb 98080000 		.4byte	.LLST55
 9990 22bf 36       		.uleb128 0x36
 9991 22c0 6900     		.ascii	"i\000"
 9992 22c2 01       		.byte	0x1
 9993 22c3 7502     		.2byte	0x275
 9994 22c5 F2000000 		.4byte	0xf2
 9995 22c9 B6080000 		.4byte	.LLST56
 9996 22cd 2A       		.uleb128 0x2a
 9997 22ce 430A0000 		.4byte	.LASF416
 9998 22d2 01       		.byte	0x1
 9999 22d3 7702     		.2byte	0x277
 10000 22d5 F2000000 		.4byte	0xf2
 10001 22d9 ED080000 		.4byte	.LLST57
 10002 22dd 3A       		.uleb128 0x3a
 10003 22de 7A060000 		.4byte	.LASF520
 10004 22e2 01       		.byte	0x1
 10005 22e3 8B02     		.2byte	0x28b
 10006 22e5 A6000000 		.4byte	.L119
 10007 22e9 32       		.uleb128 0x32
 10008 22ea 50000000 		.4byte	.LBB14
 10009 22ee 26000000 		.4byte	.LBE14-.LBB14
 10010 22f2 55230000 		.4byte	0x2355
 10011 22f6 2A       		.uleb128 0x2a
 10012 22f7 760A0000 		.4byte	.LASF417
 10013 22fb 01       		.byte	0x1
 10014 22fc 7A02     		.2byte	0x27a
 10015 22fe F2000000 		.4byte	0xf2
 10016 2302 35090000 		.4byte	.LLST58
 10017 2306 2D       		.uleb128 0x2d
 10018 2307 54000000 		.4byte	.LVL195
 10019 230b AF380000 		.4byte	0x38af
 10020 230f 2C       		.uleb128 0x2c
 10021 2310 62000000 		.4byte	.LVL199
 10022 2314 02       		.uleb128 0x2
 10023 2315 77       		.byte	0x77
 10024 2316 00       		.sleb128 0
 10025 2317 2B230000 		.4byte	0x232b
 10026 231b 25       		.uleb128 0x25
 10027 231c 01       		.uleb128 0x1
 10028 231d 51       		.byte	0x51
 10029 231e 05       		.uleb128 0x5
 10030 231f 03       		.byte	0x3
 10031 2320 B0030000 		.4byte	.LC38
 10032 2324 25       		.uleb128 0x25
 10033 2325 01       		.uleb128 0x1
 10034 2326 52       		.byte	0x52
 10035 2327 02       		.uleb128 0x2
 10036 2328 75       		.byte	0x75
 10037 2329 00       		.sleb128 0
 10038 232a 00       		.byte	0
 10039 232b 27       		.uleb128 0x27
 10040 232c 6A000000 		.4byte	.LVL200
 10041 2330 BA380000 		.4byte	0x38ba
 10042 2334 45230000 		.4byte	0x2345
 10043 2338 25       		.uleb128 0x25
 10044 2339 01       		.uleb128 0x1
ARM GAS  C:\Users\chemi\AppData\Local\Temp\ccFrP3K3.s 			page 214


 10045 233a 50       		.byte	0x50
 10046 233b 02       		.uleb128 0x2
 10047 233c 74       		.byte	0x74
 10048 233d 00       		.sleb128 0
 10049 233e 25       		.uleb128 0x25
 10050 233f 01       		.uleb128 0x1
 10051 2340 51       		.byte	0x51
 10052 2341 02       		.uleb128 0x2
 10053 2342 08       		.byte	0x8
 10054 2343 64       		.byte	0x64
 10055 2344 00       		.byte	0
 10056 2345 24       		.uleb128 0x24
 10057 2346 74000000 		.4byte	.LVL201
 10058 234a 25       		.uleb128 0x25
 10059 234b 01       		.uleb128 0x1
 10060 234c 51       		.byte	0x51
 10061 234d 05       		.uleb128 0x5
 10062 234e 03       		.byte	0x3
 10063 234f C3030000 		.4byte	.LC39
 10064 2353 00       		.byte	0
 10065 2354 00       		.byte	0
 10066 2355 27       		.uleb128 0x27
 10067 2356 12000000 		.4byte	.LVL184
 10068 235a A4380000 		.4byte	0x38a4
 10069 235e 72230000 		.4byte	0x2372
 10070 2362 25       		.uleb128 0x25
 10071 2363 01       		.uleb128 0x1
 10072 2364 50       		.byte	0x50
 10073 2365 02       		.uleb128 0x2
 10074 2366 75       		.byte	0x75
 10075 2367 00       		.sleb128 0
 10076 2368 25       		.uleb128 0x25
 10077 2369 01       		.uleb128 0x1
 10078 236a 51       		.byte	0x51
 10079 236b 05       		.uleb128 0x5
 10080 236c 03       		.byte	0x3
 10081 236d 3C030000 		.4byte	.LC31
 10082 2371 00       		.byte	0
 10083 2372 33       		.uleb128 0x33
 10084 2373 1C000000 		.4byte	.LVL185
 10085 2377 85230000 		.4byte	0x2385
 10086 237b 25       		.uleb128 0x25
 10087 237c 01       		.uleb128 0x1
 10088 237d 51       		.byte	0x51
 10089 237e 05       		.uleb128 0x5
 10090 237f 03       		.byte	0x3
 10091 2380 67030000 		.4byte	.LC36
 10092 2384 00       		.byte	0
 10093 2385 27       		.uleb128 0x27
 10094 2386 24000000 		.4byte	.LVL186
 10095 238a C5380000 		.4byte	0x38c5
 10096 238e 99230000 		.4byte	0x2399
 10097 2392 25       		.uleb128 0x25
 10098 2393 01       		.uleb128 0x1
 10099 2394 50       		.byte	0x50
 10100 2395 02       		.uleb128 0x2
 10101 2396 75       		.byte	0x75
ARM GAS  C:\Users\chemi\AppData\Local\Temp\ccFrP3K3.s 			page 215


 10102 2397 00       		.sleb128 0
 10103 2398 00       		.byte	0
 10104 2399 2D       		.uleb128 0x2d
 10105 239a 32000000 		.4byte	.LVL190
 10106 239e F4370000 		.4byte	0x37f4
 10107 23a2 2C       		.uleb128 0x2c
 10108 23a3 44000000 		.4byte	.LVL192
 10109 23a7 02       		.uleb128 0x2
 10110 23a8 75       		.byte	0x75
 10111 23a9 00       		.sleb128 0
 10112 23aa B8230000 		.4byte	0x23b8
 10113 23ae 25       		.uleb128 0x25
 10114 23af 01       		.uleb128 0x1
 10115 23b0 51       		.byte	0x51
 10116 23b1 05       		.uleb128 0x5
 10117 23b2 03       		.byte	0x3
 10118 23b3 82030000 		.4byte	.LC37
 10119 23b7 00       		.byte	0
 10120 23b8 27       		.uleb128 0x27
 10121 23b9 4C000000 		.4byte	.LVL193
 10122 23bd BA380000 		.4byte	0x38ba
 10123 23c1 D2230000 		.4byte	0x23d2
 10124 23c5 25       		.uleb128 0x25
 10125 23c6 01       		.uleb128 0x1
 10126 23c7 50       		.byte	0x50
 10127 23c8 02       		.uleb128 0x2
 10128 23c9 74       		.byte	0x74
 10129 23ca 00       		.sleb128 0
 10130 23cb 25       		.uleb128 0x25
 10131 23cc 01       		.uleb128 0x1
 10132 23cd 51       		.byte	0x51
 10133 23ce 02       		.uleb128 0x2
 10134 23cf 08       		.byte	0x8
 10135 23d0 64       		.byte	0x64
 10136 23d1 00       		.byte	0
 10137 23d2 2C       		.uleb128 0x2c
 10138 23d3 A6000000 		.4byte	.LVL211
 10139 23d7 02       		.uleb128 0x2
 10140 23d8 75       		.byte	0x75
 10141 23d9 00       		.sleb128 0
 10142 23da E8230000 		.4byte	0x23e8
 10143 23de 25       		.uleb128 0x25
 10144 23df 01       		.uleb128 0x1
 10145 23e0 51       		.byte	0x51
 10146 23e1 05       		.uleb128 0x5
 10147 23e2 03       		.byte	0x3
 10148 23e3 D6030000 		.4byte	.LC40
 10149 23e7 00       		.byte	0
 10150 23e8 2D       		.uleb128 0x2d
 10151 23e9 AE000000 		.4byte	.LVL212
 10152 23ed F4370000 		.4byte	0x37f4
 10153 23f1 00       		.byte	0
 10154 23f2 2B       		.uleb128 0x2b
 10155 23f3 A31A0000 		.4byte	.LASF418
 10156 23f7 01       		.byte	0x1
 10157 23f8 9502     		.2byte	0x295
 10158 23fa C6000000 		.4byte	0xc6
ARM GAS  C:\Users\chemi\AppData\Local\Temp\ccFrP3K3.s 			page 216


 10159 23fe 00000000 		.4byte	.LFB87
 10160 2402 20000000 		.4byte	.LFE87-.LFB87
 10161 2406 01       		.uleb128 0x1
 10162 2407 9C       		.byte	0x9c
 10163 2408 6D240000 		.4byte	0x246d
 10164 240c 29       		.uleb128 0x29
 10165 240d 8F130000 		.4byte	.LASF384
 10166 2411 01       		.byte	0x1
 10167 2412 9502     		.2byte	0x295
 10168 2414 47040000 		.4byte	0x447
 10169 2418 53090000 		.4byte	.LLST59
 10170 241c 29       		.uleb128 0x29
 10171 241d B7110000 		.4byte	.LASF116
 10172 2421 01       		.byte	0x1
 10173 2422 9502     		.2byte	0x295
 10174 2424 C6000000 		.4byte	0xc6
 10175 2428 7F090000 		.4byte	.LLST60
 10176 242c 29       		.uleb128 0x29
 10177 242d 1D0E0000 		.4byte	.LASF115
 10178 2431 01       		.byte	0x1
 10179 2432 9502     		.2byte	0x295
 10180 2434 4D040000 		.4byte	0x44d
 10181 2438 A0090000 		.4byte	.LLST61
 10182 243c 3B       		.uleb128 0x3b
 10183 243d 00000000 		.4byte	.Ldebug_ranges0+0
 10184 2441 36       		.uleb128 0x36
 10185 2442 6900     		.ascii	"i\000"
 10186 2444 01       		.byte	0x1
 10187 2445 9602     		.2byte	0x296
 10188 2447 C6000000 		.4byte	0xc6
 10189 244b C1090000 		.4byte	.LLST62
 10190 244f 2E       		.uleb128 0x2e
 10191 2450 14000000 		.4byte	.LVL217
 10192 2454 D0380000 		.4byte	0x38d0
 10193 2458 25       		.uleb128 0x25
 10194 2459 01       		.uleb128 0x1
 10195 245a 50       		.byte	0x50
 10196 245b 08       		.uleb128 0x8
 10197 245c 74       		.byte	0x74
 10198 245d 7F       		.sleb128 -1
 10199 245e 32       		.byte	0x32
 10200 245f 24       		.byte	0x24
 10201 2460 75       		.byte	0x75
 10202 2461 00       		.sleb128 0
 10203 2462 22       		.byte	0x22
 10204 2463 06       		.byte	0x6
 10205 2464 25       		.uleb128 0x25
 10206 2465 01       		.uleb128 0x1
 10207 2466 51       		.byte	0x51
 10208 2467 02       		.uleb128 0x2
 10209 2468 76       		.byte	0x76
 10210 2469 00       		.sleb128 0
 10211 246a 00       		.byte	0
 10212 246b 00       		.byte	0
 10213 246c 00       		.byte	0
 10214 246d 2B       		.uleb128 0x2b
 10215 246e A4040000 		.4byte	.LASF419
ARM GAS  C:\Users\chemi\AppData\Local\Temp\ccFrP3K3.s 			page 217


 10216 2472 01       		.byte	0x1
 10217 2473 9F02     		.2byte	0x29f
 10218 2475 C6000000 		.4byte	0xc6
 10219 2479 00000000 		.4byte	.LFB88
 10220 247d 54000000 		.4byte	.LFE88-.LFB88
 10221 2481 01       		.uleb128 0x1
 10222 2482 9C       		.byte	0x9c
 10223 2483 41250000 		.4byte	0x2541
 10224 2487 29       		.uleb128 0x29
 10225 2488 8F130000 		.4byte	.LASF384
 10226 248c 01       		.byte	0x1
 10227 248d 9F02     		.2byte	0x29f
 10228 248f 47040000 		.4byte	0x447
 10229 2493 E0090000 		.4byte	.LLST63
 10230 2497 29       		.uleb128 0x29
 10231 2498 B7110000 		.4byte	.LASF116
 10232 249c 01       		.byte	0x1
 10233 249d 9F02     		.2byte	0x29f
 10234 249f C6000000 		.4byte	0xc6
 10235 24a3 0C0A0000 		.4byte	.LLST64
 10236 24a7 29       		.uleb128 0x29
 10237 24a8 1D0E0000 		.4byte	.LASF115
 10238 24ac 01       		.byte	0x1
 10239 24ad 9F02     		.2byte	0x29f
 10240 24af 4D040000 		.4byte	0x44d
 10241 24b3 2D0A0000 		.4byte	.LLST65
 10242 24b7 3C       		.uleb128 0x3c
 10243 24b8 250B0000 		.4byte	.LASF420
 10244 24bc 01       		.byte	0x1
 10245 24bd A002     		.2byte	0x2a0
 10246 24bf 41250000 		.4byte	0x2541
 10247 24c3 03       		.uleb128 0x3
 10248 24c4 91       		.byte	0x91
 10249 24c5 A07F     		.sleb128 -96
 10250 24c7 32       		.uleb128 0x32
 10251 24c8 0A000000 		.4byte	.LBB17
 10252 24cc 2C000000 		.4byte	.LBE17-.LBB17
 10253 24d0 1E250000 		.4byte	0x251e
 10254 24d4 2A       		.uleb128 0x2a
 10255 24d5 8F160000 		.4byte	.LASF421
 10256 24d9 01       		.byte	0x1
 10257 24da A102     		.2byte	0x2a1
 10258 24dc C6000000 		.4byte	0xc6
 10259 24e0 4E0A0000 		.4byte	.LLST66
 10260 24e4 27       		.uleb128 0x27
 10261 24e5 20000000 		.4byte	.LVL222
 10262 24e9 DB380000 		.4byte	0x38db
 10263 24ed 07250000 		.4byte	0x2507
 10264 24f1 25       		.uleb128 0x25
 10265 24f2 01       		.uleb128 0x1
 10266 24f3 50       		.byte	0x50
 10267 24f4 02       		.uleb128 0x2
 10268 24f5 7D       		.byte	0x7d
 10269 24f6 00       		.sleb128 0
 10270 24f7 25       		.uleb128 0x25
 10271 24f8 01       		.uleb128 0x1
 10272 24f9 51       		.byte	0x51
ARM GAS  C:\Users\chemi\AppData\Local\Temp\ccFrP3K3.s 			page 218


 10273 24fa 05       		.uleb128 0x5
 10274 24fb 03       		.byte	0x3
 10275 24fc 00000000 		.4byte	.LANCHOR0
 10276 2500 25       		.uleb128 0x25
 10277 2501 01       		.uleb128 0x1
 10278 2502 52       		.byte	0x52
 10279 2503 02       		.uleb128 0x2
 10280 2504 75       		.byte	0x75
 10281 2505 00       		.sleb128 0
 10282 2506 00       		.byte	0
 10283 2507 2E       		.uleb128 0x2e
 10284 2508 2C000000 		.4byte	.LVL223
 10285 250c E6380000 		.4byte	0x38e6
 10286 2510 25       		.uleb128 0x25
 10287 2511 01       		.uleb128 0x1
 10288 2512 50       		.byte	0x50
 10289 2513 02       		.uleb128 0x2
 10290 2514 7D       		.byte	0x7d
 10291 2515 00       		.sleb128 0
 10292 2516 25       		.uleb128 0x25
 10293 2517 01       		.uleb128 0x1
 10294 2518 52       		.byte	0x52
 10295 2519 02       		.uleb128 0x2
 10296 251a 76       		.byte	0x76
 10297 251b 00       		.sleb128 0
 10298 251c 00       		.byte	0
 10299 251d 00       		.byte	0
 10300 251e 2E       		.uleb128 0x2e
 10301 251f 40000000 		.4byte	.LVL225
 10302 2523 E6380000 		.4byte	0x38e6
 10303 2527 25       		.uleb128 0x25
 10304 2528 01       		.uleb128 0x1
 10305 2529 50       		.byte	0x50
 10306 252a 05       		.uleb128 0x5
 10307 252b 03       		.byte	0x3
 10308 252c E7030000 		.4byte	.LC41
 10309 2530 25       		.uleb128 0x25
 10310 2531 01       		.uleb128 0x1
 10311 2532 51       		.byte	0x51
 10312 2533 05       		.uleb128 0x5
 10313 2534 03       		.byte	0x3
 10314 2535 E7030000 		.4byte	.LC41
 10315 2539 25       		.uleb128 0x25
 10316 253a 01       		.uleb128 0x1
 10317 253b 52       		.byte	0x52
 10318 253c 02       		.uleb128 0x2
 10319 253d 76       		.byte	0x76
 10320 253e 00       		.sleb128 0
 10321 253f 00       		.byte	0
 10322 2540 00       		.byte	0
 10323 2541 13       		.uleb128 0x13
 10324 2542 15010000 		.4byte	0x115
 10325 2546 51250000 		.4byte	0x2551
 10326 254a 14       		.uleb128 0x14
 10327 254b 2D010000 		.4byte	0x12d
 10328 254f 4F       		.byte	0x4f
 10329 2550 00       		.byte	0
ARM GAS  C:\Users\chemi\AppData\Local\Temp\ccFrP3K3.s 			page 219


 10330 2551 2B       		.uleb128 0x2b
 10331 2552 78160000 		.4byte	.LASF422
 10332 2556 01       		.byte	0x1
 10333 2557 AE02     		.2byte	0x2ae
 10334 2559 C6000000 		.4byte	0xc6
 10335 255d 00000000 		.4byte	.LFB89
 10336 2561 0A000000 		.4byte	.LFE89-.LFB89
 10337 2565 01       		.uleb128 0x1
 10338 2566 9C       		.byte	0x9c
 10339 2567 A5250000 		.4byte	0x25a5
 10340 256b 29       		.uleb128 0x29
 10341 256c 8F130000 		.4byte	.LASF384
 10342 2570 01       		.byte	0x1
 10343 2571 AE02     		.2byte	0x2ae
 10344 2573 47040000 		.4byte	0x447
 10345 2577 850A0000 		.4byte	.LLST67
 10346 257b 29       		.uleb128 0x29
 10347 257c B7110000 		.4byte	.LASF116
 10348 2580 01       		.byte	0x1
 10349 2581 AE02     		.2byte	0x2ae
 10350 2583 C6000000 		.4byte	0xc6
 10351 2587 A60A0000 		.4byte	.LLST68
 10352 258b 29       		.uleb128 0x29
 10353 258c 1D0E0000 		.4byte	.LASF115
 10354 2590 01       		.byte	0x1
 10355 2591 AE02     		.2byte	0x2ae
 10356 2593 4D040000 		.4byte	0x44d
 10357 2597 C70A0000 		.4byte	.LLST69
 10358 259b 2D       		.uleb128 0x2d
 10359 259c 06000000 		.4byte	.LVL228
 10360 25a0 F1380000 		.4byte	0x38f1
 10361 25a4 00       		.byte	0
 10362 25a5 2B       		.uleb128 0x2b
 10363 25a6 7B170000 		.4byte	.LASF423
 10364 25aa 01       		.byte	0x1
 10365 25ab B902     		.2byte	0x2b9
 10366 25ad C6000000 		.4byte	0xc6
 10367 25b1 00000000 		.4byte	.LFB90
 10368 25b5 F8000000 		.4byte	.LFE90-.LFB90
 10369 25b9 01       		.uleb128 0x1
 10370 25ba 9C       		.byte	0x9c
 10371 25bb 6D270000 		.4byte	0x276d
 10372 25bf 29       		.uleb128 0x29
 10373 25c0 8F130000 		.4byte	.LASF384
 10374 25c4 01       		.byte	0x1
 10375 25c5 B902     		.2byte	0x2b9
 10376 25c7 47040000 		.4byte	0x447
 10377 25cb E80A0000 		.4byte	.LLST70
 10378 25cf 29       		.uleb128 0x29
 10379 25d0 B7110000 		.4byte	.LASF116
 10380 25d4 01       		.byte	0x1
 10381 25d5 B902     		.2byte	0x2b9
 10382 25d7 C6000000 		.4byte	0xc6
 10383 25db 140B0000 		.4byte	.LLST71
 10384 25df 29       		.uleb128 0x29
 10385 25e0 1D0E0000 		.4byte	.LASF115
 10386 25e4 01       		.byte	0x1
ARM GAS  C:\Users\chemi\AppData\Local\Temp\ccFrP3K3.s 			page 220


 10387 25e5 B902     		.2byte	0x2b9
 10388 25e7 4D040000 		.4byte	0x44d
 10389 25eb 350B0000 		.4byte	.LLST72
 10390 25ef 27       		.uleb128 0x27
 10391 25f0 10000000 		.4byte	.LVL232
 10392 25f4 A4380000 		.4byte	0x38a4
 10393 25f8 0C260000 		.4byte	0x260c
 10394 25fc 25       		.uleb128 0x25
 10395 25fd 01       		.uleb128 0x1
 10396 25fe 50       		.byte	0x50
 10397 25ff 02       		.uleb128 0x2
 10398 2600 75       		.byte	0x75
 10399 2601 00       		.sleb128 0
 10400 2602 25       		.uleb128 0x25
 10401 2603 01       		.uleb128 0x1
 10402 2604 51       		.byte	0x51
 10403 2605 05       		.uleb128 0x5
 10404 2606 03       		.byte	0x3
 10405 2607 3C030000 		.4byte	.LC31
 10406 260b 00       		.byte	0
 10407 260c 33       		.uleb128 0x33
 10408 260d 1A000000 		.4byte	.LVL233
 10409 2611 1F260000 		.4byte	0x261f
 10410 2615 25       		.uleb128 0x25
 10411 2616 01       		.uleb128 0x1
 10412 2617 51       		.byte	0x51
 10413 2618 05       		.uleb128 0x5
 10414 2619 03       		.byte	0x3
 10415 261a EC030000 		.4byte	.LC42
 10416 261e 00       		.byte	0
 10417 261f 27       		.uleb128 0x27
 10418 2620 24000000 		.4byte	.LVL234
 10419 2624 A4380000 		.4byte	0x38a4
 10420 2628 3C260000 		.4byte	0x263c
 10421 262c 25       		.uleb128 0x25
 10422 262d 01       		.uleb128 0x1
 10423 262e 50       		.byte	0x50
 10424 262f 02       		.uleb128 0x2
 10425 2630 75       		.byte	0x75
 10426 2631 00       		.sleb128 0
 10427 2632 25       		.uleb128 0x25
 10428 2633 01       		.uleb128 0x1
 10429 2634 51       		.byte	0x51
 10430 2635 05       		.uleb128 0x5
 10431 2636 03       		.byte	0x3
 10432 2637 0A040000 		.4byte	.LC43
 10433 263b 00       		.byte	0
 10434 263c 2D       		.uleb128 0x2d
 10435 263d 2C000000 		.4byte	.LVL235
 10436 2641 FC380000 		.4byte	0x38fc
 10437 2645 2D       		.uleb128 0x2d
 10438 2646 30000000 		.4byte	.LVL236
 10439 264a 07390000 		.4byte	0x3907
 10440 264e 2D       		.uleb128 0x2d
 10441 264f 38000000 		.4byte	.LVL237
 10442 2653 12390000 		.4byte	0x3912
 10443 2657 27       		.uleb128 0x27
ARM GAS  C:\Users\chemi\AppData\Local\Temp\ccFrP3K3.s 			page 221


 10444 2658 4A000000 		.4byte	.LVL238
 10445 265c 83380000 		.4byte	0x3883
 10446 2660 75260000 		.4byte	0x2675
 10447 2664 25       		.uleb128 0x25
 10448 2665 01       		.uleb128 0x1
 10449 2666 50       		.byte	0x50
 10450 2667 02       		.uleb128 0x2
 10451 2668 74       		.byte	0x74
 10452 2669 00       		.sleb128 0
 10453 266a 25       		.uleb128 0x25
 10454 266b 01       		.uleb128 0x1
 10455 266c 51       		.byte	0x51
 10456 266d 01       		.uleb128 0x1
 10457 266e 32       		.byte	0x32
 10458 266f 25       		.uleb128 0x25
 10459 2670 01       		.uleb128 0x1
 10460 2671 52       		.byte	0x52
 10461 2672 01       		.uleb128 0x1
 10462 2673 32       		.byte	0x32
 10463 2674 00       		.byte	0
 10464 2675 33       		.uleb128 0x33
 10465 2676 52000000 		.4byte	.LVL239
 10466 267a 88260000 		.4byte	0x2688
 10467 267e 25       		.uleb128 0x25
 10468 267f 01       		.uleb128 0x1
 10469 2680 51       		.byte	0x51
 10470 2681 05       		.uleb128 0x5
 10471 2682 03       		.byte	0x3
 10472 2683 0E040000 		.4byte	.LC44
 10473 2687 00       		.byte	0
 10474 2688 27       		.uleb128 0x27
 10475 2689 64000000 		.4byte	.LVL240
 10476 268d A4380000 		.4byte	0x38a4
 10477 2691 A5260000 		.4byte	0x26a5
 10478 2695 25       		.uleb128 0x25
 10479 2696 01       		.uleb128 0x1
 10480 2697 50       		.byte	0x50
 10481 2698 02       		.uleb128 0x2
 10482 2699 75       		.byte	0x75
 10483 269a 00       		.sleb128 0
 10484 269b 25       		.uleb128 0x25
 10485 269c 01       		.uleb128 0x1
 10486 269d 51       		.byte	0x51
 10487 269e 05       		.uleb128 0x5
 10488 269f 03       		.byte	0x3
 10489 26a0 2F040000 		.4byte	.LC46
 10490 26a4 00       		.byte	0
 10491 26a5 2D       		.uleb128 0x2d
 10492 26a6 6C000000 		.4byte	.LVL241
 10493 26aa 1D390000 		.4byte	0x391d
 10494 26ae 2D       		.uleb128 0x2d
 10495 26af 70000000 		.4byte	.LVL242
 10496 26b3 28390000 		.4byte	0x3928
 10497 26b7 27       		.uleb128 0x27
 10498 26b8 76000000 		.4byte	.LVL243
 10499 26bc 33390000 		.4byte	0x3933
 10500 26c0 CA260000 		.4byte	0x26ca
ARM GAS  C:\Users\chemi\AppData\Local\Temp\ccFrP3K3.s 			page 222


 10501 26c4 25       		.uleb128 0x25
 10502 26c5 01       		.uleb128 0x1
 10503 26c6 50       		.byte	0x50
 10504 26c7 01       		.uleb128 0x1
 10505 26c8 31       		.byte	0x31
 10506 26c9 00       		.byte	0
 10507 26ca 27       		.uleb128 0x27
 10508 26cb 80000000 		.4byte	.LVL244
 10509 26cf 83380000 		.4byte	0x3883
 10510 26d3 E8260000 		.4byte	0x26e8
 10511 26d7 25       		.uleb128 0x25
 10512 26d8 01       		.uleb128 0x1
 10513 26d9 50       		.byte	0x50
 10514 26da 02       		.uleb128 0x2
 10515 26db 74       		.byte	0x74
 10516 26dc 00       		.sleb128 0
 10517 26dd 25       		.uleb128 0x25
 10518 26de 01       		.uleb128 0x1
 10519 26df 51       		.byte	0x51
 10520 26e0 01       		.uleb128 0x1
 10521 26e1 32       		.byte	0x32
 10522 26e2 25       		.uleb128 0x25
 10523 26e3 01       		.uleb128 0x1
 10524 26e4 52       		.byte	0x52
 10525 26e5 01       		.uleb128 0x1
 10526 26e6 32       		.byte	0x32
 10527 26e7 00       		.byte	0
 10528 26e8 33       		.uleb128 0x33
 10529 26e9 88000000 		.4byte	.LVL245
 10530 26ed FB260000 		.4byte	0x26fb
 10531 26f1 25       		.uleb128 0x25
 10532 26f2 01       		.uleb128 0x1
 10533 26f3 51       		.byte	0x51
 10534 26f4 05       		.uleb128 0x5
 10535 26f5 03       		.byte	0x3
 10536 26f6 35040000 		.4byte	.LC47
 10537 26fa 00       		.byte	0
 10538 26fb 2D       		.uleb128 0x2d
 10539 26fc 94000000 		.4byte	.LVL246
 10540 2700 3E390000 		.4byte	0x393e
 10541 2704 27       		.uleb128 0x27
 10542 2705 9E000000 		.4byte	.LVL247
 10543 2709 A4380000 		.4byte	0x38a4
 10544 270d 21270000 		.4byte	0x2721
 10545 2711 25       		.uleb128 0x25
 10546 2712 01       		.uleb128 0x1
 10547 2713 50       		.byte	0x50
 10548 2714 02       		.uleb128 0x2
 10549 2715 75       		.byte	0x75
 10550 2716 00       		.sleb128 0
 10551 2717 25       		.uleb128 0x25
 10552 2718 01       		.uleb128 0x1
 10553 2719 51       		.byte	0x51
 10554 271a 05       		.uleb128 0x5
 10555 271b 03       		.byte	0x3
 10556 271c 59040000 		.4byte	.LC49
 10557 2720 00       		.byte	0
ARM GAS  C:\Users\chemi\AppData\Local\Temp\ccFrP3K3.s 			page 223


 10558 2721 27       		.uleb128 0x27
 10559 2722 AA000000 		.4byte	.LVL248
 10560 2726 83380000 		.4byte	0x3883
 10561 272a 3F270000 		.4byte	0x273f
 10562 272e 25       		.uleb128 0x25
 10563 272f 01       		.uleb128 0x1
 10564 2730 50       		.byte	0x50
 10565 2731 02       		.uleb128 0x2
 10566 2732 74       		.byte	0x74
 10567 2733 00       		.sleb128 0
 10568 2734 25       		.uleb128 0x25
 10569 2735 01       		.uleb128 0x1
 10570 2736 51       		.byte	0x51
 10571 2737 01       		.uleb128 0x1
 10572 2738 32       		.byte	0x32
 10573 2739 25       		.uleb128 0x25
 10574 273a 01       		.uleb128 0x1
 10575 273b 52       		.byte	0x52
 10576 273c 01       		.uleb128 0x1
 10577 273d 31       		.byte	0x31
 10578 273e 00       		.byte	0
 10579 273f 33       		.uleb128 0x33
 10580 2740 B6000000 		.4byte	.LVL249
 10581 2744 52270000 		.4byte	0x2752
 10582 2748 25       		.uleb128 0x25
 10583 2749 01       		.uleb128 0x1
 10584 274a 51       		.byte	0x51
 10585 274b 05       		.uleb128 0x5
 10586 274c 03       		.byte	0x3
 10587 274d 5D040000 		.4byte	.LC50
 10588 2751 00       		.byte	0
 10589 2752 2E       		.uleb128 0x2e
 10590 2753 C0000000 		.4byte	.LVL250
 10591 2757 83380000 		.4byte	0x3883
 10592 275b 25       		.uleb128 0x25
 10593 275c 01       		.uleb128 0x1
 10594 275d 50       		.byte	0x50
 10595 275e 02       		.uleb128 0x2
 10596 275f 74       		.byte	0x74
 10597 2760 00       		.sleb128 0
 10598 2761 25       		.uleb128 0x25
 10599 2762 01       		.uleb128 0x1
 10600 2763 51       		.byte	0x51
 10601 2764 01       		.uleb128 0x1
 10602 2765 32       		.byte	0x32
 10603 2766 25       		.uleb128 0x25
 10604 2767 01       		.uleb128 0x1
 10605 2768 52       		.byte	0x52
 10606 2769 01       		.uleb128 0x1
 10607 276a 37       		.byte	0x37
 10608 276b 00       		.byte	0
 10609 276c 00       		.byte	0
 10610 276d 2B       		.uleb128 0x2b
 10611 276e 3C120000 		.4byte	.LASF424
 10612 2772 01       		.byte	0x1
 10613 2773 E402     		.2byte	0x2e4
 10614 2775 C6000000 		.4byte	0xc6
ARM GAS  C:\Users\chemi\AppData\Local\Temp\ccFrP3K3.s 			page 224


 10615 2779 00000000 		.4byte	.LFB91
 10616 277d 8C000000 		.4byte	.LFE91-.LFB91
 10617 2781 01       		.uleb128 0x1
 10618 2782 9C       		.byte	0x9c
 10619 2783 A0280000 		.4byte	0x28a0
 10620 2787 29       		.uleb128 0x29
 10621 2788 8F130000 		.4byte	.LASF384
 10622 278c 01       		.byte	0x1
 10623 278d E402     		.2byte	0x2e4
 10624 278f 47040000 		.4byte	0x447
 10625 2793 560B0000 		.4byte	.LLST73
 10626 2797 29       		.uleb128 0x29
 10627 2798 B7110000 		.4byte	.LASF116
 10628 279c 01       		.byte	0x1
 10629 279d E402     		.2byte	0x2e4
 10630 279f C6000000 		.4byte	0xc6
 10631 27a3 A30B0000 		.4byte	.LLST74
 10632 27a7 29       		.uleb128 0x29
 10633 27a8 1D0E0000 		.4byte	.LASF115
 10634 27ac 01       		.byte	0x1
 10635 27ad E402     		.2byte	0x2e4
 10636 27af 4D040000 		.4byte	0x44d
 10637 27b3 DD0B0000 		.4byte	.LLST75
 10638 27b7 3D       		.uleb128 0x3d
 10639 27b8 18000000 		.4byte	.Ldebug_ranges0+0x18
 10640 27bc 01280000 		.4byte	0x2801
 10641 27c0 2A       		.uleb128 0x2a
 10642 27c1 8F160000 		.4byte	.LASF421
 10643 27c5 01       		.byte	0x1
 10644 27c6 F002     		.2byte	0x2f0
 10645 27c8 C6000000 		.4byte	0xc6
 10646 27cc 170C0000 		.4byte	.LLST76
 10647 27d0 27       		.uleb128 0x27
 10648 27d1 46000000 		.4byte	.LVL264
 10649 27d5 A4380000 		.4byte	0x38a4
 10650 27d9 E4270000 		.4byte	0x27e4
 10651 27dd 25       		.uleb128 0x25
 10652 27de 01       		.uleb128 0x1
 10653 27df 50       		.byte	0x50
 10654 27e0 02       		.uleb128 0x2
 10655 27e1 76       		.byte	0x76
 10656 27e2 00       		.sleb128 0
 10657 27e3 00       		.byte	0
 10658 27e4 2E       		.uleb128 0x2e
 10659 27e5 52000000 		.4byte	.LVL265
 10660 27e9 49390000 		.4byte	0x3949
 10661 27ed 25       		.uleb128 0x25
 10662 27ee 01       		.uleb128 0x1
 10663 27ef 50       		.byte	0x50
 10664 27f0 02       		.uleb128 0x2
 10665 27f1 77       		.byte	0x77
 10666 27f2 00       		.sleb128 0
 10667 27f3 25       		.uleb128 0x25
 10668 27f4 01       		.uleb128 0x1
 10669 27f5 51       		.byte	0x51
 10670 27f6 02       		.uleb128 0x2
 10671 27f7 79       		.byte	0x79
ARM GAS  C:\Users\chemi\AppData\Local\Temp\ccFrP3K3.s 			page 225


 10672 27f8 00       		.sleb128 0
 10673 27f9 25       		.uleb128 0x25
 10674 27fa 01       		.uleb128 0x1
 10675 27fb 52       		.byte	0x52
 10676 27fc 02       		.uleb128 0x2
 10677 27fd 74       		.byte	0x74
 10678 27fe 00       		.sleb128 0
 10679 27ff 00       		.byte	0
 10680 2800 00       		.byte	0
 10681 2801 27       		.uleb128 0x27
 10682 2802 12000000 		.4byte	.LVL256
 10683 2806 54390000 		.4byte	0x3954
 10684 280a 24280000 		.4byte	0x2824
 10685 280e 25       		.uleb128 0x25
 10686 280f 01       		.uleb128 0x1
 10687 2810 50       		.byte	0x50
 10688 2811 05       		.uleb128 0x5
 10689 2812 03       		.byte	0x3
 10690 2813 00000000 		.4byte	.LANCHOR0
 10691 2817 25       		.uleb128 0x25
 10692 2818 01       		.uleb128 0x1
 10693 2819 51       		.byte	0x51
 10694 281a 02       		.uleb128 0x2
 10695 281b 08       		.byte	0x8
 10696 281c 50       		.byte	0x50
 10697 281d 25       		.uleb128 0x25
 10698 281e 01       		.uleb128 0x1
 10699 281f 52       		.byte	0x52
 10700 2820 02       		.uleb128 0x2
 10701 2821 74       		.byte	0x74
 10702 2822 00       		.sleb128 0
 10703 2823 00       		.byte	0
 10704 2824 27       		.uleb128 0x27
 10705 2825 1E000000 		.4byte	.LVL260
 10706 2829 A4380000 		.4byte	0x38a4
 10707 282d 41280000 		.4byte	0x2841
 10708 2831 25       		.uleb128 0x25
 10709 2832 01       		.uleb128 0x1
 10710 2833 50       		.byte	0x50
 10711 2834 02       		.uleb128 0x2
 10712 2835 76       		.byte	0x76
 10713 2836 00       		.sleb128 0
 10714 2837 25       		.uleb128 0x25
 10715 2838 01       		.uleb128 0x1
 10716 2839 51       		.byte	0x51
 10717 283a 05       		.uleb128 0x5
 10718 283b 03       		.byte	0x3
 10719 283c 3C030000 		.4byte	.LC31
 10720 2840 00       		.byte	0
 10721 2841 33       		.uleb128 0x33
 10722 2842 28000000 		.4byte	.LVL261
 10723 2846 54280000 		.4byte	0x2854
 10724 284a 25       		.uleb128 0x25
 10725 284b 01       		.uleb128 0x1
 10726 284c 51       		.byte	0x51
 10727 284d 05       		.uleb128 0x5
 10728 284e 03       		.byte	0x3
ARM GAS  C:\Users\chemi\AppData\Local\Temp\ccFrP3K3.s 			page 226


 10729 284f 6B040000 		.4byte	.LC51
 10730 2853 00       		.byte	0
 10731 2854 27       		.uleb128 0x27
 10732 2855 64000000 		.4byte	.LVL268
 10733 2859 83380000 		.4byte	0x3883
 10734 285d 72280000 		.4byte	0x2872
 10735 2861 25       		.uleb128 0x25
 10736 2862 01       		.uleb128 0x1
 10737 2863 50       		.byte	0x50
 10738 2864 02       		.uleb128 0x2
 10739 2865 74       		.byte	0x74
 10740 2866 00       		.sleb128 0
 10741 2867 25       		.uleb128 0x25
 10742 2868 01       		.uleb128 0x1
 10743 2869 51       		.byte	0x51
 10744 286a 01       		.uleb128 0x1
 10745 286b 32       		.byte	0x32
 10746 286c 25       		.uleb128 0x25
 10747 286d 01       		.uleb128 0x1
 10748 286e 52       		.byte	0x52
 10749 286f 01       		.uleb128 0x1
 10750 2870 31       		.byte	0x31
 10751 2871 00       		.byte	0
 10752 2872 33       		.uleb128 0x33
 10753 2873 6C000000 		.4byte	.LVL269
 10754 2877 85280000 		.4byte	0x2885
 10755 287b 25       		.uleb128 0x25
 10756 287c 01       		.uleb128 0x1
 10757 287d 51       		.byte	0x51
 10758 287e 05       		.uleb128 0x5
 10759 287f 03       		.byte	0x3
 10760 2880 84040000 		.4byte	.LC52
 10761 2884 00       		.byte	0
 10762 2885 2E       		.uleb128 0x2e
 10763 2886 76000000 		.4byte	.LVL270
 10764 288a 83380000 		.4byte	0x3883
 10765 288e 25       		.uleb128 0x25
 10766 288f 01       		.uleb128 0x1
 10767 2890 50       		.byte	0x50
 10768 2891 02       		.uleb128 0x2
 10769 2892 74       		.byte	0x74
 10770 2893 00       		.sleb128 0
 10771 2894 25       		.uleb128 0x25
 10772 2895 01       		.uleb128 0x1
 10773 2896 51       		.byte	0x51
 10774 2897 01       		.uleb128 0x1
 10775 2898 32       		.byte	0x32
 10776 2899 25       		.uleb128 0x25
 10777 289a 01       		.uleb128 0x1
 10778 289b 52       		.byte	0x52
 10779 289c 01       		.uleb128 0x1
 10780 289d 37       		.byte	0x37
 10781 289e 00       		.byte	0
 10782 289f 00       		.byte	0
 10783 28a0 39       		.uleb128 0x39
 10784 28a1 1F110000 		.4byte	.LASF425
 10785 28a5 01       		.byte	0x1
ARM GAS  C:\Users\chemi\AppData\Local\Temp\ccFrP3K3.s 			page 227


 10786 28a6 0003     		.2byte	0x300
 10787 28a8 C6000000 		.4byte	0xc6
 10788 28ac 00000000 		.4byte	.LFB92
 10789 28b0 C4000000 		.4byte	.LFE92-.LFB92
 10790 28b4 01       		.uleb128 0x1
 10791 28b5 9C       		.byte	0x9c
 10792 28b6 FA290000 		.4byte	0x29fa
 10793 28ba 29       		.uleb128 0x29
 10794 28bb 8F130000 		.4byte	.LASF384
 10795 28bf 01       		.byte	0x1
 10796 28c0 0003     		.2byte	0x300
 10797 28c2 47040000 		.4byte	0x447
 10798 28c6 440C0000 		.4byte	.LLST77
 10799 28ca 29       		.uleb128 0x29
 10800 28cb B7110000 		.4byte	.LASF116
 10801 28cf 01       		.byte	0x1
 10802 28d0 0003     		.2byte	0x300
 10803 28d2 C6000000 		.4byte	0xc6
 10804 28d6 860C0000 		.4byte	.LLST78
 10805 28da 29       		.uleb128 0x29
 10806 28db 1D0E0000 		.4byte	.LASF115
 10807 28df 01       		.byte	0x1
 10808 28e0 0003     		.2byte	0x300
 10809 28e2 4D040000 		.4byte	0x44d
 10810 28e6 C00C0000 		.4byte	.LLST79
 10811 28ea 32       		.uleb128 0x32
 10812 28eb 16000000 		.4byte	.LBB20
 10813 28ef 74000000 		.4byte	.LBE20-.LBB20
 10814 28f3 AE290000 		.4byte	0x29ae
 10815 28f7 2A       		.uleb128 0x2a
 10816 28f8 8F160000 		.4byte	.LASF421
 10817 28fc 01       		.byte	0x1
 10818 28fd 0703     		.2byte	0x307
 10819 28ff C6000000 		.4byte	0xc6
 10820 2903 020D0000 		.4byte	.LLST80
 10821 2907 27       		.uleb128 0x27
 10822 2908 34000000 		.4byte	.LVL279
 10823 290c A4380000 		.4byte	0x38a4
 10824 2910 1B290000 		.4byte	0x291b
 10825 2914 25       		.uleb128 0x25
 10826 2915 01       		.uleb128 0x1
 10827 2916 50       		.byte	0x50
 10828 2917 02       		.uleb128 0x2
 10829 2918 79       		.byte	0x79
 10830 2919 00       		.sleb128 0
 10831 291a 00       		.byte	0
 10832 291b 27       		.uleb128 0x27
 10833 291c 42000000 		.4byte	.LVL280
 10834 2920 5F390000 		.4byte	0x395f
 10835 2924 3B290000 		.4byte	0x293b
 10836 2928 25       		.uleb128 0x25
 10837 2929 01       		.uleb128 0x1
 10838 292a 50       		.byte	0x50
 10839 292b 02       		.uleb128 0x2
 10840 292c 7A       		.byte	0x7a
 10841 292d 00       		.sleb128 0
 10842 292e 25       		.uleb128 0x25
ARM GAS  C:\Users\chemi\AppData\Local\Temp\ccFrP3K3.s 			page 228


 10843 292f 01       		.uleb128 0x1
 10844 2930 52       		.byte	0x52
 10845 2931 02       		.uleb128 0x2
 10846 2932 77       		.byte	0x77
 10847 2933 00       		.sleb128 0
 10848 2934 25       		.uleb128 0x25
 10849 2935 01       		.uleb128 0x1
 10850 2936 53       		.byte	0x53
 10851 2937 02       		.uleb128 0x2
 10852 2938 74       		.byte	0x74
 10853 2939 00       		.sleb128 0
 10854 293a 00       		.byte	0
 10855 293b 33       		.uleb128 0x33
 10856 293c 52000000 		.4byte	.LVL281
 10857 2940 57290000 		.4byte	0x2957
 10858 2944 25       		.uleb128 0x25
 10859 2945 01       		.uleb128 0x1
 10860 2946 50       		.byte	0x50
 10861 2947 02       		.uleb128 0x2
 10862 2948 7A       		.byte	0x7a
 10863 2949 00       		.sleb128 0
 10864 294a 25       		.uleb128 0x25
 10865 294b 01       		.uleb128 0x1
 10866 294c 51       		.byte	0x51
 10867 294d 02       		.uleb128 0x2
 10868 294e 77       		.byte	0x77
 10869 294f 00       		.sleb128 0
 10870 2950 25       		.uleb128 0x25
 10871 2951 01       		.uleb128 0x1
 10872 2952 52       		.byte	0x52
 10873 2953 02       		.uleb128 0x2
 10874 2954 74       		.byte	0x74
 10875 2955 00       		.sleb128 0
 10876 2956 00       		.byte	0
 10877 2957 27       		.uleb128 0x27
 10878 2958 5E000000 		.4byte	.LVL282
 10879 295c 83380000 		.4byte	0x3883
 10880 2960 75290000 		.4byte	0x2975
 10881 2964 25       		.uleb128 0x25
 10882 2965 01       		.uleb128 0x1
 10883 2966 50       		.byte	0x50
 10884 2967 02       		.uleb128 0x2
 10885 2968 74       		.byte	0x74
 10886 2969 00       		.sleb128 0
 10887 296a 25       		.uleb128 0x25
 10888 296b 01       		.uleb128 0x1
 10889 296c 51       		.byte	0x51
 10890 296d 01       		.uleb128 0x1
 10891 296e 32       		.byte	0x32
 10892 296f 25       		.uleb128 0x25
 10893 2970 01       		.uleb128 0x1
 10894 2971 52       		.byte	0x52
 10895 2972 01       		.uleb128 0x1
 10896 2973 31       		.byte	0x31
 10897 2974 00       		.byte	0
 10898 2975 27       		.uleb128 0x27
 10899 2976 6E000000 		.4byte	.LVL283
ARM GAS  C:\Users\chemi\AppData\Local\Temp\ccFrP3K3.s 			page 229


 10900 297a 83380000 		.4byte	0x3883
 10901 297e 93290000 		.4byte	0x2993
 10902 2982 25       		.uleb128 0x25
 10903 2983 01       		.uleb128 0x1
 10904 2984 50       		.byte	0x50
 10905 2985 02       		.uleb128 0x2
 10906 2986 74       		.byte	0x74
 10907 2987 00       		.sleb128 0
 10908 2988 25       		.uleb128 0x25
 10909 2989 01       		.uleb128 0x1
 10910 298a 51       		.byte	0x51
 10911 298b 01       		.uleb128 0x1
 10912 298c 32       		.byte	0x32
 10913 298d 25       		.uleb128 0x25
 10914 298e 01       		.uleb128 0x1
 10915 298f 52       		.byte	0x52
 10916 2990 01       		.uleb128 0x1
 10917 2991 32       		.byte	0x32
 10918 2992 00       		.byte	0
 10919 2993 2E       		.uleb128 0x2e
 10920 2994 7E000000 		.4byte	.LVL284
 10921 2998 83380000 		.4byte	0x3883
 10922 299c 25       		.uleb128 0x25
 10923 299d 01       		.uleb128 0x1
 10924 299e 50       		.byte	0x50
 10925 299f 02       		.uleb128 0x2
 10926 29a0 74       		.byte	0x74
 10927 29a1 00       		.sleb128 0
 10928 29a2 25       		.uleb128 0x25
 10929 29a3 01       		.uleb128 0x1
 10930 29a4 51       		.byte	0x51
 10931 29a5 01       		.uleb128 0x1
 10932 29a6 32       		.byte	0x32
 10933 29a7 25       		.uleb128 0x25
 10934 29a8 01       		.uleb128 0x1
 10935 29a9 52       		.byte	0x52
 10936 29aa 01       		.uleb128 0x1
 10937 29ab 31       		.byte	0x31
 10938 29ac 00       		.byte	0
 10939 29ad 00       		.byte	0
 10940 29ae 33       		.uleb128 0x33
 10941 29af 14000000 		.4byte	.LVL275
 10942 29b3 C1290000 		.4byte	0x29c1
 10943 29b7 25       		.uleb128 0x25
 10944 29b8 01       		.uleb128 0x1
 10945 29b9 51       		.byte	0x51
 10946 29ba 05       		.uleb128 0x5
 10947 29bb 03       		.byte	0x3
 10948 29bc 97040000 		.4byte	.LC53
 10949 29c0 00       		.byte	0
 10950 29c1 27       		.uleb128 0x27
 10951 29c2 94000000 		.4byte	.LVL287
 10952 29c6 83380000 		.4byte	0x3883
 10953 29ca DF290000 		.4byte	0x29df
 10954 29ce 25       		.uleb128 0x25
 10955 29cf 01       		.uleb128 0x1
 10956 29d0 50       		.byte	0x50
ARM GAS  C:\Users\chemi\AppData\Local\Temp\ccFrP3K3.s 			page 230


 10957 29d1 02       		.uleb128 0x2
 10958 29d2 74       		.byte	0x74
 10959 29d3 00       		.sleb128 0
 10960 29d4 25       		.uleb128 0x25
 10961 29d5 01       		.uleb128 0x1
 10962 29d6 51       		.byte	0x51
 10963 29d7 01       		.uleb128 0x1
 10964 29d8 32       		.byte	0x32
 10965 29d9 25       		.uleb128 0x25
 10966 29da 01       		.uleb128 0x1
 10967 29db 52       		.byte	0x52
 10968 29dc 01       		.uleb128 0x1
 10969 29dd 31       		.byte	0x31
 10970 29de 00       		.byte	0
 10971 29df 2E       		.uleb128 0x2e
 10972 29e0 A6000000 		.4byte	.LVL290
 10973 29e4 83380000 		.4byte	0x3883
 10974 29e8 25       		.uleb128 0x25
 10975 29e9 01       		.uleb128 0x1
 10976 29ea 50       		.byte	0x50
 10977 29eb 02       		.uleb128 0x2
 10978 29ec 74       		.byte	0x74
 10979 29ed 00       		.sleb128 0
 10980 29ee 25       		.uleb128 0x25
 10981 29ef 01       		.uleb128 0x1
 10982 29f0 51       		.byte	0x51
 10983 29f1 01       		.uleb128 0x1
 10984 29f2 32       		.byte	0x32
 10985 29f3 25       		.uleb128 0x25
 10986 29f4 01       		.uleb128 0x1
 10987 29f5 52       		.byte	0x52
 10988 29f6 01       		.uleb128 0x1
 10989 29f7 37       		.byte	0x37
 10990 29f8 00       		.byte	0
 10991 29f9 00       		.byte	0
 10992 29fa 2B       		.uleb128 0x2b
 10993 29fb AB120000 		.4byte	.LASF426
 10994 29ff 01       		.byte	0x1
 10995 2a00 3003     		.2byte	0x330
 10996 2a02 C6000000 		.4byte	0xc6
 10997 2a06 00000000 		.4byte	.LFB93
 10998 2a0a 94000000 		.4byte	.LFE93-.LFB93
 10999 2a0e 01       		.uleb128 0x1
 11000 2a0f 9C       		.byte	0x9c
 11001 2a10 682B0000 		.4byte	0x2b68
 11002 2a14 29       		.uleb128 0x29
 11003 2a15 8F130000 		.4byte	.LASF384
 11004 2a19 01       		.byte	0x1
 11005 2a1a 3003     		.2byte	0x330
 11006 2a1c 47040000 		.4byte	0x447
 11007 2a20 2F0D0000 		.4byte	.LLST81
 11008 2a24 29       		.uleb128 0x29
 11009 2a25 B7110000 		.4byte	.LASF116
 11010 2a29 01       		.byte	0x1
 11011 2a2a 3003     		.2byte	0x330
 11012 2a2c C6000000 		.4byte	0xc6
 11013 2a30 5B0D0000 		.4byte	.LLST82
ARM GAS  C:\Users\chemi\AppData\Local\Temp\ccFrP3K3.s 			page 231


 11014 2a34 29       		.uleb128 0x29
 11015 2a35 1D0E0000 		.4byte	.LASF115
 11016 2a39 01       		.byte	0x1
 11017 2a3a 3003     		.2byte	0x330
 11018 2a3c 4D040000 		.4byte	0x44d
 11019 2a40 7C0D0000 		.4byte	.LLST83
 11020 2a44 2A       		.uleb128 0x2a
 11021 2a45 31180000 		.4byte	.LASF396
 11022 2a49 01       		.byte	0x1
 11023 2a4a 3603     		.2byte	0x336
 11024 2a4c FD000000 		.4byte	0xfd
 11025 2a50 A80D0000 		.4byte	.LLST84
 11026 2a54 27       		.uleb128 0x27
 11027 2a55 10000000 		.4byte	.LVL295
 11028 2a59 A4380000 		.4byte	0x38a4
 11029 2a5d 6B2A0000 		.4byte	0x2a6b
 11030 2a61 25       		.uleb128 0x25
 11031 2a62 01       		.uleb128 0x1
 11032 2a63 51       		.byte	0x51
 11033 2a64 05       		.uleb128 0x5
 11034 2a65 03       		.byte	0x3
 11035 2a66 3C030000 		.4byte	.LC31
 11036 2a6a 00       		.byte	0
 11037 2a6b 33       		.uleb128 0x33
 11038 2a6c 1A000000 		.4byte	.LVL296
 11039 2a70 7E2A0000 		.4byte	0x2a7e
 11040 2a74 25       		.uleb128 0x25
 11041 2a75 01       		.uleb128 0x1
 11042 2a76 51       		.byte	0x51
 11043 2a77 05       		.uleb128 0x5
 11044 2a78 03       		.byte	0x3
 11045 2a79 D5040000 		.4byte	.LC57
 11046 2a7d 00       		.byte	0
 11047 2a7e 2D       		.uleb128 0x2d
 11048 2a7f 20000000 		.4byte	.LVL297
 11049 2a83 6A390000 		.4byte	0x396a
 11050 2a87 2D       		.uleb128 0x2d
 11051 2a88 24000000 		.4byte	.LVL298
 11052 2a8c 86370000 		.4byte	0x3786
 11053 2a90 27       		.uleb128 0x27
 11054 2a91 2C000000 		.4byte	.LVL300
 11055 2a95 91370000 		.4byte	0x3791
 11056 2a99 A32A0000 		.4byte	0x2aa3
 11057 2a9d 25       		.uleb128 0x25
 11058 2a9e 01       		.uleb128 0x1
 11059 2a9f 50       		.byte	0x50
 11060 2aa0 01       		.uleb128 0x1
 11061 2aa1 31       		.byte	0x31
 11062 2aa2 00       		.byte	0
 11063 2aa3 27       		.uleb128 0x27
 11064 2aa4 36000000 		.4byte	.LVL302
 11065 2aa8 A4380000 		.4byte	0x38a4
 11066 2aac C02A0000 		.4byte	0x2ac0
 11067 2ab0 25       		.uleb128 0x25
 11068 2ab1 01       		.uleb128 0x1
 11069 2ab2 50       		.byte	0x50
 11070 2ab3 02       		.uleb128 0x2
ARM GAS  C:\Users\chemi\AppData\Local\Temp\ccFrP3K3.s 			page 232


 11071 2ab4 75       		.byte	0x75
 11072 2ab5 00       		.sleb128 0
 11073 2ab6 25       		.uleb128 0x25
 11074 2ab7 01       		.uleb128 0x1
 11075 2ab8 51       		.byte	0x51
 11076 2ab9 05       		.uleb128 0x5
 11077 2aba 03       		.byte	0x3
 11078 2abb F1040000 		.4byte	.LC58
 11079 2abf 00       		.byte	0
 11080 2ac0 27       		.uleb128 0x27
 11081 2ac1 44000000 		.4byte	.LVL303
 11082 2ac5 75390000 		.4byte	0x3975
 11083 2ac9 E32A0000 		.4byte	0x2ae3
 11084 2acd 25       		.uleb128 0x25
 11085 2ace 01       		.uleb128 0x1
 11086 2acf 50       		.byte	0x50
 11087 2ad0 05       		.uleb128 0x5
 11088 2ad1 03       		.byte	0x3
 11089 2ad2 00000000 		.4byte	.LANCHOR0
 11090 2ad6 25       		.uleb128 0x25
 11091 2ad7 01       		.uleb128 0x1
 11092 2ad8 51       		.byte	0x51
 11093 2ad9 02       		.uleb128 0x2
 11094 2ada 08       		.byte	0x8
 11095 2adb 50       		.byte	0x50
 11096 2adc 25       		.uleb128 0x25
 11097 2add 01       		.uleb128 0x1
 11098 2ade 52       		.byte	0x52
 11099 2adf 02       		.uleb128 0x2
 11100 2ae0 74       		.byte	0x74
 11101 2ae1 00       		.sleb128 0
 11102 2ae2 00       		.byte	0
 11103 2ae3 27       		.uleb128 0x27
 11104 2ae4 50000000 		.4byte	.LVL304
 11105 2ae8 80390000 		.4byte	0x3980
 11106 2aec 0C2B0000 		.4byte	0x2b0c
 11107 2af0 25       		.uleb128 0x25
 11108 2af1 01       		.uleb128 0x1
 11109 2af2 50       		.byte	0x50
 11110 2af3 05       		.uleb128 0x5
 11111 2af4 03       		.byte	0x3
 11112 2af5 00000000 		.4byte	.LANCHOR0
 11113 2af9 25       		.uleb128 0x25
 11114 2afa 01       		.uleb128 0x1
 11115 2afb 51       		.byte	0x51
 11116 2afc 02       		.uleb128 0x2
 11117 2afd 08       		.byte	0x8
 11118 2afe 50       		.byte	0x50
 11119 2aff 25       		.uleb128 0x25
 11120 2b00 01       		.uleb128 0x1
 11121 2b01 52       		.byte	0x52
 11122 2b02 02       		.uleb128 0x2
 11123 2b03 76       		.byte	0x76
 11124 2b04 00       		.sleb128 0
 11125 2b05 25       		.uleb128 0x25
 11126 2b06 01       		.uleb128 0x1
 11127 2b07 53       		.byte	0x53
ARM GAS  C:\Users\chemi\AppData\Local\Temp\ccFrP3K3.s 			page 233


 11128 2b08 02       		.uleb128 0x2
 11129 2b09 74       		.byte	0x74
 11130 2b0a 00       		.sleb128 0
 11131 2b0b 00       		.byte	0
 11132 2b0c 27       		.uleb128 0x27
 11133 2b0d 5A000000 		.4byte	.LVL305
 11134 2b11 A4380000 		.4byte	0x38a4
 11135 2b15 292B0000 		.4byte	0x2b29
 11136 2b19 25       		.uleb128 0x25
 11137 2b1a 01       		.uleb128 0x1
 11138 2b1b 50       		.byte	0x50
 11139 2b1c 02       		.uleb128 0x2
 11140 2b1d 75       		.byte	0x75
 11141 2b1e 00       		.sleb128 0
 11142 2b1f 25       		.uleb128 0x25
 11143 2b20 01       		.uleb128 0x1
 11144 2b21 51       		.byte	0x51
 11145 2b22 05       		.uleb128 0x5
 11146 2b23 03       		.byte	0x3
 11147 2b24 F6040000 		.4byte	.LC59
 11148 2b28 00       		.byte	0
 11149 2b29 27       		.uleb128 0x27
 11150 2b2a 68000000 		.4byte	.LVL306
 11151 2b2e 57380000 		.4byte	0x3857
 11152 2b32 4C2B0000 		.4byte	0x2b4c
 11153 2b36 25       		.uleb128 0x25
 11154 2b37 01       		.uleb128 0x1
 11155 2b38 50       		.byte	0x50
 11156 2b39 05       		.uleb128 0x5
 11157 2b3a 03       		.byte	0x3
 11158 2b3b 00000000 		.4byte	.LANCHOR0
 11159 2b3f 25       		.uleb128 0x25
 11160 2b40 01       		.uleb128 0x1
 11161 2b41 51       		.byte	0x51
 11162 2b42 02       		.uleb128 0x2
 11163 2b43 08       		.byte	0x8
 11164 2b44 50       		.byte	0x50
 11165 2b45 25       		.uleb128 0x25
 11166 2b46 01       		.uleb128 0x1
 11167 2b47 53       		.byte	0x53
 11168 2b48 02       		.uleb128 0x2
 11169 2b49 74       		.byte	0x74
 11170 2b4a 00       		.sleb128 0
 11171 2b4b 00       		.byte	0
 11172 2b4c 2D       		.uleb128 0x2d
 11173 2b4d 6C000000 		.4byte	.LVL307
 11174 2b51 C8370000 		.4byte	0x37c8
 11175 2b55 2D       		.uleb128 0x2d
 11176 2b56 70000000 		.4byte	.LVL308
 11177 2b5a D3370000 		.4byte	0x37d3
 11178 2b5e 2D       		.uleb128 0x2d
 11179 2b5f 74000000 		.4byte	.LVL309
 11180 2b63 9C370000 		.4byte	0x379c
 11181 2b67 00       		.byte	0
 11182 2b68 39       		.uleb128 0x39
 11183 2b69 AF110000 		.4byte	.LASF427
 11184 2b6d 01       		.byte	0x1
ARM GAS  C:\Users\chemi\AppData\Local\Temp\ccFrP3K3.s 			page 234


 11185 2b6e 4C03     		.2byte	0x34c
 11186 2b70 C6000000 		.4byte	0xc6
 11187 2b74 00000000 		.4byte	.LFB94
 11188 2b78 64000000 		.4byte	.LFE94-.LFB94
 11189 2b7c 01       		.uleb128 0x1
 11190 2b7d 9C       		.byte	0x9c
 11191 2b7e 062C0000 		.4byte	0x2c06
 11192 2b82 29       		.uleb128 0x29
 11193 2b83 8F130000 		.4byte	.LASF384
 11194 2b87 01       		.byte	0x1
 11195 2b88 4C03     		.2byte	0x34c
 11196 2b8a 47040000 		.4byte	0x447
 11197 2b8e BB0D0000 		.4byte	.LLST85
 11198 2b92 29       		.uleb128 0x29
 11199 2b93 B7110000 		.4byte	.LASF116
 11200 2b97 01       		.byte	0x1
 11201 2b98 4C03     		.2byte	0x34c
 11202 2b9a C6000000 		.4byte	0xc6
 11203 2b9e E70D0000 		.4byte	.LLST86
 11204 2ba2 29       		.uleb128 0x29
 11205 2ba3 1D0E0000 		.4byte	.LASF115
 11206 2ba7 01       		.byte	0x1
 11207 2ba8 4C03     		.2byte	0x34c
 11208 2baa 4D040000 		.4byte	0x44d
 11209 2bae 080E0000 		.4byte	.LLST87
 11210 2bb2 27       		.uleb128 0x27
 11211 2bb3 10000000 		.4byte	.LVL315
 11212 2bb7 A4380000 		.4byte	0x38a4
 11213 2bbb CF2B0000 		.4byte	0x2bcf
 11214 2bbf 25       		.uleb128 0x25
 11215 2bc0 01       		.uleb128 0x1
 11216 2bc1 50       		.byte	0x50
 11217 2bc2 02       		.uleb128 0x2
 11218 2bc3 75       		.byte	0x75
 11219 2bc4 00       		.sleb128 0
 11220 2bc5 25       		.uleb128 0x25
 11221 2bc6 01       		.uleb128 0x1
 11222 2bc7 51       		.byte	0x51
 11223 2bc8 05       		.uleb128 0x5
 11224 2bc9 03       		.byte	0x3
 11225 2bca 3C030000 		.4byte	.LC31
 11226 2bce 00       		.byte	0
 11227 2bcf 27       		.uleb128 0x27
 11228 2bd0 20000000 		.4byte	.LVL316
 11229 2bd4 A4380000 		.4byte	0x38a4
 11230 2bd8 EC2B0000 		.4byte	0x2bec
 11231 2bdc 25       		.uleb128 0x25
 11232 2bdd 01       		.uleb128 0x1
 11233 2bde 50       		.byte	0x50
 11234 2bdf 02       		.uleb128 0x2
 11235 2be0 75       		.byte	0x75
 11236 2be1 00       		.sleb128 0
 11237 2be2 25       		.uleb128 0x25
 11238 2be3 01       		.uleb128 0x1
 11239 2be4 51       		.byte	0x51
 11240 2be5 05       		.uleb128 0x5
 11241 2be6 03       		.byte	0x3
ARM GAS  C:\Users\chemi\AppData\Local\Temp\ccFrP3K3.s 			page 235


 11242 2be7 11050000 		.4byte	.LC61
 11243 2beb 00       		.byte	0
 11244 2bec 2E       		.uleb128 0x2e
 11245 2bed 36000000 		.4byte	.LVL317
 11246 2bf1 A4380000 		.4byte	0x38a4
 11247 2bf5 25       		.uleb128 0x25
 11248 2bf6 01       		.uleb128 0x1
 11249 2bf7 50       		.byte	0x50
 11250 2bf8 02       		.uleb128 0x2
 11251 2bf9 75       		.byte	0x75
 11252 2bfa 00       		.sleb128 0
 11253 2bfb 25       		.uleb128 0x25
 11254 2bfc 01       		.uleb128 0x1
 11255 2bfd 51       		.byte	0x51
 11256 2bfe 05       		.uleb128 0x5
 11257 2bff 03       		.byte	0x3
 11258 2c00 1D050000 		.4byte	.LC63
 11259 2c04 00       		.byte	0
 11260 2c05 00       		.byte	0
 11261 2c06 2B       		.uleb128 0x2b
 11262 2c07 10090000 		.4byte	.LASF428
 11263 2c0b 01       		.byte	0x1
 11264 2c0c 6203     		.2byte	0x362
 11265 2c0e C6000000 		.4byte	0xc6
 11266 2c12 00000000 		.4byte	.LFB95
 11267 2c16 18000000 		.4byte	.LFE95-.LFB95
 11268 2c1a 01       		.uleb128 0x1
 11269 2c1b 9C       		.byte	0x9c
 11270 2c1c 6D2C0000 		.4byte	0x2c6d
 11271 2c20 29       		.uleb128 0x29
 11272 2c21 8F130000 		.4byte	.LASF384
 11273 2c25 01       		.byte	0x1
 11274 2c26 6203     		.2byte	0x362
 11275 2c28 47040000 		.4byte	0x447
 11276 2c2c 290E0000 		.4byte	.LLST88
 11277 2c30 29       		.uleb128 0x29
 11278 2c31 B7110000 		.4byte	.LASF116
 11279 2c35 01       		.byte	0x1
 11280 2c36 6203     		.2byte	0x362
 11281 2c38 C6000000 		.4byte	0xc6
 11282 2c3c 4A0E0000 		.4byte	.LLST89
 11283 2c40 29       		.uleb128 0x29
 11284 2c41 1D0E0000 		.4byte	.LASF115
 11285 2c45 01       		.byte	0x1
 11286 2c46 6203     		.2byte	0x362
 11287 2c48 4D040000 		.4byte	0x44d
 11288 2c4c 6B0E0000 		.4byte	.LLST90
 11289 2c50 33       		.uleb128 0x33
 11290 2c51 0A000000 		.4byte	.LVL323
 11291 2c55 632C0000 		.4byte	0x2c63
 11292 2c59 25       		.uleb128 0x25
 11293 2c5a 01       		.uleb128 0x1
 11294 2c5b 51       		.byte	0x51
 11295 2c5c 05       		.uleb128 0x5
 11296 2c5d 03       		.byte	0x3
 11297 2c5e 2B050000 		.4byte	.LC65
 11298 2c62 00       		.byte	0
ARM GAS  C:\Users\chemi\AppData\Local\Temp\ccFrP3K3.s 			page 236


 11299 2c63 2D       		.uleb128 0x2d
 11300 2c64 0E000000 		.4byte	.LVL324
 11301 2c68 DC180000 		.4byte	0x18dc
 11302 2c6c 00       		.byte	0
 11303 2c6d 2B       		.uleb128 0x2b
 11304 2c6e 5E050000 		.4byte	.LASF429
 11305 2c72 01       		.byte	0x1
 11306 2c73 6B03     		.2byte	0x36b
 11307 2c75 C6000000 		.4byte	0xc6
 11308 2c79 00000000 		.4byte	.LFB96
 11309 2c7d 0A000000 		.4byte	.LFE96-.LFB96
 11310 2c81 01       		.uleb128 0x1
 11311 2c82 9C       		.byte	0x9c
 11312 2c83 C12C0000 		.4byte	0x2cc1
 11313 2c87 29       		.uleb128 0x29
 11314 2c88 8F130000 		.4byte	.LASF384
 11315 2c8c 01       		.byte	0x1
 11316 2c8d 6B03     		.2byte	0x36b
 11317 2c8f 47040000 		.4byte	0x447
 11318 2c93 8C0E0000 		.4byte	.LLST91
 11319 2c97 29       		.uleb128 0x29
 11320 2c98 B7110000 		.4byte	.LASF116
 11321 2c9c 01       		.byte	0x1
 11322 2c9d 6B03     		.2byte	0x36b
 11323 2c9f C6000000 		.4byte	0xc6
 11324 2ca3 AD0E0000 		.4byte	.LLST92
 11325 2ca7 29       		.uleb128 0x29
 11326 2ca8 1D0E0000 		.4byte	.LASF115
 11327 2cac 01       		.byte	0x1
 11328 2cad 6B03     		.2byte	0x36b
 11329 2caf 4D040000 		.4byte	0x44d
 11330 2cb3 CE0E0000 		.4byte	.LLST93
 11331 2cb7 2D       		.uleb128 0x2d
 11332 2cb8 06000000 		.4byte	.LVL326
 11333 2cbc 8B390000 		.4byte	0x398b
 11334 2cc0 00       		.byte	0
 11335 2cc1 2B       		.uleb128 0x2b
 11336 2cc2 C8190000 		.4byte	.LASF430
 11337 2cc6 01       		.byte	0x1
 11338 2cc7 7303     		.2byte	0x373
 11339 2cc9 C6000000 		.4byte	0xc6
 11340 2ccd 00000000 		.4byte	.LFB97
 11341 2cd1 5C000000 		.4byte	.LFE97-.LFB97
 11342 2cd5 01       		.uleb128 0x1
 11343 2cd6 9C       		.byte	0x9c
 11344 2cd7 8B2D0000 		.4byte	0x2d8b
 11345 2cdb 29       		.uleb128 0x29
 11346 2cdc 8F130000 		.4byte	.LASF384
 11347 2ce0 01       		.byte	0x1
 11348 2ce1 7303     		.2byte	0x373
 11349 2ce3 47040000 		.4byte	0x447
 11350 2ce7 EF0E0000 		.4byte	.LLST94
 11351 2ceb 29       		.uleb128 0x29
 11352 2cec B7110000 		.4byte	.LASF116
 11353 2cf0 01       		.byte	0x1
 11354 2cf1 7303     		.2byte	0x373
 11355 2cf3 C6000000 		.4byte	0xc6
ARM GAS  C:\Users\chemi\AppData\Local\Temp\ccFrP3K3.s 			page 237


 11356 2cf7 1B0F0000 		.4byte	.LLST95
 11357 2cfb 29       		.uleb128 0x29
 11358 2cfc 1D0E0000 		.4byte	.LASF115
 11359 2d00 01       		.byte	0x1
 11360 2d01 7303     		.2byte	0x373
 11361 2d03 4D040000 		.4byte	0x44d
 11362 2d07 3C0F0000 		.4byte	.LLST96
 11363 2d0b 2A       		.uleb128 0x2a
 11364 2d0c DC1A0000 		.4byte	.LASF431
 11365 2d10 01       		.byte	0x1
 11366 2d11 7903     		.2byte	0x379
 11367 2d13 C6000000 		.4byte	0xc6
 11368 2d17 680F0000 		.4byte	.LLST97
 11369 2d1b 2A       		.uleb128 0x2a
 11370 2d1c 19080000 		.4byte	.LASF144
 11371 2d20 01       		.byte	0x1
 11372 2d21 7A03     		.2byte	0x37a
 11373 2d23 C6000000 		.4byte	0xc6
 11374 2d27 860F0000 		.4byte	.LLST98
 11375 2d2b 27       		.uleb128 0x27
 11376 2d2c 14000000 		.4byte	.LVL330
 11377 2d30 A4380000 		.4byte	0x38a4
 11378 2d34 482D0000 		.4byte	0x2d48
 11379 2d38 25       		.uleb128 0x25
 11380 2d39 01       		.uleb128 0x1
 11381 2d3a 50       		.byte	0x50
 11382 2d3b 02       		.uleb128 0x2
 11383 2d3c 74       		.byte	0x74
 11384 2d3d 00       		.sleb128 0
 11385 2d3e 25       		.uleb128 0x25
 11386 2d3f 01       		.uleb128 0x1
 11387 2d40 51       		.byte	0x51
 11388 2d41 05       		.uleb128 0x5
 11389 2d42 03       		.byte	0x3
 11390 2d43 3C030000 		.4byte	.LC31
 11391 2d47 00       		.byte	0
 11392 2d48 27       		.uleb128 0x27
 11393 2d49 1C000000 		.4byte	.LVL331
 11394 2d4d 96390000 		.4byte	0x3996
 11395 2d51 5C2D0000 		.4byte	0x2d5c
 11396 2d55 25       		.uleb128 0x25
 11397 2d56 01       		.uleb128 0x1
 11398 2d57 50       		.byte	0x50
 11399 2d58 02       		.uleb128 0x2
 11400 2d59 74       		.byte	0x74
 11401 2d5a 00       		.sleb128 0
 11402 2d5b 00       		.byte	0
 11403 2d5c 2D       		.uleb128 0x2d
 11404 2d5d 24000000 		.4byte	.LVL333
 11405 2d61 96390000 		.4byte	0x3996
 11406 2d65 33       		.uleb128 0x33
 11407 2d66 32000000 		.4byte	.LVL336
 11408 2d6a 782D0000 		.4byte	0x2d78
 11409 2d6e 25       		.uleb128 0x25
 11410 2d6f 01       		.uleb128 0x1
 11411 2d70 51       		.byte	0x51
 11412 2d71 05       		.uleb128 0x5
ARM GAS  C:\Users\chemi\AppData\Local\Temp\ccFrP3K3.s 			page 238


 11413 2d72 03       		.byte	0x3
 11414 2d73 47050000 		.4byte	.LC66
 11415 2d77 00       		.byte	0
 11416 2d78 2D       		.uleb128 0x2d
 11417 2d79 42000000 		.4byte	.LVL340
 11418 2d7d A1390000 		.4byte	0x39a1
 11419 2d81 2D       		.uleb128 0x2d
 11420 2d82 50000000 		.4byte	.LVL344
 11421 2d86 AC390000 		.4byte	0x39ac
 11422 2d8a 00       		.byte	0
 11423 2d8b 2B       		.uleb128 0x2b
 11424 2d8c B5100000 		.4byte	.LASF432
 11425 2d90 01       		.byte	0x1
 11426 2d91 8E03     		.2byte	0x38e
 11427 2d93 C6000000 		.4byte	0xc6
 11428 2d97 00000000 		.4byte	.LFB98
 11429 2d9b 50000000 		.4byte	.LFE98-.LFB98
 11430 2d9f 01       		.uleb128 0x1
 11431 2da0 9C       		.byte	0x9c
 11432 2da1 552E0000 		.4byte	0x2e55
 11433 2da5 29       		.uleb128 0x29
 11434 2da6 8F130000 		.4byte	.LASF384
 11435 2daa 01       		.byte	0x1
 11436 2dab 8E03     		.2byte	0x38e
 11437 2dad 47040000 		.4byte	0x447
 11438 2db1 CB0F0000 		.4byte	.LLST99
 11439 2db5 29       		.uleb128 0x29
 11440 2db6 B7110000 		.4byte	.LASF116
 11441 2dba 01       		.byte	0x1
 11442 2dbb 8E03     		.2byte	0x38e
 11443 2dbd C6000000 		.4byte	0xc6
 11444 2dc1 F70F0000 		.4byte	.LLST100
 11445 2dc5 29       		.uleb128 0x29
 11446 2dc6 1D0E0000 		.4byte	.LASF115
 11447 2dca 01       		.byte	0x1
 11448 2dcb 8E03     		.2byte	0x38e
 11449 2dcd 4D040000 		.4byte	0x44d
 11450 2dd1 18100000 		.4byte	.LLST101
 11451 2dd5 2A       		.uleb128 0x2a
 11452 2dd6 D7050000 		.4byte	.LASF433
 11453 2dda 01       		.byte	0x1
 11454 2ddb 9403     		.2byte	0x394
 11455 2ddd C6000000 		.4byte	0xc6
 11456 2de1 44100000 		.4byte	.LLST102
 11457 2de5 2A       		.uleb128 0x2a
 11458 2de6 19080000 		.4byte	.LASF144
 11459 2dea 01       		.byte	0x1
 11460 2deb 9503     		.2byte	0x395
 11461 2ded C6000000 		.4byte	0xc6
 11462 2df1 57100000 		.4byte	.LLST103
 11463 2df5 27       		.uleb128 0x27
 11464 2df6 14000000 		.4byte	.LVL349
 11465 2dfa A4380000 		.4byte	0x38a4
 11466 2dfe 122E0000 		.4byte	0x2e12
 11467 2e02 25       		.uleb128 0x25
 11468 2e03 01       		.uleb128 0x1
 11469 2e04 50       		.byte	0x50
ARM GAS  C:\Users\chemi\AppData\Local\Temp\ccFrP3K3.s 			page 239


 11470 2e05 02       		.uleb128 0x2
 11471 2e06 74       		.byte	0x74
 11472 2e07 00       		.sleb128 0
 11473 2e08 25       		.uleb128 0x25
 11474 2e09 01       		.uleb128 0x1
 11475 2e0a 51       		.byte	0x51
 11476 2e0b 05       		.uleb128 0x5
 11477 2e0c 03       		.byte	0x3
 11478 2e0d 3C030000 		.4byte	.LC31
 11479 2e11 00       		.byte	0
 11480 2e12 33       		.uleb128 0x33
 11481 2e13 1E000000 		.4byte	.LVL350
 11482 2e17 252E0000 		.4byte	0x2e25
 11483 2e1b 25       		.uleb128 0x25
 11484 2e1c 01       		.uleb128 0x1
 11485 2e1d 51       		.byte	0x51
 11486 2e1e 05       		.uleb128 0x5
 11487 2e1f 03       		.byte	0x3
 11488 2e20 60050000 		.4byte	.LC67
 11489 2e24 00       		.byte	0
 11490 2e25 27       		.uleb128 0x27
 11491 2e26 26000000 		.4byte	.LVL351
 11492 2e2a 96390000 		.4byte	0x3996
 11493 2e2e 392E0000 		.4byte	0x2e39
 11494 2e32 25       		.uleb128 0x25
 11495 2e33 01       		.uleb128 0x1
 11496 2e34 50       		.byte	0x50
 11497 2e35 02       		.uleb128 0x2
 11498 2e36 74       		.byte	0x74
 11499 2e37 00       		.sleb128 0
 11500 2e38 00       		.byte	0
 11501 2e39 2D       		.uleb128 0x2d
 11502 2e3a 2E000000 		.4byte	.LVL353
 11503 2e3e 96390000 		.4byte	0x3996
 11504 2e42 2D       		.uleb128 0x2d
 11505 2e43 38000000 		.4byte	.LVL355
 11506 2e47 A1390000 		.4byte	0x39a1
 11507 2e4b 2D       		.uleb128 0x2d
 11508 2e4c 42000000 		.4byte	.LVL357
 11509 2e50 AC390000 		.4byte	0x39ac
 11510 2e54 00       		.byte	0
 11511 2e55 2B       		.uleb128 0x2b
 11512 2e56 6B120000 		.4byte	.LASF434
 11513 2e5a 01       		.byte	0x1
 11514 2e5b A903     		.2byte	0x3a9
 11515 2e5d C6000000 		.4byte	0xc6
 11516 2e61 00000000 		.4byte	.LFB99
 11517 2e65 48000000 		.4byte	.LFE99-.LFB99
 11518 2e69 01       		.uleb128 0x1
 11519 2e6a 9C       		.byte	0x9c
 11520 2e6b 212F0000 		.4byte	0x2f21
 11521 2e6f 29       		.uleb128 0x29
 11522 2e70 8F130000 		.4byte	.LASF384
 11523 2e74 01       		.byte	0x1
 11524 2e75 A903     		.2byte	0x3a9
 11525 2e77 47040000 		.4byte	0x447
 11526 2e7b 75100000 		.4byte	.LLST104
ARM GAS  C:\Users\chemi\AppData\Local\Temp\ccFrP3K3.s 			page 240


 11527 2e7f 29       		.uleb128 0x29
 11528 2e80 B7110000 		.4byte	.LASF116
 11529 2e84 01       		.byte	0x1
 11530 2e85 A903     		.2byte	0x3a9
 11531 2e87 C6000000 		.4byte	0xc6
 11532 2e8b A1100000 		.4byte	.LLST105
 11533 2e8f 29       		.uleb128 0x29
 11534 2e90 1D0E0000 		.4byte	.LASF115
 11535 2e94 01       		.byte	0x1
 11536 2e95 A903     		.2byte	0x3a9
 11537 2e97 4D040000 		.4byte	0x44d
 11538 2e9b C2100000 		.4byte	.LLST106
 11539 2e9f 36       		.uleb128 0x36
 11540 2ea0 72657600 		.ascii	"rev\000"
 11541 2ea4 01       		.byte	0x1
 11542 2ea5 AC03     		.2byte	0x3ac
 11543 2ea7 C6000000 		.4byte	0xc6
 11544 2eab E3100000 		.4byte	.LLST107
 11545 2eaf 27       		.uleb128 0x27
 11546 2eb0 14000000 		.4byte	.LVL361
 11547 2eb4 B7390000 		.4byte	0x39b7
 11548 2eb8 C32E0000 		.4byte	0x2ec3
 11549 2ebc 25       		.uleb128 0x25
 11550 2ebd 01       		.uleb128 0x1
 11551 2ebe 50       		.byte	0x50
 11552 2ebf 02       		.uleb128 0x2
 11553 2ec0 75       		.byte	0x75
 11554 2ec1 00       		.sleb128 0
 11555 2ec2 00       		.byte	0
 11556 2ec3 2C       		.uleb128 0x2c
 11557 2ec4 1E000000 		.4byte	.LVL362
 11558 2ec8 02       		.uleb128 0x2
 11559 2ec9 76       		.byte	0x76
 11560 2eca 00       		.sleb128 0
 11561 2ecb E52E0000 		.4byte	0x2ee5
 11562 2ecf 25       		.uleb128 0x25
 11563 2ed0 01       		.uleb128 0x1
 11564 2ed1 50       		.byte	0x50
 11565 2ed2 02       		.uleb128 0x2
 11566 2ed3 77       		.byte	0x77
 11567 2ed4 00       		.sleb128 0
 11568 2ed5 25       		.uleb128 0x25
 11569 2ed6 01       		.uleb128 0x1
 11570 2ed7 51       		.byte	0x51
 11571 2ed8 05       		.uleb128 0x5
 11572 2ed9 03       		.byte	0x3
 11573 2eda 79050000 		.4byte	.LC68
 11574 2ede 25       		.uleb128 0x25
 11575 2edf 01       		.uleb128 0x1
 11576 2ee0 52       		.byte	0x52
 11577 2ee1 02       		.uleb128 0x2
 11578 2ee2 75       		.byte	0x75
 11579 2ee3 00       		.sleb128 0
 11580 2ee4 00       		.byte	0
 11581 2ee5 2D       		.uleb128 0x2d
 11582 2ee6 22000000 		.4byte	.LVL363
 11583 2eea 15380000 		.4byte	0x3815
ARM GAS  C:\Users\chemi\AppData\Local\Temp\ccFrP3K3.s 			page 241


 11584 2eee 27       		.uleb128 0x27
 11585 2eef 2C000000 		.4byte	.LVL366
 11586 2ef3 B7390000 		.4byte	0x39b7
 11587 2ef7 022F0000 		.4byte	0x2f02
 11588 2efb 25       		.uleb128 0x25
 11589 2efc 01       		.uleb128 0x1
 11590 2efd 50       		.byte	0x50
 11591 2efe 02       		.uleb128 0x2
 11592 2eff 76       		.byte	0x76
 11593 2f00 00       		.sleb128 0
 11594 2f01 00       		.byte	0
 11595 2f02 38       		.uleb128 0x38
 11596 2f03 36000000 		.4byte	.LVL367
 11597 2f07 02       		.uleb128 0x2
 11598 2f08 75       		.byte	0x75
 11599 2f09 00       		.sleb128 0
 11600 2f0a 25       		.uleb128 0x25
 11601 2f0b 01       		.uleb128 0x1
 11602 2f0c 50       		.byte	0x50
 11603 2f0d 02       		.uleb128 0x2
 11604 2f0e 74       		.byte	0x74
 11605 2f0f 00       		.sleb128 0
 11606 2f10 25       		.uleb128 0x25
 11607 2f11 01       		.uleb128 0x1
 11608 2f12 51       		.byte	0x51
 11609 2f13 05       		.uleb128 0x5
 11610 2f14 03       		.byte	0x3
 11611 2f15 A0050000 		.4byte	.LC69
 11612 2f19 25       		.uleb128 0x25
 11613 2f1a 01       		.uleb128 0x1
 11614 2f1b 52       		.byte	0x52
 11615 2f1c 02       		.uleb128 0x2
 11616 2f1d 76       		.byte	0x76
 11617 2f1e 00       		.sleb128 0
 11618 2f1f 00       		.byte	0
 11619 2f20 00       		.byte	0
 11620 2f21 3E       		.uleb128 0x3e
 11621 2f22 27140000 		.4byte	0x1427
 11622 2f26 00000000 		.4byte	.LFB100
 11623 2f2a 48000000 		.4byte	.LFE100-.LFB100
 11624 2f2e 01       		.uleb128 0x1
 11625 2f2f 9C       		.byte	0x9c
 11626 2f30 C82F0000 		.4byte	0x2fc8
 11627 2f34 22       		.uleb128 0x22
 11628 2f35 34140000 		.4byte	0x1434
 11629 2f39 F6100000 		.4byte	.LLST108
 11630 2f3d 22       		.uleb128 0x22
 11631 2f3e 40140000 		.4byte	0x1440
 11632 2f42 17110000 		.4byte	.LLST109
 11633 2f46 22       		.uleb128 0x22
 11634 2f47 4C140000 		.4byte	0x144c
 11635 2f4b 51110000 		.4byte	.LLST110
 11636 2f4f 32       		.uleb128 0x32
 11637 2f50 0E000000 		.4byte	.LBB23
 11638 2f54 10000000 		.4byte	.LBE23-.LBB23
 11639 2f58 8E2F0000 		.4byte	0x2f8e
 11640 2f5c 3F       		.uleb128 0x3f
ARM GAS  C:\Users\chemi\AppData\Local\Temp\ccFrP3K3.s 			page 242


 11641 2f5d 34140000 		.4byte	0x1434
 11642 2f61 22       		.uleb128 0x22
 11643 2f62 40140000 		.4byte	0x1440
 11644 2f66 9E110000 		.4byte	.LLST111
 11645 2f6a 22       		.uleb128 0x22
 11646 2f6b 4C140000 		.4byte	0x144c
 11647 2f6f B1110000 		.4byte	.LLST112
 11648 2f73 2E       		.uleb128 0x2e
 11649 2f74 18000000 		.4byte	.LVL375
 11650 2f78 83380000 		.4byte	0x3883
 11651 2f7c 25       		.uleb128 0x25
 11652 2f7d 01       		.uleb128 0x1
 11653 2f7e 50       		.byte	0x50
 11654 2f7f 02       		.uleb128 0x2
 11655 2f80 74       		.byte	0x74
 11656 2f81 00       		.sleb128 0
 11657 2f82 25       		.uleb128 0x25
 11658 2f83 01       		.uleb128 0x1
 11659 2f84 51       		.byte	0x51
 11660 2f85 01       		.uleb128 0x1
 11661 2f86 32       		.byte	0x32
 11662 2f87 25       		.uleb128 0x25
 11663 2f88 01       		.uleb128 0x1
 11664 2f89 52       		.byte	0x52
 11665 2f8a 01       		.uleb128 0x1
 11666 2f8b 31       		.byte	0x31
 11667 2f8c 00       		.byte	0
 11668 2f8d 00       		.byte	0
 11669 2f8e 27       		.uleb128 0x27
 11670 2f8f 28000000 		.4byte	.LVL379
 11671 2f93 83380000 		.4byte	0x3883
 11672 2f97 AC2F0000 		.4byte	0x2fac
 11673 2f9b 25       		.uleb128 0x25
 11674 2f9c 01       		.uleb128 0x1
 11675 2f9d 50       		.byte	0x50
 11676 2f9e 02       		.uleb128 0x2
 11677 2f9f 74       		.byte	0x74
 11678 2fa0 00       		.sleb128 0
 11679 2fa1 25       		.uleb128 0x25
 11680 2fa2 01       		.uleb128 0x1
 11681 2fa3 51       		.byte	0x51
 11682 2fa4 01       		.uleb128 0x1
 11683 2fa5 32       		.byte	0x32
 11684 2fa6 25       		.uleb128 0x25
 11685 2fa7 01       		.uleb128 0x1
 11686 2fa8 52       		.byte	0x52
 11687 2fa9 01       		.uleb128 0x1
 11688 2faa 32       		.byte	0x32
 11689 2fab 00       		.byte	0
 11690 2fac 28       		.uleb128 0x28
 11691 2fad 3E000000 		.4byte	.LVL382
 11692 2fb1 83380000 		.4byte	0x3883
 11693 2fb5 25       		.uleb128 0x25
 11694 2fb6 01       		.uleb128 0x1
 11695 2fb7 50       		.byte	0x50
 11696 2fb8 03       		.uleb128 0x3
 11697 2fb9 F3       		.byte	0xf3
ARM GAS  C:\Users\chemi\AppData\Local\Temp\ccFrP3K3.s 			page 243


 11698 2fba 01       		.uleb128 0x1
 11699 2fbb 52       		.byte	0x52
 11700 2fbc 25       		.uleb128 0x25
 11701 2fbd 01       		.uleb128 0x1
 11702 2fbe 51       		.byte	0x51
 11703 2fbf 01       		.uleb128 0x1
 11704 2fc0 32       		.byte	0x32
 11705 2fc1 25       		.uleb128 0x25
 11706 2fc2 01       		.uleb128 0x1
 11707 2fc3 52       		.byte	0x52
 11708 2fc4 01       		.uleb128 0x1
 11709 2fc5 37       		.byte	0x37
 11710 2fc6 00       		.byte	0
 11711 2fc7 00       		.byte	0
 11712 2fc8 3E       		.uleb128 0x3e
 11713 2fc9 59140000 		.4byte	0x1459
 11714 2fcd 00000000 		.4byte	.LFB101
 11715 2fd1 48000000 		.4byte	.LFE101-.LFB101
 11716 2fd5 01       		.uleb128 0x1
 11717 2fd6 9C       		.byte	0x9c
 11718 2fd7 6F300000 		.4byte	0x306f
 11719 2fdb 22       		.uleb128 0x22
 11720 2fdc 66140000 		.4byte	0x1466
 11721 2fe0 CF110000 		.4byte	.LLST113
 11722 2fe4 22       		.uleb128 0x22
 11723 2fe5 72140000 		.4byte	0x1472
 11724 2fe9 F0110000 		.4byte	.LLST114
 11725 2fed 22       		.uleb128 0x22
 11726 2fee 7E140000 		.4byte	0x147e
 11727 2ff2 2A120000 		.4byte	.LLST115
 11728 2ff6 32       		.uleb128 0x32
 11729 2ff7 0E000000 		.4byte	.LBB27
 11730 2ffb 10000000 		.4byte	.LBE27-.LBB27
 11731 2fff 35300000 		.4byte	0x3035
 11732 3003 3F       		.uleb128 0x3f
 11733 3004 66140000 		.4byte	0x1466
 11734 3008 22       		.uleb128 0x22
 11735 3009 72140000 		.4byte	0x1472
 11736 300d 77120000 		.4byte	.LLST116
 11737 3011 22       		.uleb128 0x22
 11738 3012 7E140000 		.4byte	0x147e
 11739 3016 8A120000 		.4byte	.LLST117
 11740 301a 2E       		.uleb128 0x2e
 11741 301b 18000000 		.4byte	.LVL389
 11742 301f 83380000 		.4byte	0x3883
 11743 3023 25       		.uleb128 0x25
 11744 3024 01       		.uleb128 0x1
 11745 3025 50       		.byte	0x50
 11746 3026 02       		.uleb128 0x2
 11747 3027 74       		.byte	0x74
 11748 3028 00       		.sleb128 0
 11749 3029 25       		.uleb128 0x25
 11750 302a 01       		.uleb128 0x1
 11751 302b 51       		.byte	0x51
 11752 302c 01       		.uleb128 0x1
 11753 302d 32       		.byte	0x32
 11754 302e 25       		.uleb128 0x25
ARM GAS  C:\Users\chemi\AppData\Local\Temp\ccFrP3K3.s 			page 244


 11755 302f 01       		.uleb128 0x1
 11756 3030 52       		.byte	0x52
 11757 3031 01       		.uleb128 0x1
 11758 3032 31       		.byte	0x31
 11759 3033 00       		.byte	0
 11760 3034 00       		.byte	0
 11761 3035 27       		.uleb128 0x27
 11762 3036 28000000 		.4byte	.LVL393
 11763 303a 83380000 		.4byte	0x3883
 11764 303e 53300000 		.4byte	0x3053
 11765 3042 25       		.uleb128 0x25
 11766 3043 01       		.uleb128 0x1
 11767 3044 50       		.byte	0x50
 11768 3045 02       		.uleb128 0x2
 11769 3046 74       		.byte	0x74
 11770 3047 00       		.sleb128 0
 11771 3048 25       		.uleb128 0x25
 11772 3049 01       		.uleb128 0x1
 11773 304a 51       		.byte	0x51
 11774 304b 01       		.uleb128 0x1
 11775 304c 32       		.byte	0x32
 11776 304d 25       		.uleb128 0x25
 11777 304e 01       		.uleb128 0x1
 11778 304f 52       		.byte	0x52
 11779 3050 01       		.uleb128 0x1
 11780 3051 32       		.byte	0x32
 11781 3052 00       		.byte	0
 11782 3053 28       		.uleb128 0x28
 11783 3054 3E000000 		.4byte	.LVL396
 11784 3058 83380000 		.4byte	0x3883
 11785 305c 25       		.uleb128 0x25
 11786 305d 01       		.uleb128 0x1
 11787 305e 50       		.byte	0x50
 11788 305f 03       		.uleb128 0x3
 11789 3060 F3       		.byte	0xf3
 11790 3061 01       		.uleb128 0x1
 11791 3062 52       		.byte	0x52
 11792 3063 25       		.uleb128 0x25
 11793 3064 01       		.uleb128 0x1
 11794 3065 51       		.byte	0x51
 11795 3066 01       		.uleb128 0x1
 11796 3067 32       		.byte	0x32
 11797 3068 25       		.uleb128 0x25
 11798 3069 01       		.uleb128 0x1
 11799 306a 52       		.byte	0x52
 11800 306b 01       		.uleb128 0x1
 11801 306c 37       		.byte	0x37
 11802 306d 00       		.byte	0
 11803 306e 00       		.byte	0
 11804 306f 39       		.uleb128 0x39
 11805 3070 96130000 		.4byte	.LASF435
 11806 3074 01       		.byte	0x1
 11807 3075 D103     		.2byte	0x3d1
 11808 3077 C6000000 		.4byte	0xc6
 11809 307b 00000000 		.4byte	.LFB102
 11810 307f 3C030000 		.4byte	.LFE102-.LFB102
 11811 3083 01       		.uleb128 0x1
ARM GAS  C:\Users\chemi\AppData\Local\Temp\ccFrP3K3.s 			page 245


 11812 3084 9C       		.byte	0x9c
 11813 3085 09360000 		.4byte	0x3609
 11814 3089 29       		.uleb128 0x29
 11815 308a 8F130000 		.4byte	.LASF384
 11816 308e 01       		.byte	0x1
 11817 308f D103     		.2byte	0x3d1
 11818 3091 47040000 		.4byte	0x447
 11819 3095 A8120000 		.4byte	.LLST118
 11820 3099 29       		.uleb128 0x29
 11821 309a B7110000 		.4byte	.LASF116
 11822 309e 01       		.byte	0x1
 11823 309f D103     		.2byte	0x3d1
 11824 30a1 C6000000 		.4byte	0xc6
 11825 30a5 D4120000 		.4byte	.LLST119
 11826 30a9 29       		.uleb128 0x29
 11827 30aa 1D0E0000 		.4byte	.LASF115
 11828 30ae 01       		.byte	0x1
 11829 30af D103     		.2byte	0x3d1
 11830 30b1 4D040000 		.4byte	0x44d
 11831 30b5 F5120000 		.4byte	.LLST120
 11832 30b9 27       		.uleb128 0x27
 11833 30ba 0E000000 		.4byte	.LVL400
 11834 30be 83380000 		.4byte	0x3883
 11835 30c2 D7300000 		.4byte	0x30d7
 11836 30c6 25       		.uleb128 0x25
 11837 30c7 01       		.uleb128 0x1
 11838 30c8 50       		.byte	0x50
 11839 30c9 02       		.uleb128 0x2
 11840 30ca 74       		.byte	0x74
 11841 30cb 00       		.sleb128 0
 11842 30cc 25       		.uleb128 0x25
 11843 30cd 01       		.uleb128 0x1
 11844 30ce 51       		.byte	0x51
 11845 30cf 01       		.uleb128 0x1
 11846 30d0 4B       		.byte	0x4b
 11847 30d1 25       		.uleb128 0x25
 11848 30d2 01       		.uleb128 0x1
 11849 30d3 52       		.byte	0x52
 11850 30d4 01       		.uleb128 0x1
 11851 30d5 30       		.byte	0x30
 11852 30d6 00       		.byte	0
 11853 30d7 27       		.uleb128 0x27
 11854 30d8 18000000 		.4byte	.LVL401
 11855 30dc 83380000 		.4byte	0x3883
 11856 30e0 F5300000 		.4byte	0x30f5
 11857 30e4 25       		.uleb128 0x25
 11858 30e5 01       		.uleb128 0x1
 11859 30e6 50       		.byte	0x50
 11860 30e7 02       		.uleb128 0x2
 11861 30e8 74       		.byte	0x74
 11862 30e9 00       		.sleb128 0
 11863 30ea 25       		.uleb128 0x25
 11864 30eb 01       		.uleb128 0x1
 11865 30ec 51       		.byte	0x51
 11866 30ed 01       		.uleb128 0x1
 11867 30ee 49       		.byte	0x49
 11868 30ef 25       		.uleb128 0x25
ARM GAS  C:\Users\chemi\AppData\Local\Temp\ccFrP3K3.s 			page 246


 11869 30f0 01       		.uleb128 0x1
 11870 30f1 52       		.byte	0x52
 11871 30f2 01       		.uleb128 0x1
 11872 30f3 30       		.byte	0x30
 11873 30f4 00       		.byte	0
 11874 30f5 27       		.uleb128 0x27
 11875 30f6 22000000 		.4byte	.LVL402
 11876 30fa 83380000 		.4byte	0x3883
 11877 30fe 13310000 		.4byte	0x3113
 11878 3102 25       		.uleb128 0x25
 11879 3103 01       		.uleb128 0x1
 11880 3104 50       		.byte	0x50
 11881 3105 02       		.uleb128 0x2
 11882 3106 74       		.byte	0x74
 11883 3107 00       		.sleb128 0
 11884 3108 25       		.uleb128 0x25
 11885 3109 01       		.uleb128 0x1
 11886 310a 51       		.byte	0x51
 11887 310b 01       		.uleb128 0x1
 11888 310c 30       		.byte	0x30
 11889 310d 25       		.uleb128 0x25
 11890 310e 01       		.uleb128 0x1
 11891 310f 52       		.byte	0x52
 11892 3110 01       		.uleb128 0x1
 11893 3111 30       		.byte	0x30
 11894 3112 00       		.byte	0
 11895 3113 33       		.uleb128 0x33
 11896 3114 2A000000 		.4byte	.LVL403
 11897 3118 26310000 		.4byte	0x3126
 11898 311c 25       		.uleb128 0x25
 11899 311d 01       		.uleb128 0x1
 11900 311e 51       		.byte	0x51
 11901 311f 05       		.uleb128 0x5
 11902 3120 03       		.byte	0x3
 11903 3121 DE050000 		.4byte	.LC74
 11904 3125 00       		.byte	0
 11905 3126 33       		.uleb128 0x33
 11906 3127 32000000 		.4byte	.LVL404
 11907 312b 39310000 		.4byte	0x3139
 11908 312f 25       		.uleb128 0x25
 11909 3130 01       		.uleb128 0x1
 11910 3131 51       		.byte	0x51
 11911 3132 05       		.uleb128 0x5
 11912 3133 03       		.byte	0x3
 11913 3134 00060000 		.4byte	.LC75
 11914 3138 00       		.byte	0
 11915 3139 33       		.uleb128 0x33
 11916 313a 3A000000 		.4byte	.LVL405
 11917 313e 4C310000 		.4byte	0x314c
 11918 3142 25       		.uleb128 0x25
 11919 3143 01       		.uleb128 0x1
 11920 3144 51       		.byte	0x51
 11921 3145 05       		.uleb128 0x5
 11922 3146 03       		.byte	0x3
 11923 3147 1D060000 		.4byte	.LC76
 11924 314b 00       		.byte	0
 11925 314c 2D       		.uleb128 0x2d
ARM GAS  C:\Users\chemi\AppData\Local\Temp\ccFrP3K3.s 			page 247


 11926 314d 3E000000 		.4byte	.LVL406
 11927 3151 C2390000 		.4byte	0x39c2
 11928 3155 27       		.uleb128 0x27
 11929 3156 46000000 		.4byte	.LVL407
 11930 315a 59140000 		.4byte	0x1459
 11931 315e 6E310000 		.4byte	0x316e
 11932 3162 25       		.uleb128 0x25
 11933 3163 01       		.uleb128 0x1
 11934 3164 51       		.byte	0x51
 11935 3165 01       		.uleb128 0x1
 11936 3166 31       		.byte	0x31
 11937 3167 25       		.uleb128 0x25
 11938 3168 01       		.uleb128 0x1
 11939 3169 52       		.byte	0x52
 11940 316a 02       		.uleb128 0x2
 11941 316b 74       		.byte	0x74
 11942 316c 00       		.sleb128 0
 11943 316d 00       		.byte	0
 11944 316e 33       		.uleb128 0x33
 11945 316f 4E000000 		.4byte	.LVL408
 11946 3173 81310000 		.4byte	0x3181
 11947 3177 25       		.uleb128 0x25
 11948 3178 01       		.uleb128 0x1
 11949 3179 51       		.byte	0x51
 11950 317a 05       		.uleb128 0x5
 11951 317b 03       		.byte	0x3
 11952 317c 28060000 		.4byte	.LC77
 11953 3180 00       		.byte	0
 11954 3181 27       		.uleb128 0x27
 11955 3182 62000000 		.4byte	.LVL409
 11956 3186 27140000 		.4byte	0x1427
 11957 318a 9A310000 		.4byte	0x319a
 11958 318e 25       		.uleb128 0x25
 11959 318f 01       		.uleb128 0x1
 11960 3190 51       		.byte	0x51
 11961 3191 01       		.uleb128 0x1
 11962 3192 31       		.byte	0x31
 11963 3193 25       		.uleb128 0x25
 11964 3194 01       		.uleb128 0x1
 11965 3195 52       		.byte	0x52
 11966 3196 02       		.uleb128 0x2
 11967 3197 74       		.byte	0x74
 11968 3198 00       		.sleb128 0
 11969 3199 00       		.byte	0
 11970 319a 33       		.uleb128 0x33
 11971 319b 6A000000 		.4byte	.LVL410
 11972 319f AD310000 		.4byte	0x31ad
 11973 31a3 25       		.uleb128 0x25
 11974 31a4 01       		.uleb128 0x1
 11975 31a5 51       		.byte	0x51
 11976 31a6 05       		.uleb128 0x5
 11977 31a7 03       		.byte	0x3
 11978 31a8 39060000 		.4byte	.LC78
 11979 31ac 00       		.byte	0
 11980 31ad 27       		.uleb128 0x27
 11981 31ae 74000000 		.4byte	.LVL411
 11982 31b2 27140000 		.4byte	0x1427
ARM GAS  C:\Users\chemi\AppData\Local\Temp\ccFrP3K3.s 			page 248


 11983 31b6 C6310000 		.4byte	0x31c6
 11984 31ba 25       		.uleb128 0x25
 11985 31bb 01       		.uleb128 0x1
 11986 31bc 51       		.byte	0x51
 11987 31bd 01       		.uleb128 0x1
 11988 31be 30       		.byte	0x30
 11989 31bf 25       		.uleb128 0x25
 11990 31c0 01       		.uleb128 0x1
 11991 31c1 52       		.byte	0x52
 11992 31c2 02       		.uleb128 0x2
 11993 31c3 74       		.byte	0x74
 11994 31c4 00       		.sleb128 0
 11995 31c5 00       		.byte	0
 11996 31c6 33       		.uleb128 0x33
 11997 31c7 7C000000 		.4byte	.LVL412
 11998 31cb D9310000 		.4byte	0x31d9
 11999 31cf 25       		.uleb128 0x25
 12000 31d0 01       		.uleb128 0x1
 12001 31d1 51       		.byte	0x51
 12002 31d2 05       		.uleb128 0x5
 12003 31d3 03       		.byte	0x3
 12004 31d4 58060000 		.4byte	.LC79
 12005 31d8 00       		.byte	0
 12006 31d9 27       		.uleb128 0x27
 12007 31da 86000000 		.4byte	.LVL413
 12008 31de 59140000 		.4byte	0x1459
 12009 31e2 F2310000 		.4byte	0x31f2
 12010 31e6 25       		.uleb128 0x25
 12011 31e7 01       		.uleb128 0x1
 12012 31e8 51       		.byte	0x51
 12013 31e9 01       		.uleb128 0x1
 12014 31ea 30       		.byte	0x30
 12015 31eb 25       		.uleb128 0x25
 12016 31ec 01       		.uleb128 0x1
 12017 31ed 52       		.byte	0x52
 12018 31ee 02       		.uleb128 0x2
 12019 31ef 74       		.byte	0x74
 12020 31f0 00       		.sleb128 0
 12021 31f1 00       		.byte	0
 12022 31f2 33       		.uleb128 0x33
 12023 31f3 8E000000 		.4byte	.LVL414
 12024 31f7 05320000 		.4byte	0x3205
 12025 31fb 25       		.uleb128 0x25
 12026 31fc 01       		.uleb128 0x1
 12027 31fd 51       		.byte	0x51
 12028 31fe 05       		.uleb128 0x5
 12029 31ff 03       		.byte	0x3
 12030 3200 6A060000 		.4byte	.LC80
 12031 3204 00       		.byte	0
 12032 3205 27       		.uleb128 0x27
 12033 3206 98000000 		.4byte	.LVL415
 12034 320a 27140000 		.4byte	0x1427
 12035 320e 1E320000 		.4byte	0x321e
 12036 3212 25       		.uleb128 0x25
 12037 3213 01       		.uleb128 0x1
 12038 3214 51       		.byte	0x51
 12039 3215 01       		.uleb128 0x1
ARM GAS  C:\Users\chemi\AppData\Local\Temp\ccFrP3K3.s 			page 249


 12040 3216 30       		.byte	0x30
 12041 3217 25       		.uleb128 0x25
 12042 3218 01       		.uleb128 0x1
 12043 3219 52       		.byte	0x52
 12044 321a 02       		.uleb128 0x2
 12045 321b 74       		.byte	0x74
 12046 321c 00       		.sleb128 0
 12047 321d 00       		.byte	0
 12048 321e 33       		.uleb128 0x33
 12049 321f A0000000 		.4byte	.LVL416
 12050 3223 31320000 		.4byte	0x3231
 12051 3227 25       		.uleb128 0x25
 12052 3228 01       		.uleb128 0x1
 12053 3229 51       		.byte	0x51
 12054 322a 05       		.uleb128 0x5
 12055 322b 03       		.byte	0x3
 12056 322c 74060000 		.4byte	.LC81
 12057 3230 00       		.byte	0
 12058 3231 27       		.uleb128 0x27
 12059 3232 AA000000 		.4byte	.LVL417
 12060 3236 59140000 		.4byte	0x1459
 12061 323a 4A320000 		.4byte	0x324a
 12062 323e 25       		.uleb128 0x25
 12063 323f 01       		.uleb128 0x1
 12064 3240 51       		.byte	0x51
 12065 3241 01       		.uleb128 0x1
 12066 3242 30       		.byte	0x30
 12067 3243 25       		.uleb128 0x25
 12068 3244 01       		.uleb128 0x1
 12069 3245 52       		.byte	0x52
 12070 3246 02       		.uleb128 0x2
 12071 3247 74       		.byte	0x74
 12072 3248 00       		.sleb128 0
 12073 3249 00       		.byte	0
 12074 324a 33       		.uleb128 0x33
 12075 324b B2000000 		.4byte	.LVL418
 12076 324f 5D320000 		.4byte	0x325d
 12077 3253 25       		.uleb128 0x25
 12078 3254 01       		.uleb128 0x1
 12079 3255 51       		.byte	0x51
 12080 3256 05       		.uleb128 0x5
 12081 3257 03       		.byte	0x3
 12082 3258 84060000 		.4byte	.LC82
 12083 325c 00       		.byte	0
 12084 325d 27       		.uleb128 0x27
 12085 325e BC000000 		.4byte	.LVL419
 12086 3262 27140000 		.4byte	0x1427
 12087 3266 76320000 		.4byte	0x3276
 12088 326a 25       		.uleb128 0x25
 12089 326b 01       		.uleb128 0x1
 12090 326c 51       		.byte	0x51
 12091 326d 01       		.uleb128 0x1
 12092 326e 30       		.byte	0x30
 12093 326f 25       		.uleb128 0x25
 12094 3270 01       		.uleb128 0x1
 12095 3271 52       		.byte	0x52
 12096 3272 02       		.uleb128 0x2
ARM GAS  C:\Users\chemi\AppData\Local\Temp\ccFrP3K3.s 			page 250


 12097 3273 74       		.byte	0x74
 12098 3274 00       		.sleb128 0
 12099 3275 00       		.byte	0
 12100 3276 33       		.uleb128 0x33
 12101 3277 C4000000 		.4byte	.LVL420
 12102 327b 89320000 		.4byte	0x3289
 12103 327f 25       		.uleb128 0x25
 12104 3280 01       		.uleb128 0x1
 12105 3281 51       		.byte	0x51
 12106 3282 05       		.uleb128 0x5
 12107 3283 03       		.byte	0x3
 12108 3284 90060000 		.4byte	.LC83
 12109 3288 00       		.byte	0
 12110 3289 27       		.uleb128 0x27
 12111 328a CE000000 		.4byte	.LVL421
 12112 328e 59140000 		.4byte	0x1459
 12113 3292 A2320000 		.4byte	0x32a2
 12114 3296 25       		.uleb128 0x25
 12115 3297 01       		.uleb128 0x1
 12116 3298 51       		.byte	0x51
 12117 3299 01       		.uleb128 0x1
 12118 329a 30       		.byte	0x30
 12119 329b 25       		.uleb128 0x25
 12120 329c 01       		.uleb128 0x1
 12121 329d 52       		.byte	0x52
 12122 329e 02       		.uleb128 0x2
 12123 329f 74       		.byte	0x74
 12124 32a0 00       		.sleb128 0
 12125 32a1 00       		.byte	0
 12126 32a2 33       		.uleb128 0x33
 12127 32a3 D6000000 		.4byte	.LVL422
 12128 32a7 B5320000 		.4byte	0x32b5
 12129 32ab 25       		.uleb128 0x25
 12130 32ac 01       		.uleb128 0x1
 12131 32ad 51       		.byte	0x51
 12132 32ae 05       		.uleb128 0x5
 12133 32af 03       		.byte	0x3
 12134 32b0 A4060000 		.4byte	.LC84
 12135 32b4 00       		.byte	0
 12136 32b5 27       		.uleb128 0x27
 12137 32b6 E0000000 		.4byte	.LVL423
 12138 32ba 27140000 		.4byte	0x1427
 12139 32be CE320000 		.4byte	0x32ce
 12140 32c2 25       		.uleb128 0x25
 12141 32c3 01       		.uleb128 0x1
 12142 32c4 51       		.byte	0x51
 12143 32c5 01       		.uleb128 0x1
 12144 32c6 30       		.byte	0x30
 12145 32c7 25       		.uleb128 0x25
 12146 32c8 01       		.uleb128 0x1
 12147 32c9 52       		.byte	0x52
 12148 32ca 02       		.uleb128 0x2
 12149 32cb 74       		.byte	0x74
 12150 32cc 00       		.sleb128 0
 12151 32cd 00       		.byte	0
 12152 32ce 33       		.uleb128 0x33
 12153 32cf E8000000 		.4byte	.LVL424
ARM GAS  C:\Users\chemi\AppData\Local\Temp\ccFrP3K3.s 			page 251


 12154 32d3 E1320000 		.4byte	0x32e1
 12155 32d7 25       		.uleb128 0x25
 12156 32d8 01       		.uleb128 0x1
 12157 32d9 51       		.byte	0x51
 12158 32da 05       		.uleb128 0x5
 12159 32db 03       		.byte	0x3
 12160 32dc B0060000 		.4byte	.LC85
 12161 32e0 00       		.byte	0
 12162 32e1 27       		.uleb128 0x27
 12163 32e2 F2000000 		.4byte	.LVL425
 12164 32e6 59140000 		.4byte	0x1459
 12165 32ea FA320000 		.4byte	0x32fa
 12166 32ee 25       		.uleb128 0x25
 12167 32ef 01       		.uleb128 0x1
 12168 32f0 51       		.byte	0x51
 12169 32f1 01       		.uleb128 0x1
 12170 32f2 30       		.byte	0x30
 12171 32f3 25       		.uleb128 0x25
 12172 32f4 01       		.uleb128 0x1
 12173 32f5 52       		.byte	0x52
 12174 32f6 02       		.uleb128 0x2
 12175 32f7 74       		.byte	0x74
 12176 32f8 00       		.sleb128 0
 12177 32f9 00       		.byte	0
 12178 32fa 33       		.uleb128 0x33
 12179 32fb FA000000 		.4byte	.LVL426
 12180 32ff 0D330000 		.4byte	0x330d
 12181 3303 25       		.uleb128 0x25
 12182 3304 01       		.uleb128 0x1
 12183 3305 51       		.byte	0x51
 12184 3306 05       		.uleb128 0x5
 12185 3307 03       		.byte	0x3
 12186 3308 C4060000 		.4byte	.LC86
 12187 330c 00       		.byte	0
 12188 330d 27       		.uleb128 0x27
 12189 330e 04010000 		.4byte	.LVL427
 12190 3312 27140000 		.4byte	0x1427
 12191 3316 26330000 		.4byte	0x3326
 12192 331a 25       		.uleb128 0x25
 12193 331b 01       		.uleb128 0x1
 12194 331c 51       		.byte	0x51
 12195 331d 01       		.uleb128 0x1
 12196 331e 30       		.byte	0x30
 12197 331f 25       		.uleb128 0x25
 12198 3320 01       		.uleb128 0x1
 12199 3321 52       		.byte	0x52
 12200 3322 02       		.uleb128 0x2
 12201 3323 74       		.byte	0x74
 12202 3324 00       		.sleb128 0
 12203 3325 00       		.byte	0
 12204 3326 33       		.uleb128 0x33
 12205 3327 0C010000 		.4byte	.LVL428
 12206 332b 39330000 		.4byte	0x3339
 12207 332f 25       		.uleb128 0x25
 12208 3330 01       		.uleb128 0x1
 12209 3331 51       		.byte	0x51
 12210 3332 05       		.uleb128 0x5
ARM GAS  C:\Users\chemi\AppData\Local\Temp\ccFrP3K3.s 			page 252


 12211 3333 03       		.byte	0x3
 12212 3334 D0060000 		.4byte	.LC87
 12213 3338 00       		.byte	0
 12214 3339 27       		.uleb128 0x27
 12215 333a 16010000 		.4byte	.LVL429
 12216 333e 59140000 		.4byte	0x1459
 12217 3342 52330000 		.4byte	0x3352
 12218 3346 25       		.uleb128 0x25
 12219 3347 01       		.uleb128 0x1
 12220 3348 51       		.byte	0x51
 12221 3349 01       		.uleb128 0x1
 12222 334a 30       		.byte	0x30
 12223 334b 25       		.uleb128 0x25
 12224 334c 01       		.uleb128 0x1
 12225 334d 52       		.byte	0x52
 12226 334e 02       		.uleb128 0x2
 12227 334f 74       		.byte	0x74
 12228 3350 00       		.sleb128 0
 12229 3351 00       		.byte	0
 12230 3352 33       		.uleb128 0x33
 12231 3353 1E010000 		.4byte	.LVL430
 12232 3357 65330000 		.4byte	0x3365
 12233 335b 25       		.uleb128 0x25
 12234 335c 01       		.uleb128 0x1
 12235 335d 51       		.byte	0x51
 12236 335e 05       		.uleb128 0x5
 12237 335f 03       		.byte	0x3
 12238 3360 E5060000 		.4byte	.LC88
 12239 3364 00       		.byte	0
 12240 3365 27       		.uleb128 0x27
 12241 3366 28010000 		.4byte	.LVL431
 12242 336a 59140000 		.4byte	0x1459
 12243 336e 7E330000 		.4byte	0x337e
 12244 3372 25       		.uleb128 0x25
 12245 3373 01       		.uleb128 0x1
 12246 3374 51       		.byte	0x51
 12247 3375 01       		.uleb128 0x1
 12248 3376 30       		.byte	0x30
 12249 3377 25       		.uleb128 0x25
 12250 3378 01       		.uleb128 0x1
 12251 3379 52       		.byte	0x52
 12252 337a 02       		.uleb128 0x2
 12253 337b 74       		.byte	0x74
 12254 337c 00       		.sleb128 0
 12255 337d 00       		.byte	0
 12256 337e 33       		.uleb128 0x33
 12257 337f 30010000 		.4byte	.LVL432
 12258 3383 91330000 		.4byte	0x3391
 12259 3387 25       		.uleb128 0x25
 12260 3388 01       		.uleb128 0x1
 12261 3389 51       		.byte	0x51
 12262 338a 05       		.uleb128 0x5
 12263 338b 03       		.byte	0x3
 12264 338c ED060000 		.4byte	.LC89
 12265 3390 00       		.byte	0
 12266 3391 2D       		.uleb128 0x2d
 12267 3392 34010000 		.4byte	.LVL433
ARM GAS  C:\Users\chemi\AppData\Local\Temp\ccFrP3K3.s 			page 253


 12268 3396 86370000 		.4byte	0x3786
 12269 339a 27       		.uleb128 0x27
 12270 339b 3C010000 		.4byte	.LVL434
 12271 339f 27140000 		.4byte	0x1427
 12272 33a3 B3330000 		.4byte	0x33b3
 12273 33a7 25       		.uleb128 0x25
 12274 33a8 01       		.uleb128 0x1
 12275 33a9 51       		.byte	0x51
 12276 33aa 01       		.uleb128 0x1
 12277 33ab 31       		.byte	0x31
 12278 33ac 25       		.uleb128 0x25
 12279 33ad 01       		.uleb128 0x1
 12280 33ae 52       		.byte	0x52
 12281 33af 02       		.uleb128 0x2
 12282 33b0 74       		.byte	0x74
 12283 33b1 00       		.sleb128 0
 12284 33b2 00       		.byte	0
 12285 33b3 33       		.uleb128 0x33
 12286 33b4 48010000 		.4byte	.LVL435
 12287 33b8 C6330000 		.4byte	0x33c6
 12288 33bc 25       		.uleb128 0x25
 12289 33bd 01       		.uleb128 0x1
 12290 33be 51       		.byte	0x51
 12291 33bf 05       		.uleb128 0x5
 12292 33c0 03       		.byte	0x3
 12293 33c1 F9060000 		.4byte	.LC90
 12294 33c5 00       		.byte	0
 12295 33c6 33       		.uleb128 0x33
 12296 33c7 50010000 		.4byte	.LVL436
 12297 33cb D9330000 		.4byte	0x33d9
 12298 33cf 25       		.uleb128 0x25
 12299 33d0 01       		.uleb128 0x1
 12300 33d1 51       		.byte	0x51
 12301 33d2 05       		.uleb128 0x5
 12302 33d3 03       		.byte	0x3
 12303 33d4 10070000 		.4byte	.LC91
 12304 33d8 00       		.byte	0
 12305 33d9 2D       		.uleb128 0x2d
 12306 33da 54010000 		.4byte	.LVL437
 12307 33de CD390000 		.4byte	0x39cd
 12308 33e2 27       		.uleb128 0x27
 12309 33e3 5C010000 		.4byte	.LVL438
 12310 33e7 59140000 		.4byte	0x1459
 12311 33eb FB330000 		.4byte	0x33fb
 12312 33ef 25       		.uleb128 0x25
 12313 33f0 01       		.uleb128 0x1
 12314 33f1 51       		.byte	0x51
 12315 33f2 01       		.uleb128 0x1
 12316 33f3 30       		.byte	0x30
 12317 33f4 25       		.uleb128 0x25
 12318 33f5 01       		.uleb128 0x1
 12319 33f6 52       		.byte	0x52
 12320 33f7 02       		.uleb128 0x2
 12321 33f8 74       		.byte	0x74
 12322 33f9 00       		.sleb128 0
 12323 33fa 00       		.byte	0
 12324 33fb 33       		.uleb128 0x33
ARM GAS  C:\Users\chemi\AppData\Local\Temp\ccFrP3K3.s 			page 254


 12325 33fc 64010000 		.4byte	.LVL439
 12326 3400 0E340000 		.4byte	0x340e
 12327 3404 25       		.uleb128 0x25
 12328 3405 01       		.uleb128 0x1
 12329 3406 51       		.byte	0x51
 12330 3407 05       		.uleb128 0x5
 12331 3408 03       		.byte	0x3
 12332 3409 1A070000 		.4byte	.LC92
 12333 340d 00       		.byte	0
 12334 340e 2D       		.uleb128 0x2d
 12335 340f 68010000 		.4byte	.LVL440
 12336 3413 D8390000 		.4byte	0x39d8
 12337 3417 27       		.uleb128 0x27
 12338 3418 70010000 		.4byte	.LVL441
 12339 341c 59140000 		.4byte	0x1459
 12340 3420 30340000 		.4byte	0x3430
 12341 3424 25       		.uleb128 0x25
 12342 3425 01       		.uleb128 0x1
 12343 3426 51       		.byte	0x51
 12344 3427 01       		.uleb128 0x1
 12345 3428 30       		.byte	0x30
 12346 3429 25       		.uleb128 0x25
 12347 342a 01       		.uleb128 0x1
 12348 342b 52       		.byte	0x52
 12349 342c 02       		.uleb128 0x2
 12350 342d 74       		.byte	0x74
 12351 342e 00       		.sleb128 0
 12352 342f 00       		.byte	0
 12353 3430 33       		.uleb128 0x33
 12354 3431 78010000 		.4byte	.LVL442
 12355 3435 43340000 		.4byte	0x3443
 12356 3439 25       		.uleb128 0x25
 12357 343a 01       		.uleb128 0x1
 12358 343b 51       		.byte	0x51
 12359 343c 05       		.uleb128 0x5
 12360 343d 03       		.byte	0x3
 12361 343e 25070000 		.4byte	.LC93
 12362 3442 00       		.byte	0
 12363 3443 2D       		.uleb128 0x2d
 12364 3444 7C010000 		.4byte	.LVL443
 12365 3448 E3390000 		.4byte	0x39e3
 12366 344c 27       		.uleb128 0x27
 12367 344d 84010000 		.4byte	.LVL444
 12368 3451 59140000 		.4byte	0x1459
 12369 3455 65340000 		.4byte	0x3465
 12370 3459 25       		.uleb128 0x25
 12371 345a 01       		.uleb128 0x1
 12372 345b 51       		.byte	0x51
 12373 345c 01       		.uleb128 0x1
 12374 345d 30       		.byte	0x30
 12375 345e 25       		.uleb128 0x25
 12376 345f 01       		.uleb128 0x1
 12377 3460 52       		.byte	0x52
 12378 3461 02       		.uleb128 0x2
 12379 3462 74       		.byte	0x74
 12380 3463 00       		.sleb128 0
 12381 3464 00       		.byte	0
ARM GAS  C:\Users\chemi\AppData\Local\Temp\ccFrP3K3.s 			page 255


 12382 3465 33       		.uleb128 0x33
 12383 3466 8C010000 		.4byte	.LVL445
 12384 346a 78340000 		.4byte	0x3478
 12385 346e 25       		.uleb128 0x25
 12386 346f 01       		.uleb128 0x1
 12387 3470 51       		.byte	0x51
 12388 3471 05       		.uleb128 0x5
 12389 3472 03       		.byte	0x3
 12390 3473 30070000 		.4byte	.LC94
 12391 3477 00       		.byte	0
 12392 3478 2D       		.uleb128 0x2d
 12393 3479 90010000 		.4byte	.LVL446
 12394 347d EE390000 		.4byte	0x39ee
 12395 3481 27       		.uleb128 0x27
 12396 3482 98010000 		.4byte	.LVL447
 12397 3486 27140000 		.4byte	0x1427
 12398 348a 9A340000 		.4byte	0x349a
 12399 348e 25       		.uleb128 0x25
 12400 348f 01       		.uleb128 0x1
 12401 3490 51       		.byte	0x51
 12402 3491 01       		.uleb128 0x1
 12403 3492 30       		.byte	0x30
 12404 3493 25       		.uleb128 0x25
 12405 3494 01       		.uleb128 0x1
 12406 3495 52       		.byte	0x52
 12407 3496 02       		.uleb128 0x2
 12408 3497 74       		.byte	0x74
 12409 3498 00       		.sleb128 0
 12410 3499 00       		.byte	0
 12411 349a 33       		.uleb128 0x33
 12412 349b A0010000 		.4byte	.LVL448
 12413 349f AD340000 		.4byte	0x34ad
 12414 34a3 25       		.uleb128 0x25
 12415 34a4 01       		.uleb128 0x1
 12416 34a5 51       		.byte	0x51
 12417 34a6 05       		.uleb128 0x5
 12418 34a7 03       		.byte	0x3
 12419 34a8 3B070000 		.4byte	.LC95
 12420 34ac 00       		.byte	0
 12421 34ad 2D       		.uleb128 0x2d
 12422 34ae A4010000 		.4byte	.LVL449
 12423 34b2 F9390000 		.4byte	0x39f9
 12424 34b6 27       		.uleb128 0x27
 12425 34b7 AC010000 		.4byte	.LVL450
 12426 34bb 59140000 		.4byte	0x1459
 12427 34bf CF340000 		.4byte	0x34cf
 12428 34c3 25       		.uleb128 0x25
 12429 34c4 01       		.uleb128 0x1
 12430 34c5 51       		.byte	0x51
 12431 34c6 01       		.uleb128 0x1
 12432 34c7 30       		.byte	0x30
 12433 34c8 25       		.uleb128 0x25
 12434 34c9 01       		.uleb128 0x1
 12435 34ca 52       		.byte	0x52
 12436 34cb 02       		.uleb128 0x2
 12437 34cc 74       		.byte	0x74
 12438 34cd 00       		.sleb128 0
ARM GAS  C:\Users\chemi\AppData\Local\Temp\ccFrP3K3.s 			page 256


 12439 34ce 00       		.byte	0
 12440 34cf 33       		.uleb128 0x33
 12441 34d0 B6010000 		.4byte	.LVL451
 12442 34d4 E2340000 		.4byte	0x34e2
 12443 34d8 25       		.uleb128 0x25
 12444 34d9 01       		.uleb128 0x1
 12445 34da 51       		.byte	0x51
 12446 34db 05       		.uleb128 0x5
 12447 34dc 03       		.byte	0x3
 12448 34dd 41070000 		.4byte	.LC96
 12449 34e1 00       		.byte	0
 12450 34e2 27       		.uleb128 0x27
 12451 34e3 C0010000 		.4byte	.LVL452
 12452 34e7 83380000 		.4byte	0x3883
 12453 34eb 00350000 		.4byte	0x3500
 12454 34ef 25       		.uleb128 0x25
 12455 34f0 01       		.uleb128 0x1
 12456 34f1 50       		.byte	0x50
 12457 34f2 02       		.uleb128 0x2
 12458 34f3 74       		.byte	0x74
 12459 34f4 00       		.sleb128 0
 12460 34f5 25       		.uleb128 0x25
 12461 34f6 01       		.uleb128 0x1
 12462 34f7 51       		.byte	0x51
 12463 34f8 01       		.uleb128 0x1
 12464 34f9 32       		.byte	0x32
 12465 34fa 25       		.uleb128 0x25
 12466 34fb 01       		.uleb128 0x1
 12467 34fc 52       		.byte	0x52
 12468 34fd 01       		.uleb128 0x1
 12469 34fe 36       		.byte	0x36
 12470 34ff 00       		.byte	0
 12471 3500 33       		.uleb128 0x33
 12472 3501 F8010000 		.4byte	.LVL454
 12473 3505 13350000 		.4byte	0x3513
 12474 3509 25       		.uleb128 0x25
 12475 350a 01       		.uleb128 0x1
 12476 350b 51       		.byte	0x51
 12477 350c 05       		.uleb128 0x5
 12478 350d 03       		.byte	0x3
 12479 350e BB070000 		.4byte	.LC103
 12480 3512 00       		.byte	0
 12481 3513 27       		.uleb128 0x27
 12482 3514 02020000 		.4byte	.LVL455
 12483 3518 83380000 		.4byte	0x3883
 12484 351c 31350000 		.4byte	0x3531
 12485 3520 25       		.uleb128 0x25
 12486 3521 01       		.uleb128 0x1
 12487 3522 50       		.byte	0x50
 12488 3523 02       		.uleb128 0x2
 12489 3524 74       		.byte	0x74
 12490 3525 00       		.sleb128 0
 12491 3526 25       		.uleb128 0x25
 12492 3527 01       		.uleb128 0x1
 12493 3528 51       		.byte	0x51
 12494 3529 01       		.uleb128 0x1
 12495 352a 32       		.byte	0x32
ARM GAS  C:\Users\chemi\AppData\Local\Temp\ccFrP3K3.s 			page 257


 12496 352b 25       		.uleb128 0x25
 12497 352c 01       		.uleb128 0x1
 12498 352d 52       		.byte	0x52
 12499 352e 01       		.uleb128 0x1
 12500 352f 37       		.byte	0x37
 12501 3530 00       		.byte	0
 12502 3531 33       		.uleb128 0x33
 12503 3532 0A020000 		.4byte	.LVL456
 12504 3536 44350000 		.4byte	0x3544
 12505 353a 25       		.uleb128 0x25
 12506 353b 01       		.uleb128 0x1
 12507 353c 51       		.byte	0x51
 12508 353d 05       		.uleb128 0x5
 12509 353e 03       		.byte	0x3
 12510 353f BE070000 		.4byte	.LC104
 12511 3543 00       		.byte	0
 12512 3544 2C       		.uleb128 0x2c
 12513 3545 2E020000 		.4byte	.LVL457
 12514 3549 02       		.uleb128 0x2
 12515 354a 76       		.byte	0x76
 12516 354b 00       		.sleb128 0
 12517 354c 5A350000 		.4byte	0x355a
 12518 3550 25       		.uleb128 0x25
 12519 3551 01       		.uleb128 0x1
 12520 3552 51       		.byte	0x51
 12521 3553 05       		.uleb128 0x5
 12522 3554 03       		.byte	0x3
 12523 3555 E4070000 		.4byte	.LC105
 12524 3559 00       		.byte	0
 12525 355a 33       		.uleb128 0x33
 12526 355b 38020000 		.4byte	.LVL458
 12527 355f 6D350000 		.4byte	0x356d
 12528 3563 25       		.uleb128 0x25
 12529 3564 01       		.uleb128 0x1
 12530 3565 51       		.byte	0x51
 12531 3566 05       		.uleb128 0x5
 12532 3567 03       		.byte	0x3
 12533 3568 BE070000 		.4byte	.LC104
 12534 356c 00       		.byte	0
 12535 356d 2D       		.uleb128 0x2d
 12536 356e 48020000 		.4byte	.LVL459
 12537 3572 043A0000 		.4byte	0x3a04
 12538 3576 2D       		.uleb128 0x2d
 12539 3577 54020000 		.4byte	.LVL460
 12540 357b 043A0000 		.4byte	0x3a04
 12541 357f 2C       		.uleb128 0x2c
 12542 3580 5E020000 		.4byte	.LVL461
 12543 3584 02       		.uleb128 0x2
 12544 3585 77       		.byte	0x77
 12545 3586 00       		.sleb128 0
 12546 3587 A1350000 		.4byte	0x35a1
 12547 358b 25       		.uleb128 0x25
 12548 358c 01       		.uleb128 0x1
 12549 358d 50       		.byte	0x50
 12550 358e 02       		.uleb128 0x2
 12551 358f 78       		.byte	0x78
 12552 3590 00       		.sleb128 0
ARM GAS  C:\Users\chemi\AppData\Local\Temp\ccFrP3K3.s 			page 258


 12553 3591 25       		.uleb128 0x25
 12554 3592 01       		.uleb128 0x1
 12555 3593 51       		.byte	0x51
 12556 3594 05       		.uleb128 0x5
 12557 3595 03       		.byte	0x3
 12558 3596 06080000 		.4byte	.LC106
 12559 359a 25       		.uleb128 0x25
 12560 359b 01       		.uleb128 0x1
 12561 359c 52       		.byte	0x52
 12562 359d 02       		.uleb128 0x2
 12563 359e 79       		.byte	0x79
 12564 359f 00       		.sleb128 0
 12565 35a0 00       		.byte	0
 12566 35a1 33       		.uleb128 0x33
 12567 35a2 66020000 		.4byte	.LVL462
 12568 35a6 B4350000 		.4byte	0x35b4
 12569 35aa 25       		.uleb128 0x25
 12570 35ab 01       		.uleb128 0x1
 12571 35ac 51       		.byte	0x51
 12572 35ad 05       		.uleb128 0x5
 12573 35ae 03       		.byte	0x3
 12574 35af BE070000 		.4byte	.LC104
 12575 35b3 00       		.byte	0
 12576 35b4 2D       		.uleb128 0x2d
 12577 35b5 76020000 		.4byte	.LVL463
 12578 35b9 043A0000 		.4byte	0x3a04
 12579 35bd 2C       		.uleb128 0x2c
 12580 35be 80020000 		.4byte	.LVL464
 12581 35c2 02       		.uleb128 0x2
 12582 35c3 77       		.byte	0x77
 12583 35c4 00       		.sleb128 0
 12584 35c5 D9350000 		.4byte	0x35d9
 12585 35c9 25       		.uleb128 0x25
 12586 35ca 01       		.uleb128 0x1
 12587 35cb 50       		.byte	0x50
 12588 35cc 02       		.uleb128 0x2
 12589 35cd 78       		.byte	0x78
 12590 35ce 00       		.sleb128 0
 12591 35cf 25       		.uleb128 0x25
 12592 35d0 01       		.uleb128 0x1
 12593 35d1 51       		.byte	0x51
 12594 35d2 05       		.uleb128 0x5
 12595 35d3 03       		.byte	0x3
 12596 35d4 21080000 		.4byte	.LC107
 12597 35d8 00       		.byte	0
 12598 35d9 27       		.uleb128 0x27
 12599 35da 88020000 		.4byte	.LVL465
 12600 35de BA380000 		.4byte	0x38ba
 12601 35e2 F3350000 		.4byte	0x35f3
 12602 35e6 25       		.uleb128 0x25
 12603 35e7 01       		.uleb128 0x1
 12604 35e8 50       		.byte	0x50
 12605 35e9 02       		.uleb128 0x2
 12606 35ea 74       		.byte	0x74
 12607 35eb 00       		.sleb128 0
 12608 35ec 25       		.uleb128 0x25
 12609 35ed 01       		.uleb128 0x1
ARM GAS  C:\Users\chemi\AppData\Local\Temp\ccFrP3K3.s 			page 259


 12610 35ee 51       		.byte	0x51
 12611 35ef 02       		.uleb128 0x2
 12612 35f0 08       		.byte	0x8
 12613 35f1 FA       		.byte	0xfa
 12614 35f2 00       		.byte	0
 12615 35f3 2E       		.uleb128 0x2e
 12616 35f4 98020000 		.4byte	.LVL466
 12617 35f8 83380000 		.4byte	0x3883
 12618 35fc 25       		.uleb128 0x25
 12619 35fd 01       		.uleb128 0x1
 12620 35fe 50       		.byte	0x50
 12621 35ff 02       		.uleb128 0x2
 12622 3600 74       		.byte	0x74
 12623 3601 00       		.sleb128 0
 12624 3602 25       		.uleb128 0x25
 12625 3603 01       		.uleb128 0x1
 12626 3604 51       		.byte	0x51
 12627 3605 01       		.uleb128 0x1
 12628 3606 34       		.byte	0x34
 12629 3607 00       		.byte	0
 12630 3608 00       		.byte	0
 12631 3609 13       		.uleb128 0x13
 12632 360a 3C010000 		.4byte	0x13c
 12633 360e 19360000 		.4byte	0x3619
 12634 3612 14       		.uleb128 0x14
 12635 3613 2D010000 		.4byte	0x12d
 12636 3617 05       		.byte	0x5
 12637 3618 00       		.byte	0
 12638 3619 40       		.uleb128 0x40
 12639 361a CE150000 		.4byte	.LASF357
 12640 361e 19       		.byte	0x19
 12641 361f 1C       		.byte	0x1c
 12642 3620 2A360000 		.4byte	0x362a
 12643 3624 05       		.uleb128 0x5
 12644 3625 03       		.byte	0x3
 12645 3626 00000000 		.4byte	version
 12646 362a 09       		.uleb128 0x9
 12647 362b 09360000 		.4byte	0x3609
 12648 362f 41       		.uleb128 0x41
 12649 3630 A80F0000 		.4byte	.LASF436
 12650 3634 1A       		.byte	0x1a
 12651 3635 1207     		.2byte	0x712
 12652 3637 7C110000 		.4byte	0x117c
 12653 363b 13       		.uleb128 0x13
 12654 363c 56060000 		.4byte	0x656
 12655 3640 4B360000 		.4byte	0x364b
 12656 3644 14       		.uleb128 0x14
 12657 3645 2D010000 		.4byte	0x12d
 12658 3649 4F       		.byte	0x4f
 12659 364a 00       		.byte	0
 12660 364b 42       		.uleb128 0x42
 12661 364c 08050000 		.4byte	.LASF437
 12662 3650 01       		.byte	0x1
 12663 3651 C4       		.byte	0xc4
 12664 3652 3B360000 		.4byte	0x363b
 12665 3656 05       		.uleb128 0x5
 12666 3657 03       		.byte	0x3
ARM GAS  C:\Users\chemi\AppData\Local\Temp\ccFrP3K3.s 			page 260


 12667 3658 00000000 		.4byte	confparam
 12668 365c 42       		.uleb128 0x42
 12669 365d E00B0000 		.4byte	.LASF438
 12670 3661 01       		.byte	0x1
 12671 3662 53       		.byte	0x53
 12672 3663 F9090000 		.4byte	0x9f9
 12673 3667 05       		.uleb128 0x5
 12674 3668 03       		.byte	0x3
 12675 3669 00000000 		.4byte	configuration
 12676 366d 42       		.uleb128 0x42
 12677 366e 110D0000 		.4byte	.LASF439
 12678 3672 01       		.byte	0x1
 12679 3673 54       		.byte	0x54
 12680 3674 F40A0000 		.4byte	0xaf4
 12681 3678 05       		.uleb128 0x5
 12682 3679 03       		.byte	0x3
 12683 367a 00000000 		.4byte	param
 12684 367e 42       		.uleb128 0x42
 12685 367f 2F080000 		.4byte	.LASF383
 12686 3683 0E       		.byte	0xe
 12687 3684 32       		.byte	0x32
 12688 3685 8F360000 		.4byte	0x368f
 12689 3689 05       		.uleb128 0x5
 12690 368a 03       		.byte	0x3
 12691 368b 00000000 		.4byte	params
 12692 368f 06       		.uleb128 0x6
 12693 3690 B00B0000 		.4byte	0xbb0
 12694 3694 13       		.uleb128 0x13
 12695 3695 C6000000 		.4byte	0xc6
 12696 3699 A4360000 		.4byte	0x36a4
 12697 369d 14       		.uleb128 0x14
 12698 369e 2D010000 		.4byte	0x12d
 12699 36a2 02       		.byte	0x2
 12700 36a3 00       		.byte	0
 12701 36a4 42       		.uleb128 0x42
 12702 36a5 EC1A0000 		.4byte	.LASF440
 12703 36a9 0E       		.byte	0xe
 12704 36aa 37       		.byte	0x37
 12705 36ab 94360000 		.4byte	0x3694
 12706 36af 05       		.uleb128 0x5
 12707 36b0 03       		.byte	0x3
 12708 36b1 00000000 		.4byte	ct1_dac_val
 12709 36b5 42       		.uleb128 0x42
 12710 36b6 E2050000 		.4byte	.LASF441
 12711 36ba 0F       		.byte	0xf
 12712 36bb 59       		.byte	0x59
 12713 36bc 910C0000 		.4byte	0xc91
 12714 36c0 05       		.uleb128 0x5
 12715 36c1 03       		.byte	0x3
 12716 36c2 00000000 		.4byte	interrupter
 12717 36c6 43       		.uleb128 0x43
 12718 36c7 DE170000 		.4byte	.LASF442
 12719 36cb 1B       		.byte	0x1b
 12720 36cc 1E       		.byte	0x1e
 12721 36cd 47010000 		.4byte	0x147
 12722 36d1 43       		.uleb128 0x43
 12723 36d2 15060000 		.4byte	.LASF443
ARM GAS  C:\Users\chemi\AppData\Local\Temp\ccFrP3K3.s 			page 261


 12724 36d6 11       		.byte	0x11
 12725 36d7 39       		.byte	0x39
 12726 36d8 FE0D0000 		.4byte	0xdfe
 12727 36dc 13       		.uleb128 0x13
 12728 36dd EA0E0000 		.4byte	0xeea
 12729 36e1 EC360000 		.4byte	0x36ec
 12730 36e5 14       		.uleb128 0x14
 12731 36e6 2D010000 		.4byte	0x12d
 12732 36ea 03       		.byte	0x3
 12733 36eb 00       		.byte	0
 12734 36ec 43       		.uleb128 0x43
 12735 36ed 660D0000 		.4byte	.LASF444
 12736 36f1 11       		.byte	0x11
 12737 36f2 41       		.byte	0x41
 12738 36f3 DC360000 		.4byte	0x36dc
 12739 36f7 43       		.uleb128 0x43
 12740 36f8 DF030000 		.4byte	.LASF445
 12741 36fc 11       		.byte	0x11
 12742 36fd 42       		.byte	0x42
 12743 36fe 1B0F0000 		.4byte	0xf1b
 12744 3702 44       		.uleb128 0x44
 12745 3703 747400   		.ascii	"tt\000"
 12746 3706 12       		.byte	0x12
 12747 3707 5B       		.byte	0x5b
 12748 3708 F8100000 		.4byte	0x10f8
 12749 370c 42       		.uleb128 0x42
 12750 370d 3B0B0000 		.4byte	.LASF446
 12751 3711 13       		.byte	0x13
 12752 3712 4B       		.byte	0x4b
 12753 3713 28010000 		.4byte	0x128
 12754 3717 05       		.uleb128 0x5
 12755 3718 03       		.byte	0x3
 12756 3719 00000000 		.4byte	bus_command
 12757 371d 43       		.uleb128 0x43
 12758 371e EE050000 		.4byte	.LASF447
 12759 3722 13       		.byte	0x13
 12760 3723 69       		.byte	0x69
 12761 3724 28370000 		.4byte	0x3728
 12762 3728 08       		.uleb128 0x8
 12763 3729 04       		.byte	0x4
 12764 372a 3C110000 		.4byte	0x113c
 12765 372e 43       		.uleb128 0x43
 12766 372f 910E0000 		.4byte	.LASF448
 12767 3733 15       		.byte	0x15
 12768 3734 33       		.byte	0x33
 12769 3735 12120000 		.4byte	0x1212
 12770 3739 43       		.uleb128 0x43
 12771 373a CD180000 		.4byte	.LASF449
 12772 373e 15       		.byte	0x15
 12773 373f 35       		.byte	0x35
 12774 3740 F2000000 		.4byte	0xf2
 12775 3744 43       		.uleb128 0x43
 12776 3745 9D080000 		.4byte	.LASF450
 12777 3749 16       		.byte	0x16
 12778 374a 37       		.byte	0x37
 12779 374b CA120000 		.4byte	0x12ca
 12780 374f 42       		.uleb128 0x42
ARM GAS  C:\Users\chemi\AppData\Local\Temp\ccFrP3K3.s 			page 262


 12781 3750 B4130000 		.4byte	.LASF451
 12782 3754 17       		.byte	0x17
 12783 3755 2A       		.byte	0x2a
 12784 3756 60370000 		.4byte	0x3760
 12785 375a 05       		.uleb128 0x5
 12786 375b 03       		.byte	0x3
 12787 375c 00000000 		.4byte	ramp
 12788 3760 06       		.uleb128 0x6
 12789 3761 27130000 		.4byte	0x1327
 12790 3765 43       		.uleb128 0x43
 12791 3766 F7060000 		.4byte	.LASF452
 12792 376a 1C       		.byte	0x1c
 12793 376b 07       		.byte	0x7
 12794 376c 87130000 		.4byte	0x1387
 12795 3770 45       		.uleb128 0x45
 12796 3771 6A0C0000 		.4byte	.LASF453
 12797 3775 6A0C0000 		.4byte	.LASF453
 12798 3779 0B       		.byte	0xb
 12799 377a 81       		.byte	0x81
 12800 377b 45       		.uleb128 0x45
 12801 377c 900A0000 		.4byte	.LASF454
 12802 3780 900A0000 		.4byte	.LASF454
 12803 3784 1D       		.byte	0x1d
 12804 3785 2F       		.byte	0x2f
 12805 3786 45       		.uleb128 0x45
 12806 3787 0D020000 		.4byte	.LASF455
 12807 378b 0D020000 		.4byte	.LASF455
 12808 378f 1E       		.byte	0x1e
 12809 3790 30       		.byte	0x30
 12810 3791 45       		.uleb128 0x45
 12811 3792 92080000 		.4byte	.LASF456
 12812 3796 92080000 		.4byte	.LASF456
 12813 379a 15       		.byte	0x15
 12814 379b 3C       		.byte	0x3c
 12815 379c 45       		.uleb128 0x45
 12816 379d 26070000 		.4byte	.LASF457
 12817 37a1 26070000 		.4byte	.LASF457
 12818 37a5 0E       		.byte	0xe
 12819 37a6 3A       		.byte	0x3a
 12820 37a7 45       		.uleb128 0x45
 12821 37a8 2C0B0000 		.4byte	.LASF458
 12822 37ac 2C0B0000 		.4byte	.LASF458
 12823 37b0 1F       		.byte	0x1f
 12824 37b1 26       		.byte	0x26
 12825 37b2 45       		.uleb128 0x45
 12826 37b3 38170000 		.4byte	.LASF459
 12827 37b7 38170000 		.4byte	.LASF459
 12828 37bb 20       		.byte	0x20
 12829 37bc 1F       		.byte	0x1f
 12830 37bd 45       		.uleb128 0x45
 12831 37be 7D1A0000 		.4byte	.LASF460
 12832 37c2 7D1A0000 		.4byte	.LASF460
 12833 37c6 15       		.byte	0x15
 12834 37c7 38       		.byte	0x38
 12835 37c8 45       		.uleb128 0x45
 12836 37c9 1A170000 		.4byte	.LASF461
 12837 37cd 1A170000 		.4byte	.LASF461
ARM GAS  C:\Users\chemi\AppData\Local\Temp\ccFrP3K3.s 			page 263


 12838 37d1 0F       		.byte	0xf
 12839 37d2 60       		.byte	0x60
 12840 37d3 45       		.uleb128 0x45
 12841 37d4 7B130000 		.4byte	.LASF462
 12842 37d8 7B130000 		.4byte	.LASF462
 12843 37dc 13       		.byte	0x13
 12844 37dd 4D       		.byte	0x4d
 12845 37de 45       		.uleb128 0x45
 12846 37df 000E0000 		.4byte	.LASF463
 12847 37e3 000E0000 		.4byte	.LASF463
 12848 37e7 13       		.byte	0x13
 12849 37e8 61       		.byte	0x61
 12850 37e9 45       		.uleb128 0x45
 12851 37ea A1160000 		.4byte	.LASF464
 12852 37ee A1160000 		.4byte	.LASF464
 12853 37f2 1D       		.byte	0x1d
 12854 37f3 30       		.byte	0x30
 12855 37f4 45       		.uleb128 0x45
 12856 37f5 CD0D0000 		.4byte	.LASF465
 12857 37f9 CD0D0000 		.4byte	.LASF465
 12858 37fd 13       		.byte	0x13
 12859 37fe 65       		.byte	0x65
 12860 37ff 45       		.uleb128 0x45
 12861 3800 47010000 		.4byte	.LASF466
 12862 3804 47010000 		.4byte	.LASF466
 12863 3808 17       		.byte	0x17
 12864 3809 30       		.byte	0x30
 12865 380a 45       		.uleb128 0x45
 12866 380b 00160000 		.4byte	.LASF467
 12867 380f 00160000 		.4byte	.LASF467
 12868 3813 21       		.byte	0x21
 12869 3814 24       		.byte	0x24
 12870 3815 45       		.uleb128 0x45
 12871 3816 10100000 		.4byte	.LASF468
 12872 381a 10100000 		.4byte	.LASF468
 12873 381e 22       		.byte	0x22
 12874 381f 0C       		.byte	0xc
 12875 3820 45       		.uleb128 0x45
 12876 3821 EE0B0000 		.4byte	.LASF469
 12877 3825 EE0B0000 		.4byte	.LASF469
 12878 3829 23       		.byte	0x23
 12879 382a 76       		.byte	0x76
 12880 382b 45       		.uleb128 0x45
 12881 382c 781A0000 		.4byte	.LASF470
 12882 3830 781A0000 		.4byte	.LASF470
 12883 3834 23       		.byte	0x23
 12884 3835 74       		.byte	0x74
 12885 3836 45       		.uleb128 0x45
 12886 3837 12050000 		.4byte	.LASF471
 12887 383b 12050000 		.4byte	.LASF471
 12888 383f 24       		.byte	0x24
 12889 3840 55       		.byte	0x55
 12890 3841 45       		.uleb128 0x45
 12891 3842 680B0000 		.4byte	.LASF472
 12892 3846 680B0000 		.4byte	.LASF472
 12893 384a 25       		.byte	0x25
 12894 384b 2F       		.byte	0x2f
ARM GAS  C:\Users\chemi\AppData\Local\Temp\ccFrP3K3.s 			page 264


 12895 384c 45       		.uleb128 0x45
 12896 384d 53070000 		.4byte	.LASF473
 12897 3851 53070000 		.4byte	.LASF473
 12898 3855 24       		.byte	0x24
 12899 3856 54       		.byte	0x54
 12900 3857 45       		.uleb128 0x45
 12901 3858 7C040000 		.4byte	.LASF474
 12902 385c 7C040000 		.4byte	.LASF474
 12903 3860 0B       		.byte	0xb
 12904 3861 75       		.byte	0x75
 12905 3862 45       		.uleb128 0x45
 12906 3863 D0100000 		.4byte	.LASF475
 12907 3867 D0100000 		.4byte	.LASF475
 12908 386b 1D       		.byte	0x1d
 12909 386c 2C       		.byte	0x2c
 12910 386d 45       		.uleb128 0x45
 12911 386e 6D100000 		.4byte	.LASF476
 12912 3872 6D100000 		.4byte	.LASF476
 12913 3876 26       		.byte	0x26
 12914 3877 2A       		.byte	0x2a
 12915 3878 45       		.uleb128 0x45
 12916 3879 070A0000 		.4byte	.LASF477
 12917 387d 070A0000 		.4byte	.LASF477
 12918 3881 0F       		.byte	0xf
 12919 3882 6C       		.byte	0x6c
 12920 3883 45       		.uleb128 0x45
 12921 3884 10150000 		.4byte	.LASF478
 12922 3888 10150000 		.4byte	.LASF478
 12923 388c 0A       		.byte	0xa
 12924 388d FC       		.byte	0xfc
 12925 388e 45       		.uleb128 0x45
 12926 388f CE090000 		.4byte	.LASF479
 12927 3893 CE090000 		.4byte	.LASF479
 12928 3897 0B       		.byte	0xb
 12929 3898 7A       		.byte	0x7a
 12930 3899 45       		.uleb128 0x45
 12931 389a 80080000 		.4byte	.LASF480
 12932 389e 80080000 		.4byte	.LASF480
 12933 38a2 0A       		.byte	0xa
 12934 38a3 FD       		.byte	0xfd
 12935 38a4 45       		.uleb128 0x45
 12936 38a5 71140000 		.4byte	.LASF481
 12937 38a9 71140000 		.4byte	.LASF481
 12938 38ad 21       		.byte	0x21
 12939 38ae 1C       		.byte	0x1c
 12940 38af 45       		.uleb128 0x45
 12941 38b0 570D0000 		.4byte	.LASF482
 12942 38b4 570D0000 		.4byte	.LASF482
 12943 38b8 13       		.byte	0x13
 12944 38b9 64       		.byte	0x64
 12945 38ba 45       		.uleb128 0x45
 12946 38bb F0110000 		.4byte	.LASF483
 12947 38bf F0110000 		.4byte	.LASF483
 12948 38c3 0B       		.byte	0xb
 12949 38c4 7D       		.byte	0x7d
 12950 38c5 45       		.uleb128 0x45
 12951 38c6 0D040000 		.4byte	.LASF484
ARM GAS  C:\Users\chemi\AppData\Local\Temp\ccFrP3K3.s 			page 265


 12952 38ca 0D040000 		.4byte	.LASF484
 12953 38ce 27       		.byte	0x27
 12954 38cf 49       		.byte	0x49
 12955 38d0 45       		.uleb128 0x45
 12956 38d1 CE140000 		.4byte	.LASF485
 12957 38d5 CE140000 		.4byte	.LASF485
 12958 38d9 28       		.byte	0x28
 12959 38da 4C       		.byte	0x4c
 12960 38db 45       		.uleb128 0x45
 12961 38dc DB120000 		.4byte	.LASF486
 12962 38e0 DB120000 		.4byte	.LASF486
 12963 38e4 0B       		.byte	0xb
 12964 38e5 78       		.byte	0x78
 12965 38e6 45       		.uleb128 0x45
 12966 38e7 E3020000 		.4byte	.LASF487
 12967 38eb E3020000 		.4byte	.LASF487
 12968 38ef 28       		.byte	0x28
 12969 38f0 4A       		.byte	0x4a
 12970 38f1 45       		.uleb128 0x45
 12971 38f2 B6190000 		.4byte	.LASF488
 12972 38f6 B6190000 		.4byte	.LASF488
 12973 38fa 29       		.byte	0x29
 12974 38fb 59       		.byte	0x59
 12975 38fc 45       		.uleb128 0x45
 12976 38fd 47050000 		.4byte	.LASF489
 12977 3901 47050000 		.4byte	.LASF489
 12978 3905 0F       		.byte	0xf
 12979 3906 73       		.byte	0x73
 12980 3907 45       		.uleb128 0x45
 12981 3908 83090000 		.4byte	.LASF490
 12982 390c 83090000 		.4byte	.LASF490
 12983 3910 2A       		.byte	0x2a
 12984 3911 48       		.byte	0x48
 12985 3912 45       		.uleb128 0x45
 12986 3913 9F050000 		.4byte	.LASF491
 12987 3917 9F050000 		.4byte	.LASF491
 12988 391b 17       		.byte	0x17
 12989 391c 3C       		.byte	0x3c
 12990 391d 45       		.uleb128 0x45
 12991 391e 91090000 		.4byte	.LASF492
 12992 3922 91090000 		.4byte	.LASF492
 12993 3926 0F       		.byte	0xf
 12994 3927 75       		.byte	0x75
 12995 3928 45       		.uleb128 0x45
 12996 3929 AD0A0000 		.4byte	.LASF493
 12997 392d AD0A0000 		.4byte	.LASF493
 12998 3931 15       		.byte	0x15
 12999 3932 39       		.byte	0x39
 13000 3933 45       		.uleb128 0x45
 13001 3934 9D070000 		.4byte	.LASF494
 13002 3938 9D070000 		.4byte	.LASF494
 13003 393c 15       		.byte	0x15
 13004 393d 3D       		.byte	0x3d
 13005 393e 45       		.uleb128 0x45
 13006 393f 55060000 		.4byte	.LASF495
 13007 3943 55060000 		.4byte	.LASF495
 13008 3947 2B       		.byte	0x2b
ARM GAS  C:\Users\chemi\AppData\Local\Temp\ccFrP3K3.s 			page 266


 13009 3948 2C       		.byte	0x2c
 13010 3949 45       		.uleb128 0x45
 13011 394a 53150000 		.4byte	.LASF496
 13012 394e 53150000 		.4byte	.LASF496
 13013 3952 0B       		.byte	0xb
 13014 3953 77       		.byte	0x77
 13015 3954 45       		.uleb128 0x45
 13016 3955 19030000 		.4byte	.LASF497
 13017 3959 19030000 		.4byte	.LASF497
 13018 395d 0B       		.byte	0xb
 13019 395e 76       		.byte	0x76
 13020 395f 45       		.uleb128 0x45
 13021 3960 8D110000 		.4byte	.LASF498
 13022 3964 8D110000 		.4byte	.LASF498
 13023 3968 0B       		.byte	0xb
 13024 3969 72       		.byte	0x72
 13025 396a 45       		.uleb128 0x45
 13026 396b 57080000 		.4byte	.LASF499
 13027 396f 57080000 		.4byte	.LASF499
 13028 3973 2C       		.byte	0x2c
 13029 3974 24       		.byte	0x24
 13030 3975 45       		.uleb128 0x45
 13031 3976 9D180000 		.4byte	.LASF500
 13032 397a 9D180000 		.4byte	.LASF500
 13033 397e 0B       		.byte	0xb
 13034 397f 73       		.byte	0x73
 13035 3980 45       		.uleb128 0x45
 13036 3981 A2130000 		.4byte	.LASF501
 13037 3985 A2130000 		.4byte	.LASF501
 13038 3989 0B       		.byte	0xb
 13039 398a 74       		.byte	0x74
 13040 398b 45       		.uleb128 0x45
 13041 398c D7010000 		.4byte	.LASF502
 13042 3990 D7010000 		.4byte	.LASF502
 13043 3994 2D       		.byte	0x2d
 13044 3995 7B       		.byte	0x7b
 13045 3996 45       		.uleb128 0x45
 13046 3997 50030000 		.4byte	.LASF503
 13047 399b 50030000 		.4byte	.LASF503
 13048 399f 27       		.byte	0x27
 13049 39a0 4D       		.byte	0x4d
 13050 39a1 45       		.uleb128 0x45
 13051 39a2 D8160000 		.4byte	.LASF504
 13052 39a6 D8160000 		.4byte	.LASF504
 13053 39aa 2E       		.byte	0x2e
 13054 39ab C7       		.byte	0xc7
 13055 39ac 45       		.uleb128 0x45
 13056 39ad EF160000 		.4byte	.LASF505
 13057 39b1 EF160000 		.4byte	.LASF505
 13058 39b5 2E       		.byte	0x2e
 13059 39b6 CA       		.byte	0xca
 13060 39b7 45       		.uleb128 0x45
 13061 39b8 440D0000 		.4byte	.LASF506
 13062 39bc 440D0000 		.4byte	.LASF506
 13063 39c0 22       		.byte	0x22
 13064 39c1 0D       		.byte	0xd
 13065 39c2 45       		.uleb128 0x45
ARM GAS  C:\Users\chemi\AppData\Local\Temp\ccFrP3K3.s 			page 267


 13066 39c3 2C0F0000 		.4byte	.LASF507
 13067 39c7 2C0F0000 		.4byte	.LASF507
 13068 39cb 2F       		.byte	0x2f
 13069 39cc 29       		.byte	0x29
 13070 39cd 45       		.uleb128 0x45
 13071 39ce AE030000 		.4byte	.LASF508
 13072 39d2 AE030000 		.4byte	.LASF508
 13073 39d6 30       		.byte	0x30
 13074 39d7 29       		.byte	0x29
 13075 39d8 45       		.uleb128 0x45
 13076 39d9 971A0000 		.4byte	.LASF509
 13077 39dd 971A0000 		.4byte	.LASF509
 13078 39e1 31       		.byte	0x31
 13079 39e2 29       		.byte	0x29
 13080 39e3 45       		.uleb128 0x45
 13081 39e4 2F060000 		.4byte	.LASF510
 13082 39e8 2F060000 		.4byte	.LASF510
 13083 39ec 32       		.byte	0x32
 13084 39ed 29       		.byte	0x29
 13085 39ee 45       		.uleb128 0x45
 13086 39ef FE130000 		.4byte	.LASF511
 13087 39f3 FE130000 		.4byte	.LASF511
 13088 39f7 33       		.byte	0x33
 13089 39f8 29       		.byte	0x29
 13090 39f9 45       		.uleb128 0x45
 13091 39fa 3B110000 		.4byte	.LASF512
 13092 39fe 3B110000 		.4byte	.LASF512
 13093 3a02 34       		.byte	0x34
 13094 3a03 29       		.byte	0x29
 13095 3a04 45       		.uleb128 0x45
 13096 3a05 2B150000 		.4byte	.LASF513
 13097 3a09 2B150000 		.4byte	.LASF513
 13098 3a0d 35       		.byte	0x35
 13099 3a0e 3F       		.byte	0x3f
 13100 3a0f 00       		.byte	0
 13101              		.section	.debug_abbrev,"",%progbits
 13102              	.Ldebug_abbrev0:
 13103 0000 01       		.uleb128 0x1
 13104 0001 11       		.uleb128 0x11
 13105 0002 01       		.byte	0x1
 13106 0003 25       		.uleb128 0x25
 13107 0004 0E       		.uleb128 0xe
 13108 0005 13       		.uleb128 0x13
 13109 0006 0B       		.uleb128 0xb
 13110 0007 03       		.uleb128 0x3
 13111 0008 0E       		.uleb128 0xe
 13112 0009 1B       		.uleb128 0x1b
 13113 000a 0E       		.uleb128 0xe
 13114 000b 55       		.uleb128 0x55
 13115 000c 17       		.uleb128 0x17
 13116 000d 11       		.uleb128 0x11
 13117 000e 01       		.uleb128 0x1
 13118 000f 10       		.uleb128 0x10
 13119 0010 17       		.uleb128 0x17
 13120 0011 00       		.byte	0
 13121 0012 00       		.byte	0
 13122 0013 02       		.uleb128 0x2
ARM GAS  C:\Users\chemi\AppData\Local\Temp\ccFrP3K3.s 			page 268


 13123 0014 24       		.uleb128 0x24
 13124 0015 00       		.byte	0
 13125 0016 0B       		.uleb128 0xb
 13126 0017 0B       		.uleb128 0xb
 13127 0018 3E       		.uleb128 0x3e
 13128 0019 0B       		.uleb128 0xb
 13129 001a 03       		.uleb128 0x3
 13130 001b 0E       		.uleb128 0xe
 13131 001c 00       		.byte	0
 13132 001d 00       		.byte	0
 13133 001e 03       		.uleb128 0x3
 13134 001f 16       		.uleb128 0x16
 13135 0020 00       		.byte	0
 13136 0021 03       		.uleb128 0x3
 13137 0022 0E       		.uleb128 0xe
 13138 0023 3A       		.uleb128 0x3a
 13139 0024 0B       		.uleb128 0xb
 13140 0025 3B       		.uleb128 0x3b
 13141 0026 0B       		.uleb128 0xb
 13142 0027 49       		.uleb128 0x49
 13143 0028 13       		.uleb128 0x13
 13144 0029 00       		.byte	0
 13145 002a 00       		.byte	0
 13146 002b 04       		.uleb128 0x4
 13147 002c 24       		.uleb128 0x24
 13148 002d 00       		.byte	0
 13149 002e 0B       		.uleb128 0xb
 13150 002f 0B       		.uleb128 0xb
 13151 0030 3E       		.uleb128 0x3e
 13152 0031 0B       		.uleb128 0xb
 13153 0032 03       		.uleb128 0x3
 13154 0033 08       		.uleb128 0x8
 13155 0034 00       		.byte	0
 13156 0035 00       		.byte	0
 13157 0036 05       		.uleb128 0x5
 13158 0037 16       		.uleb128 0x16
 13159 0038 00       		.byte	0
 13160 0039 03       		.uleb128 0x3
 13161 003a 0E       		.uleb128 0xe
 13162 003b 3A       		.uleb128 0x3a
 13163 003c 0B       		.uleb128 0xb
 13164 003d 3B       		.uleb128 0x3b
 13165 003e 05       		.uleb128 0x5
 13166 003f 49       		.uleb128 0x49
 13167 0040 13       		.uleb128 0x13
 13168 0041 00       		.byte	0
 13169 0042 00       		.byte	0
 13170 0043 06       		.uleb128 0x6
 13171 0044 35       		.uleb128 0x35
 13172 0045 00       		.byte	0
 13173 0046 49       		.uleb128 0x49
 13174 0047 13       		.uleb128 0x13
 13175 0048 00       		.byte	0
 13176 0049 00       		.byte	0
 13177 004a 07       		.uleb128 0x7
 13178 004b 0F       		.uleb128 0xf
 13179 004c 00       		.byte	0
ARM GAS  C:\Users\chemi\AppData\Local\Temp\ccFrP3K3.s 			page 269


 13180 004d 0B       		.uleb128 0xb
 13181 004e 0B       		.uleb128 0xb
 13182 004f 00       		.byte	0
 13183 0050 00       		.byte	0
 13184 0051 08       		.uleb128 0x8
 13185 0052 0F       		.uleb128 0xf
 13186 0053 00       		.byte	0
 13187 0054 0B       		.uleb128 0xb
 13188 0055 0B       		.uleb128 0xb
 13189 0056 49       		.uleb128 0x49
 13190 0057 13       		.uleb128 0x13
 13191 0058 00       		.byte	0
 13192 0059 00       		.byte	0
 13193 005a 09       		.uleb128 0x9
 13194 005b 26       		.uleb128 0x26
 13195 005c 00       		.byte	0
 13196 005d 49       		.uleb128 0x49
 13197 005e 13       		.uleb128 0x13
 13198 005f 00       		.byte	0
 13199 0060 00       		.byte	0
 13200 0061 0A       		.uleb128 0xa
 13201 0062 13       		.uleb128 0x13
 13202 0063 00       		.byte	0
 13203 0064 03       		.uleb128 0x3
 13204 0065 0E       		.uleb128 0xe
 13205 0066 3C       		.uleb128 0x3c
 13206 0067 19       		.uleb128 0x19
 13207 0068 00       		.byte	0
 13208 0069 00       		.byte	0
 13209 006a 0B       		.uleb128 0xb
 13210 006b 04       		.uleb128 0x4
 13211 006c 01       		.byte	0x1
 13212 006d 03       		.uleb128 0x3
 13213 006e 0E       		.uleb128 0xe
 13214 006f 0B       		.uleb128 0xb
 13215 0070 0B       		.uleb128 0xb
 13216 0071 49       		.uleb128 0x49
 13217 0072 13       		.uleb128 0x13
 13218 0073 3A       		.uleb128 0x3a
 13219 0074 0B       		.uleb128 0xb
 13220 0075 3B       		.uleb128 0x3b
 13221 0076 0B       		.uleb128 0xb
 13222 0077 01       		.uleb128 0x1
 13223 0078 13       		.uleb128 0x13
 13224 0079 00       		.byte	0
 13225 007a 00       		.byte	0
 13226 007b 0C       		.uleb128 0xc
 13227 007c 28       		.uleb128 0x28
 13228 007d 00       		.byte	0
 13229 007e 03       		.uleb128 0x3
 13230 007f 0E       		.uleb128 0xe
 13231 0080 1C       		.uleb128 0x1c
 13232 0081 0B       		.uleb128 0xb
 13233 0082 00       		.byte	0
 13234 0083 00       		.byte	0
 13235 0084 0D       		.uleb128 0xd
 13236 0085 13       		.uleb128 0x13
ARM GAS  C:\Users\chemi\AppData\Local\Temp\ccFrP3K3.s 			page 270


 13237 0086 01       		.byte	0x1
 13238 0087 03       		.uleb128 0x3
 13239 0088 0E       		.uleb128 0xe
 13240 0089 0B       		.uleb128 0xb
 13241 008a 0B       		.uleb128 0xb
 13242 008b 3A       		.uleb128 0x3a
 13243 008c 0B       		.uleb128 0xb
 13244 008d 3B       		.uleb128 0x3b
 13245 008e 0B       		.uleb128 0xb
 13246 008f 01       		.uleb128 0x1
 13247 0090 13       		.uleb128 0x13
 13248 0091 00       		.byte	0
 13249 0092 00       		.byte	0
 13250 0093 0E       		.uleb128 0xe
 13251 0094 0D       		.uleb128 0xd
 13252 0095 00       		.byte	0
 13253 0096 03       		.uleb128 0x3
 13254 0097 0E       		.uleb128 0xe
 13255 0098 3A       		.uleb128 0x3a
 13256 0099 0B       		.uleb128 0xb
 13257 009a 3B       		.uleb128 0x3b
 13258 009b 0B       		.uleb128 0xb
 13259 009c 49       		.uleb128 0x49
 13260 009d 13       		.uleb128 0x13
 13261 009e 38       		.uleb128 0x38
 13262 009f 0B       		.uleb128 0xb
 13263 00a0 00       		.byte	0
 13264 00a1 00       		.byte	0
 13265 00a2 0F       		.uleb128 0xf
 13266 00a3 15       		.uleb128 0x15
 13267 00a4 01       		.byte	0x1
 13268 00a5 27       		.uleb128 0x27
 13269 00a6 19       		.uleb128 0x19
 13270 00a7 49       		.uleb128 0x49
 13271 00a8 13       		.uleb128 0x13
 13272 00a9 01       		.uleb128 0x1
 13273 00aa 13       		.uleb128 0x13
 13274 00ab 00       		.byte	0
 13275 00ac 00       		.byte	0
 13276 00ad 10       		.uleb128 0x10
 13277 00ae 05       		.uleb128 0x5
 13278 00af 00       		.byte	0
 13279 00b0 49       		.uleb128 0x49
 13280 00b1 13       		.uleb128 0x13
 13281 00b2 00       		.byte	0
 13282 00b3 00       		.byte	0
 13283 00b4 11       		.uleb128 0x11
 13284 00b5 18       		.uleb128 0x18
 13285 00b6 00       		.byte	0
 13286 00b7 00       		.byte	0
 13287 00b8 00       		.byte	0
 13288 00b9 12       		.uleb128 0x12
 13289 00ba 13       		.uleb128 0x13
 13290 00bb 01       		.byte	0x1
 13291 00bc 0B       		.uleb128 0xb
 13292 00bd 0B       		.uleb128 0xb
 13293 00be 3A       		.uleb128 0x3a
ARM GAS  C:\Users\chemi\AppData\Local\Temp\ccFrP3K3.s 			page 271


 13294 00bf 0B       		.uleb128 0xb
 13295 00c0 3B       		.uleb128 0x3b
 13296 00c1 0B       		.uleb128 0xb
 13297 00c2 01       		.uleb128 0x1
 13298 00c3 13       		.uleb128 0x13
 13299 00c4 00       		.byte	0
 13300 00c5 00       		.byte	0
 13301 00c6 13       		.uleb128 0x13
 13302 00c7 01       		.uleb128 0x1
 13303 00c8 01       		.byte	0x1
 13304 00c9 49       		.uleb128 0x49
 13305 00ca 13       		.uleb128 0x13
 13306 00cb 01       		.uleb128 0x1
 13307 00cc 13       		.uleb128 0x13
 13308 00cd 00       		.byte	0
 13309 00ce 00       		.byte	0
 13310 00cf 14       		.uleb128 0x14
 13311 00d0 21       		.uleb128 0x21
 13312 00d1 00       		.byte	0
 13313 00d2 49       		.uleb128 0x49
 13314 00d3 13       		.uleb128 0x13
 13315 00d4 2F       		.uleb128 0x2f
 13316 00d5 0B       		.uleb128 0xb
 13317 00d6 00       		.byte	0
 13318 00d7 00       		.byte	0
 13319 00d8 15       		.uleb128 0x15
 13320 00d9 0D       		.uleb128 0xd
 13321 00da 00       		.byte	0
 13322 00db 03       		.uleb128 0x3
 13323 00dc 08       		.uleb128 0x8
 13324 00dd 3A       		.uleb128 0x3a
 13325 00de 0B       		.uleb128 0xb
 13326 00df 3B       		.uleb128 0x3b
 13327 00e0 0B       		.uleb128 0xb
 13328 00e1 49       		.uleb128 0x49
 13329 00e2 13       		.uleb128 0x13
 13330 00e3 38       		.uleb128 0x38
 13331 00e4 0B       		.uleb128 0xb
 13332 00e5 00       		.byte	0
 13333 00e6 00       		.byte	0
 13334 00e7 16       		.uleb128 0x16
 13335 00e8 13       		.uleb128 0x13
 13336 00e9 01       		.byte	0x1
 13337 00ea 03       		.uleb128 0x3
 13338 00eb 0E       		.uleb128 0xe
 13339 00ec 0B       		.uleb128 0xb
 13340 00ed 05       		.uleb128 0x5
 13341 00ee 3A       		.uleb128 0x3a
 13342 00ef 0B       		.uleb128 0xb
 13343 00f0 3B       		.uleb128 0x3b
 13344 00f1 0B       		.uleb128 0xb
 13345 00f2 01       		.uleb128 0x1
 13346 00f3 13       		.uleb128 0x13
 13347 00f4 00       		.byte	0
 13348 00f5 00       		.byte	0
 13349 00f6 17       		.uleb128 0x17
 13350 00f7 0D       		.uleb128 0xd
ARM GAS  C:\Users\chemi\AppData\Local\Temp\ccFrP3K3.s 			page 272


 13351 00f8 00       		.byte	0
 13352 00f9 03       		.uleb128 0x3
 13353 00fa 0E       		.uleb128 0xe
 13354 00fb 3A       		.uleb128 0x3a
 13355 00fc 0B       		.uleb128 0xb
 13356 00fd 3B       		.uleb128 0x3b
 13357 00fe 0B       		.uleb128 0xb
 13358 00ff 49       		.uleb128 0x49
 13359 0100 13       		.uleb128 0x13
 13360 0101 38       		.uleb128 0x38
 13361 0102 05       		.uleb128 0x5
 13362 0103 00       		.byte	0
 13363 0104 00       		.byte	0
 13364 0105 18       		.uleb128 0x18
 13365 0106 17       		.uleb128 0x17
 13366 0107 01       		.byte	0x1
 13367 0108 03       		.uleb128 0x3
 13368 0109 0E       		.uleb128 0xe
 13369 010a 0B       		.uleb128 0xb
 13370 010b 05       		.uleb128 0x5
 13371 010c 3A       		.uleb128 0x3a
 13372 010d 0B       		.uleb128 0xb
 13373 010e 3B       		.uleb128 0x3b
 13374 010f 0B       		.uleb128 0xb
 13375 0110 01       		.uleb128 0x1
 13376 0111 13       		.uleb128 0x13
 13377 0112 00       		.byte	0
 13378 0113 00       		.byte	0
 13379 0114 19       		.uleb128 0x19
 13380 0115 0D       		.uleb128 0xd
 13381 0116 00       		.byte	0
 13382 0117 03       		.uleb128 0x3
 13383 0118 08       		.uleb128 0x8
 13384 0119 3A       		.uleb128 0x3a
 13385 011a 0B       		.uleb128 0xb
 13386 011b 3B       		.uleb128 0x3b
 13387 011c 0B       		.uleb128 0xb
 13388 011d 49       		.uleb128 0x49
 13389 011e 13       		.uleb128 0x13
 13390 011f 00       		.byte	0
 13391 0120 00       		.byte	0
 13392 0121 1A       		.uleb128 0x1a
 13393 0122 17       		.uleb128 0x17
 13394 0123 01       		.byte	0x1
 13395 0124 0B       		.uleb128 0xb
 13396 0125 0B       		.uleb128 0xb
 13397 0126 3A       		.uleb128 0x3a
 13398 0127 0B       		.uleb128 0xb
 13399 0128 3B       		.uleb128 0x3b
 13400 0129 0B       		.uleb128 0xb
 13401 012a 01       		.uleb128 0x1
 13402 012b 13       		.uleb128 0x13
 13403 012c 00       		.byte	0
 13404 012d 00       		.byte	0
 13405 012e 1B       		.uleb128 0x1b
 13406 012f 0D       		.uleb128 0xd
 13407 0130 00       		.byte	0
ARM GAS  C:\Users\chemi\AppData\Local\Temp\ccFrP3K3.s 			page 273


 13408 0131 03       		.uleb128 0x3
 13409 0132 0E       		.uleb128 0xe
 13410 0133 3A       		.uleb128 0x3a
 13411 0134 0B       		.uleb128 0xb
 13412 0135 3B       		.uleb128 0x3b
 13413 0136 0B       		.uleb128 0xb
 13414 0137 49       		.uleb128 0x49
 13415 0138 13       		.uleb128 0x13
 13416 0139 00       		.byte	0
 13417 013a 00       		.byte	0
 13418 013b 1C       		.uleb128 0x1c
 13419 013c 13       		.uleb128 0x13
 13420 013d 01       		.byte	0x1
 13421 013e 0B       		.uleb128 0xb
 13422 013f 05       		.uleb128 0x5
 13423 0140 3A       		.uleb128 0x3a
 13424 0141 0B       		.uleb128 0xb
 13425 0142 3B       		.uleb128 0x3b
 13426 0143 0B       		.uleb128 0xb
 13427 0144 01       		.uleb128 0x1
 13428 0145 13       		.uleb128 0x13
 13429 0146 00       		.byte	0
 13430 0147 00       		.byte	0
 13431 0148 1D       		.uleb128 0x1d
 13432 0149 21       		.uleb128 0x21
 13433 014a 00       		.byte	0
 13434 014b 49       		.uleb128 0x49
 13435 014c 13       		.uleb128 0x13
 13436 014d 2F       		.uleb128 0x2f
 13437 014e 05       		.uleb128 0x5
 13438 014f 00       		.byte	0
 13439 0150 00       		.byte	0
 13440 0151 1E       		.uleb128 0x1e
 13441 0152 2E       		.uleb128 0x2e
 13442 0153 01       		.byte	0x1
 13443 0154 3F       		.uleb128 0x3f
 13444 0155 19       		.uleb128 0x19
 13445 0156 03       		.uleb128 0x3
 13446 0157 0E       		.uleb128 0xe
 13447 0158 3A       		.uleb128 0x3a
 13448 0159 0B       		.uleb128 0xb
 13449 015a 3B       		.uleb128 0x3b
 13450 015b 05       		.uleb128 0x5
 13451 015c 27       		.uleb128 0x27
 13452 015d 19       		.uleb128 0x19
 13453 015e 49       		.uleb128 0x49
 13454 015f 13       		.uleb128 0x13
 13455 0160 20       		.uleb128 0x20
 13456 0161 0B       		.uleb128 0xb
 13457 0162 01       		.uleb128 0x1
 13458 0163 13       		.uleb128 0x13
 13459 0164 00       		.byte	0
 13460 0165 00       		.byte	0
 13461 0166 1F       		.uleb128 0x1f
 13462 0167 05       		.uleb128 0x5
 13463 0168 00       		.byte	0
 13464 0169 03       		.uleb128 0x3
ARM GAS  C:\Users\chemi\AppData\Local\Temp\ccFrP3K3.s 			page 274


 13465 016a 0E       		.uleb128 0xe
 13466 016b 3A       		.uleb128 0x3a
 13467 016c 0B       		.uleb128 0xb
 13468 016d 3B       		.uleb128 0x3b
 13469 016e 05       		.uleb128 0x5
 13470 016f 49       		.uleb128 0x49
 13471 0170 13       		.uleb128 0x13
 13472 0171 00       		.byte	0
 13473 0172 00       		.byte	0
 13474 0173 20       		.uleb128 0x20
 13475 0174 2E       		.uleb128 0x2e
 13476 0175 01       		.byte	0x1
 13477 0176 3F       		.uleb128 0x3f
 13478 0177 19       		.uleb128 0x19
 13479 0178 03       		.uleb128 0x3
 13480 0179 0E       		.uleb128 0xe
 13481 017a 3A       		.uleb128 0x3a
 13482 017b 0B       		.uleb128 0xb
 13483 017c 3B       		.uleb128 0x3b
 13484 017d 05       		.uleb128 0x5
 13485 017e 27       		.uleb128 0x27
 13486 017f 19       		.uleb128 0x19
 13487 0180 20       		.uleb128 0x20
 13488 0181 0B       		.uleb128 0xb
 13489 0182 01       		.uleb128 0x1
 13490 0183 13       		.uleb128 0x13
 13491 0184 00       		.byte	0
 13492 0185 00       		.byte	0
 13493 0186 21       		.uleb128 0x21
 13494 0187 2E       		.uleb128 0x2e
 13495 0188 01       		.byte	0x1
 13496 0189 31       		.uleb128 0x31
 13497 018a 13       		.uleb128 0x13
 13498 018b 11       		.uleb128 0x11
 13499 018c 01       		.uleb128 0x1
 13500 018d 12       		.uleb128 0x12
 13501 018e 06       		.uleb128 0x6
 13502 018f 40       		.uleb128 0x40
 13503 0190 18       		.uleb128 0x18
 13504 0191 9742     		.uleb128 0x2117
 13505 0193 19       		.uleb128 0x19
 13506 0194 01       		.uleb128 0x1
 13507 0195 13       		.uleb128 0x13
 13508 0196 00       		.byte	0
 13509 0197 00       		.byte	0
 13510 0198 22       		.uleb128 0x22
 13511 0199 05       		.uleb128 0x5
 13512 019a 00       		.byte	0
 13513 019b 31       		.uleb128 0x31
 13514 019c 13       		.uleb128 0x13
 13515 019d 02       		.uleb128 0x2
 13516 019e 17       		.uleb128 0x17
 13517 019f 00       		.byte	0
 13518 01a0 00       		.byte	0
 13519 01a1 23       		.uleb128 0x23
 13520 01a2 0B       		.uleb128 0xb
 13521 01a3 01       		.byte	0x1
ARM GAS  C:\Users\chemi\AppData\Local\Temp\ccFrP3K3.s 			page 275


 13522 01a4 11       		.uleb128 0x11
 13523 01a5 01       		.uleb128 0x1
 13524 01a6 12       		.uleb128 0x12
 13525 01a7 06       		.uleb128 0x6
 13526 01a8 00       		.byte	0
 13527 01a9 00       		.byte	0
 13528 01aa 24       		.uleb128 0x24
 13529 01ab 898201   		.uleb128 0x4109
 13530 01ae 01       		.byte	0x1
 13531 01af 11       		.uleb128 0x11
 13532 01b0 01       		.uleb128 0x1
 13533 01b1 00       		.byte	0
 13534 01b2 00       		.byte	0
 13535 01b3 25       		.uleb128 0x25
 13536 01b4 8A8201   		.uleb128 0x410a
 13537 01b7 00       		.byte	0
 13538 01b8 02       		.uleb128 0x2
 13539 01b9 18       		.uleb128 0x18
 13540 01ba 9142     		.uleb128 0x2111
 13541 01bc 18       		.uleb128 0x18
 13542 01bd 00       		.byte	0
 13543 01be 00       		.byte	0
 13544 01bf 26       		.uleb128 0x26
 13545 01c0 2E       		.uleb128 0x2e
 13546 01c1 01       		.byte	0x1
 13547 01c2 3F       		.uleb128 0x3f
 13548 01c3 19       		.uleb128 0x19
 13549 01c4 03       		.uleb128 0x3
 13550 01c5 0E       		.uleb128 0xe
 13551 01c6 3A       		.uleb128 0x3a
 13552 01c7 0B       		.uleb128 0xb
 13553 01c8 3B       		.uleb128 0x3b
 13554 01c9 05       		.uleb128 0x5
 13555 01ca 27       		.uleb128 0x27
 13556 01cb 19       		.uleb128 0x19
 13557 01cc 11       		.uleb128 0x11
 13558 01cd 01       		.uleb128 0x1
 13559 01ce 12       		.uleb128 0x12
 13560 01cf 06       		.uleb128 0x6
 13561 01d0 40       		.uleb128 0x40
 13562 01d1 18       		.uleb128 0x18
 13563 01d2 9742     		.uleb128 0x2117
 13564 01d4 19       		.uleb128 0x19
 13565 01d5 01       		.uleb128 0x1
 13566 01d6 13       		.uleb128 0x13
 13567 01d7 00       		.byte	0
 13568 01d8 00       		.byte	0
 13569 01d9 27       		.uleb128 0x27
 13570 01da 898201   		.uleb128 0x4109
 13571 01dd 01       		.byte	0x1
 13572 01de 11       		.uleb128 0x11
 13573 01df 01       		.uleb128 0x1
 13574 01e0 31       		.uleb128 0x31
 13575 01e1 13       		.uleb128 0x13
 13576 01e2 01       		.uleb128 0x1
 13577 01e3 13       		.uleb128 0x13
 13578 01e4 00       		.byte	0
ARM GAS  C:\Users\chemi\AppData\Local\Temp\ccFrP3K3.s 			page 276


 13579 01e5 00       		.byte	0
 13580 01e6 28       		.uleb128 0x28
 13581 01e7 898201   		.uleb128 0x4109
 13582 01ea 01       		.byte	0x1
 13583 01eb 11       		.uleb128 0x11
 13584 01ec 01       		.uleb128 0x1
 13585 01ed 9542     		.uleb128 0x2115
 13586 01ef 19       		.uleb128 0x19
 13587 01f0 31       		.uleb128 0x31
 13588 01f1 13       		.uleb128 0x13
 13589 01f2 00       		.byte	0
 13590 01f3 00       		.byte	0
 13591 01f4 29       		.uleb128 0x29
 13592 01f5 05       		.uleb128 0x5
 13593 01f6 00       		.byte	0
 13594 01f7 03       		.uleb128 0x3
 13595 01f8 0E       		.uleb128 0xe
 13596 01f9 3A       		.uleb128 0x3a
 13597 01fa 0B       		.uleb128 0xb
 13598 01fb 3B       		.uleb128 0x3b
 13599 01fc 05       		.uleb128 0x5
 13600 01fd 49       		.uleb128 0x49
 13601 01fe 13       		.uleb128 0x13
 13602 01ff 02       		.uleb128 0x2
 13603 0200 17       		.uleb128 0x17
 13604 0201 00       		.byte	0
 13605 0202 00       		.byte	0
 13606 0203 2A       		.uleb128 0x2a
 13607 0204 34       		.uleb128 0x34
 13608 0205 00       		.byte	0
 13609 0206 03       		.uleb128 0x3
 13610 0207 0E       		.uleb128 0xe
 13611 0208 3A       		.uleb128 0x3a
 13612 0209 0B       		.uleb128 0xb
 13613 020a 3B       		.uleb128 0x3b
 13614 020b 05       		.uleb128 0x5
 13615 020c 49       		.uleb128 0x49
 13616 020d 13       		.uleb128 0x13
 13617 020e 02       		.uleb128 0x2
 13618 020f 17       		.uleb128 0x17
 13619 0210 00       		.byte	0
 13620 0211 00       		.byte	0
 13621 0212 2B       		.uleb128 0x2b
 13622 0213 2E       		.uleb128 0x2e
 13623 0214 01       		.byte	0x1
 13624 0215 3F       		.uleb128 0x3f
 13625 0216 19       		.uleb128 0x19
 13626 0217 03       		.uleb128 0x3
 13627 0218 0E       		.uleb128 0xe
 13628 0219 3A       		.uleb128 0x3a
 13629 021a 0B       		.uleb128 0xb
 13630 021b 3B       		.uleb128 0x3b
 13631 021c 05       		.uleb128 0x5
 13632 021d 27       		.uleb128 0x27
 13633 021e 19       		.uleb128 0x19
 13634 021f 49       		.uleb128 0x49
 13635 0220 13       		.uleb128 0x13
ARM GAS  C:\Users\chemi\AppData\Local\Temp\ccFrP3K3.s 			page 277


 13636 0221 11       		.uleb128 0x11
 13637 0222 01       		.uleb128 0x1
 13638 0223 12       		.uleb128 0x12
 13639 0224 06       		.uleb128 0x6
 13640 0225 40       		.uleb128 0x40
 13641 0226 18       		.uleb128 0x18
 13642 0227 9742     		.uleb128 0x2117
 13643 0229 19       		.uleb128 0x19
 13644 022a 01       		.uleb128 0x1
 13645 022b 13       		.uleb128 0x13
 13646 022c 00       		.byte	0
 13647 022d 00       		.byte	0
 13648 022e 2C       		.uleb128 0x2c
 13649 022f 898201   		.uleb128 0x4109
 13650 0232 01       		.byte	0x1
 13651 0233 11       		.uleb128 0x11
 13652 0234 01       		.uleb128 0x1
 13653 0235 9342     		.uleb128 0x2113
 13654 0237 18       		.uleb128 0x18
 13655 0238 01       		.uleb128 0x1
 13656 0239 13       		.uleb128 0x13
 13657 023a 00       		.byte	0
 13658 023b 00       		.byte	0
 13659 023c 2D       		.uleb128 0x2d
 13660 023d 898201   		.uleb128 0x4109
 13661 0240 00       		.byte	0
 13662 0241 11       		.uleb128 0x11
 13663 0242 01       		.uleb128 0x1
 13664 0243 31       		.uleb128 0x31
 13665 0244 13       		.uleb128 0x13
 13666 0245 00       		.byte	0
 13667 0246 00       		.byte	0
 13668 0247 2E       		.uleb128 0x2e
 13669 0248 898201   		.uleb128 0x4109
 13670 024b 01       		.byte	0x1
 13671 024c 11       		.uleb128 0x11
 13672 024d 01       		.uleb128 0x1
 13673 024e 31       		.uleb128 0x31
 13674 024f 13       		.uleb128 0x13
 13675 0250 00       		.byte	0
 13676 0251 00       		.byte	0
 13677 0252 2F       		.uleb128 0x2f
 13678 0253 2E       		.uleb128 0x2e
 13679 0254 00       		.byte	0
 13680 0255 3F       		.uleb128 0x3f
 13681 0256 19       		.uleb128 0x19
 13682 0257 03       		.uleb128 0x3
 13683 0258 0E       		.uleb128 0xe
 13684 0259 3A       		.uleb128 0x3a
 13685 025a 0B       		.uleb128 0xb
 13686 025b 3B       		.uleb128 0x3b
 13687 025c 05       		.uleb128 0x5
 13688 025d 11       		.uleb128 0x11
 13689 025e 01       		.uleb128 0x1
 13690 025f 12       		.uleb128 0x12
 13691 0260 06       		.uleb128 0x6
 13692 0261 40       		.uleb128 0x40
ARM GAS  C:\Users\chemi\AppData\Local\Temp\ccFrP3K3.s 			page 278


 13693 0262 18       		.uleb128 0x18
 13694 0263 9742     		.uleb128 0x2117
 13695 0265 19       		.uleb128 0x19
 13696 0266 00       		.byte	0
 13697 0267 00       		.byte	0
 13698 0268 30       		.uleb128 0x30
 13699 0269 2E       		.uleb128 0x2e
 13700 026a 01       		.byte	0x1
 13701 026b 3F       		.uleb128 0x3f
 13702 026c 19       		.uleb128 0x19
 13703 026d 03       		.uleb128 0x3
 13704 026e 0E       		.uleb128 0xe
 13705 026f 3A       		.uleb128 0x3a
 13706 0270 0B       		.uleb128 0xb
 13707 0271 3B       		.uleb128 0x3b
 13708 0272 0B       		.uleb128 0xb
 13709 0273 11       		.uleb128 0x11
 13710 0274 01       		.uleb128 0x1
 13711 0275 12       		.uleb128 0x12
 13712 0276 06       		.uleb128 0x6
 13713 0277 40       		.uleb128 0x40
 13714 0278 18       		.uleb128 0x18
 13715 0279 9742     		.uleb128 0x2117
 13716 027b 19       		.uleb128 0x19
 13717 027c 01       		.uleb128 0x1
 13718 027d 13       		.uleb128 0x13
 13719 027e 00       		.byte	0
 13720 027f 00       		.byte	0
 13721 0280 31       		.uleb128 0x31
 13722 0281 898201   		.uleb128 0x4109
 13723 0284 00       		.byte	0
 13724 0285 11       		.uleb128 0x11
 13725 0286 01       		.uleb128 0x1
 13726 0287 9542     		.uleb128 0x2115
 13727 0289 19       		.uleb128 0x19
 13728 028a 31       		.uleb128 0x31
 13729 028b 13       		.uleb128 0x13
 13730 028c 00       		.byte	0
 13731 028d 00       		.byte	0
 13732 028e 32       		.uleb128 0x32
 13733 028f 0B       		.uleb128 0xb
 13734 0290 01       		.byte	0x1
 13735 0291 11       		.uleb128 0x11
 13736 0292 01       		.uleb128 0x1
 13737 0293 12       		.uleb128 0x12
 13738 0294 06       		.uleb128 0x6
 13739 0295 01       		.uleb128 0x1
 13740 0296 13       		.uleb128 0x13
 13741 0297 00       		.byte	0
 13742 0298 00       		.byte	0
 13743 0299 33       		.uleb128 0x33
 13744 029a 898201   		.uleb128 0x4109
 13745 029d 01       		.byte	0x1
 13746 029e 11       		.uleb128 0x11
 13747 029f 01       		.uleb128 0x1
 13748 02a0 01       		.uleb128 0x1
 13749 02a1 13       		.uleb128 0x13
ARM GAS  C:\Users\chemi\AppData\Local\Temp\ccFrP3K3.s 			page 279


 13750 02a2 00       		.byte	0
 13751 02a3 00       		.byte	0
 13752 02a4 34       		.uleb128 0x34
 13753 02a5 2E       		.uleb128 0x2e
 13754 02a6 01       		.byte	0x1
 13755 02a7 3F       		.uleb128 0x3f
 13756 02a8 19       		.uleb128 0x19
 13757 02a9 03       		.uleb128 0x3
 13758 02aa 0E       		.uleb128 0xe
 13759 02ab 3A       		.uleb128 0x3a
 13760 02ac 0B       		.uleb128 0xb
 13761 02ad 3B       		.uleb128 0x3b
 13762 02ae 05       		.uleb128 0x5
 13763 02af 27       		.uleb128 0x27
 13764 02b0 19       		.uleb128 0x19
 13765 02b1 11       		.uleb128 0x11
 13766 02b2 01       		.uleb128 0x1
 13767 02b3 12       		.uleb128 0x12
 13768 02b4 06       		.uleb128 0x6
 13769 02b5 40       		.uleb128 0x40
 13770 02b6 18       		.uleb128 0x18
 13771 02b7 9642     		.uleb128 0x2116
 13772 02b9 19       		.uleb128 0x19
 13773 02ba 01       		.uleb128 0x1
 13774 02bb 13       		.uleb128 0x13
 13775 02bc 00       		.byte	0
 13776 02bd 00       		.byte	0
 13777 02be 35       		.uleb128 0x35
 13778 02bf 05       		.uleb128 0x5
 13779 02c0 00       		.byte	0
 13780 02c1 03       		.uleb128 0x3
 13781 02c2 0E       		.uleb128 0xe
 13782 02c3 3A       		.uleb128 0x3a
 13783 02c4 0B       		.uleb128 0xb
 13784 02c5 3B       		.uleb128 0x3b
 13785 02c6 05       		.uleb128 0x5
 13786 02c7 49       		.uleb128 0x49
 13787 02c8 13       		.uleb128 0x13
 13788 02c9 02       		.uleb128 0x2
 13789 02ca 18       		.uleb128 0x18
 13790 02cb 00       		.byte	0
 13791 02cc 00       		.byte	0
 13792 02cd 36       		.uleb128 0x36
 13793 02ce 34       		.uleb128 0x34
 13794 02cf 00       		.byte	0
 13795 02d0 03       		.uleb128 0x3
 13796 02d1 08       		.uleb128 0x8
 13797 02d2 3A       		.uleb128 0x3a
 13798 02d3 0B       		.uleb128 0xb
 13799 02d4 3B       		.uleb128 0x3b
 13800 02d5 05       		.uleb128 0x5
 13801 02d6 49       		.uleb128 0x49
 13802 02d7 13       		.uleb128 0x13
 13803 02d8 02       		.uleb128 0x2
 13804 02d9 17       		.uleb128 0x17
 13805 02da 00       		.byte	0
 13806 02db 00       		.byte	0
ARM GAS  C:\Users\chemi\AppData\Local\Temp\ccFrP3K3.s 			page 280


 13807 02dc 37       		.uleb128 0x37
 13808 02dd 898201   		.uleb128 0x4109
 13809 02e0 01       		.byte	0x1
 13810 02e1 11       		.uleb128 0x11
 13811 02e2 01       		.uleb128 0x1
 13812 02e3 9542     		.uleb128 0x2115
 13813 02e5 19       		.uleb128 0x19
 13814 02e6 00       		.byte	0
 13815 02e7 00       		.byte	0
 13816 02e8 38       		.uleb128 0x38
 13817 02e9 898201   		.uleb128 0x4109
 13818 02ec 01       		.byte	0x1
 13819 02ed 11       		.uleb128 0x11
 13820 02ee 01       		.uleb128 0x1
 13821 02ef 9342     		.uleb128 0x2113
 13822 02f1 18       		.uleb128 0x18
 13823 02f2 00       		.byte	0
 13824 02f3 00       		.byte	0
 13825 02f4 39       		.uleb128 0x39
 13826 02f5 2E       		.uleb128 0x2e
 13827 02f6 01       		.byte	0x1
 13828 02f7 3F       		.uleb128 0x3f
 13829 02f8 19       		.uleb128 0x19
 13830 02f9 03       		.uleb128 0x3
 13831 02fa 0E       		.uleb128 0xe
 13832 02fb 3A       		.uleb128 0x3a
 13833 02fc 0B       		.uleb128 0xb
 13834 02fd 3B       		.uleb128 0x3b
 13835 02fe 05       		.uleb128 0x5
 13836 02ff 27       		.uleb128 0x27
 13837 0300 19       		.uleb128 0x19
 13838 0301 49       		.uleb128 0x49
 13839 0302 13       		.uleb128 0x13
 13840 0303 11       		.uleb128 0x11
 13841 0304 01       		.uleb128 0x1
 13842 0305 12       		.uleb128 0x12
 13843 0306 06       		.uleb128 0x6
 13844 0307 40       		.uleb128 0x40
 13845 0308 18       		.uleb128 0x18
 13846 0309 9642     		.uleb128 0x2116
 13847 030b 19       		.uleb128 0x19
 13848 030c 01       		.uleb128 0x1
 13849 030d 13       		.uleb128 0x13
 13850 030e 00       		.byte	0
 13851 030f 00       		.byte	0
 13852 0310 3A       		.uleb128 0x3a
 13853 0311 0A       		.uleb128 0xa
 13854 0312 00       		.byte	0
 13855 0313 03       		.uleb128 0x3
 13856 0314 0E       		.uleb128 0xe
 13857 0315 3A       		.uleb128 0x3a
 13858 0316 0B       		.uleb128 0xb
 13859 0317 3B       		.uleb128 0x3b
 13860 0318 05       		.uleb128 0x5
 13861 0319 11       		.uleb128 0x11
 13862 031a 01       		.uleb128 0x1
 13863 031b 00       		.byte	0
ARM GAS  C:\Users\chemi\AppData\Local\Temp\ccFrP3K3.s 			page 281


 13864 031c 00       		.byte	0
 13865 031d 3B       		.uleb128 0x3b
 13866 031e 0B       		.uleb128 0xb
 13867 031f 01       		.byte	0x1
 13868 0320 55       		.uleb128 0x55
 13869 0321 17       		.uleb128 0x17
 13870 0322 00       		.byte	0
 13871 0323 00       		.byte	0
 13872 0324 3C       		.uleb128 0x3c
 13873 0325 34       		.uleb128 0x34
 13874 0326 00       		.byte	0
 13875 0327 03       		.uleb128 0x3
 13876 0328 0E       		.uleb128 0xe
 13877 0329 3A       		.uleb128 0x3a
 13878 032a 0B       		.uleb128 0xb
 13879 032b 3B       		.uleb128 0x3b
 13880 032c 05       		.uleb128 0x5
 13881 032d 49       		.uleb128 0x49
 13882 032e 13       		.uleb128 0x13
 13883 032f 02       		.uleb128 0x2
 13884 0330 18       		.uleb128 0x18
 13885 0331 00       		.byte	0
 13886 0332 00       		.byte	0
 13887 0333 3D       		.uleb128 0x3d
 13888 0334 0B       		.uleb128 0xb
 13889 0335 01       		.byte	0x1
 13890 0336 55       		.uleb128 0x55
 13891 0337 17       		.uleb128 0x17
 13892 0338 01       		.uleb128 0x1
 13893 0339 13       		.uleb128 0x13
 13894 033a 00       		.byte	0
 13895 033b 00       		.byte	0
 13896 033c 3E       		.uleb128 0x3e
 13897 033d 2E       		.uleb128 0x2e
 13898 033e 01       		.byte	0x1
 13899 033f 31       		.uleb128 0x31
 13900 0340 13       		.uleb128 0x13
 13901 0341 11       		.uleb128 0x11
 13902 0342 01       		.uleb128 0x1
 13903 0343 12       		.uleb128 0x12
 13904 0344 06       		.uleb128 0x6
 13905 0345 40       		.uleb128 0x40
 13906 0346 18       		.uleb128 0x18
 13907 0347 9642     		.uleb128 0x2116
 13908 0349 19       		.uleb128 0x19
 13909 034a 01       		.uleb128 0x1
 13910 034b 13       		.uleb128 0x13
 13911 034c 00       		.byte	0
 13912 034d 00       		.byte	0
 13913 034e 3F       		.uleb128 0x3f
 13914 034f 05       		.uleb128 0x5
 13915 0350 00       		.byte	0
 13916 0351 31       		.uleb128 0x31
 13917 0352 13       		.uleb128 0x13
 13918 0353 00       		.byte	0
 13919 0354 00       		.byte	0
 13920 0355 40       		.uleb128 0x40
ARM GAS  C:\Users\chemi\AppData\Local\Temp\ccFrP3K3.s 			page 282


 13921 0356 34       		.uleb128 0x34
 13922 0357 00       		.byte	0
 13923 0358 03       		.uleb128 0x3
 13924 0359 0E       		.uleb128 0xe
 13925 035a 3A       		.uleb128 0x3a
 13926 035b 0B       		.uleb128 0xb
 13927 035c 3B       		.uleb128 0x3b
 13928 035d 0B       		.uleb128 0xb
 13929 035e 49       		.uleb128 0x49
 13930 035f 13       		.uleb128 0x13
 13931 0360 02       		.uleb128 0x2
 13932 0361 18       		.uleb128 0x18
 13933 0362 00       		.byte	0
 13934 0363 00       		.byte	0
 13935 0364 41       		.uleb128 0x41
 13936 0365 34       		.uleb128 0x34
 13937 0366 00       		.byte	0
 13938 0367 03       		.uleb128 0x3
 13939 0368 0E       		.uleb128 0xe
 13940 0369 3A       		.uleb128 0x3a
 13941 036a 0B       		.uleb128 0xb
 13942 036b 3B       		.uleb128 0x3b
 13943 036c 05       		.uleb128 0x5
 13944 036d 49       		.uleb128 0x49
 13945 036e 13       		.uleb128 0x13
 13946 036f 3F       		.uleb128 0x3f
 13947 0370 19       		.uleb128 0x19
 13948 0371 3C       		.uleb128 0x3c
 13949 0372 19       		.uleb128 0x19
 13950 0373 00       		.byte	0
 13951 0374 00       		.byte	0
 13952 0375 42       		.uleb128 0x42
 13953 0376 34       		.uleb128 0x34
 13954 0377 00       		.byte	0
 13955 0378 03       		.uleb128 0x3
 13956 0379 0E       		.uleb128 0xe
 13957 037a 3A       		.uleb128 0x3a
 13958 037b 0B       		.uleb128 0xb
 13959 037c 3B       		.uleb128 0x3b
 13960 037d 0B       		.uleb128 0xb
 13961 037e 49       		.uleb128 0x49
 13962 037f 13       		.uleb128 0x13
 13963 0380 3F       		.uleb128 0x3f
 13964 0381 19       		.uleb128 0x19
 13965 0382 02       		.uleb128 0x2
 13966 0383 18       		.uleb128 0x18
 13967 0384 00       		.byte	0
 13968 0385 00       		.byte	0
 13969 0386 43       		.uleb128 0x43
 13970 0387 34       		.uleb128 0x34
 13971 0388 00       		.byte	0
 13972 0389 03       		.uleb128 0x3
 13973 038a 0E       		.uleb128 0xe
 13974 038b 3A       		.uleb128 0x3a
 13975 038c 0B       		.uleb128 0xb
 13976 038d 3B       		.uleb128 0x3b
 13977 038e 0B       		.uleb128 0xb
ARM GAS  C:\Users\chemi\AppData\Local\Temp\ccFrP3K3.s 			page 283


 13978 038f 49       		.uleb128 0x49
 13979 0390 13       		.uleb128 0x13
 13980 0391 3F       		.uleb128 0x3f
 13981 0392 19       		.uleb128 0x19
 13982 0393 3C       		.uleb128 0x3c
 13983 0394 19       		.uleb128 0x19
 13984 0395 00       		.byte	0
 13985 0396 00       		.byte	0
 13986 0397 44       		.uleb128 0x44
 13987 0398 34       		.uleb128 0x34
 13988 0399 00       		.byte	0
 13989 039a 03       		.uleb128 0x3
 13990 039b 08       		.uleb128 0x8
 13991 039c 3A       		.uleb128 0x3a
 13992 039d 0B       		.uleb128 0xb
 13993 039e 3B       		.uleb128 0x3b
 13994 039f 0B       		.uleb128 0xb
 13995 03a0 49       		.uleb128 0x49
 13996 03a1 13       		.uleb128 0x13
 13997 03a2 3F       		.uleb128 0x3f
 13998 03a3 19       		.uleb128 0x19
 13999 03a4 3C       		.uleb128 0x3c
 14000 03a5 19       		.uleb128 0x19
 14001 03a6 00       		.byte	0
 14002 03a7 00       		.byte	0
 14003 03a8 45       		.uleb128 0x45
 14004 03a9 2E       		.uleb128 0x2e
 14005 03aa 00       		.byte	0
 14006 03ab 3F       		.uleb128 0x3f
 14007 03ac 19       		.uleb128 0x19
 14008 03ad 3C       		.uleb128 0x3c
 14009 03ae 19       		.uleb128 0x19
 14010 03af 6E       		.uleb128 0x6e
 14011 03b0 0E       		.uleb128 0xe
 14012 03b1 03       		.uleb128 0x3
 14013 03b2 0E       		.uleb128 0xe
 14014 03b3 3A       		.uleb128 0x3a
 14015 03b4 0B       		.uleb128 0xb
 14016 03b5 3B       		.uleb128 0x3b
 14017 03b6 0B       		.uleb128 0xb
 14018 03b7 00       		.byte	0
 14019 03b8 00       		.byte	0
 14020 03b9 00       		.byte	0
 14021              		.section	.debug_loc,"",%progbits
 14022              	.Ldebug_loc0:
 14023              	.LLST0:
 14024 0000 00000000 		.4byte	.LVL0
 14025 0004 12000000 		.4byte	.LVL3
 14026 0008 0100     		.2byte	0x1
 14027 000a 50       		.byte	0x50
 14028 000b 12000000 		.4byte	.LVL3
 14029 000f 20000000 		.4byte	.LFE77
 14030 0013 0400     		.2byte	0x4
 14031 0015 F3       		.byte	0xf3
 14032 0016 01       		.uleb128 0x1
 14033 0017 50       		.byte	0x50
 14034 0018 9F       		.byte	0x9f
ARM GAS  C:\Users\chemi\AppData\Local\Temp\ccFrP3K3.s 			page 284


 14035 0019 00000000 		.4byte	0
 14036 001d 00000000 		.4byte	0
 14037              	.LLST1:
 14038 0021 00000000 		.4byte	.LVL0
 14039 0025 06000000 		.4byte	.LVL1
 14040 0029 0100     		.2byte	0x1
 14041 002b 51       		.byte	0x51
 14042 002c 06000000 		.4byte	.LVL1
 14043 0030 20000000 		.4byte	.LFE77
 14044 0034 0400     		.2byte	0x4
 14045 0036 F3       		.byte	0xf3
 14046 0037 01       		.uleb128 0x1
 14047 0038 51       		.byte	0x51
 14048 0039 9F       		.byte	0x9f
 14049 003a 00000000 		.4byte	0
 14050 003e 00000000 		.4byte	0
 14051              	.LLST2:
 14052 0042 00000000 		.4byte	.LVL0
 14053 0046 13000000 		.4byte	.LVL4-1
 14054 004a 0100     		.2byte	0x1
 14055 004c 52       		.byte	0x52
 14056 004d 13000000 		.4byte	.LVL4-1
 14057 0051 20000000 		.4byte	.LFE77
 14058 0055 0400     		.2byte	0x4
 14059 0057 F3       		.byte	0xf3
 14060 0058 01       		.uleb128 0x1
 14061 0059 52       		.byte	0x52
 14062 005a 9F       		.byte	0x9f
 14063 005b 00000000 		.4byte	0
 14064 005f 00000000 		.4byte	0
 14065              	.LLST3:
 14066 0063 0C000000 		.4byte	.LVL2
 14067 0067 12000000 		.4byte	.LVL3
 14068 006b 0100     		.2byte	0x1
 14069 006d 50       		.byte	0x50
 14070 006e 12000000 		.4byte	.LVL3
 14071 0072 14000000 		.4byte	.LVL4
 14072 0076 0400     		.2byte	0x4
 14073 0078 F3       		.byte	0xf3
 14074 0079 01       		.uleb128 0x1
 14075 007a 50       		.byte	0x50
 14076 007b 9F       		.byte	0x9f
 14077 007c 00000000 		.4byte	0
 14078 0080 00000000 		.4byte	0
 14079              	.LLST4:
 14080 0084 0C000000 		.4byte	.LVL2
 14081 0088 14000000 		.4byte	.LVL4
 14082 008c 0400     		.2byte	0x4
 14083 008e F3       		.byte	0xf3
 14084 008f 01       		.uleb128 0x1
 14085 0090 51       		.byte	0x51
 14086 0091 9F       		.byte	0x9f
 14087 0092 00000000 		.4byte	0
 14088 0096 00000000 		.4byte	0
 14089              	.LLST5:
 14090 009a 0C000000 		.4byte	.LVL2
 14091 009e 13000000 		.4byte	.LVL4-1
ARM GAS  C:\Users\chemi\AppData\Local\Temp\ccFrP3K3.s 			page 285


 14092 00a2 0100     		.2byte	0x1
 14093 00a4 52       		.byte	0x52
 14094 00a5 13000000 		.4byte	.LVL4-1
 14095 00a9 14000000 		.4byte	.LVL4
 14096 00ad 0400     		.2byte	0x4
 14097 00af F3       		.byte	0xf3
 14098 00b0 01       		.uleb128 0x1
 14099 00b1 52       		.byte	0x52
 14100 00b2 9F       		.byte	0x9f
 14101 00b3 00000000 		.4byte	0
 14102 00b7 00000000 		.4byte	0
 14103              	.LLST6:
 14104 00bb 00000000 		.4byte	.LVL15
 14105 00bf 06000000 		.4byte	.LVL16
 14106 00c3 0100     		.2byte	0x1
 14107 00c5 50       		.byte	0x50
 14108 00c6 06000000 		.4byte	.LVL16
 14109 00ca 13000000 		.4byte	.LVL19-1
 14110 00ce 0100     		.2byte	0x1
 14111 00d0 51       		.byte	0x51
 14112 00d1 13000000 		.4byte	.LVL19-1
 14113 00d5 14000000 		.4byte	.LVL19
 14114 00d9 0400     		.2byte	0x4
 14115 00db F3       		.byte	0xf3
 14116 00dc 01       		.uleb128 0x1
 14117 00dd 50       		.byte	0x50
 14118 00de 9F       		.byte	0x9f
 14119 00df 14000000 		.4byte	.LVL19
 14120 00e3 16000000 		.4byte	.LFE71
 14121 00e7 0100     		.2byte	0x1
 14122 00e9 51       		.byte	0x51
 14123 00ea 00000000 		.4byte	0
 14124 00ee 00000000 		.4byte	0
 14125              	.LLST7:
 14126 00f2 0A000000 		.4byte	.LVL17
 14127 00f6 0E000000 		.4byte	.LVL18
 14128 00fa 0800     		.2byte	0x8
 14129 00fc 70       		.byte	0x70
 14130 00fd 00       		.sleb128 0
 14131 00fe 08       		.byte	0x8
 14132 00ff FF       		.byte	0xff
 14133 0100 1A       		.byte	0x1a
 14134 0101 35       		.byte	0x35
 14135 0102 29       		.byte	0x29
 14136 0103 9F       		.byte	0x9f
 14137 0104 0E000000 		.4byte	.LVL18
 14138 0108 13000000 		.4byte	.LVL19-1
 14139 010c 0800     		.2byte	0x8
 14140 010e 73       		.byte	0x73
 14141 010f 05       		.sleb128 5
 14142 0110 08       		.byte	0x8
 14143 0111 FF       		.byte	0xff
 14144 0112 1A       		.byte	0x1a
 14145 0113 35       		.byte	0x35
 14146 0114 29       		.byte	0x29
 14147 0115 9F       		.byte	0x9f
 14148 0116 00000000 		.4byte	0
ARM GAS  C:\Users\chemi\AppData\Local\Temp\ccFrP3K3.s 			page 286


 14149 011a 00000000 		.4byte	0
 14150              	.LLST8:
 14151 011e 00000000 		.4byte	.LVL20
 14152 0122 0E000000 		.4byte	.LVL22
 14153 0126 0100     		.2byte	0x1
 14154 0128 50       		.byte	0x50
 14155 0129 0E000000 		.4byte	.LVL22
 14156 012d 80000000 		.4byte	.LFE76
 14157 0131 0400     		.2byte	0x4
 14158 0133 F3       		.byte	0xf3
 14159 0134 01       		.uleb128 0x1
 14160 0135 50       		.byte	0x50
 14161 0136 9F       		.byte	0x9f
 14162 0137 00000000 		.4byte	0
 14163 013b 00000000 		.4byte	0
 14164              	.LLST9:
 14165 013f 00000000 		.4byte	.LVL20
 14166 0143 02000000 		.4byte	.LVL21
 14167 0147 0100     		.2byte	0x1
 14168 0149 51       		.byte	0x51
 14169 014a 02000000 		.4byte	.LVL21
 14170 014e 80000000 		.4byte	.LFE76
 14171 0152 0400     		.2byte	0x4
 14172 0154 F3       		.byte	0xf3
 14173 0155 01       		.uleb128 0x1
 14174 0156 51       		.byte	0x51
 14175 0157 9F       		.byte	0x9f
 14176 0158 00000000 		.4byte	0
 14177 015c 00000000 		.4byte	0
 14178              	.LLST10:
 14179 0160 00000000 		.4byte	.LVL20
 14180 0164 14000000 		.4byte	.LVL23
 14181 0168 0100     		.2byte	0x1
 14182 016a 52       		.byte	0x52
 14183 016b 14000000 		.4byte	.LVL23
 14184 016f 74000000 		.4byte	.LVL33
 14185 0173 0100     		.2byte	0x1
 14186 0175 55       		.byte	0x55
 14187 0176 74000000 		.4byte	.LVL33
 14188 017a 80000000 		.4byte	.LFE76
 14189 017e 0400     		.2byte	0x4
 14190 0180 F3       		.byte	0xf3
 14191 0181 01       		.uleb128 0x1
 14192 0182 52       		.byte	0x52
 14193 0183 9F       		.byte	0x9f
 14194 0184 00000000 		.4byte	0
 14195 0188 00000000 		.4byte	0
 14196              	.LLST11:
 14197 018c 1A000000 		.4byte	.LVL24
 14198 0190 5C000000 		.4byte	.LVL29
 14199 0194 0100     		.2byte	0x1
 14200 0196 54       		.byte	0x54
 14201 0197 00000000 		.4byte	0
 14202 019b 00000000 		.4byte	0
 14203              	.LLST12:
 14204 019f 1A000000 		.4byte	.LVL24
 14205 01a3 2E000000 		.4byte	.LVL25
ARM GAS  C:\Users\chemi\AppData\Local\Temp\ccFrP3K3.s 			page 287


 14206 01a7 1900     		.2byte	0x19
 14207 01a9 73       		.byte	0x73
 14208 01aa 00       		.sleb128 0
 14209 01ab 0A       		.byte	0xa
 14210 01ac 8813     		.2byte	0x1388
 14211 01ae 1E       		.byte	0x1e
 14212 01af F7       		.byte	0xf7
 14213 01b0 25       		.uleb128 0x25
 14214 01b1 70       		.byte	0x70
 14215 01b2 00       		.sleb128 0
 14216 01b3 F7       		.byte	0xf7
 14217 01b4 25       		.uleb128 0x25
 14218 01b5 1B       		.byte	0x1b
 14219 01b6 F7       		.byte	0xf7
 14220 01b7 00       		.uleb128 0
 14221 01b8 F7       		.byte	0xf7
 14222 01b9 25       		.uleb128 0x25
 14223 01ba 08       		.byte	0x8
 14224 01bb 64       		.byte	0x64
 14225 01bc F7       		.byte	0xf7
 14226 01bd 25       		.uleb128 0x25
 14227 01be 1B       		.byte	0x1b
 14228 01bf F7       		.byte	0xf7
 14229 01c0 00       		.uleb128 0
 14230 01c1 9F       		.byte	0x9f
 14231 01c2 2E000000 		.4byte	.LVL25
 14232 01c6 40000000 		.4byte	.LVL26
 14233 01ca 2200     		.2byte	0x22
 14234 01cc 03       		.byte	0x3
 14235 01cd 12000000 		.4byte	configuration+18
 14236 01d1 94       		.byte	0x94
 14237 01d2 02       		.byte	0x2
 14238 01d3 0A       		.byte	0xa
 14239 01d4 FFFF     		.2byte	0xffff
 14240 01d6 1A       		.byte	0x1a
 14241 01d7 0A       		.byte	0xa
 14242 01d8 8813     		.2byte	0x1388
 14243 01da 1E       		.byte	0x1e
 14244 01db F7       		.byte	0xf7
 14245 01dc 25       		.uleb128 0x25
 14246 01dd 70       		.byte	0x70
 14247 01de 00       		.sleb128 0
 14248 01df F7       		.byte	0xf7
 14249 01e0 25       		.uleb128 0x25
 14250 01e1 1B       		.byte	0x1b
 14251 01e2 F7       		.byte	0xf7
 14252 01e3 00       		.uleb128 0
 14253 01e4 F7       		.byte	0xf7
 14254 01e5 25       		.uleb128 0x25
 14255 01e6 08       		.byte	0x8
 14256 01e7 64       		.byte	0x64
 14257 01e8 F7       		.byte	0xf7
 14258 01e9 25       		.uleb128 0x25
 14259 01ea 1B       		.byte	0x1b
 14260 01eb F7       		.byte	0xf7
 14261 01ec 00       		.uleb128 0
 14262 01ed 9F       		.byte	0x9f
ARM GAS  C:\Users\chemi\AppData\Local\Temp\ccFrP3K3.s 			page 288


 14263 01ee 40000000 		.4byte	.LVL26
 14264 01f2 41000000 		.4byte	.LVL27-1
 14265 01f6 2B00     		.2byte	0x2b
 14266 01f8 03       		.byte	0x3
 14267 01f9 12000000 		.4byte	configuration+18
 14268 01fd 94       		.byte	0x94
 14269 01fe 02       		.byte	0x2
 14270 01ff 0A       		.byte	0xa
 14271 0200 FFFF     		.2byte	0xffff
 14272 0202 1A       		.byte	0x1a
 14273 0203 0A       		.byte	0xa
 14274 0204 8813     		.2byte	0x1388
 14275 0206 1E       		.byte	0x1e
 14276 0207 F7       		.byte	0xf7
 14277 0208 25       		.uleb128 0x25
 14278 0209 03       		.byte	0x3
 14279 020a 16000000 		.4byte	configuration+22
 14280 020e 94       		.byte	0x94
 14281 020f 02       		.byte	0x2
 14282 0210 0A       		.byte	0xa
 14283 0211 FFFF     		.2byte	0xffff
 14284 0213 1A       		.byte	0x1a
 14285 0214 F7       		.byte	0xf7
 14286 0215 25       		.uleb128 0x25
 14287 0216 1B       		.byte	0x1b
 14288 0217 F7       		.byte	0xf7
 14289 0218 00       		.uleb128 0
 14290 0219 F7       		.byte	0xf7
 14291 021a 25       		.uleb128 0x25
 14292 021b 08       		.byte	0x8
 14293 021c 64       		.byte	0x64
 14294 021d F7       		.byte	0xf7
 14295 021e 25       		.uleb128 0x25
 14296 021f 1B       		.byte	0x1b
 14297 0220 F7       		.byte	0xf7
 14298 0221 00       		.uleb128 0
 14299 0222 9F       		.byte	0x9f
 14300 0223 00000000 		.4byte	0
 14301 0227 00000000 		.4byte	0
 14302              	.LLST13:
 14303 022b 5C000000 		.4byte	.LVL29
 14304 022f 74000000 		.4byte	.LVL33
 14305 0233 0100     		.2byte	0x1
 14306 0235 54       		.byte	0x54
 14307 0236 00000000 		.4byte	0
 14308 023a 00000000 		.4byte	0
 14309              	.LLST14:
 14310 023e 00000000 		.4byte	.LVL34
 14311 0242 07000000 		.4byte	.LVL35-1
 14312 0246 0100     		.2byte	0x1
 14313 0248 50       		.byte	0x50
 14314 0249 07000000 		.4byte	.LVL35-1
 14315 024d 74000000 		.4byte	.LFE80
 14316 0251 0400     		.2byte	0x4
 14317 0253 F3       		.byte	0xf3
 14318 0254 01       		.uleb128 0x1
 14319 0255 50       		.byte	0x50
ARM GAS  C:\Users\chemi\AppData\Local\Temp\ccFrP3K3.s 			page 289


 14320 0256 9F       		.byte	0x9f
 14321 0257 00000000 		.4byte	0
 14322 025b 00000000 		.4byte	0
 14323              	.LLST15:
 14324 025f 00000000 		.4byte	.LVL34
 14325 0263 07000000 		.4byte	.LVL35-1
 14326 0267 0100     		.2byte	0x1
 14327 0269 51       		.byte	0x51
 14328 026a 07000000 		.4byte	.LVL35-1
 14329 026e 74000000 		.4byte	.LFE80
 14330 0272 0400     		.2byte	0x4
 14331 0274 F3       		.byte	0xf3
 14332 0275 01       		.uleb128 0x1
 14333 0276 51       		.byte	0x51
 14334 0277 9F       		.byte	0x9f
 14335 0278 00000000 		.4byte	0
 14336 027c 00000000 		.4byte	0
 14337              	.LLST16:
 14338 0280 00000000 		.4byte	.LVL34
 14339 0284 07000000 		.4byte	.LVL35-1
 14340 0288 0100     		.2byte	0x1
 14341 028a 52       		.byte	0x52
 14342 028b 07000000 		.4byte	.LVL35-1
 14343 028f 6C000000 		.4byte	.LVL51
 14344 0293 0100     		.2byte	0x1
 14345 0295 56       		.byte	0x56
 14346 0296 6C000000 		.4byte	.LVL51
 14347 029a 74000000 		.4byte	.LFE80
 14348 029e 0400     		.2byte	0x4
 14349 02a0 F3       		.byte	0xf3
 14350 02a1 01       		.uleb128 0x1
 14351 02a2 52       		.byte	0x52
 14352 02a3 9F       		.byte	0x9f
 14353 02a4 00000000 		.4byte	0
 14354 02a8 00000000 		.4byte	0
 14355              	.LLST17:
 14356 02ac 0C000000 		.4byte	.LVL36
 14357 02b0 6C000000 		.4byte	.LVL51
 14358 02b4 0100     		.2byte	0x1
 14359 02b6 55       		.byte	0x55
 14360 02b7 6C000000 		.4byte	.LVL51
 14361 02bb 74000000 		.4byte	.LFE80
 14362 02bf 0200     		.2byte	0x2
 14363 02c1 73       		.byte	0x73
 14364 02c2 00       		.sleb128 0
 14365 02c3 00000000 		.4byte	0
 14366 02c7 00000000 		.4byte	0
 14367              	.LLST18:
 14368 02cb 00000000 		.4byte	.LVL56
 14369 02cf 17000000 		.4byte	.LVL57-1
 14370 02d3 0100     		.2byte	0x1
 14371 02d5 50       		.byte	0x50
 14372 02d6 17000000 		.4byte	.LVL57-1
 14373 02da 1C000000 		.4byte	.LVL58
 14374 02de 0400     		.2byte	0x4
 14375 02e0 F3       		.byte	0xf3
 14376 02e1 01       		.uleb128 0x1
ARM GAS  C:\Users\chemi\AppData\Local\Temp\ccFrP3K3.s 			page 290


 14377 02e2 50       		.byte	0x50
 14378 02e3 9F       		.byte	0x9f
 14379 02e4 1C000000 		.4byte	.LVL58
 14380 02e8 20000000 		.4byte	.LVL59
 14381 02ec 0100     		.2byte	0x1
 14382 02ee 50       		.byte	0x50
 14383 02ef 20000000 		.4byte	.LVL59
 14384 02f3 60000000 		.4byte	.LFE73
 14385 02f7 0400     		.2byte	0x4
 14386 02f9 F3       		.byte	0xf3
 14387 02fa 01       		.uleb128 0x1
 14388 02fb 50       		.byte	0x50
 14389 02fc 9F       		.byte	0x9f
 14390 02fd 00000000 		.4byte	0
 14391 0301 00000000 		.4byte	0
 14392              	.LLST19:
 14393 0305 00000000 		.4byte	.LVL56
 14394 0309 17000000 		.4byte	.LVL57-1
 14395 030d 0100     		.2byte	0x1
 14396 030f 51       		.byte	0x51
 14397 0310 17000000 		.4byte	.LVL57-1
 14398 0314 1C000000 		.4byte	.LVL58
 14399 0318 0400     		.2byte	0x4
 14400 031a F3       		.byte	0xf3
 14401 031b 01       		.uleb128 0x1
 14402 031c 51       		.byte	0x51
 14403 031d 9F       		.byte	0x9f
 14404 031e 1C000000 		.4byte	.LVL58
 14405 0322 22000000 		.4byte	.LVL60
 14406 0326 0100     		.2byte	0x1
 14407 0328 51       		.byte	0x51
 14408 0329 22000000 		.4byte	.LVL60
 14409 032d 60000000 		.4byte	.LFE73
 14410 0331 0400     		.2byte	0x4
 14411 0333 F3       		.byte	0xf3
 14412 0334 01       		.uleb128 0x1
 14413 0335 51       		.byte	0x51
 14414 0336 9F       		.byte	0x9f
 14415 0337 00000000 		.4byte	0
 14416 033b 00000000 		.4byte	0
 14417              	.LLST20:
 14418 033f 00000000 		.4byte	.LVL56
 14419 0343 17000000 		.4byte	.LVL57-1
 14420 0347 0100     		.2byte	0x1
 14421 0349 52       		.byte	0x52
 14422 034a 17000000 		.4byte	.LVL57-1
 14423 034e 1C000000 		.4byte	.LVL58
 14424 0352 0100     		.2byte	0x1
 14425 0354 54       		.byte	0x54
 14426 0355 1C000000 		.4byte	.LVL58
 14427 0359 23000000 		.4byte	.LVL61-1
 14428 035d 0100     		.2byte	0x1
 14429 035f 52       		.byte	0x52
 14430 0360 23000000 		.4byte	.LVL61-1
 14431 0364 48000000 		.4byte	.LVL66
 14432 0368 0100     		.2byte	0x1
 14433 036a 54       		.byte	0x54
ARM GAS  C:\Users\chemi\AppData\Local\Temp\ccFrP3K3.s 			page 291


 14434 036b 48000000 		.4byte	.LVL66
 14435 036f 60000000 		.4byte	.LFE73
 14436 0373 0400     		.2byte	0x4
 14437 0375 F3       		.byte	0xf3
 14438 0376 01       		.uleb128 0x1
 14439 0377 52       		.byte	0x52
 14440 0378 9F       		.byte	0x9f
 14441 0379 00000000 		.4byte	0
 14442 037d 00000000 		.4byte	0
 14443              	.LLST21:
 14444 0381 1C000000 		.4byte	.LVL58
 14445 0385 20000000 		.4byte	.LVL59
 14446 0389 0100     		.2byte	0x1
 14447 038b 50       		.byte	0x50
 14448 038c 20000000 		.4byte	.LVL59
 14449 0390 44000000 		.4byte	.LVL65
 14450 0394 0400     		.2byte	0x4
 14451 0396 F3       		.byte	0xf3
 14452 0397 01       		.uleb128 0x1
 14453 0398 50       		.byte	0x50
 14454 0399 9F       		.byte	0x9f
 14455 039a 00000000 		.4byte	0
 14456 039e 00000000 		.4byte	0
 14457              	.LLST22:
 14458 03a2 1C000000 		.4byte	.LVL58
 14459 03a6 44000000 		.4byte	.LVL65
 14460 03aa 0400     		.2byte	0x4
 14461 03ac F3       		.byte	0xf3
 14462 03ad 01       		.uleb128 0x1
 14463 03ae 51       		.byte	0x51
 14464 03af 9F       		.byte	0x9f
 14465 03b0 00000000 		.4byte	0
 14466 03b4 00000000 		.4byte	0
 14467              	.LLST23:
 14468 03b8 1C000000 		.4byte	.LVL58
 14469 03bc 23000000 		.4byte	.LVL61-1
 14470 03c0 0100     		.2byte	0x1
 14471 03c2 52       		.byte	0x52
 14472 03c3 23000000 		.4byte	.LVL61-1
 14473 03c7 44000000 		.4byte	.LVL65
 14474 03cb 0100     		.2byte	0x1
 14475 03cd 54       		.byte	0x54
 14476 03ce 00000000 		.4byte	0
 14477 03d2 00000000 		.4byte	0
 14478              	.LLST24:
 14479 03d6 00000000 		.4byte	.LVL67
 14480 03da 05000000 		.4byte	.LVL68-1
 14481 03de 0100     		.2byte	0x1
 14482 03e0 50       		.byte	0x50
 14483 03e1 05000000 		.4byte	.LVL68-1
 14484 03e5 0A000000 		.4byte	.LFE74
 14485 03e9 0400     		.2byte	0x4
 14486 03eb F3       		.byte	0xf3
 14487 03ec 01       		.uleb128 0x1
 14488 03ed 50       		.byte	0x50
 14489 03ee 9F       		.byte	0x9f
 14490 03ef 00000000 		.4byte	0
ARM GAS  C:\Users\chemi\AppData\Local\Temp\ccFrP3K3.s 			page 292


 14491 03f3 00000000 		.4byte	0
 14492              	.LLST25:
 14493 03f7 00000000 		.4byte	.LVL67
 14494 03fb 05000000 		.4byte	.LVL68-1
 14495 03ff 0100     		.2byte	0x1
 14496 0401 51       		.byte	0x51
 14497 0402 05000000 		.4byte	.LVL68-1
 14498 0406 0A000000 		.4byte	.LFE74
 14499 040a 0400     		.2byte	0x4
 14500 040c F3       		.byte	0xf3
 14501 040d 01       		.uleb128 0x1
 14502 040e 51       		.byte	0x51
 14503 040f 9F       		.byte	0x9f
 14504 0410 00000000 		.4byte	0
 14505 0414 00000000 		.4byte	0
 14506              	.LLST26:
 14507 0418 00000000 		.4byte	.LVL67
 14508 041c 05000000 		.4byte	.LVL68-1
 14509 0420 0100     		.2byte	0x1
 14510 0422 52       		.byte	0x52
 14511 0423 05000000 		.4byte	.LVL68-1
 14512 0427 0A000000 		.4byte	.LFE74
 14513 042b 0400     		.2byte	0x4
 14514 042d F3       		.byte	0xf3
 14515 042e 01       		.uleb128 0x1
 14516 042f 52       		.byte	0x52
 14517 0430 9F       		.byte	0x9f
 14518 0431 00000000 		.4byte	0
 14519 0435 00000000 		.4byte	0
 14520              	.LLST27:
 14521 0439 00000000 		.4byte	.LVL69
 14522 043d 05000000 		.4byte	.LVL70-1
 14523 0441 0100     		.2byte	0x1
 14524 0443 50       		.byte	0x50
 14525 0444 05000000 		.4byte	.LVL70-1
 14526 0448 0A000000 		.4byte	.LFE75
 14527 044c 0400     		.2byte	0x4
 14528 044e F3       		.byte	0xf3
 14529 044f 01       		.uleb128 0x1
 14530 0450 50       		.byte	0x50
 14531 0451 9F       		.byte	0x9f
 14532 0452 00000000 		.4byte	0
 14533 0456 00000000 		.4byte	0
 14534              	.LLST28:
 14535 045a 00000000 		.4byte	.LVL69
 14536 045e 05000000 		.4byte	.LVL70-1
 14537 0462 0100     		.2byte	0x1
 14538 0464 51       		.byte	0x51
 14539 0465 05000000 		.4byte	.LVL70-1
 14540 0469 0A000000 		.4byte	.LFE75
 14541 046d 0400     		.2byte	0x4
 14542 046f F3       		.byte	0xf3
 14543 0470 01       		.uleb128 0x1
 14544 0471 51       		.byte	0x51
 14545 0472 9F       		.byte	0x9f
 14546 0473 00000000 		.4byte	0
 14547 0477 00000000 		.4byte	0
ARM GAS  C:\Users\chemi\AppData\Local\Temp\ccFrP3K3.s 			page 293


 14548              	.LLST29:
 14549 047b 00000000 		.4byte	.LVL69
 14550 047f 05000000 		.4byte	.LVL70-1
 14551 0483 0100     		.2byte	0x1
 14552 0485 52       		.byte	0x52
 14553 0486 05000000 		.4byte	.LVL70-1
 14554 048a 0A000000 		.4byte	.LFE75
 14555 048e 0400     		.2byte	0x4
 14556 0490 F3       		.byte	0xf3
 14557 0491 01       		.uleb128 0x1
 14558 0492 52       		.byte	0x52
 14559 0493 9F       		.byte	0x9f
 14560 0494 00000000 		.4byte	0
 14561 0498 00000000 		.4byte	0
 14562              	.LLST30:
 14563 049c 00000000 		.4byte	.LVL71
 14564 04a0 09000000 		.4byte	.LVL72-1
 14565 04a4 0100     		.2byte	0x1
 14566 04a6 50       		.byte	0x50
 14567 04a7 09000000 		.4byte	.LVL72-1
 14568 04ab B6000000 		.4byte	.LVL98
 14569 04af 0100     		.2byte	0x1
 14570 04b1 54       		.byte	0x54
 14571 04b2 B6000000 		.4byte	.LVL98
 14572 04b6 D0000000 		.4byte	.LFE78
 14573 04ba 0400     		.2byte	0x4
 14574 04bc F3       		.byte	0xf3
 14575 04bd 01       		.uleb128 0x1
 14576 04be 50       		.byte	0x50
 14577 04bf 9F       		.byte	0x9f
 14578 04c0 00000000 		.4byte	0
 14579 04c4 00000000 		.4byte	0
 14580              	.LLST31:
 14581 04c8 0C000000 		.4byte	.LVL73
 14582 04cc 10000000 		.4byte	.LVL74
 14583 04d0 0C00     		.2byte	0xc
 14584 04d2 F4       		.byte	0xf4
 14585 04d3 2C       		.uleb128 0x2c
 14586 04d4 04       		.byte	0x4
 14587 04d5 0024F44A 		.4byte	0x4af42400
 14588 04d9 F5       		.byte	0xf5
 14589 04da 00       		.uleb128 0
 14590 04db 2C       		.uleb128 0x2c
 14591 04dc 1B       		.byte	0x1b
 14592 04dd 9F       		.byte	0x9f
 14593 04de 10000000 		.4byte	.LVL74
 14594 04e2 13000000 		.4byte	.LVL75-1
 14595 04e6 0C00     		.2byte	0xc
 14596 04e8 F4       		.byte	0xf4
 14597 04e9 2C       		.uleb128 0x2c
 14598 04ea 04       		.byte	0x4
 14599 04eb 0024F44A 		.4byte	0x4af42400
 14600 04ef F5       		.byte	0xf5
 14601 04f0 01       		.uleb128 0x1
 14602 04f1 2C       		.uleb128 0x2c
 14603 04f2 1B       		.byte	0x1b
 14604 04f3 9F       		.byte	0x9f
ARM GAS  C:\Users\chemi\AppData\Local\Temp\ccFrP3K3.s 			page 294


 14605 04f4 13000000 		.4byte	.LVL75-1
 14606 04f8 B6000000 		.4byte	.LVL98
 14607 04fc 0C00     		.2byte	0xc
 14608 04fe F4       		.byte	0xf4
 14609 04ff 2C       		.uleb128 0x2c
 14610 0500 04       		.byte	0x4
 14611 0501 0024F44A 		.4byte	0x4af42400
 14612 0505 F5       		.byte	0xf5
 14613 0506 05       		.uleb128 0x5
 14614 0507 2C       		.uleb128 0x2c
 14615 0508 1B       		.byte	0x1b
 14616 0509 9F       		.byte	0x9f
 14617 050a 00000000 		.4byte	0
 14618 050e 00000000 		.4byte	0
 14619              	.LLST32:
 14620 0512 0C000000 		.4byte	.LVL73
 14621 0516 9C000000 		.4byte	.LVL94
 14622 051a 0200     		.2byte	0x2
 14623 051c 31       		.byte	0x31
 14624 051d 9F       		.byte	0x9f
 14625 051e 9C000000 		.4byte	.LVL94
 14626 0522 9E000000 		.4byte	.LVL95
 14627 0526 0100     		.2byte	0x1
 14628 0528 50       		.byte	0x50
 14629 0529 9E000000 		.4byte	.LVL95
 14630 052d A0000000 		.4byte	.LVL96
 14631 0531 0300     		.2byte	0x3
 14632 0533 70       		.byte	0x70
 14633 0534 01       		.sleb128 1
 14634 0535 9F       		.byte	0x9f
 14635 0536 00000000 		.4byte	0
 14636 053a 00000000 		.4byte	0
 14637              	.LLST33:
 14638 053e 24000000 		.4byte	.LVL78
 14639 0542 B6000000 		.4byte	.LVL98
 14640 0546 1200     		.2byte	0x12
 14641 0548 F4       		.byte	0xf4
 14642 0549 33       		.uleb128 0x33
 14643 054a 08       		.byte	0x8
 14644 054b 00000000 		.4byte	0
 14645 054f 80845E41 		.4byte	0x415e8480
 14646 0553 F5       		.byte	0xf5
 14647 0554 08       		.uleb128 0x8
 14648 0555 33       		.uleb128 0x33
 14649 0556 1B       		.byte	0x1b
 14650 0557 F7       		.byte	0xf7
 14651 0558 25       		.uleb128 0x25
 14652 0559 9F       		.byte	0x9f
 14653 055a 00000000 		.4byte	0
 14654 055e 00000000 		.4byte	0
 14655              	.LLST34:
 14656 0562 30000000 		.4byte	.LVL80
 14657 0566 B6000000 		.4byte	.LVL98
 14658 056a 1200     		.2byte	0x12
 14659 056c F4       		.byte	0xf4
 14660 056d 33       		.uleb128 0x33
 14661 056e 08       		.byte	0x8
ARM GAS  C:\Users\chemi\AppData\Local\Temp\ccFrP3K3.s 			page 295


 14662 056f 00000000 		.4byte	0
 14663 0573 80845E41 		.4byte	0x415e8480
 14664 0577 F5       		.byte	0xf5
 14665 0578 06       		.uleb128 0x6
 14666 0579 33       		.uleb128 0x33
 14667 057a 1B       		.byte	0x1b
 14668 057b F7       		.byte	0xf7
 14669 057c 25       		.uleb128 0x25
 14670 057d 9F       		.byte	0x9f
 14671 057e 00000000 		.4byte	0
 14672 0582 00000000 		.4byte	0
 14673              	.LLST35:
 14674 0586 30000000 		.4byte	.LVL80
 14675 058a B6000000 		.4byte	.LVL98
 14676 058e 2000     		.2byte	0x20
 14677 0590 F4       		.byte	0xf4
 14678 0591 33       		.uleb128 0x33
 14679 0592 08       		.byte	0x8
 14680 0593 00000000 		.4byte	0
 14681 0597 80845E41 		.4byte	0x415e8480
 14682 059b F5       		.byte	0xf5
 14683 059c 08       		.uleb128 0x8
 14684 059d 33       		.uleb128 0x33
 14685 059e 1B       		.byte	0x1b
 14686 059f F7       		.byte	0xf7
 14687 05a0 25       		.uleb128 0x25
 14688 05a1 F7       		.byte	0xf7
 14689 05a2 2C       		.uleb128 0x2c
 14690 05a3 F5       		.byte	0xf5
 14691 05a4 05       		.uleb128 0x5
 14692 05a5 2C       		.uleb128 0x2c
 14693 05a6 1B       		.byte	0x1b
 14694 05a7 F4       		.byte	0xf4
 14695 05a8 2C       		.uleb128 0x2c
 14696 05a9 04       		.byte	0x4
 14697 05aa 0000803F 		.4byte	0x3f800000
 14698 05ae 1C       		.byte	0x1c
 14699 05af 9F       		.byte	0x9f
 14700 05b0 00000000 		.4byte	0
 14701 05b4 00000000 		.4byte	0
 14702              	.LLST36:
 14703 05b8 30000000 		.4byte	.LVL80
 14704 05bc B6000000 		.4byte	.LVL98
 14705 05c0 2000     		.2byte	0x20
 14706 05c2 F4       		.byte	0xf4
 14707 05c3 33       		.uleb128 0x33
 14708 05c4 08       		.byte	0x8
 14709 05c5 00000000 		.4byte	0
 14710 05c9 80845E41 		.4byte	0x415e8480
 14711 05cd F5       		.byte	0xf5
 14712 05ce 06       		.uleb128 0x6
 14713 05cf 33       		.uleb128 0x33
 14714 05d0 1B       		.byte	0x1b
 14715 05d1 F7       		.byte	0xf7
 14716 05d2 25       		.uleb128 0x25
 14717 05d3 F7       		.byte	0xf7
 14718 05d4 2C       		.uleb128 0x2c
ARM GAS  C:\Users\chemi\AppData\Local\Temp\ccFrP3K3.s 			page 296


 14719 05d5 F5       		.byte	0xf5
 14720 05d6 05       		.uleb128 0x5
 14721 05d7 2C       		.uleb128 0x2c
 14722 05d8 1B       		.byte	0x1b
 14723 05d9 F4       		.byte	0xf4
 14724 05da 2C       		.uleb128 0x2c
 14725 05db 04       		.byte	0x4
 14726 05dc 0000803F 		.4byte	0x3f800000
 14727 05e0 1C       		.byte	0x1c
 14728 05e1 9F       		.byte	0x9f
 14729 05e2 00000000 		.4byte	0
 14730 05e6 00000000 		.4byte	0
 14731              	.LLST37:
 14732 05ea 00000000 		.4byte	.LVL100
 14733 05ee 0C000000 		.4byte	.LVL101
 14734 05f2 0100     		.2byte	0x1
 14735 05f4 50       		.byte	0x50
 14736 05f5 0C000000 		.4byte	.LVL101
 14737 05f9 0F000000 		.4byte	.LVL102-1
 14738 05fd 0100     		.2byte	0x1
 14739 05ff 53       		.byte	0x53
 14740 0600 0F000000 		.4byte	.LVL102-1
 14741 0604 54000000 		.4byte	.LVL110
 14742 0608 0100     		.2byte	0x1
 14743 060a 54       		.byte	0x54
 14744 060b 54000000 		.4byte	.LVL110
 14745 060f 5B000000 		.4byte	.LVL111-1
 14746 0613 0100     		.2byte	0x1
 14747 0615 52       		.byte	0x52
 14748 0616 5B000000 		.4byte	.LVL111-1
 14749 061a 6C000000 		.4byte	.LFE69
 14750 061e 0400     		.2byte	0x4
 14751 0620 F3       		.byte	0xf3
 14752 0621 01       		.uleb128 0x1
 14753 0622 50       		.byte	0x50
 14754 0623 9F       		.byte	0x9f
 14755 0624 00000000 		.4byte	0
 14756 0628 00000000 		.4byte	0
 14757              	.LLST38:
 14758 062c 00000000 		.4byte	.LVL112
 14759 0630 06000000 		.4byte	.LVL113
 14760 0634 0100     		.2byte	0x1
 14761 0636 50       		.byte	0x50
 14762 0637 06000000 		.4byte	.LVL113
 14763 063b 14000000 		.4byte	.LFE79
 14764 063f 0400     		.2byte	0x4
 14765 0641 F3       		.byte	0xf3
 14766 0642 01       		.uleb128 0x1
 14767 0643 50       		.byte	0x50
 14768 0644 9F       		.byte	0x9f
 14769 0645 00000000 		.4byte	0
 14770 0649 00000000 		.4byte	0
 14771              	.LLST39:
 14772 064d 00000000 		.4byte	.LVL112
 14773 0651 09000000 		.4byte	.LVL114-1
 14774 0655 0100     		.2byte	0x1
 14775 0657 51       		.byte	0x51
ARM GAS  C:\Users\chemi\AppData\Local\Temp\ccFrP3K3.s 			page 297


 14776 0658 09000000 		.4byte	.LVL114-1
 14777 065c 14000000 		.4byte	.LFE79
 14778 0660 0400     		.2byte	0x4
 14779 0662 F3       		.byte	0xf3
 14780 0663 01       		.uleb128 0x1
 14781 0664 51       		.byte	0x51
 14782 0665 9F       		.byte	0x9f
 14783 0666 00000000 		.4byte	0
 14784 066a 00000000 		.4byte	0
 14785              	.LLST40:
 14786 066e 00000000 		.4byte	.LVL112
 14787 0672 09000000 		.4byte	.LVL114-1
 14788 0676 0100     		.2byte	0x1
 14789 0678 52       		.byte	0x52
 14790 0679 09000000 		.4byte	.LVL114-1
 14791 067d 14000000 		.4byte	.LFE79
 14792 0681 0400     		.2byte	0x4
 14793 0683 F3       		.byte	0xf3
 14794 0684 01       		.uleb128 0x1
 14795 0685 52       		.byte	0x52
 14796 0686 9F       		.byte	0x9f
 14797 0687 00000000 		.4byte	0
 14798 068b 00000000 		.4byte	0
 14799              	.LLST41:
 14800 068f 00000000 		.4byte	.LVL115
 14801 0693 02000000 		.4byte	.LVL116
 14802 0697 0100     		.2byte	0x1
 14803 0699 50       		.byte	0x50
 14804 069a 02000000 		.4byte	.LVL116
 14805 069e 04000000 		.4byte	.LFE81
 14806 06a2 0400     		.2byte	0x4
 14807 06a4 F3       		.byte	0xf3
 14808 06a5 01       		.uleb128 0x1
 14809 06a6 50       		.byte	0x50
 14810 06a7 9F       		.byte	0x9f
 14811 06a8 00000000 		.4byte	0
 14812 06ac 00000000 		.4byte	0
 14813              	.LLST42:
 14814 06b0 00000000 		.4byte	.LVL117
 14815 06b4 0A000000 		.4byte	.LVL118
 14816 06b8 0100     		.2byte	0x1
 14817 06ba 50       		.byte	0x50
 14818 06bb 0A000000 		.4byte	.LVL118
 14819 06bf 74000000 		.4byte	.LVL130
 14820 06c3 0100     		.2byte	0x1
 14821 06c5 54       		.byte	0x54
 14822 06c6 74000000 		.4byte	.LVL130
 14823 06ca 7B000000 		.4byte	.LVL131-1
 14824 06ce 0100     		.2byte	0x1
 14825 06d0 50       		.byte	0x50
 14826 06d1 7B000000 		.4byte	.LVL131-1
 14827 06d5 94000000 		.4byte	.LFE82
 14828 06d9 0400     		.2byte	0x4
 14829 06db F3       		.byte	0xf3
 14830 06dc 01       		.uleb128 0x1
 14831 06dd 50       		.byte	0x50
 14832 06de 9F       		.byte	0x9f
ARM GAS  C:\Users\chemi\AppData\Local\Temp\ccFrP3K3.s 			page 298


 14833 06df 00000000 		.4byte	0
 14834 06e3 00000000 		.4byte	0
 14835              	.LLST43:
 14836 06e7 30000000 		.4byte	.LVL123
 14837 06eb 34000000 		.4byte	.LVL124
 14838 06ef 0200     		.2byte	0x2
 14839 06f1 30       		.byte	0x30
 14840 06f2 9F       		.byte	0x9f
 14841 06f3 34000000 		.4byte	.LVL124
 14842 06f7 64000000 		.4byte	.LVL128
 14843 06fb 0100     		.2byte	0x1
 14844 06fd 55       		.byte	0x55
 14845 06fe 64000000 		.4byte	.LVL128
 14846 0702 66000000 		.4byte	.LVL129
 14847 0706 0300     		.2byte	0x3
 14848 0708 75       		.byte	0x75
 14849 0709 01       		.sleb128 1
 14850 070a 9F       		.byte	0x9f
 14851 070b 00000000 		.4byte	0
 14852 070f 00000000 		.4byte	0
 14853              	.LLST44:
 14854 0713 00000000 		.4byte	.LVL132
 14855 0717 22000000 		.4byte	.LVL136
 14856 071b 0100     		.2byte	0x1
 14857 071d 50       		.byte	0x50
 14858 071e 22000000 		.4byte	.LVL136
 14859 0722 30000000 		.4byte	.LFE83
 14860 0726 0400     		.2byte	0x4
 14861 0728 F3       		.byte	0xf3
 14862 0729 01       		.uleb128 0x1
 14863 072a 50       		.byte	0x50
 14864 072b 9F       		.byte	0x9f
 14865 072c 00000000 		.4byte	0
 14866 0730 00000000 		.4byte	0
 14867              	.LLST45:
 14868 0734 00000000 		.4byte	.LVL132
 14869 0738 08000000 		.4byte	.LVL133
 14870 073c 0200     		.2byte	0x2
 14871 073e 30       		.byte	0x30
 14872 073f 9F       		.byte	0x9f
 14873 0740 08000000 		.4byte	.LVL133
 14874 0744 12000000 		.4byte	.LVL134
 14875 0748 0100     		.2byte	0x1
 14876 074a 52       		.byte	0x52
 14877 074b 14000000 		.4byte	.LVL135
 14878 074f 25000000 		.4byte	.LVL137-1
 14879 0753 0100     		.2byte	0x1
 14880 0755 52       		.byte	0x52
 14881 0756 00000000 		.4byte	0
 14882 075a 00000000 		.4byte	0
 14883              	.LLST46:
 14884 075e 00000000 		.4byte	.LVL132
 14885 0762 08000000 		.4byte	.LVL133
 14886 0766 0200     		.2byte	0x2
 14887 0768 30       		.byte	0x30
 14888 0769 9F       		.byte	0x9f
 14889 076a 00000000 		.4byte	0
ARM GAS  C:\Users\chemi\AppData\Local\Temp\ccFrP3K3.s 			page 299


 14890 076e 00000000 		.4byte	0
 14891              	.LLST47:
 14892 0772 00000000 		.4byte	.LVL138
 14893 0776 0D000000 		.4byte	.LVL139-1
 14894 077a 0100     		.2byte	0x1
 14895 077c 50       		.byte	0x50
 14896 077d 0D000000 		.4byte	.LVL139-1
 14897 0781 72010000 		.4byte	.LVL168
 14898 0785 0100     		.2byte	0x1
 14899 0787 54       		.byte	0x54
 14900 0788 72010000 		.4byte	.LVL168
 14901 078c AC010000 		.4byte	.LFE84
 14902 0790 0400     		.2byte	0x4
 14903 0792 F3       		.byte	0xf3
 14904 0793 01       		.uleb128 0x1
 14905 0794 50       		.byte	0x50
 14906 0795 9F       		.byte	0x9f
 14907 0796 00000000 		.4byte	0
 14908 079a 00000000 		.4byte	0
 14909              	.LLST48:
 14910 079e 24000000 		.4byte	.LVL141
 14911 07a2 56000000 		.4byte	.LVL142
 14912 07a6 0100     		.2byte	0x1
 14913 07a8 50       		.byte	0x50
 14914 07a9 62010000 		.4byte	.LVL165
 14915 07ad 64010000 		.4byte	.LVL166
 14916 07b1 0100     		.2byte	0x1
 14917 07b3 50       		.byte	0x50
 14918 07b4 00000000 		.4byte	0
 14919 07b8 00000000 		.4byte	0
 14920              	.LLST49:
 14921 07bc 00000000 		.4byte	.LVL169
 14922 07c0 0C000000 		.4byte	.LVL171
 14923 07c4 0100     		.2byte	0x1
 14924 07c6 50       		.byte	0x50
 14925 07c7 0C000000 		.4byte	.LVL171
 14926 07cb 54000000 		.4byte	.LVL180
 14927 07cf 0100     		.2byte	0x1
 14928 07d1 54       		.byte	0x54
 14929 07d2 54000000 		.4byte	.LVL180
 14930 07d6 68000000 		.4byte	.LFE85
 14931 07da 0400     		.2byte	0x4
 14932 07dc F3       		.byte	0xf3
 14933 07dd 01       		.uleb128 0x1
 14934 07de 50       		.byte	0x50
 14935 07df 9F       		.byte	0x9f
 14936 07e0 00000000 		.4byte	0
 14937 07e4 00000000 		.4byte	0
 14938              	.LLST50:
 14939 07e8 00000000 		.4byte	.LVL169
 14940 07ec 0A000000 		.4byte	.LVL170
 14941 07f0 0100     		.2byte	0x1
 14942 07f2 51       		.byte	0x51
 14943 07f3 0A000000 		.4byte	.LVL170
 14944 07f7 68000000 		.4byte	.LFE85
 14945 07fb 0400     		.2byte	0x4
 14946 07fd F3       		.byte	0xf3
ARM GAS  C:\Users\chemi\AppData\Local\Temp\ccFrP3K3.s 			page 300


 14947 07fe 01       		.uleb128 0x1
 14948 07ff 51       		.byte	0x51
 14949 0800 9F       		.byte	0x9f
 14950 0801 00000000 		.4byte	0
 14951 0805 00000000 		.4byte	0
 14952              	.LLST51:
 14953 0809 00000000 		.4byte	.LVL169
 14954 080d 0F000000 		.4byte	.LVL172-1
 14955 0811 0100     		.2byte	0x1
 14956 0813 52       		.byte	0x52
 14957 0814 0F000000 		.4byte	.LVL172-1
 14958 0818 68000000 		.4byte	.LFE85
 14959 081c 0400     		.2byte	0x4
 14960 081e F3       		.byte	0xf3
 14961 081f 01       		.uleb128 0x1
 14962 0820 52       		.byte	0x52
 14963 0821 9F       		.byte	0x9f
 14964 0822 00000000 		.4byte	0
 14965 0826 00000000 		.4byte	0
 14966              	.LLST52:
 14967 082a 00000000 		.4byte	.LVL181
 14968 082e 0E000000 		.4byte	.LVL183
 14969 0832 0100     		.2byte	0x1
 14970 0834 50       		.byte	0x50
 14971 0835 0E000000 		.4byte	.LVL183
 14972 0839 B4000000 		.4byte	.LVL213
 14973 083d 0100     		.2byte	0x1
 14974 083f 54       		.byte	0x54
 14975 0840 B4000000 		.4byte	.LVL213
 14976 0844 D4000000 		.4byte	.LFE86
 14977 0848 0400     		.2byte	0x4
 14978 084a F3       		.byte	0xf3
 14979 084b 01       		.uleb128 0x1
 14980 084c 50       		.byte	0x50
 14981 084d 9F       		.byte	0x9f
 14982 084e 00000000 		.4byte	0
 14983 0852 00000000 		.4byte	0
 14984              	.LLST53:
 14985 0856 00000000 		.4byte	.LVL181
 14986 085a 0C000000 		.4byte	.LVL182
 14987 085e 0100     		.2byte	0x1
 14988 0860 51       		.byte	0x51
 14989 0861 0C000000 		.4byte	.LVL182
 14990 0865 D4000000 		.4byte	.LFE86
 14991 0869 0400     		.2byte	0x4
 14992 086b F3       		.byte	0xf3
 14993 086c 01       		.uleb128 0x1
 14994 086d 51       		.byte	0x51
 14995 086e 9F       		.byte	0x9f
 14996 086f 00000000 		.4byte	0
 14997 0873 00000000 		.4byte	0
 14998              	.LLST54:
 14999 0877 00000000 		.4byte	.LVL181
 15000 087b 11000000 		.4byte	.LVL184-1
 15001 087f 0100     		.2byte	0x1
 15002 0881 52       		.byte	0x52
 15003 0882 11000000 		.4byte	.LVL184-1
ARM GAS  C:\Users\chemi\AppData\Local\Temp\ccFrP3K3.s 			page 301


 15004 0886 D4000000 		.4byte	.LFE86
 15005 088a 0400     		.2byte	0x4
 15006 088c F3       		.byte	0xf3
 15007 088d 01       		.uleb128 0x1
 15008 088e 52       		.byte	0x52
 15009 088f 9F       		.byte	0x9f
 15010 0890 00000000 		.4byte	0
 15011 0894 00000000 		.4byte	0
 15012              	.LLST55:
 15013 0898 2A000000 		.4byte	.LVL188
 15014 089c 2E000000 		.4byte	.LVL189
 15015 08a0 0100     		.2byte	0x1
 15016 08a2 50       		.byte	0x50
 15017 08a3 2E000000 		.4byte	.LVL189
 15018 08a7 AE000000 		.4byte	.LVL212
 15019 08ab 0100     		.2byte	0x1
 15020 08ad 58       		.byte	0x58
 15021 08ae 00000000 		.4byte	0
 15022 08b2 00000000 		.4byte	0
 15023              	.LLST56:
 15024 08b6 4C000000 		.4byte	.LVL193
 15025 08ba 50000000 		.4byte	.LVL194
 15026 08be 0200     		.2byte	0x2
 15027 08c0 40       		.byte	0x40
 15028 08c1 9F       		.byte	0x9f
 15029 08c2 50000000 		.4byte	.LVL194
 15030 08c6 76000000 		.4byte	.LVL202
 15031 08ca 0100     		.2byte	0x1
 15032 08cc 55       		.byte	0x55
 15033 08cd 76000000 		.4byte	.LVL202
 15034 08d1 78000000 		.4byte	.LVL203
 15035 08d5 0300     		.2byte	0x3
 15036 08d7 75       		.byte	0x75
 15037 08d8 7F       		.sleb128 -1
 15038 08d9 9F       		.byte	0x9f
 15039 08da 78000000 		.4byte	.LVL203
 15040 08de 84000000 		.4byte	.LVL206
 15041 08e2 0100     		.2byte	0x1
 15042 08e4 55       		.byte	0x55
 15043 08e5 00000000 		.4byte	0
 15044 08e9 00000000 		.4byte	0
 15045              	.LLST57:
 15046 08ed 4C000000 		.4byte	.LVL193
 15047 08f1 50000000 		.4byte	.LVL194
 15048 08f5 0200     		.2byte	0x2
 15049 08f7 30       		.byte	0x30
 15050 08f8 9F       		.byte	0x9f
 15051 08f9 50000000 		.4byte	.LVL194
 15052 08fd 7A000000 		.4byte	.LVL204
 15053 0901 0100     		.2byte	0x1
 15054 0903 56       		.byte	0x56
 15055 0904 7A000000 		.4byte	.LVL204
 15056 0908 86000000 		.4byte	.LVL207
 15057 090c 0500     		.2byte	0x5
 15058 090e 76       		.byte	0x76
 15059 090f 00       		.sleb128 0
 15060 0910 34       		.byte	0x34
ARM GAS  C:\Users\chemi\AppData\Local\Temp\ccFrP3K3.s 			page 302


 15061 0911 25       		.byte	0x25
 15062 0912 9F       		.byte	0x9f
 15063 0913 86000000 		.4byte	.LVL207
 15064 0917 89000000 		.4byte	.LVL208-1
 15065 091b 0100     		.2byte	0x1
 15066 091d 50       		.byte	0x50
 15067 091e 89000000 		.4byte	.LVL208-1
 15068 0922 A6000000 		.4byte	.LVL211
 15069 0926 0500     		.2byte	0x5
 15070 0928 76       		.byte	0x76
 15071 0929 00       		.sleb128 0
 15072 092a 34       		.byte	0x34
 15073 092b 25       		.byte	0x25
 15074 092c 9F       		.byte	0x9f
 15075 092d 00000000 		.4byte	0
 15076 0931 00000000 		.4byte	0
 15077              	.LLST58:
 15078 0935 58000000 		.4byte	.LVL196
 15079 0939 60000000 		.4byte	.LVL198
 15080 093d 0100     		.2byte	0x1
 15081 093f 50       		.byte	0x50
 15082 0940 60000000 		.4byte	.LVL198
 15083 0944 61000000 		.4byte	.LVL199-1
 15084 0948 0100     		.2byte	0x1
 15085 094a 53       		.byte	0x53
 15086 094b 00000000 		.4byte	0
 15087 094f 00000000 		.4byte	0
 15088              	.LLST59:
 15089 0953 00000000 		.4byte	.LVL214
 15090 0957 08000000 		.4byte	.LVL215
 15091 095b 0100     		.2byte	0x1
 15092 095d 50       		.byte	0x50
 15093 095e 08000000 		.4byte	.LVL215
 15094 0962 1C000000 		.4byte	.LVL218
 15095 0966 0100     		.2byte	0x1
 15096 0968 56       		.byte	0x56
 15097 0969 1C000000 		.4byte	.LVL218
 15098 096d 20000000 		.4byte	.LFE87
 15099 0971 0400     		.2byte	0x4
 15100 0973 F3       		.byte	0xf3
 15101 0974 01       		.uleb128 0x1
 15102 0975 50       		.byte	0x50
 15103 0976 9F       		.byte	0x9f
 15104 0977 00000000 		.4byte	0
 15105 097b 00000000 		.4byte	0
 15106              	.LLST60:
 15107 097f 00000000 		.4byte	.LVL214
 15108 0983 08000000 		.4byte	.LVL215
 15109 0987 0100     		.2byte	0x1
 15110 0989 51       		.byte	0x51
 15111 098a 08000000 		.4byte	.LVL215
 15112 098e 20000000 		.4byte	.LFE87
 15113 0992 0400     		.2byte	0x4
 15114 0994 F3       		.byte	0xf3
 15115 0995 01       		.uleb128 0x1
 15116 0996 51       		.byte	0x51
 15117 0997 9F       		.byte	0x9f
ARM GAS  C:\Users\chemi\AppData\Local\Temp\ccFrP3K3.s 			page 303


 15118 0998 00000000 		.4byte	0
 15119 099c 00000000 		.4byte	0
 15120              	.LLST61:
 15121 09a0 00000000 		.4byte	.LVL214
 15122 09a4 08000000 		.4byte	.LVL215
 15123 09a8 0100     		.2byte	0x1
 15124 09aa 52       		.byte	0x52
 15125 09ab 08000000 		.4byte	.LVL215
 15126 09af 20000000 		.4byte	.LFE87
 15127 09b3 0400     		.2byte	0x4
 15128 09b5 F3       		.byte	0xf3
 15129 09b6 01       		.uleb128 0x1
 15130 09b7 52       		.byte	0x52
 15131 09b8 9F       		.byte	0x9f
 15132 09b9 00000000 		.4byte	0
 15133 09bd 00000000 		.4byte	0
 15134              	.LLST62:
 15135 09c1 00000000 		.4byte	.LVL214
 15136 09c5 08000000 		.4byte	.LVL215
 15137 09c9 0200     		.2byte	0x2
 15138 09cb 30       		.byte	0x30
 15139 09cc 9F       		.byte	0x9f
 15140 09cd 08000000 		.4byte	.LVL215
 15141 09d1 10000000 		.4byte	.LVL216
 15142 09d5 0100     		.2byte	0x1
 15143 09d7 54       		.byte	0x54
 15144 09d8 00000000 		.4byte	0
 15145 09dc 00000000 		.4byte	0
 15146              	.LLST63:
 15147 09e0 00000000 		.4byte	.LVL219
 15148 09e4 0A000000 		.4byte	.LVL220
 15149 09e8 0100     		.2byte	0x1
 15150 09ea 50       		.byte	0x50
 15151 09eb 0A000000 		.4byte	.LVL220
 15152 09ef 46000000 		.4byte	.LVL226
 15153 09f3 0100     		.2byte	0x1
 15154 09f5 56       		.byte	0x56
 15155 09f6 46000000 		.4byte	.LVL226
 15156 09fa 54000000 		.4byte	.LFE88
 15157 09fe 0400     		.2byte	0x4
 15158 0a00 F3       		.byte	0xf3
 15159 0a01 01       		.uleb128 0x1
 15160 0a02 50       		.byte	0x50
 15161 0a03 9F       		.byte	0x9f
 15162 0a04 00000000 		.4byte	0
 15163 0a08 00000000 		.4byte	0
 15164              	.LLST64:
 15165 0a0c 00000000 		.4byte	.LVL219
 15166 0a10 0A000000 		.4byte	.LVL220
 15167 0a14 0100     		.2byte	0x1
 15168 0a16 51       		.byte	0x51
 15169 0a17 0A000000 		.4byte	.LVL220
 15170 0a1b 54000000 		.4byte	.LFE88
 15171 0a1f 0400     		.2byte	0x4
 15172 0a21 F3       		.byte	0xf3
 15173 0a22 01       		.uleb128 0x1
 15174 0a23 51       		.byte	0x51
ARM GAS  C:\Users\chemi\AppData\Local\Temp\ccFrP3K3.s 			page 304


 15175 0a24 9F       		.byte	0x9f
 15176 0a25 00000000 		.4byte	0
 15177 0a29 00000000 		.4byte	0
 15178              	.LLST65:
 15179 0a2d 00000000 		.4byte	.LVL219
 15180 0a31 0A000000 		.4byte	.LVL220
 15181 0a35 0100     		.2byte	0x1
 15182 0a37 52       		.byte	0x52
 15183 0a38 0A000000 		.4byte	.LVL220
 15184 0a3c 54000000 		.4byte	.LFE88
 15185 0a40 0400     		.2byte	0x4
 15186 0a42 F3       		.byte	0xf3
 15187 0a43 01       		.uleb128 0x1
 15188 0a44 52       		.byte	0x52
 15189 0a45 9F       		.byte	0x9f
 15190 0a46 00000000 		.4byte	0
 15191 0a4a 00000000 		.4byte	0
 15192              	.LLST66:
 15193 0a4e 00000000 		.4byte	.LVL219
 15194 0a52 0A000000 		.4byte	.LVL220
 15195 0a56 0200     		.2byte	0x2
 15196 0a58 30       		.byte	0x30
 15197 0a59 9F       		.byte	0x9f
 15198 0a5a 10000000 		.4byte	.LVL221
 15199 0a5e 1F000000 		.4byte	.LVL222-1
 15200 0a62 0100     		.2byte	0x1
 15201 0a64 52       		.byte	0x52
 15202 0a65 1F000000 		.4byte	.LVL222-1
 15203 0a69 2C000000 		.4byte	.LVL223
 15204 0a6d 0100     		.2byte	0x1
 15205 0a6f 55       		.byte	0x55
 15206 0a70 2C000000 		.4byte	.LVL223
 15207 0a74 2E000000 		.4byte	.LVL224
 15208 0a78 0300     		.2byte	0x3
 15209 0a7a 75       		.byte	0x75
 15210 0a7b 01       		.sleb128 1
 15211 0a7c 9F       		.byte	0x9f
 15212 0a7d 00000000 		.4byte	0
 15213 0a81 00000000 		.4byte	0
 15214              	.LLST67:
 15215 0a85 00000000 		.4byte	.LVL227
 15216 0a89 05000000 		.4byte	.LVL228-1
 15217 0a8d 0100     		.2byte	0x1
 15218 0a8f 50       		.byte	0x50
 15219 0a90 05000000 		.4byte	.LVL228-1
 15220 0a94 0A000000 		.4byte	.LFE89
 15221 0a98 0400     		.2byte	0x4
 15222 0a9a F3       		.byte	0xf3
 15223 0a9b 01       		.uleb128 0x1
 15224 0a9c 50       		.byte	0x50
 15225 0a9d 9F       		.byte	0x9f
 15226 0a9e 00000000 		.4byte	0
 15227 0aa2 00000000 		.4byte	0
 15228              	.LLST68:
 15229 0aa6 00000000 		.4byte	.LVL227
 15230 0aaa 05000000 		.4byte	.LVL228-1
 15231 0aae 0100     		.2byte	0x1
ARM GAS  C:\Users\chemi\AppData\Local\Temp\ccFrP3K3.s 			page 305


 15232 0ab0 51       		.byte	0x51
 15233 0ab1 05000000 		.4byte	.LVL228-1
 15234 0ab5 0A000000 		.4byte	.LFE89
 15235 0ab9 0400     		.2byte	0x4
 15236 0abb F3       		.byte	0xf3
 15237 0abc 01       		.uleb128 0x1
 15238 0abd 51       		.byte	0x51
 15239 0abe 9F       		.byte	0x9f
 15240 0abf 00000000 		.4byte	0
 15241 0ac3 00000000 		.4byte	0
 15242              	.LLST69:
 15243 0ac7 00000000 		.4byte	.LVL227
 15244 0acb 05000000 		.4byte	.LVL228-1
 15245 0acf 0100     		.2byte	0x1
 15246 0ad1 52       		.byte	0x52
 15247 0ad2 05000000 		.4byte	.LVL228-1
 15248 0ad6 0A000000 		.4byte	.LFE89
 15249 0ada 0400     		.2byte	0x4
 15250 0adc F3       		.byte	0xf3
 15251 0add 01       		.uleb128 0x1
 15252 0ade 52       		.byte	0x52
 15253 0adf 9F       		.byte	0x9f
 15254 0ae0 00000000 		.4byte	0
 15255 0ae4 00000000 		.4byte	0
 15256              	.LLST70:
 15257 0ae8 00000000 		.4byte	.LVL229
 15258 0aec 0C000000 		.4byte	.LVL231
 15259 0af0 0100     		.2byte	0x1
 15260 0af2 50       		.byte	0x50
 15261 0af3 0C000000 		.4byte	.LVL231
 15262 0af7 C4000000 		.4byte	.LVL251
 15263 0afb 0100     		.2byte	0x1
 15264 0afd 54       		.byte	0x54
 15265 0afe C4000000 		.4byte	.LVL251
 15266 0b02 F8000000 		.4byte	.LFE90
 15267 0b06 0400     		.2byte	0x4
 15268 0b08 F3       		.byte	0xf3
 15269 0b09 01       		.uleb128 0x1
 15270 0b0a 50       		.byte	0x50
 15271 0b0b 9F       		.byte	0x9f
 15272 0b0c 00000000 		.4byte	0
 15273 0b10 00000000 		.4byte	0
 15274              	.LLST71:
 15275 0b14 00000000 		.4byte	.LVL229
 15276 0b18 0A000000 		.4byte	.LVL230
 15277 0b1c 0100     		.2byte	0x1
 15278 0b1e 51       		.byte	0x51
 15279 0b1f 0A000000 		.4byte	.LVL230
 15280 0b23 F8000000 		.4byte	.LFE90
 15281 0b27 0400     		.2byte	0x4
 15282 0b29 F3       		.byte	0xf3
 15283 0b2a 01       		.uleb128 0x1
 15284 0b2b 51       		.byte	0x51
 15285 0b2c 9F       		.byte	0x9f
 15286 0b2d 00000000 		.4byte	0
 15287 0b31 00000000 		.4byte	0
 15288              	.LLST72:
ARM GAS  C:\Users\chemi\AppData\Local\Temp\ccFrP3K3.s 			page 306


 15289 0b35 00000000 		.4byte	.LVL229
 15290 0b39 0F000000 		.4byte	.LVL232-1
 15291 0b3d 0100     		.2byte	0x1
 15292 0b3f 52       		.byte	0x52
 15293 0b40 0F000000 		.4byte	.LVL232-1
 15294 0b44 F8000000 		.4byte	.LFE90
 15295 0b48 0400     		.2byte	0x4
 15296 0b4a F3       		.byte	0xf3
 15297 0b4b 01       		.uleb128 0x1
 15298 0b4c 52       		.byte	0x52
 15299 0b4d 9F       		.byte	0x9f
 15300 0b4e 00000000 		.4byte	0
 15301 0b52 00000000 		.4byte	0
 15302              	.LLST73:
 15303 0b56 00000000 		.4byte	.LVL252
 15304 0b5a 0E000000 		.4byte	.LVL255
 15305 0b5e 0100     		.2byte	0x1
 15306 0b60 50       		.byte	0x50
 15307 0b61 0E000000 		.4byte	.LVL255
 15308 0b65 11000000 		.4byte	.LVL256-1
 15309 0b69 0100     		.2byte	0x1
 15310 0b6b 52       		.byte	0x52
 15311 0b6c 11000000 		.4byte	.LVL256-1
 15312 0b70 14000000 		.4byte	.LVL257
 15313 0b74 0100     		.2byte	0x1
 15314 0b76 54       		.byte	0x54
 15315 0b77 14000000 		.4byte	.LVL257
 15316 0b7b 1A000000 		.4byte	.LVL259
 15317 0b7f 0100     		.2byte	0x1
 15318 0b81 50       		.byte	0x50
 15319 0b82 1A000000 		.4byte	.LVL259
 15320 0b86 7C000000 		.4byte	.LVL271
 15321 0b8a 0100     		.2byte	0x1
 15322 0b8c 54       		.byte	0x54
 15323 0b8d 7C000000 		.4byte	.LVL271
 15324 0b91 8C000000 		.4byte	.LFE91
 15325 0b95 0400     		.2byte	0x4
 15326 0b97 F3       		.byte	0xf3
 15327 0b98 01       		.uleb128 0x1
 15328 0b99 50       		.byte	0x50
 15329 0b9a 9F       		.byte	0x9f
 15330 0b9b 00000000 		.4byte	0
 15331 0b9f 00000000 		.4byte	0
 15332              	.LLST74:
 15333 0ba3 00000000 		.4byte	.LVL252
 15334 0ba7 0C000000 		.4byte	.LVL254
 15335 0bab 0100     		.2byte	0x1
 15336 0bad 51       		.byte	0x51
 15337 0bae 0C000000 		.4byte	.LVL254
 15338 0bb2 14000000 		.4byte	.LVL257
 15339 0bb6 0400     		.2byte	0x4
 15340 0bb8 F3       		.byte	0xf3
 15341 0bb9 01       		.uleb128 0x1
 15342 0bba 51       		.byte	0x51
 15343 0bbb 9F       		.byte	0x9f
 15344 0bbc 14000000 		.4byte	.LVL257
 15345 0bc0 18000000 		.4byte	.LVL258
ARM GAS  C:\Users\chemi\AppData\Local\Temp\ccFrP3K3.s 			page 307


 15346 0bc4 0100     		.2byte	0x1
 15347 0bc6 51       		.byte	0x51
 15348 0bc7 18000000 		.4byte	.LVL258
 15349 0bcb 8C000000 		.4byte	.LFE91
 15350 0bcf 0400     		.2byte	0x4
 15351 0bd1 F3       		.byte	0xf3
 15352 0bd2 01       		.uleb128 0x1
 15353 0bd3 51       		.byte	0x51
 15354 0bd4 9F       		.byte	0x9f
 15355 0bd5 00000000 		.4byte	0
 15356 0bd9 00000000 		.4byte	0
 15357              	.LLST75:
 15358 0bdd 00000000 		.4byte	.LVL252
 15359 0be1 0A000000 		.4byte	.LVL253
 15360 0be5 0100     		.2byte	0x1
 15361 0be7 52       		.byte	0x52
 15362 0be8 0A000000 		.4byte	.LVL253
 15363 0bec 14000000 		.4byte	.LVL257
 15364 0bf0 0400     		.2byte	0x4
 15365 0bf2 F3       		.byte	0xf3
 15366 0bf3 01       		.uleb128 0x1
 15367 0bf4 52       		.byte	0x52
 15368 0bf5 9F       		.byte	0x9f
 15369 0bf6 14000000 		.4byte	.LVL257
 15370 0bfa 1D000000 		.4byte	.LVL260-1
 15371 0bfe 0100     		.2byte	0x1
 15372 0c00 52       		.byte	0x52
 15373 0c01 1D000000 		.4byte	.LVL260-1
 15374 0c05 8C000000 		.4byte	.LFE91
 15375 0c09 0400     		.2byte	0x4
 15376 0c0b F3       		.byte	0xf3
 15377 0c0c 01       		.uleb128 0x1
 15378 0c0d 52       		.byte	0x52
 15379 0c0e 9F       		.byte	0x9f
 15380 0c0f 00000000 		.4byte	0
 15381 0c13 00000000 		.4byte	0
 15382              	.LLST76:
 15383 0c17 42000000 		.4byte	.LVL263
 15384 0c1b 54000000 		.4byte	.LVL266
 15385 0c1f 0100     		.2byte	0x1
 15386 0c21 59       		.byte	0x59
 15387 0c22 54000000 		.4byte	.LVL266
 15388 0c26 56000000 		.4byte	.LVL267
 15389 0c2a 0300     		.2byte	0x3
 15390 0c2c 75       		.byte	0x75
 15391 0c2d 01       		.sleb128 1
 15392 0c2e 9F       		.byte	0x9f
 15393 0c2f 56000000 		.4byte	.LVL267
 15394 0c33 7C000000 		.4byte	.LVL271
 15395 0c37 0300     		.2byte	0x3
 15396 0c39 79       		.byte	0x79
 15397 0c3a 01       		.sleb128 1
 15398 0c3b 9F       		.byte	0x9f
 15399 0c3c 00000000 		.4byte	0
 15400 0c40 00000000 		.4byte	0
 15401              	.LLST77:
 15402 0c44 00000000 		.4byte	.LVL272
ARM GAS  C:\Users\chemi\AppData\Local\Temp\ccFrP3K3.s 			page 308


 15403 0c48 12000000 		.4byte	.LVL274
 15404 0c4c 0100     		.2byte	0x1
 15405 0c4e 50       		.byte	0x50
 15406 0c4f 12000000 		.4byte	.LVL274
 15407 0c53 16000000 		.4byte	.LVL276
 15408 0c57 0100     		.2byte	0x1
 15409 0c59 54       		.byte	0x54
 15410 0c5a 16000000 		.4byte	.LVL276
 15411 0c5e 24000000 		.4byte	.LVL277
 15412 0c62 0100     		.2byte	0x1
 15413 0c64 50       		.byte	0x50
 15414 0c65 24000000 		.4byte	.LVL277
 15415 0c69 AC000000 		.4byte	.LVL291
 15416 0c6d 0100     		.2byte	0x1
 15417 0c6f 54       		.byte	0x54
 15418 0c70 AC000000 		.4byte	.LVL291
 15419 0c74 C4000000 		.4byte	.LFE92
 15420 0c78 0400     		.2byte	0x4
 15421 0c7a F3       		.byte	0xf3
 15422 0c7b 01       		.uleb128 0x1
 15423 0c7c 50       		.byte	0x50
 15424 0c7d 9F       		.byte	0x9f
 15425 0c7e 00000000 		.4byte	0
 15426 0c82 00000000 		.4byte	0
 15427              	.LLST78:
 15428 0c86 00000000 		.4byte	.LVL272
 15429 0c8a 10000000 		.4byte	.LVL273
 15430 0c8e 0100     		.2byte	0x1
 15431 0c90 51       		.byte	0x51
 15432 0c91 10000000 		.4byte	.LVL273
 15433 0c95 16000000 		.4byte	.LVL276
 15434 0c99 0400     		.2byte	0x4
 15435 0c9b F3       		.byte	0xf3
 15436 0c9c 01       		.uleb128 0x1
 15437 0c9d 51       		.byte	0x51
 15438 0c9e 9F       		.byte	0x9f
 15439 0c9f 16000000 		.4byte	.LVL276
 15440 0ca3 24000000 		.4byte	.LVL277
 15441 0ca7 0100     		.2byte	0x1
 15442 0ca9 51       		.byte	0x51
 15443 0caa 24000000 		.4byte	.LVL277
 15444 0cae C4000000 		.4byte	.LFE92
 15445 0cb2 0400     		.2byte	0x4
 15446 0cb4 F3       		.byte	0xf3
 15447 0cb5 01       		.uleb128 0x1
 15448 0cb6 51       		.byte	0x51
 15449 0cb7 9F       		.byte	0x9f
 15450 0cb8 00000000 		.4byte	0
 15451 0cbc 00000000 		.4byte	0
 15452              	.LLST79:
 15453 0cc0 00000000 		.4byte	.LVL272
 15454 0cc4 13000000 		.4byte	.LVL275-1
 15455 0cc8 0100     		.2byte	0x1
 15456 0cca 52       		.byte	0x52
 15457 0ccb 13000000 		.4byte	.LVL275-1
 15458 0ccf 16000000 		.4byte	.LVL276
 15459 0cd3 0100     		.2byte	0x1
ARM GAS  C:\Users\chemi\AppData\Local\Temp\ccFrP3K3.s 			page 309


 15460 0cd5 56       		.byte	0x56
 15461 0cd6 16000000 		.4byte	.LVL276
 15462 0cda 24000000 		.4byte	.LVL277
 15463 0cde 0100     		.2byte	0x1
 15464 0ce0 52       		.byte	0x52
 15465 0ce1 24000000 		.4byte	.LVL277
 15466 0ce5 AC000000 		.4byte	.LVL291
 15467 0ce9 0100     		.2byte	0x1
 15468 0ceb 56       		.byte	0x56
 15469 0cec AC000000 		.4byte	.LVL291
 15470 0cf0 C4000000 		.4byte	.LFE92
 15471 0cf4 0400     		.2byte	0x4
 15472 0cf6 F3       		.byte	0xf3
 15473 0cf7 01       		.uleb128 0x1
 15474 0cf8 52       		.byte	0x52
 15475 0cf9 9F       		.byte	0x9f
 15476 0cfa 00000000 		.4byte	0
 15477 0cfe 00000000 		.4byte	0
 15478              	.LLST80:
 15479 0d02 30000000 		.4byte	.LVL278
 15480 0d06 84000000 		.4byte	.LVL285
 15481 0d0a 0100     		.2byte	0x1
 15482 0d0c 57       		.byte	0x57
 15483 0d0d 84000000 		.4byte	.LVL285
 15484 0d11 86000000 		.4byte	.LVL286
 15485 0d15 0300     		.2byte	0x3
 15486 0d17 75       		.byte	0x75
 15487 0d18 01       		.sleb128 1
 15488 0d19 9F       		.byte	0x9f
 15489 0d1a 86000000 		.4byte	.LVL286
 15490 0d1e 98000000 		.4byte	.LVL288
 15491 0d22 0300     		.2byte	0x3
 15492 0d24 77       		.byte	0x77
 15493 0d25 01       		.sleb128 1
 15494 0d26 9F       		.byte	0x9f
 15495 0d27 00000000 		.4byte	0
 15496 0d2b 00000000 		.4byte	0
 15497              	.LLST81:
 15498 0d2f 00000000 		.4byte	.LVL292
 15499 0d33 0C000000 		.4byte	.LVL294
 15500 0d37 0100     		.2byte	0x1
 15501 0d39 50       		.byte	0x50
 15502 0d3a 0C000000 		.4byte	.LVL294
 15503 0d3e 7C000000 		.4byte	.LVL311
 15504 0d42 0100     		.2byte	0x1
 15505 0d44 54       		.byte	0x54
 15506 0d45 7C000000 		.4byte	.LVL311
 15507 0d49 94000000 		.4byte	.LFE93
 15508 0d4d 0400     		.2byte	0x4
 15509 0d4f F3       		.byte	0xf3
 15510 0d50 01       		.uleb128 0x1
 15511 0d51 50       		.byte	0x50
 15512 0d52 9F       		.byte	0x9f
 15513 0d53 00000000 		.4byte	0
 15514 0d57 00000000 		.4byte	0
 15515              	.LLST82:
 15516 0d5b 00000000 		.4byte	.LVL292
ARM GAS  C:\Users\chemi\AppData\Local\Temp\ccFrP3K3.s 			page 310


 15517 0d5f 0A000000 		.4byte	.LVL293
 15518 0d63 0100     		.2byte	0x1
 15519 0d65 51       		.byte	0x51
 15520 0d66 0A000000 		.4byte	.LVL293
 15521 0d6a 94000000 		.4byte	.LFE93
 15522 0d6e 0400     		.2byte	0x4
 15523 0d70 F3       		.byte	0xf3
 15524 0d71 01       		.uleb128 0x1
 15525 0d72 51       		.byte	0x51
 15526 0d73 9F       		.byte	0x9f
 15527 0d74 00000000 		.4byte	0
 15528 0d78 00000000 		.4byte	0
 15529              	.LLST83:
 15530 0d7c 00000000 		.4byte	.LVL292
 15531 0d80 0F000000 		.4byte	.LVL295-1
 15532 0d84 0100     		.2byte	0x1
 15533 0d86 52       		.byte	0x52
 15534 0d87 0F000000 		.4byte	.LVL295-1
 15535 0d8b 2E000000 		.4byte	.LVL301
 15536 0d8f 0100     		.2byte	0x1
 15537 0d91 55       		.byte	0x55
 15538 0d92 2E000000 		.4byte	.LVL301
 15539 0d96 94000000 		.4byte	.LFE93
 15540 0d9a 0400     		.2byte	0x4
 15541 0d9c F3       		.byte	0xf3
 15542 0d9d 01       		.uleb128 0x1
 15543 0d9e 52       		.byte	0x52
 15544 0d9f 9F       		.byte	0x9f
 15545 0da0 00000000 		.4byte	0
 15546 0da4 00000000 		.4byte	0
 15547              	.LLST84:
 15548 0da8 26000000 		.4byte	.LVL299
 15549 0dac 78000000 		.4byte	.LVL310
 15550 0db0 0100     		.2byte	0x1
 15551 0db2 57       		.byte	0x57
 15552 0db3 00000000 		.4byte	0
 15553 0db7 00000000 		.4byte	0
 15554              	.LLST85:
 15555 0dbb 00000000 		.4byte	.LVL312
 15556 0dbf 0C000000 		.4byte	.LVL314
 15557 0dc3 0100     		.2byte	0x1
 15558 0dc5 50       		.byte	0x50
 15559 0dc6 0C000000 		.4byte	.LVL314
 15560 0dca 48000000 		.4byte	.LVL319
 15561 0dce 0100     		.2byte	0x1
 15562 0dd0 54       		.byte	0x54
 15563 0dd1 48000000 		.4byte	.LVL319
 15564 0dd5 64000000 		.4byte	.LFE94
 15565 0dd9 0400     		.2byte	0x4
 15566 0ddb F3       		.byte	0xf3
 15567 0ddc 01       		.uleb128 0x1
 15568 0ddd 50       		.byte	0x50
 15569 0dde 9F       		.byte	0x9f
 15570 0ddf 00000000 		.4byte	0
 15571 0de3 00000000 		.4byte	0
 15572              	.LLST86:
 15573 0de7 00000000 		.4byte	.LVL312
ARM GAS  C:\Users\chemi\AppData\Local\Temp\ccFrP3K3.s 			page 311


 15574 0deb 0A000000 		.4byte	.LVL313
 15575 0def 0100     		.2byte	0x1
 15576 0df1 51       		.byte	0x51
 15577 0df2 0A000000 		.4byte	.LVL313
 15578 0df6 64000000 		.4byte	.LFE94
 15579 0dfa 0400     		.2byte	0x4
 15580 0dfc F3       		.byte	0xf3
 15581 0dfd 01       		.uleb128 0x1
 15582 0dfe 51       		.byte	0x51
 15583 0dff 9F       		.byte	0x9f
 15584 0e00 00000000 		.4byte	0
 15585 0e04 00000000 		.4byte	0
 15586              	.LLST87:
 15587 0e08 00000000 		.4byte	.LVL312
 15588 0e0c 0F000000 		.4byte	.LVL315-1
 15589 0e10 0100     		.2byte	0x1
 15590 0e12 52       		.byte	0x52
 15591 0e13 0F000000 		.4byte	.LVL315-1
 15592 0e17 64000000 		.4byte	.LFE94
 15593 0e1b 0400     		.2byte	0x4
 15594 0e1d F3       		.byte	0xf3
 15595 0e1e 01       		.uleb128 0x1
 15596 0e1f 52       		.byte	0x52
 15597 0e20 9F       		.byte	0x9f
 15598 0e21 00000000 		.4byte	0
 15599 0e25 00000000 		.4byte	0
 15600              	.LLST88:
 15601 0e29 00000000 		.4byte	.LVL320
 15602 0e2d 08000000 		.4byte	.LVL322
 15603 0e31 0100     		.2byte	0x1
 15604 0e33 50       		.byte	0x50
 15605 0e34 08000000 		.4byte	.LVL322
 15606 0e38 18000000 		.4byte	.LFE95
 15607 0e3c 0400     		.2byte	0x4
 15608 0e3e F3       		.byte	0xf3
 15609 0e3f 01       		.uleb128 0x1
 15610 0e40 50       		.byte	0x50
 15611 0e41 9F       		.byte	0x9f
 15612 0e42 00000000 		.4byte	0
 15613 0e46 00000000 		.4byte	0
 15614              	.LLST89:
 15615 0e4a 00000000 		.4byte	.LVL320
 15616 0e4e 04000000 		.4byte	.LVL321
 15617 0e52 0100     		.2byte	0x1
 15618 0e54 51       		.byte	0x51
 15619 0e55 04000000 		.4byte	.LVL321
 15620 0e59 18000000 		.4byte	.LFE95
 15621 0e5d 0400     		.2byte	0x4
 15622 0e5f F3       		.byte	0xf3
 15623 0e60 01       		.uleb128 0x1
 15624 0e61 51       		.byte	0x51
 15625 0e62 9F       		.byte	0x9f
 15626 0e63 00000000 		.4byte	0
 15627 0e67 00000000 		.4byte	0
 15628              	.LLST90:
 15629 0e6b 00000000 		.4byte	.LVL320
 15630 0e6f 09000000 		.4byte	.LVL323-1
ARM GAS  C:\Users\chemi\AppData\Local\Temp\ccFrP3K3.s 			page 312


 15631 0e73 0100     		.2byte	0x1
 15632 0e75 52       		.byte	0x52
 15633 0e76 09000000 		.4byte	.LVL323-1
 15634 0e7a 18000000 		.4byte	.LFE95
 15635 0e7e 0400     		.2byte	0x4
 15636 0e80 F3       		.byte	0xf3
 15637 0e81 01       		.uleb128 0x1
 15638 0e82 52       		.byte	0x52
 15639 0e83 9F       		.byte	0x9f
 15640 0e84 00000000 		.4byte	0
 15641 0e88 00000000 		.4byte	0
 15642              	.LLST91:
 15643 0e8c 00000000 		.4byte	.LVL325
 15644 0e90 05000000 		.4byte	.LVL326-1
 15645 0e94 0100     		.2byte	0x1
 15646 0e96 50       		.byte	0x50
 15647 0e97 05000000 		.4byte	.LVL326-1
 15648 0e9b 0A000000 		.4byte	.LFE96
 15649 0e9f 0400     		.2byte	0x4
 15650 0ea1 F3       		.byte	0xf3
 15651 0ea2 01       		.uleb128 0x1
 15652 0ea3 50       		.byte	0x50
 15653 0ea4 9F       		.byte	0x9f
 15654 0ea5 00000000 		.4byte	0
 15655 0ea9 00000000 		.4byte	0
 15656              	.LLST92:
 15657 0ead 00000000 		.4byte	.LVL325
 15658 0eb1 05000000 		.4byte	.LVL326-1
 15659 0eb5 0100     		.2byte	0x1
 15660 0eb7 51       		.byte	0x51
 15661 0eb8 05000000 		.4byte	.LVL326-1
 15662 0ebc 0A000000 		.4byte	.LFE96
 15663 0ec0 0400     		.2byte	0x4
 15664 0ec2 F3       		.byte	0xf3
 15665 0ec3 01       		.uleb128 0x1
 15666 0ec4 51       		.byte	0x51
 15667 0ec5 9F       		.byte	0x9f
 15668 0ec6 00000000 		.4byte	0
 15669 0eca 00000000 		.4byte	0
 15670              	.LLST93:
 15671 0ece 00000000 		.4byte	.LVL325
 15672 0ed2 05000000 		.4byte	.LVL326-1
 15673 0ed6 0100     		.2byte	0x1
 15674 0ed8 52       		.byte	0x52
 15675 0ed9 05000000 		.4byte	.LVL326-1
 15676 0edd 0A000000 		.4byte	.LFE96
 15677 0ee1 0400     		.2byte	0x4
 15678 0ee3 F3       		.byte	0xf3
 15679 0ee4 01       		.uleb128 0x1
 15680 0ee5 52       		.byte	0x52
 15681 0ee6 9F       		.byte	0x9f
 15682 0ee7 00000000 		.4byte	0
 15683 0eeb 00000000 		.4byte	0
 15684              	.LLST94:
 15685 0eef 00000000 		.4byte	.LVL327
 15686 0ef3 10000000 		.4byte	.LVL329
 15687 0ef7 0100     		.2byte	0x1
ARM GAS  C:\Users\chemi\AppData\Local\Temp\ccFrP3K3.s 			page 313


 15688 0ef9 50       		.byte	0x50
 15689 0efa 10000000 		.4byte	.LVL329
 15690 0efe 54000000 		.4byte	.LVL345
 15691 0f02 0100     		.2byte	0x1
 15692 0f04 55       		.byte	0x55
 15693 0f05 54000000 		.4byte	.LVL345
 15694 0f09 5C000000 		.4byte	.LFE97
 15695 0f0d 0400     		.2byte	0x4
 15696 0f0f F3       		.byte	0xf3
 15697 0f10 01       		.uleb128 0x1
 15698 0f11 50       		.byte	0x50
 15699 0f12 9F       		.byte	0x9f
 15700 0f13 00000000 		.4byte	0
 15701 0f17 00000000 		.4byte	0
 15702              	.LLST95:
 15703 0f1b 00000000 		.4byte	.LVL327
 15704 0f1f 0E000000 		.4byte	.LVL328
 15705 0f23 0100     		.2byte	0x1
 15706 0f25 51       		.byte	0x51
 15707 0f26 0E000000 		.4byte	.LVL328
 15708 0f2a 5C000000 		.4byte	.LFE97
 15709 0f2e 0400     		.2byte	0x4
 15710 0f30 F3       		.byte	0xf3
 15711 0f31 01       		.uleb128 0x1
 15712 0f32 51       		.byte	0x51
 15713 0f33 9F       		.byte	0x9f
 15714 0f34 00000000 		.4byte	0
 15715 0f38 00000000 		.4byte	0
 15716              	.LLST96:
 15717 0f3c 00000000 		.4byte	.LVL327
 15718 0f40 13000000 		.4byte	.LVL330-1
 15719 0f44 0100     		.2byte	0x1
 15720 0f46 52       		.byte	0x52
 15721 0f47 13000000 		.4byte	.LVL330-1
 15722 0f4b 54000000 		.4byte	.LVL345
 15723 0f4f 0100     		.2byte	0x1
 15724 0f51 56       		.byte	0x56
 15725 0f52 54000000 		.4byte	.LVL345
 15726 0f56 5C000000 		.4byte	.LFE97
 15727 0f5a 0400     		.2byte	0x4
 15728 0f5c F3       		.byte	0xf3
 15729 0f5d 01       		.uleb128 0x1
 15730 0f5e 52       		.byte	0x52
 15731 0f5f 9F       		.byte	0x9f
 15732 0f60 00000000 		.4byte	0
 15733 0f64 00000000 		.4byte	0
 15734              	.LLST97:
 15735 0f68 1E000000 		.4byte	.LVL332
 15736 0f6c 2A000000 		.4byte	.LVL335
 15737 0f70 0100     		.2byte	0x1
 15738 0f72 54       		.byte	0x54
 15739 0f73 34000000 		.4byte	.LVL337
 15740 0f77 50000000 		.4byte	.LVL344
 15741 0f7b 0100     		.2byte	0x1
 15742 0f7d 54       		.byte	0x54
 15743 0f7e 00000000 		.4byte	0
 15744 0f82 00000000 		.4byte	0
ARM GAS  C:\Users\chemi\AppData\Local\Temp\ccFrP3K3.s 			page 314


 15745              	.LLST98:
 15746 0f86 26000000 		.4byte	.LVL334
 15747 0f8a 2A000000 		.4byte	.LVL335
 15748 0f8e 0100     		.2byte	0x1
 15749 0f90 50       		.byte	0x50
 15750 0f91 34000000 		.4byte	.LVL337
 15751 0f95 3C000000 		.4byte	.LVL338
 15752 0f99 0100     		.2byte	0x1
 15753 0f9b 50       		.byte	0x50
 15754 0f9c 3C000000 		.4byte	.LVL338
 15755 0fa0 3E000000 		.4byte	.LVL339
 15756 0fa4 0400     		.2byte	0x4
 15757 0fa6 70       		.byte	0x70
 15758 0fa7 00       		.sleb128 0
 15759 0fa8 1F       		.byte	0x1f
 15760 0fa9 9F       		.byte	0x9f
 15761 0faa 44000000 		.4byte	.LVL341
 15762 0fae 4A000000 		.4byte	.LVL342
 15763 0fb2 0100     		.2byte	0x1
 15764 0fb4 50       		.byte	0x50
 15765 0fb5 4A000000 		.4byte	.LVL342
 15766 0fb9 4C000000 		.4byte	.LVL343
 15767 0fbd 0400     		.2byte	0x4
 15768 0fbf 70       		.byte	0x70
 15769 0fc0 00       		.sleb128 0
 15770 0fc1 1F       		.byte	0x1f
 15771 0fc2 9F       		.byte	0x9f
 15772 0fc3 00000000 		.4byte	0
 15773 0fc7 00000000 		.4byte	0
 15774              	.LLST99:
 15775 0fcb 00000000 		.4byte	.LVL346
 15776 0fcf 10000000 		.4byte	.LVL348
 15777 0fd3 0100     		.2byte	0x1
 15778 0fd5 50       		.byte	0x50
 15779 0fd6 10000000 		.4byte	.LVL348
 15780 0fda 46000000 		.4byte	.LVL358
 15781 0fde 0100     		.2byte	0x1
 15782 0fe0 56       		.byte	0x56
 15783 0fe1 46000000 		.4byte	.LVL358
 15784 0fe5 50000000 		.4byte	.LFE98
 15785 0fe9 0400     		.2byte	0x4
 15786 0feb F3       		.byte	0xf3
 15787 0fec 01       		.uleb128 0x1
 15788 0fed 50       		.byte	0x50
 15789 0fee 9F       		.byte	0x9f
 15790 0fef 00000000 		.4byte	0
 15791 0ff3 00000000 		.4byte	0
 15792              	.LLST100:
 15793 0ff7 00000000 		.4byte	.LVL346
 15794 0ffb 0E000000 		.4byte	.LVL347
 15795 0fff 0100     		.2byte	0x1
 15796 1001 51       		.byte	0x51
 15797 1002 0E000000 		.4byte	.LVL347
 15798 1006 50000000 		.4byte	.LFE98
 15799 100a 0400     		.2byte	0x4
 15800 100c F3       		.byte	0xf3
 15801 100d 01       		.uleb128 0x1
ARM GAS  C:\Users\chemi\AppData\Local\Temp\ccFrP3K3.s 			page 315


 15802 100e 51       		.byte	0x51
 15803 100f 9F       		.byte	0x9f
 15804 1010 00000000 		.4byte	0
 15805 1014 00000000 		.4byte	0
 15806              	.LLST101:
 15807 1018 00000000 		.4byte	.LVL346
 15808 101c 13000000 		.4byte	.LVL349-1
 15809 1020 0100     		.2byte	0x1
 15810 1022 52       		.byte	0x52
 15811 1023 13000000 		.4byte	.LVL349-1
 15812 1027 46000000 		.4byte	.LVL358
 15813 102b 0100     		.2byte	0x1
 15814 102d 55       		.byte	0x55
 15815 102e 46000000 		.4byte	.LVL358
 15816 1032 50000000 		.4byte	.LFE98
 15817 1036 0400     		.2byte	0x4
 15818 1038 F3       		.byte	0xf3
 15819 1039 01       		.uleb128 0x1
 15820 103a 52       		.byte	0x52
 15821 103b 9F       		.byte	0x9f
 15822 103c 00000000 		.4byte	0
 15823 1040 00000000 		.4byte	0
 15824              	.LLST102:
 15825 1044 28000000 		.4byte	.LVL352
 15826 1048 42000000 		.4byte	.LVL357
 15827 104c 0100     		.2byte	0x1
 15828 104e 54       		.byte	0x54
 15829 104f 00000000 		.4byte	0
 15830 1053 00000000 		.4byte	0
 15831              	.LLST103:
 15832 1057 32000000 		.4byte	.LVL354
 15833 105b 37000000 		.4byte	.LVL355-1
 15834 105f 0100     		.2byte	0x1
 15835 1061 50       		.byte	0x50
 15836 1062 3A000000 		.4byte	.LVL356
 15837 1066 41000000 		.4byte	.LVL357-1
 15838 106a 0100     		.2byte	0x1
 15839 106c 50       		.byte	0x50
 15840 106d 00000000 		.4byte	0
 15841 1071 00000000 		.4byte	0
 15842              	.LLST104:
 15843 1075 00000000 		.4byte	.LVL359
 15844 1079 10000000 		.4byte	.LVL360
 15845 107d 0100     		.2byte	0x1
 15846 107f 50       		.byte	0x50
 15847 1080 10000000 		.4byte	.LVL360
 15848 1084 28000000 		.4byte	.LVL365
 15849 1088 0100     		.2byte	0x1
 15850 108a 54       		.byte	0x54
 15851 108b 28000000 		.4byte	.LVL365
 15852 108f 48000000 		.4byte	.LFE99
 15853 1093 0400     		.2byte	0x4
 15854 1095 F3       		.byte	0xf3
 15855 1096 01       		.uleb128 0x1
 15856 1097 50       		.byte	0x50
 15857 1098 9F       		.byte	0x9f
 15858 1099 00000000 		.4byte	0
ARM GAS  C:\Users\chemi\AppData\Local\Temp\ccFrP3K3.s 			page 316


 15859 109d 00000000 		.4byte	0
 15860              	.LLST105:
 15861 10a1 00000000 		.4byte	.LVL359
 15862 10a5 13000000 		.4byte	.LVL361-1
 15863 10a9 0100     		.2byte	0x1
 15864 10ab 51       		.byte	0x51
 15865 10ac 13000000 		.4byte	.LVL361-1
 15866 10b0 48000000 		.4byte	.LFE99
 15867 10b4 0400     		.2byte	0x4
 15868 10b6 F3       		.byte	0xf3
 15869 10b7 01       		.uleb128 0x1
 15870 10b8 51       		.byte	0x51
 15871 10b9 9F       		.byte	0x9f
 15872 10ba 00000000 		.4byte	0
 15873 10be 00000000 		.4byte	0
 15874              	.LLST106:
 15875 10c2 00000000 		.4byte	.LVL359
 15876 10c6 13000000 		.4byte	.LVL361-1
 15877 10ca 0100     		.2byte	0x1
 15878 10cc 52       		.byte	0x52
 15879 10cd 13000000 		.4byte	.LVL361-1
 15880 10d1 48000000 		.4byte	.LFE99
 15881 10d5 0400     		.2byte	0x4
 15882 10d7 F3       		.byte	0xf3
 15883 10d8 01       		.uleb128 0x1
 15884 10d9 52       		.byte	0x52
 15885 10da 9F       		.byte	0x9f
 15886 10db 00000000 		.4byte	0
 15887 10df 00000000 		.4byte	0
 15888              	.LLST107:
 15889 10e3 26000000 		.4byte	.LVL364
 15890 10e7 3A000000 		.4byte	.LVL368
 15891 10eb 0100     		.2byte	0x1
 15892 10ed 56       		.byte	0x56
 15893 10ee 00000000 		.4byte	0
 15894 10f2 00000000 		.4byte	0
 15895              	.LLST108:
 15896 10f6 00000000 		.4byte	.LVL369
 15897 10fa 0A000000 		.4byte	.LVL370
 15898 10fe 0100     		.2byte	0x1
 15899 1100 50       		.byte	0x50
 15900 1101 0A000000 		.4byte	.LVL370
 15901 1105 0C000000 		.4byte	.LVL371
 15902 1109 0400     		.2byte	0x4
 15903 110b F3       		.byte	0xf3
 15904 110c 01       		.uleb128 0x1
 15905 110d 50       		.byte	0x50
 15906 110e 9F       		.byte	0x9f
 15907 110f 00000000 		.4byte	0
 15908 1113 00000000 		.4byte	0
 15909              	.LLST109:
 15910 1117 00000000 		.4byte	.LVL369
 15911 111b 10000000 		.4byte	.LVL373
 15912 111f 0100     		.2byte	0x1
 15913 1121 51       		.byte	0x51
 15914 1122 10000000 		.4byte	.LVL373
 15915 1126 1E000000 		.4byte	.LVL376
ARM GAS  C:\Users\chemi\AppData\Local\Temp\ccFrP3K3.s 			page 317


 15916 112a 0400     		.2byte	0x4
 15917 112c F3       		.byte	0xf3
 15918 112d 01       		.uleb128 0x1
 15919 112e 51       		.byte	0x51
 15920 112f 9F       		.byte	0x9f
 15921 1130 1E000000 		.4byte	.LVL376
 15922 1134 22000000 		.4byte	.LVL378
 15923 1138 0100     		.2byte	0x1
 15924 113a 51       		.byte	0x51
 15925 113b 22000000 		.4byte	.LVL378
 15926 113f 48000000 		.4byte	.LFE100
 15927 1143 0400     		.2byte	0x4
 15928 1145 F3       		.byte	0xf3
 15929 1146 01       		.uleb128 0x1
 15930 1147 51       		.byte	0x51
 15931 1148 9F       		.byte	0x9f
 15932 1149 00000000 		.4byte	0
 15933 114d 00000000 		.4byte	0
 15934              	.LLST110:
 15935 1151 00000000 		.4byte	.LVL369
 15936 1155 12000000 		.4byte	.LVL374
 15937 1159 0100     		.2byte	0x1
 15938 115b 52       		.byte	0x52
 15939 115c 12000000 		.4byte	.LVL374
 15940 1160 1E000000 		.4byte	.LVL376
 15941 1164 0100     		.2byte	0x1
 15942 1166 54       		.byte	0x54
 15943 1167 1E000000 		.4byte	.LVL376
 15944 116b 20000000 		.4byte	.LVL377
 15945 116f 0100     		.2byte	0x1
 15946 1171 52       		.byte	0x52
 15947 1172 20000000 		.4byte	.LVL377
 15948 1176 36000000 		.4byte	.LVL381
 15949 117a 0100     		.2byte	0x1
 15950 117c 54       		.byte	0x54
 15951 117d 36000000 		.4byte	.LVL381
 15952 1181 3D000000 		.4byte	.LVL382-1
 15953 1185 0100     		.2byte	0x1
 15954 1187 50       		.byte	0x50
 15955 1188 3D000000 		.4byte	.LVL382-1
 15956 118c 48000000 		.4byte	.LFE100
 15957 1190 0400     		.2byte	0x4
 15958 1192 F3       		.byte	0xf3
 15959 1193 01       		.uleb128 0x1
 15960 1194 52       		.byte	0x52
 15961 1195 9F       		.byte	0x9f
 15962 1196 00000000 		.4byte	0
 15963 119a 00000000 		.4byte	0
 15964              	.LLST111:
 15965 119e 0E000000 		.4byte	.LVL372
 15966 11a2 10000000 		.4byte	.LVL373
 15967 11a6 0100     		.2byte	0x1
 15968 11a8 51       		.byte	0x51
 15969 11a9 00000000 		.4byte	0
 15970 11ad 00000000 		.4byte	0
 15971              	.LLST112:
 15972 11b1 0E000000 		.4byte	.LVL372
ARM GAS  C:\Users\chemi\AppData\Local\Temp\ccFrP3K3.s 			page 318


 15973 11b5 12000000 		.4byte	.LVL374
 15974 11b9 0100     		.2byte	0x1
 15975 11bb 52       		.byte	0x52
 15976 11bc 12000000 		.4byte	.LVL374
 15977 11c0 1E000000 		.4byte	.LVL376
 15978 11c4 0100     		.2byte	0x1
 15979 11c6 54       		.byte	0x54
 15980 11c7 00000000 		.4byte	0
 15981 11cb 00000000 		.4byte	0
 15982              	.LLST113:
 15983 11cf 00000000 		.4byte	.LVL383
 15984 11d3 0A000000 		.4byte	.LVL384
 15985 11d7 0100     		.2byte	0x1
 15986 11d9 50       		.byte	0x50
 15987 11da 0A000000 		.4byte	.LVL384
 15988 11de 0C000000 		.4byte	.LVL385
 15989 11e2 0400     		.2byte	0x4
 15990 11e4 F3       		.byte	0xf3
 15991 11e5 01       		.uleb128 0x1
 15992 11e6 50       		.byte	0x50
 15993 11e7 9F       		.byte	0x9f
 15994 11e8 00000000 		.4byte	0
 15995 11ec 00000000 		.4byte	0
 15996              	.LLST114:
 15997 11f0 00000000 		.4byte	.LVL383
 15998 11f4 10000000 		.4byte	.LVL387
 15999 11f8 0100     		.2byte	0x1
 16000 11fa 51       		.byte	0x51
 16001 11fb 10000000 		.4byte	.LVL387
 16002 11ff 1E000000 		.4byte	.LVL390
 16003 1203 0400     		.2byte	0x4
 16004 1205 F3       		.byte	0xf3
 16005 1206 01       		.uleb128 0x1
 16006 1207 51       		.byte	0x51
 16007 1208 9F       		.byte	0x9f
 16008 1209 1E000000 		.4byte	.LVL390
 16009 120d 22000000 		.4byte	.LVL392
 16010 1211 0100     		.2byte	0x1
 16011 1213 51       		.byte	0x51
 16012 1214 22000000 		.4byte	.LVL392
 16013 1218 48000000 		.4byte	.LFE101
 16014 121c 0400     		.2byte	0x4
 16015 121e F3       		.byte	0xf3
 16016 121f 01       		.uleb128 0x1
 16017 1220 51       		.byte	0x51
 16018 1221 9F       		.byte	0x9f
 16019 1222 00000000 		.4byte	0
 16020 1226 00000000 		.4byte	0
 16021              	.LLST115:
 16022 122a 00000000 		.4byte	.LVL383
 16023 122e 12000000 		.4byte	.LVL388
 16024 1232 0100     		.2byte	0x1
 16025 1234 52       		.byte	0x52
 16026 1235 12000000 		.4byte	.LVL388
 16027 1239 1E000000 		.4byte	.LVL390
 16028 123d 0100     		.2byte	0x1
 16029 123f 54       		.byte	0x54
ARM GAS  C:\Users\chemi\AppData\Local\Temp\ccFrP3K3.s 			page 319


 16030 1240 1E000000 		.4byte	.LVL390
 16031 1244 20000000 		.4byte	.LVL391
 16032 1248 0100     		.2byte	0x1
 16033 124a 52       		.byte	0x52
 16034 124b 20000000 		.4byte	.LVL391
 16035 124f 36000000 		.4byte	.LVL395
 16036 1253 0100     		.2byte	0x1
 16037 1255 54       		.byte	0x54
 16038 1256 36000000 		.4byte	.LVL395
 16039 125a 3D000000 		.4byte	.LVL396-1
 16040 125e 0100     		.2byte	0x1
 16041 1260 50       		.byte	0x50
 16042 1261 3D000000 		.4byte	.LVL396-1
 16043 1265 48000000 		.4byte	.LFE101
 16044 1269 0400     		.2byte	0x4
 16045 126b F3       		.byte	0xf3
 16046 126c 01       		.uleb128 0x1
 16047 126d 52       		.byte	0x52
 16048 126e 9F       		.byte	0x9f
 16049 126f 00000000 		.4byte	0
 16050 1273 00000000 		.4byte	0
 16051              	.LLST116:
 16052 1277 0E000000 		.4byte	.LVL386
 16053 127b 10000000 		.4byte	.LVL387
 16054 127f 0100     		.2byte	0x1
 16055 1281 51       		.byte	0x51
 16056 1282 00000000 		.4byte	0
 16057 1286 00000000 		.4byte	0
 16058              	.LLST117:
 16059 128a 0E000000 		.4byte	.LVL386
 16060 128e 12000000 		.4byte	.LVL388
 16061 1292 0100     		.2byte	0x1
 16062 1294 52       		.byte	0x52
 16063 1295 12000000 		.4byte	.LVL388
 16064 1299 1E000000 		.4byte	.LVL390
 16065 129d 0100     		.2byte	0x1
 16066 129f 54       		.byte	0x54
 16067 12a0 00000000 		.4byte	0
 16068 12a4 00000000 		.4byte	0
 16069              	.LLST118:
 16070 12a8 00000000 		.4byte	.LVL397
 16071 12ac 0D000000 		.4byte	.LVL400-1
 16072 12b0 0100     		.2byte	0x1
 16073 12b2 50       		.byte	0x50
 16074 12b3 0D000000 		.4byte	.LVL400-1
 16075 12b7 A0020000 		.4byte	.LVL467
 16076 12bb 0100     		.2byte	0x1
 16077 12bd 54       		.byte	0x54
 16078 12be A0020000 		.4byte	.LVL467
 16079 12c2 3C030000 		.4byte	.LFE102
 16080 12c6 0400     		.2byte	0x4
 16081 12c8 F3       		.byte	0xf3
 16082 12c9 01       		.uleb128 0x1
 16083 12ca 50       		.byte	0x50
 16084 12cb 9F       		.byte	0x9f
 16085 12cc 00000000 		.4byte	0
 16086 12d0 00000000 		.4byte	0
ARM GAS  C:\Users\chemi\AppData\Local\Temp\ccFrP3K3.s 			page 320


 16087              	.LLST119:
 16088 12d4 00000000 		.4byte	.LVL397
 16089 12d8 0A000000 		.4byte	.LVL399
 16090 12dc 0100     		.2byte	0x1
 16091 12de 51       		.byte	0x51
 16092 12df 0A000000 		.4byte	.LVL399
 16093 12e3 3C030000 		.4byte	.LFE102
 16094 12e7 0400     		.2byte	0x4
 16095 12e9 F3       		.byte	0xf3
 16096 12ea 01       		.uleb128 0x1
 16097 12eb 51       		.byte	0x51
 16098 12ec 9F       		.byte	0x9f
 16099 12ed 00000000 		.4byte	0
 16100 12f1 00000000 		.4byte	0
 16101              	.LLST120:
 16102 12f5 00000000 		.4byte	.LVL397
 16103 12f9 08000000 		.4byte	.LVL398
 16104 12fd 0100     		.2byte	0x1
 16105 12ff 52       		.byte	0x52
 16106 1300 08000000 		.4byte	.LVL398
 16107 1304 3C030000 		.4byte	.LFE102
 16108 1308 0400     		.2byte	0x4
 16109 130a F3       		.byte	0xf3
 16110 130b 01       		.uleb128 0x1
 16111 130c 52       		.byte	0x52
 16112 130d 9F       		.byte	0x9f
 16113 130e 00000000 		.4byte	0
 16114 1312 00000000 		.4byte	0
 16115              		.section	.debug_aranges,"",%progbits
 16116 0000 2C010000 		.4byte	0x12c
 16117 0004 0200     		.2byte	0x2
 16118 0006 00000000 		.4byte	.Ldebug_info0
 16119 000a 04       		.byte	0x4
 16120 000b 00       		.byte	0
 16121 000c 0000     		.2byte	0
 16122 000e 0000     		.2byte	0
 16123 0010 00000000 		.4byte	.LFB77
 16124 0014 20000000 		.4byte	.LFE77-.LFB77
 16125 0018 00000000 		.4byte	.LFB70
 16126 001c BC000000 		.4byte	.LFE70-.LFB70
 16127 0020 00000000 		.4byte	.LFB71
 16128 0024 16000000 		.4byte	.LFE71-.LFB71
 16129 0028 00000000 		.4byte	.LFB76
 16130 002c 80000000 		.4byte	.LFE76-.LFB76
 16131 0030 00000000 		.4byte	.LFB80
 16132 0034 74000000 		.4byte	.LFE80-.LFB80
 16133 0038 00000000 		.4byte	.LFB72
 16134 003c 74000000 		.4byte	.LFE72-.LFB72
 16135 0040 00000000 		.4byte	.LFB68
 16136 0044 80010000 		.4byte	.LFE68-.LFB68
 16137 0048 00000000 		.4byte	.LFB73
 16138 004c 60000000 		.4byte	.LFE73-.LFB73
 16139 0050 00000000 		.4byte	.LFB74
 16140 0054 0A000000 		.4byte	.LFE74-.LFB74
 16141 0058 00000000 		.4byte	.LFB75
 16142 005c 0A000000 		.4byte	.LFE75-.LFB75
 16143 0060 00000000 		.4byte	.LFB78
ARM GAS  C:\Users\chemi\AppData\Local\Temp\ccFrP3K3.s 			page 321


 16144 0064 D0000000 		.4byte	.LFE78-.LFB78
 16145 0068 00000000 		.4byte	.LFB69
 16146 006c 6C000000 		.4byte	.LFE69-.LFB69
 16147 0070 00000000 		.4byte	.LFB79
 16148 0074 14000000 		.4byte	.LFE79-.LFB79
 16149 0078 00000000 		.4byte	.LFB81
 16150 007c 04000000 		.4byte	.LFE81-.LFB81
 16151 0080 00000000 		.4byte	.LFB82
 16152 0084 94000000 		.4byte	.LFE82-.LFB82
 16153 0088 00000000 		.4byte	.LFB83
 16154 008c 30000000 		.4byte	.LFE83-.LFB83
 16155 0090 00000000 		.4byte	.LFB84
 16156 0094 AC010000 		.4byte	.LFE84-.LFB84
 16157 0098 00000000 		.4byte	.LFB85
 16158 009c 68000000 		.4byte	.LFE85-.LFB85
 16159 00a0 00000000 		.4byte	.LFB86
 16160 00a4 D4000000 		.4byte	.LFE86-.LFB86
 16161 00a8 00000000 		.4byte	.LFB87
 16162 00ac 20000000 		.4byte	.LFE87-.LFB87
 16163 00b0 00000000 		.4byte	.LFB88
 16164 00b4 54000000 		.4byte	.LFE88-.LFB88
 16165 00b8 00000000 		.4byte	.LFB89
 16166 00bc 0A000000 		.4byte	.LFE89-.LFB89
 16167 00c0 00000000 		.4byte	.LFB90
 16168 00c4 F8000000 		.4byte	.LFE90-.LFB90
 16169 00c8 00000000 		.4byte	.LFB91
 16170 00cc 8C000000 		.4byte	.LFE91-.LFB91
 16171 00d0 00000000 		.4byte	.LFB92
 16172 00d4 C4000000 		.4byte	.LFE92-.LFB92
 16173 00d8 00000000 		.4byte	.LFB93
 16174 00dc 94000000 		.4byte	.LFE93-.LFB93
 16175 00e0 00000000 		.4byte	.LFB94
 16176 00e4 64000000 		.4byte	.LFE94-.LFB94
 16177 00e8 00000000 		.4byte	.LFB95
 16178 00ec 18000000 		.4byte	.LFE95-.LFB95
 16179 00f0 00000000 		.4byte	.LFB96
 16180 00f4 0A000000 		.4byte	.LFE96-.LFB96
 16181 00f8 00000000 		.4byte	.LFB97
 16182 00fc 5C000000 		.4byte	.LFE97-.LFB97
 16183 0100 00000000 		.4byte	.LFB98
 16184 0104 50000000 		.4byte	.LFE98-.LFB98
 16185 0108 00000000 		.4byte	.LFB99
 16186 010c 48000000 		.4byte	.LFE99-.LFB99
 16187 0110 00000000 		.4byte	.LFB100
 16188 0114 48000000 		.4byte	.LFE100-.LFB100
 16189 0118 00000000 		.4byte	.LFB101
 16190 011c 48000000 		.4byte	.LFE101-.LFB101
 16191 0120 00000000 		.4byte	.LFB102
 16192 0124 3C030000 		.4byte	.LFE102-.LFB102
 16193 0128 00000000 		.4byte	0
 16194 012c 00000000 		.4byte	0
 16195              		.section	.debug_ranges,"",%progbits
 16196              	.Ldebug_ranges0:
 16197 0000 04000000 		.4byte	.LBB15
 16198 0004 06000000 		.4byte	.LBE15
 16199 0008 08000000 		.4byte	.LBB16
 16200 000c 18000000 		.4byte	.LBE16
ARM GAS  C:\Users\chemi\AppData\Local\Temp\ccFrP3K3.s 			page 322


 16201 0010 00000000 		.4byte	0
 16202 0014 00000000 		.4byte	0
 16203 0018 2E000000 		.4byte	.LBB18
 16204 001c 30000000 		.4byte	.LBE18
 16205 0020 32000000 		.4byte	.LBB19
 16206 0024 5A000000 		.4byte	.LBE19
 16207 0028 00000000 		.4byte	0
 16208 002c 00000000 		.4byte	0
 16209 0030 00000000 		.4byte	.LFB77
 16210 0034 20000000 		.4byte	.LFE77
 16211 0038 00000000 		.4byte	.LFB70
 16212 003c BC000000 		.4byte	.LFE70
 16213 0040 00000000 		.4byte	.LFB71
 16214 0044 16000000 		.4byte	.LFE71
 16215 0048 00000000 		.4byte	.LFB76
 16216 004c 80000000 		.4byte	.LFE76
 16217 0050 00000000 		.4byte	.LFB80
 16218 0054 74000000 		.4byte	.LFE80
 16219 0058 00000000 		.4byte	.LFB72
 16220 005c 74000000 		.4byte	.LFE72
 16221 0060 00000000 		.4byte	.LFB68
 16222 0064 80010000 		.4byte	.LFE68
 16223 0068 00000000 		.4byte	.LFB73
 16224 006c 60000000 		.4byte	.LFE73
 16225 0070 00000000 		.4byte	.LFB74
 16226 0074 0A000000 		.4byte	.LFE74
 16227 0078 00000000 		.4byte	.LFB75
 16228 007c 0A000000 		.4byte	.LFE75
 16229 0080 00000000 		.4byte	.LFB78
 16230 0084 D0000000 		.4byte	.LFE78
 16231 0088 00000000 		.4byte	.LFB69
 16232 008c 6C000000 		.4byte	.LFE69
 16233 0090 00000000 		.4byte	.LFB79
 16234 0094 14000000 		.4byte	.LFE79
 16235 0098 00000000 		.4byte	.LFB81
 16236 009c 04000000 		.4byte	.LFE81
 16237 00a0 00000000 		.4byte	.LFB82
 16238 00a4 94000000 		.4byte	.LFE82
 16239 00a8 00000000 		.4byte	.LFB83
 16240 00ac 30000000 		.4byte	.LFE83
 16241 00b0 00000000 		.4byte	.LFB84
 16242 00b4 AC010000 		.4byte	.LFE84
 16243 00b8 00000000 		.4byte	.LFB85
 16244 00bc 68000000 		.4byte	.LFE85
 16245 00c0 00000000 		.4byte	.LFB86
 16246 00c4 D4000000 		.4byte	.LFE86
 16247 00c8 00000000 		.4byte	.LFB87
 16248 00cc 20000000 		.4byte	.LFE87
 16249 00d0 00000000 		.4byte	.LFB88
 16250 00d4 54000000 		.4byte	.LFE88
 16251 00d8 00000000 		.4byte	.LFB89
 16252 00dc 0A000000 		.4byte	.LFE89
 16253 00e0 00000000 		.4byte	.LFB90
 16254 00e4 F8000000 		.4byte	.LFE90
 16255 00e8 00000000 		.4byte	.LFB91
 16256 00ec 8C000000 		.4byte	.LFE91
 16257 00f0 00000000 		.4byte	.LFB92
ARM GAS  C:\Users\chemi\AppData\Local\Temp\ccFrP3K3.s 			page 323


 16258 00f4 C4000000 		.4byte	.LFE92
 16259 00f8 00000000 		.4byte	.LFB93
 16260 00fc 94000000 		.4byte	.LFE93
 16261 0100 00000000 		.4byte	.LFB94
 16262 0104 64000000 		.4byte	.LFE94
 16263 0108 00000000 		.4byte	.LFB95
 16264 010c 18000000 		.4byte	.LFE95
 16265 0110 00000000 		.4byte	.LFB96
 16266 0114 0A000000 		.4byte	.LFE96
 16267 0118 00000000 		.4byte	.LFB97
 16268 011c 5C000000 		.4byte	.LFE97
 16269 0120 00000000 		.4byte	.LFB98
 16270 0124 50000000 		.4byte	.LFE98
 16271 0128 00000000 		.4byte	.LFB99
 16272 012c 48000000 		.4byte	.LFE99
 16273 0130 00000000 		.4byte	.LFB100
 16274 0134 48000000 		.4byte	.LFE100
 16275 0138 00000000 		.4byte	.LFB101
 16276 013c 48000000 		.4byte	.LFE101
 16277 0140 00000000 		.4byte	.LFB102
 16278 0144 3C030000 		.4byte	.LFE102
 16279 0148 00000000 		.4byte	0
 16280 014c 00000000 		.4byte	0
 16281              		.section	.debug_line,"",%progbits
 16282              	.Ldebug_line0:
 16283 0000 F0090000 		.section	.debug_str,"MS",%progbits,1
 16283      0200ED04 
 16283      00000201 
 16283      FB0E0D00 
 16283      01010101 
 16284              	.LASF408:
 16285 0000 63616C6C 		.ascii	"callback_baudrateFunction\000"
 16285      6261636B 
 16285      5F626175 
 16285      64726174 
 16285      6546756E 
 16286              	.LASF104:
 16287 001a 41435061 		.ascii	"ACParams\000"
 16287      72616D73 
 16287      00
 16288              	.LASF83:
 16289 0023 6175746F 		.ascii	"autocompleteBufferLength\000"
 16289      636F6D70 
 16289      6C657465 
 16289      42756666 
 16289      65724C65 
 16290              	.LASF17:
 16291 003c 696E7438 		.ascii	"int8_t\000"
 16291      5F7400
 16292              	.LASF129:
 16293 0043 504F5254 		.ascii	"PORT_TERM_VT100\000"
 16293      5F544552 
 16293      4D5F5654 
 16293      31303000 
 16294              	.LASF69:
 16295 0053 5F565431 		.ascii	"_VT100_GREEN\000"
 16295      30305F47 
ARM GAS  C:\Users\chemi\AppData\Local\Temp\ccFrP3K3.s 			page 324


 16295      5245454E 
 16295      00
 16296              	.LASF334:
 16297 0060 54454C45 		.ascii	"TELEMETRY\000"
 16297      4D455452 
 16297      5900
 16298              	.LASF176:
 16299 006a 74656D70 		.ascii	"temp2_mode\000"
 16299      325F6D6F 
 16299      646500
 16300              	.LASF90:
 16301 0075 63757272 		.ascii	"currEscSeqPos\000"
 16301      45736353 
 16301      6571506F 
 16301      7300
 16302              	.LASF27:
 16303 0083 73697A65 		.ascii	"sizetype\000"
 16303      74797065 
 16303      00
 16304              	.LASF514:
 16305 008c 474E5520 		.ascii	"GNU C99 5.4.1 20160609 (release) [ARM/embedded-5-br"
 16305      43393920 
 16305      352E342E 
 16305      31203230 
 16305      31363036 
 16306 00bf 616E6368 		.ascii	"anch revision 237715] -mcpu=cortex-m3 -mthumb -g -O"
 16306      20726576 
 16306      6973696F 
 16306      6E203233 
 16306      37373135 
 16307 00f2 73202D73 		.ascii	"s -std=gnu99 -ffunction-sections -ffat-lto-objects\000"
 16307      74643D67 
 16307      6E753939 
 16307      202D6666 
 16307      756E6374 
 16308              	.LASF249:
 16309 0125 42555253 		.ascii	"BURST_ON\000"
 16309      545F4F4E 
 16309      00
 16310              	.LASF88:
 16311 012e 63757272 		.ascii	"currHistoryWritePosition\000"
 16311      48697374 
 16311      6F727957 
 16311      72697465 
 16311      506F7369 
 16312              	.LASF466:
 16313 0147 7163775F 		.ascii	"qcw_regenerate_ramp\000"
 16313      72656765 
 16313      6E657261 
 16313      74655F72 
 16313      616D7000 
 16314              	.LASF250:
 16315 015b 42555253 		.ascii	"BURST_OFF\000"
 16315      545F4F46 
 16315      4600
 16316              	.LASF352:
 16317 0165 6275735F 		.ascii	"bus_uv\000"
ARM GAS  C:\Users\chemi\AppData\Local\Temp\ccFrP3K3.s 			page 325


 16317      757600
 16318              	.LASF205:
 16319 016c 636F6D70 		.ascii	"compressor_maxDutyOffset\000"
 16319      72657373 
 16319      6F725F6D 
 16319      61784475 
 16319      74794F66 
 16320              	.LASF378:
 16321 0185 75617274 		.ascii	"uart_ivo\000"
 16321      5F69766F 
 16321      00
 16322              	.LASF21:
 16323 018e 696E7433 		.ascii	"int32_t\000"
 16323      325F7400 
 16324              	.LASF398:
 16325 0196 63616C6C 		.ascii	"callback_ConfigFunction\000"
 16325      6261636B 
 16325      5F436F6E 
 16325      66696746 
 16325      756E6374 
 16326              	.LASF231:
 16327 01ae 70776D5F 		.ascii	"pwm_top\000"
 16327      746F7000 
 16328              	.LASF94:
 16329 01b6 6572726F 		.ascii	"errorPrinter\000"
 16329      72507269 
 16329      6E746572 
 16329      00
 16330              	.LASF240:
 16331 01c3 70617261 		.ascii	"parameters\000"
 16331      6D657465 
 16331      727300
 16332              	.LASF219:
 16333 01ce 7163775F 		.ascii	"qcw_freq\000"
 16333      66726571 
 16333      00
 16334              	.LASF502:
 16335 01d7 4379536F 		.ascii	"CySoftwareReset\000"
 16335      66747761 
 16335      72655265 
 16335      73657400 
 16336              	.LASF172:
 16337 01e7 7069645F 		.ascii	"pid_temp_set\000"
 16337      74656D70 
 16337      5F736574 
 16337      00
 16338              	.LASF519:
 16339 01f4 696E6974 		.ascii	"init_config\000"
 16339      5F636F6E 
 16339      66696700 
 16340              	.LASF45:
 16341 0200 5F565431 		.ascii	"_VT100_BLINK\000"
 16341      30305F42 
 16341      4C494E4B 
 16341      00
 16342              	.LASF455:
 16343 020d 73797374 		.ascii	"system_fault_Read\000"
ARM GAS  C:\Users\chemi\AppData\Local\Temp\ccFrP3K3.s 			page 326


 16343      656D5F66 
 16343      61756C74 
 16343      5F526561 
 16343      6400
 16344              	.LASF405:
 16345 021f 646F776E 		.ascii	"down_rate_error\000"
 16345      5F726174 
 16345      655F6572 
 16345      726F7200 
 16346              	.LASF28:
 16347 022f 42617365 		.ascii	"BaseType_t\000"
 16347      54797065 
 16347      5F7400
 16348              	.LASF393:
 16349 023a 696E636C 		.ascii	"include_chart\000"
 16349      7564655F 
 16349      63686172 
 16349      7400
 16350              	.LASF81:
 16351 0248 63757272 		.ascii	"currProgram\000"
 16351      50726F67 
 16351      72616D00 
 16352              	.LASF54:
 16353 0254 5F565431 		.ascii	"_VT100_ERASE_LINE_END\000"
 16353      30305F45 
 16353      52415345 
 16353      5F4C494E 
 16353      455F454E 
 16354              	.LASF84:
 16355 026a 6175746F 		.ascii	"autocompleteStart\000"
 16355      636F6D70 
 16355      6C657465 
 16355      53746172 
 16355      7400
 16356              	.LASF132:
 16357 027c 706F7274 		.ascii	"port_str\000"
 16357      5F737472 
 16357      00
 16358              	.LASF373:
 16359 0285 68707645 		.ascii	"hpvEnabled\000"
 16359      6E61626C 
 16359      656400
 16360              	.LASF515:
 16361 0290 2E2E5C63 		.ascii	"..\\common\\ud3core\\cli_common.c\000"
 16361      6F6D6D6F 
 16361      6E5C7564 
 16361      33636F72 
 16361      655C636C 
 16362              	.LASF80:
 16363 02af 63757272 		.ascii	"currAutocompleteCount\000"
 16363      4175746F 
 16363      636F6D70 
 16363      6C657465 
 16363      436F756E 
 16364              	.LASF402:
 16365 02c5 64697669 		.ascii	"divider_selected\000"
 16365      6465725F 
ARM GAS  C:\Users\chemi\AppData\Local\Temp\ccFrP3K3.s 			page 327


 16365      73656C65 
 16365      63746564 
 16365      00
 16366              	.LASF67:
 16367 02d6 5F565431 		.ascii	"_VT100_BLACK\000"
 16367      30305F42 
 16367      4C41434B 
 16367      00
 16368              	.LASF487:
 16369 02e3 73656E64 		.ascii	"send_config\000"
 16369      5F636F6E 
 16369      66696700 
 16370              	.LASF225:
 16371 02ef 636C695F 		.ascii	"cli_parameter\000"
 16371      70617261 
 16371      6D657465 
 16371      7200
 16372              	.LASF324:
 16373 02fd 6176675F 		.ascii	"avg_power\000"
 16373      706F7765 
 16373      7200
 16374              	.LASF44:
 16375 0307 5F565431 		.ascii	"_VT100_UNDERSCORE\000"
 16375      30305F55 
 16375      4E444552 
 16375      53434F52 
 16375      4500
 16376              	.LASF497:
 16377 0319 7072696E 		.ascii	"print_param_help\000"
 16377      745F7061 
 16377      72616D5F 
 16377      68656C70 
 16377      00
 16378              	.LASF134:
 16379 032a 74797065 		.ascii	"type\000"
 16379      00
 16380              	.LASF345:
 16381 032f 53594E54 		.ascii	"SYNTH_MIDI_QCW\000"
 16381      485F4D49 
 16381      44495F51 
 16381      435700
 16382              	.LASF248:
 16383 033e 696E7465 		.ascii	"interrupter_burst\000"
 16383      72727570 
 16383      7465725F 
 16383      62757273 
 16383      7400
 16384              	.LASF503:
 16385 0350 61746F69 		.ascii	"atoi\000"
 16385      00
 16386              	.LASF326:
 16387 0355 6932745F 		.ascii	"i2t_i\000"
 16387      6900
 16388              	.LASF216:
 16389 035b 7163775F 		.ascii	"qcw_offset\000"
 16389      6F666673 
 16389      657400
ARM GAS  C:\Users\chemi\AppData\Local\Temp\ccFrP3K3.s 			page 328


 16390              	.LASF98:
 16391 0366 66756E63 		.ascii	"function\000"
 16391      74696F6E 
 16391      00
 16392              	.LASF376:
 16393 036f 68707645 		.ascii	"hpvEnabledGlobally\000"
 16393      6E61626C 
 16393      6564476C 
 16393      6F62616C 
 16393      6C7900
 16394              	.LASF190:
 16395 0382 70636139 		.ascii	"pca9685\000"
 16395      36383500 
 16396              	.LASF411:
 16397 038a 636F6E5F 		.ascii	"con_numcon\000"
 16397      6E756D63 
 16397      6F6E00
 16398              	.LASF315:
 16399 0395 63686172 		.ascii	"chart\000"
 16399      7400
 16400              	.LASF201:
 16401 039b 53696747 		.ascii	"SigGen_minOtOffset\000"
 16401      656E5F6D 
 16401      696E4F74 
 16401      4F666673 
 16401      657400
 16402              	.LASF508:
 16403 03ae 52656C61 		.ascii	"Relay1_Read\000"
 16403      79315F52 
 16403      65616400 
 16404              	.LASF40:
 16405 03ba 5F565431 		.ascii	"_VT100_BACKGROUND_COLOR\000"
 16405      30305F42 
 16405      41434B47 
 16405      524F554E 
 16405      445F434F 
 16406              	.LASF253:
 16407 03d2 494E5452 		.ascii	"INTR_MOD_CUR\000"
 16407      5F4D4F44 
 16407      5F435552 
 16407      00
 16408              	.LASF445:
 16409 03df 6D696E5F 		.ascii	"min_time\000"
 16409      74696D65 
 16409      00
 16410              	.LASF5:
 16411 03e8 5F5F7569 		.ascii	"__uint8_t\000"
 16411      6E74385F 
 16411      7400
 16412              	.LASF122:
 16413 03f2 54595045 		.ascii	"TYPE_CHAR\000"
 16413      5F434841 
 16413      5200
 16414              	.LASF244:
 16415 03fc 696E7465 		.ascii	"interrupter_mode\000"
 16415      72727570 
 16415      7465725F 
ARM GAS  C:\Users\chemi\AppData\Local\Temp\ccFrP3K3.s 			page 329


 16415      6D6F6465 
 16415      00
 16416              	.LASF484:
 16417 040d 61746F66 		.ascii	"atof\000"
 16417      00
 16418              	.LASF177:
 16419 0412 70735F73 		.ascii	"ps_scheme\000"
 16419      6368656D 
 16419      6500
 16420              	.LASF301:
 16421 041c 6F6C645F 		.ascii	"old_state\000"
 16421      73746174 
 16421      6500
 16422              	.LASF41:
 16423 0426 5F565431 		.ascii	"_VT100_RESET_ATTRIB\000"
 16423      30305F52 
 16423      45534554 
 16423      5F415454 
 16423      52494200 
 16424              	.LASF305:
 16425 043a 64696666 		.ascii	"diff\000"
 16425      00
 16426              	.LASF107:
 16427 043f 5465726D 		.ascii	"TermCommandInputHandler\000"
 16427      436F6D6D 
 16427      616E6449 
 16427      6E707574 
 16427      48616E64 
 16428              	.LASF68:
 16429 0457 5F565431 		.ascii	"_VT100_RED\000"
 16429      30305F52 
 16429      454400
 16430              	.LASF221:
 16431 0462 62757273 		.ascii	"burst_on\000"
 16431      745F6F6E 
 16431      00
 16432              	.LASF109:
 16433 046b 5465726D 		.ascii	"TermPrintHandler\000"
 16433      5072696E 
 16433      7448616E 
 16433      646C6572 
 16433      00
 16434              	.LASF474:
 16435 047c 45455052 		.ascii	"EEPROM_read_conf\000"
 16435      4F4D5F72 
 16435      6561645F 
 16435      636F6E66 
 16435      00
 16436              	.LASF347:
 16437 048d 5F5F7379 		.ascii	"__sysfault__\000"
 16437      73666175 
 16437      6C745F5F 
 16437      00
 16438              	.LASF403:
 16439 049a 646F776E 		.ascii	"down_rate\000"
 16439      5F726174 
 16439      6500
ARM GAS  C:\Users\chemi\AppData\Local\Temp\ccFrP3K3.s 			page 330


 16440              	.LASF419:
 16441 04a4 434D445F 		.ascii	"CMD_config_get\000"
 16441      636F6E66 
 16441      69675F67 
 16441      657400
 16442              	.LASF304:
 16443 04b3 72656D6F 		.ascii	"remote\000"
 16443      746500
 16444              	.LASF328:
 16445 04ba 6D696469 		.ascii	"midi_voices\000"
 16445      5F766F69 
 16445      63657300 
 16446              	.LASF12:
 16447 04c6 6C6F6E67 		.ascii	"long int\000"
 16447      20696E74 
 16447      00
 16448              	.LASF125:
 16449 04cf 504F5254 		.ascii	"PORT_TYPE_NULL\000"
 16449      5F545950 
 16449      455F4E55 
 16449      4C4C00
 16450              	.LASF309:
 16451 04de 756E6974 		.ascii	"unit\000"
 16451      00
 16452              	.LASF33:
 16453 04e3 51756575 		.ascii	"QueueDefinition\000"
 16453      65446566 
 16453      696E6974 
 16453      696F6E00 
 16454              	.LASF319:
 16455 04f3 62617474 		.ascii	"batt_v\000"
 16455      5F7600
 16456              	.LASF245:
 16457 04fa 494E5452 		.ascii	"INTR_MODE_OFF\000"
 16457      5F4D4F44 
 16457      455F4F46 
 16457      4600
 16458              	.LASF437:
 16459 0508 636F6E66 		.ascii	"confparam\000"
 16459      70617261 
 16459      6D00
 16460              	.LASF471:
 16461 0512 55415254 		.ascii	"UART_Stop\000"
 16461      5F53746F 
 16461      7000
 16462              	.LASF39:
 16463 051c 5F565431 		.ascii	"_VT100_FOREGROUND_COLOR\000"
 16463      30305F46 
 16463      4F524547 
 16463      524F554E 
 16463      445F434F 
 16464              	.LASF10:
 16465 0534 73686F72 		.ascii	"short unsigned int\000"
 16465      7420756E 
 16465      7369676E 
 16465      65642069 
 16465      6E7400
ARM GAS  C:\Users\chemi\AppData\Local\Temp\ccFrP3K3.s 			page 331


 16466              	.LASF489:
 16467 0547 696E7465 		.ascii	"interrupter_kill\000"
 16467      72727570 
 16467      7465725F 
 16467      6B696C6C 
 16467      00
 16468              	.LASF340:
 16469 0558 53594E54 		.ascii	"SYNTH\000"
 16469      4800
 16470              	.LASF429:
 16471 055e 434D445F 		.ascii	"CMD_reset\000"
 16471      72657365 
 16471      7400
 16472              	.LASF207:
 16473 0568 636C695F 		.ascii	"cli_config\000"
 16473      636F6E66 
 16473      696700
 16474              	.LASF209:
 16475 0573 74756E65 		.ascii	"tune_start\000"
 16475      5F737461 
 16475      727400
 16476              	.LASF277:
 16477 057e 72696E67 		.ascii	"ring_buffer_tail_offset\000"
 16477      5F627566 
 16477      6665725F 
 16477      7461696C 
 16477      5F6F6666 
 16478              	.LASF210:
 16479 0596 74756E65 		.ascii	"tune_end\000"
 16479      5F656E64 
 16479      00
 16480              	.LASF491:
 16481 059f 5143575F 		.ascii	"QCW_delete_timer\000"
 16481      64656C65 
 16481      74655F74 
 16481      696D6572 
 16481      00
 16482              	.LASF237:
 16483 05b0 64696666 		.ascii	"diff_tr_cl_dac_val\000"
 16483      5F74725F 
 16483      636C5F64 
 16483      61635F76 
 16483      616C00
 16484              	.LASF215:
 16485 05c3 7163775F 		.ascii	"qcw_holdoff\000"
 16485      686F6C64 
 16485      6F666600 
 16486              	.LASF105:
 16487 05cf 6E657874 		.ascii	"nextCmd\000"
 16487      436D6400 
 16488              	.LASF433:
 16489 05d7 70776D5F 		.ascii	"pwm_number\000"
 16489      6E756D62 
 16489      657200
 16490              	.LASF441:
 16491 05e2 696E7465 		.ascii	"interrupter\000"
 16491      72727570 
ARM GAS  C:\Users\chemi\AppData\Local\Temp\ccFrP3K3.s 			page 332


 16491      74657200 
 16492              	.LASF447:
 16493 05ee 4144435F 		.ascii	"ADC_active_sample_buf\000"
 16493      61637469 
 16493      76655F73 
 16493      616D706C 
 16493      655F6275 
 16494              	.LASF414:
 16495 0604 434D445F 		.ascii	"CMD_calib\000"
 16495      63616C69 
 16495      6200
 16496              	.LASF359:
 16497 060e 63616C4D 		.ascii	"calMin\000"
 16497      696E00
 16498              	.LASF443:
 16499 0615 6D696E5F 		.ascii	"min_ctx\000"
 16499      63747800 
 16500              	.LASF367:
 16501 061d 6368616E 		.ascii	"changed\000"
 16501      67656400 
 16502              	.LASF363:
 16503 0625 48574761 		.ascii	"HWGauge_s\000"
 16503      7567655F 
 16503      7300
 16504              	.LASF510:
 16505 062f 52656C61 		.ascii	"Relay3_Read\000"
 16505      79335F52 
 16505      65616400 
 16506              	.LASF31:
 16507 063b 51756575 		.ascii	"QueueHandle_t\000"
 16507      6548616E 
 16507      646C655F 
 16507      7400
 16508              	.LASF3:
 16509 0649 7369676E 		.ascii	"signed char\000"
 16509      65642063 
 16509      68617200 
 16510              	.LASF495:
 16511 0655 616C6172 		.ascii	"alarm_push\000"
 16511      6D5F7075 
 16511      736800
 16512              	.LASF18:
 16513 0660 75696E74 		.ascii	"uint8_t\000"
 16513      385F7400 
 16514              	.LASF313:
 16515 0668 68696768 		.ascii	"high_res\000"
 16515      5F726573 
 16515      00
 16516              	.LASF181:
 16517 0671 6374325F 		.ascii	"ct2_type\000"
 16517      74797065 
 16517      00
 16518              	.LASF520:
 16519 067a 61626F72 		.ascii	"abort\000"
 16519      7400
 16520              	.LASF178:
 16521 0680 6175746F 		.ascii	"autotune_s\000"
ARM GAS  C:\Users\chemi\AppData\Local\Temp\ccFrP3K3.s 			page 333


 16521      74756E65 
 16521      5F7300
 16522              	.LASF243:
 16523 068b 494E5452 		.ascii	"INTR_DMA_DDS\000"
 16523      5F444D41 
 16523      5F444453 
 16523      00
 16524              	.LASF184:
 16525 0698 6374325F 		.ascii	"ct2_offset\000"
 16525      6F666673 
 16525      657400
 16526              	.LASF236:
 16527 06a3 6D696E5F 		.ascii	"min_tr_cl_dac_val\000"
 16527      74725F63 
 16527      6C5F6461 
 16527      635F7661 
 16527      6C00
 16528              	.LASF223:
 16529 06b5 73796E74 		.ascii	"synth\000"
 16529      6800
 16530              	.LASF409:
 16531 06bb 63616C6C 		.ascii	"callback_DefaultFunction\000"
 16531      6261636B 
 16531      5F446566 
 16531      61756C74 
 16531      46756E63 
 16532              	.LASF6:
 16533 06d4 756E7369 		.ascii	"unsigned char\000"
 16533      676E6564 
 16533      20636861 
 16533      7200
 16534              	.LASF289:
 16535 06e2 72785F68 		.ascii	"rx_header_bytes_seen\000"
 16535      65616465 
 16535      725F6279 
 16535      7465735F 
 16535      7365656E 
 16536              	.LASF452:
 16537 06f7 5349445F 		.ascii	"SID_filterData\000"
 16537      66696C74 
 16537      65724461 
 16537      746100
 16538              	.LASF157:
 16539 0706 6D696E5F 		.ascii	"min_tr_current\000"
 16539      74725F63 
 16539      75727265 
 16539      6E7400
 16540              	.LASF202:
 16541 0715 636F6D70 		.ascii	"compressor_attac\000"
 16541      72657373 
 16541      6F725F61 
 16541      74746163 
 16541      00
 16542              	.LASF457:
 16543 0726 636F6E66 		.ascii	"configure_ZCD_to_PWM\000"
 16543      69677572 
 16543      655F5A43 
ARM GAS  C:\Users\chemi\AppData\Local\Temp\ccFrP3K3.s 			page 334


 16543      445F746F 
 16543      5F50574D 
 16544              	.LASF303:
 16545 073b 5F74696D 		.ascii	"_time\000"
 16545      6500
 16546              	.LASF49:
 16547 0741 5F565431 		.ascii	"_VT100_ERASE_LINE\000"
 16547      30305F45 
 16547      52415345 
 16547      5F4C494E 
 16547      4500
 16548              	.LASF473:
 16549 0753 55415254 		.ascii	"UART_Start\000"
 16549      5F537461 
 16549      727400
 16550              	.LASF192:
 16551 075e 6E74635F 		.ascii	"ntc_b\000"
 16551      6200
 16552              	.LASF114:
 16553 0764 696E7075 		.ascii	"inputStream\000"
 16553      74537472 
 16553      65616D00 
 16554              	.LASF335:
 16555 0770 765F6275 		.ascii	"v_bus\000"
 16555      7300
 16556              	.LASF296:
 16557 0776 74785F68 		.ascii	"tx_header_byte_countdown\000"
 16557      65616465 
 16557      725F6279 
 16557      74655F63 
 16557      6F756E74 
 16558              	.LASF351:
 16559 078f 75706461 		.ascii	"update\000"
 16559      746500
 16560              	.LASF189:
 16561 0796 69735F71 		.ascii	"is_qcw\000"
 16561      637700
 16562              	.LASF494:
 16563 079d 73797366 		.ascii	"sysflt_clr\000"
 16563      6C745F63 
 16563      6C7200
 16564              	.LASF91:
 16565 07a8 65736353 		.ascii	"escSeqBuff\000"
 16565      65714275 
 16565      666600
 16566              	.LASF235:
 16567 07b3 6D696E5F 		.ascii	"min_tr_prd\000"
 16567      74725F70 
 16567      726400
 16568              	.LASF171:
 16569 07be 74656D70 		.ascii	"temp2_setpoint\000"
 16569      325F7365 
 16569      74706F69 
 16569      6E7400
 16570              	.LASF196:
 16571 07cd 75766C6F 		.ascii	"uvlo_analog\000"
 16571      5F616E61 
ARM GAS  C:\Users\chemi\AppData\Local\Temp\ccFrP3K3.s 			page 335


 16571      6C6F6700 
 16572              	.LASF95:
 16573 07d9 5465726D 		.ascii	"TermCommandDescriptor\000"
 16573      436F6D6D 
 16573      616E6444 
 16573      65736372 
 16573      6970746F 
 16574              	.LASF47:
 16575 07ef 5F565431 		.ascii	"_VT100_HIDDEN\000"
 16575      30305F48 
 16575      49444445 
 16575      4E00
 16576              	.LASF346:
 16577 07fd 53594E54 		.ascii	"SYNTH_SID_QCW\000"
 16577      485F5349 
 16577      445F5143 
 16577      5700
 16578              	.LASF372:
 16579 080b 6368616E 		.ascii	"channelVolume\000"
 16579      6E656C56 
 16579      6F6C756D 
 16579      6500
 16580              	.LASF144:
 16581 0819 76616C75 		.ascii	"value\000"
 16581      6500
 16582              	.LASF298:
 16583 081f 72656D6F 		.ascii	"remote_rx_space\000"
 16583      74655F72 
 16583      785F7370 
 16583      61636500 
 16584              	.LASF383:
 16585 082f 70617261 		.ascii	"params\000"
 16585      6D7300
 16586              	.LASF25:
 16587 0836 63686172 		.ascii	"char\000"
 16587      00
 16588              	.LASF59:
 16589 083b 5F565431 		.ascii	"_VT100_CURSOR_SAVE_POSITION\000"
 16589      30305F43 
 16589      5552534F 
 16589      525F5341 
 16589      56455F50 
 16590              	.LASF499:
 16591 0857 45455052 		.ascii	"EEPROM_1_UpdateTemperature\000"
 16591      4F4D5F31 
 16591      5F557064 
 16591      61746554 
 16591      656D7065 
 16592              	.LASF70:
 16593 0872 5F565431 		.ascii	"_VT100_YELLOW\000"
 16593      30305F59 
 16593      454C4C4F 
 16593      5700
 16594              	.LASF480:
 16595 0880 5445524D 		.ascii	"TERM_getVT100Code\000"
 16595      5F676574 
 16595      56543130 
ARM GAS  C:\Users\chemi\AppData\Local\Temp\ccFrP3K3.s 			page 336


 16595      30436F64 
 16595      6500
 16596              	.LASF456:
 16597 0892 73797366 		.ascii	"sysflt_set\000"
 16597      6C745F73 
 16597      657400
 16598              	.LASF450:
 16599 089d 68774761 		.ascii	"hwGauges\000"
 16599      75676573 
 16599      00
 16600              	.LASF198:
 16601 08a6 68775F72 		.ascii	"hw_rev\000"
 16601      657600
 16602              	.LASF283:
 16603 08ad 736E5F6D 		.ascii	"sn_max\000"
 16603      617800
 16604              	.LASF106:
 16605 08b4 5465726D 		.ascii	"TermCommandFunction\000"
 16605      436F6D6D 
 16605      616E6446 
 16605      756E6374 
 16605      696F6E00 
 16606              	.LASF155:
 16607 08c8 6D61785F 		.ascii	"max_qcw_pw\000"
 16607      7163775F 
 16607      707700
 16608              	.LASF108:
 16609 08d3 5465726D 		.ascii	"TermErrorPrinter\000"
 16609      4572726F 
 16609      72507269 
 16609      6E746572 
 16609      00
 16610              	.LASF365:
 16611 08e4 48574761 		.ascii	"HWGauge\000"
 16611      75676500 
 16612              	.LASF34:
 16613 08ec 53656D61 		.ascii	"SemaphoreHandle_t\000"
 16613      70686F72 
 16613      6548616E 
 16613      646C655F 
 16613      7400
 16614              	.LASF9:
 16615 08fe 5F5F7569 		.ascii	"__uint16_t\000"
 16615      6E743136 
 16615      5F7400
 16616              	.LASF387:
 16617 0909 7369676E 		.ascii	"signal\000"
 16617      616C00
 16618              	.LASF428:
 16619 0910 434D445F 		.ascii	"CMD_load_defaults\000"
 16619      6C6F6164 
 16619      5F646566 
 16619      61756C74 
 16619      7300
 16620              	.LASF185:
 16621 0922 725F746F 		.ascii	"r_top\000"
 16621      7000
ARM GAS  C:\Users\chemi\AppData\Local\Temp\ccFrP3K3.s 			page 337


 16622              	.LASF97:
 16623 0928 5F5F5465 		.ascii	"__TermCommandDescriptor__\000"
 16623      726D436F 
 16623      6D6D616E 
 16623      64446573 
 16623      63726970 
 16624              	.LASF516:
 16625 0942 433A5C55 		.ascii	"C:\\Users\\chemi\\UD3_QCW\\UD3_QFN.cydsn\000"
 16625      73657273 
 16625      5C636865 
 16625      6D695C55 
 16625      44335F51 
 16626              	.LASF361:
 16627 0967 7363616C 		.ascii	"scalMin\000"
 16627      4D696E00 
 16628              	.LASF96:
 16629 096f 5F5F5445 		.ascii	"__TERMINAL_HANDLE__\000"
 16629      524D494E 
 16629      414C5F48 
 16629      414E444C 
 16629      455F5F00 
 16630              	.LASF490:
 16631 0983 74736B5F 		.ascii	"tsk_midi_kill\000"
 16631      6D696469 
 16631      5F6B696C 
 16631      6C00
 16632              	.LASF492:
 16633 0991 696E7465 		.ascii	"interrupter_unkill\000"
 16633      72727570 
 16633      7465725F 
 16633      756E6B69 
 16633      6C6C00
 16634              	.LASF158:
 16635 09a4 6D61785F 		.ascii	"max_qcw_current\000"
 16635      7163775F 
 16635      63757272 
 16635      656E7400 
 16636              	.LASF73:
 16637 09b4 5F565431 		.ascii	"_VT100_CYAN\000"
 16637      30305F43 
 16637      59414E00 
 16638              	.LASF213:
 16639 09c0 6F666674 		.ascii	"offtime\000"
 16639      696D6500 
 16640              	.LASF374:
 16641 09c8 666C6167 		.ascii	"flags\000"
 16641      7300
 16642              	.LASF479:
 16643 09ce 67657463 		.ascii	"getch\000"
 16643      6800
 16644              	.LASF397:
 16645 09d4 63616C6C 		.ascii	"callback_TTupdateFunction\000"
 16645      6261636B 
 16645      5F545475 
 16645      70646174 
 16645      6546756E 
 16646              	.LASF56:
ARM GAS  C:\Users\chemi\AppData\Local\Temp\ccFrP3K3.s 			page 338


 16647 09ee 5F565431 		.ascii	"_VT100_CURSOR_FORWARD_BY\000"
 16647      30305F43 
 16647      5552534F 
 16647      525F464F 
 16647      52574152 
 16648              	.LASF477:
 16649 0a07 63616C6C 		.ascii	"callback_ext_interrupter\000"
 16649      6261636B 
 16649      5F657874 
 16649      5F696E74 
 16649      65727275 
 16650              	.LASF251:
 16651 0a20 696E7465 		.ascii	"interrupter_modulation\000"
 16651      72727570 
 16651      7465725F 
 16651      6D6F6475 
 16651      6C617469 
 16652              	.LASF168:
 16653 0a37 6D61785F 		.ascii	"max_tr_duty\000"
 16653      74725F64 
 16653      75747900 
 16654              	.LASF416:
 16655 0a43 61636375 		.ascii	"accu\000"
 16655      00
 16656              	.LASF395:
 16657 0a48 6D61785F 		.ascii	"max_current_meas\000"
 16657      63757272 
 16657      656E745F 
 16657      6D656173 
 16657      00
 16658              	.LASF79:
 16659 0a59 63757272 		.ascii	"currBufferLength\000"
 16659      42756666 
 16659      65724C65 
 16659      6E677468 
 16659      00
 16660              	.LASF252:
 16661 0a6a 494E5452 		.ascii	"INTR_MOD_PW\000"
 16661      5F4D4F44 
 16661      5F505700 
 16662              	.LASF417:
 16663 0a76 73616D70 		.ascii	"sample\000"
 16663      6C6500
 16664              	.LASF113:
 16665 0a7d 7261775F 		.ascii	"raw_input\000"
 16665      696E7075 
 16665      7400
 16666              	.LASF320:
 16667 0a87 64726976 		.ascii	"driver_v\000"
 16667      65725F76 
 16667      00
 16668              	.LASF454:
 16669 0a90 696E6974 		.ascii	"init_tt\000"
 16669      5F747400 
 16670              	.LASF369:
 16671 0a98 73746F70 		.ascii	"stop_index\000"
 16671      5F696E64 
ARM GAS  C:\Users\chemi\AppData\Local\Temp\ccFrP3K3.s 			page 339


 16671      657800
 16672              	.LASF274:
 16673 0aa3 6372635F 		.ascii	"crc_fails\000"
 16673      6661696C 
 16673      7300
 16674              	.LASF493:
 16675 0aad 72657365 		.ascii	"reset_fault\000"
 16675      745F6661 
 16675      756C7400 
 16676              	.LASF273:
 16677 0ab9 72657365 		.ascii	"resets_received\000"
 16677      74735F72 
 16677      65636569 
 16677      76656400 
 16678              	.LASF256:
 16679 0ac9 646D615F 		.ascii	"dma_mode\000"
 16679      6D6F6465 
 16679      00
 16680              	.LASF362:
 16681 0ad2 7363616C 		.ascii	"scalMax\000"
 16681      4D617800 
 16682              	.LASF64:
 16683 0ada 5F565431 		.ascii	"_VT100_CLS\000"
 16683      30305F43 
 16683      4C5300
 16684              	.LASF61:
 16685 0ae5 5F565431 		.ascii	"_VT100_CURSOR_ENABLE\000"
 16685      30305F43 
 16685      5552534F 
 16685      525F454E 
 16685      41424C45 
 16686              	.LASF74:
 16687 0afa 5F565431 		.ascii	"_VT100_WHITE\000"
 16687      30305F57 
 16687      48495445 
 16687      00
 16688              	.LASF317:
 16689 0b07 5F5F7465 		.ascii	"__tele_human__\000"
 16689      6C655F68 
 16689      756D616E 
 16689      5F5F00
 16690              	.LASF111:
 16691 0b16 7461736B 		.ascii	"task\000"
 16691      00
 16692              	.LASF353:
 16693 0b1b 696E7465 		.ascii	"interlock\000"
 16693      726C6F63 
 16693      6B00
 16694              	.LASF420:
 16695 0b25 62756666 		.ascii	"buffer\000"
 16695      657200
 16696              	.LASF458:
 16697 0b2c 64636463 		.ascii	"dcdc_ena_Write\000"
 16697      5F656E61 
 16697      5F577269 
 16697      746500
 16698              	.LASF446:
ARM GAS  C:\Users\chemi\AppData\Local\Temp\ccFrP3K3.s 			page 340


 16699 0b3b 6275735F 		.ascii	"bus_command\000"
 16699      636F6D6D 
 16699      616E6400 
 16700              	.LASF89:
 16701 0b47 63757272 		.ascii	"currHistoryReadPosition\000"
 16701      48697374 
 16701      6F727952 
 16701      65616450 
 16701      6F736974 
 16702              	.LASF278:
 16703 0b5f 6E5F6672 		.ascii	"n_frames\000"
 16703      616D6573 
 16703      00
 16704              	.LASF472:
 16705 0b68 55415254 		.ascii	"UART_CLK_SetDividerRegister\000"
 16705      5F434C4B 
 16705      5F536574 
 16705      44697669 
 16705      64657252 
 16706              	.LASF152:
 16707 0b84 77617463 		.ascii	"watchdog_timeout\000"
 16707      68646F67 
 16707      5F74696D 
 16707      656F7574 
 16707      00
 16708              	.LASF57:
 16709 0b95 5F565431 		.ascii	"_VT100_CURSOR_DOWN_BY\000"
 16709      30305F43 
 16709      5552534F 
 16709      525F444F 
 16709      574E5F42 
 16710              	.LASF224:
 16711 0bab 74656D70 		.ascii	"temp_duty\000"
 16711      5F647574 
 16711      7900
 16712              	.LASF72:
 16713 0bb5 5F565431 		.ascii	"_VT100_MAGENTA\000"
 16713      30305F4D 
 16713      4147454E 
 16713      544100
 16714              	.LASF188:
 16715 0bc4 6578745F 		.ascii	"ext_interrupter\000"
 16715      696E7465 
 16715      72727570 
 16715      74657200 
 16716              	.LASF93:
 16717 0bd4 636D644C 		.ascii	"cmdListHead\000"
 16717      69737448 
 16717      65616400 
 16718              	.LASF438:
 16719 0be0 636F6E66 		.ascii	"configuration\000"
 16719      69677572 
 16719      6174696F 
 16719      6E00
 16720              	.LASF469:
 16721 0bee 666C6F6F 		.ascii	"floor\000"
 16721      7200
ARM GAS  C:\Users\chemi\AppData\Local\Temp\ccFrP3K3.s 			page 341


 16722              	.LASF78:
 16723 0bf4 63757272 		.ascii	"currBufferPosition\000"
 16723      42756666 
 16723      6572506F 
 16723      73697469 
 16723      6F6E00
 16724              	.LASF368:
 16725 0c07 696E6465 		.ascii	"index\000"
 16725      7800
 16726              	.LASF287:
 16727 0c0d 72785F63 		.ascii	"rx_checksum\000"
 16727      6865636B 
 16727      73756D00 
 16728              	.LASF208:
 16729 0c19 70617261 		.ascii	"parameter_struct\000"
 16729      6D657465 
 16729      725F7374 
 16729      72756374 
 16729      00
 16730              	.LASF247:
 16731 0c2a 494E5452 		.ascii	"INTR_MODE_BLOCKED\000"
 16731      5F4D4F44 
 16731      455F424C 
 16731      4F434B45 
 16731      4400
 16732              	.LASF161:
 16733 0c3c 6374315F 		.ascii	"ct1_ratio\000"
 16733      72617469 
 16733      6F00
 16734              	.LASF131:
 16735 0c46 504F5254 		.ascii	"PORT_TERM_MQTT\000"
 16735      5F544552 
 16735      4D5F4D51 
 16735      545400
 16736              	.LASF71:
 16737 0c55 5F565431 		.ascii	"_VT100_BLUE\000"
 16737      30305F42 
 16737      4C554500 
 16738              	.LASF388:
 16739 0c61 696E7665 		.ascii	"inverted\000"
 16739      72746564 
 16739      00
 16740              	.LASF453:
 16741 0c6a 7365745F 		.ascii	"set_visibility\000"
 16741      76697369 
 16741      62696C69 
 16741      747900
 16742              	.LASF123:
 16743 0c79 54595045 		.ascii	"TYPE_STRING\000"
 16743      5F535452 
 16743      494E4700 
 16744              	.LASF217:
 16745 0c85 7163775F 		.ascii	"qcw_max\000"
 16745      6D617800 
 16746              	.LASF286:
 16747 0c8d 72785F66 		.ascii	"rx_frame_checksum\000"
 16747      72616D65 
ARM GAS  C:\Users\chemi\AppData\Local\Temp\ccFrP3K3.s 			page 342


 16747      5F636865 
 16747      636B7375 
 16747      6D00
 16748              	.LASF14:
 16749 0c9f 6C6F6E67 		.ascii	"long unsigned int\000"
 16749      20756E73 
 16749      69676E65 
 16749      6420696E 
 16749      7400
 16750              	.LASF261:
 16751 0cb1 6C617374 		.ascii	"last_sent_time_ms\000"
 16751      5F73656E 
 16751      745F7469 
 16751      6D655F6D 
 16751      7300
 16752              	.LASF275:
 16753 0cc3 6E5F7269 		.ascii	"n_ring_buffer_bytes\000"
 16753      6E675F62 
 16753      75666665 
 16753      725F6279 
 16753      74657300 
 16754              	.LASF329:
 16755 0cd7 66726573 		.ascii	"fres\000"
 16755      00
 16756              	.LASF415:
 16757 0cdc 766F6C74 		.ascii	"voltage\000"
 16757      61676500 
 16758              	.LASF126:
 16759 0ce4 504F5254 		.ascii	"PORT_TYPE_SERIAL\000"
 16759      5F545950 
 16759      455F5345 
 16759      5249414C 
 16759      00
 16760              	.LASF292:
 16761 0cf5 72785F66 		.ascii	"rx_frame_id_control\000"
 16761      72616D65 
 16761      5F69645F 
 16761      636F6E74 
 16761      726F6C00 
 16762              	.LASF404:
 16763 0d09 75705F72 		.ascii	"up_rate\000"
 16763      61746500 
 16764              	.LASF439:
 16765 0d11 70617261 		.ascii	"param\000"
 16765      6D00
 16766              	.LASF50:
 16767 0d17 5F565431 		.ascii	"_VT100_FONT_G0\000"
 16767      30305F46 
 16767      4F4E545F 
 16767      473000
 16768              	.LASF51:
 16769 0d26 5F565431 		.ascii	"_VT100_FONT_G1\000"
 16769      30305F46 
 16769      4F4E545F 
 16769      473100
 16770              	.LASF170:
 16771 0d35 74656D70 		.ascii	"temp1_setpoint\000"
ARM GAS  C:\Users\chemi\AppData\Local\Temp\ccFrP3K3.s 			page 343


 16771      315F7365 
 16771      74706F69 
 16771      6E7400
 16772              	.LASF506:
 16773 0d44 5359535F 		.ascii	"SYS_get_rev_string\000"
 16773      6765745F 
 16773      7265765F 
 16773      73747269 
 16773      6E6700
 16774              	.LASF482:
 16775 0d57 72656164 		.ascii	"read_driver_mv\000"
 16775      5F647269 
 16775      7665725F 
 16775      6D7600
 16776              	.LASF444:
 16777 0d66 736F636B 		.ascii	"socket_info\000"
 16777      65745F69 
 16777      6E666F00 
 16778              	.LASF127:
 16779 0d72 504F5254 		.ascii	"PORT_TYPE_USB\000"
 16779      5F545950 
 16779      455F5553 
 16779      4200
 16780              	.LASF263:
 16781 0d80 7061796C 		.ascii	"payload_len\000"
 16781      6F61645F 
 16781      6C656E00 
 16782              	.LASF280:
 16783 0d8c 68656164 		.ascii	"head_idx\000"
 16783      5F696478 
 16783      00
 16784              	.LASF43:
 16785 0d95 5F565431 		.ascii	"_VT100_DIM\000"
 16785      30305F44 
 16785      494D00
 16786              	.LASF162:
 16787 0da0 6374325F 		.ascii	"ct2_ratio\000"
 16787      72617469 
 16787      6F00
 16788              	.LASF297:
 16789 0daa 72785F73 		.ascii	"rx_space\000"
 16789      70616365 
 16789      00
 16790              	.LASF148:
 16791 0db3 54696D65 		.ascii	"TimerHandle_t\000"
 16791      7248616E 
 16791      646C655F 
 16791      7400
 16792              	.LASF371:
 16793 0dc1 72616D70 		.ascii	"ramp_params\000"
 16793      5F706172 
 16793      616D7300 
 16794              	.LASF465:
 16795 0dcd 74736B5F 		.ascii	"tsk_analog_recalc_drive_top\000"
 16795      616E616C 
 16795      6F675F72 
 16795      6563616C 
ARM GAS  C:\Users\chemi\AppData\Local\Temp\ccFrP3K3.s 			page 344


 16795      635F6472 
 16796              	.LASF269:
 16797 0de9 6C617374 		.ascii	"last_received_frame_ms\000"
 16797      5F726563 
 16797      65697665 
 16797      645F6672 
 16797      616D655F 
 16798              	.LASF463:
 16799 0e00 7265636F 		.ascii	"reconfig_charge_timer\000"
 16799      6E666967 
 16799      5F636861 
 16799      7267655F 
 16799      74696D65 
 16800              	.LASF197:
 16801 0e16 76647269 		.ascii	"vdrive\000"
 16801      766500
 16802              	.LASF115:
 16803 0e1d 61726773 		.ascii	"args\000"
 16803      00
 16804              	.LASF149:
 16805 0e22 746D7254 		.ascii	"tmrTimerControl\000"
 16805      696D6572 
 16805      436F6E74 
 16805      726F6C00 
 16806              	.LASF518:
 16807 0e32 75706461 		.ascii	"update_ivo\000"
 16807      74655F69 
 16807      766F00
 16808              	.LASF146:
 16809 0e3d 63616C6C 		.ascii	"callback_function\000"
 16809      6261636B 
 16809      5F66756E 
 16809      6374696F 
 16809      6E00
 16810              	.LASF333:
 16811 0e4f 54454C45 		.ascii	"TELE_HUMAN\000"
 16811      5F48554D 
 16811      414E00
 16812              	.LASF101:
 16813 0e5a 636F6D6D 		.ascii	"commandLength\000"
 16813      616E644C 
 16813      656E6774 
 16813      6800
 16814              	.LASF194:
 16815 0e68 69646163 		.ascii	"idac\000"
 16815      00
 16816              	.LASF154:
 16817 0e6d 6D61785F 		.ascii	"max_tr_prf\000"
 16817      74725F70 
 16817      726600
 16818              	.LASF173:
 16819 0e78 7069645F 		.ascii	"pid_temp_mode\000"
 16819      74656D70 
 16819      5F6D6F64 
 16819      6500
 16820              	.LASF13:
 16821 0e86 5F5F7569 		.ascii	"__uint32_t\000"
ARM GAS  C:\Users\chemi\AppData\Local\Temp\ccFrP3K3.s 			page 345


 16821      6E743332 
 16821      5F7400
 16822              	.LASF448:
 16823 0e91 73797366 		.ascii	"sysfault\000"
 16823      61756C74 
 16823      00
 16824              	.LASF15:
 16825 0e9a 6C6F6E67 		.ascii	"long long int\000"
 16825      206C6F6E 
 16825      6720696E 
 16825      7400
 16826              	.LASF266:
 16827 0ea8 6672616D 		.ascii	"frames\000"
 16827      657300
 16828              	.LASF119:
 16829 0eaf 54595045 		.ascii	"TYPE_UNSIGNED\000"
 16829      5F554E53 
 16829      49474E45 
 16829      4400
 16830              	.LASF169:
 16831 0ebd 6D61785F 		.ascii	"max_qcw_duty\000"
 16831      7163775F 
 16831      64757479 
 16831      00
 16832              	.LASF128:
 16833 0eca 504F5254 		.ascii	"PORT_TYPE_MIN\000"
 16833      5F545950 
 16833      455F4D49 
 16833      4E00
 16834              	.LASF222:
 16835 0ed8 62757273 		.ascii	"burst_off\000"
 16835      745F6F66 
 16835      6600
 16836              	.LASF103:
 16837 0ee2 41434861 		.ascii	"ACHandler\000"
 16837      6E646C65 
 16837      7200
 16838              	.LASF2:
 16839 0eec 646F7562 		.ascii	"double\000"
 16839      6C6500
 16840              	.LASF343:
 16841 0ef3 53594E54 		.ascii	"SYNTH_SID\000"
 16841      485F5349 
 16841      4400
 16842              	.LASF183:
 16843 0efd 6374325F 		.ascii	"ct2_voltage\000"
 16843      766F6C74 
 16843      61676500 
 16844              	.LASF294:
 16845 0f09 72785F66 		.ascii	"rx_frame_length\000"
 16845      72616D65 
 16845      5F6C656E 
 16845      67746800 
 16846              	.LASF203:
 16847 0f19 636F6D70 		.ascii	"compressor_sustain\000"
 16847      72657373 
 16847      6F725F73 
ARM GAS  C:\Users\chemi\AppData\Local\Temp\ccFrP3K3.s 			page 346


 16847      75737461 
 16847      696E00
 16848              	.LASF507:
 16849 0f2c 55564C4F 		.ascii	"UVLO_Read\000"
 16849      5F526561 
 16849      6400
 16850              	.LASF234:
 16851 0f36 70776D62 		.ascii	"pwmb_start_psb_val\000"
 16851      5F737461 
 16851      72745F70 
 16851      73625F76 
 16851      616C00
 16852              	.LASF358:
 16853 0f49 74656C65 		.ascii	"tele_hash\000"
 16853      5F686173 
 16853      6800
 16854              	.LASF218:
 16855 0f53 7163775F 		.ascii	"qcw_repeat\000"
 16855      72657065 
 16855      617400
 16856              	.LASF102:
 16857 0f5e 6D696E50 		.ascii	"minPermissionLevel\000"
 16857      65726D69 
 16857      7373696F 
 16857      6E4C6576 
 16857      656C00
 16858              	.LASF140:
 16859 0f71 70617261 		.ascii	"parameter_entry_struct\000"
 16859      6D657465 
 16859      725F656E 
 16859      7472795F 
 16859      73747275 
 16860              	.LASF390:
 16861 0f88 73656E64 		.ascii	"send_signal_state_wo_new\000"
 16861      5F736967 
 16861      6E616C5F 
 16861      73746174 
 16861      655F776F 
 16862              	.LASF282:
 16863 0fa1 736E5F6D 		.ascii	"sn_min\000"
 16863      696E00
 16864              	.LASF436:
 16865 0fa8 49544D5F 		.ascii	"ITM_RxBuffer\000"
 16865      52784275 
 16865      66666572 
 16865      00
 16866              	.LASF279:
 16867 0fb5 6E5F6672 		.ascii	"n_frames_max\000"
 16867      616D6573 
 16867      5F6D6178 
 16867      00
 16868              	.LASF281:
 16869 0fc2 7461696C 		.ascii	"tail_idx\000"
 16869      5F696478 
 16869      00
 16870              	.LASF391:
 16871 0fcb 75706461 		.ascii	"update_visibilty\000"
ARM GAS  C:\Users\chemi\AppData\Local\Temp\ccFrP3K3.s 			page 347


 16871      74655F76 
 16871      69736962 
 16871      696C7479 
 16871      00
 16872              	.LASF385:
 16873 0fdc 63616C6C 		.ascii	"callback_TuneFunction\000"
 16873      6261636B 
 16873      5F54756E 
 16873      6546756E 
 16873      6374696F 
 16874              	.LASF226:
 16875 0ff2 6D61785F 		.ascii	"max_tr_cl_dac_val\000"
 16875      74725F63 
 16875      6C5F6461 
 16875      635F7661 
 16875      6C00
 16876              	.LASF517:
 16877 1004 74656C65 		.ascii	"telemetry_u\000"
 16877      6D657472 
 16877      795F7500 
 16878              	.LASF468:
 16879 1010 5359535F 		.ascii	"SYS_detect_hw_rev\000"
 16879      64657465 
 16879      63745F68 
 16879      775F7265 
 16879      7600
 16880              	.LASF60:
 16881 1022 5F565431 		.ascii	"_VT100_CURSOR_RESTORE_POSITION\000"
 16881      30305F43 
 16881      5552534F 
 16881      525F5245 
 16881      53544F52 
 16882              	.LASF338:
 16883 1041 765F6472 		.ascii	"v_driver\000"
 16883      69766572 
 16883      00
 16884              	.LASF258:
 16885 104a 696E7465 		.ascii	"interrupter_params\000"
 16885      72727570 
 16885      7465725F 
 16885      70617261 
 16885      6D7300
 16886              	.LASF241:
 16887 105d 696E7465 		.ascii	"interrupter_DMA\000"
 16887      72727570 
 16887      7465725F 
 16887      444D4100 
 16888              	.LASF476:
 16889 106d 63616C6C 		.ascii	"callback_temp_pid\000"
 16889      6261636B 
 16889      5F74656D 
 16889      705F7069 
 16889      6400
 16890              	.LASF62:
 16891 107f 5F565431 		.ascii	"_VT100_CURSOR_DISABLE\000"
 16891      30305F43 
 16891      5552534F 
ARM GAS  C:\Users\chemi\AppData\Local\Temp\ccFrP3K3.s 			page 348


 16891      525F4449 
 16891      5341424C 
 16892              	.LASF0:
 16893 1095 756E7369 		.ascii	"unsigned int\000"
 16893      676E6564 
 16893      20696E74 
 16893      00
 16894              	.LASF392:
 16895 10a2 696E6974 		.ascii	"init_tt_if_enabled\000"
 16895      5F74745F 
 16895      69665F65 
 16895      6E61626C 
 16895      656400
 16896              	.LASF432:
 16897 10b5 434D445F 		.ascii	"CMD_pwm\000"
 16897      70776D00 
 16898              	.LASF100:
 16899 10bd 636F6D6D 		.ascii	"commandDescription\000"
 16899      616E6444 
 16899      65736372 
 16899      69707469 
 16899      6F6E00
 16900              	.LASF475:
 16901 10d0 696E6974 		.ascii	"init_telemetry\000"
 16901      5F74656C 
 16901      656D6574 
 16901      727900
 16902              	.LASF399:
 16903 10df 63616C6C 		.ascii	"callback_ivoLED\000"
 16903      6261636B 
 16903      5F69766F 
 16903      4C454400 
 16904              	.LASF400:
 16905 10ef 63616C6C 		.ascii	"callback_VisibleFunction\000"
 16905      6261636B 
 16905      5F566973 
 16905      69626C65 
 16905      46756E63 
 16906              	.LASF293:
 16907 1108 72785F66 		.ascii	"rx_frame_seq\000"
 16907      72616D65 
 16907      5F736571 
 16907      00
 16908              	.LASF135:
 16909 1115 7465726D 		.ascii	"term_mode\000"
 16909      5F6D6F64 
 16909      6500
 16910              	.LASF425:
 16911 111f 434D445F 		.ascii	"CMD_set\000"
 16911      73657400 
 16912              	.LASF206:
 16913 1127 64726976 		.ascii	"drive_factor\000"
 16913      655F6661 
 16913      63746F72 
 16913      00
 16914              	.LASF336:
 16915 1134 765F6261 		.ascii	"v_batt\000"
ARM GAS  C:\Users\chemi\AppData\Local\Temp\ccFrP3K3.s 			page 349


 16915      747400
 16916              	.LASF512:
 16917 113b 46616E5F 		.ascii	"Fan_Read\000"
 16917      52656164 
 16917      00
 16918              	.LASF160:
 16919 1144 74656D70 		.ascii	"temp2_max\000"
 16919      325F6D61 
 16919      7800
 16920              	.LASF381:
 16921 114e 55415254 		.ascii	"UART_IVO_RX\000"
 16921      5F49564F 
 16921      5F525800 
 16922              	.LASF191:
 16923 115a 6D61785F 		.ascii	"max_fb_errors\000"
 16923      66625F65 
 16923      72726F72 
 16923      7300
 16924              	.LASF212:
 16925 1168 74756E65 		.ascii	"tune_delay\000"
 16925      5F64656C 
 16925      617900
 16926              	.LASF30:
 16927 1173 5461736B 		.ascii	"TaskHandle_t\000"
 16927      48616E64 
 16927      6C655F74 
 16927      00
 16928              	.LASF246:
 16929 1180 494E5452 		.ascii	"INTR_MODE_TR\000"
 16929      5F4D4F44 
 16929      455F5452 
 16929      00
 16930              	.LASF498:
 16931 118d 75706461 		.ascii	"updateDefaultFunction\000"
 16931      74654465 
 16931      6661756C 
 16931      7446756E 
 16931      6374696F 
 16932              	.LASF255:
 16933 11a3 62757273 		.ascii	"burst_state\000"
 16933      745F7374 
 16933      61746500 
 16934              	.LASF427:
 16935 11af 434D445F 		.ascii	"CMD_bus\000"
 16935      62757300 
 16936              	.LASF116:
 16937 11b7 61726743 		.ascii	"argCount\000"
 16937      6F756E74 
 16937      00
 16938              	.LASF321:
 16939 11c0 74656D70 		.ascii	"temp1\000"
 16939      3100
 16940              	.LASF322:
 16941 11c6 74656D70 		.ascii	"temp2\000"
 16941      3200
 16942              	.LASF310:
 16943 11cc 6F666673 		.ascii	"offset\000"
ARM GAS  C:\Users\chemi\AppData\Local\Temp\ccFrP3K3.s 			page 350


 16943      657400
 16944              	.LASF389:
 16945 11d3 73656E64 		.ascii	"send_signal_state_new\000"
 16945      5F736967 
 16945      6E616C5F 
 16945      73746174 
 16945      655F6E65 
 16946              	.LASF325:
 16947 11e9 62617474 		.ascii	"batt_i\000"
 16947      5F6900
 16948              	.LASF483:
 16949 11f0 5465726D 		.ascii	"Term_check_break\000"
 16949      5F636865 
 16949      636B5F62 
 16949      7265616B 
 16949      00
 16950              	.LASF77:
 16951 1201 706F7274 		.ascii	"port\000"
 16951      00
 16952              	.LASF288:
 16953 1206 74785F63 		.ascii	"tx_checksum\000"
 16953      6865636B 
 16953      73756D00 
 16954              	.LASF138:
 16955 1212 74656C65 		.ascii	"telemetry_handle\000"
 16955      6D657472 
 16955      795F6861 
 16955      6E646C65 
 16955      00
 16956              	.LASF141:
 16957 1223 70617261 		.ascii	"parameter_type\000"
 16957      6D657465 
 16957      725F7479 
 16957      706500
 16958              	.LASF341:
 16959 1232 53594E54 		.ascii	"SYNTH_OFF\000"
 16959      485F4F46 
 16959      4600
 16960              	.LASF424:
 16961 123c 434D445F 		.ascii	"CMD_get\000"
 16961      67657400 
 16962              	.LASF121:
 16963 1244 54595045 		.ascii	"TYPE_FLOAT\000"
 16963      5F464C4F 
 16963      415400
 16964              	.LASF314:
 16965 124f 67617567 		.ascii	"gauge\000"
 16965      6500
 16966              	.LASF55:
 16967 1255 5F565431 		.ascii	"_VT100_CURSOR_BACK_BY\000"
 16967      30305F43 
 16967      5552534F 
 16967      525F4241 
 16967      434B5F42 
 16968              	.LASF434:
 16969 126b 434D445F 		.ascii	"CMD_hwrev\000"
 16969      68777265 
ARM GAS  C:\Users\chemi\AppData\Local\Temp\ccFrP3K3.s 			page 351


 16969      7600
 16970              	.LASF276:
 16971 1275 6E5F7269 		.ascii	"n_ring_buffer_bytes_max\000"
 16971      6E675F62 
 16971      75666665 
 16971      725F6279 
 16971      7465735F 
 16972              	.LASF85:
 16973 128d 7072696E 		.ascii	"print\000"
 16973      7400
 16974              	.LASF164:
 16975 1293 6374325F 		.ascii	"ct2_burden\000"
 16975      62757264 
 16975      656E00
 16976              	.LASF299:
 16977 129e 5F736F63 		.ascii	"_socket_info\000"
 16977      6B65745F 
 16977      696E666F 
 16977      00
 16978              	.LASF426:
 16979 12ab 434D445F 		.ascii	"CMD_eeprom\000"
 16979      65657072 
 16979      6F6D00
 16980              	.LASF232:
 16981 12b6 70776D62 		.ascii	"pwmb_psb_prd\000"
 16981      5F707362 
 16981      5F707264 
 16981      00
 16982              	.LASF86:
 16983 12c3 63757272 		.ascii	"currUserName\000"
 16983      55736572 
 16983      4E616D65 
 16983      00
 16984              	.LASF175:
 16985 12d0 7069645F 		.ascii	"pid_temp_i\000"
 16985      74656D70 
 16985      5F6900
 16986              	.LASF486:
 16987 12db 7072696E 		.ascii	"print_param_buffer\000"
 16987      745F7061 
 16987      72616D5F 
 16987      62756666 
 16987      657200
 16988              	.LASF174:
 16989 12ee 7069645F 		.ascii	"pid_temp_p\000"
 16989      74656D70 
 16989      5F7000
 16990              	.LASF366:
 16991 12f9 6C6F6E67 		.ascii	"long double\000"
 16991      20646F75 
 16991      626C6500 
 16992              	.LASF58:
 16993 1305 5F565431 		.ascii	"_VT100_CURSOR_UP_BY\000"
 16993      30305F43 
 16993      5552534F 
 16993      525F5550 
 16993      5F425900 
ARM GAS  C:\Users\chemi\AppData\Local\Temp\ccFrP3K3.s 			page 352


 16994              	.LASF120:
 16995 1319 54595045 		.ascii	"TYPE_SIGNED\000"
 16995      5F534947 
 16995      4E454400 
 16996              	.LASF268:
 16997 1325 6C617374 		.ascii	"last_received_anything_ms\000"
 16997      5F726563 
 16997      65697665 
 16997      645F616E 
 16997      79746869 
 16998              	.LASF150:
 16999 133f 636F6E66 		.ascii	"config_struct\000"
 16999      69675F73 
 16999      74727563 
 16999      7400
 17000              	.LASF290:
 17001 134d 72785F66 		.ascii	"rx_frame_state\000"
 17001      72616D65 
 17001      5F737461 
 17001      746500
 17002              	.LASF130:
 17003 135c 504F5254 		.ascii	"PORT_TERM_TT\000"
 17003      5F544552 
 17003      4D5F5454 
 17003      00
 17004              	.LASF38:
 17005 1369 5F565431 		.ascii	"_VT100_CURSOR_END\000"
 17005      30305F43 
 17005      5552534F 
 17005      525F454E 
 17005      4400
 17006              	.LASF462:
 17007 137b 696E6974 		.ascii	"initialize_charging\000"
 17007      69616C69 
 17007      7A655F63 
 17007      68617267 
 17007      696E6700 
 17008              	.LASF384:
 17009 138f 68616E64 		.ascii	"handle\000"
 17009      6C6500
 17010              	.LASF435:
 17011 1396 434D445F 		.ascii	"CMD_signals\000"
 17011      7369676E 
 17011      616C7300 
 17012              	.LASF501:
 17013 13a2 45455052 		.ascii	"EEPROM_write_conf\000"
 17013      4F4D5F77 
 17013      72697465 
 17013      5F636F6E 
 17013      6600
 17014              	.LASF451:
 17015 13b4 72616D70 		.ascii	"ramp\000"
 17015      00
 17016              	.LASF386:
 17017 13b9 63616C6C 		.ascii	"callback_ivoUART\000"
 17017      6261636B 
 17017      5F69766F 
ARM GAS  C:\Users\chemi\AppData\Local\Temp\ccFrP3K3.s 			page 353


 17017      55415254 
 17017      00
 17018              	.LASF285:
 17019 13ca 72785F66 		.ascii	"rx_frame_payload_buf\000"
 17019      72616D65 
 17019      5F706179 
 17019      6C6F6164 
 17019      5F627566 
 17020              	.LASF302:
 17021 13df 696E666F 		.ascii	"info\000"
 17021      00
 17022              	.LASF32:
 17023 13e4 74736B54 		.ascii	"tskTaskControlBlock\000"
 17023      61736B43 
 17023      6F6E7472 
 17023      6F6C426C 
 17023      6F636B00 
 17024              	.LASF65:
 17025 13f8 76743130 		.ascii	"vt100\000"
 17025      3000
 17026              	.LASF511:
 17027 13fe 52656C61 		.ascii	"Relay4_Read\000"
 17027      79345F52 
 17027      65616400 
 17028              	.LASF413:
 17029 140a 434D445F 		.ascii	"CMD_con\000"
 17029      636F6E00 
 17030              	.LASF330:
 17031 1412 74785F64 		.ascii	"tx_datarate\000"
 17031      61746172 
 17031      61746500 
 17032              	.LASF220:
 17033 141e 7163775F 		.ascii	"qcw_vol\000"
 17033      766F6C00 
 17034              	.LASF82:
 17035 1426 6175746F 		.ascii	"autocompleteBuffer\000"
 17035      636F6D70 
 17035      6C657465 
 17035      42756666 
 17035      657200
 17036              	.LASF342:
 17037 1439 53594E54 		.ascii	"SYNTH_MIDI\000"
 17037      485F4D49 
 17037      444900
 17038              	.LASF211:
 17039 1444 74756E65 		.ascii	"tune_pw\000"
 17039      5F707700 
 17040              	.LASF4:
 17041 144c 5F5F696E 		.ascii	"__int8_t\000"
 17041      74385F74 
 17041      00
 17042              	.LASF291:
 17043 1455 72785F66 		.ascii	"rx_frame_payload_bytes\000"
 17043      72616D65 
 17043      5F706179 
 17043      6C6F6164 
 17043      5F627974 
ARM GAS  C:\Users\chemi\AppData\Local\Temp\ccFrP3K3.s 			page 354


 17044              	.LASF145:
 17045 146c 73697A65 		.ascii	"size\000"
 17045      00
 17046              	.LASF481:
 17047 1471 73747263 		.ascii	"strcmp\000"
 17047      6D7000
 17048              	.LASF16:
 17049 1478 6C6F6E67 		.ascii	"long long unsigned int\000"
 17049      206C6F6E 
 17049      6720756E 
 17049      7369676E 
 17049      65642069 
 17050              	.LASF182:
 17051 148f 6374325F 		.ascii	"ct2_current\000"
 17051      63757272 
 17051      656E7400 
 17052              	.LASF260:
 17053 149b 7472616E 		.ascii	"transport_frame\000"
 17053      73706F72 
 17053      745F6672 
 17053      616D6500 
 17054              	.LASF227:
 17055 14ab 70776D61 		.ascii	"pwma_start_prd\000"
 17055      5F737461 
 17055      72745F70 
 17055      726400
 17056              	.LASF92:
 17057 14ba 6563686F 		.ascii	"echoEnabled\000"
 17057      456E6162 
 17057      6C656400 
 17058              	.LASF99:
 17059 14c6 636F6D6D 		.ascii	"command\000"
 17059      616E6400 
 17060              	.LASF485:
 17061 14ce 73656E64 		.ascii	"send_features\000"
 17061      5F666561 
 17061      74757265 
 17061      7300
 17062              	.LASF401:
 17063 14dc 75617274 		.ascii	"uart_baudrate\000"
 17063      5F626175 
 17063      64726174 
 17063      6500
 17064              	.LASF379:
 17065 14ea 55415254 		.ascii	"UART_IVO_NONE\000"
 17065      5F49564F 
 17065      5F4E4F4E 
 17065      4500
 17066              	.LASF239:
 17067 14f8 6374325F 		.ascii	"ct2_offset_cnt\000"
 17067      6F666673 
 17067      65745F63 
 17067      6E7400
 17068              	.LASF20:
 17069 1507 75696E74 		.ascii	"uint16_t\000"
 17069      31365F74 
 17069      00
ARM GAS  C:\Users\chemi\AppData\Local\Temp\ccFrP3K3.s 			page 355


 17070              	.LASF478:
 17071 1510 5445524D 		.ascii	"TERM_sendVT100Code\000"
 17071      5F73656E 
 17071      64565431 
 17071      3030436F 
 17071      646500
 17072              	.LASF311:
 17073 1523 64697669 		.ascii	"divider\000"
 17073      64657200 
 17074              	.LASF513:
 17075 152b 4144435F 		.ascii	"ADC_CountsTo_mVolts\000"
 17075      436F756E 
 17075      7473546F 
 17075      5F6D566F 
 17075      6C747300 
 17076              	.LASF323:
 17077 153f 6275735F 		.ascii	"bus_status\000"
 17077      73746174 
 17077      757300
 17078              	.LASF151:
 17079 154a 77617463 		.ascii	"watchdog\000"
 17079      68646F67 
 17079      00
 17080              	.LASF496:
 17081 1553 7072696E 		.ascii	"print_param\000"
 17081      745F7061 
 17081      72616D00 
 17082              	.LASF270:
 17083 155f 64726F70 		.ascii	"dropped_frames\000"
 17083      7065645F 
 17083      6672616D 
 17083      657300
 17084              	.LASF264:
 17085 156e 6D696E5F 		.ascii	"min_id\000"
 17085      696400
 17086              	.LASF331:
 17087 1575 72785F64 		.ascii	"rx_datarate\000"
 17087      61746172 
 17087      61746500 
 17088              	.LASF52:
 17089 1581 5F565431 		.ascii	"_VT100_WRAP_ON\000"
 17089      30305F57 
 17089      5241505F 
 17089      4F4E00
 17090              	.LASF412:
 17091 1590 636F6E5F 		.ascii	"con_minstat\000"
 17091      6D696E73 
 17091      74617400 
 17092              	.LASF29:
 17093 159c 5469636B 		.ascii	"TickType_t\000"
 17093      54797065 
 17093      5F7400
 17094              	.LASF26:
 17095 15a7 72656738 		.ascii	"reg8\000"
 17095      00
 17096              	.LASF242:
 17097 15ac 494E5452 		.ascii	"INTR_DMA_TR\000"
ARM GAS  C:\Users\chemi\AppData\Local\Temp\ccFrP3K3.s 			page 356


 17097      5F444D41 
 17097      5F545200 
 17098              	.LASF312:
 17099 15b8 72657365 		.ascii	"resend_time\000"
 17099      6E645F74 
 17099      696D6500 
 17100              	.LASF159:
 17101 15c4 74656D70 		.ascii	"temp1_max\000"
 17101      315F6D61 
 17101      7800
 17102              	.LASF357:
 17103 15ce 76657273 		.ascii	"version\000"
 17103      696F6E00 
 17104              	.LASF267:
 17105 15d6 6C617374 		.ascii	"last_sent_ack_time_ms\000"
 17105      5F73656E 
 17105      745F6163 
 17105      6B5F7469 
 17105      6D655F6D 
 17106              	.LASF165:
 17107 15ec 6C656164 		.ascii	"lead_time\000"
 17107      5F74696D 
 17107      6500
 17108              	.LASF7:
 17109 15f6 5F5F696E 		.ascii	"__int16_t\000"
 17109      7431365F 
 17109      7400
 17110              	.LASF467:
 17111 1600 7374726E 		.ascii	"strncpy\000"
 17111      63707900 
 17112              	.LASF284:
 17113 1608 6D696E5F 		.ascii	"min_context\000"
 17113      636F6E74 
 17113      65787400 
 17114              	.LASF42:
 17115 1614 5F565431 		.ascii	"_VT100_BRIGHT\000"
 17115      30305F42 
 17115      52494748 
 17115      5400
 17116              	.LASF380:
 17117 1622 55415254 		.ascii	"UART_IVO_TX\000"
 17117      5F49564F 
 17117      5F545800 
 17118              	.LASF143:
 17119 162e 6E616D65 		.ascii	"name\000"
 17119      00
 17120              	.LASF66:
 17121 1633 636F6C6F 		.ascii	"color\000"
 17121      7200
 17122              	.LASF167:
 17123 1639 73746172 		.ascii	"start_cycles\000"
 17123      745F6379 
 17123      636C6573 
 17123      00
 17124              	.LASF382:
 17125 1646 55415254 		.ascii	"UART_IVO_RX_TX\000"
 17125      5F49564F 
ARM GAS  C:\Users\chemi\AppData\Local\Temp\ccFrP3K3.s 			page 357


 17125      5F52585F 
 17125      545800
 17126              	.LASF117:
 17127 1655 5465726D 		.ascii	"TermProgram\000"
 17127      50726F67 
 17127      72616D00 
 17128              	.LASF272:
 17129 1661 73657175 		.ascii	"sequence_mismatch_drop\000"
 17129      656E6365 
 17129      5F6D6973 
 17129      6D617463 
 17129      685F6472 
 17130              	.LASF422:
 17131 1678 434D445F 		.ascii	"CMD_bootloader\000"
 17131      626F6F74 
 17131      6C6F6164 
 17131      657200
 17132              	.LASF364:
 17133 1687 72617744 		.ascii	"rawData\000"
 17133      61746100 
 17134              	.LASF421:
 17135 168f 63757272 		.ascii	"current_parameter\000"
 17135      656E745F 
 17135      70617261 
 17135      6D657465 
 17135      7200
 17136              	.LASF464:
 17137 16a1 72656361 		.ascii	"recalc_telemetry_limits\000"
 17137      6C635F74 
 17137      656C656D 
 17137      65747279 
 17137      5F6C696D 
 17138              	.LASF262:
 17139 16b9 7061796C 		.ascii	"payload_offset\000"
 17139      6F61645F 
 17139      6F666673 
 17139      657400
 17140              	.LASF53:
 17141 16c8 5F565431 		.ascii	"_VT100_WRAP_OFF\000"
 17141      30305F57 
 17141      5241505F 
 17141      4F464600 
 17142              	.LASF504:
 17143 16d8 74656D70 		.ascii	"temp_pwm_WriteCompare1\000"
 17143      5F70776D 
 17143      5F577269 
 17143      7465436F 
 17143      6D706172 
 17144              	.LASF505:
 17145 16ef 74656D70 		.ascii	"temp_pwm_WriteCompare2\000"
 17145      5F70776D 
 17145      5F577269 
 17145      7465436F 
 17145      6D706172 
 17146              	.LASF406:
 17147 1706 75705F72 		.ascii	"up_rate_error\000"
 17147      6174655F 
ARM GAS  C:\Users\chemi\AppData\Local\Temp\ccFrP3K3.s 			page 358


 17147      6572726F 
 17147      7200
 17148              	.LASF23:
 17149 1714 75696E74 		.ascii	"uint8\000"
 17149      3800
 17150              	.LASF461:
 17151 171a 636F6E66 		.ascii	"configure_interrupter\000"
 17151      69677572 
 17151      655F696E 
 17151      74657272 
 17151      75707465 
 17152              	.LASF142:
 17153 1730 76697369 		.ascii	"visible\000"
 17153      626C6500 
 17154              	.LASF459:
 17155 1738 64696769 		.ascii	"digipot_set_voltage\000"
 17155      706F745F 
 17155      7365745F 
 17155      766F6C74 
 17155      61676500 
 17156              	.LASF195:
 17157 174c 69766F5F 		.ascii	"ivo_led\000"
 17157      6C656400 
 17158              	.LASF179:
 17159 1754 75645F6E 		.ascii	"ud_name\000"
 17159      616D6500 
 17160              	.LASF8:
 17161 175c 73686F72 		.ascii	"short int\000"
 17161      7420696E 
 17161      7400
 17162              	.LASF35:
 17163 1766 53747265 		.ascii	"StreamBufferHandle_t\000"
 17163      616D4275 
 17163      66666572 
 17163      48616E64 
 17163      6C655F74 
 17164              	.LASF423:
 17165 177b 434D445F 		.ascii	"CMD_udkill\000"
 17165      75646B69 
 17165      6C6C00
 17166              	.LASF166:
 17167 1786 73746172 		.ascii	"start_freq\000"
 17167      745F6672 
 17167      657100
 17168              	.LASF254:
 17169 1791 6D6F6465 		.ascii	"mode\000"
 17169      00
 17170              	.LASF63:
 17171 1796 5F565431 		.ascii	"_VT100_CURSOR_SET_COLUMN\000"
 17171      30305F43 
 17171      5552534F 
 17171      525F5345 
 17171      545F434F 
 17172              	.LASF137:
 17173 17af 7465726D 		.ascii	"term_block\000"
 17173      5F626C6F 
 17173      636B00
ARM GAS  C:\Users\chemi\AppData\Local\Temp\ccFrP3K3.s 			page 359


 17174              	.LASF394:
 17175 17ba 6D61785F 		.ascii	"max_current_cmp\000"
 17175      63757272 
 17175      656E745F 
 17175      636D7000 
 17176              	.LASF110:
 17177 17ca 5465726D 		.ascii	"TermAutoCompHandler\000"
 17177      4175746F 
 17177      436F6D70 
 17177      48616E64 
 17177      6C657200 
 17178              	.LASF442:
 17179 17de 6C5F7469 		.ascii	"l_time\000"
 17179      6D6500
 17180              	.LASF19:
 17181 17e5 696E7431 		.ascii	"int16_t\000"
 17181      365F7400 
 17182              	.LASF265:
 17183 17ed 7472616E 		.ascii	"transport_fifo\000"
 17183      73706F72 
 17183      745F6669 
 17183      666F00
 17184              	.LASF37:
 17185 17fc 5F565431 		.ascii	"_VT100_CURSOR_POS1\000"
 17185      30305F43 
 17185      5552534F 
 17185      525F504F 
 17185      533100
 17186              	.LASF204:
 17187 180f 636F6D70 		.ascii	"compressor_release\000"
 17187      72657373 
 17187      6F725F72 
 17187      656C6561 
 17187      736500
 17188              	.LASF318:
 17189 1822 6275735F 		.ascii	"bus_v\000"
 17189      7600
 17190              	.LASF308:
 17191 1828 5F5F7465 		.ascii	"__tele__\000"
 17191      6C655F5F 
 17191      00
 17192              	.LASF396:
 17193 1831 7366666C 		.ascii	"sfflag\000"
 17193      616700
 17194              	.LASF295:
 17195 1838 72785F63 		.ascii	"rx_control\000"
 17195      6F6E7472 
 17195      6F6C00
 17196              	.LASF344:
 17197 1843 53594E54 		.ascii	"SYNTH_TR\000"
 17197      485F5452 
 17197      00
 17198              	.LASF200:
 17199 184c 6D696E5F 		.ascii	"min_fb_current\000"
 17199      66625F63 
 17199      75727265 
 17199      6E7400
ARM GAS  C:\Users\chemi\AppData\Local\Temp\ccFrP3K3.s 			page 360


 17200              	.LASF180:
 17201 185b 62617564 		.ascii	"baudrate\000"
 17201      72617465 
 17201      00
 17202              	.LASF348:
 17203 1864 75766C6F 		.ascii	"uvlo\000"
 17203      00
 17204              	.LASF46:
 17205 1869 5F565431 		.ascii	"_VT100_REVERSE\000"
 17205      30305F52 
 17205      45564552 
 17205      534500
 17206              	.LASF139:
 17207 1878 70617261 		.ascii	"parameter_entry\000"
 17207      6D657465 
 17207      725F656E 
 17207      74727900 
 17208              	.LASF300:
 17209 1888 736F636B 		.ascii	"socket\000"
 17209      657400
 17210              	.LASF271:
 17211 188f 73707572 		.ascii	"spurious_acks\000"
 17211      696F7573 
 17211      5F61636B 
 17211      7300
 17212              	.LASF500:
 17213 189d 45455052 		.ascii	"EEPROM_check_hash\000"
 17213      4F4D5F63 
 17213      6865636B 
 17213      5F686173 
 17213      6800
 17214              	.LASF355:
 17215 18af 66656564 		.ascii	"feedback\000"
 17215      6261636B 
 17215      00
 17216              	.LASF193:
 17217 18b8 6E74635F 		.ascii	"ntc_r25\000"
 17217      72323500 
 17218              	.LASF339:
 17219 18c0 6164635F 		.ascii	"adc_sample_t\000"
 17219      73616D70 
 17219      6C655F74 
 17219      00
 17220              	.LASF449:
 17221 18cd 66656564 		.ascii	"feedback_error_cnt\000"
 17221      6261636B 
 17221      5F657272 
 17221      6F725F63 
 17221      6E7400
 17222              	.LASF238:
 17223 18e0 6964635F 		.ascii	"idc_ma_count\000"
 17223      6D615F63 
 17223      6F756E74 
 17223      00
 17224              	.LASF87:
 17225 18ed 68697374 		.ascii	"historyBuffer\000"
 17225      6F727942 
ARM GAS  C:\Users\chemi\AppData\Local\Temp\ccFrP3K3.s 			page 361


 17225      75666665 
 17225      7200
 17226              	.LASF124:
 17227 18fb 54595045 		.ascii	"TYPE_BUFFER\000"
 17227      5F425546 
 17227      46455200 
 17228              	.LASF48:
 17229 1907 5F565431 		.ascii	"_VT100_ERASE_SCREEN\000"
 17229      30305F45 
 17229      52415345 
 17229      5F534352 
 17229      45454E00 
 17230              	.LASF230:
 17231 191b 70776D62 		.ascii	"pwmb_start_cmp\000"
 17231      5F737461 
 17231      72745F63 
 17231      6D7000
 17232              	.LASF233:
 17233 192a 70776D62 		.ascii	"pwmb_psb_val\000"
 17233      5F707362 
 17233      5F76616C 
 17233      00
 17234              	.LASF187:
 17235 1937 69766F5F 		.ascii	"ivo_uart\000"
 17235      75617274 
 17235      00
 17236              	.LASF22:
 17237 1940 75696E74 		.ascii	"uint32_t\000"
 17237      33325F74 
 17237      00
 17238              	.LASF306:
 17239 1949 64696666 		.ascii	"diff_raw\000"
 17239      5F726177 
 17239      00
 17240              	.LASF327:
 17241 1952 7072696D 		.ascii	"primary_i\000"
 17241      6172795F 
 17241      6900
 17242              	.LASF133:
 17243 195c 706F7274 		.ascii	"port_struct\000"
 17243      5F737472 
 17243      75637400 
 17244              	.LASF228:
 17245 1968 70776D61 		.ascii	"pwma_start_cmp\000"
 17245      5F737461 
 17245      72745F63 
 17245      6D7000
 17246              	.LASF112:
 17247 1977 696E7075 		.ascii	"inputHandler\000"
 17247      7448616E 
 17247      646C6572 
 17247      00
 17248              	.LASF147:
 17249 1984 68656C70 		.ascii	"help\000"
 17249      00
 17250              	.LASF229:
 17251 1989 70776D62 		.ascii	"pwmb_start_prd\000"
ARM GAS  C:\Users\chemi\AppData\Local\Temp\ccFrP3K3.s 			page 362


 17251      5F737461 
 17251      72745F70 
 17251      726400
 17252              	.LASF375:
 17253 1998 6E6F6973 		.ascii	"noiseVolume\000"
 17253      65566F6C 
 17253      756D6500 
 17254              	.LASF36:
 17255 19a4 53747265 		.ascii	"StreamBufferDef_t\000"
 17255      616D4275 
 17255      66666572 
 17255      4465665F 
 17255      7400
 17256              	.LASF488:
 17257 19b6 426F6F74 		.ascii	"Bootloadable_Load\000"
 17257      6C6F6164 
 17257      61626C65 
 17257      5F4C6F61 
 17257      6400
 17258              	.LASF430:
 17259 19c8 434D445F 		.ascii	"CMD_relay\000"
 17259      72656C61 
 17259      7900
 17260              	.LASF316:
 17261 19d2 54454C45 		.ascii	"TELE\000"
 17261      00
 17262              	.LASF259:
 17263 19d7 63726333 		.ascii	"crc32_context\000"
 17263      325F636F 
 17263      6E746578 
 17263      7400
 17264              	.LASF136:
 17265 19e5 7465726D 		.ascii	"term_send_alarms\000"
 17265      5F73656E 
 17265      645F616C 
 17265      61726D73 
 17265      00
 17266              	.LASF1:
 17267 19f6 666C6F61 		.ascii	"float\000"
 17267      7400
 17268              	.LASF356:
 17269 19fc 53595346 		.ascii	"SYSFAULT\000"
 17269      41554C54 
 17269      00
 17270              	.LASF337:
 17271 1a05 695F6275 		.ascii	"i_bus\000"
 17271      7300
 17272              	.LASF332:
 17273 1a0b 64757479 		.ascii	"dutycycle\000"
 17273      6379636C 
 17273      6500
 17274              	.LASF214:
 17275 1a15 7163775F 		.ascii	"qcw_ramp\000"
 17275      72616D70 
 17275      00
 17276              	.LASF360:
 17277 1a1e 63616C4D 		.ascii	"calMax\000"
ARM GAS  C:\Users\chemi\AppData\Local\Temp\ccFrP3K3.s 			page 363


 17277      617800
 17278              	.LASF199:
 17279 1a25 6175746F 		.ascii	"autostart\000"
 17279      73746172 
 17279      7400
 17280              	.LASF350:
 17281 1a2f 63686172 		.ascii	"charge\000"
 17281      676500
 17282              	.LASF76:
 17283 1a36 696E7075 		.ascii	"inputBuffer\000"
 17283      74427566 
 17283      66657200 
 17284              	.LASF186:
 17285 1a42 63686172 		.ascii	"chargedelay\000"
 17285      67656465 
 17285      6C617900 
 17286              	.LASF11:
 17287 1a4e 5F5F696E 		.ascii	"__int32_t\000"
 17287      7433325F 
 17287      7400
 17288              	.LASF257:
 17289 1a58 78427572 		.ascii	"xBurst_Timer\000"
 17289      73745F54 
 17289      696D6572 
 17289      00
 17290              	.LASF410:
 17291 1a65 636F6E5F 		.ascii	"con_info\000"
 17291      696E666F 
 17291      00
 17292              	.LASF118:
 17293 1a6e 636C695F 		.ascii	"cli_types\000"
 17293      74797065 
 17293      7300
 17294              	.LASF470:
 17295 1a78 6365696C 		.ascii	"ceil\000"
 17295      00
 17296              	.LASF460:
 17297 1a7d 57445F65 		.ascii	"WD_enable\000"
 17297      6E61626C 
 17297      6500
 17298              	.LASF377:
 17299 1a87 53494446 		.ascii	"SIDFilterData_t\000"
 17299      696C7465 
 17299      72446174 
 17299      615F7400 
 17300              	.LASF509:
 17301 1a97 52656C61 		.ascii	"Relay2_Read\000"
 17301      79325F52 
 17301      65616400 
 17302              	.LASF418:
 17303 1aa3 434D445F 		.ascii	"CMD_features\000"
 17303      66656174 
 17303      75726573 
 17303      00
 17304              	.LASF354:
 17305 1ab0 6C696E6B 		.ascii	"link_state\000"
 17305      5F737461 
ARM GAS  C:\Users\chemi\AppData\Local\Temp\ccFrP3K3.s 			page 364


 17305      746500
 17306              	.LASF407:
 17307 1abb 65657072 		.ascii	"eeprom_load\000"
 17307      6F6D5F6C 
 17307      6F616400 
 17308              	.LASF370:
 17309 1ac7 64617461 		.ascii	"data\000"
 17309      00
 17310              	.LASF75:
 17311 1acc 5445524D 		.ascii	"TERMINAL_HANDLE\000"
 17311      494E414C 
 17311      5F48414E 
 17311      444C4500 
 17312              	.LASF431:
 17313 1adc 725F6E75 		.ascii	"r_number\000"
 17313      6D626572 
 17313      00
 17314              	.LASF24:
 17315 1ae5 75696E74 		.ascii	"uint16\000"
 17315      313600
 17316              	.LASF440:
 17317 1aec 6374315F 		.ascii	"ct1_dac_val\000"
 17317      6461635F 
 17317      76616C00 
 17318              	.LASF349:
 17319 1af8 66757365 		.ascii	"fuse\000"
 17319      00
 17320              	.LASF156:
 17321 1afd 6D61785F 		.ascii	"max_tr_current\000"
 17321      74725F63 
 17321      75727265 
 17321      6E7400
 17322              	.LASF307:
 17323 1b0c 72657379 		.ascii	"resync\000"
 17323      6E6300
 17324              	.LASF163:
 17325 1b13 6374315F 		.ascii	"ct1_burden\000"
 17325      62757264 
 17325      656E00
 17326              	.LASF153:
 17327 1b1e 6D61785F 		.ascii	"max_tr_pw\000"
 17327      74725F70 
 17327      7700
 17328              		.ident	"GCC: (GNU Tools for ARM Embedded Processors) 5.4.1 20160609 (release) [ARM/embedded-5-bran
