ARM GAS  C:\Users\chemi\AppData\Local\Temp\ccHerMgL.s 			page 1


   1              		.syntax unified
   2              		.cpu cortex-m3
   3              		.fpu softvfp
   4              		.eabi_attribute 20, 1
   5              		.eabi_attribute 21, 1
   6              		.eabi_attribute 23, 3
   7              		.eabi_attribute 24, 1
   8              		.eabi_attribute 25, 1
   9              		.eabi_attribute 26, 1
  10              		.eabi_attribute 30, 4
  11              		.eabi_attribute 34, 1
  12              		.eabi_attribute 18, 4
  13              		.thumb
  14              		.syntax unified
  15              		.file	"cli_basic.c"
  16              		.text
  17              	.Ltext0:
  18              		.cfi_sections	.debug_frame
  19              		.section	.text.n_number,"ax",%progbits
  20              		.align	1
  21              		.global	n_number
  22              		.thumb
  23              		.thumb_func
  24              		.type	n_number, %function
  25              	n_number:
  26              	.LFB68:
  27              		.file 1 "..\\common\\ud3core\\cli_basic.c"
   1:..\common\ud3core/cli_basic.c **** /*
   2:..\common\ud3core/cli_basic.c ****  * UD3
   3:..\common\ud3core/cli_basic.c ****  *
   4:..\common\ud3core/cli_basic.c ****  * Copyright (c) 2018 Jens Kerrinnes
   5:..\common\ud3core/cli_basic.c ****  * Copyright (c) 2015 Steve Ward
   6:..\common\ud3core/cli_basic.c ****  *
   7:..\common\ud3core/cli_basic.c ****  * Permission is hereby granted, free of charge, to any person obtaining a copy of
   8:..\common\ud3core/cli_basic.c ****  * this software and associated documentation files (the "Software"), to deal in
   9:..\common\ud3core/cli_basic.c ****  * the Software without restriction, including without limitation the rights to
  10:..\common\ud3core/cli_basic.c ****  * use, copy, modify, merge, publish, distribute, sublicense, and/or sell copies of
  11:..\common\ud3core/cli_basic.c ****  * the Software, and to permit persons to whom the Software is furnished to do so,
  12:..\common\ud3core/cli_basic.c ****  * subject to the following conditions:
  13:..\common\ud3core/cli_basic.c ****  *
  14:..\common\ud3core/cli_basic.c ****  * The above copyright notice and this permission notice shall be included in all
  15:..\common\ud3core/cli_basic.c ****  * copies or substantial portions of the Software.
  16:..\common\ud3core/cli_basic.c ****  *
  17:..\common\ud3core/cli_basic.c ****  * THE SOFTWARE IS PROVIDED "AS IS", WITHOUT WARRANTY OF ANY KIND, EXPRESS OR
  18:..\common\ud3core/cli_basic.c ****  * IMPLIED, INCLUDING BUT NOT LIMITED TO THE WARRANTIES OF MERCHANTABILITY, FITNESS
  19:..\common\ud3core/cli_basic.c ****  * FOR A PARTICULAR PURPOSE AND NONINFRINGEMENT. IN NO EVENT SHALL THE AUTHORS OR
  20:..\common\ud3core/cli_basic.c ****  * COPYRIGHT HOLDERS BE LIABLE FOR ANY CLAIM, DAMAGES OR OTHER LIABILITY, WHETHER
  21:..\common\ud3core/cli_basic.c ****  * IN AN ACTION OF CONTRACT, TORT OR OTHERWISE, ARISING FROM, OUT OF OR IN
  22:..\common\ud3core/cli_basic.c ****  * CONNECTION WITH THE SOFTWARE OR THE USE OR OTHER DEALINGS IN THE SOFTWARE.
  23:..\common\ud3core/cli_basic.c **** */
  24:..\common\ud3core/cli_basic.c **** #include "tasks/tsk_cli.h"
  25:..\common\ud3core/cli_basic.c **** #include "cli_basic.h"
  26:..\common\ud3core/cli_basic.c **** #include "helper/printf.h"
  27:..\common\ud3core/cli_basic.c **** #include <stdlib.h>
  28:..\common\ud3core/cli_basic.c **** #include <device.h>
  29:..\common\ud3core/cli_basic.c **** #include "TTerm.h"
  30:..\common\ud3core/cli_basic.c **** #ifndef BOOT
ARM GAS  C:\Users\chemi\AppData\Local\Temp\ccHerMgL.s 			page 2


  31:..\common\ud3core/cli_basic.c **** #include "tasks/tsk_usb.h"
  32:..\common\ud3core/cli_basic.c **** #include "tasks/tsk_eth_common.h"
  33:..\common\ud3core/cli_basic.c **** #include "alarmevent.h"
  34:..\common\ud3core/cli_basic.c **** 
  35:..\common\ud3core/cli_basic.c **** #endif
  36:..\common\ud3core/cli_basic.c **** 
  37:..\common\ud3core/cli_basic.c **** uint8_t EEPROM_Read_Row(uint8_t row, uint8_t * buffer);
  38:..\common\ud3core/cli_basic.c **** uint8_t EEPROM_1_Write_Row(uint8_t row, uint8_t * buffer);
  39:..\common\ud3core/cli_basic.c **** 
  40:..\common\ud3core/cli_basic.c **** uint16_t byte_cnt;
  41:..\common\ud3core/cli_basic.c **** 
  42:..\common\ud3core/cli_basic.c **** #define EEPROM_READ_BYTE(x) EEPROM_1_ReadByte(x)
  43:..\common\ud3core/cli_basic.c **** #define EEPROM_WRITE_ROW(x,y) EEPROM_1_Write(y,x)
  44:..\common\ud3core/cli_basic.c **** 
  45:..\common\ud3core/cli_basic.c **** uint8_t n_number(uint32_t n){
  28              		.loc 1 45 0
  29              		.cfi_startproc
  30              		@ args = 0, pretend = 0, frame = 0
  31              		@ frame_needed = 0, uses_anonymous_args = 0
  32              		@ link register save eliminated.
  33              	.LVL0:
  46:..\common\ud3core/cli_basic.c ****   if(n < 100000) {
  34              		.loc 1 46 0
  35 0000 144B     		ldr	r3, .L13
  36 0002 9842     		cmp	r0, r3
  37 0004 10D8     		bhi	.L2
  47:..\common\ud3core/cli_basic.c ****     if(n < 1000) {
  38              		.loc 1 47 0
  39 0006 B0F57A7F 		cmp	r0, #1000
  40 000a 06D2     		bcs	.L3
  41              	.LVL1:
  42              	.LBB4:
  43              	.LBB5:
  48:..\common\ud3core/cli_basic.c ****       if(n < 100) {
  44              		.loc 1 48 0
  45 000c 6328     		cmp	r0, #99
  46 000e 1DD8     		bhi	.L6
  49:..\common\ud3core/cli_basic.c ****         if(n < 10)
  50:..\common\ud3core/cli_basic.c ****           return 1;
  51:..\common\ud3core/cli_basic.c ****         return 2;
  47              		.loc 1 51 0
  48 0010 0A28     		cmp	r0, #10
  49 0012 34BF     		ite	cc
  50 0014 0120     		movcc	r0, #1
  51              	.LVL2:
  52 0016 0220     		movcs	r0, #2
  53 0018 7047     		bx	lr
  54              	.LVL3:
  55              	.L3:
  56              	.LBE5:
  57              	.LBE4:
  52:..\common\ud3core/cli_basic.c ****       }
  53:..\common\ud3core/cli_basic.c ****       return 3;
  54:..\common\ud3core/cli_basic.c ****     }
  55:..\common\ud3core/cli_basic.c ****     if(n < 10000)
  56:..\common\ud3core/cli_basic.c ****       return 4;
  57:..\common\ud3core/cli_basic.c ****     else
ARM GAS  C:\Users\chemi\AppData\Local\Temp\ccHerMgL.s 			page 3


  58:..\common\ud3core/cli_basic.c ****       return 5;
  58              		.loc 1 58 0
  59 001a 42F20F73 		movw	r3, #9999
  60 001e 9842     		cmp	r0, r3
  61 0020 94BF     		ite	ls
  62 0022 0420     		movls	r0, #4
  63 0024 0520     		movhi	r0, #5
  64              	.LVL4:
  65 0026 7047     		bx	lr
  66              	.LVL5:
  67              	.L2:
  59:..\common\ud3core/cli_basic.c ****   }
  60:..\common\ud3core/cli_basic.c ****   if(n < 100000000) {
  68              		.loc 1 60 0
  69 0028 0B4B     		ldr	r3, .L13+4
  70 002a 9842     		cmp	r0, r3
  71 002c 08D8     		bhi	.L5
  61:..\common\ud3core/cli_basic.c ****     if(n < 10000000) {
  72              		.loc 1 61 0
  73 002e 0B4B     		ldr	r3, .L13+8
  74 0030 9842     		cmp	r0, r3
  75 0032 0DD8     		bhi	.L9
  62:..\common\ud3core/cli_basic.c ****       if(n < 1000000)
  63:..\common\ud3core/cli_basic.c ****         return 6;
  64:..\common\ud3core/cli_basic.c ****       return 7;
  76              		.loc 1 64 0
  77 0034 0A4B     		ldr	r3, .L13+12
  78 0036 9842     		cmp	r0, r3
  79 0038 94BF     		ite	ls
  80 003a 0620     		movls	r0, #6
  81 003c 0720     		movhi	r0, #7
  82              	.LVL6:
  83 003e 7047     		bx	lr
  84              	.LVL7:
  85              	.L5:
  65:..\common\ud3core/cli_basic.c ****     }
  66:..\common\ud3core/cli_basic.c ****     return 8;
  67:..\common\ud3core/cli_basic.c ****   }
  68:..\common\ud3core/cli_basic.c ****   if(n < 1000000000)
  69:..\common\ud3core/cli_basic.c ****     return 9;
  70:..\common\ud3core/cli_basic.c ****   else
  71:..\common\ud3core/cli_basic.c ****     return 10;   
  86              		.loc 1 71 0
  87 0040 084B     		ldr	r3, .L13+16
  88 0042 9842     		cmp	r0, r3
  89 0044 94BF     		ite	ls
  90 0046 0920     		movls	r0, #9
  91 0048 0A20     		movhi	r0, #10
  92              	.LVL8:
  93 004a 7047     		bx	lr
  94              	.LVL9:
  95              	.L6:
  96              	.LBB7:
  97              	.LBB6:
  53:..\common\ud3core/cli_basic.c ****     }
  98              		.loc 1 53 0
  99 004c 0320     		movs	r0, #3
ARM GAS  C:\Users\chemi\AppData\Local\Temp\ccHerMgL.s 			page 4


 100              	.LVL10:
 101 004e 7047     		bx	lr
 102              	.LVL11:
 103              	.L9:
 104              	.LBE6:
 105              	.LBE7:
  66:..\common\ud3core/cli_basic.c ****   }
 106              		.loc 1 66 0
 107 0050 0820     		movs	r0, #8
 108              	.LVL12:
  72:..\common\ud3core/cli_basic.c **** }
 109              		.loc 1 72 0
 110 0052 7047     		bx	lr
 111              	.L14:
 112              		.align	2
 113              	.L13:
 114 0054 9F860100 		.word	99999
 115 0058 FFE0F505 		.word	99999999
 116 005c 7F969800 		.word	9999999
 117 0060 3F420F00 		.word	999999
 118 0064 FFC99A3B 		.word	999999999
 119              		.cfi_endproc
 120              	.LFE68:
 121              		.size	n_number, .-n_number
 122              		.global	__aeabi_i2f
 123              		.global	__aeabi_fmul
 124              		.global	__aeabi_f2iz
 125              		.global	__aeabi_fcmpge
 126              		.global	__aeabi_fcmple
 127              		.section	.text.updateDefaultFunction,"ax",%progbits
 128              		.align	1
 129              		.global	updateDefaultFunction
 130              		.thumb
 131              		.thumb_func
 132              		.type	updateDefaultFunction, %function
 133              	updateDefaultFunction:
 134              	.LFB69:
  73:..\common\ud3core/cli_basic.c **** 
  74:..\common\ud3core/cli_basic.c **** uint8_t updateDefaultFunction(parameter_entry * params, char * newValue, uint8_t index, TERMINAL_HA
 135              		.loc 1 74 0
 136              		.cfi_startproc
 137              		@ args = 0, pretend = 0, frame = 8
 138              		@ frame_needed = 0, uses_anonymous_args = 0
 139              	.LVL13:
 140 0000 F0B5     		push	{r4, r5, r6, r7, lr}
 141              		.cfi_def_cfa_offset 20
 142              		.cfi_offset 4, -20
 143              		.cfi_offset 5, -16
 144              		.cfi_offset 6, -12
 145              		.cfi_offset 7, -8
 146              		.cfi_offset 14, -4
  75:..\common\ud3core/cli_basic.c ****     int32_t value;
  76:..\common\ud3core/cli_basic.c ****     float fvalue;
  77:..\common\ud3core/cli_basic.c ****     char* ch_ptr;
  78:..\common\ud3core/cli_basic.c ****     switch (params[index].type){
 147              		.loc 1 78 0
 148 0002 2424     		movs	r4, #36
ARM GAS  C:\Users\chemi\AppData\Local\Temp\ccHerMgL.s 			page 5


 149 0004 04FB0204 		mla	r4, r4, r2, r0
 150 0008 657B     		ldrb	r5, [r4, #13]	@ zero_extendqisi2
  74:..\common\ud3core/cli_basic.c ****     int32_t value;
 151              		.loc 1 74 0
 152 000a 85B0     		sub	sp, sp, #20
 153              		.cfi_def_cfa_offset 40
  74:..\common\ud3core/cli_basic.c ****     int32_t value;
 154              		.loc 1 74 0
 155 000c 0E46     		mov	r6, r1
 156 000e 1F46     		mov	r7, r3
 157              		.loc 1 78 0
 158 0010 042D     		cmp	r5, #4
 159 0012 00F2A480 		bhi	.L41
 160 0016 DFE805F0 		tbb	[pc, r5]
 161              	.LVL14:
 162              	.L18:
 163 001a 06       		.byte	(.L17-.L18)/2
 164 001b 31       		.byte	(.L19-.L18)/2
 165 001c 5D       		.byte	(.L20-.L18)/2
 166 001d 79       		.byte	(.L21-.L18)/2
 167 001e 03       		.byte	(.L22-.L18)/2
 168 001f 00       		.p2align 1
 169              	.L22:
 170 0020 4E1E     		subs	r6, r1, #1
 171 0022 0023     		movs	r3, #0
 172 0024 7EE0     		b	.L23
 173              	.L17:
  79:..\common\ud3core/cli_basic.c ****     case TYPE_UNSIGNED:
  80:..\common\ud3core/cli_basic.c ****         if(params[index].div){
 174              		.loc 1 80 0
 175 0026 238B     		ldrh	r3, [r4, #24]
 176 0028 6BB1     		cbz	r3, .L24
  81:..\common\ud3core/cli_basic.c ****             fvalue=strtof(newValue,&ch_ptr);
 177              		.loc 1 81 0
 178 002a 03A9     		add	r1, sp, #12
 179              	.LVL15:
 180 002c 3046     		mov	r0, r6
 181              	.LVL16:
 182 002e FFF7FEFF 		bl	strtof
 183              	.LVL17:
 184 0032 0546     		mov	r5, r0
 185              	.LVL18:
  82:..\common\ud3core/cli_basic.c ****             value = fvalue*params[index].div;
 186              		.loc 1 82 0
 187 0034 208B     		ldrh	r0, [r4, #24]
 188              	.LVL19:
 189 0036 FFF7FEFF 		bl	__aeabi_i2f
 190              	.LVL20:
 191 003a 2946     		mov	r1, r5
 192 003c FFF7FEFF 		bl	__aeabi_fmul
 193              	.LVL21:
 194 0040 FFF7FEFF 		bl	__aeabi_f2iz
 195              	.LVL22:
 196 0044 04E0     		b	.L25
 197              	.LVL23:
 198              	.L24:
  83:..\common\ud3core/cli_basic.c ****         }else{
ARM GAS  C:\Users\chemi\AppData\Local\Temp\ccHerMgL.s 			page 6


  84:..\common\ud3core/cli_basic.c ****             value = strtoul(newValue,&ch_ptr,10);
 199              		.loc 1 84 0
 200 0046 0A22     		movs	r2, #10
 201              	.LVL24:
 202 0048 03A9     		add	r1, sp, #12
 203              	.LVL25:
 204 004a 3046     		mov	r0, r6
 205              	.LVL26:
 206 004c FFF7FEFF 		bl	strtoul
 207              	.LVL27:
 208              	.L25:
  85:..\common\ud3core/cli_basic.c ****         }
  86:..\common\ud3core/cli_basic.c ****         if (value >= params[index].min && value <= params[index].max){
 209              		.loc 1 86 0
 210 0050 2369     		ldr	r3, [r4, #16]
 211 0052 9842     		cmp	r0, r3
 212 0054 6ADB     		blt	.L26
 213              		.loc 1 86 0 is_stmt 0 discriminator 1
 214 0056 6369     		ldr	r3, [r4, #20]
 215 0058 9842     		cmp	r0, r3
 216 005a 67DC     		bgt	.L26
  87:..\common\ud3core/cli_basic.c ****             if(params[index].size==1){
 217              		.loc 1 87 0 is_stmt 1
 218 005c 257B     		ldrb	r5, [r4, #12]	@ zero_extendqisi2
 219 005e 012D     		cmp	r5, #1
 220 0060 02D1     		bne	.L27
  88:..\common\ud3core/cli_basic.c ****                 *(uint8_t*)params[index].value = value;
 221              		.loc 1 88 0
 222 0062 A368     		ldr	r3, [r4, #8]
 223 0064 1870     		strb	r0, [r3]
  89:..\common\ud3core/cli_basic.c ****                 return 1;
 224              		.loc 1 89 0
 225 0066 7BE0     		b	.L16
 226              	.L27:
  90:..\common\ud3core/cli_basic.c ****             }
  91:..\common\ud3core/cli_basic.c ****             if(params[index].size==2){
 227              		.loc 1 91 0
 228 0068 022D     		cmp	r5, #2
 229 006a 02D1     		bne	.L28
  92:..\common\ud3core/cli_basic.c ****                 *(uint16_t*)params[index].value = value;
 230              		.loc 1 92 0
 231 006c A368     		ldr	r3, [r4, #8]
 232 006e 1880     		strh	r0, [r3]	@ movhi
 233 0070 4AE0     		b	.L44
 234              	.L28:
  93:..\common\ud3core/cli_basic.c ****                 return 1;
  94:..\common\ud3core/cli_basic.c ****             }
  95:..\common\ud3core/cli_basic.c ****             if(params[index].size==4){
 235              		.loc 1 95 0
 236 0072 042D     		cmp	r5, #4
 237 0074 73D1     		bne	.L41
  96:..\common\ud3core/cli_basic.c ****                 *(uint32_t*)params[index].value = value;
 238              		.loc 1 96 0
 239 0076 A368     		ldr	r3, [r4, #8]
 240 0078 1860     		str	r0, [r3]
 241 007a 45E0     		b	.L44
 242              	.LVL28:
ARM GAS  C:\Users\chemi\AppData\Local\Temp\ccHerMgL.s 			page 7


 243              	.L19:
  97:..\common\ud3core/cli_basic.c ****                 return 1;
  98:..\common\ud3core/cli_basic.c ****             }
  99:..\common\ud3core/cli_basic.c ****         }else{
 100:..\common\ud3core/cli_basic.c ****             goto error;
 101:..\common\ud3core/cli_basic.c ****         }
 102:..\common\ud3core/cli_basic.c ****         break;
 103:..\common\ud3core/cli_basic.c ****     case TYPE_SIGNED:
 104:..\common\ud3core/cli_basic.c ****         if(params[index].div){
 244              		.loc 1 104 0
 245 007c 238B     		ldrh	r3, [r4, #24]
 246 007e 6BB1     		cbz	r3, .L30
 105:..\common\ud3core/cli_basic.c ****             fvalue=strtof(newValue,&ch_ptr);
 247              		.loc 1 105 0
 248 0080 03A9     		add	r1, sp, #12
 249              	.LVL29:
 250 0082 3046     		mov	r0, r6
 251              	.LVL30:
 252 0084 FFF7FEFF 		bl	strtof
 253              	.LVL31:
 254 0088 0646     		mov	r6, r0
 255              	.LVL32:
 106:..\common\ud3core/cli_basic.c ****             value = fvalue*params[index].div;
 256              		.loc 1 106 0
 257 008a 208B     		ldrh	r0, [r4, #24]
 258              	.LVL33:
 259 008c FFF7FEFF 		bl	__aeabi_i2f
 260              	.LVL34:
 261 0090 3146     		mov	r1, r6
 262 0092 FFF7FEFF 		bl	__aeabi_fmul
 263              	.LVL35:
 264 0096 FFF7FEFF 		bl	__aeabi_f2iz
 265              	.LVL36:
 266 009a 04E0     		b	.L31
 267              	.LVL37:
 268              	.L30:
 107:..\common\ud3core/cli_basic.c ****         }else{
 108:..\common\ud3core/cli_basic.c ****             value = strtol(newValue,&ch_ptr,10);
 269              		.loc 1 108 0
 270 009c 0A22     		movs	r2, #10
 271              	.LVL38:
 272 009e 03A9     		add	r1, sp, #12
 273              	.LVL39:
 274 00a0 3046     		mov	r0, r6
 275              	.LVL40:
 276 00a2 FFF7FEFF 		bl	strtol
 277              	.LVL41:
 278              	.L31:
 109:..\common\ud3core/cli_basic.c ****         }
 110:..\common\ud3core/cli_basic.c ****         if (value >= params[index].min && value <= params[index].max){
 279              		.loc 1 110 0
 280 00a6 2369     		ldr	r3, [r4, #16]
 281 00a8 9842     		cmp	r0, r3
 282 00aa 3FDB     		blt	.L26
 283              		.loc 1 110 0 is_stmt 0 discriminator 1
 284 00ac 6369     		ldr	r3, [r4, #20]
 285 00ae 9842     		cmp	r0, r3
ARM GAS  C:\Users\chemi\AppData\Local\Temp\ccHerMgL.s 			page 8


 286 00b0 3CDC     		bgt	.L26
 111:..\common\ud3core/cli_basic.c ****             if(params[index].size==1){
 287              		.loc 1 111 0 is_stmt 1
 288 00b2 237B     		ldrb	r3, [r4, #12]	@ zero_extendqisi2
 289 00b4 012B     		cmp	r3, #1
 290 00b6 03D1     		bne	.L32
 112:..\common\ud3core/cli_basic.c ****                 *(int8_t*)params[index].value = value;
 291              		.loc 1 112 0
 292 00b8 A268     		ldr	r2, [r4, #8]
 113:..\common\ud3core/cli_basic.c ****                 return 1;
 293              		.loc 1 113 0
 294 00ba 1D46     		mov	r5, r3
 112:..\common\ud3core/cli_basic.c ****                 *(int8_t*)params[index].value = value;
 295              		.loc 1 112 0
 296 00bc 1070     		strb	r0, [r2]
 297              		.loc 1 113 0
 298 00be 4FE0     		b	.L16
 299              	.L32:
 114:..\common\ud3core/cli_basic.c ****             }
 115:..\common\ud3core/cli_basic.c ****             if(params[index].size==2){
 300              		.loc 1 115 0
 301 00c0 022B     		cmp	r3, #2
 302 00c2 02D1     		bne	.L33
 116:..\common\ud3core/cli_basic.c ****                 *(int16_t*)params[index].value = value;
 303              		.loc 1 116 0
 304 00c4 A368     		ldr	r3, [r4, #8]
 305 00c6 1880     		strh	r0, [r3]	@ movhi
 117:..\common\ud3core/cli_basic.c ****                 return 1;
 306              		.loc 1 117 0
 307 00c8 4AE0     		b	.L16
 308              	.L33:
 118:..\common\ud3core/cli_basic.c ****             }
 119:..\common\ud3core/cli_basic.c ****             if(params[index].size==4){
 309              		.loc 1 119 0
 310 00ca 042B     		cmp	r3, #4
 311 00cc 47D1     		bne	.L41
 120:..\common\ud3core/cli_basic.c ****                 *(int32_t*)params[index].value = value;
 312              		.loc 1 120 0
 313 00ce A368     		ldr	r3, [r4, #8]
 314 00d0 1860     		str	r0, [r3]
 121:..\common\ud3core/cli_basic.c ****                 return 1;
 315              		.loc 1 121 0
 316 00d2 45E0     		b	.L16
 317              	.LVL42:
 318              	.L20:
 122:..\common\ud3core/cli_basic.c ****             }
 123:..\common\ud3core/cli_basic.c ****         }else{
 124:..\common\ud3core/cli_basic.c ****             goto error;
 125:..\common\ud3core/cli_basic.c ****         }
 126:..\common\ud3core/cli_basic.c ****         break;
 127:..\common\ud3core/cli_basic.c ****     case TYPE_FLOAT:
 128:..\common\ud3core/cli_basic.c ****             if(params[index].size==4){
 319              		.loc 1 128 0
 320 00d4 237B     		ldrb	r3, [r4, #12]	@ zero_extendqisi2
 321 00d6 042B     		cmp	r3, #4
 322 00d8 41D1     		bne	.L41
 129:..\common\ud3core/cli_basic.c ****                 fvalue=strtof(newValue,&ch_ptr);
ARM GAS  C:\Users\chemi\AppData\Local\Temp\ccHerMgL.s 			page 9


 323              		.loc 1 129 0
 324 00da 03A9     		add	r1, sp, #12
 325              	.LVL43:
 326 00dc 3046     		mov	r0, r6
 327              	.LVL44:
 328 00de FFF7FEFF 		bl	strtof
 329              	.LVL45:
 330 00e2 0546     		mov	r5, r0
 331              	.LVL46:
 130:..\common\ud3core/cli_basic.c ****                 if (fvalue >= (float)params[index].min && fvalue <= (float)params[index].max){
 332              		.loc 1 130 0
 333 00e4 2069     		ldr	r0, [r4, #16]
 334              	.LVL47:
 335 00e6 FFF7FEFF 		bl	__aeabi_i2f
 336              	.LVL48:
 337 00ea 0146     		mov	r1, r0
 338 00ec 2846     		mov	r0, r5
 339 00ee FFF7FEFF 		bl	__aeabi_fcmpge
 340              	.LVL49:
 341 00f2 D8B1     		cbz	r0, .L26
 342              		.loc 1 130 0 is_stmt 0 discriminator 1
 343 00f4 6069     		ldr	r0, [r4, #20]
 344 00f6 FFF7FEFF 		bl	__aeabi_i2f
 345              	.LVL50:
 346 00fa 0146     		mov	r1, r0
 347 00fc 2846     		mov	r0, r5
 348 00fe FFF7FEFF 		bl	__aeabi_fcmple
 349              	.LVL51:
 350 0102 98B1     		cbz	r0, .L26
 131:..\common\ud3core/cli_basic.c ****                     *(float*)params[index].value = fvalue;
 351              		.loc 1 131 0 is_stmt 1
 352 0104 A368     		ldr	r3, [r4, #8]
 353 0106 1D60     		str	r5, [r3]	@ float
 354              	.LVL52:
 355              	.L44:
 132:..\common\ud3core/cli_basic.c ****                     return 1;
 356              		.loc 1 132 0
 357 0108 0125     		movs	r5, #1
 358 010a 29E0     		b	.L16
 359              	.LVL53:
 360              	.L21:
 133:..\common\ud3core/cli_basic.c ****                 }else{
 134:..\common\ud3core/cli_basic.c ****                     goto error;
 135:..\common\ud3core/cli_basic.c ****                 }
 136:..\common\ud3core/cli_basic.c ****             }
 137:..\common\ud3core/cli_basic.c ****         break;
 138:..\common\ud3core/cli_basic.c ****     case TYPE_CHAR:
 139:..\common\ud3core/cli_basic.c ****         *(char*)params[index].value = *newValue;
 361              		.loc 1 139 0
 362 010c A368     		ldr	r3, [r4, #8]
 363 010e 0A78     		ldrb	r2, [r1]	@ zero_extendqisi2
 364              	.LVL54:
 365 0110 1A70     		strb	r2, [r3]
 366 0112 24E0     		b	.L41
 367              	.LVL55:
 368              	.L38:
 369              	.LBB8:
ARM GAS  C:\Users\chemi\AppData\Local\Temp\ccHerMgL.s 			page 10


 140:..\common\ud3core/cli_basic.c ****         break;
 141:..\common\ud3core/cli_basic.c ****     case TYPE_STRING:
 142:..\common\ud3core/cli_basic.c ****         for(int i=0;i<params[index].size;i++){
 143:..\common\ud3core/cli_basic.c ****             *(i+(char*)params[index].value) = newValue[i];
 370              		.loc 1 143 0
 371 0114 16F8011F 		ldrb	r1, [r6, #1]!	@ zero_extendqisi2
 372 0118 A268     		ldr	r2, [r4, #8]
 373 011a D154     		strb	r1, [r2, r3]
 144:..\common\ud3core/cli_basic.c ****             if(!newValue[i]) break;
 374              		.loc 1 144 0
 375 011c 3278     		ldrb	r2, [r6]	@ zero_extendqisi2
 376 011e 002A     		cmp	r2, #0
 377 0120 F2D0     		beq	.L44
 142:..\common\ud3core/cli_basic.c ****             *(i+(char*)params[index].value) = newValue[i];
 378              		.loc 1 142 0 discriminator 2
 379 0122 0133     		adds	r3, r3, #1
 380              	.LVL56:
 381              	.L23:
 142:..\common\ud3core/cli_basic.c ****             *(i+(char*)params[index].value) = newValue[i];
 382              		.loc 1 142 0 is_stmt 0 discriminator 1
 383 0124 227B     		ldrb	r2, [r4, #12]	@ zero_extendqisi2
 384 0126 9342     		cmp	r3, r2
 385 0128 F4DB     		blt	.L38
 386 012a EDE7     		b	.L44
 387              	.LVL57:
 388              	.L26:
 389              	.LDL1:
 390              	.LBE8:
 145:..\common\ud3core/cli_basic.c ****         }
 146:..\common\ud3core/cli_basic.c ****         return 1;
 147:..\common\ud3core/cli_basic.c ****         break;
 148:..\common\ud3core/cli_basic.c **** 
 149:..\common\ud3core/cli_basic.c ****     }
 150:..\common\ud3core/cli_basic.c ****     return 0;
 151:..\common\ud3core/cli_basic.c ****     error:
 152:..\common\ud3core/cli_basic.c ****         if(params[index].div){
 391              		.loc 1 152 0 is_stmt 1
 392 012c 258B     		ldrh	r5, [r4, #24]
 393 012e 7E6A     		ldr	r6, [r7, #36]
 394 0130 7DB1     		cbz	r5, .L40
 153:..\common\ud3core/cli_basic.c ****             ttprintf("E:Range %i.%u-%i.%u\r\n",
 395              		.loc 1 153 0
 396 0132 6169     		ldr	r1, [r4, #20]
 397 0134 2369     		ldr	r3, [r4, #16]
 398 0136 91FBF5F0 		sdiv	r0, r1, r5
 399 013a 93FBF5F2 		sdiv	r2, r3, r5
 400 013e 05FB1011 		mls	r1, r5, r0, r1
 401 0142 8DE80300 		stmia	sp, {r0, r1}
 402 0146 05FB1233 		mls	r3, r5, r2, r3
 403 014a 0749     		ldr	r1, .L45
 404 014c 7868     		ldr	r0, [r7, #4]
 405 014e B047     		blx	r6
 406              	.LVL58:
 407 0150 05E0     		b	.L41
 408              	.L40:
 154:..\common\ud3core/cli_basic.c ****                      params[index].min/params[index].div,
 155:..\common\ud3core/cli_basic.c ****                      params[index].min%params[index].div,                
ARM GAS  C:\Users\chemi\AppData\Local\Temp\ccHerMgL.s 			page 11


 156:..\common\ud3core/cli_basic.c ****                      params[index].max/params[index].div,
 157:..\common\ud3core/cli_basic.c ****                      params[index].max%params[index].div);
 158:..\common\ud3core/cli_basic.c ****         }else{
 159:..\common\ud3core/cli_basic.c ****             ttprintf("E:Range %i-%i\r\n", params[index].min, params[index].max);
 409              		.loc 1 159 0
 410 0152 6369     		ldr	r3, [r4, #20]
 411 0154 2269     		ldr	r2, [r4, #16]
 412 0156 0549     		ldr	r1, .L45+4
 413 0158 7868     		ldr	r0, [r7, #4]
 414 015a B047     		blx	r6
 415              	.LVL59:
 416 015c 00E0     		b	.L16
 417              	.L41:
 150:..\common\ud3core/cli_basic.c ****     error:
 418              		.loc 1 150 0
 419 015e 0025     		movs	r5, #0
 420              	.L16:
 160:..\common\ud3core/cli_basic.c ****         }
 161:..\common\ud3core/cli_basic.c **** 
 162:..\common\ud3core/cli_basic.c ****     return 0;
 163:..\common\ud3core/cli_basic.c **** }
 421              		.loc 1 163 0
 422 0160 2846     		mov	r0, r5
 423 0162 05B0     		add	sp, sp, #20
 424              		.cfi_def_cfa_offset 20
 425              		@ sp needed
 426 0164 F0BD     		pop	{r4, r5, r6, r7, pc}
 427              	.LVL60:
 428              	.L46:
 429 0166 00BF     		.align	2
 430              	.L45:
 431 0168 00000000 		.word	.LC0
 432 016c 16000000 		.word	.LC1
 433              		.cfi_endproc
 434              	.LFE69:
 435              		.size	updateDefaultFunction, .-updateDefaultFunction
 436              		.global	__aeabi_f2d
 437              		.section	.text.print_param_helperfunc,"ax",%progbits
 438              		.align	1
 439              		.global	print_param_helperfunc
 440              		.thumb
 441              		.thumb_func
 442              		.type	print_param_helperfunc, %function
 443              	print_param_helperfunc:
 444              	.LFB70:
 164:..\common\ud3core/cli_basic.c **** 
 165:..\common\ud3core/cli_basic.c **** 
 166:..\common\ud3core/cli_basic.c **** 
 167:..\common\ud3core/cli_basic.c **** void print_param_helperfunc(parameter_entry * params, uint8_t param_size, TERMINAL_HANDLE * handle,
 445              		.loc 1 167 0
 446              		.cfi_startproc
 447              		@ args = 0, pretend = 0, frame = 0
 448              		@ frame_needed = 0, uses_anonymous_args = 0
 449              	.LVL61:
 450 0000 2DE9F347 		push	{r0, r1, r4, r5, r6, r7, r8, r9, r10, lr}
 451              		.cfi_def_cfa_offset 40
 452              		.cfi_offset 4, -32
ARM GAS  C:\Users\chemi\AppData\Local\Temp\ccHerMgL.s 			page 12


 453              		.cfi_offset 5, -28
 454              		.cfi_offset 6, -24
 455              		.cfi_offset 7, -20
 456              		.cfi_offset 8, -16
 457              		.cfi_offset 9, -12
 458              		.cfi_offset 10, -8
 459              		.cfi_offset 14, -4
 460              		.loc 1 167 0
 461 0004 1446     		mov	r4, r2
 462 0006 0E46     		mov	r6, r1
 463 0008 0546     		mov	r5, r0
 168:..\common\ud3core/cli_basic.c ****     #define COL_A 9
 169:..\common\ud3core/cli_basic.c ****     #define COL_B 33
 170:..\common\ud3core/cli_basic.c ****     #define COL_C 64
 171:..\common\ud3core/cli_basic.c ****     uint8_t current_parameter;
 172:..\common\ud3core/cli_basic.c ****     uint32_t u_temp_buffer=0;
 173:..\common\ud3core/cli_basic.c ****     int32_t i_temp_buffer=0;
 174:..\common\ud3core/cli_basic.c ****     TERM_sendVT100Code(handle, _VT100_CURSOR_SET_COLUMN, COL_A);
 464              		.loc 1 174 0
 465 000a 0922     		movs	r2, #9
 466              	.LVL62:
 467 000c 1A21     		movs	r1, #26
 468              	.LVL63:
 469 000e 2046     		mov	r0, r4
 470              	.LVL64:
 167:..\common\ud3core/cli_basic.c ****     #define COL_A 9
 471              		.loc 1 167 0
 472 0010 9A46     		mov	r10, r3
 473              		.loc 1 174 0
 474 0012 FFF7FEFF 		bl	TERM_sendVT100Code
 475              	.LVL65:
 175:..\common\ud3core/cli_basic.c ****     ttprintf("Parameter");
 476              		.loc 1 175 0
 477 0016 636A     		ldr	r3, [r4, #36]
 478 0018 6249     		ldr	r1, .L77
 479 001a 6068     		ldr	r0, [r4, #4]
 480 001c 9847     		blx	r3
 481              	.LVL66:
 176:..\common\ud3core/cli_basic.c ****     TERM_sendVT100Code(handle, _VT100_CURSOR_SET_COLUMN, COL_B);
 482              		.loc 1 176 0
 483 001e 2122     		movs	r2, #33
 484 0020 1A21     		movs	r1, #26
 485 0022 2046     		mov	r0, r4
 486 0024 FFF7FEFF 		bl	TERM_sendVT100Code
 487              	.LVL67:
 177:..\common\ud3core/cli_basic.c ****     ttprintf("| Value");
 488              		.loc 1 177 0
 489 0028 636A     		ldr	r3, [r4, #36]
 490 002a 5F49     		ldr	r1, .L77+4
 491 002c 6068     		ldr	r0, [r4, #4]
 492 002e 9847     		blx	r3
 493              	.LVL68:
 494 0030 4FF02409 		mov	r9, #36
 178:..\common\ud3core/cli_basic.c ****     TERM_sendVT100Code(handle, _VT100_CURSOR_SET_COLUMN, COL_C);
 495              		.loc 1 178 0
 496 0034 4022     		movs	r2, #64
 497 0036 1A21     		movs	r1, #26
ARM GAS  C:\Users\chemi\AppData\Local\Temp\ccHerMgL.s 			page 13


 498 0038 2046     		mov	r0, r4
 499 003a FFF7FEFF 		bl	TERM_sendVT100Code
 500              	.LVL69:
 501 003e 09FB0659 		mla	r9, r9, r6, r5
 179:..\common\ud3core/cli_basic.c ****     ttprintf("| Text\r\n");
 502              		.loc 1 179 0
 503 0042 636A     		ldr	r3, [r4, #36]
 504 0044 5949     		ldr	r1, .L77+8
 505 0046 6068     		ldr	r0, [r4, #4]
 173:..\common\ud3core/cli_basic.c ****     TERM_sendVT100Code(handle, _VT100_CURSOR_SET_COLUMN, COL_A);
 506              		.loc 1 173 0
 507 0048 0026     		movs	r6, #0
 508              		.loc 1 179 0
 509 004a 9847     		blx	r3
 510              	.LVL70:
 172:..\common\ud3core/cli_basic.c ****     int32_t i_temp_buffer=0;
 511              		.loc 1 172 0
 512 004c B046     		mov	r8, r6
 513              	.LVL71:
 514              	.L48:
 180:..\common\ud3core/cli_basic.c ****     for (current_parameter = 0; current_parameter < param_size; current_parameter++) {
 515              		.loc 1 180 0 discriminator 1
 516 004e A945     		cmp	r9, r5
 517 0050 00F0A580 		beq	.L76
 181:..\common\ud3core/cli_basic.c ****         if(params[current_parameter].parameter_type==param_type && params[current_parameter].visibl
 518              		.loc 1 181 0
 519 0054 2B78     		ldrb	r3, [r5]	@ zero_extendqisi2
 520 0056 5345     		cmp	r3, r10
 521 0058 40F09F80 		bne	.L49
 522              		.loc 1 181 0 is_stmt 0 discriminator 1
 523 005c 6B78     		ldrb	r3, [r5, #1]	@ zero_extendqisi2
 524 005e 002B     		cmp	r3, #0
 525 0060 00F09B80 		beq	.L49
 182:..\common\ud3core/cli_basic.c ****             TERM_sendVT100Code(handle, _VT100_CURSOR_SET_COLUMN, COL_A);
 526              		.loc 1 182 0 is_stmt 1
 527 0064 0922     		movs	r2, #9
 528 0066 1A21     		movs	r1, #26
 529 0068 2046     		mov	r0, r4
 530 006a FFF7FEFF 		bl	TERM_sendVT100Code
 531              	.LVL72:
 183:..\common\ud3core/cli_basic.c ****             ttprintf("\033[36m%s", params[current_parameter].name);
 532              		.loc 1 183 0
 533 006e 636A     		ldr	r3, [r4, #36]
 534 0070 6A68     		ldr	r2, [r5, #4]
 535 0072 4F49     		ldr	r1, .L77+12
 536 0074 6068     		ldr	r0, [r4, #4]
 537 0076 9847     		blx	r3
 538              	.LVL73:
 184:..\common\ud3core/cli_basic.c **** 
 185:..\common\ud3core/cli_basic.c ****             switch (params[current_parameter].type){
 539              		.loc 1 185 0
 540 0078 6B7B     		ldrb	r3, [r5, #13]	@ zero_extendqisi2
 541 007a 042B     		cmp	r3, #4
 542 007c 00F28380 		bhi	.L50
 543 0080 DFE803F0 		tbb	[pc, r3]
 544              	.L52:
 545 0084 03       		.byte	(.L51-.L52)/2
ARM GAS  C:\Users\chemi\AppData\Local\Temp\ccHerMgL.s 			page 14


 546 0085 2B       		.byte	(.L53-.L52)/2
 547 0086 5D       		.byte	(.L54-.L52)/2
 548 0087 6D       		.byte	(.L55-.L52)/2
 549 0088 77       		.byte	(.L56-.L52)/2
 550 0089 00       		.p2align 1
 551              	.L51:
 186:..\common\ud3core/cli_basic.c ****             case TYPE_UNSIGNED:
 187:..\common\ud3core/cli_basic.c ****                 switch (params[current_parameter].size){
 552              		.loc 1 187 0
 553 008a 2B7B     		ldrb	r3, [r5, #12]	@ zero_extendqisi2
 554 008c 022B     		cmp	r3, #2
 555 008e 07D0     		beq	.L58
 556 0090 042B     		cmp	r3, #4
 557 0092 09D0     		beq	.L59
 558 0094 012B     		cmp	r3, #1
 559 0096 0AD1     		bne	.L57
 188:..\common\ud3core/cli_basic.c ****                 case 1:
 189:..\common\ud3core/cli_basic.c ****                     u_temp_buffer = *(uint8_t*)params[current_parameter].value;
 560              		.loc 1 189 0
 561 0098 AB68     		ldr	r3, [r5, #8]
 562 009a 93F80080 		ldrb	r8, [r3]	@ zero_extendqisi2
 563              	.LVL74:
 190:..\common\ud3core/cli_basic.c ****                     break;
 564              		.loc 1 190 0
 565 009e 06E0     		b	.L57
 566              	.L58:
 191:..\common\ud3core/cli_basic.c ****                 case 2:
 192:..\common\ud3core/cli_basic.c ****                     u_temp_buffer = *(uint16_t*)params[current_parameter].value;
 567              		.loc 1 192 0
 568 00a0 AB68     		ldr	r3, [r5, #8]
 569 00a2 B3F80080 		ldrh	r8, [r3]
 570              	.LVL75:
 193:..\common\ud3core/cli_basic.c ****                     break;
 571              		.loc 1 193 0
 572 00a6 02E0     		b	.L57
 573              	.L59:
 194:..\common\ud3core/cli_basic.c ****                 case 4:
 195:..\common\ud3core/cli_basic.c ****                     u_temp_buffer = *(uint32_t*)params[current_parameter].value;
 574              		.loc 1 195 0
 575 00a8 AB68     		ldr	r3, [r5, #8]
 576 00aa D3F80080 		ldr	r8, [r3]
 577              	.LVL76:
 578              	.L57:
 196:..\common\ud3core/cli_basic.c ****                     break;
 197:..\common\ud3core/cli_basic.c ****                 }
 198:..\common\ud3core/cli_basic.c **** 
 199:..\common\ud3core/cli_basic.c ****                 TERM_sendVT100Code(handle, _VT100_CURSOR_SET_COLUMN, COL_B);
 579              		.loc 1 199 0
 580 00ae 1A21     		movs	r1, #26
 581 00b0 2122     		movs	r2, #33
 582 00b2 2046     		mov	r0, r4
 583 00b4 FFF7FEFF 		bl	TERM_sendVT100Code
 584              	.LVL77:
 200:..\common\ud3core/cli_basic.c ****                 if(params[current_parameter].div){
 585              		.loc 1 200 0
 586 00b8 298B     		ldrh	r1, [r5, #24]
 587 00ba 676A     		ldr	r7, [r4, #36]
ARM GAS  C:\Users\chemi\AppData\Local\Temp\ccHerMgL.s 			page 15


 588 00bc 51B1     		cbz	r1, .L61
 201:..\common\ud3core/cli_basic.c ****                     ttprintf("\033[37m| \033[32m%u.%0*u", 
 589              		.loc 1 201 0
 590 00be 0846     		mov	r0, r1
 591 00c0 B8FBF1F2 		udiv	r2, r8, r1
 592 00c4 FFF7FEFF 		bl	n_number
 593              	.LVL78:
 594 00c8 01FB1281 		mls	r1, r1, r2, r8
 595 00cc 431E     		subs	r3, r0, #1
 596 00ce 0091     		str	r1, [sp]
 597 00d0 3849     		ldr	r1, .L77+16
 598 00d2 2CE0     		b	.L73
 599              	.L61:
 202:..\common\ud3core/cli_basic.c ****                         (u_temp_buffer/params[current_parameter].div),
 203:..\common\ud3core/cli_basic.c ****                         n_number(params[current_parameter].div)-1,
 204:..\common\ud3core/cli_basic.c ****                         (u_temp_buffer%params[current_parameter].div));
 205:..\common\ud3core/cli_basic.c ****                 }else{
 206:..\common\ud3core/cli_basic.c ****                     ttprintf("\033[37m| \033[32m%u", u_temp_buffer);
 600              		.loc 1 206 0
 601 00d4 4246     		mov	r2, r8
 602 00d6 3849     		ldr	r1, .L77+20
 603 00d8 2EE0     		b	.L75
 604              	.L53:
 207:..\common\ud3core/cli_basic.c ****                 }
 208:..\common\ud3core/cli_basic.c ****                 break;
 209:..\common\ud3core/cli_basic.c ****             case TYPE_SIGNED:
 210:..\common\ud3core/cli_basic.c ****                 switch (params[current_parameter].size){
 605              		.loc 1 210 0
 606 00da 2B7B     		ldrb	r3, [r5, #12]	@ zero_extendqisi2
 607 00dc 022B     		cmp	r3, #2
 608 00de 07D0     		beq	.L63
 609 00e0 042B     		cmp	r3, #4
 610 00e2 09D0     		beq	.L64
 611 00e4 012B     		cmp	r3, #1
 612 00e6 09D1     		bne	.L62
 211:..\common\ud3core/cli_basic.c ****                 case 1:
 212:..\common\ud3core/cli_basic.c ****                     i_temp_buffer = *(int8_t*)params[current_parameter].value;
 613              		.loc 1 212 0
 614 00e8 AB68     		ldr	r3, [r5, #8]
 615 00ea 93F90060 		ldrsb	r6, [r3]
 616              	.LVL79:
 213:..\common\ud3core/cli_basic.c ****                     break;
 617              		.loc 1 213 0
 618 00ee 05E0     		b	.L62
 619              	.L63:
 214:..\common\ud3core/cli_basic.c ****                 case 2:
 215:..\common\ud3core/cli_basic.c ****                     i_temp_buffer = *(int16_t*)params[current_parameter].value;
 620              		.loc 1 215 0
 621 00f0 AB68     		ldr	r3, [r5, #8]
 622 00f2 B3F90060 		ldrsh	r6, [r3]
 623              	.LVL80:
 216:..\common\ud3core/cli_basic.c ****                     break;
 624              		.loc 1 216 0
 625 00f6 01E0     		b	.L62
 626              	.L64:
 217:..\common\ud3core/cli_basic.c ****                 case 4:
 218:..\common\ud3core/cli_basic.c ****                     i_temp_buffer = *(int32_t*)params[current_parameter].value;
ARM GAS  C:\Users\chemi\AppData\Local\Temp\ccHerMgL.s 			page 16


 627              		.loc 1 218 0
 628 00f8 AB68     		ldr	r3, [r5, #8]
 629 00fa 1E68     		ldr	r6, [r3]
 630              	.LVL81:
 631              	.L62:
 219:..\common\ud3core/cli_basic.c ****                     break;
 220:..\common\ud3core/cli_basic.c ****                 }
 221:..\common\ud3core/cli_basic.c **** 
 222:..\common\ud3core/cli_basic.c ****                 TERM_sendVT100Code(handle, _VT100_CURSOR_SET_COLUMN, COL_B);
 632              		.loc 1 222 0
 633 00fc 2046     		mov	r0, r4
 634 00fe 2122     		movs	r2, #33
 635 0100 1A21     		movs	r1, #26
 636 0102 FFF7FEFF 		bl	TERM_sendVT100Code
 637              	.LVL82:
 223:..\common\ud3core/cli_basic.c ****                 if(params[current_parameter].div){
 638              		.loc 1 223 0
 639 0106 288B     		ldrh	r0, [r5, #24]
 640 0108 676A     		ldr	r7, [r4, #36]
 641 010a 98B1     		cbz	r0, .L66
 642              	.LBB9:
 224:..\common\ud3core/cli_basic.c ****                     uint32_t mod;
 225:..\common\ud3core/cli_basic.c ****                     if(i_temp_buffer<0){
 643              		.loc 1 225 0
 644 010c 002E     		cmp	r6, #0
 226:..\common\ud3core/cli_basic.c ****                         mod=(i_temp_buffer*-1)%params[current_parameter].div;
 645              		.loc 1 226 0
 646 010e BCBF     		itt	lt
 647 0110 7142     		rsblt	r1, r6, #0
 648 0112 91FBF0F3 		sdivlt	r3, r1, r0
 649 0116 96FBF0F2 		sdiv	r2, r6, r0
 650 011a B4BF     		ite	lt
 651 011c 00FB1311 		mlslt	r1, r0, r3, r1
 652              	.LVL83:
 227:..\common\ud3core/cli_basic.c ****                     }else{
 228:..\common\ud3core/cli_basic.c ****                         mod=i_temp_buffer%params[current_parameter].div;
 653              		.loc 1 228 0
 654 0120 00FB1261 		mlsge	r1, r0, r2, r6
 655              	.LVL84:
 229:..\common\ud3core/cli_basic.c ****                     }
 230:..\common\ud3core/cli_basic.c ****                     
 231:..\common\ud3core/cli_basic.c ****                     ttprintf("\033[37m| \033[32m%i.%0*u",
 656              		.loc 1 231 0
 657 0124 FFF7FEFF 		bl	n_number
 658              	.LVL85:
 659 0128 0091     		str	r1, [sp]
 660 012a 2449     		ldr	r1, .L77+24
 661 012c 431E     		subs	r3, r0, #1
 662              	.L73:
 663 012e 6068     		ldr	r0, [r4, #4]
 664 0130 B847     		blx	r7
 665              	.LVL86:
 666              	.LBE9:
 667 0132 28E0     		b	.L50
 668              	.L66:
 232:..\common\ud3core/cli_basic.c ****                     (i_temp_buffer/params[current_parameter].div),
 233:..\common\ud3core/cli_basic.c ****                     n_number(params[current_parameter].div)-1,
ARM GAS  C:\Users\chemi\AppData\Local\Temp\ccHerMgL.s 			page 17


 234:..\common\ud3core/cli_basic.c ****                     mod);
 235:..\common\ud3core/cli_basic.c ****                 }else{
 236:..\common\ud3core/cli_basic.c ****                     ttprintf("\033[37m| \033[32m%i", i_temp_buffer);
 669              		.loc 1 236 0
 670 0134 3246     		mov	r2, r6
 671 0136 2249     		ldr	r1, .L77+28
 672              	.L75:
 673 0138 6068     		ldr	r0, [r4, #4]
 674 013a B847     		blx	r7
 675              	.LVL87:
 676 013c 23E0     		b	.L50
 677              	.L54:
 237:..\common\ud3core/cli_basic.c ****                 }
 238:..\common\ud3core/cli_basic.c **** 
 239:..\common\ud3core/cli_basic.c ****                 break;
 240:..\common\ud3core/cli_basic.c ****             case TYPE_FLOAT:
 241:..\common\ud3core/cli_basic.c **** 
 242:..\common\ud3core/cli_basic.c ****                 TERM_sendVT100Code(handle, _VT100_CURSOR_SET_COLUMN, COL_B);
 678              		.loc 1 242 0
 679 013e 2122     		movs	r2, #33
 680 0140 2046     		mov	r0, r4
 681 0142 1A21     		movs	r1, #26
 682 0144 FFF7FEFF 		bl	TERM_sendVT100Code
 683              	.LVL88:
 243:..\common\ud3core/cli_basic.c ****                 ttprintf("\033[37m| \033[32m%f", *(float*)params[current_parameter].value);
 684              		.loc 1 243 0
 685 0148 AB68     		ldr	r3, [r5, #8]
 686 014a 1868     		ldr	r0, [r3]	@ float
 687 014c FFF7FEFF 		bl	__aeabi_f2d
 688              	.LVL89:
 689 0150 676A     		ldr	r7, [r4, #36]
 690 0152 0246     		mov	r2, r0
 691 0154 0B46     		mov	r3, r1
 692 0156 6068     		ldr	r0, [r4, #4]
 693 0158 1A49     		ldr	r1, .L77+32
 694 015a B847     		blx	r7
 695              	.LVL90:
 244:..\common\ud3core/cli_basic.c **** 
 245:..\common\ud3core/cli_basic.c ****                 break;
 696              		.loc 1 245 0
 697 015c 13E0     		b	.L50
 698              	.L55:
 246:..\common\ud3core/cli_basic.c ****             case TYPE_CHAR:
 247:..\common\ud3core/cli_basic.c **** 
 248:..\common\ud3core/cli_basic.c ****                 TERM_sendVT100Code(handle, _VT100_CURSOR_SET_COLUMN, COL_B);
 699              		.loc 1 248 0
 700 015e 2122     		movs	r2, #33
 701 0160 1A21     		movs	r1, #26
 702 0162 2046     		mov	r0, r4
 703 0164 FFF7FEFF 		bl	TERM_sendVT100Code
 704              	.LVL91:
 249:..\common\ud3core/cli_basic.c ****                 ttprintf("\033[37m| \033[32m%c", *(char*)params[current_parameter].value);
 705              		.loc 1 249 0
 706 0168 AA68     		ldr	r2, [r5, #8]
 707 016a 636A     		ldr	r3, [r4, #36]
 708 016c 1278     		ldrb	r2, [r2]	@ zero_extendqisi2
 709 016e 1649     		ldr	r1, .L77+36
ARM GAS  C:\Users\chemi\AppData\Local\Temp\ccHerMgL.s 			page 18


 710 0170 07E0     		b	.L74
 711              	.L56:
 250:..\common\ud3core/cli_basic.c **** 
 251:..\common\ud3core/cli_basic.c ****                 break;
 252:..\common\ud3core/cli_basic.c ****             case TYPE_STRING:
 253:..\common\ud3core/cli_basic.c **** 
 254:..\common\ud3core/cli_basic.c ****                 TERM_sendVT100Code(handle, _VT100_CURSOR_SET_COLUMN, COL_B);
 712              		.loc 1 254 0
 713 0172 2122     		movs	r2, #33
 714 0174 1A21     		movs	r1, #26
 715 0176 2046     		mov	r0, r4
 716 0178 FFF7FEFF 		bl	TERM_sendVT100Code
 717              	.LVL92:
 255:..\common\ud3core/cli_basic.c ****                 ttprintf("\033[37m| \033[32m%s", (char*)params[current_parameter].value);
 718              		.loc 1 255 0
 719 017c 636A     		ldr	r3, [r4, #36]
 720 017e AA68     		ldr	r2, [r5, #8]
 721 0180 1249     		ldr	r1, .L77+40
 722              	.L74:
 723 0182 6068     		ldr	r0, [r4, #4]
 724 0184 9847     		blx	r3
 725              	.LVL93:
 726              	.L50:
 256:..\common\ud3core/cli_basic.c ****                
 257:..\common\ud3core/cli_basic.c ****                 break;
 258:..\common\ud3core/cli_basic.c **** 
 259:..\common\ud3core/cli_basic.c ****             }
 260:..\common\ud3core/cli_basic.c ****             TERM_sendVT100Code(handle, _VT100_CURSOR_SET_COLUMN, COL_C);
 727              		.loc 1 260 0
 728 0186 4022     		movs	r2, #64
 729 0188 1A21     		movs	r1, #26
 730 018a 2046     		mov	r0, r4
 731 018c FFF7FEFF 		bl	TERM_sendVT100Code
 732              	.LVL94:
 261:..\common\ud3core/cli_basic.c ****             ttprintf("\033[37m| %s\r\n", params[current_parameter].help);
 733              		.loc 1 261 0
 734 0190 636A     		ldr	r3, [r4, #36]
 735 0192 2A6A     		ldr	r2, [r5, #32]
 736 0194 0E49     		ldr	r1, .L77+44
 737 0196 6068     		ldr	r0, [r4, #4]
 738 0198 9847     		blx	r3
 739              	.LVL95:
 740              	.L49:
 741 019a 2435     		adds	r5, r5, #36
 742 019c 57E7     		b	.L48
 743              	.L76:
 262:..\common\ud3core/cli_basic.c ****         }
 263:..\common\ud3core/cli_basic.c ****     }
 264:..\common\ud3core/cli_basic.c **** }
 744              		.loc 1 264 0
 745 019e 02B0     		add	sp, sp, #8
 746              		.cfi_def_cfa_offset 32
 747              		@ sp needed
 748 01a0 BDE8F087 		pop	{r4, r5, r6, r7, r8, r9, r10, pc}
 749              	.LVL96:
 750              	.L78:
 751              		.align	2
ARM GAS  C:\Users\chemi\AppData\Local\Temp\ccHerMgL.s 			page 19


 752              	.L77:
 753 01a4 26000000 		.word	.LC2
 754 01a8 30000000 		.word	.LC3
 755 01ac 38000000 		.word	.LC4
 756 01b0 41000000 		.word	.LC5
 757 01b4 49000000 		.word	.LC6
 758 01b8 5D000000 		.word	.LC7
 759 01bc 6C000000 		.word	.LC8
 760 01c0 80000000 		.word	.LC9
 761 01c4 8F000000 		.word	.LC10
 762 01c8 9E000000 		.word	.LC11
 763 01cc AD000000 		.word	.LC12
 764 01d0 BC000000 		.word	.LC13
 765              		.cfi_endproc
 766              	.LFE70:
 767              		.size	print_param_helperfunc, .-print_param_helperfunc
 768              		.section	.text.print_param_help,"ax",%progbits
 769              		.align	1
 770              		.global	print_param_help
 771              		.thumb
 772              		.thumb_func
 773              		.type	print_param_help, %function
 774              	print_param_help:
 775              	.LFB71:
 265:..\common\ud3core/cli_basic.c **** 
 266:..\common\ud3core/cli_basic.c **** void print_param_help(parameter_entry * params, uint8_t param_size, TERMINAL_HANDLE * handle){
 776              		.loc 1 266 0
 777              		.cfi_startproc
 778              		@ args = 0, pretend = 0, frame = 0
 779              		@ frame_needed = 0, uses_anonymous_args = 0
 780              	.LVL97:
 781 0000 70B5     		push	{r4, r5, r6, lr}
 782              		.cfi_def_cfa_offset 16
 783              		.cfi_offset 4, -16
 784              		.cfi_offset 5, -12
 785              		.cfi_offset 6, -8
 786              		.cfi_offset 14, -4
 787              		.loc 1 266 0
 788 0002 1446     		mov	r4, r2
 789 0004 0546     		mov	r5, r0
 790 0006 0E46     		mov	r6, r1
 267:..\common\ud3core/cli_basic.c ****     ttprintf("Parameters:\r\n");
 791              		.loc 1 267 0
 792 0008 536A     		ldr	r3, [r2, #36]
 793 000a 0A49     		ldr	r1, .L80
 794              	.LVL98:
 795 000c 5068     		ldr	r0, [r2, #4]
 796              	.LVL99:
 797 000e 9847     		blx	r3
 798              	.LVL100:
 268:..\common\ud3core/cli_basic.c ****     print_param_helperfunc(params, param_size, handle,PARAM_DEFAULT);
 799              		.loc 1 268 0
 800 0010 2246     		mov	r2, r4
 801 0012 3146     		mov	r1, r6
 802 0014 2846     		mov	r0, r5
 803 0016 0023     		movs	r3, #0
 804 0018 FFF7FEFF 		bl	print_param_helperfunc
ARM GAS  C:\Users\chemi\AppData\Local\Temp\ccHerMgL.s 			page 20


 805              	.LVL101:
 269:..\common\ud3core/cli_basic.c ****     ttprintf("\r\nConfiguration:\r\n");
 806              		.loc 1 269 0
 807 001c 636A     		ldr	r3, [r4, #36]
 808 001e 0649     		ldr	r1, .L80+4
 809 0020 6068     		ldr	r0, [r4, #4]
 810 0022 9847     		blx	r3
 811              	.LVL102:
 270:..\common\ud3core/cli_basic.c ****     print_param_helperfunc(params, param_size, handle,PARAM_CONFIG);
 812              		.loc 1 270 0
 813 0024 2246     		mov	r2, r4
 814 0026 3146     		mov	r1, r6
 815 0028 2846     		mov	r0, r5
 271:..\common\ud3core/cli_basic.c **** }
 816              		.loc 1 271 0
 817 002a BDE87040 		pop	{r4, r5, r6, lr}
 818              		.cfi_restore 14
 819              		.cfi_restore 6
 820              		.cfi_restore 5
 821              		.cfi_restore 4
 822              		.cfi_def_cfa_offset 0
 823              	.LVL103:
 270:..\common\ud3core/cli_basic.c ****     print_param_helperfunc(params, param_size, handle,PARAM_CONFIG);
 824              		.loc 1 270 0
 825 002e 0123     		movs	r3, #1
 826 0030 FFF7FEBF 		b	print_param_helperfunc
 827              	.LVL104:
 828              	.L81:
 829              		.align	2
 830              	.L80:
 831 0034 C8000000 		.word	.LC14
 832 0038 D6000000 		.word	.LC15
 833              		.cfi_endproc
 834              	.LFE71:
 835              		.size	print_param_help, .-print_param_help
 836              		.section	.text.print_param,"ax",%progbits
 837              		.align	1
 838              		.global	print_param
 839              		.thumb
 840              		.thumb_func
 841              		.type	print_param, %function
 842              	print_param:
 843              	.LFB72:
 272:..\common\ud3core/cli_basic.c **** 
 273:..\common\ud3core/cli_basic.c **** void print_param(parameter_entry * params, uint8_t index, TERMINAL_HANDLE * handle){
 844              		.loc 1 273 0
 845              		.cfi_startproc
 846              		@ args = 0, pretend = 0, frame = 0
 847              		@ frame_needed = 0, uses_anonymous_args = 0
 848              	.LVL105:
 849 0000 F7B5     		push	{r0, r1, r2, r4, r5, r6, r7, lr}
 850              		.cfi_def_cfa_offset 32
 851              		.cfi_offset 4, -20
 852              		.cfi_offset 5, -16
 853              		.cfi_offset 6, -12
 854              		.cfi_offset 7, -8
 855              		.cfi_offset 14, -4
ARM GAS  C:\Users\chemi\AppData\Local\Temp\ccHerMgL.s 			page 21


 274:..\common\ud3core/cli_basic.c ****     uint32_t u_temp_buffer=0;
 275:..\common\ud3core/cli_basic.c ****     int32_t i_temp_buffer=0;
 276:..\common\ud3core/cli_basic.c ****     float f_temp_buffer=0.0;
 277:..\common\ud3core/cli_basic.c ****     switch (params[index].type){
 856              		.loc 1 277 0
 857 0002 2424     		movs	r4, #36
 858 0004 04FB0104 		mla	r4, r4, r1, r0
 859 0008 637B     		ldrb	r3, [r4, #13]	@ zero_extendqisi2
 273:..\common\ud3core/cli_basic.c ****     uint32_t u_temp_buffer=0;
 860              		.loc 1 273 0
 861 000a 1546     		mov	r5, r2
 862              		.loc 1 277 0
 863 000c 042B     		cmp	r3, #4
 864 000e 76D8     		bhi	.L82
 865 0010 DFE803F0 		tbb	[pc, r3]
 866              	.LVL106:
 867              	.L85:
 868 0014 03       		.byte	(.L84-.L85)/2
 869 0015 29       		.byte	(.L86-.L85)/2
 870 0016 59       		.byte	(.L87-.L85)/2
 871 0017 65       		.byte	(.L88-.L85)/2
 872 0018 6B       		.byte	(.L89-.L85)/2
 873 0019 00       		.p2align 1
 874              	.L84:
 278:..\common\ud3core/cli_basic.c ****         case TYPE_UNSIGNED:
 279:..\common\ud3core/cli_basic.c ****             switch (params[index].size){
 875              		.loc 1 279 0
 876 001a 237B     		ldrb	r3, [r4, #12]	@ zero_extendqisi2
 877 001c 022B     		cmp	r3, #2
 878 001e 06D0     		beq	.L91
 879 0020 042B     		cmp	r3, #4
 880 0022 07D0     		beq	.L92
 881 0024 012B     		cmp	r3, #1
 882 0026 08D1     		bne	.L104
 280:..\common\ud3core/cli_basic.c ****                 case 1:
 281:..\common\ud3core/cli_basic.c ****                     u_temp_buffer = *(uint8_t*)params[index].value;
 883              		.loc 1 281 0
 884 0028 A368     		ldr	r3, [r4, #8]
 885 002a 1A78     		ldrb	r2, [r3]	@ zero_extendqisi2
 886              	.LVL107:
 282:..\common\ud3core/cli_basic.c ****                     break;
 887              		.loc 1 282 0
 888 002c 06E0     		b	.L90
 889              	.LVL108:
 890              	.L91:
 283:..\common\ud3core/cli_basic.c ****                 case 2:
 284:..\common\ud3core/cli_basic.c ****                     u_temp_buffer = *(uint16_t*)params[index].value;
 891              		.loc 1 284 0
 892 002e A368     		ldr	r3, [r4, #8]
 893 0030 1A88     		ldrh	r2, [r3]
 894              	.LVL109:
 285:..\common\ud3core/cli_basic.c ****                     break;
 895              		.loc 1 285 0
 896 0032 03E0     		b	.L90
 897              	.LVL110:
 898              	.L92:
 286:..\common\ud3core/cli_basic.c ****                 case 4:
ARM GAS  C:\Users\chemi\AppData\Local\Temp\ccHerMgL.s 			page 22


 287:..\common\ud3core/cli_basic.c ****                     u_temp_buffer = *(uint32_t*)params[index].value;
 899              		.loc 1 287 0
 900 0034 A368     		ldr	r3, [r4, #8]
 901 0036 1A68     		ldr	r2, [r3]
 902              	.LVL111:
 288:..\common\ud3core/cli_basic.c ****                     break;
 903              		.loc 1 288 0
 904 0038 00E0     		b	.L90
 905              	.LVL112:
 906              	.L104:
 274:..\common\ud3core/cli_basic.c ****     int32_t i_temp_buffer=0;
 907              		.loc 1 274 0
 908 003a 0022     		movs	r2, #0
 909              	.LVL113:
 910              	.L90:
 289:..\common\ud3core/cli_basic.c ****             }
 290:..\common\ud3core/cli_basic.c ****             if(params[index].div){
 911              		.loc 1 290 0
 912 003c 218B     		ldrh	r1, [r4, #24]
 913              	.LVL114:
 914 003e 6E6A     		ldr	r6, [r5, #36]
 915 0040 69B1     		cbz	r1, .L94
 291:..\common\ud3core/cli_basic.c ****                 ttprintf("\t%s=%u.%0*u\r\n",
 916              		.loc 1 291 0
 917 0042 0846     		mov	r0, r1
 918              	.LVL115:
 919 0044 B2FBF1F7 		udiv	r7, r2, r1
 920 0048 FFF7FEFF 		bl	n_number
 921              	.LVL116:
 922 004c 01FB1722 		mls	r2, r1, r7, r2
 923 0050 0138     		subs	r0, r0, #1
 924 0052 0192     		str	r2, [sp, #4]
 925 0054 0090     		str	r0, [sp]
 926 0056 3B46     		mov	r3, r7
 927 0058 6268     		ldr	r2, [r4, #4]
 928 005a 2A49     		ldr	r1, .L108
 929 005c 2DE0     		b	.L106
 930              	.LVL117:
 931              	.L94:
 292:..\common\ud3core/cli_basic.c ****                                 params[index].name,(u_temp_buffer/params[index].div),
 293:..\common\ud3core/cli_basic.c ****                                 n_number(params[index].div)-1,
 294:..\common\ud3core/cli_basic.c ****                                 (u_temp_buffer%params[index].div));
 295:..\common\ud3core/cli_basic.c ****             }else{
 296:..\common\ud3core/cli_basic.c ****                 ttprintf("\t%s=%u\r\n", params[index].name,u_temp_buffer);
 932              		.loc 1 296 0
 933 005e 1346     		mov	r3, r2
 934 0060 2949     		ldr	r1, .L108+4
 935 0062 6268     		ldr	r2, [r4, #4]
 936              	.LVL118:
 937 0064 45E0     		b	.L107
 938              	.LVL119:
 939              	.L86:
 297:..\common\ud3core/cli_basic.c ****             }
 298:..\common\ud3core/cli_basic.c ****             break;
 299:..\common\ud3core/cli_basic.c ****         case TYPE_SIGNED:
 300:..\common\ud3core/cli_basic.c ****             switch (params[index].size){
 940              		.loc 1 300 0
ARM GAS  C:\Users\chemi\AppData\Local\Temp\ccHerMgL.s 			page 23


 941 0066 237B     		ldrb	r3, [r4, #12]	@ zero_extendqisi2
 942 0068 022B     		cmp	r3, #2
 943 006a 07D0     		beq	.L96
 944 006c 042B     		cmp	r3, #4
 945 006e 09D0     		beq	.L97
 946 0070 012B     		cmp	r3, #1
 947 0072 0AD1     		bne	.L105
 301:..\common\ud3core/cli_basic.c ****             case 1:
 302:..\common\ud3core/cli_basic.c ****                 i_temp_buffer = *(int8_t*)params[index].value;
 948              		.loc 1 302 0
 949 0074 A368     		ldr	r3, [r4, #8]
 950 0076 93F90030 		ldrsb	r3, [r3]
 951              	.LVL120:
 303:..\common\ud3core/cli_basic.c ****                 break;
 952              		.loc 1 303 0
 953 007a 07E0     		b	.L95
 954              	.LVL121:
 955              	.L96:
 304:..\common\ud3core/cli_basic.c ****             case 2:
 305:..\common\ud3core/cli_basic.c ****                 i_temp_buffer = *(int16_t*)params[index].value;
 956              		.loc 1 305 0
 957 007c A368     		ldr	r3, [r4, #8]
 958 007e B3F90030 		ldrsh	r3, [r3]
 959              	.LVL122:
 306:..\common\ud3core/cli_basic.c ****                 break;
 960              		.loc 1 306 0
 961 0082 03E0     		b	.L95
 962              	.LVL123:
 963              	.L97:
 307:..\common\ud3core/cli_basic.c ****             case 4:
 308:..\common\ud3core/cli_basic.c ****                 i_temp_buffer = *(int32_t*)params[index].value;
 964              		.loc 1 308 0
 965 0084 A368     		ldr	r3, [r4, #8]
 966 0086 1B68     		ldr	r3, [r3]
 967              	.LVL124:
 309:..\common\ud3core/cli_basic.c ****                 break;
 968              		.loc 1 309 0
 969 0088 00E0     		b	.L95
 970              	.LVL125:
 971              	.L105:
 275:..\common\ud3core/cli_basic.c ****     float f_temp_buffer=0.0;
 972              		.loc 1 275 0
 973 008a 0023     		movs	r3, #0
 974              	.LVL126:
 975              	.L95:
 310:..\common\ud3core/cli_basic.c ****             }
 311:..\common\ud3core/cli_basic.c ****             if(params[index].div){
 976              		.loc 1 311 0
 977 008c 208B     		ldrh	r0, [r4, #24]
 978              	.LVL127:
 979 008e 6E6A     		ldr	r6, [r5, #36]
 980 0090 B0B1     		cbz	r0, .L99
 981              	.LBB10:
 312:..\common\ud3core/cli_basic.c ****                 uint32_t mod;
 313:..\common\ud3core/cli_basic.c ****                 if(i_temp_buffer<0){
 982              		.loc 1 313 0
 983 0092 002B     		cmp	r3, #0
ARM GAS  C:\Users\chemi\AppData\Local\Temp\ccHerMgL.s 			page 24


 314:..\common\ud3core/cli_basic.c ****                     mod=(i_temp_buffer*-1)%params[index].div;
 984              		.loc 1 314 0
 985 0094 B8BF     		it	lt
 986 0096 5A42     		rsblt	r2, r3, #0
 987 0098 93FBF0F1 		sdiv	r1, r3, r0
 988              	.LVL128:
 989 009c B6BF     		itet	lt
 990 009e 92FBF0F3 		sdivlt	r3, r2, r0
 991              	.LVL129:
 315:..\common\ud3core/cli_basic.c ****                 }else{
 316:..\common\ud3core/cli_basic.c ****                     mod=i_temp_buffer%params[index].div;
 992              		.loc 1 316 0
 993 00a2 00FB1132 		mlsge	r2, r0, r1, r3
 314:..\common\ud3core/cli_basic.c ****                     mod=(i_temp_buffer*-1)%params[index].div;
 994              		.loc 1 314 0
 995 00a6 00FB1322 		mlslt	r2, r0, r3, r2
 996              	.LVL130:
 317:..\common\ud3core/cli_basic.c ****                 }
 318:..\common\ud3core/cli_basic.c ****                 ttprintf("\t%s=%i.%0*u\r\n",
 997              		.loc 1 318 0
 998 00aa FFF7FEFF 		bl	n_number
 999              	.LVL131:
 1000 00ae 0138     		subs	r0, r0, #1
 1001 00b0 0192     		str	r2, [sp, #4]
 1002 00b2 0090     		str	r0, [sp]
 1003 00b4 0B46     		mov	r3, r1
 1004 00b6 6268     		ldr	r2, [r4, #4]
 1005 00b8 1449     		ldr	r1, .L108+8
 1006              	.LVL132:
 1007              	.L106:
 1008 00ba 6868     		ldr	r0, [r5, #4]
 1009 00bc B047     		blx	r6
 1010              	.LVL133:
 1011              	.LBE10:
 1012 00be 1EE0     		b	.L82
 1013              	.LVL134:
 1014              	.L99:
 319:..\common\ud3core/cli_basic.c ****                                 params[index].name,(i_temp_buffer/params[index].div),
 320:..\common\ud3core/cli_basic.c ****                                 n_number(params[index].div)-1,
 321:..\common\ud3core/cli_basic.c ****                                 mod);
 322:..\common\ud3core/cli_basic.c ****             }else{
 323:..\common\ud3core/cli_basic.c ****                 ttprintf("\t%s=%i\r\n", params[index].name,i_temp_buffer);
 1015              		.loc 1 323 0
 1016 00c0 6268     		ldr	r2, [r4, #4]
 1017 00c2 1349     		ldr	r1, .L108+12
 1018              	.LVL135:
 1019 00c4 15E0     		b	.L107
 1020              	.LVL136:
 1021              	.L87:
 324:..\common\ud3core/cli_basic.c ****             }
 325:..\common\ud3core/cli_basic.c ****             break;
 326:..\common\ud3core/cli_basic.c ****         case TYPE_FLOAT:
 327:..\common\ud3core/cli_basic.c ****             f_temp_buffer = *(float*)params[index].value;
 1022              		.loc 1 327 0
 1023 00c6 A368     		ldr	r3, [r4, #8]
 328:..\common\ud3core/cli_basic.c ****             ttprintf("\t%s=%f\r\n", params[index].name,f_temp_buffer);
 1024              		.loc 1 328 0
ARM GAS  C:\Users\chemi\AppData\Local\Temp\ccHerMgL.s 			page 25


 1025 00c8 1868     		ldr	r0, [r3]	@ float
 1026              	.LVL137:
 1027 00ca FFF7FEFF 		bl	__aeabi_f2d
 1028              	.LVL138:
 1029 00ce CDE90001 		strd	r0, [sp]
 1030 00d2 6B6A     		ldr	r3, [r5, #36]
 1031 00d4 6268     		ldr	r2, [r4, #4]
 1032 00d6 0F49     		ldr	r1, .L108+16
 1033 00d8 6868     		ldr	r0, [r5, #4]
 1034 00da 9847     		blx	r3
 1035              	.LVL139:
 329:..\common\ud3core/cli_basic.c ****             break;
 1036              		.loc 1 329 0
 1037 00dc 0FE0     		b	.L82
 1038              	.LVL140:
 1039              	.L88:
 330:..\common\ud3core/cli_basic.c ****         case TYPE_CHAR:
 331:..\common\ud3core/cli_basic.c ****             ttprintf("\t%s=%c\r\n", params[index].name,*(char*)params[index].value);
 1040              		.loc 1 331 0
 1041 00de A368     		ldr	r3, [r4, #8]
 1042 00e0 6E6A     		ldr	r6, [r5, #36]
 1043 00e2 1B78     		ldrb	r3, [r3]	@ zero_extendqisi2
 1044 00e4 6268     		ldr	r2, [r4, #4]
 1045 00e6 0C49     		ldr	r1, .L108+20
 1046              	.LVL141:
 1047 00e8 03E0     		b	.L107
 1048              	.LVL142:
 1049              	.L89:
 332:..\common\ud3core/cli_basic.c ****             break;
 333:..\common\ud3core/cli_basic.c ****         case TYPE_STRING:
 334:..\common\ud3core/cli_basic.c ****             ttprintf("\t%s=%s\r\n", params[index].name,(char*)params[index].value);
 1050              		.loc 1 334 0
 1051 00ea 6E6A     		ldr	r6, [r5, #36]
 1052 00ec A368     		ldr	r3, [r4, #8]
 1053 00ee 6268     		ldr	r2, [r4, #4]
 1054 00f0 0A49     		ldr	r1, .L108+24
 1055              	.LVL143:
 1056              	.L107:
 1057 00f2 B446     		mov	ip, r6
 1058 00f4 6868     		ldr	r0, [r5, #4]
 335:..\common\ud3core/cli_basic.c ****             break;
 336:..\common\ud3core/cli_basic.c ****         }
 337:..\common\ud3core/cli_basic.c **** }
 1059              		.loc 1 337 0
 1060 00f6 03B0     		add	sp, sp, #12
 1061              		.cfi_remember_state
 1062              		.cfi_def_cfa_offset 20
 1063              		@ sp needed
 1064 00f8 BDE8F040 		pop	{r4, r5, r6, r7, lr}
 1065              		.cfi_restore 14
 1066              		.cfi_restore 7
 1067              		.cfi_restore 6
 1068              		.cfi_restore 5
 1069              		.cfi_restore 4
 1070              		.cfi_def_cfa_offset 0
 1071              	.LVL144:
 334:..\common\ud3core/cli_basic.c ****             break;
ARM GAS  C:\Users\chemi\AppData\Local\Temp\ccHerMgL.s 			page 26


 1072              		.loc 1 334 0
 1073 00fc 6047     		bx	ip
 1074              	.LVL145:
 1075              	.L82:
 1076              		.cfi_restore_state
 1077              		.loc 1 337 0
 1078 00fe 03B0     		add	sp, sp, #12
 1079              		.cfi_def_cfa_offset 20
 1080              		@ sp needed
 1081 0100 F0BD     		pop	{r4, r5, r6, r7, pc}
 1082              	.LVL146:
 1083              	.L109:
 1084 0102 00BF     		.align	2
 1085              	.L108:
 1086 0104 E9000000 		.word	.LC16
 1087 0108 F7000000 		.word	.LC17
 1088 010c 00010000 		.word	.LC18
 1089 0110 0E010000 		.word	.LC19
 1090 0114 17010000 		.word	.LC20
 1091 0118 20010000 		.word	.LC21
 1092 011c 29010000 		.word	.LC22
 1093              		.cfi_endproc
 1094              	.LFE72:
 1095              		.size	print_param, .-print_param
 1096              		.section	.text.set_visibility,"ax",%progbits
 1097              		.align	1
 1098              		.global	set_visibility
 1099              		.thumb
 1100              		.thumb_func
 1101              		.type	set_visibility, %function
 1102              	set_visibility:
 1103              	.LFB73:
 338:..\common\ud3core/cli_basic.c **** 
 339:..\common\ud3core/cli_basic.c **** uint8_t set_visibility(parameter_entry * params, uint8_t param_size, char* text, uint8_t visible){
 1104              		.loc 1 339 0
 1105              		.cfi_startproc
 1106              		@ args = 0, pretend = 0, frame = 16
 1107              		@ frame_needed = 0, uses_anonymous_args = 0
 1108              	.LVL147:
 1109 0000 2DE9F04F 		push	{r4, r5, r6, r7, r8, r9, r10, fp, lr}
 1110              		.cfi_def_cfa_offset 36
 1111              		.cfi_offset 4, -36
 1112              		.cfi_offset 5, -32
 1113              		.cfi_offset 6, -28
 1114              		.cfi_offset 7, -24
 1115              		.cfi_offset 8, -20
 1116              		.cfi_offset 9, -16
 1117              		.cfi_offset 10, -12
 1118              		.cfi_offset 11, -8
 1119              		.cfi_offset 14, -4
 340:..\common\ud3core/cli_basic.c ****     int8_t max_len=-1;
 341:..\common\ud3core/cli_basic.c ****     int8_t max_index=-1;
 1120              		.loc 1 341 0
 1121 0004 4FF0FF34 		mov	r4, #-1
 339:..\common\ud3core/cli_basic.c ****     int8_t max_len=-1;
 1122              		.loc 1 339 0
 1123 0008 0646     		mov	r6, r0
ARM GAS  C:\Users\chemi\AppData\Local\Temp\ccHerMgL.s 			page 27


 1124 000a 8A46     		mov	r10, r1
 1125 000c 9346     		mov	fp, r2
 340:..\common\ud3core/cli_basic.c ****     int8_t max_len=-1;
 1126              		.loc 1 340 0
 1127 000e 2746     		mov	r7, r4
 339:..\common\ud3core/cli_basic.c ****     int8_t max_len=-1;
 1128              		.loc 1 339 0
 1129 0010 85B0     		sub	sp, sp, #20
 1130              		.cfi_def_cfa_offset 56
 339:..\common\ud3core/cli_basic.c ****     int8_t max_len=-1;
 1131              		.loc 1 339 0
 1132 0012 0193     		str	r3, [sp, #4]
 1133              	.LBB11:
 342:..\common\ud3core/cli_basic.c ****     
 343:..\common\ud3core/cli_basic.c **** 	for (uint8_t current_parameter = 0; current_parameter < param_size; current_parameter++) {
 1134              		.loc 1 343 0
 1135 0014 0025     		movs	r5, #0
 1136              	.LBB12:
 344:..\common\ud3core/cli_basic.c ****         uint8_t text_len = strlen(params[current_parameter].name);
 1137              		.loc 1 344 0
 1138 0016 2423     		movs	r3, #36
 1139              	.LVL148:
 1140              	.L111:
 1141              	.LBE12:
 343:..\common\ud3core/cli_basic.c ****         uint8_t text_len = strlen(params[current_parameter].name);
 1142              		.loc 1 343 0 discriminator 1
 1143 0018 AA45     		cmp	r10, r5
 1144 001a 18D0     		beq	.L116
 1145              	.LBB13:
 1146              		.loc 1 344 0
 1147 001c 03FB0562 		mla	r2, r3, r5, r6
 1148 0020 5168     		ldr	r1, [r2, #4]
 1149 0022 0393     		str	r3, [sp, #12]
 1150 0024 0846     		mov	r0, r1
 1151 0026 0291     		str	r1, [sp, #8]
 1152 0028 FFF7FEFF 		bl	strlen
 1153              	.LVL149:
 1154 002c 5FFA80F9 		uxtb	r9, r0
 1155 0030 8046     		mov	r8, r0
 1156              	.LVL150:
 345:..\common\ud3core/cli_basic.c **** 		if (memcmp(text, params[current_parameter].name, text_len) == 0) {
 1157              		.loc 1 345 0
 1158 0032 4A46     		mov	r2, r9
 1159 0034 0299     		ldr	r1, [sp, #8]
 1160 0036 5846     		mov	r0, fp
 1161              	.LVL151:
 1162 0038 FFF7FEFF 		bl	memcmp
 1163              	.LVL152:
 1164 003c 039B     		ldr	r3, [sp, #12]
 1165 003e 20B9     		cbnz	r0, .L112
 346:..\common\ud3core/cli_basic.c ****             if(text_len > max_len){
 1166              		.loc 1 346 0
 1167 0040 B945     		cmp	r9, r7
 347:..\common\ud3core/cli_basic.c **** 			    max_len = text_len;
 1168              		.loc 1 347 0
 1169 0042 C4BF     		itt	gt
 1170 0044 4FFA88F7 		sxtbgt	r7, r8
ARM GAS  C:\Users\chemi\AppData\Local\Temp\ccHerMgL.s 			page 28


 1171              	.LVL153:
 348:..\common\ud3core/cli_basic.c ****                 max_index = current_parameter;
 1172              		.loc 1 348 0
 1173 0048 6CB2     		sxtbgt	r4, r5
 1174              	.LVL154:
 1175              	.L112:
 1176 004a 0135     		adds	r5, r5, #1
 1177              	.LVL155:
 1178 004c E4E7     		b	.L111
 1179              	.LVL156:
 1180              	.L116:
 1181              	.LBE13:
 1182              	.LBE11:
 349:..\common\ud3core/cli_basic.c ****             }
 350:..\common\ud3core/cli_basic.c **** 		}
 351:..\common\ud3core/cli_basic.c **** 	}
 352:..\common\ud3core/cli_basic.c ****     
 353:..\common\ud3core/cli_basic.c ****     if(max_index != -1){
 1183              		.loc 1 353 0
 1184 004e 631C     		adds	r3, r4, #1
 354:..\common\ud3core/cli_basic.c ****        params[max_index].visible = visible;
 1185              		.loc 1 354 0
 1186 0050 1FBF     		itttt	ne
 1187 0052 2423     		movne	r3, #36
 1188 0054 03FB0464 		mlane	r4, r3, r4, r6
 1189 0058 9DF80430 		ldrbne	r3, [sp, #4]	@ zero_extendqisi2
 355:..\common\ud3core/cli_basic.c ****        return pdTRUE; 
 1190              		.loc 1 355 0
 1191 005c 0120     		movne	r0, #1
 356:..\common\ud3core/cli_basic.c ****     } else {
 357:..\common\ud3core/cli_basic.c ****         return pdFALSE;
 1192              		.loc 1 357 0
 1193 005e 0CBF     		ite	eq
 1194 0060 0020     		moveq	r0, #0
 354:..\common\ud3core/cli_basic.c ****        return pdTRUE; 
 1195              		.loc 1 354 0
 1196 0062 6370     		strbne	r3, [r4, #1]
 358:..\common\ud3core/cli_basic.c ****     }
 359:..\common\ud3core/cli_basic.c **** }
 1197              		.loc 1 359 0
 1198 0064 05B0     		add	sp, sp, #20
 1199              		.cfi_def_cfa_offset 36
 1200              		@ sp needed
 1201 0066 BDE8F08F 		pop	{r4, r5, r6, r7, r8, r9, r10, fp, pc}
 1202              		.cfi_endproc
 1203              	.LFE73:
 1204              		.size	set_visibility, .-set_visibility
 1205              		.section	.text.print_param_buffer,"ax",%progbits
 1206              		.align	1
 1207              		.global	print_param_buffer
 1208              		.thumb
 1209              		.thumb_func
 1210              		.type	print_param_buffer, %function
 1211              	print_param_buffer:
 1212              	.LFB74:
 360:..\common\ud3core/cli_basic.c **** 
 361:..\common\ud3core/cli_basic.c **** void print_param_buffer(char * buffer, parameter_entry * params, uint8_t index){
ARM GAS  C:\Users\chemi\AppData\Local\Temp\ccHerMgL.s 			page 29


 1213              		.loc 1 361 0
 1214              		.cfi_startproc
 1215              		@ args = 0, pretend = 0, frame = 0
 1216              		@ frame_needed = 0, uses_anonymous_args = 0
 1217              	.LVL157:
 1218 0000 2DE9F043 		push	{r4, r5, r6, r7, r8, r9, lr}
 1219              		.cfi_def_cfa_offset 28
 1220              		.cfi_offset 4, -28
 1221              		.cfi_offset 5, -24
 1222              		.cfi_offset 6, -20
 1223              		.cfi_offset 7, -16
 1224              		.cfi_offset 8, -12
 1225              		.cfi_offset 9, -8
 1226              		.cfi_offset 14, -4
 362:..\common\ud3core/cli_basic.c ****     uint32_t u_temp_buffer=0;
 363:..\common\ud3core/cli_basic.c ****     int32_t i_temp_buffer=0;
 364:..\common\ud3core/cli_basic.c ****     float f_temp_buffer=0.0;
 365:..\common\ud3core/cli_basic.c ****     switch (params[index].type){
 1227              		.loc 1 365 0
 1228 0004 2424     		movs	r4, #36
 1229 0006 04FB0214 		mla	r4, r4, r2, r1
 1230 000a 637B     		ldrb	r3, [r4, #13]	@ zero_extendqisi2
 361:..\common\ud3core/cli_basic.c ****     uint32_t u_temp_buffer=0;
 1231              		.loc 1 361 0
 1232 000c 89B0     		sub	sp, sp, #36
 1233              		.cfi_def_cfa_offset 64
 361:..\common\ud3core/cli_basic.c ****     uint32_t u_temp_buffer=0;
 1234              		.loc 1 361 0
 1235 000e 0546     		mov	r5, r0
 1236              		.loc 1 365 0
 1237 0010 042B     		cmp	r3, #4
 1238 0012 00F2AF80 		bhi	.L117
 1239 0016 DFE803F0 		tbb	[pc, r3]
 1240              	.LVL158:
 1241              	.L120:
 1242 001a 03       		.byte	(.L119-.L120)/2
 1243 001b 3D       		.byte	(.L121-.L120)/2
 1244 001c 80       		.byte	(.L122-.L120)/2
 1245 001d 94       		.byte	(.L123-.L120)/2
 1246 001e A0       		.byte	(.L124-.L120)/2
 1247 001f 00       		.p2align 1
 1248              	.L119:
 366:..\common\ud3core/cli_basic.c ****         case TYPE_UNSIGNED:
 367:..\common\ud3core/cli_basic.c ****             switch (params[index].size){
 1249              		.loc 1 367 0
 1250 0020 267B     		ldrb	r6, [r4, #12]	@ zero_extendqisi2
 1251 0022 022E     		cmp	r6, #2
 1252 0024 06D0     		beq	.L126
 1253 0026 042E     		cmp	r6, #4
 1254 0028 07D0     		beq	.L127
 1255 002a 012E     		cmp	r6, #1
 1256 002c 08D1     		bne	.L137
 368:..\common\ud3core/cli_basic.c ****                 case 1:
 369:..\common\ud3core/cli_basic.c ****                     u_temp_buffer = *(uint8_t*)params[index].value;
 1257              		.loc 1 369 0
 1258 002e A368     		ldr	r3, [r4, #8]
 1259 0030 1978     		ldrb	r1, [r3]	@ zero_extendqisi2
ARM GAS  C:\Users\chemi\AppData\Local\Temp\ccHerMgL.s 			page 30


 1260              	.LVL159:
 370:..\common\ud3core/cli_basic.c ****                     break;
 1261              		.loc 1 370 0
 1262 0032 06E0     		b	.L125
 1263              	.LVL160:
 1264              	.L126:
 371:..\common\ud3core/cli_basic.c ****                 case 2:
 372:..\common\ud3core/cli_basic.c ****                     u_temp_buffer = *(uint16_t*)params[index].value;
 1265              		.loc 1 372 0
 1266 0034 A368     		ldr	r3, [r4, #8]
 1267 0036 1988     		ldrh	r1, [r3]
 1268              	.LVL161:
 373:..\common\ud3core/cli_basic.c ****                     break;
 1269              		.loc 1 373 0
 1270 0038 03E0     		b	.L125
 1271              	.LVL162:
 1272              	.L127:
 374:..\common\ud3core/cli_basic.c ****                 case 4:
 375:..\common\ud3core/cli_basic.c ****                     u_temp_buffer = *(uint32_t*)params[index].value;
 1273              		.loc 1 375 0
 1274 003a A368     		ldr	r3, [r4, #8]
 1275 003c 1968     		ldr	r1, [r3]
 1276              	.LVL163:
 376:..\common\ud3core/cli_basic.c ****                     break;
 1277              		.loc 1 376 0
 1278 003e 00E0     		b	.L125
 1279              	.LVL164:
 1280              	.L137:
 362:..\common\ud3core/cli_basic.c ****     int32_t i_temp_buffer=0;
 1281              		.loc 1 362 0
 1282 0040 0021     		movs	r1, #0
 1283              	.LVL165:
 1284              	.L125:
 377:..\common\ud3core/cli_basic.c ****             }
 378:..\common\ud3core/cli_basic.c ****             if(params[index].div){
 1285              		.loc 1 378 0
 1286 0042 228B     		ldrh	r2, [r4, #24]
 1287 0044 2769     		ldr	r7, [r4, #16]
 1288 0046 D4F81480 		ldr	r8, [r4, #20]
 1289 004a EAB1     		cbz	r2, .L129
 379:..\common\ud3core/cli_basic.c ****                 sprintf(buffer, "%s;%u.%0*u;%u;%u;%i.%u;%i.%u",
 380:..\common\ud3core/cli_basic.c ****                     params[index].name,
 381:..\common\ud3core/cli_basic.c ****                     (u_temp_buffer/params[index].div),
 382:..\common\ud3core/cli_basic.c ****                     n_number(params[index].div)-1,
 1290              		.loc 1 382 0
 1291 004c 1046     		mov	r0, r2
 1292              	.LVL166:
 379:..\common\ud3core/cli_basic.c ****                 sprintf(buffer, "%s;%u.%0*u;%u;%u;%i.%u;%i.%u",
 1293              		.loc 1 379 0
 1294 004e B1FBF2F9 		udiv	r9, r1, r2
 1295              		.loc 1 382 0
 1296 0052 FFF7FEFF 		bl	n_number
 1297              	.LVL167:
 379:..\common\ud3core/cli_basic.c ****                 sprintf(buffer, "%s;%u.%0*u;%u;%u;%i.%u;%i.%u",
 1298              		.loc 1 379 0
 1299 0056 98FBF2F3 		sdiv	r3, r8, r2
 1300 005a 02FB1388 		mls	r8, r2, r3, r8
ARM GAS  C:\Users\chemi\AppData\Local\Temp\ccHerMgL.s 			page 31


 1301 005e 0693     		str	r3, [sp, #24]
 1302 0060 97FBF2F3 		sdiv	r3, r7, r2
 1303 0064 02FB1377 		mls	r7, r2, r3, r7
 1304 0068 02FB1912 		mls	r2, r2, r9, r1
 1305 006c 0493     		str	r3, [sp, #16]
 1306 006e 0138     		subs	r0, r0, #1
 1307 0070 0023     		movs	r3, #0
 1308 0072 0293     		str	r3, [sp, #8]
 1309 0074 CDF81C80 		str	r8, [sp, #28]
 1310 0078 0597     		str	r7, [sp, #20]
 1311 007a 0396     		str	r6, [sp, #12]
 1312 007c 0192     		str	r2, [sp, #4]
 1313 007e 0090     		str	r0, [sp]
 1314 0080 4B46     		mov	r3, r9
 1315 0082 6268     		ldr	r2, [r4, #4]
 1316 0084 3D49     		ldr	r1, .L141
 1317 0086 3AE0     		b	.L139
 1318              	.LVL168:
 1319              	.L129:
 383:..\common\ud3core/cli_basic.c ****                     (u_temp_buffer%params[index].div),
 384:..\common\ud3core/cli_basic.c ****                     params[index].type,
 385:..\common\ud3core/cli_basic.c ****                     params[index].size,
 386:..\common\ud3core/cli_basic.c ****                     (params[index].min/params[index].div),
 387:..\common\ud3core/cli_basic.c ****                     (params[index].min%params[index].div),
 388:..\common\ud3core/cli_basic.c ****                     (params[index].max/params[index].div),
 389:..\common\ud3core/cli_basic.c ****                     (params[index].max%params[index].div));
 390:..\common\ud3core/cli_basic.c ****             }else{
 391:..\common\ud3core/cli_basic.c ****                 sprintf(buffer, "%s;%u;%u;%u;%u;%u",
 1320              		.loc 1 391 0
 1321 0088 8DE8C401 		stmia	sp, {r2, r6, r7, r8}
 1322 008c 0B46     		mov	r3, r1
 1323 008e 6268     		ldr	r2, [r4, #4]
 1324 0090 3B49     		ldr	r1, .L141+4
 1325              	.LVL169:
 1326 0092 6CE0     		b	.L140
 1327              	.LVL170:
 1328              	.L121:
 392:..\common\ud3core/cli_basic.c ****                     params[index].name,
 393:..\common\ud3core/cli_basic.c ****                     u_temp_buffer,
 394:..\common\ud3core/cli_basic.c ****                     params[index].type,
 395:..\common\ud3core/cli_basic.c ****                     params[index].size,
 396:..\common\ud3core/cli_basic.c ****                     params[index].min,
 397:..\common\ud3core/cli_basic.c ****                     params[index].max
 398:..\common\ud3core/cli_basic.c ****                 );
 399:..\common\ud3core/cli_basic.c ****             }
 400:..\common\ud3core/cli_basic.c ****             break;
 401:..\common\ud3core/cli_basic.c ****         case TYPE_SIGNED:
 402:..\common\ud3core/cli_basic.c ****             switch (params[index].size){
 1329              		.loc 1 402 0
 1330 0094 267B     		ldrb	r6, [r4, #12]	@ zero_extendqisi2
 1331 0096 022E     		cmp	r6, #2
 1332 0098 07D0     		beq	.L131
 1333 009a 042E     		cmp	r6, #4
 1334 009c 09D0     		beq	.L132
 1335 009e 012E     		cmp	r6, #1
 1336 00a0 0AD1     		bne	.L138
 403:..\common\ud3core/cli_basic.c ****             case 1:
ARM GAS  C:\Users\chemi\AppData\Local\Temp\ccHerMgL.s 			page 32


 404:..\common\ud3core/cli_basic.c ****                 i_temp_buffer = *(int8_t*)params[index].value;
 1337              		.loc 1 404 0
 1338 00a2 A368     		ldr	r3, [r4, #8]
 1339 00a4 93F90010 		ldrsb	r1, [r3]
 1340              	.LVL171:
 405:..\common\ud3core/cli_basic.c ****                 break;
 1341              		.loc 1 405 0
 1342 00a8 07E0     		b	.L130
 1343              	.LVL172:
 1344              	.L131:
 406:..\common\ud3core/cli_basic.c ****             case 2:
 407:..\common\ud3core/cli_basic.c ****                 i_temp_buffer = *(int16_t*)params[index].value;
 1345              		.loc 1 407 0
 1346 00aa A368     		ldr	r3, [r4, #8]
 1347 00ac B3F90010 		ldrsh	r1, [r3]
 1348              	.LVL173:
 408:..\common\ud3core/cli_basic.c ****                 break;
 1349              		.loc 1 408 0
 1350 00b0 03E0     		b	.L130
 1351              	.LVL174:
 1352              	.L132:
 409:..\common\ud3core/cli_basic.c ****             case 4:
 410:..\common\ud3core/cli_basic.c ****                 i_temp_buffer = *(int32_t*)params[index].value;
 1353              		.loc 1 410 0
 1354 00b2 A368     		ldr	r3, [r4, #8]
 1355 00b4 1968     		ldr	r1, [r3]
 1356              	.LVL175:
 411:..\common\ud3core/cli_basic.c ****                 break;
 1357              		.loc 1 411 0
 1358 00b6 00E0     		b	.L130
 1359              	.LVL176:
 1360              	.L138:
 363:..\common\ud3core/cli_basic.c ****     float f_temp_buffer=0.0;
 1361              		.loc 1 363 0
 1362 00b8 0021     		movs	r1, #0
 1363              	.LVL177:
 1364              	.L130:
 412:..\common\ud3core/cli_basic.c ****             }
 413:..\common\ud3core/cli_basic.c ****             if(params[index].div){
 1365              		.loc 1 413 0
 1366 00ba 228B     		ldrh	r2, [r4, #24]
 1367 00bc 2769     		ldr	r7, [r4, #16]
 1368 00be D4F81480 		ldr	r8, [r4, #20]
 1369 00c2 02B3     		cbz	r2, .L134
 414:..\common\ud3core/cli_basic.c ****                 sprintf(buffer, "%s;%i.%0*u;%u;%u;%i.%u;%i.%u",
 415:..\common\ud3core/cli_basic.c ****                     params[index].name,
 416:..\common\ud3core/cli_basic.c ****                     (i_temp_buffer/params[index].div),
 417:..\common\ud3core/cli_basic.c ****                     n_number(params[index].div)-1,
 1370              		.loc 1 417 0
 1371 00c4 1046     		mov	r0, r2
 1372              	.LVL178:
 414:..\common\ud3core/cli_basic.c ****                 sprintf(buffer, "%s;%i.%0*u;%u;%u;%i.%u;%i.%u",
 1373              		.loc 1 414 0
 1374 00c6 91FBF2F9 		sdiv	r9, r1, r2
 1375              		.loc 1 417 0
 1376 00ca FFF7FEFF 		bl	n_number
 1377              	.LVL179:
ARM GAS  C:\Users\chemi\AppData\Local\Temp\ccHerMgL.s 			page 33


 414:..\common\ud3core/cli_basic.c ****                 sprintf(buffer, "%s;%i.%0*u;%u;%u;%i.%u;%i.%u",
 1378              		.loc 1 414 0
 1379 00ce 98FBF2F3 		sdiv	r3, r8, r2
 1380 00d2 02FB1388 		mls	r8, r2, r3, r8
 1381 00d6 0693     		str	r3, [sp, #24]
 1382 00d8 97FBF2F3 		sdiv	r3, r7, r2
 1383 00dc 02FB1377 		mls	r7, r2, r3, r7
 1384 00e0 0493     		str	r3, [sp, #16]
 1385 00e2 0123     		movs	r3, #1
 1386 00e4 0293     		str	r3, [sp, #8]
 1387 00e6 4B46     		mov	r3, r9
 1388 00e8 02FB1912 		mls	r2, r2, r9, r1
 1389 00ec 0138     		subs	r0, r0, #1
 1390 00ee CDF81C80 		str	r8, [sp, #28]
 1391 00f2 0597     		str	r7, [sp, #20]
 1392 00f4 0396     		str	r6, [sp, #12]
 1393 00f6 0192     		str	r2, [sp, #4]
 1394 00f8 0090     		str	r0, [sp]
 1395 00fa 6268     		ldr	r2, [r4, #4]
 1396 00fc 2149     		ldr	r1, .L141+8
 1397              	.LVL180:
 1398              	.L139:
 1399 00fe 2846     		mov	r0, r5
 1400 0100 FFF7FEFF 		bl	sprintf_
 1401              	.LVL181:
 1402 0104 36E0     		b	.L117
 1403              	.LVL182:
 1404              	.L134:
 418:..\common\ud3core/cli_basic.c ****                     i_temp_buffer%params[index].div,
 419:..\common\ud3core/cli_basic.c ****                     params[index].type,
 420:..\common\ud3core/cli_basic.c ****                     params[index].size,
 421:..\common\ud3core/cli_basic.c ****                     (params[index].min/params[index].div),
 422:..\common\ud3core/cli_basic.c ****                     params[index].min%params[index].div,
 423:..\common\ud3core/cli_basic.c ****                     (params[index].max/params[index].div),
 424:..\common\ud3core/cli_basic.c ****                     params[index].max%params[index].div);
 425:..\common\ud3core/cli_basic.c ****             }else{
 426:..\common\ud3core/cli_basic.c ****                 sprintf(buffer, "%s;%i;%u;%u;%i;%i",
 1405              		.loc 1 426 0
 1406 0106 0123     		movs	r3, #1
 1407 0108 0093     		str	r3, [sp]
 1408 010a CDF80C80 		str	r8, [sp, #12]
 1409 010e 0297     		str	r7, [sp, #8]
 1410 0110 0196     		str	r6, [sp, #4]
 1411 0112 0B46     		mov	r3, r1
 1412 0114 6268     		ldr	r2, [r4, #4]
 1413 0116 1C49     		ldr	r1, .L141+12
 1414              	.LVL183:
 1415 0118 29E0     		b	.L140
 1416              	.LVL184:
 1417              	.L122:
 427:..\common\ud3core/cli_basic.c ****                     params[index].name,
 428:..\common\ud3core/cli_basic.c ****                     i_temp_buffer,
 429:..\common\ud3core/cli_basic.c ****                     params[index].type,
 430:..\common\ud3core/cli_basic.c ****                     params[index].size,
 431:..\common\ud3core/cli_basic.c ****                     params[index].min,
 432:..\common\ud3core/cli_basic.c ****                     params[index].max);
 433:..\common\ud3core/cli_basic.c ****             }
ARM GAS  C:\Users\chemi\AppData\Local\Temp\ccHerMgL.s 			page 34


 434:..\common\ud3core/cli_basic.c ****             break;
 435:..\common\ud3core/cli_basic.c ****         case TYPE_FLOAT:
 436:..\common\ud3core/cli_basic.c ****             f_temp_buffer = *(float*)params[index].value;
 437:..\common\ud3core/cli_basic.c ****             sprintf(buffer, "%s;%f;%u;%u;%i;%i",
 1418              		.loc 1 437 0
 1419 011a 6369     		ldr	r3, [r4, #20]
 1420 011c 0593     		str	r3, [sp, #20]
 1421              	.LVL185:
 1422 011e 2369     		ldr	r3, [r4, #16]
 1423 0120 0493     		str	r3, [sp, #16]
 1424 0122 237B     		ldrb	r3, [r4, #12]	@ zero_extendqisi2
 1425 0124 0393     		str	r3, [sp, #12]
 1426 0126 0223     		movs	r3, #2
 1427 0128 0293     		str	r3, [sp, #8]
 436:..\common\ud3core/cli_basic.c ****             sprintf(buffer, "%s;%f;%u;%u;%i;%i",
 1428              		.loc 1 436 0
 1429 012a A368     		ldr	r3, [r4, #8]
 1430              		.loc 1 437 0
 1431 012c 1868     		ldr	r0, [r3]	@ float
 1432              	.LVL186:
 1433 012e FFF7FEFF 		bl	__aeabi_f2d
 1434              	.LVL187:
 1435 0132 CDE90001 		strd	r0, [sp]
 1436 0136 1549     		ldr	r1, .L141+16
 1437 0138 6268     		ldr	r2, [r4, #4]
 1438 013a 2846     		mov	r0, r5
 1439 013c FFF7FEFF 		bl	sprintf_
 1440              	.LVL188:
 438:..\common\ud3core/cli_basic.c ****                 params[index].name,
 439:..\common\ud3core/cli_basic.c ****                 f_temp_buffer,
 440:..\common\ud3core/cli_basic.c ****                 params[index].type,
 441:..\common\ud3core/cli_basic.c ****                 params[index].size,
 442:..\common\ud3core/cli_basic.c ****                 params[index].min,
 443:..\common\ud3core/cli_basic.c ****                 params[index].max);
 444:..\common\ud3core/cli_basic.c ****             break;
 1441              		.loc 1 444 0
 1442 0140 18E0     		b	.L117
 1443              	.LVL189:
 1444              	.L123:
 445:..\common\ud3core/cli_basic.c ****         case TYPE_CHAR:
 446:..\common\ud3core/cli_basic.c ****             sprintf(buffer, "%s;%c;%u;%u;%s;%s",
 447:..\common\ud3core/cli_basic.c ****                 params[index].name,
 448:..\common\ud3core/cli_basic.c ****                 *(char*)params[index].value,
 1445              		.loc 1 448 0
 1446 0142 A368     		ldr	r3, [r4, #8]
 446:..\common\ud3core/cli_basic.c ****                 params[index].name,
 1447              		.loc 1 446 0
 1448 0144 124A     		ldr	r2, .L141+20
 1449 0146 1B78     		ldrb	r3, [r3]	@ zero_extendqisi2
 1450 0148 0392     		str	r2, [sp, #12]
 1451 014a 0292     		str	r2, [sp, #8]
 1452 014c 227B     		ldrb	r2, [r4, #12]	@ zero_extendqisi2
 1453 014e 1149     		ldr	r1, .L141+24
 1454              	.LVL190:
 1455 0150 0192     		str	r2, [sp, #4]
 1456 0152 0322     		movs	r2, #3
 1457 0154 0092     		str	r2, [sp]
ARM GAS  C:\Users\chemi\AppData\Local\Temp\ccHerMgL.s 			page 35


 1458 0156 6268     		ldr	r2, [r4, #4]
 1459 0158 09E0     		b	.L140
 1460              	.LVL191:
 1461              	.L124:
 449:..\common\ud3core/cli_basic.c ****                 params[index].type,
 450:..\common\ud3core/cli_basic.c ****                 params[index].size,
 451:..\common\ud3core/cli_basic.c ****                 "NULL",
 452:..\common\ud3core/cli_basic.c ****                 "NULL");
 453:..\common\ud3core/cli_basic.c ****             break;
 454:..\common\ud3core/cli_basic.c ****         case TYPE_STRING:
 455:..\common\ud3core/cli_basic.c ****             sprintf(buffer, "%s;%s;%u;%u;%s;%s",
 1462              		.loc 1 455 0
 1463 015a 0D4B     		ldr	r3, .L141+20
 1464 015c 0E49     		ldr	r1, .L141+28
 1465              	.LVL192:
 1466 015e 0393     		str	r3, [sp, #12]
 1467 0160 0293     		str	r3, [sp, #8]
 1468 0162 237B     		ldrb	r3, [r4, #12]	@ zero_extendqisi2
 1469 0164 0193     		str	r3, [sp, #4]
 1470 0166 0423     		movs	r3, #4
 1471 0168 0093     		str	r3, [sp]
 1472 016a A368     		ldr	r3, [r4, #8]
 1473 016c 6268     		ldr	r2, [r4, #4]
 1474              	.LVL193:
 1475              	.L140:
 1476 016e 2846     		mov	r0, r5
 1477              	.LVL194:
 1478 0170 FFF7FEFF 		bl	sprintf_
 1479              	.LVL195:
 1480              	.L117:
 456:..\common\ud3core/cli_basic.c ****                 params[index].name,
 457:..\common\ud3core/cli_basic.c ****                 (char*)params[index].value,
 458:..\common\ud3core/cli_basic.c ****                 params[index].type,
 459:..\common\ud3core/cli_basic.c ****                 params[index].size,
 460:..\common\ud3core/cli_basic.c ****                 "NULL",
 461:..\common\ud3core/cli_basic.c ****                 "NULL");
 462:..\common\ud3core/cli_basic.c ****             break;
 463:..\common\ud3core/cli_basic.c ****         }
 464:..\common\ud3core/cli_basic.c **** }
 1481              		.loc 1 464 0
 1482 0174 09B0     		add	sp, sp, #36
 1483              		.cfi_def_cfa_offset 28
 1484              		@ sp needed
 1485 0176 BDE8F083 		pop	{r4, r5, r6, r7, r8, r9, pc}
 1486              	.LVL196:
 1487              	.L142:
 1488 017a 00BF     		.align	2
 1489              	.L141:
 1490 017c 32010000 		.word	.LC23
 1491 0180 4F010000 		.word	.LC24
 1492 0184 61010000 		.word	.LC25
 1493 0188 7E010000 		.word	.LC26
 1494 018c 90010000 		.word	.LC27
 1495 0190 B4010000 		.word	.LC29
 1496 0194 A2010000 		.word	.LC28
 1497 0198 B9010000 		.word	.LC30
 1498              		.cfi_endproc
ARM GAS  C:\Users\chemi\AppData\Local\Temp\ccHerMgL.s 			page 36


 1499              	.LFE74:
 1500              		.size	print_param_buffer, .-print_param_buffer
 1501              		.section	.text.EEPROM_Read_Row,"ax",%progbits
 1502              		.align	1
 1503              		.global	EEPROM_Read_Row
 1504              		.thumb
 1505              		.thumb_func
 1506              		.type	EEPROM_Read_Row, %function
 1507              	EEPROM_Read_Row:
 1508              	.LFB75:
 465:..\common\ud3core/cli_basic.c **** 
 466:..\common\ud3core/cli_basic.c **** 
 467:..\common\ud3core/cli_basic.c **** uint8_t EEPROM_Read_Row(uint8_t row, uint8_t * buffer){
 1509              		.loc 1 467 0
 1510              		.cfi_startproc
 1511              		@ args = 0, pretend = 0, frame = 0
 1512              		@ frame_needed = 0, uses_anonymous_args = 0
 1513              	.LVL197:
 1514 0000 70B5     		push	{r4, r5, r6, lr}
 1515              		.cfi_def_cfa_offset 16
 1516              		.cfi_offset 4, -16
 1517              		.cfi_offset 5, -12
 1518              		.cfi_offset 6, -8
 1519              		.cfi_offset 14, -4
 468:..\common\ud3core/cli_basic.c ****     uint16_t addr;
 469:..\common\ud3core/cli_basic.c ****     addr = row * CY_EEPROM_SIZEOF_ROW;
 1520              		.loc 1 469 0
 1521 0002 0C46     		mov	r4, r1
 1522 0004 01F11005 		add	r5, r1, #16
 1523              	.LBB14:
 470:..\common\ud3core/cli_basic.c ****     for(uint8_t i = 0; i<CY_EEPROM_SIZEOF_ROW;i++){
 471:..\common\ud3core/cli_basic.c ****         *buffer=EEPROM_READ_BYTE(addr+i);
 1524              		.loc 1 471 0
 1525 0008 C1EB0016 		rsb	r6, r1, r0, lsl #4
 1526              	.LVL198:
 1527              	.L144:
 1528              		.loc 1 471 0 is_stmt 0 discriminator 3
 1529 000c A019     		adds	r0, r4, r6
 1530 000e 80B2     		uxth	r0, r0
 1531 0010 FFF7FEFF 		bl	EEPROM_1_ReadByte
 1532              	.LVL199:
 1533 0014 04F8010B 		strb	r0, [r4], #1
 1534              	.LVL200:
 470:..\common\ud3core/cli_basic.c ****     for(uint8_t i = 0; i<CY_EEPROM_SIZEOF_ROW;i++){
 1535              		.loc 1 470 0 is_stmt 1 discriminator 3
 1536 0018 AC42     		cmp	r4, r5
 1537 001a F7D1     		bne	.L144
 1538              	.LBE14:
 472:..\common\ud3core/cli_basic.c ****         buffer++;
 473:..\common\ud3core/cli_basic.c ****     }
 474:..\common\ud3core/cli_basic.c ****     return 1;
 475:..\common\ud3core/cli_basic.c **** }
 1539              		.loc 1 475 0
 1540 001c 0120     		movs	r0, #1
 1541 001e 70BD     		pop	{r4, r5, r6, pc}
 1542              		.cfi_endproc
 1543              	.LFE75:
ARM GAS  C:\Users\chemi\AppData\Local\Temp\ccHerMgL.s 			page 37


 1544              		.size	EEPROM_Read_Row, .-EEPROM_Read_Row
 1545              		.section	.text.EEPROM_buffer_write,"ax",%progbits
 1546              		.align	1
 1547              		.global	EEPROM_buffer_write
 1548              		.thumb
 1549              		.thumb_func
 1550              		.type	EEPROM_buffer_write, %function
 1551              	EEPROM_buffer_write:
 1552              	.LFB76:
 476:..\common\ud3core/cli_basic.c **** 
 477:..\common\ud3core/cli_basic.c **** uint8_t EEPROM_buffer_write(uint8_t byte, uint16_t address, uint8_t flush){
 1553              		.loc 1 477 0
 1554              		.cfi_startproc
 1555              		@ args = 0, pretend = 0, frame = 0
 1556              		@ frame_needed = 0, uses_anonymous_args = 0
 1557              	.LVL201:
 1558 0000 2DE9F843 		push	{r3, r4, r5, r6, r7, r8, r9, lr}
 1559              		.cfi_def_cfa_offset 32
 1560              		.cfi_offset 3, -32
 1561              		.cfi_offset 4, -28
 1562              		.cfi_offset 5, -24
 1563              		.cfi_offset 6, -20
 1564              		.cfi_offset 7, -16
 1565              		.cfi_offset 8, -12
 1566              		.cfi_offset 9, -8
 1567              		.cfi_offset 14, -4
 1568              		.loc 1 477 0
 1569 0004 9046     		mov	r8, r2
 478:..\common\ud3core/cli_basic.c ****     byte_cnt++;
 1570              		.loc 1 478 0
 1571 0006 204A     		ldr	r2, .L160
 1572              	.LVL202:
 479:..\common\ud3core/cli_basic.c ****     static uint8_t eeprom_buffer[CY_EEPROM_SIZEOF_ROW];
 480:..\common\ud3core/cli_basic.c ****     static uint16_t last_row = 0xFFFF;
 481:..\common\ud3core/cli_basic.c ****     static uint8_t changed=0;
 482:..\common\ud3core/cli_basic.c ****     uint8_t ret_change=0;
 483:..\common\ud3core/cli_basic.c ****     uint16_t rowNumber;
 484:..\common\ud3core/cli_basic.c ****     uint16_t byteNumber;
 485:..\common\ud3core/cli_basic.c ****     rowNumber = address/(uint16_t)CY_EEPROM_SIZEOF_ROW;
 486:..\common\ud3core/cli_basic.c ****     byteNumber = address - (rowNumber * ((uint16_t)CY_EEPROM_SIZEOF_ROW));
 487:..\common\ud3core/cli_basic.c ****     if(last_row==0xFFFF){
 1573              		.loc 1 487 0
 1574 0008 204F     		ldr	r7, .L160+4
 478:..\common\ud3core/cli_basic.c ****     byte_cnt++;
 1575              		.loc 1 478 0
 1576 000a 1388     		ldrh	r3, [r2]
 485:..\common\ud3core/cli_basic.c ****     byteNumber = address - (rowNumber * ((uint16_t)CY_EEPROM_SIZEOF_ROW));
 1577              		.loc 1 485 0
 1578 000c 0C09     		lsrs	r4, r1, #4
 478:..\common\ud3core/cli_basic.c ****     byte_cnt++;
 1579              		.loc 1 478 0
 1580 000e 0133     		adds	r3, r3, #1
 1581 0010 1380     		strh	r3, [r2]	@ movhi
 1582              	.LVL203:
 1583              		.loc 1 487 0
 1584 0012 4FF6FF73 		movw	r3, #65535
 486:..\common\ud3core/cli_basic.c ****     if(last_row==0xFFFF){
ARM GAS  C:\Users\chemi\AppData\Local\Temp\ccHerMgL.s 			page 38


 1585              		.loc 1 486 0
 1586 0016 01F00F09 		and	r9, r1, #15
 1587              	.LVL204:
 1588              		.loc 1 487 0
 1589 001a 3988     		ldrh	r1, [r7]
 1590              	.LVL205:
 477:..\common\ud3core/cli_basic.c ****     byte_cnt++;
 1591              		.loc 1 477 0
 1592 001c 0646     		mov	r6, r0
 1593              		.loc 1 487 0
 1594 001e 9942     		cmp	r1, r3
 1595 0020 1B4D     		ldr	r5, .L160+8
 1596 0022 05D1     		bne	.L147
 488:..\common\ud3core/cli_basic.c ****         last_row=rowNumber;
 489:..\common\ud3core/cli_basic.c ****         EEPROM_Read_Row(rowNumber,eeprom_buffer);
 1597              		.loc 1 489 0
 1598 0024 2946     		mov	r1, r5
 1599 0026 E0B2     		uxtb	r0, r4
 1600              	.LVL206:
 488:..\common\ud3core/cli_basic.c ****         last_row=rowNumber;
 1601              		.loc 1 488 0
 1602 0028 3C80     		strh	r4, [r7]	@ movhi
 1603              		.loc 1 489 0
 1604 002a FFF7FEFF 		bl	EEPROM_Read_Row
 1605              	.LVL207:
 1606 002e 0DE0     		b	.L148
 1607              	.LVL208:
 1608              	.L147:
 490:..\common\ud3core/cli_basic.c ****     }else if(last_row!=rowNumber){
 1609              		.loc 1 490 0
 1610 0030 8C42     		cmp	r4, r1
 1611 0032 0BD0     		beq	.L148
 491:..\common\ud3core/cli_basic.c ****         if(changed){
 1612              		.loc 1 491 0
 1613 0034 2B7C     		ldrb	r3, [r5, #16]	@ zero_extendqisi2
 1614 0036 1BB1     		cbz	r3, .L149
 492:..\common\ud3core/cli_basic.c ****             EEPROM_WRITE_ROW(last_row,eeprom_buffer);
 1615              		.loc 1 492 0
 1616 0038 C9B2     		uxtb	r1, r1
 1617 003a 2846     		mov	r0, r5
 1618              	.LVL209:
 1619 003c FFF7FEFF 		bl	EEPROM_1_Write
 1620              	.LVL210:
 1621              	.L149:
 493:..\common\ud3core/cli_basic.c ****         }
 494:..\common\ud3core/cli_basic.c ****         EEPROM_Read_Row(rowNumber,eeprom_buffer);
 1622              		.loc 1 494 0
 1623 0040 1349     		ldr	r1, .L160+8
 1624 0042 E0B2     		uxtb	r0, r4
 1625 0044 FFF7FEFF 		bl	EEPROM_Read_Row
 1626              	.LVL211:
 495:..\common\ud3core/cli_basic.c ****         changed=0;
 1627              		.loc 1 495 0
 1628 0048 0023     		movs	r3, #0
 1629 004a 2B74     		strb	r3, [r5, #16]
 1630              	.L148:
 496:..\common\ud3core/cli_basic.c ****     }
ARM GAS  C:\Users\chemi\AppData\Local\Temp\ccHerMgL.s 			page 39


 497:..\common\ud3core/cli_basic.c ****     if(eeprom_buffer[byteNumber]!=byte){
 1631              		.loc 1 497 0
 1632 004c 15F80920 		ldrb	r2, [r5, r9]	@ zero_extendqisi2
 1633 0050 0F4B     		ldr	r3, .L160+8
 1634 0052 B242     		cmp	r2, r6
 498:..\common\ud3core/cli_basic.c ****        eeprom_buffer[byteNumber]=byte;
 1635              		.loc 1 498 0
 1636 0054 1DBF     		ittte	ne
 1637 0056 03F80960 		strbne	r6, [r3, r9]
 499:..\common\ud3core/cli_basic.c ****        changed=1;
 1638              		.loc 1 499 0
 1639 005a 0126     		movne	r6, #1
 1640 005c 1E74     		strbne	r6, [r3, #16]
 1641              	.LVL212:
 482:..\common\ud3core/cli_basic.c ****     uint16_t rowNumber;
 1642              		.loc 1 482 0
 1643 005e 0026     		moveq	r6, #0
 1644              	.LVL213:
 500:..\common\ud3core/cli_basic.c ****        ret_change=1;
 501:..\common\ud3core/cli_basic.c ****     }
 502:..\common\ud3core/cli_basic.c **** 
 503:..\common\ud3core/cli_basic.c ****     last_row = rowNumber;
 1645              		.loc 1 503 0
 1646 0060 0A4B     		ldr	r3, .L160+4
 1647 0062 3C80     		strh	r4, [r7]	@ movhi
 504:..\common\ud3core/cli_basic.c **** 
 505:..\common\ud3core/cli_basic.c ****     if(flush && changed){
 1648              		.loc 1 505 0
 1649 0064 B8F1000F 		cmp	r8, #0
 1650 0068 0BD0     		beq	.L151
 1651 006a 4FF6FF72 		movw	r2, #65535
 1652              		.loc 1 505 0 is_stmt 0 discriminator 1
 1653 006e 297C     		ldrb	r1, [r5, #16]	@ zero_extendqisi2
 1654 0070 074F     		ldr	r7, .L160+8
 506:..\common\ud3core/cli_basic.c ****         last_row = 0xFFFF;
 1655              		.loc 1 506 0 is_stmt 1 discriminator 1
 1656 0072 1A80     		strh	r2, [r3]	@ movhi
 505:..\common\ud3core/cli_basic.c ****         last_row = 0xFFFF;
 1657              		.loc 1 505 0 discriminator 1
 1658 0074 29B1     		cbz	r1, .L151
 507:..\common\ud3core/cli_basic.c ****         EEPROM_WRITE_ROW(rowNumber,eeprom_buffer);
 1659              		.loc 1 507 0
 1660 0076 E1B2     		uxtb	r1, r4
 1661 0078 3846     		mov	r0, r7
 1662 007a FFF7FEFF 		bl	EEPROM_1_Write
 1663              	.LVL214:
 508:..\common\ud3core/cli_basic.c ****         changed = 0;
 1664              		.loc 1 508 0
 1665 007e 0023     		movs	r3, #0
 1666 0080 3B74     		strb	r3, [r7, #16]
 1667              	.L151:
 509:..\common\ud3core/cli_basic.c ****     }else if(flush){
 510:..\common\ud3core/cli_basic.c ****         last_row = 0xFFFF;
 511:..\common\ud3core/cli_basic.c ****     }
 512:..\common\ud3core/cli_basic.c ****     return ret_change;
 513:..\common\ud3core/cli_basic.c **** }
 1668              		.loc 1 513 0
ARM GAS  C:\Users\chemi\AppData\Local\Temp\ccHerMgL.s 			page 40


 1669 0082 3046     		mov	r0, r6
 1670 0084 BDE8F883 		pop	{r3, r4, r5, r6, r7, r8, r9, pc}
 1671              	.LVL215:
 1672              	.L161:
 1673              		.align	2
 1674              	.L160:
 1675 0088 00000000 		.word	byte_cnt
 1676 008c 00000000 		.word	.LANCHOR0
 1677 0090 00000000 		.word	.LANCHOR1
 1678              		.cfi_endproc
 1679              	.LFE76:
 1680              		.size	EEPROM_buffer_write, .-EEPROM_buffer_write
 1681              		.section	.text.djb_hash,"ax",%progbits
 1682              		.align	1
 1683              		.global	djb_hash
 1684              		.thumb
 1685              		.thumb_func
 1686              		.type	djb_hash, %function
 1687              	djb_hash:
 1688              	.LFB77:
 514:..\common\ud3core/cli_basic.c **** 
 515:..\common\ud3core/cli_basic.c **** uint32_t djb_hash(const char* cp)
 516:..\common\ud3core/cli_basic.c **** {
 1689              		.loc 1 516 0
 1690              		.cfi_startproc
 1691              		@ args = 0, pretend = 0, frame = 0
 1692              		@ frame_needed = 0, uses_anonymous_args = 0
 1693              		@ link register save eliminated.
 1694              	.LVL216:
 1695 0000 421E     		subs	r2, r0, #1
 517:..\common\ud3core/cli_basic.c ****     uint32_t hash = 5381;
 1696              		.loc 1 517 0
 1697 0002 41F20550 		movw	r0, #5381
 1698              	.LVL217:
 1699              	.L163:
 518:..\common\ud3core/cli_basic.c ****     while (*cp)
 1700              		.loc 1 518 0
 1701 0006 12F8013F 		ldrb	r3, [r2, #1]!	@ zero_extendqisi2
 1702              	.LVL218:
 1703 000a 1BB1     		cbz	r3, .L165
 519:..\common\ud3core/cli_basic.c ****         hash = 33 * hash ^ (unsigned char) *cp++;
 1704              		.loc 1 519 0
 1705 000c 00EB4010 		add	r0, r0, r0, lsl #5
 1706              	.LVL219:
 1707 0010 5840     		eors	r0, r0, r3
 1708              	.LVL220:
 1709 0012 F8E7     		b	.L163
 1710              	.LVL221:
 1711              	.L165:
 520:..\common\ud3core/cli_basic.c ****     return hash;
 521:..\common\ud3core/cli_basic.c **** }
 1712              		.loc 1 521 0
 1713 0014 7047     		bx	lr
 1714              		.cfi_endproc
 1715              	.LFE77:
 1716              		.size	djb_hash, .-djb_hash
 1717              		.section	.text.EEPROM_check_hash,"ax",%progbits
ARM GAS  C:\Users\chemi\AppData\Local\Temp\ccHerMgL.s 			page 41


 1718              		.align	1
 1719              		.global	EEPROM_check_hash
 1720              		.thumb
 1721              		.thumb_func
 1722              		.type	EEPROM_check_hash, %function
 1723              	EEPROM_check_hash:
 1724              	.LFB78:
 522:..\common\ud3core/cli_basic.c **** 
 523:..\common\ud3core/cli_basic.c **** void EEPROM_check_hash(parameter_entry * params, uint8_t param_size, TERMINAL_HANDLE * handle){
 1725              		.loc 1 523 0
 1726              		.cfi_startproc
 1727              		@ args = 0, pretend = 0, frame = 16
 1728              		@ frame_needed = 0, uses_anonymous_args = 0
 1729              	.LVL222:
 1730 0000 0B46     		mov	r3, r1
 1731 0002 2DE9F04F 		push	{r4, r5, r6, r7, r8, r9, r10, fp, lr}
 1732              		.cfi_def_cfa_offset 36
 1733              		.cfi_offset 4, -36
 1734              		.cfi_offset 5, -32
 1735              		.cfi_offset 6, -28
 1736              		.cfi_offset 7, -24
 1737              		.cfi_offset 8, -20
 1738              		.cfi_offset 9, -16
 1739              		.cfi_offset 10, -12
 1740              		.cfi_offset 11, -8
 1741              		.cfi_offset 14, -4
 1742 0006 8146     		mov	r9, r0
 1743 0008 1546     		mov	r5, r2
 1744              	.LBB15:
 524:..\common\ud3core/cli_basic.c ****     uint32_t temp_hash1;
 525:..\common\ud3core/cli_basic.c ****     uint32_t temp_hash2;
 526:..\common\ud3core/cli_basic.c ****     uint32_t collision=0;
 527:..\common\ud3core/cli_basic.c ****     for (uint8_t  current_parameter = 0; current_parameter < param_size; current_parameter++) {
 1745              		.loc 1 527 0
 1746 000a 0446     		mov	r4, r0
 1747 000c 0133     		adds	r3, r3, #1
 1748              	.LBE15:
 523:..\common\ud3core/cli_basic.c ****     uint32_t temp_hash1;
 1749              		.loc 1 523 0
 1750 000e 85B0     		sub	sp, sp, #20
 1751              		.cfi_def_cfa_offset 56
 1752 0010 DBB2     		uxtb	r3, r3
 523:..\common\ud3core/cli_basic.c ****     uint32_t temp_hash1;
 1753              		.loc 1 523 0
 1754 0012 0191     		str	r1, [sp, #4]
 1755 0014 0293     		str	r3, [sp, #8]
 1756              	.LBB19:
 1757              		.loc 1 527 0
 1758 0016 0126     		movs	r6, #1
 1759              	.LBE19:
 526:..\common\ud3core/cli_basic.c ****     for (uint8_t  current_parameter = 0; current_parameter < param_size; current_parameter++) {
 1760              		.loc 1 526 0
 1761 0018 0027     		movs	r7, #0
 1762              	.LVL223:
 1763              	.L167:
 1764              	.LBB20:
 1765              		.loc 1 527 0 discriminator 1
ARM GAS  C:\Users\chemi\AppData\Local\Temp\ccHerMgL.s 			page 42


 1766 001a 029B     		ldr	r3, [sp, #8]
 1767 001c 9E42     		cmp	r6, r3
 1768 001e 45D0     		beq	.L177
 528:..\common\ud3core/cli_basic.c ****         if(params[current_parameter].parameter_type == PARAM_CONFIG){
 1769              		.loc 1 528 0
 1770 0020 2378     		ldrb	r3, [r4]	@ zero_extendqisi2
 1771 0022 012B     		cmp	r3, #1
 1772 0024 3ED1     		bne	.L168
 529:..\common\ud3core/cli_basic.c ****             temp_hash1=djb_hash(params[current_parameter].name);
 1773              		.loc 1 529 0
 1774 0026 6068     		ldr	r0, [r4, #4]
 1775 0028 FFF7FEFF 		bl	djb_hash
 1776              	.LVL224:
 1777              	.LBB16:
 530:..\common\ud3core/cli_basic.c ****             for (uint8_t  n = 0; n < current_parameter; n++) {
 1778              		.loc 1 530 0
 1779 002c C846     		mov	r8, r9
 1780              	.LBE16:
 529:..\common\ud3core/cli_basic.c ****             temp_hash1=djb_hash(params[current_parameter].name);
 1781              		.loc 1 529 0
 1782 002e 8246     		mov	r10, r0
 1783              	.LVL225:
 1784              	.L169:
 1785              	.LBB17:
 1786              		.loc 1 530 0 discriminator 1
 1787 0030 4445     		cmp	r4, r8
 1788 0032 16D0     		beq	.L178
 531:..\common\ud3core/cli_basic.c ****                 if(params[n].parameter_type == PARAM_CONFIG){
 1789              		.loc 1 531 0
 1790 0034 98F800B0 		ldrb	fp, [r8]	@ zero_extendqisi2
 1791 0038 BBF1010F 		cmp	fp, #1
 1792 003c 0ED1     		bne	.L170
 532:..\common\ud3core/cli_basic.c ****                     temp_hash2=djb_hash(params[n].name);
 1793              		.loc 1 532 0
 1794 003e D8F80430 		ldr	r3, [r8, #4]
 1795 0042 1846     		mov	r0, r3
 1796 0044 0393     		str	r3, [sp, #12]
 1797 0046 FFF7FEFF 		bl	djb_hash
 1798              	.LVL226:
 533:..\common\ud3core/cli_basic.c ****                     if(temp_hash1==temp_hash2){
 1799              		.loc 1 533 0
 1800 004a 8245     		cmp	r10, r0
 1801 004c 039B     		ldr	r3, [sp, #12]
 1802 004e 05D1     		bne	.L170
 534:..\common\ud3core/cli_basic.c ****                         ttprintf("Found collision %s <-> %s\r\n", params[current_parameter].name, p
 1803              		.loc 1 534 0
 1804 0050 6F6A     		ldr	r7, [r5, #36]
 1805 0052 6268     		ldr	r2, [r4, #4]
 1806 0054 1B49     		ldr	r1, .L179
 1807 0056 6868     		ldr	r0, [r5, #4]
 1808              	.LVL227:
 1809 0058 B847     		blx	r7
 1810              	.LVL228:
 535:..\common\ud3core/cli_basic.c ****                         collision=1;
 1811              		.loc 1 535 0
 1812 005a 5F46     		mov	r7, fp
 1813              	.LVL229:
ARM GAS  C:\Users\chemi\AppData\Local\Temp\ccHerMgL.s 			page 43


 1814              	.L170:
 1815 005c 08F12408 		add	r8, r8, #36
 1816 0060 E6E7     		b	.L169
 1817              	.L178:
 1818 0062 B046     		mov	r8, r6
 1819              	.L172:
 1820              	.LVL230:
 1821              	.LBE17:
 1822              	.LBB18:
 536:..\common\ud3core/cli_basic.c ****                     }
 537:..\common\ud3core/cli_basic.c ****                 }
 538:..\common\ud3core/cli_basic.c ****             }
 539:..\common\ud3core/cli_basic.c ****             for (uint8_t  n = current_parameter+1; n < param_size; n++) {
 1823              		.loc 1 539 0 discriminator 1
 1824 0064 019B     		ldr	r3, [sp, #4]
 1825 0066 9845     		cmp	r8, r3
 1826 0068 1CD0     		beq	.L168
 540:..\common\ud3core/cli_basic.c ****                 if(params[n].parameter_type == PARAM_CONFIG){
 1827              		.loc 1 540 0
 1828 006a 2423     		movs	r3, #36
 1829 006c 03FB08F3 		mul	r3, r3, r8
 1830 0070 19F803B0 		ldrb	fp, [r9, r3]	@ zero_extendqisi2
 1831 0074 09EB0302 		add	r2, r9, r3
 1832 0078 BBF1010F 		cmp	fp, #1
 1833 007c 0DD1     		bne	.L173
 541:..\common\ud3core/cli_basic.c ****                     temp_hash2=djb_hash(params[n].name);
 1834              		.loc 1 541 0
 1835 007e 5368     		ldr	r3, [r2, #4]
 1836 0080 1846     		mov	r0, r3
 1837 0082 0393     		str	r3, [sp, #12]
 1838 0084 FFF7FEFF 		bl	djb_hash
 1839              	.LVL231:
 542:..\common\ud3core/cli_basic.c ****                     if(temp_hash1==temp_hash2){
 1840              		.loc 1 542 0
 1841 0088 8245     		cmp	r10, r0
 1842 008a 039B     		ldr	r3, [sp, #12]
 1843 008c 05D1     		bne	.L173
 543:..\common\ud3core/cli_basic.c ****                         ttprintf("Found collision %s <-> %s\r\n", params[current_parameter].name, p
 1844              		.loc 1 543 0
 1845 008e 6F6A     		ldr	r7, [r5, #36]
 1846 0090 6268     		ldr	r2, [r4, #4]
 1847 0092 0C49     		ldr	r1, .L179
 1848 0094 6868     		ldr	r0, [r5, #4]
 1849              	.LVL232:
 1850 0096 B847     		blx	r7
 1851              	.LVL233:
 544:..\common\ud3core/cli_basic.c ****                         collision=1;
 1852              		.loc 1 544 0
 1853 0098 5F46     		mov	r7, fp
 1854              	.LVL234:
 1855              	.L173:
 539:..\common\ud3core/cli_basic.c ****                 if(params[n].parameter_type == PARAM_CONFIG){
 1856              		.loc 1 539 0 discriminator 2
 1857 009a 08F10108 		add	r8, r8, #1
 1858              	.LVL235:
 1859 009e 5FFA88F8 		uxtb	r8, r8
 1860              	.LVL236:
ARM GAS  C:\Users\chemi\AppData\Local\Temp\ccHerMgL.s 			page 44


 1861 00a2 DFE7     		b	.L172
 1862              	.LVL237:
 1863              	.L168:
 1864 00a4 0136     		adds	r6, r6, #1
 1865              	.LVL238:
 1866 00a6 2434     		adds	r4, r4, #36
 1867 00a8 F6B2     		uxtb	r6, r6
 1868 00aa B6E7     		b	.L167
 1869              	.LVL239:
 1870              	.L177:
 1871              	.LBE18:
 1872              	.LBE20:
 545:..\common\ud3core/cli_basic.c ****                     }
 546:..\common\ud3core/cli_basic.c ****                 }
 547:..\common\ud3core/cli_basic.c ****             }
 548:..\common\ud3core/cli_basic.c ****         }
 549:..\common\ud3core/cli_basic.c ****     }
 550:..\common\ud3core/cli_basic.c ****     if(collision==0){
 1873              		.loc 1 550 0
 1874 00ac 37B9     		cbnz	r7, .L166
 551:..\common\ud3core/cli_basic.c ****         ttprintf("Check for hash collision done.\r\n");   
 1875              		.loc 1 551 0
 1876 00ae 6B6A     		ldr	r3, [r5, #36]
 1877 00b0 0549     		ldr	r1, .L179+4
 1878 00b2 6868     		ldr	r0, [r5, #4]
 552:..\common\ud3core/cli_basic.c ****     }
 553:..\common\ud3core/cli_basic.c **** }
 1879              		.loc 1 553 0
 1880 00b4 05B0     		add	sp, sp, #20
 1881              		.cfi_remember_state
 1882              		.cfi_def_cfa_offset 36
 1883              		@ sp needed
 1884 00b6 BDE8F04F 		pop	{r4, r5, r6, r7, r8, r9, r10, fp, lr}
 1885              		.cfi_restore 14
 1886              		.cfi_restore 11
 1887              		.cfi_restore 10
 1888              		.cfi_restore 9
 1889              		.cfi_restore 8
 1890              		.cfi_restore 7
 1891              		.cfi_restore 6
 1892              		.cfi_restore 5
 1893              		.cfi_restore 4
 1894              		.cfi_def_cfa_offset 0
 1895              	.LVL240:
 551:..\common\ud3core/cli_basic.c ****         ttprintf("Check for hash collision done.\r\n");   
 1896              		.loc 1 551 0
 1897 00ba 1847     		bx	r3
 1898              	.LVL241:
 1899              	.L166:
 1900              		.cfi_restore_state
 1901              		.loc 1 553 0
 1902 00bc 05B0     		add	sp, sp, #20
 1903              		.cfi_def_cfa_offset 36
 1904              		@ sp needed
 1905 00be BDE8F08F 		pop	{r4, r5, r6, r7, r8, r9, r10, fp, pc}
 1906              	.LVL242:
 1907              	.L180:
ARM GAS  C:\Users\chemi\AppData\Local\Temp\ccHerMgL.s 			page 45


 1908 00c2 00BF     		.align	2
 1909              	.L179:
 1910 00c4 CB010000 		.word	.LC31
 1911 00c8 E7010000 		.word	.LC32
 1912              		.cfi_endproc
 1913              	.LFE78:
 1914              		.size	EEPROM_check_hash, .-EEPROM_check_hash
 1915              		.section	.text.EEPROM_write_conf,"ax",%progbits
 1916              		.align	1
 1917              		.global	EEPROM_write_conf
 1918              		.thumb
 1919              		.thumb_func
 1920              		.type	EEPROM_write_conf, %function
 1921              	EEPROM_write_conf:
 1922              	.LFB79:
 554:..\common\ud3core/cli_basic.c **** 
 555:..\common\ud3core/cli_basic.c **** void EEPROM_write_conf(parameter_entry * params, uint8_t param_size, uint16_t eeprom_offset ,TERMIN
 1923              		.loc 1 555 0
 1924              		.cfi_startproc
 1925              		@ args = 0, pretend = 0, frame = 8
 1926              		@ frame_needed = 0, uses_anonymous_args = 0
 1927              	.LVL243:
 1928 0000 2DE9F04F 		push	{r4, r5, r6, r7, r8, r9, r10, fp, lr}
 1929              		.cfi_def_cfa_offset 36
 1930              		.cfi_offset 4, -36
 1931              		.cfi_offset 5, -32
 1932              		.cfi_offset 6, -28
 1933              		.cfi_offset 7, -24
 1934              		.cfi_offset 8, -20
 1935              		.cfi_offset 9, -16
 1936              		.cfi_offset 10, -12
 1937              		.cfi_offset 11, -8
 1938              		.cfi_offset 14, -4
 1939 0004 0F46     		mov	r7, r1
 1940 0006 0646     		mov	r6, r0
 1941 0008 1446     		mov	r4, r2
 556:..\common\ud3core/cli_basic.c ****     byte_cnt=0;
 1942              		.loc 1 556 0
 1943 000a 0025     		movs	r5, #0
 1944 000c 4FF02409 		mov	r9, #36
 1945 0010 09FB0769 		mla	r9, r9, r7, r6
 557:..\common\ud3core/cli_basic.c **** 	uint16_t count = eeprom_offset;
 558:..\common\ud3core/cli_basic.c **** 	uint8_t change_flag = 0;
 559:..\common\ud3core/cli_basic.c **** 	uint16_t change_count = 0;
 1946              		.loc 1 559 0
 1947 0014 2F46     		mov	r7, r5
 556:..\common\ud3core/cli_basic.c ****     byte_cnt=0;
 1948              		.loc 1 556 0
 1949 0016 DFF85481 		ldr	r8, .L192+8
 555:..\common\ud3core/cli_basic.c ****     byte_cnt=0;
 1950              		.loc 1 555 0
 1951 001a 85B0     		sub	sp, sp, #20
 1952              		.cfi_def_cfa_offset 56
 560:..\common\ud3core/cli_basic.c **** 	uint32_t temp_hash=0;
 561:..\common\ud3core/cli_basic.c **** 	uint16_t param_count=0;
 562:..\common\ud3core/cli_basic.c ****         EEPROM_buffer_write(0x00, count,0);
 1953              		.loc 1 562 0
ARM GAS  C:\Users\chemi\AppData\Local\Temp\ccHerMgL.s 			page 46


 1954 001c 2146     		mov	r1, r4
 1955              	.LVL244:
 1956 001e 2A46     		mov	r2, r5
 1957              	.LVL245:
 1958 0020 2846     		mov	r0, r5
 1959              	.LVL246:
 555:..\common\ud3core/cli_basic.c ****     byte_cnt=0;
 1960              		.loc 1 555 0
 1961 0022 9B46     		mov	fp, r3
 556:..\common\ud3core/cli_basic.c **** 	uint16_t count = eeprom_offset;
 1962              		.loc 1 556 0
 1963 0024 A8F80050 		strh	r5, [r8]	@ movhi
 1964              	.LVL247:
 1965              		.loc 1 562 0
 1966 0028 FFF7FEFF 		bl	EEPROM_buffer_write
 1967              	.LVL248:
 563:..\common\ud3core/cli_basic.c **** 		count++;
 564:..\common\ud3core/cli_basic.c **** 		EEPROM_buffer_write(0xC0, count,0);
 1968              		.loc 1 564 0
 1969 002c 611C     		adds	r1, r4, #1
 1970 002e 2A46     		mov	r2, r5
 1971 0030 89B2     		uxth	r1, r1
 1972 0032 C020     		movs	r0, #192
 1973 0034 FFF7FEFF 		bl	EEPROM_buffer_write
 1974              	.LVL249:
 565:..\common\ud3core/cli_basic.c **** 		count++;
 566:..\common\ud3core/cli_basic.c **** 		EEPROM_buffer_write(0xFF, count,0);
 1975              		.loc 1 566 0
 1976 0038 A11C     		adds	r1, r4, #2
 1977 003a 2A46     		mov	r2, r5
 1978 003c 89B2     		uxth	r1, r1
 1979 003e FF20     		movs	r0, #255
 1980 0040 FFF7FEFF 		bl	EEPROM_buffer_write
 1981              	.LVL250:
 567:..\common\ud3core/cli_basic.c **** 		count++;
 568:..\common\ud3core/cli_basic.c **** 		EEPROM_buffer_write(0xEE, count,0);
 1982              		.loc 1 568 0
 1983 0044 E11C     		adds	r1, r4, #3
 1984 0046 2A46     		mov	r2, r5
 1985 0048 89B2     		uxth	r1, r1
 1986 004a EE20     		movs	r0, #238
 1987 004c FFF7FEFF 		bl	EEPROM_buffer_write
 1988              	.LVL251:
 569:..\common\ud3core/cli_basic.c **** 		count++;
 570:..\common\ud3core/cli_basic.c **** 		EEPROM_buffer_write(0x00, count,0);
 1989              		.loc 1 570 0
 1990 0050 211D     		adds	r1, r4, #4
 1991 0052 2A46     		mov	r2, r5
 1992 0054 89B2     		uxth	r1, r1
 1993 0056 2846     		mov	r0, r5
 571:..\common\ud3core/cli_basic.c **** 		count++;
 1994              		.loc 1 571 0
 1995 0058 0534     		adds	r4, r4, #5
 1996              	.LVL252:
 570:..\common\ud3core/cli_basic.c **** 		count++;
 1997              		.loc 1 570 0
 1998 005a FFF7FEFF 		bl	EEPROM_buffer_write
ARM GAS  C:\Users\chemi\AppData\Local\Temp\ccHerMgL.s 			page 47


 1999              	.LVL253:
 2000              		.loc 1 571 0
 2001 005e A4B2     		uxth	r4, r4
 2002              	.LVL254:
 2003 0060 CDF80880 		str	r8, [sp, #8]
 2004              	.LVL255:
 2005              	.L182:
 2006              	.LBB21:
 572:..\common\ud3core/cli_basic.c **** 		for (uint8_t  current_parameter = 0; current_parameter < param_size; current_parameter++) {
 2007              		.loc 1 572 0 discriminator 1
 2008 0064 4E45     		cmp	r6, r9
 2009 0066 4DD0     		beq	.L190
 573:..\common\ud3core/cli_basic.c ****             if(params[current_parameter].parameter_type == PARAM_CONFIG){
 2010              		.loc 1 573 0
 2011 0068 3378     		ldrb	r3, [r6]	@ zero_extendqisi2
 2012 006a 012B     		cmp	r3, #1
 2013 006c 48D1     		bne	.L183
 574:..\common\ud3core/cli_basic.c ****                 param_count++;
 575:..\common\ud3core/cli_basic.c ****                 change_flag = 0;
 576:..\common\ud3core/cli_basic.c ****                 temp_hash=djb_hash(params[current_parameter].name);
 2014              		.loc 1 576 0
 2015 006e 7068     		ldr	r0, [r6, #4]
 2016 0070 FFF7FEFF 		bl	djb_hash
 2017              	.LVL256:
 2018 0074 8046     		mov	r8, r0
 577:..\common\ud3core/cli_basic.c ****                 EEPROM_buffer_write(temp_hash, count ,0);
 2019              		.loc 1 577 0
 2020 0076 2146     		mov	r1, r4
 2021 0078 0022     		movs	r2, #0
 2022 007a C0B2     		uxtb	r0, r0
 2023 007c FFF7FEFF 		bl	EEPROM_buffer_write
 2024              	.LVL257:
 578:..\common\ud3core/cli_basic.c ****                 count++;
 579:..\common\ud3core/cli_basic.c ****                 EEPROM_buffer_write(temp_hash>>8,count,0);
 2025              		.loc 1 579 0
 2026 0080 611C     		adds	r1, r4, #1
 2027 0082 0022     		movs	r2, #0
 2028 0084 89B2     		uxth	r1, r1
 2029 0086 C8F30720 		ubfx	r0, r8, #8, #8
 2030 008a FFF7FEFF 		bl	EEPROM_buffer_write
 2031              	.LVL258:
 580:..\common\ud3core/cli_basic.c ****                 count++;
 581:..\common\ud3core/cli_basic.c ****                 EEPROM_buffer_write(temp_hash>>16,count,0);
 2032              		.loc 1 581 0
 2033 008e A11C     		adds	r1, r4, #2
 2034 0090 0022     		movs	r2, #0
 2035 0092 89B2     		uxth	r1, r1
 2036 0094 C8F30740 		ubfx	r0, r8, #16, #8
 2037 0098 FFF7FEFF 		bl	EEPROM_buffer_write
 2038              	.LVL259:
 582:..\common\ud3core/cli_basic.c ****                 count++;
 583:..\common\ud3core/cli_basic.c ****                 EEPROM_buffer_write(temp_hash>>24,count,0);
 2039              		.loc 1 583 0
 2040 009c E11C     		adds	r1, r4, #3
 2041 009e 0022     		movs	r2, #0
 2042 00a0 89B2     		uxth	r1, r1
 2043 00a2 4FEA1860 		lsr	r0, r8, #24
ARM GAS  C:\Users\chemi\AppData\Local\Temp\ccHerMgL.s 			page 48


 2044 00a6 FFF7FEFF 		bl	EEPROM_buffer_write
 2045              	.LVL260:
 584:..\common\ud3core/cli_basic.c ****                 count++;
 585:..\common\ud3core/cli_basic.c ****                 EEPROM_buffer_write(params[current_parameter].size,count,0);
 2046              		.loc 1 585 0
 2047 00aa 211D     		adds	r1, r4, #4
 2048 00ac 0022     		movs	r2, #0
 2049 00ae 89B2     		uxth	r1, r1
 2050 00b0 307B     		ldrb	r0, [r6, #12]	@ zero_extendqisi2
 2051 00b2 FFF7FEFF 		bl	EEPROM_buffer_write
 2052              	.LVL261:
 2053              	.LBB22:
 586:..\common\ud3core/cli_basic.c ****                 count++;
 587:..\common\ud3core/cli_basic.c ****                 for(uint8_t i=0;i<params[current_parameter].size;i++){
 2054              		.loc 1 587 0
 2055 00b6 0022     		movs	r2, #0
 2056              	.LBE22:
 575:..\common\ud3core/cli_basic.c ****                 temp_hash=djb_hash(params[current_parameter].name);
 2057              		.loc 1 575 0
 2058 00b8 9046     		mov	r8, r2
 574:..\common\ud3core/cli_basic.c ****                 change_flag = 0;
 2059              		.loc 1 574 0
 2060 00ba 0135     		adds	r5, r5, #1
 2061              	.LVL262:
 586:..\common\ud3core/cli_basic.c ****                 count++;
 2062              		.loc 1 586 0
 2063 00bc 0534     		adds	r4, r4, #5
 2064              	.LVL263:
 574:..\common\ud3core/cli_basic.c ****                 change_flag = 0;
 2065              		.loc 1 574 0
 2066 00be ADB2     		uxth	r5, r5
 2067              	.LVL264:
 586:..\common\ud3core/cli_basic.c ****                 count++;
 2068              		.loc 1 586 0
 2069 00c0 1FFA84FA 		uxth	r10, r4
 2070              	.LVL265:
 2071              	.L184:
 2072              	.LBB23:
 2073              		.loc 1 587 0 discriminator 1
 2074 00c4 317B     		ldrb	r1, [r6, #12]	@ zero_extendqisi2
 2075 00c6 5FFA82FE 		uxtb	lr, r2
 2076 00ca 0AEB0204 		add	r4, r10, r2
 2077 00ce 7145     		cmp	r1, lr
 2078 00d0 A4B2     		uxth	r4, r4
 2079              	.LVL266:
 2080 00d2 02F10103 		add	r3, r2, #1
 2081 00d6 0ED9     		bls	.L191
 588:..\common\ud3core/cli_basic.c ****                     change_flag |= EEPROM_buffer_write(*(i+(uint8_t *)params[current_parameter].val
 2082              		.loc 1 588 0 discriminator 3
 2083 00d8 B068     		ldr	r0, [r6, #8]
 2084 00da 0022     		movs	r2, #0
 2085              	.LVL267:
 2086 00dc 2146     		mov	r1, r4
 2087 00de 10F80E00 		ldrb	r0, [r0, lr]	@ zero_extendqisi2
 2088 00e2 0393     		str	r3, [sp, #12]
 2089 00e4 FFF7FEFF 		bl	EEPROM_buffer_write
 2090              	.LVL268:
ARM GAS  C:\Users\chemi\AppData\Local\Temp\ccHerMgL.s 			page 49


 2091 00e8 039B     		ldr	r3, [sp, #12]
 2092 00ea 48EA0000 		orr	r0, r8, r0
 2093 00ee 5FFA80F8 		uxtb	r8, r0
 2094              	.LVL269:
 2095 00f2 1A46     		mov	r2, r3
 2096 00f4 E6E7     		b	.L184
 2097              	.LVL270:
 2098              	.L191:
 2099              	.LBE23:
 589:..\common\ud3core/cli_basic.c ****                     count++;
 590:..\common\ud3core/cli_basic.c ****                 }
 591:..\common\ud3core/cli_basic.c ****                 if (change_flag) {
 2100              		.loc 1 591 0
 2101 00f6 B8F1000F 		cmp	r8, #0
 2102 00fa 01D0     		beq	.L183
 592:..\common\ud3core/cli_basic.c ****                     change_count++;
 2103              		.loc 1 592 0
 2104 00fc 0137     		adds	r7, r7, #1
 2105              	.LVL271:
 2106 00fe BFB2     		uxth	r7, r7
 2107              	.LVL272:
 2108              	.L183:
 2109 0100 2436     		adds	r6, r6, #36
 2110 0102 AFE7     		b	.L182
 2111              	.L190:
 2112              	.LBE21:
 593:..\common\ud3core/cli_basic.c ****                 }
 594:..\common\ud3core/cli_basic.c ****             }
 595:..\common\ud3core/cli_basic.c **** 		}
 596:..\common\ud3core/cli_basic.c **** 		EEPROM_buffer_write(0xDE, count,0);
 2113              		.loc 1 596 0
 2114 0104 2146     		mov	r1, r4
 2115 0106 0022     		movs	r2, #0
 2116 0108 DE20     		movs	r0, #222
 2117 010a FFF7FEFF 		bl	EEPROM_buffer_write
 2118              	.LVL273:
 597:..\common\ud3core/cli_basic.c **** 		count++;
 598:..\common\ud3core/cli_basic.c **** 		EEPROM_buffer_write(0xAD, count,0);
 2119              		.loc 1 598 0
 2120 010e 611C     		adds	r1, r4, #1
 2121 0110 0022     		movs	r2, #0
 2122 0112 89B2     		uxth	r1, r1
 2123 0114 AD20     		movs	r0, #173
 2124 0116 FFF7FEFF 		bl	EEPROM_buffer_write
 2125              	.LVL274:
 599:..\common\ud3core/cli_basic.c **** 		count++;
 600:..\common\ud3core/cli_basic.c **** 		EEPROM_buffer_write(0xBE, count,0);
 2126              		.loc 1 600 0
 2127 011a A11C     		adds	r1, r4, #2
 2128 011c 0022     		movs	r2, #0
 2129 011e 89B2     		uxth	r1, r1
 2130 0120 BE20     		movs	r0, #190
 2131 0122 FFF7FEFF 		bl	EEPROM_buffer_write
 2132              	.LVL275:
 601:..\common\ud3core/cli_basic.c **** 		count++;
 602:..\common\ud3core/cli_basic.c **** 		EEPROM_buffer_write(0xEF, count,0);
 2133              		.loc 1 602 0
ARM GAS  C:\Users\chemi\AppData\Local\Temp\ccHerMgL.s 			page 50


 2134 0126 E11C     		adds	r1, r4, #3
 2135 0128 0022     		movs	r2, #0
 2136 012a 89B2     		uxth	r1, r1
 2137 012c EF20     		movs	r0, #239
 2138 012e FFF7FEFF 		bl	EEPROM_buffer_write
 2139              	.LVL276:
 603:..\common\ud3core/cli_basic.c ****         count++;
 604:..\common\ud3core/cli_basic.c **** 		EEPROM_buffer_write(0x00, count,1);
 2140              		.loc 1 604 0
 2141 0132 211D     		adds	r1, r4, #4
 2142 0134 0122     		movs	r2, #1
 2143 0136 89B2     		uxth	r1, r1
 2144 0138 0020     		movs	r0, #0
 2145 013a FFF7FEFF 		bl	EEPROM_buffer_write
 2146              	.LVL277:
 605:..\common\ud3core/cli_basic.c ****         alarm_push(ALM_PRIO_INFO, "EEPROM: Dataset written changes", change_count);
 2147              		.loc 1 605 0
 2148 013e 3A46     		mov	r2, r7
 2149 0140 0849     		ldr	r1, .L192
 2150 0142 0020     		movs	r0, #0
 2151 0144 FFF7FEFF 		bl	alarm_push
 2152              	.LVL278:
 606:..\common\ud3core/cli_basic.c **** 		ttprintf("%i / %i new config params written. %i bytes from 2048 used.\r\n", change_count, param_c
 2153              		.loc 1 606 0
 2154 0148 029B     		ldr	r3, [sp, #8]
 2155 014a DBF82440 		ldr	r4, [fp, #36]
 2156              	.LVL279:
 2157 014e 1B88     		ldrh	r3, [r3]
 2158 0150 3A46     		mov	r2, r7
 2159 0152 0093     		str	r3, [sp]
 2160 0154 0449     		ldr	r1, .L192+4
 2161 0156 2B46     		mov	r3, r5
 2162 0158 DBF80400 		ldr	r0, [fp, #4]
 2163 015c A047     		blx	r4
 2164              	.LVL280:
 607:..\common\ud3core/cli_basic.c **** }
 2165              		.loc 1 607 0
 2166 015e 05B0     		add	sp, sp, #20
 2167              		.cfi_def_cfa_offset 36
 2168              		@ sp needed
 2169 0160 BDE8F08F 		pop	{r4, r5, r6, r7, r8, r9, r10, fp, pc}
 2170              	.LVL281:
 2171              	.L193:
 2172              		.align	2
 2173              	.L192:
 2174 0164 08020000 		.word	.LC33
 2175 0168 28020000 		.word	.LC34
 2176 016c 00000000 		.word	byte_cnt
 2177              		.cfi_endproc
 2178              	.LFE79:
 2179              		.size	EEPROM_write_conf, .-EEPROM_write_conf
 2180              		.section	.text.EEPROM_read_conf,"ax",%progbits
 2181              		.align	1
 2182              		.global	EEPROM_read_conf
 2183              		.thumb
 2184              		.thumb_func
 2185              		.type	EEPROM_read_conf, %function
ARM GAS  C:\Users\chemi\AppData\Local\Temp\ccHerMgL.s 			page 51


 2186              	EEPROM_read_conf:
 2187              	.LFB80:
 608:..\common\ud3core/cli_basic.c **** 
 609:..\common\ud3core/cli_basic.c **** void EEPROM_read_conf(parameter_entry * params, uint8_t param_size, uint16_t eeprom_offset ,TERMINA
 2188              		.loc 1 609 0
 2189              		.cfi_startproc
 2190              		@ args = 0, pretend = 0, frame = 32
 2191              		@ frame_needed = 0, uses_anonymous_args = 0
 2192              	.LVL282:
 2193 0000 2DE9F04F 		push	{r4, r5, r6, r7, r8, r9, r10, fp, lr}
 2194              		.cfi_def_cfa_offset 36
 2195              		.cfi_offset 4, -36
 2196              		.cfi_offset 5, -32
 2197              		.cfi_offset 6, -28
 2198              		.cfi_offset 7, -24
 2199              		.cfi_offset 8, -20
 2200              		.cfi_offset 9, -16
 2201              		.cfi_offset 10, -12
 2202              		.cfi_offset 11, -8
 2203              		.cfi_offset 14, -4
 2204 0004 0646     		mov	r6, r0
 2205 0006 8946     		mov	r9, r1
 2206 0008 1546     		mov	r5, r2
 2207              	.LVL283:
 2208 000a 1F46     		mov	r7, r3
 2209 000c 89B0     		sub	sp, sp, #36
 2210              		.cfi_def_cfa_offset 72
 2211              	.LBB24:
 610:..\common\ud3core/cli_basic.c ****     uint16_t addr=eeprom_offset;
 611:..\common\ud3core/cli_basic.c ****     uint32_t temp_hash=0;
 612:..\common\ud3core/cli_basic.c ****     uint8_t data[DATASET_BYTES];
 613:..\common\ud3core/cli_basic.c ****     uint16_t param_count=0;
 614:..\common\ud3core/cli_basic.c ****     uint16_t change_count=0;
 615:..\common\ud3core/cli_basic.c ****     uint8_t change_flag=0;
 616:..\common\ud3core/cli_basic.c ****         for(int i=0;i<DATASET_BYTES;i++){
 2212              		.loc 1 616 0
 2213 000e 0024     		movs	r4, #0
 2214              	.LVL284:
 2215              	.L195:
 617:..\common\ud3core/cli_basic.c ****             data[i] = EEPROM_READ_BYTE(addr);
 2216              		.loc 1 617 0 discriminator 3
 2217 0010 2819     		adds	r0, r5, r4
 2218 0012 80B2     		uxth	r0, r0
 2219 0014 FFF7FEFF 		bl	EEPROM_1_ReadByte
 2220              	.LVL285:
 2221 0018 06AB     		add	r3, sp, #24
 2222 001a 1855     		strb	r0, [r3, r4]
 2223              	.LVL286:
 616:..\common\ud3core/cli_basic.c ****             data[i] = EEPROM_READ_BYTE(addr);
 2224              		.loc 1 616 0 discriminator 3
 2225 001c 0134     		adds	r4, r4, #1
 2226              	.LVL287:
 2227 001e 052C     		cmp	r4, #5
 2228 0020 F6D1     		bne	.L195
 2229 0022 0535     		adds	r5, r5, #5
 2230 0024 ABB2     		uxth	r3, r5
 2231 0026 0193     		str	r3, [sp, #4]
ARM GAS  C:\Users\chemi\AppData\Local\Temp\ccHerMgL.s 			page 52


 2232              	.LBE24:
 618:..\common\ud3core/cli_basic.c ****             addr++;
 619:..\common\ud3core/cli_basic.c ****         }
 620:..\common\ud3core/cli_basic.c ****         if(!(data[0]== 0x00 && data[1] == 0xC0 && data[2] == 0xFF && data[3] == 0xEE)) {
 2233              		.loc 1 620 0
 2234 0028 9DF81830 		ldrb	r3, [sp, #24]	@ zero_extendqisi2
 2235 002c 73B9     		cbnz	r3, .L196
 2236              		.loc 1 620 0 is_stmt 0 discriminator 1
 2237 002e 9DF81920 		ldrb	r2, [sp, #25]	@ zero_extendqisi2
 2238 0032 C02A     		cmp	r2, #192
 2239 0034 0AD1     		bne	.L196
 2240              		.loc 1 620 0 discriminator 2
 2241 0036 9DF81A20 		ldrb	r2, [sp, #26]	@ zero_extendqisi2
 2242 003a FF2A     		cmp	r2, #255
 2243 003c 06D1     		bne	.L196
 2244              		.loc 1 620 0 discriminator 3
 2245 003e 9DF81B20 		ldrb	r2, [sp, #27]	@ zero_extendqisi2
 2246 0042 EE2A     		cmp	r2, #238
 2247 0044 02D1     		bne	.L196
 2248 0046 019C     		ldr	r4, [sp, #4]
 2249              	.LVL288:
 2250 0048 0093     		str	r3, [sp]
 2251 004a 1DE0     		b	.L197
 2252              	.LVL289:
 2253              	.L196:
 621:..\common\ud3core/cli_basic.c ****             #ifndef BOOT
 622:..\common\ud3core/cli_basic.c ****             alarm_push(ALM_PRIO_WARN, "EEPROM: No or old dataset found", ALM_NO_VALUE);
 2254              		.loc 1 622 0 is_stmt 1
 2255 004c 4FF00042 		mov	r2, #-2147483648
 2256 0050 7C49     		ldr	r1, .L230
 2257 0052 0120     		movs	r0, #1
 2258 0054 FFF7FEFF 		bl	alarm_push
 2259              	.LVL290:
 623:..\common\ud3core/cli_basic.c ****             ttprintf("WARNING: No or old EEPROM dataset found\r\n");
 2260              		.loc 1 623 0
 2261 0058 7B6A     		ldr	r3, [r7, #36]
 2262 005a 7B49     		ldr	r1, .L230+4
 2263 005c 7868     		ldr	r0, [r7, #4]
 624:..\common\ud3core/cli_basic.c ****             #endif
 625:..\common\ud3core/cli_basic.c ****             return;
 626:..\common\ud3core/cli_basic.c ****         }
 627:..\common\ud3core/cli_basic.c **** 
 628:..\common\ud3core/cli_basic.c ****     while(addr<CY_EEPROM_SIZE){
 629:..\common\ud3core/cli_basic.c ****         change_flag=0;
 630:..\common\ud3core/cli_basic.c ****         for(int i=0;i<DATASET_BYTES;i++){
 631:..\common\ud3core/cli_basic.c ****             data[i] = EEPROM_READ_BYTE(addr);
 632:..\common\ud3core/cli_basic.c ****             addr++;
 633:..\common\ud3core/cli_basic.c ****         }
 634:..\common\ud3core/cli_basic.c ****         if(data[0]== 0xDE && data[1] == 0xAD && data[2] == 0xBE && data[3] == 0xEF) break;
 635:..\common\ud3core/cli_basic.c ****         uint8_t current_parameter=0;
 636:..\common\ud3core/cli_basic.c ****         for ( current_parameter = 0; current_parameter < param_size; current_parameter++) {
 637:..\common\ud3core/cli_basic.c ****             if(params[current_parameter].parameter_type==PARAM_CONFIG){
 638:..\common\ud3core/cli_basic.c ****                 temp_hash=djb_hash(params[current_parameter].name);
 639:..\common\ud3core/cli_basic.c ****                 if((uint8_t)temp_hash == data[0] && (uint8_t)(temp_hash>>8) == data[1]&& (uint8_t)(
 640:..\common\ud3core/cli_basic.c ****                     for(uint8_t i=0;i<data[4];i++){
 641:..\common\ud3core/cli_basic.c ****                         *(i+(uint8_t * )params[current_parameter].value) = EEPROM_READ_BYTE(addr);
 642:..\common\ud3core/cli_basic.c ****                         addr++;
ARM GAS  C:\Users\chemi\AppData\Local\Temp\ccHerMgL.s 			page 53


 643:..\common\ud3core/cli_basic.c ****                     }
 644:..\common\ud3core/cli_basic.c ****                     change_count++;
 645:..\common\ud3core/cli_basic.c ****                     change_flag=1;
 646:..\common\ud3core/cli_basic.c ****                     break;
 647:..\common\ud3core/cli_basic.c ****                 }
 648:..\common\ud3core/cli_basic.c ****             }
 649:..\common\ud3core/cli_basic.c ****         }
 650:..\common\ud3core/cli_basic.c ****         if(!change_flag) addr+=data[4];
 651:..\common\ud3core/cli_basic.c ****         
 652:..\common\ud3core/cli_basic.c ****         if(current_parameter == param_size){
 653:..\common\ud3core/cli_basic.c ****             #ifndef BOOT
 654:..\common\ud3core/cli_basic.c ****             alarm_push(ALM_PRIO_WARN, "EEPROM: Found unknown ID", data[0]);
 655:..\common\ud3core/cli_basic.c ****             ttprintf("WARNING: Unknown param ID %i found in EEPROM\r\n", data[0]);
 656:..\common\ud3core/cli_basic.c ****             #endif
 657:..\common\ud3core/cli_basic.c ****         }
 658:..\common\ud3core/cli_basic.c ****     }
 659:..\common\ud3core/cli_basic.c ****     uint8_t found_param=0;
 660:..\common\ud3core/cli_basic.c ****     for (uint8_t current_parameter = 0; current_parameter < param_size; current_parameter++) {
 661:..\common\ud3core/cli_basic.c ****         if(params[current_parameter].parameter_type==PARAM_CONFIG){
 662:..\common\ud3core/cli_basic.c ****             param_count++;
 663:..\common\ud3core/cli_basic.c ****             found_param=0;
 664:..\common\ud3core/cli_basic.c ****             addr = DATASET_BYTES + eeprom_offset; //Skip header
 665:..\common\ud3core/cli_basic.c ****             temp_hash=djb_hash(params[current_parameter].name);
 666:..\common\ud3core/cli_basic.c ****             while(addr<CY_EEPROM_SIZE){
 667:..\common\ud3core/cli_basic.c ****                 for(int i=0;i<DATASET_BYTES;i++){
 668:..\common\ud3core/cli_basic.c ****                     data[i] = EEPROM_READ_BYTE(addr);
 669:..\common\ud3core/cli_basic.c ****                     addr++;
 670:..\common\ud3core/cli_basic.c ****                 }
 671:..\common\ud3core/cli_basic.c ****                     addr += data[4];
 672:..\common\ud3core/cli_basic.c ****                 if(data[0] == 0xDE && data[1] == 0xAD && data[2] == 0xBE && data[3] == 0xEF) break;
 673:..\common\ud3core/cli_basic.c ****                 if((uint8_t)temp_hash == data[0] && (uint8_t)(temp_hash>>8) == data[1]&& (uint8_t)(
 674:..\common\ud3core/cli_basic.c ****                         found_param = 1;
 675:..\common\ud3core/cli_basic.c ****                 }
 676:..\common\ud3core/cli_basic.c ****             }
 677:..\common\ud3core/cli_basic.c ****             if(!found_param){
 678:..\common\ud3core/cli_basic.c ****                 alarm_push(ALM_PRIO_WARN, "EEPROM: Found unknown parameter", current_parameter);
 679:..\common\ud3core/cli_basic.c ****                 ttprintf("WARNING: Param [%s] not found in EEPROM\r\n",params[current_parameter].na
 680:..\common\ud3core/cli_basic.c ****             }
 681:..\common\ud3core/cli_basic.c ****         }
 682:..\common\ud3core/cli_basic.c ****     }
 683:..\common\ud3core/cli_basic.c ****     #ifndef BOOT
 684:..\common\ud3core/cli_basic.c ****     alarm_push(ALM_PRIO_INFO, "EEPROM: Dataset loaded", ALM_NO_VALUE);
 685:..\common\ud3core/cli_basic.c ****     ttprintf("%i / %i config params loaded\r\n", change_count, param_count);
 686:..\common\ud3core/cli_basic.c ****     #endif
 687:..\common\ud3core/cli_basic.c **** }
 2264              		.loc 1 687 0
 2265 005e 09B0     		add	sp, sp, #36
 2266              		.cfi_remember_state
 2267              		.cfi_def_cfa_offset 36
 2268              		@ sp needed
 2269 0060 BDE8F04F 		pop	{r4, r5, r6, r7, r8, r9, r10, fp, lr}
 2270              		.cfi_restore 14
 2271              		.cfi_restore 11
 2272              		.cfi_restore 10
 2273              		.cfi_restore 9
 2274              		.cfi_restore 8
 2275              		.cfi_restore 7
ARM GAS  C:\Users\chemi\AppData\Local\Temp\ccHerMgL.s 			page 54


 2276              		.cfi_restore 6
 2277              		.cfi_restore 5
 2278              		.cfi_restore 4
 2279              		.cfi_def_cfa_offset 0
 2280              	.LVL291:
 623:..\common\ud3core/cli_basic.c ****             ttprintf("WARNING: No or old EEPROM dataset found\r\n");
 2281              		.loc 1 623 0
 2282 0064 1847     		bx	r3
 2283              	.LVL292:
 2284              	.L228:
 2285              		.cfi_restore_state
 2286              	.LBB25:
 644:..\common\ud3core/cli_basic.c ****                     change_flag=1;
 2287              		.loc 1 644 0
 2288 0066 009B     		ldr	r3, [sp]
 2289 0068 0133     		adds	r3, r3, #1
 2290 006a 9BB2     		uxth	r3, r3
 2291 006c 0093     		str	r3, [sp]
 2292              	.LVL293:
 2293              	.L206:
 652:..\common\ud3core/cli_basic.c ****             #ifndef BOOT
 2294              		.loc 1 652 0
 2295 006e 029B     		ldr	r3, [sp, #8]
 2296 0070 4B45     		cmp	r3, r9
 2297 0072 09D1     		bne	.L197
 654:..\common\ud3core/cli_basic.c ****             ttprintf("WARNING: Unknown param ID %i found in EEPROM\r\n", data[0]);
 2298              		.loc 1 654 0
 2299 0074 4246     		mov	r2, r8
 2300 0076 7549     		ldr	r1, .L230+8
 2301 0078 0120     		movs	r0, #1
 2302 007a FFF7FEFF 		bl	alarm_push
 2303              	.LVL294:
 655:..\common\ud3core/cli_basic.c ****             #endif
 2304              		.loc 1 655 0
 2305 007e 7B6A     		ldr	r3, [r7, #36]
 2306 0080 4246     		mov	r2, r8
 2307 0082 7349     		ldr	r1, .L230+12
 2308 0084 7868     		ldr	r0, [r7, #4]
 2309 0086 9847     		blx	r3
 2310              	.LVL295:
 2311              	.L197:
 2312              	.LBE25:
 628:..\common\ud3core/cli_basic.c ****         change_flag=0;
 2313              		.loc 1 628 0
 2314 0088 B4F5006F 		cmp	r4, #2048
 2315 008c 1ED2     		bcs	.L211
 2316 008e 0025     		movs	r5, #0
 2317              	.LVL296:
 2318              	.L198:
 2319              	.LBB28:
 2320              	.LBB26:
 631:..\common\ud3core/cli_basic.c ****             addr++;
 2321              		.loc 1 631 0 discriminator 3
 2322 0090 6019     		adds	r0, r4, r5
 2323 0092 80B2     		uxth	r0, r0
 2324 0094 FFF7FEFF 		bl	EEPROM_1_ReadByte
 2325              	.LVL297:
ARM GAS  C:\Users\chemi\AppData\Local\Temp\ccHerMgL.s 			page 55


 2326 0098 06AB     		add	r3, sp, #24
 2327 009a 5855     		strb	r0, [r3, r5]
 2328              	.LVL298:
 630:..\common\ud3core/cli_basic.c ****             data[i] = EEPROM_READ_BYTE(addr);
 2329              		.loc 1 630 0 discriminator 3
 2330 009c 0135     		adds	r5, r5, #1
 2331              	.LVL299:
 2332 009e 052D     		cmp	r5, #5
 2333 00a0 F6D1     		bne	.L198
 2334              	.LBE26:
 634:..\common\ud3core/cli_basic.c ****         uint8_t current_parameter=0;
 2335              		.loc 1 634 0
 2336 00a2 9DF81880 		ldrb	r8, [sp, #24]	@ zero_extendqisi2
 2337 00a6 9DF81950 		ldrb	r5, [sp, #25]	@ zero_extendqisi2
 2338              	.LVL300:
 2339 00aa B8F1DE0F 		cmp	r8, #222
 2340 00ae 9DF81AB0 		ldrb	fp, [sp, #26]	@ zero_extendqisi2
 2341 00b2 9DF81B20 		ldrb	r2, [sp, #27]	@ zero_extendqisi2
 2342 00b6 01D1     		bne	.L199
 634:..\common\ud3core/cli_basic.c ****         uint8_t current_parameter=0;
 2343              		.loc 1 634 0 is_stmt 0 discriminator 1
 2344 00b8 AD2D     		cmp	r5, #173
 2345 00ba 02D0     		beq	.L200
 2346              	.L199:
 2347 00bc B246     		mov	r10, r6
 639:..\common\ud3core/cli_basic.c ****                     for(uint8_t i=0;i<data[4];i++){
 2348              		.loc 1 639 0 is_stmt 1 discriminator 1
 2349 00be 0021     		movs	r1, #0
 2350 00c0 0FE0     		b	.L201
 2351              	.L200:
 634:..\common\ud3core/cli_basic.c ****         uint8_t current_parameter=0;
 2352              		.loc 1 634 0 discriminator 2
 2353 00c2 BBF1BE0F 		cmp	fp, #190
 2354 00c6 F9D1     		bne	.L199
 634:..\common\ud3core/cli_basic.c ****         uint8_t current_parameter=0;
 2355              		.loc 1 634 0 is_stmt 0 discriminator 3
 2356 00c8 EF2A     		cmp	r2, #239
 2357 00ca F7D1     		bne	.L199
 2358              	.L211:
 2359              	.LBE28:
 2360              	.LBB29:
 663:..\common\ud3core/cli_basic.c ****             addr = DATASET_BYTES + eeprom_offset; //Skip header
 2361              		.loc 1 663 0 is_stmt 1
 2362 00cc 4FF00008 		mov	r8, #0
 2363 00d0 4546     		mov	r5, r8
 2364 00d2 8DE0     		b	.L202
 2365              	.LVL301:
 2366              	.L207:
 2367              	.LBE29:
 2368              	.LBB31:
 637:..\common\ud3core/cli_basic.c ****                 temp_hash=djb_hash(params[current_parameter].name);
 2369              		.loc 1 637 0
 2370 00d4 9AF80000 		ldrb	r0, [r10]	@ zero_extendqisi2
 2371 00d8 0128     		cmp	r0, #1
 2372 00da 07D0     		beq	.L226
 2373              	.LVL302:
 2374              	.L203:
ARM GAS  C:\Users\chemi\AppData\Local\Temp\ccHerMgL.s 			page 56


 2375 00dc 0131     		adds	r1, r1, #1
 2376              	.LVL303:
 2377 00de 0AF1240A 		add	r10, r10, #36
 2378              	.L201:
 2379 00e2 CBB2     		uxtb	r3, r1
 636:..\common\ud3core/cli_basic.c ****             if(params[current_parameter].parameter_type==PARAM_CONFIG){
 2380              		.loc 1 636 0 discriminator 1
 2381 00e4 8945     		cmp	r9, r1
 2382 00e6 0293     		str	r3, [sp, #8]
 2383              	.LVL304:
 2384 00e8 F4D1     		bne	.L207
 2385 00ea A5E0     		b	.L227
 2386              	.L226:
 638:..\common\ud3core/cli_basic.c ****                 if((uint8_t)temp_hash == data[0] && (uint8_t)(temp_hash>>8) == data[1]&& (uint8_t)(
 2387              		.loc 1 638 0
 2388 00ec DAF80400 		ldr	r0, [r10, #4]
 2389 00f0 0392     		str	r2, [sp, #12]
 2390 00f2 FFF7FEFF 		bl	djb_hash
 2391              	.LVL305:
 639:..\common\ud3core/cli_basic.c ****                     for(uint8_t i=0;i<data[4];i++){
 2392              		.loc 1 639 0
 2393 00f6 5FFA80FE 		uxtb	lr, r0
 2394 00fa C645     		cmp	lr, r8
 2395 00fc 039A     		ldr	r2, [sp, #12]
 2396 00fe EDD1     		bne	.L203
 639:..\common\ud3core/cli_basic.c ****                     for(uint8_t i=0;i<data[4];i++){
 2397              		.loc 1 639 0 is_stmt 0 discriminator 1
 2398 0100 C0F3072E 		ubfx	lr, r0, #8, #8
 2399 0104 AE45     		cmp	lr, r5
 2400 0106 E9D1     		bne	.L203
 639:..\common\ud3core/cli_basic.c ****                     for(uint8_t i=0;i<data[4];i++){
 2401              		.loc 1 639 0 discriminator 2
 2402 0108 C0F3074E 		ubfx	lr, r0, #16, #8
 2403 010c DE45     		cmp	lr, fp
 2404 010e E5D1     		bne	.L203
 639:..\common\ud3core/cli_basic.c ****                     for(uint8_t i=0;i<data[4];i++){
 2405              		.loc 1 639 0 discriminator 3
 2406 0110 B2EB106F 		cmp	r2, r0, lsr #24
 2407 0114 E2D1     		bne	.L203
 2408 0116 0534     		adds	r4, r4, #5
 2409 0118 4FF0000B 		mov	fp, #0
 2410 011c A5B2     		uxth	r5, r4
 2411              	.LVL306:
 2412              	.L204:
 2413              	.LBB27:
 640:..\common\ud3core/cli_basic.c ****                         *(i+(uint8_t * )params[current_parameter].value) = EEPROM_READ_BYTE(addr);
 2414              		.loc 1 640 0 is_stmt 1 discriminator 1
 2415 011e 9DF81C10 		ldrb	r1, [sp, #28]	@ zero_extendqisi2
 2416 0122 05EB0B04 		add	r4, r5, fp
 2417 0126 0BF10102 		add	r2, fp, #1
 2418 012a 5FFA8BFB 		uxtb	fp, fp
 2419 012e 5945     		cmp	r1, fp
 2420 0130 A4B2     		uxth	r4, r4
 2421              	.LVL307:
 2422 0132 98D9     		bls	.L228
 641:..\common\ud3core/cli_basic.c ****                         addr++;
 2423              		.loc 1 641 0 discriminator 3
ARM GAS  C:\Users\chemi\AppData\Local\Temp\ccHerMgL.s 			page 57


 2424 0134 DAF80810 		ldr	r1, [r10, #8]
 2425 0138 2046     		mov	r0, r4
 2426 013a 0492     		str	r2, [sp, #16]
 2427 013c 0391     		str	r1, [sp, #12]
 2428 013e FFF7FEFF 		bl	EEPROM_1_ReadByte
 2429              	.LVL308:
 2430 0142 0399     		ldr	r1, [sp, #12]
 2431 0144 049A     		ldr	r2, [sp, #16]
 2432 0146 01F80B00 		strb	r0, [r1, fp]
 2433              	.LVL309:
 2434 014a 9346     		mov	fp, r2
 2435 014c E7E7     		b	.L204
 2436              	.LVL310:
 2437              	.L220:
 2438              	.LBE27:
 2439              	.LBE31:
 2440              	.LBB32:
 661:..\common\ud3core/cli_basic.c ****             param_count++;
 2441              		.loc 1 661 0
 2442 014e 3378     		ldrb	r3, [r6]	@ zero_extendqisi2
 2443 0150 012B     		cmp	r3, #1
 2444 0152 4AD1     		bne	.L212
 665:..\common\ud3core/cli_basic.c ****             while(addr<CY_EEPROM_SIZE){
 2445              		.loc 1 665 0
 2446 0154 7068     		ldr	r0, [r6, #4]
 2447 0156 FFF7FEFF 		bl	djb_hash
 2448              	.LVL311:
 662:..\common\ud3core/cli_basic.c ****             found_param=0;
 2449              		.loc 1 662 0
 2450 015a 0135     		adds	r5, r5, #1
 2451              	.LVL312:
 673:..\common\ud3core/cli_basic.c ****                         found_param = 1;
 2452              		.loc 1 673 0
 2453 015c C0F30723 		ubfx	r3, r0, #8, #8
 664:..\common\ud3core/cli_basic.c ****             temp_hash=djb_hash(params[current_parameter].name);
 2454              		.loc 1 664 0
 2455 0160 DDF804B0 		ldr	fp, [sp, #4]
 673:..\common\ud3core/cli_basic.c ****                         found_param = 1;
 2456              		.loc 1 673 0
 2457 0164 0293     		str	r3, [sp, #8]
 662:..\common\ud3core/cli_basic.c ****             found_param=0;
 2458              		.loc 1 662 0
 2459 0166 ADB2     		uxth	r5, r5
 2460              	.LVL313:
 673:..\common\ud3core/cli_basic.c ****                         found_param = 1;
 2461              		.loc 1 673 0
 2462 0168 C0F30741 		ubfx	r1, r0, #16, #8
 2463 016c 020E     		lsrs	r2, r0, #24
 663:..\common\ud3core/cli_basic.c ****             addr = DATASET_BYTES + eeprom_offset; //Skip header
 2464              		.loc 1 663 0
 2465 016e 0023     		movs	r3, #0
 673:..\common\ud3core/cli_basic.c ****                         found_param = 1;
 2466              		.loc 1 673 0
 2467 0170 C4B2     		uxtb	r4, r0
 2468              	.LVL314:
 2469              	.L213:
 666:..\common\ud3core/cli_basic.c ****                 for(int i=0;i<DATASET_BYTES;i++){
ARM GAS  C:\Users\chemi\AppData\Local\Temp\ccHerMgL.s 			page 58


 2470              		.loc 1 666 0
 2471 0172 BBF5006F 		cmp	fp, #2048
 2472 0176 2DD2     		bcs	.L219
 2473 0178 4FF0000A 		mov	r10, #0
 2474              	.LVL315:
 2475              	.L214:
 2476              	.LBB30:
 668:..\common\ud3core/cli_basic.c ****                     addr++;
 2477              		.loc 1 668 0 discriminator 3
 2478 017c 0BEB0A00 		add	r0, fp, r10
 2479 0180 80B2     		uxth	r0, r0
 2480 0182 0592     		str	r2, [sp, #20]
 2481 0184 0491     		str	r1, [sp, #16]
 2482 0186 0393     		str	r3, [sp, #12]
 2483              	.LVL316:
 2484 0188 FFF7FEFF 		bl	EEPROM_1_ReadByte
 2485              	.LVL317:
 2486 018c 06AB     		add	r3, sp, #24
 2487 018e 03F80A00 		strb	r0, [r3, r10]
 2488              	.LVL318:
 667:..\common\ud3core/cli_basic.c ****                     data[i] = EEPROM_READ_BYTE(addr);
 2489              		.loc 1 667 0 discriminator 3
 2490 0192 0AF1010A 		add	r10, r10, #1
 2491              	.LVL319:
 2492 0196 BAF1050F 		cmp	r10, #5
 2493 019a 039B     		ldr	r3, [sp, #12]
 2494 019c 0499     		ldr	r1, [sp, #16]
 2495 019e 059A     		ldr	r2, [sp, #20]
 2496 01a0 ECD1     		bne	.L214
 2497              	.LBE30:
 671:..\common\ud3core/cli_basic.c ****                 if(data[0] == 0xDE && data[1] == 0xAD && data[2] == 0xBE && data[3] == 0xEF) break;
 2498              		.loc 1 671 0
 2499 01a2 9DF81C00 		ldrb	r0, [sp, #28]	@ zero_extendqisi2
 2500 01a6 0530     		adds	r0, r0, #5
 2501 01a8 8344     		add	fp, fp, r0
 672:..\common\ud3core/cli_basic.c ****                 if((uint8_t)temp_hash == data[0] && (uint8_t)(temp_hash>>8) == data[1]&& (uint8_t)(
 2502              		.loc 1 672 0
 2503 01aa 9DF81800 		ldrb	r0, [sp, #24]	@ zero_extendqisi2
 671:..\common\ud3core/cli_basic.c ****                 if(data[0] == 0xDE && data[1] == 0xAD && data[2] == 0xBE && data[3] == 0xEF) break;
 2504              		.loc 1 671 0
 2505 01ae 1FFA8BFB 		uxth	fp, fp
 2506              	.LVL320:
 672:..\common\ud3core/cli_basic.c ****                 if((uint8_t)temp_hash == data[0] && (uint8_t)(temp_hash>>8) == data[1]&& (uint8_t)(
 2507              		.loc 1 672 0
 2508 01b2 DE28     		cmp	r0, #222
 2509 01b4 1FD1     		bne	.L215
 672:..\common\ud3core/cli_basic.c ****                 if((uint8_t)temp_hash == data[0] && (uint8_t)(temp_hash>>8) == data[1]&& (uint8_t)(
 2510              		.loc 1 672 0 is_stmt 0 discriminator 1
 2511 01b6 9DF819E0 		ldrb	lr, [sp, #25]	@ zero_extendqisi2
 2512 01ba BEF1AD0F 		cmp	lr, #173
 2513 01be 1AD1     		bne	.L215
 672:..\common\ud3core/cli_basic.c ****                 if((uint8_t)temp_hash == data[0] && (uint8_t)(temp_hash>>8) == data[1]&& (uint8_t)(
 2514              		.loc 1 672 0 discriminator 2
 2515 01c0 9DF81AE0 		ldrb	lr, [sp, #26]	@ zero_extendqisi2
 2516 01c4 BEF1BE0F 		cmp	lr, #190
 2517 01c8 15D1     		bne	.L215
 672:..\common\ud3core/cli_basic.c ****                 if((uint8_t)temp_hash == data[0] && (uint8_t)(temp_hash>>8) == data[1]&& (uint8_t)(
ARM GAS  C:\Users\chemi\AppData\Local\Temp\ccHerMgL.s 			page 59


 2518              		.loc 1 672 0 discriminator 3
 2519 01ca 9DF81BE0 		ldrb	lr, [sp, #27]	@ zero_extendqisi2
 2520 01ce BEF1EF0F 		cmp	lr, #239
 2521 01d2 10D1     		bne	.L215
 2522              	.LVL321:
 2523              	.L219:
 677:..\common\ud3core/cli_basic.c ****                 alarm_push(ALM_PRIO_WARN, "EEPROM: Found unknown parameter", current_parameter);
 2524              		.loc 1 677 0 is_stmt 1
 2525 01d4 4BB9     		cbnz	r3, .L212
 678:..\common\ud3core/cli_basic.c ****                 ttprintf("WARNING: Param [%s] not found in EEPROM\r\n",params[current_parameter].na
 2526              		.loc 1 678 0
 2527 01d6 4246     		mov	r2, r8
 2528 01d8 1E49     		ldr	r1, .L230+16
 2529 01da 0120     		movs	r0, #1
 2530 01dc FFF7FEFF 		bl	alarm_push
 2531              	.LVL322:
 679:..\common\ud3core/cli_basic.c ****             }
 2532              		.loc 1 679 0
 2533 01e0 7B6A     		ldr	r3, [r7, #36]
 2534 01e2 7268     		ldr	r2, [r6, #4]
 2535 01e4 1C49     		ldr	r1, .L230+20
 2536 01e6 7868     		ldr	r0, [r7, #4]
 2537 01e8 9847     		blx	r3
 2538              	.LVL323:
 2539              	.L212:
 2540 01ea 08F10108 		add	r8, r8, #1
 2541              	.LVL324:
 2542 01ee 2436     		adds	r6, r6, #36
 2543              	.LVL325:
 2544              	.L202:
 660:..\common\ud3core/cli_basic.c ****         if(params[current_parameter].parameter_type==PARAM_CONFIG){
 2545              		.loc 1 660 0 discriminator 1
 2546 01f0 C145     		cmp	r9, r8
 2547 01f2 ACD1     		bne	.L220
 2548 01f4 10E0     		b	.L229
 2549              	.LVL326:
 2550              	.L215:
 673:..\common\ud3core/cli_basic.c ****                         found_param = 1;
 2551              		.loc 1 673 0
 2552 01f6 8442     		cmp	r4, r0
 2553 01f8 BBD1     		bne	.L213
 673:..\common\ud3core/cli_basic.c ****                         found_param = 1;
 2554              		.loc 1 673 0 is_stmt 0 discriminator 1
 2555 01fa 9DF819E0 		ldrb	lr, [sp, #25]	@ zero_extendqisi2
 2556 01fe 0298     		ldr	r0, [sp, #8]
 2557 0200 7045     		cmp	r0, lr
 2558 0202 B6D1     		bne	.L213
 673:..\common\ud3core/cli_basic.c ****                         found_param = 1;
 2559              		.loc 1 673 0 discriminator 2
 2560 0204 9DF81A00 		ldrb	r0, [sp, #26]	@ zero_extendqisi2
 2561 0208 8142     		cmp	r1, r0
 2562 020a B2D1     		bne	.L213
 673:..\common\ud3core/cli_basic.c ****                         found_param = 1;
 2563              		.loc 1 673 0 discriminator 3
 2564 020c 9DF81B00 		ldrb	r0, [sp, #27]	@ zero_extendqisi2
 674:..\common\ud3core/cli_basic.c ****                 }
 2565              		.loc 1 674 0 is_stmt 1 discriminator 3
ARM GAS  C:\Users\chemi\AppData\Local\Temp\ccHerMgL.s 			page 60


 2566 0210 8242     		cmp	r2, r0
 2567 0212 08BF     		it	eq
 2568 0214 0123     		moveq	r3, #1
 2569 0216 ACE7     		b	.L213
 2570              	.LVL327:
 2571              	.L229:
 2572              	.LBE32:
 684:..\common\ud3core/cli_basic.c ****     ttprintf("%i / %i config params loaded\r\n", change_count, param_count);
 2573              		.loc 1 684 0
 2574 0218 4FF00042 		mov	r2, #-2147483648
 2575 021c 0F49     		ldr	r1, .L230+24
 2576 021e 0020     		movs	r0, #0
 2577 0220 FFF7FEFF 		bl	alarm_push
 2578              	.LVL328:
 685:..\common\ud3core/cli_basic.c ****     #endif
 2579              		.loc 1 685 0
 2580 0224 7C6A     		ldr	r4, [r7, #36]
 2581 0226 2B46     		mov	r3, r5
 2582 0228 A446     		mov	ip, r4
 2583 022a 009A     		ldr	r2, [sp]
 2584 022c 0C49     		ldr	r1, .L230+28
 2585 022e 7868     		ldr	r0, [r7, #4]
 2586              		.loc 1 687 0
 2587 0230 09B0     		add	sp, sp, #36
 2588              		.cfi_remember_state
 2589              		.cfi_def_cfa_offset 36
 2590              	.LVL329:
 2591              		@ sp needed
 2592 0232 BDE8F04F 		pop	{r4, r5, r6, r7, r8, r9, r10, fp, lr}
 2593              		.cfi_restore 14
 2594              		.cfi_restore 11
 2595              		.cfi_restore 10
 2596              		.cfi_restore 9
 2597              		.cfi_restore 8
 2598              		.cfi_restore 7
 2599              		.cfi_restore 6
 2600              		.cfi_restore 5
 2601              		.cfi_restore 4
 2602              		.cfi_def_cfa_offset 0
 2603              	.LVL330:
 685:..\common\ud3core/cli_basic.c ****     #endif
 2604              		.loc 1 685 0
 2605 0236 6047     		bx	ip
 2606              	.LVL331:
 2607              	.L227:
 2608              		.cfi_restore_state
 2609              	.LBB33:
 650:..\common\ud3core/cli_basic.c ****         
 2610              		.loc 1 650 0
 2611 0238 9DF81C30 		ldrb	r3, [sp, #28]	@ zero_extendqisi2
 2612              	.LVL332:
 2613 023c 0533     		adds	r3, r3, #5
 2614 023e 1C44     		add	r4, r4, r3
 2615              	.LVL333:
 2616 0240 A4B2     		uxth	r4, r4
 2617              	.LVL334:
 2618 0242 14E7     		b	.L206
ARM GAS  C:\Users\chemi\AppData\Local\Temp\ccHerMgL.s 			page 61


 2619              	.L231:
 2620              		.align	2
 2621              	.L230:
 2622 0244 66020000 		.word	.LC35
 2623 0248 86020000 		.word	.LC36
 2624 024c B0020000 		.word	.LC37
 2625 0250 C9020000 		.word	.LC38
 2626 0254 F8020000 		.word	.LC39
 2627 0258 18030000 		.word	.LC40
 2628 025c 42030000 		.word	.LC41
 2629 0260 59030000 		.word	.LC42
 2630              	.LBE33:
 2631              		.cfi_endproc
 2632              	.LFE80:
 2633              		.size	EEPROM_read_conf, .-EEPROM_read_conf
 2634              		.section	.text.getch,"ax",%progbits
 2635              		.align	1
 2636              		.global	getch
 2637              		.thumb
 2638              		.thumb_func
 2639              		.type	getch, %function
 2640              	getch:
 2641              	.LFB81:
 688:..\common\ud3core/cli_basic.c **** 
 689:..\common\ud3core/cli_basic.c **** 
 690:..\common\ud3core/cli_basic.c **** 
 691:..\common\ud3core/cli_basic.c **** 
 692:..\common\ud3core/cli_basic.c **** uint8_t getch(TERMINAL_HANDLE * handle, TickType_t xTicksToWait){
 2642              		.loc 1 692 0
 2643              		.cfi_startproc
 2644              		@ args = 0, pretend = 0, frame = 8
 2645              		@ frame_needed = 0, uses_anonymous_args = 0
 2646              	.LVL335:
 2647 0000 37B5     		push	{r0, r1, r2, r4, r5, lr}
 2648              		.cfi_def_cfa_offset 24
 2649              		.cfi_offset 4, -12
 2650              		.cfi_offset 5, -8
 2651              		.cfi_offset 14, -4
 693:..\common\ud3core/cli_basic.c ****     uint8_t c=0;
 2652              		.loc 1 693 0
 2653 0002 0023     		movs	r3, #0
 692:..\common\ud3core/cli_basic.c ****     uint8_t c=0;
 2654              		.loc 1 692 0
 2655 0004 0446     		mov	r4, r0
 2656              		.loc 1 693 0
 2657 0006 8DF80730 		strb	r3, [sp, #7]
 694:..\common\ud3core/cli_basic.c ****     if(xTicksToWait>0){
 2658              		.loc 1 694 0
 2659 000a 0D46     		mov	r5, r1
 2660 000c 29B1     		cbz	r1, .L233
 695:..\common\ud3core/cli_basic.c ****         xSemaphoreGive(portM->term_block);
 2661              		.loc 1 695 0
 2662 000e 4068     		ldr	r0, [r0, #4]
 2663              	.LVL336:
 2664 0010 1A46     		mov	r2, r3
 2665 0012 1946     		mov	r1, r3
 2666              	.LVL337:
ARM GAS  C:\Users\chemi\AppData\Local\Temp\ccHerMgL.s 			page 62


 2667 0014 C068     		ldr	r0, [r0, #12]
 2668 0016 FFF7FEFF 		bl	xQueueGenericSend
 2669              	.LVL338:
 2670              	.L233:
 696:..\common\ud3core/cli_basic.c ****     }
 697:..\common\ud3core/cli_basic.c ****     xStreamBufferReceive(portM->rx,&c,1,xTicksToWait);
 2671              		.loc 1 697 0
 2672 001a 6068     		ldr	r0, [r4, #4]
 2673 001c 2B46     		mov	r3, r5
 2674 001e 0122     		movs	r2, #1
 2675 0020 0DF10701 		add	r1, sp, #7
 2676 0024 8068     		ldr	r0, [r0, #8]
 2677 0026 FFF7FEFF 		bl	xStreamBufferReceive
 2678              	.LVL339:
 698:..\common\ud3core/cli_basic.c ****     if(xTicksToWait>0){
 2679              		.loc 1 698 0
 2680 002a 2DB1     		cbz	r5, .L234
 2681              	.LVL340:
 2682              	.LBB36:
 2683              	.LBB37:
 699:..\common\ud3core/cli_basic.c ****         xSemaphoreTake(portM->term_block, portMAX_DELAY);
 2684              		.loc 1 699 0
 2685 002c 6368     		ldr	r3, [r4, #4]
 2686 002e 4FF0FF31 		mov	r1, #-1
 2687 0032 D868     		ldr	r0, [r3, #12]
 2688 0034 FFF7FEFF 		bl	xQueueSemaphoreTake
 2689              	.LVL341:
 2690              	.L234:
 2691              	.LBE37:
 2692              	.LBE36:
 700:..\common\ud3core/cli_basic.c ****     }
 701:..\common\ud3core/cli_basic.c ****     return c;
 702:..\common\ud3core/cli_basic.c **** }
 2693              		.loc 1 702 0
 2694 0038 9DF80700 		ldrb	r0, [sp, #7]	@ zero_extendqisi2
 2695 003c 03B0     		add	sp, sp, #12
 2696              		.cfi_def_cfa_offset 12
 2697              		@ sp needed
 2698 003e 30BD     		pop	{r4, r5, pc}
 2699              		.cfi_endproc
 2700              	.LFE81:
 2701              		.size	getch, .-getch
 2702              		.section	.text.getche,"ax",%progbits
 2703              		.align	1
 2704              		.global	getche
 2705              		.thumb
 2706              		.thumb_func
 2707              		.type	getche, %function
 2708              	getche:
 2709              	.LFB82:
 703:..\common\ud3core/cli_basic.c **** 
 704:..\common\ud3core/cli_basic.c **** uint8_t getche(TERMINAL_HANDLE * handle, TickType_t xTicksToWait){
 2710              		.loc 1 704 0
 2711              		.cfi_startproc
 2712              		@ args = 0, pretend = 0, frame = 8
 2713              		@ frame_needed = 0, uses_anonymous_args = 0
 2714              	.LVL342:
ARM GAS  C:\Users\chemi\AppData\Local\Temp\ccHerMgL.s 			page 63


 2715 0000 37B5     		push	{r0, r1, r2, r4, r5, lr}
 2716              		.cfi_def_cfa_offset 24
 2717              		.cfi_offset 4, -12
 2718              		.cfi_offset 5, -8
 2719              		.cfi_offset 14, -4
 705:..\common\ud3core/cli_basic.c ****     uint8_t c=0;
 2720              		.loc 1 705 0
 2721 0002 0023     		movs	r3, #0
 704:..\common\ud3core/cli_basic.c ****     uint8_t c=0;
 2722              		.loc 1 704 0
 2723 0004 0446     		mov	r4, r0
 2724              		.loc 1 705 0
 2725 0006 8DF80730 		strb	r3, [sp, #7]
 706:..\common\ud3core/cli_basic.c ****     if(xTicksToWait>0){
 2726              		.loc 1 706 0
 2727 000a 0D46     		mov	r5, r1
 2728 000c 29B1     		cbz	r1, .L242
 707:..\common\ud3core/cli_basic.c ****         xSemaphoreGive(portM->term_block);
 2729              		.loc 1 707 0
 2730 000e 4068     		ldr	r0, [r0, #4]
 2731              	.LVL343:
 2732 0010 1A46     		mov	r2, r3
 2733 0012 1946     		mov	r1, r3
 2734              	.LVL344:
 2735 0014 C068     		ldr	r0, [r0, #12]
 2736 0016 FFF7FEFF 		bl	xQueueGenericSend
 2737              	.LVL345:
 2738              	.L242:
 708:..\common\ud3core/cli_basic.c ****     }
 709:..\common\ud3core/cli_basic.c ****     xStreamBufferReceive(portM->rx,&c,1,xTicksToWait);
 2739              		.loc 1 709 0
 2740 001a 6068     		ldr	r0, [r4, #4]
 2741 001c 2B46     		mov	r3, r5
 2742 001e 0122     		movs	r2, #1
 2743 0020 0DF10701 		add	r1, sp, #7
 2744 0024 8068     		ldr	r0, [r0, #8]
 2745 0026 FFF7FEFF 		bl	xStreamBufferReceive
 2746              	.LVL346:
 710:..\common\ud3core/cli_basic.c ****     if(xTicksToWait>0){
 2747              		.loc 1 710 0
 2748 002a 2DB1     		cbz	r5, .L243
 711:..\common\ud3core/cli_basic.c ****         xSemaphoreTake(portM->term_block, portMAX_DELAY);
 2749              		.loc 1 711 0
 2750 002c 6368     		ldr	r3, [r4, #4]
 2751 002e 4FF0FF31 		mov	r1, #-1
 2752 0032 D868     		ldr	r0, [r3, #12]
 2753 0034 FFF7FEFF 		bl	xQueueSemaphoreTake
 2754              	.LVL347:
 2755              	.L243:
 712:..\common\ud3core/cli_basic.c ****     }
 713:..\common\ud3core/cli_basic.c ****     if(c){
 2756              		.loc 1 713 0
 2757 0038 9DF80730 		ldrb	r3, [sp, #7]	@ zero_extendqisi2
 2758 003c 3BB1     		cbz	r3, .L244
 714:..\common\ud3core/cli_basic.c ****         xStreamBufferSend(portM->tx,&c,1,0);
 2759              		.loc 1 714 0
 2760 003e 6068     		ldr	r0, [r4, #4]
ARM GAS  C:\Users\chemi\AppData\Local\Temp\ccHerMgL.s 			page 64


 2761 0040 0023     		movs	r3, #0
 2762 0042 0122     		movs	r2, #1
 2763 0044 0DF10701 		add	r1, sp, #7
 2764 0048 4068     		ldr	r0, [r0, #4]
 2765 004a FFF7FEFF 		bl	xStreamBufferSend
 2766              	.LVL348:
 2767              	.L244:
 715:..\common\ud3core/cli_basic.c ****     }
 716:..\common\ud3core/cli_basic.c ****     return c;
 717:..\common\ud3core/cli_basic.c **** }
 2768              		.loc 1 717 0
 2769 004e 9DF80700 		ldrb	r0, [sp, #7]	@ zero_extendqisi2
 2770 0052 03B0     		add	sp, sp, #12
 2771              		.cfi_def_cfa_offset 12
 2772              		@ sp needed
 2773 0054 30BD     		pop	{r4, r5, pc}
 2774              		.cfi_endproc
 2775              	.LFE82:
 2776              		.size	getche, .-getche
 2777              		.section	.text.kbhit,"ax",%progbits
 2778              		.align	1
 2779              		.global	kbhit
 2780              		.thumb
 2781              		.thumb_func
 2782              		.type	kbhit, %function
 2783              	kbhit:
 2784              	.LFB83:
 718:..\common\ud3core/cli_basic.c **** 
 719:..\common\ud3core/cli_basic.c **** uint8_t kbhit(TERMINAL_HANDLE * handle){
 2785              		.loc 1 719 0
 2786              		.cfi_startproc
 2787              		@ args = 0, pretend = 0, frame = 0
 2788              		@ frame_needed = 0, uses_anonymous_args = 0
 2789              	.LVL349:
 2790 0000 08B5     		push	{r3, lr}
 2791              		.cfi_def_cfa_offset 8
 2792              		.cfi_offset 3, -8
 2793              		.cfi_offset 14, -4
 720:..\common\ud3core/cli_basic.c ****     if(xStreamBufferIsEmpty(portM->rx)){
 2794              		.loc 1 720 0
 2795 0002 4368     		ldr	r3, [r0, #4]
 2796 0004 9868     		ldr	r0, [r3, #8]
 2797              	.LVL350:
 2798 0006 FFF7FEFF 		bl	xStreamBufferIsEmpty
 2799              	.LVL351:
 721:..\common\ud3core/cli_basic.c ****         return pdFALSE;
 722:..\common\ud3core/cli_basic.c ****     }else{
 723:..\common\ud3core/cli_basic.c ****         return pdTRUE;
 724:..\common\ud3core/cli_basic.c ****     }
 725:..\common\ud3core/cli_basic.c **** }
 2800              		.loc 1 725 0
 2801 000a B0FA80F0 		clz	r0, r0
 2802 000e 4009     		lsrs	r0, r0, #5
 2803 0010 08BD     		pop	{r3, pc}
 2804              		.cfi_endproc
 2805              	.LFE83:
 2806              		.size	kbhit, .-kbhit
ARM GAS  C:\Users\chemi\AppData\Local\Temp\ccHerMgL.s 			page 65


 2807              		.section	.text.Term_check_break,"ax",%progbits
 2808              		.align	1
 2809              		.global	Term_check_break
 2810              		.thumb
 2811              		.thumb_func
 2812              		.type	Term_check_break, %function
 2813              	Term_check_break:
 2814              	.LFB84:
 726:..\common\ud3core/cli_basic.c **** 
 727:..\common\ud3core/cli_basic.c **** #define CTRL_C  0x03
 728:..\common\ud3core/cli_basic.c **** 
 729:..\common\ud3core/cli_basic.c **** uint8_t Term_check_break(TERMINAL_HANDLE * handle, uint32_t ms_to_wait){
 2815              		.loc 1 729 0
 2816              		.cfi_startproc
 2817              		@ args = 0, pretend = 0, frame = 0
 2818              		@ frame_needed = 0, uses_anonymous_args = 0
 2819              	.LVL352:
 2820 0000 08B5     		push	{r3, lr}
 2821              		.cfi_def_cfa_offset 8
 2822              		.cfi_offset 3, -8
 2823              		.cfi_offset 14, -4
 730:..\common\ud3core/cli_basic.c ****     uint8_t c = getch(handle,ms_to_wait /portTICK_RATE_MS);
 2824              		.loc 1 730 0
 2825 0002 FFF7FEFF 		bl	getch
 2826              	.LVL353:
 731:..\common\ud3core/cli_basic.c ****     if(c == CTRL_C || c == 'q'){  //0x03 = CTRL+C
 2827              		.loc 1 731 0
 2828 0006 0328     		cmp	r0, #3
 2829 0008 03D0     		beq	.L257
 732:..\common\ud3core/cli_basic.c ****         return pdFALSE;
 2830              		.loc 1 732 0 discriminator 1
 2831 000a 7138     		subs	r0, r0, #113
 2832              	.LVL354:
 2833 000c 18BF     		it	ne
 2834 000e 0120     		movne	r0, #1
 2835 0010 08BD     		pop	{r3, pc}
 2836              	.LVL355:
 2837              	.L257:
 2838              		.loc 1 732 0 is_stmt 0
 2839 0012 0020     		movs	r0, #0
 2840              	.LVL356:
 733:..\common\ud3core/cli_basic.c ****     }else{
 734:..\common\ud3core/cli_basic.c ****         return pdTRUE;
 735:..\common\ud3core/cli_basic.c ****     } 
 736:..\common\ud3core/cli_basic.c **** }
 2841              		.loc 1 736 0 is_stmt 1
 2842 0014 08BD     		pop	{r3, pc}
 2843              		.cfi_endproc
 2844              	.LFE84:
 2845              		.size	Term_check_break, .-Term_check_break
 2846              		.comm	byte_cnt,2,2
 2847              		.section	.rodata.str1.1,"aMS",%progbits,1
 2848              	.LC0:
 2849 0000 453A5261 		.ascii	"E:Range %i.%u-%i.%u\015\012\000"
 2849      6E676520 
 2849      25692E25 
 2849      752D2569 
ARM GAS  C:\Users\chemi\AppData\Local\Temp\ccHerMgL.s 			page 66


 2849      2E25750D 
 2850              	.LC1:
 2851 0016 453A5261 		.ascii	"E:Range %i-%i\015\012\000"
 2851      6E676520 
 2851      25692D25 
 2851      690D0A00 
 2852              	.LC2:
 2853 0026 50617261 		.ascii	"Parameter\000"
 2853      6D657465 
 2853      7200
 2854              	.LC3:
 2855 0030 7C205661 		.ascii	"| Value\000"
 2855      6C756500 
 2856              	.LC4:
 2857 0038 7C205465 		.ascii	"| Text\015\012\000"
 2857      78740D0A 
 2857      00
 2858              	.LC5:
 2859 0041 1B5B3336 		.ascii	"\033[36m%s\000"
 2859      6D257300 
 2860              	.LC6:
 2861 0049 1B5B3337 		.ascii	"\033[37m| \033[32m%u.%0*u\000"
 2861      6D7C201B 
 2861      5B33326D 
 2861      25752E25 
 2861      302A7500 
 2862              	.LC7:
 2863 005d 1B5B3337 		.ascii	"\033[37m| \033[32m%u\000"
 2863      6D7C201B 
 2863      5B33326D 
 2863      257500
 2864              	.LC8:
 2865 006c 1B5B3337 		.ascii	"\033[37m| \033[32m%i.%0*u\000"
 2865      6D7C201B 
 2865      5B33326D 
 2865      25692E25 
 2865      302A7500 
 2866              	.LC9:
 2867 0080 1B5B3337 		.ascii	"\033[37m| \033[32m%i\000"
 2867      6D7C201B 
 2867      5B33326D 
 2867      256900
 2868              	.LC10:
 2869 008f 1B5B3337 		.ascii	"\033[37m| \033[32m%f\000"
 2869      6D7C201B 
 2869      5B33326D 
 2869      256600
 2870              	.LC11:
 2871 009e 1B5B3337 		.ascii	"\033[37m| \033[32m%c\000"
 2871      6D7C201B 
 2871      5B33326D 
 2871      256300
 2872              	.LC12:
 2873 00ad 1B5B3337 		.ascii	"\033[37m| \033[32m%s\000"
 2873      6D7C201B 
 2873      5B33326D 
 2873      257300
ARM GAS  C:\Users\chemi\AppData\Local\Temp\ccHerMgL.s 			page 67


 2874              	.LC13:
 2875 00bc 1B5B3337 		.ascii	"\033[37m| %s\015\012\000"
 2875      6D7C2025 
 2875      730D0A00 
 2876              	.LC14:
 2877 00c8 50617261 		.ascii	"Parameters:\015\012\000"
 2877      6D657465 
 2877      72733A0D 
 2877      0A00
 2878              	.LC15:
 2879 00d6 0D0A436F 		.ascii	"\015\012Configuration:\015\012\000"
 2879      6E666967 
 2879      75726174 
 2879      696F6E3A 
 2879      0D0A00
 2880              	.LC16:
 2881 00e9 0925733D 		.ascii	"\011%s=%u.%0*u\015\012\000"
 2881      25752E25 
 2881      302A750D 
 2881      0A00
 2882              	.LC17:
 2883 00f7 0925733D 		.ascii	"\011%s=%u\015\012\000"
 2883      25750D0A 
 2883      00
 2884              	.LC18:
 2885 0100 0925733D 		.ascii	"\011%s=%i.%0*u\015\012\000"
 2885      25692E25 
 2885      302A750D 
 2885      0A00
 2886              	.LC19:
 2887 010e 0925733D 		.ascii	"\011%s=%i\015\012\000"
 2887      25690D0A 
 2887      00
 2888              	.LC20:
 2889 0117 0925733D 		.ascii	"\011%s=%f\015\012\000"
 2889      25660D0A 
 2889      00
 2890              	.LC21:
 2891 0120 0925733D 		.ascii	"\011%s=%c\015\012\000"
 2891      25630D0A 
 2891      00
 2892              	.LC22:
 2893 0129 0925733D 		.ascii	"\011%s=%s\015\012\000"
 2893      25730D0A 
 2893      00
 2894              	.LC23:
 2895 0132 25733B25 		.ascii	"%s;%u.%0*u;%u;%u;%i.%u;%i.%u\000"
 2895      752E2530 
 2895      2A753B25 
 2895      753B2575 
 2895      3B25692E 
 2896              	.LC24:
 2897 014f 25733B25 		.ascii	"%s;%u;%u;%u;%u;%u\000"
 2897      753B2575 
 2897      3B25753B 
 2897      25753B25 
 2897      7500
ARM GAS  C:\Users\chemi\AppData\Local\Temp\ccHerMgL.s 			page 68


 2898              	.LC25:
 2899 0161 25733B25 		.ascii	"%s;%i.%0*u;%u;%u;%i.%u;%i.%u\000"
 2899      692E2530 
 2899      2A753B25 
 2899      753B2575 
 2899      3B25692E 
 2900              	.LC26:
 2901 017e 25733B25 		.ascii	"%s;%i;%u;%u;%i;%i\000"
 2901      693B2575 
 2901      3B25753B 
 2901      25693B25 
 2901      6900
 2902              	.LC27:
 2903 0190 25733B25 		.ascii	"%s;%f;%u;%u;%i;%i\000"
 2903      663B2575 
 2903      3B25753B 
 2903      25693B25 
 2903      6900
 2904              	.LC28:
 2905 01a2 25733B25 		.ascii	"%s;%c;%u;%u;%s;%s\000"
 2905      633B2575 
 2905      3B25753B 
 2905      25733B25 
 2905      7300
 2906              	.LC29:
 2907 01b4 4E554C4C 		.ascii	"NULL\000"
 2907      00
 2908              	.LC30:
 2909 01b9 25733B25 		.ascii	"%s;%s;%u;%u;%s;%s\000"
 2909      733B2575 
 2909      3B25753B 
 2909      25733B25 
 2909      7300
 2910              	.LC31:
 2911 01cb 466F756E 		.ascii	"Found collision %s <-> %s\015\012\000"
 2911      6420636F 
 2911      6C6C6973 
 2911      696F6E20 
 2911      2573203C 
 2912              	.LC32:
 2913 01e7 43686563 		.ascii	"Check for hash collision done.\015\012\000"
 2913      6B20666F 
 2913      72206861 
 2913      73682063 
 2913      6F6C6C69 
 2914              	.LC33:
 2915 0208 45455052 		.ascii	"EEPROM: Dataset written changes\000"
 2915      4F4D3A20 
 2915      44617461 
 2915      73657420 
 2915      77726974 
 2916              	.LC34:
 2917 0228 2569202F 		.ascii	"%i / %i new config params written. %i bytes from 20"
 2917      20256920 
 2917      6E657720 
 2917      636F6E66 
 2917      69672070 
ARM GAS  C:\Users\chemi\AppData\Local\Temp\ccHerMgL.s 			page 69


 2918 025b 34382075 		.ascii	"48 used.\015\012\000"
 2918      7365642E 
 2918      0D0A00
 2919              	.LC35:
 2920 0266 45455052 		.ascii	"EEPROM: No or old dataset found\000"
 2920      4F4D3A20 
 2920      4E6F206F 
 2920      72206F6C 
 2920      64206461 
 2921              	.LC36:
 2922 0286 5741524E 		.ascii	"WARNING: No or old EEPROM dataset found\015\012\000"
 2922      494E473A 
 2922      204E6F20 
 2922      6F72206F 
 2922      6C642045 
 2923              	.LC37:
 2924 02b0 45455052 		.ascii	"EEPROM: Found unknown ID\000"
 2924      4F4D3A20 
 2924      466F756E 
 2924      6420756E 
 2924      6B6E6F77 
 2925              	.LC38:
 2926 02c9 5741524E 		.ascii	"WARNING: Unknown param ID %i found in EEPROM\015\012"
 2926      494E473A 
 2926      20556E6B 
 2926      6E6F776E 
 2926      20706172 
 2927 02f7 00       		.ascii	"\000"
 2928              	.LC39:
 2929 02f8 45455052 		.ascii	"EEPROM: Found unknown parameter\000"
 2929      4F4D3A20 
 2929      466F756E 
 2929      6420756E 
 2929      6B6E6F77 
 2930              	.LC40:
 2931 0318 5741524E 		.ascii	"WARNING: Param [%s] not found in EEPROM\015\012\000"
 2931      494E473A 
 2931      20506172 
 2931      616D205B 
 2931      25735D20 
 2932              	.LC41:
 2933 0342 45455052 		.ascii	"EEPROM: Dataset loaded\000"
 2933      4F4D3A20 
 2933      44617461 
 2933      73657420 
 2933      6C6F6164 
 2934              	.LC42:
 2935 0359 2569202F 		.ascii	"%i / %i config params loaded\015\012\000"
 2935      20256920 
 2935      636F6E66 
 2935      69672070 
 2935      6172616D 
 2936              		.data
 2937              		.align	1
 2938              		.set	.LANCHOR0,. + 0
 2939              		.type	last_row.9612, %object
 2940              		.size	last_row.9612, 2
ARM GAS  C:\Users\chemi\AppData\Local\Temp\ccHerMgL.s 			page 70


 2941              	last_row.9612:
 2942 0000 FFFF     		.short	-1
 2943              		.bss
 2944              		.set	.LANCHOR1,. + 0
 2945              		.type	eeprom_buffer.9611, %object
 2946              		.size	eeprom_buffer.9611, 16
 2947              	eeprom_buffer.9611:
 2948 0000 00000000 		.space	16
 2948      00000000 
 2948      00000000 
 2948      00000000 
 2949              		.type	changed.9613, %object
 2950              		.size	changed.9613, 1
 2951              	changed.9613:
 2952 0010 00       		.space	1
 2953              		.text
 2954              	.Letext0:
 2955              		.file 2 "c:\\program files (x86)\\cypress\\psoc creator\\4.4\\psoc creator\\import\\gnu\\arm\\5.4.
 2956              		.file 3 "c:\\program files (x86)\\cypress\\psoc creator\\4.4\\psoc creator\\import\\gnu\\arm\\5.4.
 2957              		.file 4 "..\\common\\rtos\\portable\\GCC\\ARM_CM3/portmacro.h"
 2958              		.file 5 "..\\common\\rtos\\include/task.h"
 2959              		.file 6 "..\\common\\rtos\\include/queue.h"
 2960              		.file 7 "..\\common\\rtos\\include/semphr.h"
 2961              		.file 8 "..\\common\\rtos\\include/stream_buffer.h"
 2962              		.file 9 "..\\common\\tterm/TTerm.h"
 2963              		.file 10 "..\\common\\ud3core/cli_basic.h"
 2964              		.file 11 "Generated_Source\\PSoC5/core_cm3.h"
 2965              		.file 12 "c:\\program files (x86)\\cypress\\psoc creator\\4.4\\psoc creator\\import\\gnu\\arm\\5.4
 2966              		.file 13 "c:\\program files (x86)\\cypress\\psoc creator\\4.4\\psoc creator\\import\\gnu\\arm\\5.4
 2967              		.file 14 "..\\common\\ud3core\\helper/printf.h"
 2968              		.file 15 "Generated_Source\\PSoC5/EEPROM_1.h"
 2969              		.file 16 "..\\common\\ud3core\\alarmevent.h"
 2970              		.section	.debug_info,"",%progbits
 2971              	.Ldebug_info0:
 2972 0000 24190000 		.4byte	0x1924
 2973 0004 0400     		.2byte	0x4
 2974 0006 00000000 		.4byte	.Ldebug_abbrev0
 2975 000a 04       		.byte	0x4
 2976 000b 01       		.uleb128 0x1
 2977 000c 39030000 		.4byte	.LASF203
 2978 0010 0C       		.byte	0xc
 2979 0011 2C040000 		.4byte	.LASF204
 2980 0015 CF000000 		.4byte	.LASF205
 2981 0019 C0000000 		.4byte	.Ldebug_ranges0+0xc0
 2982 001d 00000000 		.4byte	0
 2983 0021 00000000 		.4byte	.Ldebug_line0
 2984 0025 02       		.uleb128 0x2
 2985 0026 04       		.byte	0x4
 2986 0027 05       		.byte	0x5
 2987 0028 696E7400 		.ascii	"int\000"
 2988 002c 03       		.uleb128 0x3
 2989 002d 04       		.byte	0x4
 2990 002e 07       		.byte	0x7
 2991 002f 70040000 		.4byte	.LASF0
 2992 0033 04       		.uleb128 0x4
 2993 0034 DC010000 		.4byte	.LASF2
 2994 0038 02       		.byte	0x2
ARM GAS  C:\Users\chemi\AppData\Local\Temp\ccHerMgL.s 			page 71


 2995 0039 1B       		.byte	0x1b
 2996 003a 3E000000 		.4byte	0x3e
 2997 003e 03       		.uleb128 0x3
 2998 003f 01       		.byte	0x1
 2999 0040 06       		.byte	0x6
 3000 0041 9E000000 		.4byte	.LASF1
 3001 0045 04       		.uleb128 0x4
 3002 0046 AA000000 		.4byte	.LASF3
 3003 004a 02       		.byte	0x2
 3004 004b 1D       		.byte	0x1d
 3005 004c 50000000 		.4byte	0x50
 3006 0050 03       		.uleb128 0x3
 3007 0051 01       		.byte	0x1
 3008 0052 08       		.byte	0x8
 3009 0053 19080000 		.4byte	.LASF4
 3010 0057 04       		.uleb128 0x4
 3011 0058 FB0A0000 		.4byte	.LASF5
 3012 005c 02       		.byte	0x2
 3013 005d 29       		.byte	0x29
 3014 005e 62000000 		.4byte	0x62
 3015 0062 03       		.uleb128 0x3
 3016 0063 02       		.byte	0x2
 3017 0064 05       		.byte	0x5
 3018 0065 47080000 		.4byte	.LASF6
 3019 0069 04       		.uleb128 0x4
 3020 006a 71090000 		.4byte	.LASF7
 3021 006e 02       		.byte	0x2
 3022 006f 2B       		.byte	0x2b
 3023 0070 74000000 		.4byte	0x74
 3024 0074 03       		.uleb128 0x3
 3025 0075 02       		.byte	0x2
 3026 0076 07       		.byte	0x7
 3027 0077 62050000 		.4byte	.LASF8
 3028 007b 04       		.uleb128 0x4
 3029 007c FF050000 		.4byte	.LASF9
 3030 0080 02       		.byte	0x2
 3031 0081 3F       		.byte	0x3f
 3032 0082 86000000 		.4byte	0x86
 3033 0086 03       		.uleb128 0x3
 3034 0087 04       		.byte	0x4
 3035 0088 05       		.byte	0x5
 3036 0089 B9000000 		.4byte	.LASF10
 3037 008d 04       		.uleb128 0x4
 3038 008e 2E030000 		.4byte	.LASF11
 3039 0092 02       		.byte	0x2
 3040 0093 41       		.byte	0x41
 3041 0094 98000000 		.4byte	0x98
 3042 0098 03       		.uleb128 0x3
 3043 0099 04       		.byte	0x4
 3044 009a 07       		.byte	0x7
 3045 009b C2040000 		.4byte	.LASF12
 3046 009f 03       		.uleb128 0x3
 3047 00a0 08       		.byte	0x8
 3048 00a1 05       		.byte	0x5
 3049 00a2 9F020000 		.4byte	.LASF13
 3050 00a6 03       		.uleb128 0x3
 3051 00a7 08       		.byte	0x8
ARM GAS  C:\Users\chemi\AppData\Local\Temp\ccHerMgL.s 			page 72


 3052 00a8 07       		.byte	0x7
 3053 00a9 F4000000 		.4byte	.LASF14
 3054 00ad 04       		.uleb128 0x4
 3055 00ae 190A0000 		.4byte	.LASF15
 3056 00b2 03       		.byte	0x3
 3057 00b3 14       		.byte	0x14
 3058 00b4 33000000 		.4byte	0x33
 3059 00b8 04       		.uleb128 0x4
 3060 00b9 930A0000 		.4byte	.LASF16
 3061 00bd 03       		.byte	0x3
 3062 00be 18       		.byte	0x18
 3063 00bf 45000000 		.4byte	0x45
 3064 00c3 04       		.uleb128 0x4
 3065 00c4 7C010000 		.4byte	.LASF17
 3066 00c8 03       		.byte	0x3
 3067 00c9 20       		.byte	0x20
 3068 00ca 57000000 		.4byte	0x57
 3069 00ce 04       		.uleb128 0x4
 3070 00cf 83040000 		.4byte	.LASF18
 3071 00d3 03       		.byte	0x3
 3072 00d4 24       		.byte	0x24
 3073 00d5 69000000 		.4byte	0x69
 3074 00d9 04       		.uleb128 0x4
 3075 00da 11080000 		.4byte	.LASF19
 3076 00de 03       		.byte	0x3
 3077 00df 2C       		.byte	0x2c
 3078 00e0 7B000000 		.4byte	0x7b
 3079 00e4 04       		.uleb128 0x4
 3080 00e5 0F090000 		.4byte	.LASF20
 3081 00e9 03       		.byte	0x3
 3082 00ea 30       		.byte	0x30
 3083 00eb 8D000000 		.4byte	0x8d
 3084 00ef 03       		.uleb128 0x3
 3085 00f0 04       		.byte	0x4
 3086 00f1 04       		.byte	0x4
 3087 00f2 7B070000 		.4byte	.LASF21
 3088 00f6 03       		.uleb128 0x3
 3089 00f7 08       		.byte	0x8
 3090 00f8 04       		.byte	0x4
 3091 00f9 CF020000 		.4byte	.LASF22
 3092 00fd 03       		.uleb128 0x3
 3093 00fe 01       		.byte	0x1
 3094 00ff 08       		.byte	0x8
 3095 0100 39090000 		.4byte	.LASF23
 3096 0104 03       		.uleb128 0x3
 3097 0105 04       		.byte	0x4
 3098 0106 07       		.byte	0x7
 3099 0107 80060000 		.4byte	.LASF24
 3100 010b 05       		.uleb128 0x5
 3101 010c 04       		.byte	0x4
 3102 010d 06       		.uleb128 0x6
 3103 010e 04       		.byte	0x4
 3104 010f FD000000 		.4byte	0xfd
 3105 0113 06       		.uleb128 0x6
 3106 0114 04       		.byte	0x4
 3107 0115 19010000 		.4byte	0x119
 3108 0119 07       		.uleb128 0x7
ARM GAS  C:\Users\chemi\AppData\Local\Temp\ccHerMgL.s 			page 73


 3109 011a FD000000 		.4byte	0xfd
 3110 011e 04       		.uleb128 0x4
 3111 011f E4020000 		.4byte	.LASF25
 3112 0123 04       		.byte	0x4
 3113 0124 38       		.byte	0x38
 3114 0125 86000000 		.4byte	0x86
 3115 0129 04       		.uleb128 0x4
 3116 012a DE060000 		.4byte	.LASF26
 3117 012e 04       		.byte	0x4
 3118 012f 3F       		.byte	0x3f
 3119 0130 E4000000 		.4byte	0xe4
 3120 0134 06       		.uleb128 0x6
 3121 0135 04       		.byte	0x4
 3122 0136 B8000000 		.4byte	0xb8
 3123 013a 04       		.uleb128 0x4
 3124 013b 8A020000 		.4byte	.LASF27
 3125 013f 05       		.byte	0x5
 3126 0140 4E       		.byte	0x4e
 3127 0141 45010000 		.4byte	0x145
 3128 0145 06       		.uleb128 0x6
 3129 0146 04       		.byte	0x4
 3130 0147 4B010000 		.4byte	0x14b
 3131 014b 08       		.uleb128 0x8
 3132 014c 4A020000 		.4byte	.LASF29
 3133 0150 04       		.uleb128 0x4
 3134 0151 29010000 		.4byte	.LASF28
 3135 0155 06       		.byte	0x6
 3136 0156 31       		.byte	0x31
 3137 0157 5B010000 		.4byte	0x15b
 3138 015b 06       		.uleb128 0x6
 3139 015c 04       		.byte	0x4
 3140 015d 61010000 		.4byte	0x161
 3141 0161 08       		.uleb128 0x8
 3142 0162 01080000 		.4byte	.LASF30
 3143 0166 04       		.uleb128 0x4
 3144 0167 3E090000 		.4byte	.LASF31
 3145 016b 07       		.byte	0x7
 3146 016c 24       		.byte	0x24
 3147 016d 50010000 		.4byte	0x150
 3148 0171 04       		.uleb128 0x4
 3149 0172 48050000 		.4byte	.LASF32
 3150 0176 08       		.byte	0x8
 3151 0177 46       		.byte	0x46
 3152 0178 7C010000 		.4byte	0x17c
 3153 017c 06       		.uleb128 0x6
 3154 017d 04       		.byte	0x4
 3155 017e 82010000 		.4byte	0x182
 3156 0182 08       		.uleb128 0x8
 3157 0183 550B0000 		.4byte	.LASF33
 3158 0187 09       		.uleb128 0x9
 3159 0188 CA080000 		.4byte	.LASF105
 3160 018c 01       		.byte	0x1
 3161 018d 50000000 		.4byte	0x50
 3162 0191 09       		.byte	0x9
 3163 0192 35       		.byte	0x35
 3164 0193 40020000 		.4byte	0x240
 3165 0197 0A       		.uleb128 0xa
ARM GAS  C:\Users\chemi\AppData\Local\Temp\ccHerMgL.s 			page 74


 3166 0198 6D060000 		.4byte	.LASF34
 3167 019c 00       		.byte	0
 3168 019d 0A       		.uleb128 0xa
 3169 019e 38060000 		.4byte	.LASF35
 3170 01a2 01       		.byte	0x1
 3171 01a3 0A       		.uleb128 0xa
 3172 01a4 F5030000 		.4byte	.LASF36
 3173 01a8 02       		.byte	0x2
 3174 01a9 0A       		.uleb128 0xa
 3175 01aa E9070000 		.4byte	.LASF37
 3176 01ae 03       		.byte	0x3
 3177 01af 0A       		.uleb128 0xa
 3178 01b0 5E020000 		.4byte	.LASF38
 3179 01b4 04       		.byte	0x4
 3180 01b5 0A       		.uleb128 0xa
 3181 01b6 A1060000 		.4byte	.LASF39
 3182 01ba 05       		.byte	0x5
 3183 01bb 0A       		.uleb128 0xa
 3184 01bc 30070000 		.4byte	.LASF40
 3185 01c0 06       		.byte	0x6
 3186 01c1 0A       		.uleb128 0xa
 3187 01c2 69070000 		.4byte	.LASF41
 3188 01c6 07       		.byte	0x7
 3189 01c7 0A       		.uleb128 0xa
 3190 01c8 BD080000 		.4byte	.LASF42
 3191 01cc 08       		.byte	0x8
 3192 01cd 0A       		.uleb128 0xa
 3193 01ce AD050000 		.4byte	.LASF43
 3194 01d2 09       		.byte	0x9
 3195 01d3 0A       		.uleb128 0xa
 3196 01d4 74000000 		.4byte	.LASF44
 3197 01d8 0A       		.byte	0xa
 3198 01d9 0A       		.uleb128 0xa
 3199 01da 35000000 		.4byte	.LASF45
 3200 01de 0B       		.byte	0xb
 3201 01df 0A       		.uleb128 0xa
 3202 01e0 00000000 		.4byte	.LASF46
 3203 01e4 0C       		.byte	0xc
 3204 01e5 0A       		.uleb128 0xa
 3205 01e6 E3080000 		.4byte	.LASF47
 3206 01ea 0D       		.byte	0xd
 3207 01eb 0A       		.uleb128 0xa
 3208 01ec F2080000 		.4byte	.LASF48
 3209 01f0 0E       		.byte	0xe
 3210 01f1 0A       		.uleb128 0xa
 3211 01f2 92060000 		.4byte	.LASF49
 3212 01f6 0F       		.byte	0xf
 3213 01f7 0A       		.uleb128 0xa
 3214 01f8 E1050000 		.4byte	.LASF50
 3215 01fc 10       		.byte	0x10
 3216 01fd 0A       		.uleb128 0xa
 3217 01fe 3B070000 		.4byte	.LASF51
 3218 0202 11       		.byte	0x11
 3219 0203 0A       		.uleb128 0xa
 3220 0204 1B020000 		.4byte	.LASF52
 3221 0208 12       		.byte	0x12
 3222 0209 0A       		.uleb128 0xa
ARM GAS  C:\Users\chemi\AppData\Local\Temp\ccHerMgL.s 			page 75


 3223 020a F0010000 		.4byte	.LASF53
 3224 020e 13       		.byte	0x13
 3225 020f 0A       		.uleb128 0xa
 3226 0210 8D080000 		.4byte	.LASF54
 3227 0214 14       		.byte	0x14
 3228 0215 0A       		.uleb128 0xa
 3229 0216 68010000 		.4byte	.LASF55
 3230 021a 15       		.byte	0x15
 3231 021b 0A       		.uleb128 0xa
 3232 021c AF060000 		.4byte	.LASF56
 3233 0220 16       		.byte	0x16
 3234 0221 0A       		.uleb128 0xa
 3235 0222 9B010000 		.4byte	.LASF57
 3236 0226 17       		.byte	0x17
 3237 0227 0A       		.uleb128 0xa
 3238 0228 49000000 		.4byte	.LASF58
 3239 022c 18       		.byte	0x18
 3240 022d 0A       		.uleb128 0xa
 3241 022e 7C090000 		.4byte	.LASF59
 3242 0232 19       		.byte	0x19
 3243 0233 0A       		.uleb128 0xa
 3244 0234 F8020000 		.4byte	.LASF60
 3245 0238 1A       		.byte	0x1a
 3246 0239 0A       		.uleb128 0xa
 3247 023a 90010000 		.4byte	.LASF61
 3248 023e 1B       		.byte	0x1b
 3249 023f 00       		.byte	0
 3250 0240 04       		.uleb128 0x4
 3251 0241 1E060000 		.4byte	.LASF62
 3252 0245 09       		.byte	0x9
 3253 0246 A3       		.byte	0xa3
 3254 0247 4B020000 		.4byte	0x24b
 3255 024b 0B       		.uleb128 0xb
 3256 024c 15010000 		.4byte	.LASF83
 3257 0250 94       		.byte	0x94
 3258 0251 09       		.byte	0x9
 3259 0252 C6       		.byte	0xc6
 3260 0253 3C030000 		.4byte	0x33c
 3261 0257 0C       		.uleb128 0xc
 3262 0258 3E0A0000 		.4byte	.LASF63
 3263 025c 09       		.byte	0x9
 3264 025d C7       		.byte	0xc7
 3265 025e 0D010000 		.4byte	0x10d
 3266 0262 00       		.byte	0
 3267 0263 0C       		.uleb128 0xc
 3268 0264 0D040000 		.4byte	.LASF64
 3269 0268 09       		.byte	0x9
 3270 0269 C9       		.byte	0xc9
 3271 026a 0B010000 		.4byte	0x10b
 3272 026e 04       		.byte	0x4
 3273 026f 0C       		.uleb128 0xc
 3274 0270 A3080000 		.4byte	.LASF65
 3275 0274 09       		.byte	0x9
 3276 0275 CB       		.byte	0xcb
 3277 0276 E4000000 		.4byte	0xe4
 3278 027a 08       		.byte	0x8
 3279 027b 0C       		.uleb128 0xc
ARM GAS  C:\Users\chemi\AppData\Local\Temp\ccHerMgL.s 			page 76


 3280 027c 79020000 		.4byte	.LASF66
 3281 0280 09       		.byte	0x9
 3282 0281 CC       		.byte	0xcc
 3283 0282 E4000000 		.4byte	0xe4
 3284 0286 0C       		.byte	0xc
 3285 0287 0C       		.uleb128 0xc
 3286 0288 44010000 		.4byte	.LASF67
 3287 028c 09       		.byte	0x9
 3288 028d CD       		.byte	0xcd
 3289 028e E4000000 		.4byte	0xe4
 3290 0292 10       		.byte	0x10
 3291 0293 0C       		.uleb128 0xc
 3292 0294 C7010000 		.4byte	.LASF68
 3293 0298 09       		.byte	0x9
 3294 0299 CE       		.byte	0xce
 3295 029a E1040000 		.4byte	0x4e1
 3296 029e 14       		.byte	0x14
 3297 029f 0C       		.uleb128 0xc
 3298 02a0 D4040000 		.4byte	.LASF69
 3299 02a4 09       		.byte	0x9
 3300 02a5 CF       		.byte	0xcf
 3301 02a6 E4030000 		.4byte	0x3e4
 3302 02aa 18       		.byte	0x18
 3303 02ab 0C       		.uleb128 0xc
 3304 02ac DD090000 		.4byte	.LASF70
 3305 02b0 09       		.byte	0x9
 3306 02b1 D0       		.byte	0xd0
 3307 02b2 E4000000 		.4byte	0xe4
 3308 02b6 1C       		.byte	0x1c
 3309 02b7 0C       		.uleb128 0xc
 3310 02b8 E7040000 		.4byte	.LASF71
 3311 02bc 09       		.byte	0x9
 3312 02bd D1       		.byte	0xd1
 3313 02be E4000000 		.4byte	0xe4
 3314 02c2 20       		.byte	0x20
 3315 02c3 0C       		.uleb128 0xc
 3316 02c4 28000000 		.4byte	.LASF72
 3317 02c8 09       		.byte	0x9
 3318 02c9 D2       		.byte	0xd2
 3319 02ca 34040000 		.4byte	0x434
 3320 02ce 24       		.byte	0x24
 3321 02cf 0C       		.uleb128 0xc
 3322 02d0 520A0000 		.4byte	.LASF73
 3323 02d4 09       		.byte	0x9
 3324 02d5 D3       		.byte	0xd3
 3325 02d6 0D010000 		.4byte	0x10d
 3326 02da 28       		.byte	0x28
 3327 02db 0C       		.uleb128 0xc
 3328 02dc 200A0000 		.4byte	.LASF74
 3329 02e0 09       		.byte	0x9
 3330 02e1 D4       		.byte	0xd4
 3331 02e2 E7040000 		.4byte	0x4e7
 3332 02e6 2C       		.byte	0x2c
 3333 02e7 0C       		.uleb128 0xc
 3334 02e8 E20A0000 		.4byte	.LASF75
 3335 02ec 09       		.byte	0x9
 3336 02ed D5       		.byte	0xd5
ARM GAS  C:\Users\chemi\AppData\Local\Temp\ccHerMgL.s 			page 77


 3337 02ee E4000000 		.4byte	0xe4
 3338 02f2 6C       		.byte	0x6c
 3339 02f3 0C       		.uleb128 0xc
 3340 02f4 69080000 		.4byte	.LASF76
 3341 02f8 09       		.byte	0x9
 3342 02f9 D6       		.byte	0xd6
 3343 02fa E4000000 		.4byte	0xe4
 3344 02fe 70       		.byte	0x70
 3345 02ff 0C       		.uleb128 0xc
 3346 0300 01090000 		.4byte	.LASF77
 3347 0304 09       		.byte	0x9
 3348 0305 D7       		.byte	0xd7
 3349 0306 B8000000 		.4byte	0xb8
 3350 030a 74       		.byte	0x74
 3351 030b 0C       		.uleb128 0xc
 3352 030c D6050000 		.4byte	.LASF78
 3353 0310 09       		.byte	0x9
 3354 0311 D8       		.byte	0xd8
 3355 0312 F7040000 		.4byte	0x4f7
 3356 0316 75       		.byte	0x75
 3357 0317 0C       		.uleb128 0xc
 3358 0318 5D070000 		.4byte	.LASF79
 3359 031c 09       		.byte	0x9
 3360 031d D9       		.byte	0xd9
 3361 031e 2C000000 		.4byte	0x2c
 3362 0322 88       		.byte	0x88
 3363 0323 0C       		.uleb128 0xc
 3364 0324 B1090000 		.4byte	.LASF80
 3365 0328 09       		.byte	0x9
 3366 0329 DA       		.byte	0xda
 3367 032a DB040000 		.4byte	0x4db
 3368 032e 8C       		.byte	0x8c
 3369 032f 0C       		.uleb128 0xc
 3370 0330 C2000000 		.4byte	.LASF81
 3371 0334 09       		.byte	0x9
 3372 0335 DB       		.byte	0xdb
 3373 0336 0F040000 		.4byte	0x40f
 3374 033a 90       		.byte	0x90
 3375 033b 00       		.byte	0
 3376 033c 04       		.uleb128 0x4
 3377 033d A6070000 		.4byte	.LASF82
 3378 0341 09       		.byte	0x9
 3379 0342 A4       		.byte	0xa4
 3380 0343 47030000 		.4byte	0x347
 3381 0347 0B       		.uleb128 0xb
 3382 0348 D2030000 		.4byte	.LASF84
 3383 034c 20       		.byte	0x20
 3384 034d 09       		.byte	0x9
 3385 034e BA       		.byte	0xba
 3386 034f B4030000 		.4byte	0x3b4
 3387 0353 0C       		.uleb128 0xc
 3388 0354 D3010000 		.4byte	.LASF85
 3389 0358 09       		.byte	0x9
 3390 0359 BB       		.byte	0xbb
 3391 035a B4030000 		.4byte	0x3b4
 3392 035e 00       		.byte	0
 3393 035f 0C       		.uleb128 0xc
ARM GAS  C:\Users\chemi\AppData\Local\Temp\ccHerMgL.s 			page 78


 3394 0360 98090000 		.4byte	.LASF86
 3395 0364 09       		.byte	0x9
 3396 0365 BC       		.byte	0xbc
 3397 0366 13010000 		.4byte	0x113
 3398 036a 04       		.byte	0x4
 3399 036b 0C       		.uleb128 0xc
 3400 036c 060A0000 		.4byte	.LASF87
 3401 0370 09       		.byte	0x9
 3402 0371 BD       		.byte	0xbd
 3403 0372 13010000 		.4byte	0x113
 3404 0376 08       		.byte	0x8
 3405 0377 0C       		.uleb128 0xc
 3406 0378 FA060000 		.4byte	.LASF88
 3407 037c 09       		.byte	0x9
 3408 037d BE       		.byte	0xbe
 3409 037e E4000000 		.4byte	0xe4
 3410 0382 0C       		.byte	0xc
 3411 0383 0C       		.uleb128 0xc
 3412 0384 6F0A0000 		.4byte	.LASF89
 3413 0388 09       		.byte	0x9
 3414 0389 BF       		.byte	0xbf
 3415 038a B8000000 		.4byte	0xb8
 3416 038e 10       		.byte	0x10
 3417 038f 0C       		.uleb128 0xc
 3418 0390 2E0A0000 		.4byte	.LASF90
 3419 0394 09       		.byte	0x9
 3420 0395 C0       		.byte	0xc0
 3421 0396 5A040000 		.4byte	0x45a
 3422 039a 14       		.byte	0x14
 3423 039b 0C       		.uleb128 0xc
 3424 039c 670B0000 		.4byte	.LASF91
 3425 03a0 09       		.byte	0x9
 3426 03a1 C1       		.byte	0xc1
 3427 03a2 0B010000 		.4byte	0x10b
 3428 03a6 18       		.byte	0x18
 3429 03a7 0C       		.uleb128 0xc
 3430 03a8 C6070000 		.4byte	.LASF92
 3431 03ac 09       		.byte	0x9
 3432 03ad C3       		.byte	0xc3
 3433 03ae DB040000 		.4byte	0x4db
 3434 03b2 1C       		.byte	0x1c
 3435 03b3 00       		.byte	0
 3436 03b4 04       		.uleb128 0x4
 3437 03b5 BB020000 		.4byte	.LASF93
 3438 03b9 09       		.byte	0x9
 3439 03ba A6       		.byte	0xa6
 3440 03bb BF030000 		.4byte	0x3bf
 3441 03bf 06       		.uleb128 0x6
 3442 03c0 04       		.byte	0x4
 3443 03c1 C5030000 		.4byte	0x3c5
 3444 03c5 0D       		.uleb128 0xd
 3445 03c6 B8000000 		.4byte	0xb8
 3446 03ca DE030000 		.4byte	0x3de
 3447 03ce 0E       		.uleb128 0xe
 3448 03cf DE030000 		.4byte	0x3de
 3449 03d3 0E       		.uleb128 0xe
 3450 03d4 B8000000 		.4byte	0xb8
ARM GAS  C:\Users\chemi\AppData\Local\Temp\ccHerMgL.s 			page 79


 3451 03d8 0E       		.uleb128 0xe
 3452 03d9 E4030000 		.4byte	0x3e4
 3453 03dd 00       		.byte	0
 3454 03de 06       		.uleb128 0x6
 3455 03df 04       		.byte	0x4
 3456 03e0 40020000 		.4byte	0x240
 3457 03e4 06       		.uleb128 0x6
 3458 03e5 04       		.byte	0x4
 3459 03e6 0D010000 		.4byte	0x10d
 3460 03ea 04       		.uleb128 0x4
 3461 03eb 51080000 		.4byte	.LASF94
 3462 03ef 09       		.byte	0x9
 3463 03f0 A7       		.byte	0xa7
 3464 03f1 F5030000 		.4byte	0x3f5
 3465 03f5 06       		.uleb128 0x6
 3466 03f6 04       		.byte	0x4
 3467 03f7 FB030000 		.4byte	0x3fb
 3468 03fb 0D       		.uleb128 0xd
 3469 03fc B8000000 		.4byte	0xb8
 3470 0400 0F040000 		.4byte	0x40f
 3471 0404 0E       		.uleb128 0xe
 3472 0405 DE030000 		.4byte	0x3de
 3473 0409 0E       		.uleb128 0xe
 3474 040a CE000000 		.4byte	0xce
 3475 040e 00       		.byte	0
 3476 040f 04       		.uleb128 0x4
 3477 0410 1C050000 		.4byte	.LASF95
 3478 0414 09       		.byte	0x9
 3479 0415 A8       		.byte	0xa8
 3480 0416 1A040000 		.4byte	0x41a
 3481 041a 06       		.uleb128 0x6
 3482 041b 04       		.byte	0x4
 3483 041c 20040000 		.4byte	0x420
 3484 0420 0D       		.uleb128 0xd
 3485 0421 B8000000 		.4byte	0xb8
 3486 0425 34040000 		.4byte	0x434
 3487 0429 0E       		.uleb128 0xe
 3488 042a DE030000 		.4byte	0x3de
 3489 042e 0E       		.uleb128 0xe
 3490 042f E4000000 		.4byte	0xe4
 3491 0433 00       		.byte	0
 3492 0434 04       		.uleb128 0x4
 3493 0435 700B0000 		.4byte	.LASF96
 3494 0439 09       		.byte	0x9
 3495 043a AB       		.byte	0xab
 3496 043b 3F040000 		.4byte	0x43f
 3497 043f 06       		.uleb128 0x6
 3498 0440 04       		.byte	0x4
 3499 0441 45040000 		.4byte	0x445
 3500 0445 0D       		.uleb128 0xd
 3501 0446 E4000000 		.4byte	0xe4
 3502 044a 5A040000 		.4byte	0x45a
 3503 044e 0E       		.uleb128 0xe
 3504 044f 0B010000 		.4byte	0x10b
 3505 0453 0E       		.uleb128 0xe
 3506 0454 0D010000 		.4byte	0x10d
 3507 0458 0F       		.uleb128 0xf
ARM GAS  C:\Users\chemi\AppData\Local\Temp\ccHerMgL.s 			page 80


 3508 0459 00       		.byte	0
 3509 045a 04       		.uleb128 0x4
 3510 045b C4090000 		.4byte	.LASF97
 3511 045f 09       		.byte	0x9
 3512 0460 AF       		.byte	0xaf
 3513 0461 65040000 		.4byte	0x465
 3514 0465 06       		.uleb128 0x6
 3515 0466 04       		.byte	0x4
 3516 0467 6B040000 		.4byte	0x46b
 3517 046b 0D       		.uleb128 0xd
 3518 046c B8000000 		.4byte	0xb8
 3519 0470 7F040000 		.4byte	0x47f
 3520 0474 0E       		.uleb128 0xe
 3521 0475 DE030000 		.4byte	0x3de
 3522 0479 0E       		.uleb128 0xe
 3523 047a 0B010000 		.4byte	0x10b
 3524 047e 00       		.byte	0
 3525 047f 10       		.uleb128 0x10
 3526 0480 18       		.byte	0x18
 3527 0481 09       		.byte	0x9
 3528 0482 B1       		.byte	0xb1
 3529 0483 D0040000 		.4byte	0x4d0
 3530 0487 0C       		.uleb128 0xc
 3531 0488 D8090000 		.4byte	.LASF98
 3532 048c 09       		.byte	0x9
 3533 048d B2       		.byte	0xb2
 3534 048e 3A010000 		.4byte	0x13a
 3535 0492 00       		.byte	0
 3536 0493 0C       		.uleb128 0xc
 3537 0494 99070000 		.4byte	.LASF99
 3538 0498 09       		.byte	0x9
 3539 0499 B3       		.byte	0xb3
 3540 049a EA030000 		.4byte	0x3ea
 3541 049e 04       		.byte	0x4
 3542 049f 0C       		.uleb128 0xc
 3543 04a0 2E060000 		.4byte	.LASF100
 3544 04a4 09       		.byte	0x9
 3545 04a5 B4       		.byte	0xb4
 3546 04a6 B8000000 		.4byte	0xb8
 3547 04aa 08       		.byte	0x8
 3548 04ab 0C       		.uleb128 0xc
 3549 04ac CA050000 		.4byte	.LASF101
 3550 04b0 09       		.byte	0x9
 3551 04b1 B5       		.byte	0xb5
 3552 04b2 71010000 		.4byte	0x171
 3553 04b6 0C       		.byte	0xc
 3554 04b7 0C       		.uleb128 0xc
 3555 04b8 3B0B0000 		.4byte	.LASF102
 3556 04bc 09       		.byte	0x9
 3557 04bd B6       		.byte	0xb6
 3558 04be E4030000 		.4byte	0x3e4
 3559 04c2 10       		.byte	0x10
 3560 04c3 0C       		.uleb128 0xc
 3561 04c4 89060000 		.4byte	.LASF103
 3562 04c8 09       		.byte	0x9
 3563 04c9 B7       		.byte	0xb7
 3564 04ca B8000000 		.4byte	0xb8
ARM GAS  C:\Users\chemi\AppData\Local\Temp\ccHerMgL.s 			page 81


 3565 04ce 14       		.byte	0x14
 3566 04cf 00       		.byte	0
 3567 04d0 04       		.uleb128 0x4
 3568 04d1 81080000 		.4byte	.LASF104
 3569 04d5 09       		.byte	0x9
 3570 04d6 B8       		.byte	0xb8
 3571 04d7 7F040000 		.4byte	0x47f
 3572 04db 06       		.uleb128 0x6
 3573 04dc 04       		.byte	0x4
 3574 04dd 3C030000 		.4byte	0x33c
 3575 04e1 06       		.uleb128 0x6
 3576 04e2 04       		.byte	0x4
 3577 04e3 D0040000 		.4byte	0x4d0
 3578 04e7 11       		.uleb128 0x11
 3579 04e8 0D010000 		.4byte	0x10d
 3580 04ec F7040000 		.4byte	0x4f7
 3581 04f0 12       		.uleb128 0x12
 3582 04f1 04010000 		.4byte	0x104
 3583 04f5 0F       		.byte	0xf
 3584 04f6 00       		.byte	0
 3585 04f7 11       		.uleb128 0x11
 3586 04f8 B8000000 		.4byte	0xb8
 3587 04fc 07050000 		.4byte	0x507
 3588 0500 12       		.uleb128 0x12
 3589 0501 04010000 		.4byte	0x104
 3590 0505 0F       		.byte	0xf
 3591 0506 00       		.byte	0
 3592 0507 09       		.uleb128 0x9
 3593 0508 57090000 		.4byte	.LASF106
 3594 050c 01       		.byte	0x1
 3595 050d 50000000 		.4byte	0x50
 3596 0511 0A       		.byte	0xa
 3597 0512 1D       		.byte	0x1d
 3598 0513 3C050000 		.4byte	0x53c
 3599 0517 0A       		.uleb128 0xa
 3600 0518 39080000 		.4byte	.LASF107
 3601 051c 00       		.byte	0
 3602 051d 0A       		.uleb128 0xa
 3603 051e 9D040000 		.4byte	.LASF108
 3604 0522 01       		.byte	0x1
 3605 0523 0A       		.uleb128 0xa
 3606 0524 050B0000 		.4byte	.LASF109
 3607 0528 02       		.byte	0x2
 3608 0529 0A       		.uleb128 0xa
 3609 052a BC070000 		.4byte	.LASF110
 3610 052e 03       		.byte	0x3
 3611 052f 0A       		.uleb128 0xa
 3612 0530 84010000 		.4byte	.LASF111
 3613 0534 04       		.byte	0x4
 3614 0535 0A       		.uleb128 0xa
 3615 0536 51070000 		.4byte	.LASF112
 3616 053a 05       		.byte	0x5
 3617 053b 00       		.byte	0
 3618 053c 04       		.uleb128 0x4
 3619 053d EC030000 		.4byte	.LASF113
 3620 0541 0A       		.byte	0xa
 3621 0542 56       		.byte	0x56
ARM GAS  C:\Users\chemi\AppData\Local\Temp\ccHerMgL.s 			page 82


 3622 0543 47050000 		.4byte	0x547
 3623 0547 0B       		.uleb128 0xb
 3624 0548 12060000 		.4byte	.LASF114
 3625 054c 14       		.byte	0x14
 3626 054d 0A       		.byte	0xa
 3627 054e 57       		.byte	0x57
 3628 054f B2050000 		.4byte	0x5b2
 3629 0553 0C       		.uleb128 0xc
 3630 0554 B4000000 		.4byte	.LASF115
 3631 0558 0A       		.byte	0xa
 3632 0559 58       		.byte	0x58
 3633 055a B8000000 		.4byte	0xb8
 3634 055e 00       		.byte	0
 3635 055f 13       		.uleb128 0x13
 3636 0560 6E756D00 		.ascii	"num\000"
 3637 0564 0A       		.byte	0xa
 3638 0565 59       		.byte	0x59
 3639 0566 B8000000 		.4byte	0xb8
 3640 056a 01       		.byte	0x1
 3641 056b 0C       		.uleb128 0xc
 3642 056c 290B0000 		.4byte	.LASF116
 3643 0570 0A       		.byte	0xa
 3644 0571 5A       		.byte	0x5a
 3645 0572 B8000000 		.4byte	0xb8
 3646 0576 02       		.byte	0x2
 3647 0577 0C       		.uleb128 0xc
 3648 0578 9B0A0000 		.4byte	.LASF117
 3649 057c 0A       		.byte	0xa
 3650 057d 5B       		.byte	0x5b
 3651 057e B8000000 		.4byte	0xb8
 3652 0582 03       		.byte	0x3
 3653 0583 13       		.uleb128 0x13
 3654 0584 747800   		.ascii	"tx\000"
 3655 0587 0A       		.byte	0xa
 3656 0588 5C       		.byte	0x5c
 3657 0589 71010000 		.4byte	0x171
 3658 058d 04       		.byte	0x4
 3659 058e 13       		.uleb128 0x13
 3660 058f 727800   		.ascii	"rx\000"
 3661 0592 0A       		.byte	0xa
 3662 0593 5D       		.byte	0x5d
 3663 0594 71010000 		.4byte	0x171
 3664 0598 08       		.byte	0x8
 3665 0599 0C       		.uleb128 0xc
 3666 059a E5010000 		.4byte	.LASF118
 3667 059e 0A       		.byte	0xa
 3668 059f 5E       		.byte	0x5e
 3669 05a0 66010000 		.4byte	0x166
 3670 05a4 0C       		.byte	0xc
 3671 05a5 0C       		.uleb128 0xc
 3672 05a6 5C060000 		.4byte	.LASF119
 3673 05aa 0A       		.byte	0xa
 3674 05ab 5F       		.byte	0x5f
 3675 05ac 3A010000 		.4byte	0x13a
 3676 05b0 10       		.byte	0x10
 3677 05b1 00       		.byte	0
 3678 05b2 04       		.uleb128 0x4
ARM GAS  C:\Users\chemi\AppData\Local\Temp\ccHerMgL.s 			page 83


 3679 05b3 18000000 		.4byte	.LASF120
 3680 05b7 0A       		.byte	0xa
 3681 05b8 63       		.byte	0x63
 3682 05b9 BD050000 		.4byte	0x5bd
 3683 05bd 0B       		.uleb128 0xb
 3684 05be 59040000 		.4byte	.LASF121
 3685 05c2 24       		.byte	0x24
 3686 05c3 0A       		.byte	0xa
 3687 05c4 64       		.byte	0x64
 3688 05c5 4E060000 		.4byte	0x64e
 3689 05c9 0C       		.uleb128 0xc
 3690 05ca 75050000 		.4byte	.LASF122
 3691 05ce 0A       		.byte	0xa
 3692 05cf 65       		.byte	0x65
 3693 05d0 4E060000 		.4byte	0x64e
 3694 05d4 00       		.byte	0
 3695 05d5 0C       		.uleb128 0xc
 3696 05d6 4A0A0000 		.4byte	.LASF123
 3697 05da 0A       		.byte	0xa
 3698 05db 66       		.byte	0x66
 3699 05dc B8000000 		.4byte	0xb8
 3700 05e0 01       		.byte	0x1
 3701 05e1 0C       		.uleb128 0xc
 3702 05e2 17050000 		.4byte	.LASF124
 3703 05e6 0A       		.byte	0xa
 3704 05e7 67       		.byte	0x67
 3705 05e8 13010000 		.4byte	0x113
 3706 05ec 04       		.byte	0x4
 3707 05ed 0C       		.uleb128 0xc
 3708 05ee 12040000 		.4byte	.LASF125
 3709 05f2 0A       		.byte	0xa
 3710 05f3 68       		.byte	0x68
 3711 05f4 0B010000 		.4byte	0x10b
 3712 05f8 08       		.byte	0x8
 3713 05f9 0C       		.uleb128 0xc
 3714 05fa 5D050000 		.4byte	.LASF126
 3715 05fe 0A       		.byte	0xa
 3716 05ff 69       		.byte	0x69
 3717 0600 4E060000 		.4byte	0x64e
 3718 0604 0C       		.byte	0xc
 3719 0605 0C       		.uleb128 0xc
 3720 0606 B4000000 		.4byte	.LASF115
 3721 060a 0A       		.byte	0xa
 3722 060b 6A       		.byte	0x6a
 3723 060c 4E060000 		.4byte	0x64e
 3724 0610 0D       		.byte	0xd
 3725 0611 13       		.uleb128 0x13
 3726 0612 6D696E00 		.ascii	"min\000"
 3727 0616 0A       		.byte	0xa
 3728 0617 6B       		.byte	0x6b
 3729 0618 53060000 		.4byte	0x653
 3730 061c 10       		.byte	0x10
 3731 061d 13       		.uleb128 0x13
 3732 061e 6D617800 		.ascii	"max\000"
 3733 0622 0A       		.byte	0xa
 3734 0623 6C       		.byte	0x6c
 3735 0624 53060000 		.4byte	0x653
ARM GAS  C:\Users\chemi\AppData\Local\Temp\ccHerMgL.s 			page 84


 3736 0628 14       		.byte	0x14
 3737 0629 13       		.uleb128 0x13
 3738 062a 64697600 		.ascii	"div\000"
 3739 062e 0A       		.byte	0xa
 3740 062f 6D       		.byte	0x6d
 3741 0630 58060000 		.4byte	0x658
 3742 0634 18       		.byte	0x18
 3743 0635 0C       		.uleb128 0xc
 3744 0636 A9040000 		.4byte	.LASF127
 3745 063a 0A       		.byte	0xa
 3746 063b 6E       		.byte	0x6e
 3747 063c 7C060000 		.4byte	0x67c
 3748 0640 1C       		.byte	0x1c
 3749 0641 0C       		.uleb128 0xc
 3750 0642 09020000 		.4byte	.LASF128
 3751 0646 0A       		.byte	0xa
 3752 0647 6F       		.byte	0x6f
 3753 0648 13010000 		.4byte	0x113
 3754 064c 20       		.byte	0x20
 3755 064d 00       		.byte	0
 3756 064e 07       		.uleb128 0x7
 3757 064f B8000000 		.4byte	0xb8
 3758 0653 07       		.uleb128 0x7
 3759 0654 D9000000 		.4byte	0xd9
 3760 0658 07       		.uleb128 0x7
 3761 0659 CE000000 		.4byte	0xce
 3762 065d 0D       		.uleb128 0xd
 3763 065e B8000000 		.4byte	0xb8
 3764 0662 76060000 		.4byte	0x676
 3765 0666 0E       		.uleb128 0xe
 3766 0667 76060000 		.4byte	0x676
 3767 066b 0E       		.uleb128 0xe
 3768 066c B8000000 		.4byte	0xb8
 3769 0670 0E       		.uleb128 0xe
 3770 0671 DE030000 		.4byte	0x3de
 3771 0675 00       		.byte	0
 3772 0676 06       		.uleb128 0x6
 3773 0677 04       		.byte	0x4
 3774 0678 B2050000 		.4byte	0x5b2
 3775 067c 06       		.uleb128 0x6
 3776 067d 04       		.byte	0x4
 3777 067e 5D060000 		.4byte	0x65d
 3778 0682 14       		.uleb128 0x14
 3779 0683 09060000 		.4byte	.LASF129
 3780 0687 01       		.byte	0x1
 3781 0688 2D       		.byte	0x2d
 3782 0689 B8000000 		.4byte	0xb8
 3783 068d 01       		.byte	0x1
 3784 068e 9C060000 		.4byte	0x69c
 3785 0692 15       		.uleb128 0x15
 3786 0693 6E00     		.ascii	"n\000"
 3787 0695 01       		.byte	0x1
 3788 0696 2D       		.byte	0x2d
 3789 0697 E4000000 		.4byte	0xe4
 3790 069b 00       		.byte	0
 3791 069c 16       		.uleb128 0x16
 3792 069d 7D040000 		.4byte	.LASF130
ARM GAS  C:\Users\chemi\AppData\Local\Temp\ccHerMgL.s 			page 85


 3793 06a1 01       		.byte	0x1
 3794 06a2 B402     		.2byte	0x2b4
 3795 06a4 B8000000 		.4byte	0xb8
 3796 06a8 01       		.byte	0x1
 3797 06a9 D0060000 		.4byte	0x6d0
 3798 06ad 17       		.uleb128 0x17
 3799 06ae 100B0000 		.4byte	.LASF131
 3800 06b2 01       		.byte	0x1
 3801 06b3 B402     		.2byte	0x2b4
 3802 06b5 DE030000 		.4byte	0x3de
 3803 06b9 17       		.uleb128 0x17
 3804 06ba BA010000 		.4byte	.LASF132
 3805 06be 01       		.byte	0x1
 3806 06bf B402     		.2byte	0x2b4
 3807 06c1 29010000 		.4byte	0x129
 3808 06c5 18       		.uleb128 0x18
 3809 06c6 6300     		.ascii	"c\000"
 3810 06c8 01       		.byte	0x1
 3811 06c9 B502     		.2byte	0x2b5
 3812 06cb B8000000 		.4byte	0xb8
 3813 06cf 00       		.byte	0
 3814 06d0 19       		.uleb128 0x19
 3815 06d1 82060000 		.4byte	0x682
 3816 06d5 00000000 		.4byte	.LFB68
 3817 06d9 68000000 		.4byte	.LFE68-.LFB68
 3818 06dd 01       		.uleb128 0x1
 3819 06de 9C       		.byte	0x9c
 3820 06df FC060000 		.4byte	0x6fc
 3821 06e3 1A       		.uleb128 0x1a
 3822 06e4 92060000 		.4byte	0x692
 3823 06e8 00000000 		.4byte	.LLST0
 3824 06ec 1B       		.uleb128 0x1b
 3825 06ed 00000000 		.4byte	.Ldebug_ranges0+0
 3826 06f1 1A       		.uleb128 0x1a
 3827 06f2 92060000 		.4byte	0x692
 3828 06f6 9E000000 		.4byte	.LLST1
 3829 06fa 00       		.byte	0
 3830 06fb 00       		.byte	0
 3831 06fc 1C       		.uleb128 0x1c
 3832 06fd 23090000 		.4byte	.LASF146
 3833 0701 01       		.byte	0x1
 3834 0702 4A       		.byte	0x4a
 3835 0703 B8000000 		.4byte	0xb8
 3836 0707 00000000 		.4byte	.LFB69
 3837 070b 70010000 		.4byte	.LFE69-.LFB69
 3838 070f 01       		.uleb128 0x1
 3839 0710 9C       		.byte	0x9c
 3840 0711 55080000 		.4byte	0x855
 3841 0715 1D       		.uleb128 0x1d
 3842 0716 B6080000 		.4byte	.LASF133
 3843 071a 01       		.byte	0x1
 3844 071b 4A       		.byte	0x4a
 3845 071c 76060000 		.4byte	0x676
 3846 0720 D8000000 		.4byte	.LLST2
 3847 0724 1D       		.uleb128 0x1d
 3848 0725 30080000 		.4byte	.LASF134
 3849 0729 01       		.byte	0x1
ARM GAS  C:\Users\chemi\AppData\Local\Temp\ccHerMgL.s 			page 86


 3850 072a 4A       		.byte	0x4a
 3851 072b 0D010000 		.4byte	0x10d
 3852 072f 76010000 		.4byte	.LLST3
 3853 0733 1D       		.uleb128 0x1d
 3854 0734 92090000 		.4byte	.LASF135
 3855 0738 01       		.byte	0x1
 3856 0739 4A       		.byte	0x4a
 3857 073a B8000000 		.4byte	0xb8
 3858 073e 2F020000 		.4byte	.LLST4
 3859 0742 1D       		.uleb128 0x1d
 3860 0743 100B0000 		.4byte	.LASF131
 3861 0747 01       		.byte	0x1
 3862 0748 4A       		.byte	0x4a
 3863 0749 DE030000 		.4byte	0x3de
 3864 074d CD020000 		.4byte	.LLST5
 3865 0751 1E       		.uleb128 0x1e
 3866 0752 12040000 		.4byte	.LASF125
 3867 0756 01       		.byte	0x1
 3868 0757 4B       		.byte	0x4b
 3869 0758 D9000000 		.4byte	0xd9
 3870 075c F9020000 		.4byte	.LLST6
 3871 0760 1E       		.uleb128 0x1e
 3872 0761 50090000 		.4byte	.LASF136
 3873 0765 01       		.byte	0x1
 3874 0766 4C       		.byte	0x4c
 3875 0767 EF000000 		.4byte	0xef
 3876 076b 2D030000 		.4byte	.LLST7
 3877 076f 1F       		.uleb128 0x1f
 3878 0770 BB040000 		.4byte	.LASF137
 3879 0774 01       		.byte	0x1
 3880 0775 4D       		.byte	0x4d
 3881 0776 0D010000 		.4byte	0x10d
 3882 077a 02       		.uleb128 0x2
 3883 077b 91       		.byte	0x91
 3884 077c 64       		.sleb128 -28
 3885 077d 20       		.uleb128 0x20
 3886 077e 93070000 		.4byte	.LASF206
 3887 0782 01       		.byte	0x1
 3888 0783 97       		.byte	0x97
 3889 0784 2C010000 		.4byte	.LDL1
 3890 0788 21       		.uleb128 0x21
 3891 0789 14010000 		.4byte	.LBB8
 3892 078d 18000000 		.4byte	.LBE8-.LBB8
 3893 0791 A3070000 		.4byte	0x7a3
 3894 0795 22       		.uleb128 0x22
 3895 0796 6900     		.ascii	"i\000"
 3896 0798 01       		.byte	0x1
 3897 0799 8E       		.byte	0x8e
 3898 079a 25000000 		.4byte	0x25
 3899 079e 77030000 		.4byte	.LLST8
 3900 07a2 00       		.byte	0
 3901 07a3 23       		.uleb128 0x23
 3902 07a4 32000000 		.4byte	.LVL17
 3903 07a8 7D180000 		.4byte	0x187d
 3904 07ac BD070000 		.4byte	0x7bd
 3905 07b0 24       		.uleb128 0x24
 3906 07b1 01       		.uleb128 0x1
ARM GAS  C:\Users\chemi\AppData\Local\Temp\ccHerMgL.s 			page 87


 3907 07b2 50       		.byte	0x50
 3908 07b3 02       		.uleb128 0x2
 3909 07b4 76       		.byte	0x76
 3910 07b5 00       		.sleb128 0
 3911 07b6 24       		.uleb128 0x24
 3912 07b7 01       		.uleb128 0x1
 3913 07b8 51       		.byte	0x51
 3914 07b9 02       		.uleb128 0x2
 3915 07ba 91       		.byte	0x91
 3916 07bb 64       		.sleb128 -28
 3917 07bc 00       		.byte	0
 3918 07bd 23       		.uleb128 0x23
 3919 07be 50000000 		.4byte	.LVL27
 3920 07c2 88180000 		.4byte	0x1888
 3921 07c6 DC070000 		.4byte	0x7dc
 3922 07ca 24       		.uleb128 0x24
 3923 07cb 01       		.uleb128 0x1
 3924 07cc 50       		.byte	0x50
 3925 07cd 02       		.uleb128 0x2
 3926 07ce 76       		.byte	0x76
 3927 07cf 00       		.sleb128 0
 3928 07d0 24       		.uleb128 0x24
 3929 07d1 01       		.uleb128 0x1
 3930 07d2 51       		.byte	0x51
 3931 07d3 02       		.uleb128 0x2
 3932 07d4 91       		.byte	0x91
 3933 07d5 64       		.sleb128 -28
 3934 07d6 24       		.uleb128 0x24
 3935 07d7 01       		.uleb128 0x1
 3936 07d8 52       		.byte	0x52
 3937 07d9 01       		.uleb128 0x1
 3938 07da 3A       		.byte	0x3a
 3939 07db 00       		.byte	0
 3940 07dc 23       		.uleb128 0x23
 3941 07dd 88000000 		.4byte	.LVL31
 3942 07e1 7D180000 		.4byte	0x187d
 3943 07e5 F6070000 		.4byte	0x7f6
 3944 07e9 24       		.uleb128 0x24
 3945 07ea 01       		.uleb128 0x1
 3946 07eb 50       		.byte	0x50
 3947 07ec 02       		.uleb128 0x2
 3948 07ed 76       		.byte	0x76
 3949 07ee 00       		.sleb128 0
 3950 07ef 24       		.uleb128 0x24
 3951 07f0 01       		.uleb128 0x1
 3952 07f1 51       		.byte	0x51
 3953 07f2 02       		.uleb128 0x2
 3954 07f3 91       		.byte	0x91
 3955 07f4 64       		.sleb128 -28
 3956 07f5 00       		.byte	0
 3957 07f6 23       		.uleb128 0x23
 3958 07f7 A6000000 		.4byte	.LVL41
 3959 07fb 93180000 		.4byte	0x1893
 3960 07ff 15080000 		.4byte	0x815
 3961 0803 24       		.uleb128 0x24
 3962 0804 01       		.uleb128 0x1
 3963 0805 50       		.byte	0x50
ARM GAS  C:\Users\chemi\AppData\Local\Temp\ccHerMgL.s 			page 88


 3964 0806 02       		.uleb128 0x2
 3965 0807 76       		.byte	0x76
 3966 0808 00       		.sleb128 0
 3967 0809 24       		.uleb128 0x24
 3968 080a 01       		.uleb128 0x1
 3969 080b 51       		.byte	0x51
 3970 080c 02       		.uleb128 0x2
 3971 080d 91       		.byte	0x91
 3972 080e 64       		.sleb128 -28
 3973 080f 24       		.uleb128 0x24
 3974 0810 01       		.uleb128 0x1
 3975 0811 52       		.byte	0x52
 3976 0812 01       		.uleb128 0x1
 3977 0813 3A       		.byte	0x3a
 3978 0814 00       		.byte	0
 3979 0815 23       		.uleb128 0x23
 3980 0816 E2000000 		.4byte	.LVL45
 3981 081a 7D180000 		.4byte	0x187d
 3982 081e 2F080000 		.4byte	0x82f
 3983 0822 24       		.uleb128 0x24
 3984 0823 01       		.uleb128 0x1
 3985 0824 50       		.byte	0x50
 3986 0825 02       		.uleb128 0x2
 3987 0826 76       		.byte	0x76
 3988 0827 00       		.sleb128 0
 3989 0828 24       		.uleb128 0x24
 3990 0829 01       		.uleb128 0x1
 3991 082a 51       		.byte	0x51
 3992 082b 02       		.uleb128 0x2
 3993 082c 91       		.byte	0x91
 3994 082d 64       		.sleb128 -28
 3995 082e 00       		.byte	0
 3996 082f 25       		.uleb128 0x25
 3997 0830 50010000 		.4byte	.LVL58
 3998 0834 02       		.uleb128 0x2
 3999 0835 76       		.byte	0x76
 4000 0836 00       		.sleb128 0
 4001 0837 45080000 		.4byte	0x845
 4002 083b 24       		.uleb128 0x24
 4003 083c 01       		.uleb128 0x1
 4004 083d 51       		.byte	0x51
 4005 083e 05       		.uleb128 0x5
 4006 083f 03       		.byte	0x3
 4007 0840 00000000 		.4byte	.LC0
 4008 0844 00       		.byte	0
 4009 0845 26       		.uleb128 0x26
 4010 0846 5C010000 		.4byte	.LVL59
 4011 084a 24       		.uleb128 0x24
 4012 084b 01       		.uleb128 0x1
 4013 084c 51       		.byte	0x51
 4014 084d 05       		.uleb128 0x5
 4015 084e 03       		.byte	0x3
 4016 084f 16000000 		.4byte	.LC1
 4017 0853 00       		.byte	0
 4018 0854 00       		.byte	0
 4019 0855 27       		.uleb128 0x27
 4020 0856 AC0A0000 		.4byte	.LASF143
ARM GAS  C:\Users\chemi\AppData\Local\Temp\ccHerMgL.s 			page 89


 4021 085a 01       		.byte	0x1
 4022 085b A7       		.byte	0xa7
 4023 085c 00000000 		.4byte	.LFB70
 4024 0860 D4010000 		.4byte	.LFE70-.LFB70
 4025 0864 01       		.uleb128 0x1
 4026 0865 9C       		.byte	0x9c
 4027 0866 A80A0000 		.4byte	0xaa8
 4028 086a 1D       		.uleb128 0x1d
 4029 086b B6080000 		.4byte	.LASF133
 4030 086f 01       		.byte	0x1
 4031 0870 A7       		.byte	0xa7
 4032 0871 76060000 		.4byte	0x676
 4033 0875 8A030000 		.4byte	.LLST9
 4034 0879 1D       		.uleb128 0x1d
 4035 087a 18090000 		.4byte	.LASF138
 4036 087e 01       		.byte	0x1
 4037 087f A7       		.byte	0xa7
 4038 0880 B8000000 		.4byte	0xb8
 4039 0884 B6030000 		.4byte	.LLST10
 4040 0888 1D       		.uleb128 0x1d
 4041 0889 100B0000 		.4byte	.LASF131
 4042 088d 01       		.byte	0x1
 4043 088e A7       		.byte	0xa7
 4044 088f DE030000 		.4byte	0x3de
 4045 0893 D7030000 		.4byte	.LLST11
 4046 0897 1D       		.uleb128 0x1d
 4047 0898 A2050000 		.4byte	.LASF139
 4048 089c 01       		.byte	0x1
 4049 089d A7       		.byte	0xa7
 4050 089e B8000000 		.4byte	0xb8
 4051 08a2 03040000 		.4byte	.LLST12
 4052 08a6 1E       		.uleb128 0x1e
 4053 08a7 4A060000 		.4byte	.LASF140
 4054 08ab 01       		.byte	0x1
 4055 08ac AB       		.byte	0xab
 4056 08ad B8000000 		.4byte	0xb8
 4057 08b1 24040000 		.4byte	.LLST13
 4058 08b5 1E       		.uleb128 0x1e
 4059 08b6 5A010000 		.4byte	.LASF141
 4060 08ba 01       		.byte	0x1
 4061 08bb AC       		.byte	0xac
 4062 08bc E4000000 		.4byte	0xe4
 4063 08c0 38040000 		.4byte	.LLST14
 4064 08c4 1E       		.uleb128 0x1e
 4065 08c5 D6020000 		.4byte	.LASF142
 4066 08c9 01       		.byte	0x1
 4067 08ca AD       		.byte	0xad
 4068 08cb D9000000 		.4byte	0xd9
 4069 08cf 57040000 		.4byte	.LLST15
 4070 08d3 21       		.uleb128 0x21
 4071 08d4 0C010000 		.4byte	.LBB9
 4072 08d8 26000000 		.4byte	.LBE9-.LBB9
 4073 08dc F9080000 		.4byte	0x8f9
 4074 08e0 22       		.uleb128 0x22
 4075 08e1 6D6F6400 		.ascii	"mod\000"
 4076 08e5 01       		.byte	0x1
 4077 08e6 E0       		.byte	0xe0
ARM GAS  C:\Users\chemi\AppData\Local\Temp\ccHerMgL.s 			page 90


 4078 08e7 E4000000 		.4byte	0xe4
 4079 08eb 76040000 		.4byte	.LLST16
 4080 08ef 28       		.uleb128 0x28
 4081 08f0 28010000 		.4byte	.LVL85
 4082 08f4 82060000 		.4byte	0x682
 4083 08f8 00       		.byte	0
 4084 08f9 23       		.uleb128 0x23
 4085 08fa 16000000 		.4byte	.LVL65
 4086 08fe 9E180000 		.4byte	0x189e
 4087 0902 17090000 		.4byte	0x917
 4088 0906 24       		.uleb128 0x24
 4089 0907 01       		.uleb128 0x1
 4090 0908 50       		.byte	0x50
 4091 0909 02       		.uleb128 0x2
 4092 090a 74       		.byte	0x74
 4093 090b 00       		.sleb128 0
 4094 090c 24       		.uleb128 0x24
 4095 090d 01       		.uleb128 0x1
 4096 090e 51       		.byte	0x51
 4097 090f 01       		.uleb128 0x1
 4098 0910 4A       		.byte	0x4a
 4099 0911 24       		.uleb128 0x24
 4100 0912 01       		.uleb128 0x1
 4101 0913 52       		.byte	0x52
 4102 0914 01       		.uleb128 0x1
 4103 0915 39       		.byte	0x39
 4104 0916 00       		.byte	0
 4105 0917 29       		.uleb128 0x29
 4106 0918 1E000000 		.4byte	.LVL66
 4107 091c 2A090000 		.4byte	0x92a
 4108 0920 24       		.uleb128 0x24
 4109 0921 01       		.uleb128 0x1
 4110 0922 51       		.byte	0x51
 4111 0923 05       		.uleb128 0x5
 4112 0924 03       		.byte	0x3
 4113 0925 26000000 		.4byte	.LC2
 4114 0929 00       		.byte	0
 4115 092a 23       		.uleb128 0x23
 4116 092b 28000000 		.4byte	.LVL67
 4117 092f 9E180000 		.4byte	0x189e
 4118 0933 49090000 		.4byte	0x949
 4119 0937 24       		.uleb128 0x24
 4120 0938 01       		.uleb128 0x1
 4121 0939 50       		.byte	0x50
 4122 093a 02       		.uleb128 0x2
 4123 093b 74       		.byte	0x74
 4124 093c 00       		.sleb128 0
 4125 093d 24       		.uleb128 0x24
 4126 093e 01       		.uleb128 0x1
 4127 093f 51       		.byte	0x51
 4128 0940 01       		.uleb128 0x1
 4129 0941 4A       		.byte	0x4a
 4130 0942 24       		.uleb128 0x24
 4131 0943 01       		.uleb128 0x1
 4132 0944 52       		.byte	0x52
 4133 0945 02       		.uleb128 0x2
 4134 0946 08       		.byte	0x8
ARM GAS  C:\Users\chemi\AppData\Local\Temp\ccHerMgL.s 			page 91


 4135 0947 21       		.byte	0x21
 4136 0948 00       		.byte	0
 4137 0949 29       		.uleb128 0x29
 4138 094a 30000000 		.4byte	.LVL68
 4139 094e 5C090000 		.4byte	0x95c
 4140 0952 24       		.uleb128 0x24
 4141 0953 01       		.uleb128 0x1
 4142 0954 51       		.byte	0x51
 4143 0955 05       		.uleb128 0x5
 4144 0956 03       		.byte	0x3
 4145 0957 30000000 		.4byte	.LC3
 4146 095b 00       		.byte	0
 4147 095c 23       		.uleb128 0x23
 4148 095d 3E000000 		.4byte	.LVL69
 4149 0961 9E180000 		.4byte	0x189e
 4150 0965 7B090000 		.4byte	0x97b
 4151 0969 24       		.uleb128 0x24
 4152 096a 01       		.uleb128 0x1
 4153 096b 50       		.byte	0x50
 4154 096c 02       		.uleb128 0x2
 4155 096d 74       		.byte	0x74
 4156 096e 00       		.sleb128 0
 4157 096f 24       		.uleb128 0x24
 4158 0970 01       		.uleb128 0x1
 4159 0971 51       		.byte	0x51
 4160 0972 01       		.uleb128 0x1
 4161 0973 4A       		.byte	0x4a
 4162 0974 24       		.uleb128 0x24
 4163 0975 01       		.uleb128 0x1
 4164 0976 52       		.byte	0x52
 4165 0977 02       		.uleb128 0x2
 4166 0978 08       		.byte	0x8
 4167 0979 40       		.byte	0x40
 4168 097a 00       		.byte	0
 4169 097b 29       		.uleb128 0x29
 4170 097c 4C000000 		.4byte	.LVL70
 4171 0980 8E090000 		.4byte	0x98e
 4172 0984 24       		.uleb128 0x24
 4173 0985 01       		.uleb128 0x1
 4174 0986 51       		.byte	0x51
 4175 0987 05       		.uleb128 0x5
 4176 0988 03       		.byte	0x3
 4177 0989 38000000 		.4byte	.LC4
 4178 098d 00       		.byte	0
 4179 098e 23       		.uleb128 0x23
 4180 098f 6E000000 		.4byte	.LVL72
 4181 0993 9E180000 		.4byte	0x189e
 4182 0997 AC090000 		.4byte	0x9ac
 4183 099b 24       		.uleb128 0x24
 4184 099c 01       		.uleb128 0x1
 4185 099d 50       		.byte	0x50
 4186 099e 02       		.uleb128 0x2
 4187 099f 74       		.byte	0x74
 4188 09a0 00       		.sleb128 0
 4189 09a1 24       		.uleb128 0x24
 4190 09a2 01       		.uleb128 0x1
 4191 09a3 51       		.byte	0x51
ARM GAS  C:\Users\chemi\AppData\Local\Temp\ccHerMgL.s 			page 92


 4192 09a4 01       		.uleb128 0x1
 4193 09a5 4A       		.byte	0x4a
 4194 09a6 24       		.uleb128 0x24
 4195 09a7 01       		.uleb128 0x1
 4196 09a8 52       		.byte	0x52
 4197 09a9 01       		.uleb128 0x1
 4198 09aa 39       		.byte	0x39
 4199 09ab 00       		.byte	0
 4200 09ac 29       		.uleb128 0x29
 4201 09ad 78000000 		.4byte	.LVL73
 4202 09b1 BF090000 		.4byte	0x9bf
 4203 09b5 24       		.uleb128 0x24
 4204 09b6 01       		.uleb128 0x1
 4205 09b7 51       		.byte	0x51
 4206 09b8 05       		.uleb128 0x5
 4207 09b9 03       		.byte	0x3
 4208 09ba 41000000 		.4byte	.LC5
 4209 09be 00       		.byte	0
 4210 09bf 23       		.uleb128 0x23
 4211 09c0 B8000000 		.4byte	.LVL77
 4212 09c4 9E180000 		.4byte	0x189e
 4213 09c8 DE090000 		.4byte	0x9de
 4214 09cc 24       		.uleb128 0x24
 4215 09cd 01       		.uleb128 0x1
 4216 09ce 50       		.byte	0x50
 4217 09cf 02       		.uleb128 0x2
 4218 09d0 74       		.byte	0x74
 4219 09d1 00       		.sleb128 0
 4220 09d2 24       		.uleb128 0x24
 4221 09d3 01       		.uleb128 0x1
 4222 09d4 51       		.byte	0x51
 4223 09d5 01       		.uleb128 0x1
 4224 09d6 4A       		.byte	0x4a
 4225 09d7 24       		.uleb128 0x24
 4226 09d8 01       		.uleb128 0x1
 4227 09d9 52       		.byte	0x52
 4228 09da 02       		.uleb128 0x2
 4229 09db 08       		.byte	0x8
 4230 09dc 21       		.byte	0x21
 4231 09dd 00       		.byte	0
 4232 09de 28       		.uleb128 0x28
 4233 09df C8000000 		.4byte	.LVL78
 4234 09e3 82060000 		.4byte	0x682
 4235 09e7 23       		.uleb128 0x23
 4236 09e8 06010000 		.4byte	.LVL82
 4237 09ec 9E180000 		.4byte	0x189e
 4238 09f0 060A0000 		.4byte	0xa06
 4239 09f4 24       		.uleb128 0x24
 4240 09f5 01       		.uleb128 0x1
 4241 09f6 50       		.byte	0x50
 4242 09f7 02       		.uleb128 0x2
 4243 09f8 74       		.byte	0x74
 4244 09f9 00       		.sleb128 0
 4245 09fa 24       		.uleb128 0x24
 4246 09fb 01       		.uleb128 0x1
 4247 09fc 51       		.byte	0x51
 4248 09fd 01       		.uleb128 0x1
ARM GAS  C:\Users\chemi\AppData\Local\Temp\ccHerMgL.s 			page 93


 4249 09fe 4A       		.byte	0x4a
 4250 09ff 24       		.uleb128 0x24
 4251 0a00 01       		.uleb128 0x1
 4252 0a01 52       		.byte	0x52
 4253 0a02 02       		.uleb128 0x2
 4254 0a03 08       		.byte	0x8
 4255 0a04 21       		.byte	0x21
 4256 0a05 00       		.byte	0
 4257 0a06 23       		.uleb128 0x23
 4258 0a07 48010000 		.4byte	.LVL88
 4259 0a0b 9E180000 		.4byte	0x189e
 4260 0a0f 250A0000 		.4byte	0xa25
 4261 0a13 24       		.uleb128 0x24
 4262 0a14 01       		.uleb128 0x1
 4263 0a15 50       		.byte	0x50
 4264 0a16 02       		.uleb128 0x2
 4265 0a17 74       		.byte	0x74
 4266 0a18 00       		.sleb128 0
 4267 0a19 24       		.uleb128 0x24
 4268 0a1a 01       		.uleb128 0x1
 4269 0a1b 51       		.byte	0x51
 4270 0a1c 01       		.uleb128 0x1
 4271 0a1d 4A       		.byte	0x4a
 4272 0a1e 24       		.uleb128 0x24
 4273 0a1f 01       		.uleb128 0x1
 4274 0a20 52       		.byte	0x52
 4275 0a21 02       		.uleb128 0x2
 4276 0a22 08       		.byte	0x8
 4277 0a23 21       		.byte	0x21
 4278 0a24 00       		.byte	0
 4279 0a25 25       		.uleb128 0x25
 4280 0a26 5C010000 		.4byte	.LVL90
 4281 0a2a 02       		.uleb128 0x2
 4282 0a2b 77       		.byte	0x77
 4283 0a2c 00       		.sleb128 0
 4284 0a2d 3B0A0000 		.4byte	0xa3b
 4285 0a31 24       		.uleb128 0x24
 4286 0a32 01       		.uleb128 0x1
 4287 0a33 51       		.byte	0x51
 4288 0a34 05       		.uleb128 0x5
 4289 0a35 03       		.byte	0x3
 4290 0a36 8F000000 		.4byte	.LC10
 4291 0a3a 00       		.byte	0
 4292 0a3b 23       		.uleb128 0x23
 4293 0a3c 68010000 		.4byte	.LVL91
 4294 0a40 9E180000 		.4byte	0x189e
 4295 0a44 5A0A0000 		.4byte	0xa5a
 4296 0a48 24       		.uleb128 0x24
 4297 0a49 01       		.uleb128 0x1
 4298 0a4a 50       		.byte	0x50
 4299 0a4b 02       		.uleb128 0x2
 4300 0a4c 74       		.byte	0x74
 4301 0a4d 00       		.sleb128 0
 4302 0a4e 24       		.uleb128 0x24
 4303 0a4f 01       		.uleb128 0x1
 4304 0a50 51       		.byte	0x51
 4305 0a51 01       		.uleb128 0x1
ARM GAS  C:\Users\chemi\AppData\Local\Temp\ccHerMgL.s 			page 94


 4306 0a52 4A       		.byte	0x4a
 4307 0a53 24       		.uleb128 0x24
 4308 0a54 01       		.uleb128 0x1
 4309 0a55 52       		.byte	0x52
 4310 0a56 02       		.uleb128 0x2
 4311 0a57 08       		.byte	0x8
 4312 0a58 21       		.byte	0x21
 4313 0a59 00       		.byte	0
 4314 0a5a 23       		.uleb128 0x23
 4315 0a5b 7C010000 		.4byte	.LVL92
 4316 0a5f 9E180000 		.4byte	0x189e
 4317 0a63 790A0000 		.4byte	0xa79
 4318 0a67 24       		.uleb128 0x24
 4319 0a68 01       		.uleb128 0x1
 4320 0a69 50       		.byte	0x50
 4321 0a6a 02       		.uleb128 0x2
 4322 0a6b 74       		.byte	0x74
 4323 0a6c 00       		.sleb128 0
 4324 0a6d 24       		.uleb128 0x24
 4325 0a6e 01       		.uleb128 0x1
 4326 0a6f 51       		.byte	0x51
 4327 0a70 01       		.uleb128 0x1
 4328 0a71 4A       		.byte	0x4a
 4329 0a72 24       		.uleb128 0x24
 4330 0a73 01       		.uleb128 0x1
 4331 0a74 52       		.byte	0x52
 4332 0a75 02       		.uleb128 0x2
 4333 0a76 08       		.byte	0x8
 4334 0a77 21       		.byte	0x21
 4335 0a78 00       		.byte	0
 4336 0a79 23       		.uleb128 0x23
 4337 0a7a 90010000 		.4byte	.LVL94
 4338 0a7e 9E180000 		.4byte	0x189e
 4339 0a82 980A0000 		.4byte	0xa98
 4340 0a86 24       		.uleb128 0x24
 4341 0a87 01       		.uleb128 0x1
 4342 0a88 50       		.byte	0x50
 4343 0a89 02       		.uleb128 0x2
 4344 0a8a 74       		.byte	0x74
 4345 0a8b 00       		.sleb128 0
 4346 0a8c 24       		.uleb128 0x24
 4347 0a8d 01       		.uleb128 0x1
 4348 0a8e 51       		.byte	0x51
 4349 0a8f 01       		.uleb128 0x1
 4350 0a90 4A       		.byte	0x4a
 4351 0a91 24       		.uleb128 0x24
 4352 0a92 01       		.uleb128 0x1
 4353 0a93 52       		.byte	0x52
 4354 0a94 02       		.uleb128 0x2
 4355 0a95 08       		.byte	0x8
 4356 0a96 40       		.byte	0x40
 4357 0a97 00       		.byte	0
 4358 0a98 26       		.uleb128 0x26
 4359 0a99 9A010000 		.4byte	.LVL95
 4360 0a9d 24       		.uleb128 0x24
 4361 0a9e 01       		.uleb128 0x1
 4362 0a9f 51       		.byte	0x51
ARM GAS  C:\Users\chemi\AppData\Local\Temp\ccHerMgL.s 			page 95


 4363 0aa0 05       		.uleb128 0x5
 4364 0aa1 03       		.byte	0x3
 4365 0aa2 BC000000 		.4byte	.LC13
 4366 0aa6 00       		.byte	0
 4367 0aa7 00       		.byte	0
 4368 0aa8 2A       		.uleb128 0x2a
 4369 0aa9 820A0000 		.4byte	.LASF144
 4370 0aad 01       		.byte	0x1
 4371 0aae 0A01     		.2byte	0x10a
 4372 0ab0 00000000 		.4byte	.LFB71
 4373 0ab4 3C000000 		.4byte	.LFE71-.LFB71
 4374 0ab8 01       		.uleb128 0x1
 4375 0ab9 9C       		.byte	0x9c
 4376 0aba 570B0000 		.4byte	0xb57
 4377 0abe 2B       		.uleb128 0x2b
 4378 0abf B6080000 		.4byte	.LASF133
 4379 0ac3 01       		.byte	0x1
 4380 0ac4 0A01     		.2byte	0x10a
 4381 0ac6 76060000 		.4byte	0x676
 4382 0aca 89040000 		.4byte	.LLST17
 4383 0ace 2B       		.uleb128 0x2b
 4384 0acf 18090000 		.4byte	.LASF138
 4385 0ad3 01       		.byte	0x1
 4386 0ad4 0A01     		.2byte	0x10a
 4387 0ad6 B8000000 		.4byte	0xb8
 4388 0ada C0040000 		.4byte	.LLST18
 4389 0ade 2B       		.uleb128 0x2b
 4390 0adf 100B0000 		.4byte	.LASF131
 4391 0ae3 01       		.byte	0x1
 4392 0ae4 0A01     		.2byte	0x10a
 4393 0ae6 DE030000 		.4byte	0x3de
 4394 0aea E1040000 		.4byte	.LLST19
 4395 0aee 29       		.uleb128 0x29
 4396 0aef 10000000 		.4byte	.LVL100
 4397 0af3 010B0000 		.4byte	0xb01
 4398 0af7 24       		.uleb128 0x24
 4399 0af8 01       		.uleb128 0x1
 4400 0af9 51       		.byte	0x51
 4401 0afa 05       		.uleb128 0x5
 4402 0afb 03       		.byte	0x3
 4403 0afc C8000000 		.4byte	.LC14
 4404 0b00 00       		.byte	0
 4405 0b01 23       		.uleb128 0x23
 4406 0b02 1C000000 		.4byte	.LVL101
 4407 0b06 55080000 		.4byte	0x855
 4408 0b0a 260B0000 		.4byte	0xb26
 4409 0b0e 24       		.uleb128 0x24
 4410 0b0f 01       		.uleb128 0x1
 4411 0b10 50       		.byte	0x50
 4412 0b11 02       		.uleb128 0x2
 4413 0b12 75       		.byte	0x75
 4414 0b13 00       		.sleb128 0
 4415 0b14 24       		.uleb128 0x24
 4416 0b15 01       		.uleb128 0x1
 4417 0b16 51       		.byte	0x51
 4418 0b17 02       		.uleb128 0x2
 4419 0b18 76       		.byte	0x76
ARM GAS  C:\Users\chemi\AppData\Local\Temp\ccHerMgL.s 			page 96


 4420 0b19 00       		.sleb128 0
 4421 0b1a 24       		.uleb128 0x24
 4422 0b1b 01       		.uleb128 0x1
 4423 0b1c 52       		.byte	0x52
 4424 0b1d 02       		.uleb128 0x2
 4425 0b1e 74       		.byte	0x74
 4426 0b1f 00       		.sleb128 0
 4427 0b20 24       		.uleb128 0x24
 4428 0b21 01       		.uleb128 0x1
 4429 0b22 53       		.byte	0x53
 4430 0b23 01       		.uleb128 0x1
 4431 0b24 30       		.byte	0x30
 4432 0b25 00       		.byte	0
 4433 0b26 29       		.uleb128 0x29
 4434 0b27 24000000 		.4byte	.LVL102
 4435 0b2b 390B0000 		.4byte	0xb39
 4436 0b2f 24       		.uleb128 0x24
 4437 0b30 01       		.uleb128 0x1
 4438 0b31 51       		.byte	0x51
 4439 0b32 05       		.uleb128 0x5
 4440 0b33 03       		.byte	0x3
 4441 0b34 D6000000 		.4byte	.LC15
 4442 0b38 00       		.byte	0
 4443 0b39 2C       		.uleb128 0x2c
 4444 0b3a 34000000 		.4byte	.LVL104
 4445 0b3e 55080000 		.4byte	0x855
 4446 0b42 24       		.uleb128 0x24
 4447 0b43 01       		.uleb128 0x1
 4448 0b44 50       		.byte	0x50
 4449 0b45 03       		.uleb128 0x3
 4450 0b46 F3       		.byte	0xf3
 4451 0b47 01       		.uleb128 0x1
 4452 0b48 50       		.byte	0x50
 4453 0b49 24       		.uleb128 0x24
 4454 0b4a 01       		.uleb128 0x1
 4455 0b4b 52       		.byte	0x52
 4456 0b4c 03       		.uleb128 0x3
 4457 0b4d F3       		.byte	0xf3
 4458 0b4e 01       		.uleb128 0x1
 4459 0b4f 52       		.byte	0x52
 4460 0b50 24       		.uleb128 0x24
 4461 0b51 01       		.uleb128 0x1
 4462 0b52 53       		.byte	0x53
 4463 0b53 01       		.uleb128 0x1
 4464 0b54 31       		.byte	0x31
 4465 0b55 00       		.byte	0
 4466 0b56 00       		.byte	0
 4467 0b57 2D       		.uleb128 0x2d
 4468 0b58 92000000 		.4byte	.LASF207
 4469 0b5c 01       		.byte	0x1
 4470 0b5d 1101     		.2byte	0x111
 4471 0b5f 00000000 		.4byte	.LFB72
 4472 0b63 20010000 		.4byte	.LFE72-.LFB72
 4473 0b67 01       		.uleb128 0x1
 4474 0b68 9C       		.byte	0x9c
 4475 0b69 0D0C0000 		.4byte	0xc0d
 4476 0b6d 2B       		.uleb128 0x2b
ARM GAS  C:\Users\chemi\AppData\Local\Temp\ccHerMgL.s 			page 97


 4477 0b6e B6080000 		.4byte	.LASF133
 4478 0b72 01       		.byte	0x1
 4479 0b73 1101     		.2byte	0x111
 4480 0b75 76060000 		.4byte	0x676
 4481 0b79 18050000 		.4byte	.LLST20
 4482 0b7d 2B       		.uleb128 0x2b
 4483 0b7e 92090000 		.4byte	.LASF135
 4484 0b82 01       		.byte	0x1
 4485 0b83 1101     		.2byte	0x111
 4486 0b85 B8000000 		.4byte	0xb8
 4487 0b89 84050000 		.4byte	.LLST21
 4488 0b8d 2B       		.uleb128 0x2b
 4489 0b8e 100B0000 		.4byte	.LASF131
 4490 0b92 01       		.byte	0x1
 4491 0b93 1101     		.2byte	0x111
 4492 0b95 DE030000 		.4byte	0x3de
 4493 0b99 22060000 		.4byte	.LLST22
 4494 0b9d 2E       		.uleb128 0x2e
 4495 0b9e 5A010000 		.4byte	.LASF141
 4496 0ba2 01       		.byte	0x1
 4497 0ba3 1201     		.2byte	0x112
 4498 0ba5 E4000000 		.4byte	0xe4
 4499 0ba9 67060000 		.4byte	.LLST23
 4500 0bad 2E       		.uleb128 0x2e
 4501 0bae D6020000 		.4byte	.LASF142
 4502 0bb2 01       		.byte	0x1
 4503 0bb3 1301     		.2byte	0x113
 4504 0bb5 D9000000 		.4byte	0xd9
 4505 0bb9 F9060000 		.4byte	.LLST24
 4506 0bbd 2E       		.uleb128 0x2e
 4507 0bbe AD020000 		.4byte	.LASF145
 4508 0bc2 01       		.byte	0x1
 4509 0bc3 1401     		.2byte	0x114
 4510 0bc5 EF000000 		.4byte	0xef
 4511 0bc9 74070000 		.4byte	.LLST25
 4512 0bcd 21       		.uleb128 0x21
 4513 0bce 92000000 		.4byte	.LBB10
 4514 0bd2 2C000000 		.4byte	.LBE10-.LBB10
 4515 0bd6 F40B0000 		.4byte	0xbf4
 4516 0bda 2F       		.uleb128 0x2f
 4517 0bdb 6D6F6400 		.ascii	"mod\000"
 4518 0bdf 01       		.byte	0x1
 4519 0be0 3801     		.2byte	0x138
 4520 0be2 E4000000 		.4byte	0xe4
 4521 0be6 A9070000 		.4byte	.LLST26
 4522 0bea 28       		.uleb128 0x28
 4523 0beb AE000000 		.4byte	.LVL131
 4524 0bef 82060000 		.4byte	0x682
 4525 0bf3 00       		.byte	0
 4526 0bf4 28       		.uleb128 0x28
 4527 0bf5 4C000000 		.4byte	.LVL116
 4528 0bf9 82060000 		.4byte	0x682
 4529 0bfd 26       		.uleb128 0x26
 4530 0bfe DC000000 		.4byte	.LVL139
 4531 0c02 24       		.uleb128 0x24
 4532 0c03 01       		.uleb128 0x1
 4533 0c04 51       		.byte	0x51
ARM GAS  C:\Users\chemi\AppData\Local\Temp\ccHerMgL.s 			page 98


 4534 0c05 05       		.uleb128 0x5
 4535 0c06 03       		.byte	0x3
 4536 0c07 17010000 		.4byte	.LC20
 4537 0c0b 00       		.byte	0
 4538 0c0c 00       		.byte	0
 4539 0c0d 30       		.uleb128 0x30
 4540 0c0e 11030000 		.4byte	.LASF147
 4541 0c12 01       		.byte	0x1
 4542 0c13 5301     		.2byte	0x153
 4543 0c15 B8000000 		.4byte	0xb8
 4544 0c19 00000000 		.4byte	.LFB73
 4545 0c1d 6A000000 		.4byte	.LFE73-.LFB73
 4546 0c21 01       		.uleb128 0x1
 4547 0c22 9C       		.byte	0x9c
 4548 0c23 EA0C0000 		.4byte	0xcea
 4549 0c27 2B       		.uleb128 0x2b
 4550 0c28 B6080000 		.4byte	.LASF133
 4551 0c2c 01       		.byte	0x1
 4552 0c2d 5301     		.2byte	0x153
 4553 0c2f 76060000 		.4byte	0x676
 4554 0c33 BC070000 		.4byte	.LLST27
 4555 0c37 2B       		.uleb128 0x2b
 4556 0c38 18090000 		.4byte	.LASF138
 4557 0c3c 01       		.byte	0x1
 4558 0c3d 5301     		.2byte	0x153
 4559 0c3f B8000000 		.4byte	0xb8
 4560 0c43 DA070000 		.4byte	.LLST28
 4561 0c47 2B       		.uleb128 0x2b
 4562 0c48 61090000 		.4byte	.LASF148
 4563 0c4c 01       		.byte	0x1
 4564 0c4d 5301     		.2byte	0x153
 4565 0c4f 0D010000 		.4byte	0x10d
 4566 0c53 FB070000 		.4byte	.LLST29
 4567 0c57 2B       		.uleb128 0x2b
 4568 0c58 4A0A0000 		.4byte	.LASF123
 4569 0c5c 01       		.byte	0x1
 4570 0c5d 5301     		.2byte	0x153
 4571 0c5f B8000000 		.4byte	0xb8
 4572 0c63 19080000 		.4byte	.LLST30
 4573 0c67 2E       		.uleb128 0x2e
 4574 0c68 670A0000 		.4byte	.LASF149
 4575 0c6c 01       		.byte	0x1
 4576 0c6d 5401     		.2byte	0x154
 4577 0c6f AD000000 		.4byte	0xad
 4578 0c73 3A080000 		.4byte	.LLST31
 4579 0c77 2E       		.uleb128 0x2e
 4580 0c78 C30A0000 		.4byte	.LASF150
 4581 0c7c 01       		.byte	0x1
 4582 0c7d 5501     		.2byte	0x155
 4583 0c7f AD000000 		.4byte	0xad
 4584 0c83 5A080000 		.4byte	.LLST32
 4585 0c87 31       		.uleb128 0x31
 4586 0c88 14000000 		.4byte	.LBB11
 4587 0c8c 3A000000 		.4byte	.LBE11-.LBB11
 4588 0c90 2E       		.uleb128 0x2e
 4589 0c91 4A060000 		.4byte	.LASF140
 4590 0c95 01       		.byte	0x1
ARM GAS  C:\Users\chemi\AppData\Local\Temp\ccHerMgL.s 			page 99


 4591 0c96 5701     		.2byte	0x157
 4592 0c98 B8000000 		.4byte	0xb8
 4593 0c9c 6F080000 		.4byte	.LLST33
 4594 0ca0 1B       		.uleb128 0x1b
 4595 0ca1 18000000 		.4byte	.Ldebug_ranges0+0x18
 4596 0ca5 2E       		.uleb128 0x2e
 4597 0ca6 EF020000 		.4byte	.LASF151
 4598 0caa 01       		.byte	0x1
 4599 0cab 5801     		.2byte	0x158
 4600 0cad B8000000 		.4byte	0xb8
 4601 0cb1 A6080000 		.4byte	.LLST34
 4602 0cb5 23       		.uleb128 0x23
 4603 0cb6 2C000000 		.4byte	.LVL149
 4604 0cba A9180000 		.4byte	0x18a9
 4605 0cbe CA0C0000 		.4byte	0xcca
 4606 0cc2 24       		.uleb128 0x24
 4607 0cc3 01       		.uleb128 0x1
 4608 0cc4 50       		.byte	0x50
 4609 0cc5 03       		.uleb128 0x3
 4610 0cc6 91       		.byte	0x91
 4611 0cc7 50       		.sleb128 -48
 4612 0cc8 06       		.byte	0x6
 4613 0cc9 00       		.byte	0
 4614 0cca 32       		.uleb128 0x32
 4615 0ccb 3C000000 		.4byte	.LVL152
 4616 0ccf B4180000 		.4byte	0x18b4
 4617 0cd3 24       		.uleb128 0x24
 4618 0cd4 01       		.uleb128 0x1
 4619 0cd5 50       		.byte	0x50
 4620 0cd6 02       		.uleb128 0x2
 4621 0cd7 7B       		.byte	0x7b
 4622 0cd8 00       		.sleb128 0
 4623 0cd9 24       		.uleb128 0x24
 4624 0cda 01       		.uleb128 0x1
 4625 0cdb 51       		.byte	0x51
 4626 0cdc 03       		.uleb128 0x3
 4627 0cdd 91       		.byte	0x91
 4628 0cde 50       		.sleb128 -48
 4629 0cdf 06       		.byte	0x6
 4630 0ce0 24       		.uleb128 0x24
 4631 0ce1 01       		.uleb128 0x1
 4632 0ce2 52       		.byte	0x52
 4633 0ce3 02       		.uleb128 0x2
 4634 0ce4 79       		.byte	0x79
 4635 0ce5 00       		.sleb128 0
 4636 0ce6 00       		.byte	0
 4637 0ce7 00       		.byte	0
 4638 0ce8 00       		.byte	0
 4639 0ce9 00       		.byte	0
 4640 0cea 33       		.uleb128 0x33
 4641 0ceb D0080000 		.4byte	.LASF152
 4642 0cef 01       		.byte	0x1
 4643 0cf0 6901     		.2byte	0x169
 4644 0cf2 00000000 		.4byte	.LFB74
 4645 0cf6 9C010000 		.4byte	.LFE74-.LFB74
 4646 0cfa 01       		.uleb128 0x1
 4647 0cfb 9C       		.byte	0x9c
ARM GAS  C:\Users\chemi\AppData\Local\Temp\ccHerMgL.s 			page 100


 4648 0cfc BA0D0000 		.4byte	0xdba
 4649 0d00 2B       		.uleb128 0x2b
 4650 0d01 A0090000 		.4byte	.LASF153
 4651 0d05 01       		.byte	0x1
 4652 0d06 6901     		.2byte	0x169
 4653 0d08 0D010000 		.4byte	0x10d
 4654 0d0c CF080000 		.4byte	.LLST35
 4655 0d10 2B       		.uleb128 0x2b
 4656 0d11 B6080000 		.4byte	.LASF133
 4657 0d15 01       		.byte	0x1
 4658 0d16 6901     		.2byte	0x169
 4659 0d18 76060000 		.4byte	0x676
 4660 0d1c 3D090000 		.4byte	.LLST36
 4661 0d20 2B       		.uleb128 0x2b
 4662 0d21 92090000 		.4byte	.LASF135
 4663 0d25 01       		.byte	0x1
 4664 0d26 6901     		.2byte	0x169
 4665 0d28 B8000000 		.4byte	0xb8
 4666 0d2c 580A0000 		.4byte	.LLST37
 4667 0d30 2E       		.uleb128 0x2e
 4668 0d31 5A010000 		.4byte	.LASF141
 4669 0d35 01       		.byte	0x1
 4670 0d36 6A01     		.2byte	0x16a
 4671 0d38 E4000000 		.4byte	0xe4
 4672 0d3c 790A0000 		.4byte	.LLST38
 4673 0d40 2E       		.uleb128 0x2e
 4674 0d41 D6020000 		.4byte	.LASF142
 4675 0d45 01       		.byte	0x1
 4676 0d46 6B01     		.2byte	0x16b
 4677 0d48 D9000000 		.4byte	0xd9
 4678 0d4c 0B0B0000 		.4byte	.LLST39
 4679 0d50 2E       		.uleb128 0x2e
 4680 0d51 AD020000 		.4byte	.LASF145
 4681 0d55 01       		.byte	0x1
 4682 0d56 6C01     		.2byte	0x16c
 4683 0d58 EF000000 		.4byte	0xef
 4684 0d5c 910B0000 		.4byte	.LLST40
 4685 0d60 28       		.uleb128 0x28
 4686 0d61 56000000 		.4byte	.LVL167
 4687 0d65 82060000 		.4byte	0x682
 4688 0d69 28       		.uleb128 0x28
 4689 0d6a CE000000 		.4byte	.LVL179
 4690 0d6e 82060000 		.4byte	0x682
 4691 0d72 23       		.uleb128 0x23
 4692 0d73 04010000 		.4byte	.LVL181
 4693 0d77 BF180000 		.4byte	0x18bf
 4694 0d7b 860D0000 		.4byte	0xd86
 4695 0d7f 24       		.uleb128 0x24
 4696 0d80 01       		.uleb128 0x1
 4697 0d81 50       		.byte	0x50
 4698 0d82 02       		.uleb128 0x2
 4699 0d83 75       		.byte	0x75
 4700 0d84 00       		.sleb128 0
 4701 0d85 00       		.byte	0
 4702 0d86 23       		.uleb128 0x23
 4703 0d87 40010000 		.4byte	.LVL188
 4704 0d8b BF180000 		.4byte	0x18bf
ARM GAS  C:\Users\chemi\AppData\Local\Temp\ccHerMgL.s 			page 101


 4705 0d8f A90D0000 		.4byte	0xda9
 4706 0d93 24       		.uleb128 0x24
 4707 0d94 01       		.uleb128 0x1
 4708 0d95 50       		.byte	0x50
 4709 0d96 02       		.uleb128 0x2
 4710 0d97 75       		.byte	0x75
 4711 0d98 00       		.sleb128 0
 4712 0d99 24       		.uleb128 0x24
 4713 0d9a 01       		.uleb128 0x1
 4714 0d9b 51       		.byte	0x51
 4715 0d9c 05       		.uleb128 0x5
 4716 0d9d 03       		.byte	0x3
 4717 0d9e 90010000 		.4byte	.LC27
 4718 0da2 24       		.uleb128 0x24
 4719 0da3 02       		.uleb128 0x2
 4720 0da4 7D       		.byte	0x7d
 4721 0da5 08       		.sleb128 8
 4722 0da6 01       		.uleb128 0x1
 4723 0da7 32       		.byte	0x32
 4724 0da8 00       		.byte	0
 4725 0da9 32       		.uleb128 0x32
 4726 0daa 74010000 		.4byte	.LVL195
 4727 0dae BF180000 		.4byte	0x18bf
 4728 0db2 24       		.uleb128 0x24
 4729 0db3 01       		.uleb128 0x1
 4730 0db4 50       		.byte	0x50
 4731 0db5 02       		.uleb128 0x2
 4732 0db6 75       		.byte	0x75
 4733 0db7 00       		.sleb128 0
 4734 0db8 00       		.byte	0
 4735 0db9 00       		.byte	0
 4736 0dba 30       		.uleb128 0x30
 4737 0dbb 82000000 		.4byte	.LASF154
 4738 0dbf 01       		.byte	0x1
 4739 0dc0 D301     		.2byte	0x1d3
 4740 0dc2 B8000000 		.4byte	0xb8
 4741 0dc6 00000000 		.4byte	.LFB75
 4742 0dca 20000000 		.4byte	.LFE75-.LFB75
 4743 0dce 01       		.uleb128 0x1
 4744 0dcf 9C       		.byte	0x9c
 4745 0dd0 300E0000 		.4byte	0xe30
 4746 0dd4 34       		.uleb128 0x34
 4747 0dd5 726F7700 		.ascii	"row\000"
 4748 0dd9 01       		.byte	0x1
 4749 0dda D301     		.2byte	0x1d3
 4750 0ddc B8000000 		.4byte	0xb8
 4751 0de0 C60B0000 		.4byte	.LLST41
 4752 0de4 2B       		.uleb128 0x2b
 4753 0de5 A0090000 		.4byte	.LASF153
 4754 0de9 01       		.byte	0x1
 4755 0dea D301     		.2byte	0x1d3
 4756 0dec 34010000 		.4byte	0x134
 4757 0df0 E70B0000 		.4byte	.LLST42
 4758 0df4 2E       		.uleb128 0x2e
 4759 0df5 0B010000 		.4byte	.LASF155
 4760 0df9 01       		.byte	0x1
 4761 0dfa D401     		.2byte	0x1d4
ARM GAS  C:\Users\chemi\AppData\Local\Temp\ccHerMgL.s 			page 102


 4762 0dfc CE000000 		.4byte	0xce
 4763 0e00 050C0000 		.4byte	.LLST43
 4764 0e04 31       		.uleb128 0x31
 4765 0e05 08000000 		.4byte	.LBB14
 4766 0e09 14000000 		.4byte	.LBE14-.LBB14
 4767 0e0d 2F       		.uleb128 0x2f
 4768 0e0e 6900     		.ascii	"i\000"
 4769 0e10 01       		.byte	0x1
 4770 0e11 D601     		.2byte	0x1d6
 4771 0e13 B8000000 		.4byte	0xb8
 4772 0e17 1C0C0000 		.4byte	.LLST44
 4773 0e1b 32       		.uleb128 0x32
 4774 0e1c 14000000 		.4byte	.LVL199
 4775 0e20 CA180000 		.4byte	0x18ca
 4776 0e24 24       		.uleb128 0x24
 4777 0e25 01       		.uleb128 0x1
 4778 0e26 50       		.byte	0x50
 4779 0e27 05       		.uleb128 0x5
 4780 0e28 74       		.byte	0x74
 4781 0e29 00       		.sleb128 0
 4782 0e2a 76       		.byte	0x76
 4783 0e2b 00       		.sleb128 0
 4784 0e2c 22       		.byte	0x22
 4785 0e2d 00       		.byte	0
 4786 0e2e 00       		.byte	0
 4787 0e2f 00       		.byte	0
 4788 0e30 30       		.uleb128 0x30
 4789 0e31 18040000 		.4byte	.LASF156
 4790 0e35 01       		.byte	0x1
 4791 0e36 DD01     		.2byte	0x1dd
 4792 0e38 B8000000 		.4byte	0xb8
 4793 0e3c 00000000 		.4byte	.LFB76
 4794 0e40 94000000 		.4byte	.LFE76-.LFB76
 4795 0e44 01       		.uleb128 0x1
 4796 0e45 9C       		.byte	0x9c
 4797 0e46 3F0F0000 		.4byte	0xf3f
 4798 0e4a 2B       		.uleb128 0x2b
 4799 0e4b 20030000 		.4byte	.LASF157
 4800 0e4f 01       		.byte	0x1
 4801 0e50 DD01     		.2byte	0x1dd
 4802 0e52 B8000000 		.4byte	0xb8
 4803 0e56 300C0000 		.4byte	.LLST45
 4804 0e5a 2B       		.uleb128 0x2b
 4805 0e5b 97020000 		.4byte	.LASF158
 4806 0e5f 01       		.byte	0x1
 4807 0e60 DD01     		.2byte	0x1dd
 4808 0e62 CE000000 		.4byte	0xce
 4809 0e66 6A0C0000 		.4byte	.LLST46
 4810 0e6a 2B       		.uleb128 0x2b
 4811 0e6b 380A0000 		.4byte	.LASF159
 4812 0e6f 01       		.byte	0x1
 4813 0e70 DD01     		.2byte	0x1dd
 4814 0e72 B8000000 		.4byte	0xb8
 4815 0e76 8B0C0000 		.4byte	.LLST47
 4816 0e7a 35       		.uleb128 0x35
 4817 0e7b BC050000 		.4byte	.LASF160
 4818 0e7f 01       		.byte	0x1
ARM GAS  C:\Users\chemi\AppData\Local\Temp\ccHerMgL.s 			page 103


 4819 0e80 DF01     		.2byte	0x1df
 4820 0e82 F7040000 		.4byte	0x4f7
 4821 0e86 05       		.uleb128 0x5
 4822 0e87 03       		.byte	0x3
 4823 0e88 00000000 		.4byte	eeprom_buffer.9611
 4824 0e8c 35       		.uleb128 0x35
 4825 0e8d 27080000 		.4byte	.LASF161
 4826 0e91 01       		.byte	0x1
 4827 0e92 E001     		.2byte	0x1e0
 4828 0e94 CE000000 		.4byte	0xce
 4829 0e98 05       		.uleb128 0x5
 4830 0e99 03       		.byte	0x3
 4831 0e9a 00000000 		.4byte	last_row.9612
 4832 0e9e 35       		.uleb128 0x35
 4833 0e9f 330B0000 		.4byte	.LASF162
 4834 0ea3 01       		.byte	0x1
 4835 0ea4 E101     		.2byte	0x1e1
 4836 0ea6 B8000000 		.4byte	0xb8
 4837 0eaa 05       		.uleb128 0x5
 4838 0eab 03       		.byte	0x3
 4839 0eac 10000000 		.4byte	changed.9613
 4840 0eb0 2E       		.uleb128 0x2e
 4841 0eb1 F6090000 		.4byte	.LASF163
 4842 0eb5 01       		.byte	0x1
 4843 0eb6 E201     		.2byte	0x1e2
 4844 0eb8 B8000000 		.4byte	0xb8
 4845 0ebc AC0C0000 		.4byte	.LLST48
 4846 0ec0 2E       		.uleb128 0x2e
 4847 0ec1 93040000 		.4byte	.LASF164
 4848 0ec5 01       		.byte	0x1
 4849 0ec6 E301     		.2byte	0x1e3
 4850 0ec8 CE000000 		.4byte	0xce
 4851 0ecc E20C0000 		.4byte	.LLST49
 4852 0ed0 2E       		.uleb128 0x2e
 4853 0ed1 19070000 		.4byte	.LASF165
 4854 0ed5 01       		.byte	0x1
 4855 0ed6 E401     		.2byte	0x1e4
 4856 0ed8 CE000000 		.4byte	0xce
 4857 0edc F50C0000 		.4byte	.LLST50
 4858 0ee0 23       		.uleb128 0x23
 4859 0ee1 2E000000 		.4byte	.LVL207
 4860 0ee5 BA0D0000 		.4byte	0xdba
 4861 0ee9 FA0E0000 		.4byte	0xefa
 4862 0eed 24       		.uleb128 0x24
 4863 0eee 01       		.uleb128 0x1
 4864 0eef 50       		.byte	0x50
 4865 0ef0 02       		.uleb128 0x2
 4866 0ef1 74       		.byte	0x74
 4867 0ef2 00       		.sleb128 0
 4868 0ef3 24       		.uleb128 0x24
 4869 0ef4 01       		.uleb128 0x1
 4870 0ef5 51       		.byte	0x51
 4871 0ef6 02       		.uleb128 0x2
 4872 0ef7 75       		.byte	0x75
 4873 0ef8 00       		.sleb128 0
 4874 0ef9 00       		.byte	0
 4875 0efa 23       		.uleb128 0x23
ARM GAS  C:\Users\chemi\AppData\Local\Temp\ccHerMgL.s 			page 104


 4876 0efb 40000000 		.4byte	.LVL210
 4877 0eff D5180000 		.4byte	0x18d5
 4878 0f03 0E0F0000 		.4byte	0xf0e
 4879 0f07 24       		.uleb128 0x24
 4880 0f08 01       		.uleb128 0x1
 4881 0f09 50       		.byte	0x50
 4882 0f0a 02       		.uleb128 0x2
 4883 0f0b 75       		.byte	0x75
 4884 0f0c 00       		.sleb128 0
 4885 0f0d 00       		.byte	0
 4886 0f0e 23       		.uleb128 0x23
 4887 0f0f 48000000 		.4byte	.LVL211
 4888 0f13 BA0D0000 		.4byte	0xdba
 4889 0f17 280F0000 		.4byte	0xf28
 4890 0f1b 24       		.uleb128 0x24
 4891 0f1c 01       		.uleb128 0x1
 4892 0f1d 50       		.byte	0x50
 4893 0f1e 02       		.uleb128 0x2
 4894 0f1f 74       		.byte	0x74
 4895 0f20 00       		.sleb128 0
 4896 0f21 24       		.uleb128 0x24
 4897 0f22 01       		.uleb128 0x1
 4898 0f23 51       		.byte	0x51
 4899 0f24 02       		.uleb128 0x2
 4900 0f25 75       		.byte	0x75
 4901 0f26 00       		.sleb128 0
 4902 0f27 00       		.byte	0
 4903 0f28 32       		.uleb128 0x32
 4904 0f29 7E000000 		.4byte	.LVL214
 4905 0f2d D5180000 		.4byte	0x18d5
 4906 0f31 24       		.uleb128 0x24
 4907 0f32 01       		.uleb128 0x1
 4908 0f33 50       		.byte	0x50
 4909 0f34 02       		.uleb128 0x2
 4910 0f35 75       		.byte	0x75
 4911 0f36 00       		.sleb128 0
 4912 0f37 24       		.uleb128 0x24
 4913 0f38 01       		.uleb128 0x1
 4914 0f39 51       		.byte	0x51
 4915 0f3a 02       		.uleb128 0x2
 4916 0f3b 74       		.byte	0x74
 4917 0f3c 00       		.sleb128 0
 4918 0f3d 00       		.byte	0
 4919 0f3e 00       		.byte	0
 4920 0f3f 30       		.uleb128 0x30
 4921 0f40 3F050000 		.4byte	.LASF166
 4922 0f44 01       		.byte	0x1
 4923 0f45 0302     		.2byte	0x203
 4924 0f47 E4000000 		.4byte	0xe4
 4925 0f4b 00000000 		.4byte	.LFB77
 4926 0f4f 16000000 		.4byte	.LFE77-.LFB77
 4927 0f53 01       		.uleb128 0x1
 4928 0f54 9C       		.byte	0x9c
 4929 0f55 790F0000 		.4byte	0xf79
 4930 0f59 34       		.uleb128 0x34
 4931 0f5a 637000   		.ascii	"cp\000"
 4932 0f5d 01       		.byte	0x1
ARM GAS  C:\Users\chemi\AppData\Local\Temp\ccHerMgL.s 			page 105


 4933 0f5e 0302     		.2byte	0x203
 4934 0f60 13010000 		.4byte	0x113
 4935 0f64 080D0000 		.4byte	.LLST51
 4936 0f68 2E       		.uleb128 0x2e
 4937 0f69 010A0000 		.4byte	.LASF167
 4938 0f6d 01       		.byte	0x1
 4939 0f6e 0502     		.2byte	0x205
 4940 0f70 E4000000 		.4byte	0xe4
 4941 0f74 4B0D0000 		.4byte	.LLST52
 4942 0f78 00       		.byte	0
 4943 0f79 2A       		.uleb128 0x2a
 4944 0f7a 81070000 		.4byte	.LASF168
 4945 0f7e 01       		.byte	0x1
 4946 0f7f 0B02     		.2byte	0x20b
 4947 0f81 00000000 		.4byte	.LFB78
 4948 0f85 CC000000 		.4byte	.LFE78-.LFB78
 4949 0f89 01       		.uleb128 0x1
 4950 0f8a 9C       		.byte	0x9c
 4951 0f8b AE100000 		.4byte	0x10ae
 4952 0f8f 2B       		.uleb128 0x2b
 4953 0f90 B6080000 		.4byte	.LASF133
 4954 0f94 01       		.byte	0x1
 4955 0f95 0B02     		.2byte	0x20b
 4956 0f97 76060000 		.4byte	0x676
 4957 0f9b 770D0000 		.4byte	.LLST53
 4958 0f9f 2B       		.uleb128 0x2b
 4959 0fa0 18090000 		.4byte	.LASF138
 4960 0fa4 01       		.byte	0x1
 4961 0fa5 0B02     		.2byte	0x20b
 4962 0fa7 B8000000 		.4byte	0xb8
 4963 0fab BC0D0000 		.4byte	.LLST54
 4964 0faf 2B       		.uleb128 0x2b
 4965 0fb0 100B0000 		.4byte	.LASF131
 4966 0fb4 01       		.byte	0x1
 4967 0fb5 0B02     		.2byte	0x20b
 4968 0fb7 DE030000 		.4byte	0x3de
 4969 0fbb DD0D0000 		.4byte	.LLST55
 4970 0fbf 2E       		.uleb128 0x2e
 4971 0fc0 5E000000 		.4byte	.LASF169
 4972 0fc4 01       		.byte	0x1
 4973 0fc5 0C02     		.2byte	0x20c
 4974 0fc7 E4000000 		.4byte	0xe4
 4975 0fcb 220E0000 		.4byte	.LLST56
 4976 0fcf 2E       		.uleb128 0x2e
 4977 0fd0 69000000 		.4byte	.LASF170
 4978 0fd4 01       		.byte	0x1
 4979 0fd5 0D02     		.2byte	0x20d
 4980 0fd7 E4000000 		.4byte	0xe4
 4981 0fdb 350E0000 		.4byte	.LLST57
 4982 0fdf 2E       		.uleb128 0x2e
 4983 0fe0 F9040000 		.4byte	.LASF171
 4984 0fe4 01       		.byte	0x1
 4985 0fe5 0E02     		.2byte	0x20e
 4986 0fe7 E4000000 		.4byte	0xe4
 4987 0feb 530E0000 		.4byte	.LLST58
 4988 0fef 36       		.uleb128 0x36
 4989 0ff0 30000000 		.4byte	.Ldebug_ranges0+0x30
ARM GAS  C:\Users\chemi\AppData\Local\Temp\ccHerMgL.s 			page 106


 4990 0ff4 9E100000 		.4byte	0x109e
 4991 0ff8 2E       		.uleb128 0x2e
 4992 0ff9 4A060000 		.4byte	.LASF140
 4993 0ffd 01       		.byte	0x1
 4994 0ffe 0F02     		.2byte	0x20f
 4995 1000 B8000000 		.4byte	0xb8
 4996 1004 7F0E0000 		.4byte	.LLST59
 4997 1008 36       		.uleb128 0x36
 4998 1009 50000000 		.4byte	.Ldebug_ranges0+0x50
 4999 100d 4A100000 		.4byte	0x104a
 5000 1011 18       		.uleb128 0x18
 5001 1012 6E00     		.ascii	"n\000"
 5002 1014 01       		.byte	0x1
 5003 1015 1202     		.2byte	0x212
 5004 1017 B8000000 		.4byte	0xb8
 5005 101b 23       		.uleb128 0x23
 5006 101c 4A000000 		.4byte	.LVL226
 5007 1020 3F0F0000 		.4byte	0xf3f
 5008 1024 30100000 		.4byte	0x1030
 5009 1028 24       		.uleb128 0x24
 5010 1029 01       		.uleb128 0x1
 5011 102a 50       		.byte	0x50
 5012 102b 03       		.uleb128 0x3
 5013 102c 91       		.byte	0x91
 5014 102d 54       		.sleb128 -44
 5015 102e 06       		.byte	0x6
 5016 102f 00       		.byte	0
 5017 1030 37       		.uleb128 0x37
 5018 1031 5A000000 		.4byte	.LVL228
 5019 1035 02       		.uleb128 0x2
 5020 1036 77       		.byte	0x77
 5021 1037 00       		.sleb128 0
 5022 1038 24       		.uleb128 0x24
 5023 1039 01       		.uleb128 0x1
 5024 103a 51       		.byte	0x51
 5025 103b 05       		.uleb128 0x5
 5026 103c 03       		.byte	0x3
 5027 103d CB010000 		.4byte	.LC31
 5028 1041 24       		.uleb128 0x24
 5029 1042 01       		.uleb128 0x1
 5030 1043 53       		.byte	0x53
 5031 1044 03       		.uleb128 0x3
 5032 1045 91       		.byte	0x91
 5033 1046 54       		.sleb128 -44
 5034 1047 06       		.byte	0x6
 5035 1048 00       		.byte	0
 5036 1049 00       		.byte	0
 5037 104a 21       		.uleb128 0x21
 5038 104b 64000000 		.4byte	.LBB18
 5039 104f 48000000 		.4byte	.LBE18-.LBB18
 5040 1053 94100000 		.4byte	0x1094
 5041 1057 2F       		.uleb128 0x2f
 5042 1058 6E00     		.ascii	"n\000"
 5043 105a 01       		.byte	0x1
 5044 105b 1B02     		.2byte	0x21b
 5045 105d B8000000 		.4byte	0xb8
 5046 1061 C50E0000 		.4byte	.LLST60
ARM GAS  C:\Users\chemi\AppData\Local\Temp\ccHerMgL.s 			page 107


 5047 1065 23       		.uleb128 0x23
 5048 1066 88000000 		.4byte	.LVL231
 5049 106a 3F0F0000 		.4byte	0xf3f
 5050 106e 7A100000 		.4byte	0x107a
 5051 1072 24       		.uleb128 0x24
 5052 1073 01       		.uleb128 0x1
 5053 1074 50       		.byte	0x50
 5054 1075 03       		.uleb128 0x3
 5055 1076 91       		.byte	0x91
 5056 1077 54       		.sleb128 -44
 5057 1078 06       		.byte	0x6
 5058 1079 00       		.byte	0
 5059 107a 37       		.uleb128 0x37
 5060 107b 98000000 		.4byte	.LVL233
 5061 107f 02       		.uleb128 0x2
 5062 1080 77       		.byte	0x77
 5063 1081 00       		.sleb128 0
 5064 1082 24       		.uleb128 0x24
 5065 1083 01       		.uleb128 0x1
 5066 1084 51       		.byte	0x51
 5067 1085 05       		.uleb128 0x5
 5068 1086 03       		.byte	0x3
 5069 1087 CB010000 		.4byte	.LC31
 5070 108b 24       		.uleb128 0x24
 5071 108c 01       		.uleb128 0x1
 5072 108d 53       		.byte	0x53
 5073 108e 03       		.uleb128 0x3
 5074 108f 91       		.byte	0x91
 5075 1090 54       		.sleb128 -44
 5076 1091 06       		.byte	0x6
 5077 1092 00       		.byte	0
 5078 1093 00       		.byte	0
 5079 1094 28       		.uleb128 0x28
 5080 1095 2C000000 		.4byte	.LVL224
 5081 1099 3F0F0000 		.4byte	0xf3f
 5082 109d 00       		.byte	0
 5083 109e 38       		.uleb128 0x38
 5084 109f BC000000 		.4byte	.LVL241
 5085 10a3 24       		.uleb128 0x24
 5086 10a4 01       		.uleb128 0x1
 5087 10a5 51       		.byte	0x51
 5088 10a6 05       		.uleb128 0x5
 5089 10a7 03       		.byte	0x3
 5090 10a8 E7010000 		.4byte	.LC32
 5091 10ac 00       		.byte	0
 5092 10ad 00       		.byte	0
 5093 10ae 2A       		.uleb128 0x2a
 5094 10af 170B0000 		.4byte	.LASF172
 5095 10b3 01       		.byte	0x1
 5096 10b4 2B02     		.2byte	0x22b
 5097 10b6 00000000 		.4byte	.LFB79
 5098 10ba 70010000 		.4byte	.LFE79-.LFB79
 5099 10be 01       		.uleb128 0x1
 5100 10bf 9C       		.byte	0x9c
 5101 10c0 BC130000 		.4byte	0x13bc
 5102 10c4 2B       		.uleb128 0x2b
 5103 10c5 B6080000 		.4byte	.LASF133
ARM GAS  C:\Users\chemi\AppData\Local\Temp\ccHerMgL.s 			page 108


 5104 10c9 01       		.byte	0x1
 5105 10ca 2B02     		.2byte	0x22b
 5106 10cc 76060000 		.4byte	0x676
 5107 10d0 E30E0000 		.4byte	.LLST61
 5108 10d4 2B       		.uleb128 0x2b
 5109 10d5 18090000 		.4byte	.LASF138
 5110 10d9 01       		.byte	0x1
 5111 10da 2B02     		.2byte	0x22b
 5112 10dc B8000000 		.4byte	0xb8
 5113 10e0 0F0F0000 		.4byte	.LLST62
 5114 10e4 2B       		.uleb128 0x2b
 5115 10e5 F1050000 		.4byte	.LASF173
 5116 10e9 01       		.byte	0x1
 5117 10ea 2B02     		.2byte	0x22b
 5118 10ec CE000000 		.4byte	0xce
 5119 10f0 300F0000 		.4byte	.LLST63
 5120 10f4 2B       		.uleb128 0x2b
 5121 10f5 100B0000 		.4byte	.LASF131
 5122 10f9 01       		.byte	0x1
 5123 10fa 2B02     		.2byte	0x22b
 5124 10fc DE030000 		.4byte	0x3de
 5125 1100 510F0000 		.4byte	.LLST64
 5126 1104 2E       		.uleb128 0x2e
 5127 1105 12000000 		.4byte	.LASF174
 5128 1109 01       		.byte	0x1
 5129 110a 2D02     		.2byte	0x22d
 5130 110c CE000000 		.4byte	0xce
 5131 1110 7D0F0000 		.4byte	.LLST65
 5132 1114 2E       		.uleb128 0x2e
 5133 1115 24070000 		.4byte	.LASF175
 5134 1119 01       		.byte	0x1
 5135 111a 2E02     		.2byte	0x22e
 5136 111c B8000000 		.4byte	0xb8
 5137 1120 47100000 		.4byte	.LLST66
 5138 1124 2E       		.uleb128 0x2e
 5139 1125 0E020000 		.4byte	.LASF176
 5140 1129 01       		.byte	0x1
 5141 112a 2F02     		.2byte	0x22f
 5142 112c CE000000 		.4byte	0xce
 5143 1130 72100000 		.4byte	.LLST67
 5144 1134 2E       		.uleb128 0x2e
 5145 1135 A7090000 		.4byte	.LASF177
 5146 1139 01       		.byte	0x1
 5147 113a 3002     		.2byte	0x230
 5148 113c E4000000 		.4byte	0xe4
 5149 1140 9C100000 		.4byte	.LLST68
 5150 1144 2E       		.uleb128 0x2e
 5151 1145 84050000 		.4byte	.LASF178
 5152 1149 01       		.byte	0x1
 5153 114a 3102     		.2byte	0x231
 5154 114c CE000000 		.4byte	0xce
 5155 1150 B0100000 		.4byte	.LLST69
 5156 1154 21       		.uleb128 0x21
 5157 1155 64000000 		.4byte	.LBB21
 5158 1159 A0000000 		.4byte	.LBE21-.LBB21
 5159 115d 41120000 		.4byte	0x1241
 5160 1161 2E       		.uleb128 0x2e
ARM GAS  C:\Users\chemi\AppData\Local\Temp\ccHerMgL.s 			page 109


 5161 1162 4A060000 		.4byte	.LASF140
 5162 1166 01       		.byte	0x1
 5163 1167 3C02     		.2byte	0x23c
 5164 1169 B8000000 		.4byte	0xb8
 5165 116d DA100000 		.4byte	.LLST70
 5166 1171 36       		.uleb128 0x36
 5167 1172 68000000 		.4byte	.Ldebug_ranges0+0x68
 5168 1176 9E110000 		.4byte	0x119e
 5169 117a 2F       		.uleb128 0x2f
 5170 117b 6900     		.ascii	"i\000"
 5171 117d 01       		.byte	0x1
 5172 117e 4B02     		.2byte	0x24b
 5173 1180 B8000000 		.4byte	0xb8
 5174 1184 EE100000 		.4byte	.LLST71
 5175 1188 32       		.uleb128 0x32
 5176 1189 E8000000 		.4byte	.LVL268
 5177 118d 300E0000 		.4byte	0xe30
 5178 1191 24       		.uleb128 0x24
 5179 1192 01       		.uleb128 0x1
 5180 1193 51       		.byte	0x51
 5181 1194 02       		.uleb128 0x2
 5182 1195 74       		.byte	0x74
 5183 1196 00       		.sleb128 0
 5184 1197 24       		.uleb128 0x24
 5185 1198 01       		.uleb128 0x1
 5186 1199 52       		.byte	0x52
 5187 119a 01       		.uleb128 0x1
 5188 119b 30       		.byte	0x30
 5189 119c 00       		.byte	0
 5190 119d 00       		.byte	0
 5191 119e 28       		.uleb128 0x28
 5192 119f 74000000 		.4byte	.LVL256
 5193 11a3 3F0F0000 		.4byte	0xf3f
 5194 11a7 23       		.uleb128 0x23
 5195 11a8 80000000 		.4byte	.LVL257
 5196 11ac 300E0000 		.4byte	0xe30
 5197 11b0 C0110000 		.4byte	0x11c0
 5198 11b4 24       		.uleb128 0x24
 5199 11b5 01       		.uleb128 0x1
 5200 11b6 51       		.byte	0x51
 5201 11b7 02       		.uleb128 0x2
 5202 11b8 74       		.byte	0x74
 5203 11b9 00       		.sleb128 0
 5204 11ba 24       		.uleb128 0x24
 5205 11bb 01       		.uleb128 0x1
 5206 11bc 52       		.byte	0x52
 5207 11bd 01       		.uleb128 0x1
 5208 11be 30       		.byte	0x30
 5209 11bf 00       		.byte	0
 5210 11c0 23       		.uleb128 0x23
 5211 11c1 8E000000 		.4byte	.LVL258
 5212 11c5 300E0000 		.4byte	0xe30
 5213 11c9 E5110000 		.4byte	0x11e5
 5214 11cd 24       		.uleb128 0x24
 5215 11ce 01       		.uleb128 0x1
 5216 11cf 50       		.byte	0x50
 5217 11d0 08       		.uleb128 0x8
ARM GAS  C:\Users\chemi\AppData\Local\Temp\ccHerMgL.s 			page 110


 5218 11d1 78       		.byte	0x78
 5219 11d2 00       		.sleb128 0
 5220 11d3 09       		.byte	0x9
 5221 11d4 F4       		.byte	0xf4
 5222 11d5 24       		.byte	0x24
 5223 11d6 09       		.byte	0x9
 5224 11d7 FC       		.byte	0xfc
 5225 11d8 25       		.byte	0x25
 5226 11d9 24       		.uleb128 0x24
 5227 11da 01       		.uleb128 0x1
 5228 11db 51       		.byte	0x51
 5229 11dc 02       		.uleb128 0x2
 5230 11dd 74       		.byte	0x74
 5231 11de 01       		.sleb128 1
 5232 11df 24       		.uleb128 0x24
 5233 11e0 01       		.uleb128 0x1
 5234 11e1 52       		.byte	0x52
 5235 11e2 01       		.uleb128 0x1
 5236 11e3 30       		.byte	0x30
 5237 11e4 00       		.byte	0
 5238 11e5 23       		.uleb128 0x23
 5239 11e6 9C000000 		.4byte	.LVL259
 5240 11ea 300E0000 		.4byte	0xe30
 5241 11ee 0A120000 		.4byte	0x120a
 5242 11f2 24       		.uleb128 0x24
 5243 11f3 01       		.uleb128 0x1
 5244 11f4 50       		.byte	0x50
 5245 11f5 08       		.uleb128 0x8
 5246 11f6 78       		.byte	0x78
 5247 11f7 00       		.sleb128 0
 5248 11f8 09       		.byte	0x9
 5249 11f9 EC       		.byte	0xec
 5250 11fa 24       		.byte	0x24
 5251 11fb 09       		.byte	0x9
 5252 11fc FC       		.byte	0xfc
 5253 11fd 25       		.byte	0x25
 5254 11fe 24       		.uleb128 0x24
 5255 11ff 01       		.uleb128 0x1
 5256 1200 51       		.byte	0x51
 5257 1201 02       		.uleb128 0x2
 5258 1202 74       		.byte	0x74
 5259 1203 02       		.sleb128 2
 5260 1204 24       		.uleb128 0x24
 5261 1205 01       		.uleb128 0x1
 5262 1206 52       		.byte	0x52
 5263 1207 01       		.uleb128 0x1
 5264 1208 30       		.byte	0x30
 5265 1209 00       		.byte	0
 5266 120a 23       		.uleb128 0x23
 5267 120b AA000000 		.4byte	.LVL260
 5268 120f 300E0000 		.4byte	0xe30
 5269 1213 2B120000 		.4byte	0x122b
 5270 1217 24       		.uleb128 0x24
 5271 1218 01       		.uleb128 0x1
 5272 1219 50       		.byte	0x50
 5273 121a 04       		.uleb128 0x4
 5274 121b 78       		.byte	0x78
ARM GAS  C:\Users\chemi\AppData\Local\Temp\ccHerMgL.s 			page 111


 5275 121c 00       		.sleb128 0
 5276 121d 48       		.byte	0x48
 5277 121e 25       		.byte	0x25
 5278 121f 24       		.uleb128 0x24
 5279 1220 01       		.uleb128 0x1
 5280 1221 51       		.byte	0x51
 5281 1222 02       		.uleb128 0x2
 5282 1223 74       		.byte	0x74
 5283 1224 03       		.sleb128 3
 5284 1225 24       		.uleb128 0x24
 5285 1226 01       		.uleb128 0x1
 5286 1227 52       		.byte	0x52
 5287 1228 01       		.uleb128 0x1
 5288 1229 30       		.byte	0x30
 5289 122a 00       		.byte	0
 5290 122b 32       		.uleb128 0x32
 5291 122c B6000000 		.4byte	.LVL261
 5292 1230 300E0000 		.4byte	0xe30
 5293 1234 24       		.uleb128 0x24
 5294 1235 01       		.uleb128 0x1
 5295 1236 51       		.byte	0x51
 5296 1237 02       		.uleb128 0x2
 5297 1238 74       		.byte	0x74
 5298 1239 04       		.sleb128 4
 5299 123a 24       		.uleb128 0x24
 5300 123b 01       		.uleb128 0x1
 5301 123c 52       		.byte	0x52
 5302 123d 01       		.uleb128 0x1
 5303 123e 30       		.byte	0x30
 5304 123f 00       		.byte	0
 5305 1240 00       		.byte	0
 5306 1241 23       		.uleb128 0x23
 5307 1242 2C000000 		.4byte	.LVL248
 5308 1246 300E0000 		.4byte	0xe30
 5309 124a 61120000 		.4byte	0x1261
 5310 124e 24       		.uleb128 0x24
 5311 124f 01       		.uleb128 0x1
 5312 1250 50       		.byte	0x50
 5313 1251 02       		.uleb128 0x2
 5314 1252 75       		.byte	0x75
 5315 1253 00       		.sleb128 0
 5316 1254 24       		.uleb128 0x24
 5317 1255 01       		.uleb128 0x1
 5318 1256 51       		.byte	0x51
 5319 1257 02       		.uleb128 0x2
 5320 1258 74       		.byte	0x74
 5321 1259 00       		.sleb128 0
 5322 125a 24       		.uleb128 0x24
 5323 125b 01       		.uleb128 0x1
 5324 125c 52       		.byte	0x52
 5325 125d 02       		.uleb128 0x2
 5326 125e 75       		.byte	0x75
 5327 125f 00       		.sleb128 0
 5328 1260 00       		.byte	0
 5329 1261 23       		.uleb128 0x23
 5330 1262 38000000 		.4byte	.LVL249
 5331 1266 300E0000 		.4byte	0xe30
ARM GAS  C:\Users\chemi\AppData\Local\Temp\ccHerMgL.s 			page 112


 5332 126a 81120000 		.4byte	0x1281
 5333 126e 24       		.uleb128 0x24
 5334 126f 01       		.uleb128 0x1
 5335 1270 50       		.byte	0x50
 5336 1271 02       		.uleb128 0x2
 5337 1272 09       		.byte	0x9
 5338 1273 C0       		.byte	0xc0
 5339 1274 24       		.uleb128 0x24
 5340 1275 01       		.uleb128 0x1
 5341 1276 51       		.byte	0x51
 5342 1277 02       		.uleb128 0x2
 5343 1278 74       		.byte	0x74
 5344 1279 01       		.sleb128 1
 5345 127a 24       		.uleb128 0x24
 5346 127b 01       		.uleb128 0x1
 5347 127c 52       		.byte	0x52
 5348 127d 02       		.uleb128 0x2
 5349 127e 75       		.byte	0x75
 5350 127f 00       		.sleb128 0
 5351 1280 00       		.byte	0
 5352 1281 23       		.uleb128 0x23
 5353 1282 44000000 		.4byte	.LVL250
 5354 1286 300E0000 		.4byte	0xe30
 5355 128a A1120000 		.4byte	0x12a1
 5356 128e 24       		.uleb128 0x24
 5357 128f 01       		.uleb128 0x1
 5358 1290 50       		.byte	0x50
 5359 1291 02       		.uleb128 0x2
 5360 1292 09       		.byte	0x9
 5361 1293 FF       		.byte	0xff
 5362 1294 24       		.uleb128 0x24
 5363 1295 01       		.uleb128 0x1
 5364 1296 51       		.byte	0x51
 5365 1297 02       		.uleb128 0x2
 5366 1298 74       		.byte	0x74
 5367 1299 02       		.sleb128 2
 5368 129a 24       		.uleb128 0x24
 5369 129b 01       		.uleb128 0x1
 5370 129c 52       		.byte	0x52
 5371 129d 02       		.uleb128 0x2
 5372 129e 75       		.byte	0x75
 5373 129f 00       		.sleb128 0
 5374 12a0 00       		.byte	0
 5375 12a1 23       		.uleb128 0x23
 5376 12a2 50000000 		.4byte	.LVL251
 5377 12a6 300E0000 		.4byte	0xe30
 5378 12aa C1120000 		.4byte	0x12c1
 5379 12ae 24       		.uleb128 0x24
 5380 12af 01       		.uleb128 0x1
 5381 12b0 50       		.byte	0x50
 5382 12b1 02       		.uleb128 0x2
 5383 12b2 09       		.byte	0x9
 5384 12b3 EE       		.byte	0xee
 5385 12b4 24       		.uleb128 0x24
 5386 12b5 01       		.uleb128 0x1
 5387 12b6 51       		.byte	0x51
 5388 12b7 02       		.uleb128 0x2
ARM GAS  C:\Users\chemi\AppData\Local\Temp\ccHerMgL.s 			page 113


 5389 12b8 74       		.byte	0x74
 5390 12b9 03       		.sleb128 3
 5391 12ba 24       		.uleb128 0x24
 5392 12bb 01       		.uleb128 0x1
 5393 12bc 52       		.byte	0x52
 5394 12bd 02       		.uleb128 0x2
 5395 12be 75       		.byte	0x75
 5396 12bf 00       		.sleb128 0
 5397 12c0 00       		.byte	0
 5398 12c1 23       		.uleb128 0x23
 5399 12c2 5E000000 		.4byte	.LVL253
 5400 12c6 300E0000 		.4byte	0xe30
 5401 12ca E1120000 		.4byte	0x12e1
 5402 12ce 24       		.uleb128 0x24
 5403 12cf 01       		.uleb128 0x1
 5404 12d0 50       		.byte	0x50
 5405 12d1 02       		.uleb128 0x2
 5406 12d2 75       		.byte	0x75
 5407 12d3 00       		.sleb128 0
 5408 12d4 24       		.uleb128 0x24
 5409 12d5 01       		.uleb128 0x1
 5410 12d6 51       		.byte	0x51
 5411 12d7 02       		.uleb128 0x2
 5412 12d8 74       		.byte	0x74
 5413 12d9 7F       		.sleb128 -1
 5414 12da 24       		.uleb128 0x24
 5415 12db 01       		.uleb128 0x1
 5416 12dc 52       		.byte	0x52
 5417 12dd 02       		.uleb128 0x2
 5418 12de 75       		.byte	0x75
 5419 12df 00       		.sleb128 0
 5420 12e0 00       		.byte	0
 5421 12e1 23       		.uleb128 0x23
 5422 12e2 0E010000 		.4byte	.LVL273
 5423 12e6 300E0000 		.4byte	0xe30
 5424 12ea 00130000 		.4byte	0x1300
 5425 12ee 24       		.uleb128 0x24
 5426 12ef 01       		.uleb128 0x1
 5427 12f0 50       		.byte	0x50
 5428 12f1 02       		.uleb128 0x2
 5429 12f2 09       		.byte	0x9
 5430 12f3 DE       		.byte	0xde
 5431 12f4 24       		.uleb128 0x24
 5432 12f5 01       		.uleb128 0x1
 5433 12f6 51       		.byte	0x51
 5434 12f7 02       		.uleb128 0x2
 5435 12f8 74       		.byte	0x74
 5436 12f9 00       		.sleb128 0
 5437 12fa 24       		.uleb128 0x24
 5438 12fb 01       		.uleb128 0x1
 5439 12fc 52       		.byte	0x52
 5440 12fd 01       		.uleb128 0x1
 5441 12fe 30       		.byte	0x30
 5442 12ff 00       		.byte	0
 5443 1300 23       		.uleb128 0x23
 5444 1301 1A010000 		.4byte	.LVL274
 5445 1305 300E0000 		.4byte	0xe30
ARM GAS  C:\Users\chemi\AppData\Local\Temp\ccHerMgL.s 			page 114


 5446 1309 1F130000 		.4byte	0x131f
 5447 130d 24       		.uleb128 0x24
 5448 130e 01       		.uleb128 0x1
 5449 130f 50       		.byte	0x50
 5450 1310 02       		.uleb128 0x2
 5451 1311 09       		.byte	0x9
 5452 1312 AD       		.byte	0xad
 5453 1313 24       		.uleb128 0x24
 5454 1314 01       		.uleb128 0x1
 5455 1315 51       		.byte	0x51
 5456 1316 02       		.uleb128 0x2
 5457 1317 74       		.byte	0x74
 5458 1318 01       		.sleb128 1
 5459 1319 24       		.uleb128 0x24
 5460 131a 01       		.uleb128 0x1
 5461 131b 52       		.byte	0x52
 5462 131c 01       		.uleb128 0x1
 5463 131d 30       		.byte	0x30
 5464 131e 00       		.byte	0
 5465 131f 23       		.uleb128 0x23
 5466 1320 26010000 		.4byte	.LVL275
 5467 1324 300E0000 		.4byte	0xe30
 5468 1328 3E130000 		.4byte	0x133e
 5469 132c 24       		.uleb128 0x24
 5470 132d 01       		.uleb128 0x1
 5471 132e 50       		.byte	0x50
 5472 132f 02       		.uleb128 0x2
 5473 1330 09       		.byte	0x9
 5474 1331 BE       		.byte	0xbe
 5475 1332 24       		.uleb128 0x24
 5476 1333 01       		.uleb128 0x1
 5477 1334 51       		.byte	0x51
 5478 1335 02       		.uleb128 0x2
 5479 1336 74       		.byte	0x74
 5480 1337 02       		.sleb128 2
 5481 1338 24       		.uleb128 0x24
 5482 1339 01       		.uleb128 0x1
 5483 133a 52       		.byte	0x52
 5484 133b 01       		.uleb128 0x1
 5485 133c 30       		.byte	0x30
 5486 133d 00       		.byte	0
 5487 133e 23       		.uleb128 0x23
 5488 133f 32010000 		.4byte	.LVL276
 5489 1343 300E0000 		.4byte	0xe30
 5490 1347 5D130000 		.4byte	0x135d
 5491 134b 24       		.uleb128 0x24
 5492 134c 01       		.uleb128 0x1
 5493 134d 50       		.byte	0x50
 5494 134e 02       		.uleb128 0x2
 5495 134f 09       		.byte	0x9
 5496 1350 EF       		.byte	0xef
 5497 1351 24       		.uleb128 0x24
 5498 1352 01       		.uleb128 0x1
 5499 1353 51       		.byte	0x51
 5500 1354 02       		.uleb128 0x2
 5501 1355 74       		.byte	0x74
 5502 1356 03       		.sleb128 3
ARM GAS  C:\Users\chemi\AppData\Local\Temp\ccHerMgL.s 			page 115


 5503 1357 24       		.uleb128 0x24
 5504 1358 01       		.uleb128 0x1
 5505 1359 52       		.byte	0x52
 5506 135a 01       		.uleb128 0x1
 5507 135b 30       		.byte	0x30
 5508 135c 00       		.byte	0
 5509 135d 23       		.uleb128 0x23
 5510 135e 3E010000 		.4byte	.LVL277
 5511 1362 300E0000 		.4byte	0xe30
 5512 1366 7B130000 		.4byte	0x137b
 5513 136a 24       		.uleb128 0x24
 5514 136b 01       		.uleb128 0x1
 5515 136c 50       		.byte	0x50
 5516 136d 01       		.uleb128 0x1
 5517 136e 30       		.byte	0x30
 5518 136f 24       		.uleb128 0x24
 5519 1370 01       		.uleb128 0x1
 5520 1371 51       		.byte	0x51
 5521 1372 02       		.uleb128 0x2
 5522 1373 74       		.byte	0x74
 5523 1374 04       		.sleb128 4
 5524 1375 24       		.uleb128 0x24
 5525 1376 01       		.uleb128 0x1
 5526 1377 52       		.byte	0x52
 5527 1378 01       		.uleb128 0x1
 5528 1379 31       		.byte	0x31
 5529 137a 00       		.byte	0
 5530 137b 23       		.uleb128 0x23
 5531 137c 48010000 		.4byte	.LVL278
 5532 1380 E0180000 		.4byte	0x18e0
 5533 1384 9D130000 		.4byte	0x139d
 5534 1388 24       		.uleb128 0x24
 5535 1389 01       		.uleb128 0x1
 5536 138a 50       		.byte	0x50
 5537 138b 01       		.uleb128 0x1
 5538 138c 30       		.byte	0x30
 5539 138d 24       		.uleb128 0x24
 5540 138e 01       		.uleb128 0x1
 5541 138f 51       		.byte	0x51
 5542 1390 05       		.uleb128 0x5
 5543 1391 03       		.byte	0x3
 5544 1392 08020000 		.4byte	.LC33
 5545 1396 24       		.uleb128 0x24
 5546 1397 01       		.uleb128 0x1
 5547 1398 52       		.byte	0x52
 5548 1399 02       		.uleb128 0x2
 5549 139a 77       		.byte	0x77
 5550 139b 00       		.sleb128 0
 5551 139c 00       		.byte	0
 5552 139d 37       		.uleb128 0x37
 5553 139e 5E010000 		.4byte	.LVL280
 5554 13a2 02       		.uleb128 0x2
 5555 13a3 74       		.byte	0x74
 5556 13a4 00       		.sleb128 0
 5557 13a5 24       		.uleb128 0x24
 5558 13a6 01       		.uleb128 0x1
 5559 13a7 51       		.byte	0x51
ARM GAS  C:\Users\chemi\AppData\Local\Temp\ccHerMgL.s 			page 116


 5560 13a8 05       		.uleb128 0x5
 5561 13a9 03       		.byte	0x3
 5562 13aa 28020000 		.4byte	.LC34
 5563 13ae 24       		.uleb128 0x24
 5564 13af 01       		.uleb128 0x1
 5565 13b0 52       		.byte	0x52
 5566 13b1 02       		.uleb128 0x2
 5567 13b2 77       		.byte	0x77
 5568 13b3 00       		.sleb128 0
 5569 13b4 24       		.uleb128 0x24
 5570 13b5 01       		.uleb128 0x1
 5571 13b6 53       		.byte	0x53
 5572 13b7 02       		.uleb128 0x2
 5573 13b8 75       		.byte	0x75
 5574 13b9 00       		.sleb128 0
 5575 13ba 00       		.byte	0
 5576 13bb 00       		.byte	0
 5577 13bc 2A       		.uleb128 0x2a
 5578 13bd 08070000 		.4byte	.LASF179
 5579 13c1 01       		.byte	0x1
 5580 13c2 6102     		.2byte	0x261
 5581 13c4 00000000 		.4byte	.LFB80
 5582 13c8 64020000 		.4byte	.LFE80-.LFB80
 5583 13cc 01       		.uleb128 0x1
 5584 13cd 9C       		.byte	0x9c
 5585 13ce 5F160000 		.4byte	0x165f
 5586 13d2 2B       		.uleb128 0x2b
 5587 13d3 B6080000 		.4byte	.LASF133
 5588 13d7 01       		.byte	0x1
 5589 13d8 6102     		.2byte	0x261
 5590 13da 76060000 		.4byte	0x676
 5591 13de 23110000 		.4byte	.LLST72
 5592 13e2 2B       		.uleb128 0x2b
 5593 13e3 18090000 		.4byte	.LASF138
 5594 13e7 01       		.byte	0x1
 5595 13e8 6102     		.2byte	0x261
 5596 13ea B8000000 		.4byte	0xb8
 5597 13ee 73110000 		.4byte	.LLST73
 5598 13f2 2B       		.uleb128 0x2b
 5599 13f3 F1050000 		.4byte	.LASF173
 5600 13f7 01       		.byte	0x1
 5601 13f8 6102     		.2byte	0x261
 5602 13fa CE000000 		.4byte	0xce
 5603 13fe 94110000 		.4byte	.LLST74
 5604 1402 2B       		.uleb128 0x2b
 5605 1403 100B0000 		.4byte	.LASF131
 5606 1407 01       		.byte	0x1
 5607 1408 6102     		.2byte	0x261
 5608 140a DE030000 		.4byte	0x3de
 5609 140e B5110000 		.4byte	.LLST75
 5610 1412 2E       		.uleb128 0x2e
 5611 1413 0B010000 		.4byte	.LASF155
 5612 1417 01       		.byte	0x1
 5613 1418 6202     		.2byte	0x262
 5614 141a CE000000 		.4byte	0xce
 5615 141e 05120000 		.4byte	.LLST76
 5616 1422 2E       		.uleb128 0x2e
ARM GAS  C:\Users\chemi\AppData\Local\Temp\ccHerMgL.s 			page 117


 5617 1423 A7090000 		.4byte	.LASF177
 5618 1427 01       		.byte	0x1
 5619 1428 6302     		.2byte	0x263
 5620 142a E4000000 		.4byte	0xe4
 5621 142e CD120000 		.4byte	.LLST77
 5622 1432 35       		.uleb128 0x35
 5623 1433 10010000 		.4byte	.LASF180
 5624 1437 01       		.byte	0x1
 5625 1438 6402     		.2byte	0x264
 5626 143a 5F160000 		.4byte	0x165f
 5627 143e 02       		.uleb128 0x2
 5628 143f 91       		.byte	0x91
 5629 1440 50       		.sleb128 -48
 5630 1441 2E       		.uleb128 0x2e
 5631 1442 84050000 		.4byte	.LASF178
 5632 1446 01       		.byte	0x1
 5633 1447 6502     		.2byte	0x265
 5634 1449 CE000000 		.4byte	0xce
 5635 144d F7120000 		.4byte	.LLST78
 5636 1451 2E       		.uleb128 0x2e
 5637 1452 0E020000 		.4byte	.LASF176
 5638 1456 01       		.byte	0x1
 5639 1457 6602     		.2byte	0x266
 5640 1459 CE000000 		.4byte	0xce
 5641 145d 2D130000 		.4byte	.LLST79
 5642 1461 2E       		.uleb128 0x2e
 5643 1462 24070000 		.4byte	.LASF175
 5644 1466 01       		.byte	0x1
 5645 1467 6702     		.2byte	0x267
 5646 1469 B8000000 		.4byte	0xb8
 5647 146d 73130000 		.4byte	.LLST80
 5648 1471 2E       		.uleb128 0x2e
 5649 1472 3E020000 		.4byte	.LASF181
 5650 1476 01       		.byte	0x1
 5651 1477 9302     		.2byte	0x293
 5652 1479 B8000000 		.4byte	0xb8
 5653 147d 93130000 		.4byte	.LLST81
 5654 1481 21       		.uleb128 0x21
 5655 1482 0E000000 		.4byte	.LBB24
 5656 1486 1A000000 		.4byte	.LBE24-.LBB24
 5657 148a B0140000 		.4byte	0x14b0
 5658 148e 2F       		.uleb128 0x2f
 5659 148f 6900     		.ascii	"i\000"
 5660 1491 01       		.byte	0x1
 5661 1492 6802     		.2byte	0x268
 5662 1494 25000000 		.4byte	0x25
 5663 1498 B2130000 		.4byte	.LLST82
 5664 149c 32       		.uleb128 0x32
 5665 149d 18000000 		.4byte	.LVL285
 5666 14a1 CA180000 		.4byte	0x18ca
 5667 14a5 24       		.uleb128 0x24
 5668 14a6 01       		.uleb128 0x1
 5669 14a7 50       		.byte	0x50
 5670 14a8 05       		.uleb128 0x5
 5671 14a9 75       		.byte	0x75
 5672 14aa 00       		.sleb128 0
 5673 14ab 74       		.byte	0x74
ARM GAS  C:\Users\chemi\AppData\Local\Temp\ccHerMgL.s 			page 118


 5674 14ac 00       		.sleb128 0
 5675 14ad 22       		.byte	0x22
 5676 14ae 00       		.byte	0
 5677 14af 00       		.byte	0
 5678 14b0 36       		.uleb128 0x36
 5679 14b1 80000000 		.4byte	.Ldebug_ranges0+0x80
 5680 14b5 69150000 		.4byte	0x1569
 5681 14b9 2E       		.uleb128 0x2e
 5682 14ba 4A060000 		.4byte	.LASF140
 5683 14be 01       		.byte	0x1
 5684 14bf 7B02     		.2byte	0x27b
 5685 14c1 B8000000 		.4byte	0xb8
 5686 14c5 DC130000 		.4byte	.LLST83
 5687 14c9 21       		.uleb128 0x21
 5688 14ca 90000000 		.4byte	.LBB26
 5689 14ce 12000000 		.4byte	.LBE26-.LBB26
 5690 14d2 F8140000 		.4byte	0x14f8
 5691 14d6 2F       		.uleb128 0x2f
 5692 14d7 6900     		.ascii	"i\000"
 5693 14d9 01       		.byte	0x1
 5694 14da 7602     		.2byte	0x276
 5695 14dc 25000000 		.4byte	0x25
 5696 14e0 36140000 		.4byte	.LLST84
 5697 14e4 32       		.uleb128 0x32
 5698 14e5 98000000 		.4byte	.LVL297
 5699 14e9 CA180000 		.4byte	0x18ca
 5700 14ed 24       		.uleb128 0x24
 5701 14ee 01       		.uleb128 0x1
 5702 14ef 50       		.byte	0x50
 5703 14f0 05       		.uleb128 0x5
 5704 14f1 74       		.byte	0x74
 5705 14f2 00       		.sleb128 0
 5706 14f3 75       		.byte	0x75
 5707 14f4 00       		.sleb128 0
 5708 14f5 22       		.byte	0x22
 5709 14f6 00       		.byte	0
 5710 14f7 00       		.byte	0
 5711 14f8 21       		.uleb128 0x21
 5712 14f9 1E010000 		.4byte	.LBB27
 5713 14fd 30000000 		.4byte	.LBE27-.LBB27
 5714 1501 24150000 		.4byte	0x1524
 5715 1505 2F       		.uleb128 0x2f
 5716 1506 6900     		.ascii	"i\000"
 5717 1508 01       		.byte	0x1
 5718 1509 8002     		.2byte	0x280
 5719 150b B8000000 		.4byte	0xb8
 5720 150f 49140000 		.4byte	.LLST85
 5721 1513 32       		.uleb128 0x32
 5722 1514 42010000 		.4byte	.LVL308
 5723 1518 CA180000 		.4byte	0x18ca
 5724 151c 24       		.uleb128 0x24
 5725 151d 01       		.uleb128 0x1
 5726 151e 50       		.byte	0x50
 5727 151f 02       		.uleb128 0x2
 5728 1520 74       		.byte	0x74
 5729 1521 00       		.sleb128 0
 5730 1522 00       		.byte	0
ARM GAS  C:\Users\chemi\AppData\Local\Temp\ccHerMgL.s 			page 119


 5731 1523 00       		.byte	0
 5732 1524 23       		.uleb128 0x23
 5733 1525 7E000000 		.4byte	.LVL294
 5734 1529 E0180000 		.4byte	0x18e0
 5735 152d 46150000 		.4byte	0x1546
 5736 1531 24       		.uleb128 0x24
 5737 1532 01       		.uleb128 0x1
 5738 1533 50       		.byte	0x50
 5739 1534 01       		.uleb128 0x1
 5740 1535 31       		.byte	0x31
 5741 1536 24       		.uleb128 0x24
 5742 1537 01       		.uleb128 0x1
 5743 1538 51       		.byte	0x51
 5744 1539 05       		.uleb128 0x5
 5745 153a 03       		.byte	0x3
 5746 153b B0020000 		.4byte	.LC37
 5747 153f 24       		.uleb128 0x24
 5748 1540 01       		.uleb128 0x1
 5749 1541 52       		.byte	0x52
 5750 1542 02       		.uleb128 0x2
 5751 1543 78       		.byte	0x78
 5752 1544 00       		.sleb128 0
 5753 1545 00       		.byte	0
 5754 1546 29       		.uleb128 0x29
 5755 1547 88000000 		.4byte	.LVL295
 5756 154b 5F150000 		.4byte	0x155f
 5757 154f 24       		.uleb128 0x24
 5758 1550 01       		.uleb128 0x1
 5759 1551 51       		.byte	0x51
 5760 1552 05       		.uleb128 0x5
 5761 1553 03       		.byte	0x3
 5762 1554 C9020000 		.4byte	.LC38
 5763 1558 24       		.uleb128 0x24
 5764 1559 01       		.uleb128 0x1
 5765 155a 52       		.byte	0x52
 5766 155b 02       		.uleb128 0x2
 5767 155c 78       		.byte	0x78
 5768 155d 00       		.sleb128 0
 5769 155e 00       		.byte	0
 5770 155f 28       		.uleb128 0x28
 5771 1560 F6000000 		.4byte	.LVL305
 5772 1564 3F0F0000 		.4byte	0xf3f
 5773 1568 00       		.byte	0
 5774 1569 36       		.uleb128 0x36
 5775 156a A8000000 		.4byte	.Ldebug_ranges0+0xa8
 5776 156e EC150000 		.4byte	0x15ec
 5777 1572 2E       		.uleb128 0x2e
 5778 1573 4A060000 		.4byte	.LASF140
 5779 1577 01       		.byte	0x1
 5780 1578 9402     		.2byte	0x294
 5781 157a B8000000 		.4byte	0xb8
 5782 157e 5D140000 		.4byte	.LLST86
 5783 1582 21       		.uleb128 0x21
 5784 1583 7C010000 		.4byte	.LBB30
 5785 1587 26000000 		.4byte	.LBE30-.LBB30
 5786 158b B1150000 		.4byte	0x15b1
 5787 158f 2F       		.uleb128 0x2f
ARM GAS  C:\Users\chemi\AppData\Local\Temp\ccHerMgL.s 			page 120


 5788 1590 6900     		.ascii	"i\000"
 5789 1592 01       		.byte	0x1
 5790 1593 9B02     		.2byte	0x29b
 5791 1595 25000000 		.4byte	0x25
 5792 1599 88140000 		.4byte	.LLST87
 5793 159d 32       		.uleb128 0x32
 5794 159e 8C010000 		.4byte	.LVL317
 5795 15a2 CA180000 		.4byte	0x18ca
 5796 15a6 24       		.uleb128 0x24
 5797 15a7 01       		.uleb128 0x1
 5798 15a8 50       		.byte	0x50
 5799 15a9 05       		.uleb128 0x5
 5800 15aa 7B       		.byte	0x7b
 5801 15ab 00       		.sleb128 0
 5802 15ac 7A       		.byte	0x7a
 5803 15ad 00       		.sleb128 0
 5804 15ae 22       		.byte	0x22
 5805 15af 00       		.byte	0
 5806 15b0 00       		.byte	0
 5807 15b1 28       		.uleb128 0x28
 5808 15b2 5A010000 		.4byte	.LVL311
 5809 15b6 3F0F0000 		.4byte	0xf3f
 5810 15ba 23       		.uleb128 0x23
 5811 15bb E0010000 		.4byte	.LVL322
 5812 15bf E0180000 		.4byte	0x18e0
 5813 15c3 DC150000 		.4byte	0x15dc
 5814 15c7 24       		.uleb128 0x24
 5815 15c8 01       		.uleb128 0x1
 5816 15c9 50       		.byte	0x50
 5817 15ca 01       		.uleb128 0x1
 5818 15cb 31       		.byte	0x31
 5819 15cc 24       		.uleb128 0x24
 5820 15cd 01       		.uleb128 0x1
 5821 15ce 51       		.byte	0x51
 5822 15cf 05       		.uleb128 0x5
 5823 15d0 03       		.byte	0x3
 5824 15d1 F8020000 		.4byte	.LC39
 5825 15d5 24       		.uleb128 0x24
 5826 15d6 01       		.uleb128 0x1
 5827 15d7 52       		.byte	0x52
 5828 15d8 02       		.uleb128 0x2
 5829 15d9 78       		.byte	0x78
 5830 15da 00       		.sleb128 0
 5831 15db 00       		.byte	0
 5832 15dc 26       		.uleb128 0x26
 5833 15dd EA010000 		.4byte	.LVL323
 5834 15e1 24       		.uleb128 0x24
 5835 15e2 01       		.uleb128 0x1
 5836 15e3 51       		.byte	0x51
 5837 15e4 05       		.uleb128 0x5
 5838 15e5 03       		.byte	0x3
 5839 15e6 18030000 		.4byte	.LC40
 5840 15ea 00       		.byte	0
 5841 15eb 00       		.byte	0
 5842 15ec 23       		.uleb128 0x23
 5843 15ed 58000000 		.4byte	.LVL290
 5844 15f1 E0180000 		.4byte	0x18e0
ARM GAS  C:\Users\chemi\AppData\Local\Temp\ccHerMgL.s 			page 121


 5845 15f5 10160000 		.4byte	0x1610
 5846 15f9 24       		.uleb128 0x24
 5847 15fa 01       		.uleb128 0x1
 5848 15fb 50       		.byte	0x50
 5849 15fc 01       		.uleb128 0x1
 5850 15fd 31       		.byte	0x31
 5851 15fe 24       		.uleb128 0x24
 5852 15ff 01       		.uleb128 0x1
 5853 1600 51       		.byte	0x51
 5854 1601 05       		.uleb128 0x5
 5855 1602 03       		.byte	0x3
 5856 1603 66020000 		.4byte	.LC35
 5857 1607 24       		.uleb128 0x24
 5858 1608 01       		.uleb128 0x1
 5859 1609 52       		.byte	0x52
 5860 160a 04       		.uleb128 0x4
 5861 160b 40       		.byte	0x40
 5862 160c 4B       		.byte	0x4b
 5863 160d 24       		.byte	0x24
 5864 160e 1F       		.byte	0x1f
 5865 160f 00       		.byte	0
 5866 1610 39       		.uleb128 0x39
 5867 1611 66000000 		.4byte	.LVL292
 5868 1615 23160000 		.4byte	0x1623
 5869 1619 24       		.uleb128 0x24
 5870 161a 01       		.uleb128 0x1
 5871 161b 51       		.byte	0x51
 5872 161c 05       		.uleb128 0x5
 5873 161d 03       		.byte	0x3
 5874 161e 86020000 		.4byte	.LC36
 5875 1622 00       		.byte	0
 5876 1623 23       		.uleb128 0x23
 5877 1624 24020000 		.4byte	.LVL328
 5878 1628 E0180000 		.4byte	0x18e0
 5879 162c 47160000 		.4byte	0x1647
 5880 1630 24       		.uleb128 0x24
 5881 1631 01       		.uleb128 0x1
 5882 1632 50       		.byte	0x50
 5883 1633 01       		.uleb128 0x1
 5884 1634 30       		.byte	0x30
 5885 1635 24       		.uleb128 0x24
 5886 1636 01       		.uleb128 0x1
 5887 1637 51       		.byte	0x51
 5888 1638 05       		.uleb128 0x5
 5889 1639 03       		.byte	0x3
 5890 163a 42030000 		.4byte	.LC41
 5891 163e 24       		.uleb128 0x24
 5892 163f 01       		.uleb128 0x1
 5893 1640 52       		.byte	0x52
 5894 1641 04       		.uleb128 0x4
 5895 1642 40       		.byte	0x40
 5896 1643 4B       		.byte	0x4b
 5897 1644 24       		.byte	0x24
 5898 1645 1F       		.byte	0x1f
 5899 1646 00       		.byte	0
 5900 1647 38       		.uleb128 0x38
 5901 1648 38020000 		.4byte	.LVL331
ARM GAS  C:\Users\chemi\AppData\Local\Temp\ccHerMgL.s 			page 122


 5902 164c 24       		.uleb128 0x24
 5903 164d 01       		.uleb128 0x1
 5904 164e 51       		.byte	0x51
 5905 164f 05       		.uleb128 0x5
 5906 1650 03       		.byte	0x3
 5907 1651 59030000 		.4byte	.LC42
 5908 1655 24       		.uleb128 0x24
 5909 1656 01       		.uleb128 0x1
 5910 1657 52       		.byte	0x52
 5911 1658 04       		.uleb128 0x4
 5912 1659 7D       		.byte	0x7d
 5913 165a B87F     		.sleb128 -72
 5914 165c 06       		.byte	0x6
 5915 165d 00       		.byte	0
 5916 165e 00       		.byte	0
 5917 165f 11       		.uleb128 0x11
 5918 1660 B8000000 		.4byte	0xb8
 5919 1664 6F160000 		.4byte	0x166f
 5920 1668 12       		.uleb128 0x12
 5921 1669 04010000 		.4byte	0x104
 5922 166d 04       		.byte	0x4
 5923 166e 00       		.byte	0
 5924 166f 19       		.uleb128 0x19
 5925 1670 9C060000 		.4byte	0x69c
 5926 1674 00000000 		.4byte	.LFB81
 5927 1678 40000000 		.4byte	.LFE81-.LFB81
 5928 167c 01       		.uleb128 0x1
 5929 167d 9C       		.byte	0x9c
 5930 167e 14170000 		.4byte	0x1714
 5931 1682 1A       		.uleb128 0x1a
 5932 1683 AD060000 		.4byte	0x6ad
 5933 1687 A6140000 		.4byte	.LLST88
 5934 168b 1A       		.uleb128 0x1a
 5935 168c B9060000 		.4byte	0x6b9
 5936 1690 C4140000 		.4byte	.LLST89
 5937 1694 3A       		.uleb128 0x3a
 5938 1695 C5060000 		.4byte	0x6c5
 5939 1699 02       		.uleb128 0x2
 5940 169a 91       		.byte	0x91
 5941 169b 6F       		.sleb128 -17
 5942 169c 21       		.uleb128 0x21
 5943 169d 2C000000 		.4byte	.LBB36
 5944 16a1 0C000000 		.4byte	.LBE36-.LBB36
 5945 16a5 DB160000 		.4byte	0x16db
 5946 16a9 1A       		.uleb128 0x1a
 5947 16aa B9060000 		.4byte	0x6b9
 5948 16ae E2140000 		.4byte	.LLST90
 5949 16b2 1A       		.uleb128 0x1a
 5950 16b3 AD060000 		.4byte	0x6ad
 5951 16b7 F5140000 		.4byte	.LLST91
 5952 16bb 31       		.uleb128 0x31
 5953 16bc 2C000000 		.4byte	.LBB37
 5954 16c0 0C000000 		.4byte	.LBE37-.LBB37
 5955 16c4 3B       		.uleb128 0x3b
 5956 16c5 C5060000 		.4byte	0x6c5
 5957 16c9 32       		.uleb128 0x32
 5958 16ca 38000000 		.4byte	.LVL341
ARM GAS  C:\Users\chemi\AppData\Local\Temp\ccHerMgL.s 			page 123


 5959 16ce EB180000 		.4byte	0x18eb
 5960 16d2 24       		.uleb128 0x24
 5961 16d3 01       		.uleb128 0x1
 5962 16d4 51       		.byte	0x51
 5963 16d5 02       		.uleb128 0x2
 5964 16d6 09       		.byte	0x9
 5965 16d7 FF       		.byte	0xff
 5966 16d8 00       		.byte	0
 5967 16d9 00       		.byte	0
 5968 16da 00       		.byte	0
 5969 16db 23       		.uleb128 0x23
 5970 16dc 1A000000 		.4byte	.LVL338
 5971 16e0 F7180000 		.4byte	0x18f7
 5972 16e4 F8160000 		.4byte	0x16f8
 5973 16e8 24       		.uleb128 0x24
 5974 16e9 01       		.uleb128 0x1
 5975 16ea 51       		.byte	0x51
 5976 16eb 01       		.uleb128 0x1
 5977 16ec 30       		.byte	0x30
 5978 16ed 24       		.uleb128 0x24
 5979 16ee 01       		.uleb128 0x1
 5980 16ef 52       		.byte	0x52
 5981 16f0 01       		.uleb128 0x1
 5982 16f1 30       		.byte	0x30
 5983 16f2 24       		.uleb128 0x24
 5984 16f3 01       		.uleb128 0x1
 5985 16f4 53       		.byte	0x53
 5986 16f5 01       		.uleb128 0x1
 5987 16f6 30       		.byte	0x30
 5988 16f7 00       		.byte	0
 5989 16f8 32       		.uleb128 0x32
 5990 16f9 2A000000 		.4byte	.LVL339
 5991 16fd 03190000 		.4byte	0x1903
 5992 1701 24       		.uleb128 0x24
 5993 1702 01       		.uleb128 0x1
 5994 1703 51       		.byte	0x51
 5995 1704 02       		.uleb128 0x2
 5996 1705 91       		.byte	0x91
 5997 1706 6F       		.sleb128 -17
 5998 1707 24       		.uleb128 0x24
 5999 1708 01       		.uleb128 0x1
 6000 1709 52       		.byte	0x52
 6001 170a 01       		.uleb128 0x1
 6002 170b 31       		.byte	0x31
 6003 170c 24       		.uleb128 0x24
 6004 170d 01       		.uleb128 0x1
 6005 170e 53       		.byte	0x53
 6006 170f 02       		.uleb128 0x2
 6007 1710 75       		.byte	0x75
 6008 1711 00       		.sleb128 0
 6009 1712 00       		.byte	0
 6010 1713 00       		.byte	0
 6011 1714 30       		.uleb128 0x30
 6012 1715 2E000000 		.4byte	.LASF182
 6013 1719 01       		.byte	0x1
 6014 171a C002     		.2byte	0x2c0
 6015 171c B8000000 		.4byte	0xb8
ARM GAS  C:\Users\chemi\AppData\Local\Temp\ccHerMgL.s 			page 124


 6016 1720 00000000 		.4byte	.LFB82
 6017 1724 56000000 		.4byte	.LFE82-.LFB82
 6018 1728 01       		.uleb128 0x1
 6019 1729 9C       		.byte	0x9c
 6020 172a C6170000 		.4byte	0x17c6
 6021 172e 2B       		.uleb128 0x2b
 6022 172f 100B0000 		.4byte	.LASF131
 6023 1733 01       		.byte	0x1
 6024 1734 C002     		.2byte	0x2c0
 6025 1736 DE030000 		.4byte	0x3de
 6026 173a 08150000 		.4byte	.LLST92
 6027 173e 2B       		.uleb128 0x2b
 6028 173f BA010000 		.4byte	.LASF132
 6029 1743 01       		.byte	0x1
 6030 1744 C002     		.2byte	0x2c0
 6031 1746 29010000 		.4byte	0x129
 6032 174a 26150000 		.4byte	.LLST93
 6033 174e 3C       		.uleb128 0x3c
 6034 174f 6300     		.ascii	"c\000"
 6035 1751 01       		.byte	0x1
 6036 1752 C102     		.2byte	0x2c1
 6037 1754 B8000000 		.4byte	0xb8
 6038 1758 02       		.uleb128 0x2
 6039 1759 91       		.byte	0x91
 6040 175a 6F       		.sleb128 -17
 6041 175b 23       		.uleb128 0x23
 6042 175c 1A000000 		.4byte	.LVL345
 6043 1760 F7180000 		.4byte	0x18f7
 6044 1764 78170000 		.4byte	0x1778
 6045 1768 24       		.uleb128 0x24
 6046 1769 01       		.uleb128 0x1
 6047 176a 51       		.byte	0x51
 6048 176b 01       		.uleb128 0x1
 6049 176c 30       		.byte	0x30
 6050 176d 24       		.uleb128 0x24
 6051 176e 01       		.uleb128 0x1
 6052 176f 52       		.byte	0x52
 6053 1770 01       		.uleb128 0x1
 6054 1771 30       		.byte	0x30
 6055 1772 24       		.uleb128 0x24
 6056 1773 01       		.uleb128 0x1
 6057 1774 53       		.byte	0x53
 6058 1775 01       		.uleb128 0x1
 6059 1776 30       		.byte	0x30
 6060 1777 00       		.byte	0
 6061 1778 23       		.uleb128 0x23
 6062 1779 2A000000 		.4byte	.LVL346
 6063 177d 03190000 		.4byte	0x1903
 6064 1781 97170000 		.4byte	0x1797
 6065 1785 24       		.uleb128 0x24
 6066 1786 01       		.uleb128 0x1
 6067 1787 51       		.byte	0x51
 6068 1788 02       		.uleb128 0x2
 6069 1789 91       		.byte	0x91
 6070 178a 6F       		.sleb128 -17
 6071 178b 24       		.uleb128 0x24
 6072 178c 01       		.uleb128 0x1
ARM GAS  C:\Users\chemi\AppData\Local\Temp\ccHerMgL.s 			page 125


 6073 178d 52       		.byte	0x52
 6074 178e 01       		.uleb128 0x1
 6075 178f 31       		.byte	0x31
 6076 1790 24       		.uleb128 0x24
 6077 1791 01       		.uleb128 0x1
 6078 1792 53       		.byte	0x53
 6079 1793 02       		.uleb128 0x2
 6080 1794 75       		.byte	0x75
 6081 1795 00       		.sleb128 0
 6082 1796 00       		.byte	0
 6083 1797 23       		.uleb128 0x23
 6084 1798 38000000 		.4byte	.LVL347
 6085 179c EB180000 		.4byte	0x18eb
 6086 17a0 AB170000 		.4byte	0x17ab
 6087 17a4 24       		.uleb128 0x24
 6088 17a5 01       		.uleb128 0x1
 6089 17a6 51       		.byte	0x51
 6090 17a7 02       		.uleb128 0x2
 6091 17a8 09       		.byte	0x9
 6092 17a9 FF       		.byte	0xff
 6093 17aa 00       		.byte	0
 6094 17ab 32       		.uleb128 0x32
 6095 17ac 4E000000 		.4byte	.LVL348
 6096 17b0 0F190000 		.4byte	0x190f
 6097 17b4 24       		.uleb128 0x24
 6098 17b5 01       		.uleb128 0x1
 6099 17b6 51       		.byte	0x51
 6100 17b7 02       		.uleb128 0x2
 6101 17b8 91       		.byte	0x91
 6102 17b9 6F       		.sleb128 -17
 6103 17ba 24       		.uleb128 0x24
 6104 17bb 01       		.uleb128 0x1
 6105 17bc 52       		.byte	0x52
 6106 17bd 01       		.uleb128 0x1
 6107 17be 31       		.byte	0x31
 6108 17bf 24       		.uleb128 0x24
 6109 17c0 01       		.uleb128 0x1
 6110 17c1 53       		.byte	0x53
 6111 17c2 01       		.uleb128 0x1
 6112 17c3 30       		.byte	0x30
 6113 17c4 00       		.byte	0
 6114 17c5 00       		.byte	0
 6115 17c6 30       		.uleb128 0x30
 6116 17c7 31020000 		.4byte	.LASF183
 6117 17cb 01       		.byte	0x1
 6118 17cc CF02     		.2byte	0x2cf
 6119 17ce B8000000 		.4byte	0xb8
 6120 17d2 00000000 		.4byte	.LFB83
 6121 17d6 12000000 		.4byte	.LFE83-.LFB83
 6122 17da 01       		.uleb128 0x1
 6123 17db 9C       		.byte	0x9c
 6124 17dc FA170000 		.4byte	0x17fa
 6125 17e0 2B       		.uleb128 0x2b
 6126 17e1 100B0000 		.4byte	.LASF131
 6127 17e5 01       		.byte	0x1
 6128 17e6 CF02     		.2byte	0x2cf
 6129 17e8 DE030000 		.4byte	0x3de
ARM GAS  C:\Users\chemi\AppData\Local\Temp\ccHerMgL.s 			page 126


 6130 17ec 44150000 		.4byte	.LLST94
 6131 17f0 28       		.uleb128 0x28
 6132 17f1 0A000000 		.4byte	.LVL351
 6133 17f5 1B190000 		.4byte	0x191b
 6134 17f9 00       		.byte	0
 6135 17fa 30       		.uleb128 0x30
 6136 17fb E9060000 		.4byte	.LASF184
 6137 17ff 01       		.byte	0x1
 6138 1800 D902     		.2byte	0x2d9
 6139 1802 B8000000 		.4byte	0xb8
 6140 1806 00000000 		.4byte	.LFB84
 6141 180a 16000000 		.4byte	.LFE84-.LFB84
 6142 180e 01       		.uleb128 0x1
 6143 180f 9C       		.byte	0x9c
 6144 1810 5B180000 		.4byte	0x185b
 6145 1814 2B       		.uleb128 0x2b
 6146 1815 100B0000 		.4byte	.LASF131
 6147 1819 01       		.byte	0x1
 6148 181a D902     		.2byte	0x2d9
 6149 181c DE030000 		.4byte	0x3de
 6150 1820 65150000 		.4byte	.LLST95
 6151 1824 2B       		.uleb128 0x2b
 6152 1825 810B0000 		.4byte	.LASF185
 6153 1829 01       		.byte	0x1
 6154 182a D902     		.2byte	0x2d9
 6155 182c E4000000 		.4byte	0xe4
 6156 1830 86150000 		.4byte	.LLST96
 6157 1834 2F       		.uleb128 0x2f
 6158 1835 6300     		.ascii	"c\000"
 6159 1837 01       		.byte	0x1
 6160 1838 DA02     		.2byte	0x2da
 6161 183a B8000000 		.4byte	0xb8
 6162 183e A7150000 		.4byte	.LLST97
 6163 1842 32       		.uleb128 0x32
 6164 1843 06000000 		.4byte	.LVL353
 6165 1847 9C060000 		.4byte	0x69c
 6166 184b 24       		.uleb128 0x24
 6167 184c 01       		.uleb128 0x1
 6168 184d 50       		.byte	0x50
 6169 184e 03       		.uleb128 0x3
 6170 184f F3       		.byte	0xf3
 6171 1850 01       		.uleb128 0x1
 6172 1851 50       		.byte	0x50
 6173 1852 24       		.uleb128 0x24
 6174 1853 01       		.uleb128 0x1
 6175 1854 51       		.byte	0x51
 6176 1855 03       		.uleb128 0x3
 6177 1856 F3       		.byte	0xf3
 6178 1857 01       		.uleb128 0x1
 6179 1858 51       		.byte	0x51
 6180 1859 00       		.byte	0
 6181 185a 00       		.byte	0
 6182 185b 3D       		.uleb128 0x3d
 6183 185c 37010000 		.4byte	.LASF186
 6184 1860 0B       		.byte	0xb
 6185 1861 1207     		.2byte	0x712
 6186 1863 67180000 		.4byte	0x1867
ARM GAS  C:\Users\chemi\AppData\Local\Temp\ccHerMgL.s 			page 127


 6187 1867 3E       		.uleb128 0x3e
 6188 1868 D9000000 		.4byte	0xd9
 6189 186c 3F       		.uleb128 0x3f
 6190 186d E0070000 		.4byte	.LASF187
 6191 1871 01       		.byte	0x1
 6192 1872 28       		.byte	0x28
 6193 1873 CE000000 		.4byte	0xce
 6194 1877 05       		.uleb128 0x5
 6195 1878 03       		.byte	0x3
 6196 1879 00000000 		.4byte	byte_cnt
 6197 187d 40       		.uleb128 0x40
 6198 187e 37020000 		.4byte	.LASF188
 6199 1882 37020000 		.4byte	.LASF188
 6200 1886 0C       		.byte	0xc
 6201 1887 9A       		.byte	0x9a
 6202 1888 40       		.uleb128 0x40
 6203 1889 5F0A0000 		.4byte	.LASF189
 6204 188d 5F0A0000 		.4byte	.LASF189
 6205 1891 0C       		.byte	0xc
 6206 1892 A4       		.byte	0xa4
 6207 1893 40       		.uleb128 0x40
 6208 1894 72020000 		.4byte	.LASF190
 6209 1898 72020000 		.4byte	.LASF190
 6210 189c 0C       		.byte	0xc
 6211 189d A2       		.byte	0xa2
 6212 189e 40       		.uleb128 0x40
 6213 189f CB060000 		.4byte	.LASF191
 6214 18a3 CB060000 		.4byte	.LASF191
 6215 18a7 09       		.byte	0x9
 6216 18a8 FC       		.byte	0xfc
 6217 18a9 40       		.uleb128 0x40
 6218 18aa 8C040000 		.4byte	.LASF192
 6219 18ae 8C040000 		.4byte	.LASF192
 6220 18b2 0D       		.byte	0xd
 6221 18b3 21       		.byte	0x21
 6222 18b4 40       		.uleb128 0x40
 6223 18b5 BD090000 		.4byte	.LASF193
 6224 18b9 BD090000 		.4byte	.LASF193
 6225 18bd 0D       		.byte	0xd
 6226 18be 16       		.byte	0x16
 6227 18bf 40       		.uleb128 0x40
 6228 18c0 25030000 		.4byte	.LASF194
 6229 18c4 25030000 		.4byte	.LASF194
 6230 18c8 0E       		.byte	0xe
 6231 18c9 49       		.byte	0x49
 6232 18ca 40       		.uleb128 0x40
 6233 18cb 90050000 		.4byte	.LASF195
 6234 18cf 90050000 		.4byte	.LASF195
 6235 18d3 0F       		.byte	0xf
 6236 18d4 23       		.byte	0x23
 6237 18d5 40       		.uleb128 0x40
 6238 18d6 4A040000 		.4byte	.LASF196
 6239 18da 4A040000 		.4byte	.LASF196
 6240 18de 0F       		.byte	0xf
 6241 18df 26       		.byte	0x26
 6242 18e0 40       		.uleb128 0x40
 6243 18e1 66090000 		.4byte	.LASF197
ARM GAS  C:\Users\chemi\AppData\Local\Temp\ccHerMgL.s 			page 128


 6244 18e5 66090000 		.4byte	.LASF197
 6245 18e9 10       		.byte	0x10
 6246 18ea 2C       		.byte	0x2c
 6247 18eb 41       		.uleb128 0x41
 6248 18ec 03050000 		.4byte	.LASF198
 6249 18f0 03050000 		.4byte	.LASF198
 6250 18f4 06       		.byte	0x6
 6251 18f5 B705     		.2byte	0x5b7
 6252 18f7 41       		.uleb128 0x41
 6253 18f8 2D050000 		.4byte	.LASF199
 6254 18fc 2D050000 		.4byte	.LASF199
 6255 1900 06       		.byte	0x6
 6256 1901 8F02     		.2byte	0x28f
 6257 1903 41       		.uleb128 0x41
 6258 1904 CD0A0000 		.4byte	.LASF200
 6259 1908 CD0A0000 		.4byte	.LASF200
 6260 190c 08       		.byte	0x8
 6261 190d F801     		.2byte	0x1f8
 6262 190f 41       		.uleb128 0x41
 6263 1910 CE070000 		.4byte	.LASF201
 6264 1914 CE070000 		.4byte	.LASF201
 6265 1918 08       		.byte	0x8
 6266 1919 3A01     		.2byte	0x13a
 6267 191b 41       		.uleb128 0x41
 6268 191c 400B0000 		.4byte	.LASF202
 6269 1920 400B0000 		.4byte	.LASF202
 6270 1924 08       		.byte	0x8
 6271 1925 8F02     		.2byte	0x28f
 6272 1927 00       		.byte	0
 6273              		.section	.debug_abbrev,"",%progbits
 6274              	.Ldebug_abbrev0:
 6275 0000 01       		.uleb128 0x1
 6276 0001 11       		.uleb128 0x11
 6277 0002 01       		.byte	0x1
 6278 0003 25       		.uleb128 0x25
 6279 0004 0E       		.uleb128 0xe
 6280 0005 13       		.uleb128 0x13
 6281 0006 0B       		.uleb128 0xb
 6282 0007 03       		.uleb128 0x3
 6283 0008 0E       		.uleb128 0xe
 6284 0009 1B       		.uleb128 0x1b
 6285 000a 0E       		.uleb128 0xe
 6286 000b 55       		.uleb128 0x55
 6287 000c 17       		.uleb128 0x17
 6288 000d 11       		.uleb128 0x11
 6289 000e 01       		.uleb128 0x1
 6290 000f 10       		.uleb128 0x10
 6291 0010 17       		.uleb128 0x17
 6292 0011 00       		.byte	0
 6293 0012 00       		.byte	0
 6294 0013 02       		.uleb128 0x2
 6295 0014 24       		.uleb128 0x24
 6296 0015 00       		.byte	0
 6297 0016 0B       		.uleb128 0xb
 6298 0017 0B       		.uleb128 0xb
 6299 0018 3E       		.uleb128 0x3e
 6300 0019 0B       		.uleb128 0xb
ARM GAS  C:\Users\chemi\AppData\Local\Temp\ccHerMgL.s 			page 129


 6301 001a 03       		.uleb128 0x3
 6302 001b 08       		.uleb128 0x8
 6303 001c 00       		.byte	0
 6304 001d 00       		.byte	0
 6305 001e 03       		.uleb128 0x3
 6306 001f 24       		.uleb128 0x24
 6307 0020 00       		.byte	0
 6308 0021 0B       		.uleb128 0xb
 6309 0022 0B       		.uleb128 0xb
 6310 0023 3E       		.uleb128 0x3e
 6311 0024 0B       		.uleb128 0xb
 6312 0025 03       		.uleb128 0x3
 6313 0026 0E       		.uleb128 0xe
 6314 0027 00       		.byte	0
 6315 0028 00       		.byte	0
 6316 0029 04       		.uleb128 0x4
 6317 002a 16       		.uleb128 0x16
 6318 002b 00       		.byte	0
 6319 002c 03       		.uleb128 0x3
 6320 002d 0E       		.uleb128 0xe
 6321 002e 3A       		.uleb128 0x3a
 6322 002f 0B       		.uleb128 0xb
 6323 0030 3B       		.uleb128 0x3b
 6324 0031 0B       		.uleb128 0xb
 6325 0032 49       		.uleb128 0x49
 6326 0033 13       		.uleb128 0x13
 6327 0034 00       		.byte	0
 6328 0035 00       		.byte	0
 6329 0036 05       		.uleb128 0x5
 6330 0037 0F       		.uleb128 0xf
 6331 0038 00       		.byte	0
 6332 0039 0B       		.uleb128 0xb
 6333 003a 0B       		.uleb128 0xb
 6334 003b 00       		.byte	0
 6335 003c 00       		.byte	0
 6336 003d 06       		.uleb128 0x6
 6337 003e 0F       		.uleb128 0xf
 6338 003f 00       		.byte	0
 6339 0040 0B       		.uleb128 0xb
 6340 0041 0B       		.uleb128 0xb
 6341 0042 49       		.uleb128 0x49
 6342 0043 13       		.uleb128 0x13
 6343 0044 00       		.byte	0
 6344 0045 00       		.byte	0
 6345 0046 07       		.uleb128 0x7
 6346 0047 26       		.uleb128 0x26
 6347 0048 00       		.byte	0
 6348 0049 49       		.uleb128 0x49
 6349 004a 13       		.uleb128 0x13
 6350 004b 00       		.byte	0
 6351 004c 00       		.byte	0
 6352 004d 08       		.uleb128 0x8
 6353 004e 13       		.uleb128 0x13
 6354 004f 00       		.byte	0
 6355 0050 03       		.uleb128 0x3
 6356 0051 0E       		.uleb128 0xe
 6357 0052 3C       		.uleb128 0x3c
ARM GAS  C:\Users\chemi\AppData\Local\Temp\ccHerMgL.s 			page 130


 6358 0053 19       		.uleb128 0x19
 6359 0054 00       		.byte	0
 6360 0055 00       		.byte	0
 6361 0056 09       		.uleb128 0x9
 6362 0057 04       		.uleb128 0x4
 6363 0058 01       		.byte	0x1
 6364 0059 03       		.uleb128 0x3
 6365 005a 0E       		.uleb128 0xe
 6366 005b 0B       		.uleb128 0xb
 6367 005c 0B       		.uleb128 0xb
 6368 005d 49       		.uleb128 0x49
 6369 005e 13       		.uleb128 0x13
 6370 005f 3A       		.uleb128 0x3a
 6371 0060 0B       		.uleb128 0xb
 6372 0061 3B       		.uleb128 0x3b
 6373 0062 0B       		.uleb128 0xb
 6374 0063 01       		.uleb128 0x1
 6375 0064 13       		.uleb128 0x13
 6376 0065 00       		.byte	0
 6377 0066 00       		.byte	0
 6378 0067 0A       		.uleb128 0xa
 6379 0068 28       		.uleb128 0x28
 6380 0069 00       		.byte	0
 6381 006a 03       		.uleb128 0x3
 6382 006b 0E       		.uleb128 0xe
 6383 006c 1C       		.uleb128 0x1c
 6384 006d 0B       		.uleb128 0xb
 6385 006e 00       		.byte	0
 6386 006f 00       		.byte	0
 6387 0070 0B       		.uleb128 0xb
 6388 0071 13       		.uleb128 0x13
 6389 0072 01       		.byte	0x1
 6390 0073 03       		.uleb128 0x3
 6391 0074 0E       		.uleb128 0xe
 6392 0075 0B       		.uleb128 0xb
 6393 0076 0B       		.uleb128 0xb
 6394 0077 3A       		.uleb128 0x3a
 6395 0078 0B       		.uleb128 0xb
 6396 0079 3B       		.uleb128 0x3b
 6397 007a 0B       		.uleb128 0xb
 6398 007b 01       		.uleb128 0x1
 6399 007c 13       		.uleb128 0x13
 6400 007d 00       		.byte	0
 6401 007e 00       		.byte	0
 6402 007f 0C       		.uleb128 0xc
 6403 0080 0D       		.uleb128 0xd
 6404 0081 00       		.byte	0
 6405 0082 03       		.uleb128 0x3
 6406 0083 0E       		.uleb128 0xe
 6407 0084 3A       		.uleb128 0x3a
 6408 0085 0B       		.uleb128 0xb
 6409 0086 3B       		.uleb128 0x3b
 6410 0087 0B       		.uleb128 0xb
 6411 0088 49       		.uleb128 0x49
 6412 0089 13       		.uleb128 0x13
 6413 008a 38       		.uleb128 0x38
 6414 008b 0B       		.uleb128 0xb
ARM GAS  C:\Users\chemi\AppData\Local\Temp\ccHerMgL.s 			page 131


 6415 008c 00       		.byte	0
 6416 008d 00       		.byte	0
 6417 008e 0D       		.uleb128 0xd
 6418 008f 15       		.uleb128 0x15
 6419 0090 01       		.byte	0x1
 6420 0091 27       		.uleb128 0x27
 6421 0092 19       		.uleb128 0x19
 6422 0093 49       		.uleb128 0x49
 6423 0094 13       		.uleb128 0x13
 6424 0095 01       		.uleb128 0x1
 6425 0096 13       		.uleb128 0x13
 6426 0097 00       		.byte	0
 6427 0098 00       		.byte	0
 6428 0099 0E       		.uleb128 0xe
 6429 009a 05       		.uleb128 0x5
 6430 009b 00       		.byte	0
 6431 009c 49       		.uleb128 0x49
 6432 009d 13       		.uleb128 0x13
 6433 009e 00       		.byte	0
 6434 009f 00       		.byte	0
 6435 00a0 0F       		.uleb128 0xf
 6436 00a1 18       		.uleb128 0x18
 6437 00a2 00       		.byte	0
 6438 00a3 00       		.byte	0
 6439 00a4 00       		.byte	0
 6440 00a5 10       		.uleb128 0x10
 6441 00a6 13       		.uleb128 0x13
 6442 00a7 01       		.byte	0x1
 6443 00a8 0B       		.uleb128 0xb
 6444 00a9 0B       		.uleb128 0xb
 6445 00aa 3A       		.uleb128 0x3a
 6446 00ab 0B       		.uleb128 0xb
 6447 00ac 3B       		.uleb128 0x3b
 6448 00ad 0B       		.uleb128 0xb
 6449 00ae 01       		.uleb128 0x1
 6450 00af 13       		.uleb128 0x13
 6451 00b0 00       		.byte	0
 6452 00b1 00       		.byte	0
 6453 00b2 11       		.uleb128 0x11
 6454 00b3 01       		.uleb128 0x1
 6455 00b4 01       		.byte	0x1
 6456 00b5 49       		.uleb128 0x49
 6457 00b6 13       		.uleb128 0x13
 6458 00b7 01       		.uleb128 0x1
 6459 00b8 13       		.uleb128 0x13
 6460 00b9 00       		.byte	0
 6461 00ba 00       		.byte	0
 6462 00bb 12       		.uleb128 0x12
 6463 00bc 21       		.uleb128 0x21
 6464 00bd 00       		.byte	0
 6465 00be 49       		.uleb128 0x49
 6466 00bf 13       		.uleb128 0x13
 6467 00c0 2F       		.uleb128 0x2f
 6468 00c1 0B       		.uleb128 0xb
 6469 00c2 00       		.byte	0
 6470 00c3 00       		.byte	0
 6471 00c4 13       		.uleb128 0x13
ARM GAS  C:\Users\chemi\AppData\Local\Temp\ccHerMgL.s 			page 132


 6472 00c5 0D       		.uleb128 0xd
 6473 00c6 00       		.byte	0
 6474 00c7 03       		.uleb128 0x3
 6475 00c8 08       		.uleb128 0x8
 6476 00c9 3A       		.uleb128 0x3a
 6477 00ca 0B       		.uleb128 0xb
 6478 00cb 3B       		.uleb128 0x3b
 6479 00cc 0B       		.uleb128 0xb
 6480 00cd 49       		.uleb128 0x49
 6481 00ce 13       		.uleb128 0x13
 6482 00cf 38       		.uleb128 0x38
 6483 00d0 0B       		.uleb128 0xb
 6484 00d1 00       		.byte	0
 6485 00d2 00       		.byte	0
 6486 00d3 14       		.uleb128 0x14
 6487 00d4 2E       		.uleb128 0x2e
 6488 00d5 01       		.byte	0x1
 6489 00d6 3F       		.uleb128 0x3f
 6490 00d7 19       		.uleb128 0x19
 6491 00d8 03       		.uleb128 0x3
 6492 00d9 0E       		.uleb128 0xe
 6493 00da 3A       		.uleb128 0x3a
 6494 00db 0B       		.uleb128 0xb
 6495 00dc 3B       		.uleb128 0x3b
 6496 00dd 0B       		.uleb128 0xb
 6497 00de 27       		.uleb128 0x27
 6498 00df 19       		.uleb128 0x19
 6499 00e0 49       		.uleb128 0x49
 6500 00e1 13       		.uleb128 0x13
 6501 00e2 20       		.uleb128 0x20
 6502 00e3 0B       		.uleb128 0xb
 6503 00e4 01       		.uleb128 0x1
 6504 00e5 13       		.uleb128 0x13
 6505 00e6 00       		.byte	0
 6506 00e7 00       		.byte	0
 6507 00e8 15       		.uleb128 0x15
 6508 00e9 05       		.uleb128 0x5
 6509 00ea 00       		.byte	0
 6510 00eb 03       		.uleb128 0x3
 6511 00ec 08       		.uleb128 0x8
 6512 00ed 3A       		.uleb128 0x3a
 6513 00ee 0B       		.uleb128 0xb
 6514 00ef 3B       		.uleb128 0x3b
 6515 00f0 0B       		.uleb128 0xb
 6516 00f1 49       		.uleb128 0x49
 6517 00f2 13       		.uleb128 0x13
 6518 00f3 00       		.byte	0
 6519 00f4 00       		.byte	0
 6520 00f5 16       		.uleb128 0x16
 6521 00f6 2E       		.uleb128 0x2e
 6522 00f7 01       		.byte	0x1
 6523 00f8 3F       		.uleb128 0x3f
 6524 00f9 19       		.uleb128 0x19
 6525 00fa 03       		.uleb128 0x3
 6526 00fb 0E       		.uleb128 0xe
 6527 00fc 3A       		.uleb128 0x3a
 6528 00fd 0B       		.uleb128 0xb
ARM GAS  C:\Users\chemi\AppData\Local\Temp\ccHerMgL.s 			page 133


 6529 00fe 3B       		.uleb128 0x3b
 6530 00ff 05       		.uleb128 0x5
 6531 0100 27       		.uleb128 0x27
 6532 0101 19       		.uleb128 0x19
 6533 0102 49       		.uleb128 0x49
 6534 0103 13       		.uleb128 0x13
 6535 0104 20       		.uleb128 0x20
 6536 0105 0B       		.uleb128 0xb
 6537 0106 01       		.uleb128 0x1
 6538 0107 13       		.uleb128 0x13
 6539 0108 00       		.byte	0
 6540 0109 00       		.byte	0
 6541 010a 17       		.uleb128 0x17
 6542 010b 05       		.uleb128 0x5
 6543 010c 00       		.byte	0
 6544 010d 03       		.uleb128 0x3
 6545 010e 0E       		.uleb128 0xe
 6546 010f 3A       		.uleb128 0x3a
 6547 0110 0B       		.uleb128 0xb
 6548 0111 3B       		.uleb128 0x3b
 6549 0112 05       		.uleb128 0x5
 6550 0113 49       		.uleb128 0x49
 6551 0114 13       		.uleb128 0x13
 6552 0115 00       		.byte	0
 6553 0116 00       		.byte	0
 6554 0117 18       		.uleb128 0x18
 6555 0118 34       		.uleb128 0x34
 6556 0119 00       		.byte	0
 6557 011a 03       		.uleb128 0x3
 6558 011b 08       		.uleb128 0x8
 6559 011c 3A       		.uleb128 0x3a
 6560 011d 0B       		.uleb128 0xb
 6561 011e 3B       		.uleb128 0x3b
 6562 011f 05       		.uleb128 0x5
 6563 0120 49       		.uleb128 0x49
 6564 0121 13       		.uleb128 0x13
 6565 0122 00       		.byte	0
 6566 0123 00       		.byte	0
 6567 0124 19       		.uleb128 0x19
 6568 0125 2E       		.uleb128 0x2e
 6569 0126 01       		.byte	0x1
 6570 0127 31       		.uleb128 0x31
 6571 0128 13       		.uleb128 0x13
 6572 0129 11       		.uleb128 0x11
 6573 012a 01       		.uleb128 0x1
 6574 012b 12       		.uleb128 0x12
 6575 012c 06       		.uleb128 0x6
 6576 012d 40       		.uleb128 0x40
 6577 012e 18       		.uleb128 0x18
 6578 012f 9742     		.uleb128 0x2117
 6579 0131 19       		.uleb128 0x19
 6580 0132 01       		.uleb128 0x1
 6581 0133 13       		.uleb128 0x13
 6582 0134 00       		.byte	0
 6583 0135 00       		.byte	0
 6584 0136 1A       		.uleb128 0x1a
 6585 0137 05       		.uleb128 0x5
ARM GAS  C:\Users\chemi\AppData\Local\Temp\ccHerMgL.s 			page 134


 6586 0138 00       		.byte	0
 6587 0139 31       		.uleb128 0x31
 6588 013a 13       		.uleb128 0x13
 6589 013b 02       		.uleb128 0x2
 6590 013c 17       		.uleb128 0x17
 6591 013d 00       		.byte	0
 6592 013e 00       		.byte	0
 6593 013f 1B       		.uleb128 0x1b
 6594 0140 0B       		.uleb128 0xb
 6595 0141 01       		.byte	0x1
 6596 0142 55       		.uleb128 0x55
 6597 0143 17       		.uleb128 0x17
 6598 0144 00       		.byte	0
 6599 0145 00       		.byte	0
 6600 0146 1C       		.uleb128 0x1c
 6601 0147 2E       		.uleb128 0x2e
 6602 0148 01       		.byte	0x1
 6603 0149 3F       		.uleb128 0x3f
 6604 014a 19       		.uleb128 0x19
 6605 014b 03       		.uleb128 0x3
 6606 014c 0E       		.uleb128 0xe
 6607 014d 3A       		.uleb128 0x3a
 6608 014e 0B       		.uleb128 0xb
 6609 014f 3B       		.uleb128 0x3b
 6610 0150 0B       		.uleb128 0xb
 6611 0151 27       		.uleb128 0x27
 6612 0152 19       		.uleb128 0x19
 6613 0153 49       		.uleb128 0x49
 6614 0154 13       		.uleb128 0x13
 6615 0155 11       		.uleb128 0x11
 6616 0156 01       		.uleb128 0x1
 6617 0157 12       		.uleb128 0x12
 6618 0158 06       		.uleb128 0x6
 6619 0159 40       		.uleb128 0x40
 6620 015a 18       		.uleb128 0x18
 6621 015b 9642     		.uleb128 0x2116
 6622 015d 19       		.uleb128 0x19
 6623 015e 01       		.uleb128 0x1
 6624 015f 13       		.uleb128 0x13
 6625 0160 00       		.byte	0
 6626 0161 00       		.byte	0
 6627 0162 1D       		.uleb128 0x1d
 6628 0163 05       		.uleb128 0x5
 6629 0164 00       		.byte	0
 6630 0165 03       		.uleb128 0x3
 6631 0166 0E       		.uleb128 0xe
 6632 0167 3A       		.uleb128 0x3a
 6633 0168 0B       		.uleb128 0xb
 6634 0169 3B       		.uleb128 0x3b
 6635 016a 0B       		.uleb128 0xb
 6636 016b 49       		.uleb128 0x49
 6637 016c 13       		.uleb128 0x13
 6638 016d 02       		.uleb128 0x2
 6639 016e 17       		.uleb128 0x17
 6640 016f 00       		.byte	0
 6641 0170 00       		.byte	0
 6642 0171 1E       		.uleb128 0x1e
ARM GAS  C:\Users\chemi\AppData\Local\Temp\ccHerMgL.s 			page 135


 6643 0172 34       		.uleb128 0x34
 6644 0173 00       		.byte	0
 6645 0174 03       		.uleb128 0x3
 6646 0175 0E       		.uleb128 0xe
 6647 0176 3A       		.uleb128 0x3a
 6648 0177 0B       		.uleb128 0xb
 6649 0178 3B       		.uleb128 0x3b
 6650 0179 0B       		.uleb128 0xb
 6651 017a 49       		.uleb128 0x49
 6652 017b 13       		.uleb128 0x13
 6653 017c 02       		.uleb128 0x2
 6654 017d 17       		.uleb128 0x17
 6655 017e 00       		.byte	0
 6656 017f 00       		.byte	0
 6657 0180 1F       		.uleb128 0x1f
 6658 0181 34       		.uleb128 0x34
 6659 0182 00       		.byte	0
 6660 0183 03       		.uleb128 0x3
 6661 0184 0E       		.uleb128 0xe
 6662 0185 3A       		.uleb128 0x3a
 6663 0186 0B       		.uleb128 0xb
 6664 0187 3B       		.uleb128 0x3b
 6665 0188 0B       		.uleb128 0xb
 6666 0189 49       		.uleb128 0x49
 6667 018a 13       		.uleb128 0x13
 6668 018b 02       		.uleb128 0x2
 6669 018c 18       		.uleb128 0x18
 6670 018d 00       		.byte	0
 6671 018e 00       		.byte	0
 6672 018f 20       		.uleb128 0x20
 6673 0190 0A       		.uleb128 0xa
 6674 0191 00       		.byte	0
 6675 0192 03       		.uleb128 0x3
 6676 0193 0E       		.uleb128 0xe
 6677 0194 3A       		.uleb128 0x3a
 6678 0195 0B       		.uleb128 0xb
 6679 0196 3B       		.uleb128 0x3b
 6680 0197 0B       		.uleb128 0xb
 6681 0198 11       		.uleb128 0x11
 6682 0199 01       		.uleb128 0x1
 6683 019a 00       		.byte	0
 6684 019b 00       		.byte	0
 6685 019c 21       		.uleb128 0x21
 6686 019d 0B       		.uleb128 0xb
 6687 019e 01       		.byte	0x1
 6688 019f 11       		.uleb128 0x11
 6689 01a0 01       		.uleb128 0x1
 6690 01a1 12       		.uleb128 0x12
 6691 01a2 06       		.uleb128 0x6
 6692 01a3 01       		.uleb128 0x1
 6693 01a4 13       		.uleb128 0x13
 6694 01a5 00       		.byte	0
 6695 01a6 00       		.byte	0
 6696 01a7 22       		.uleb128 0x22
 6697 01a8 34       		.uleb128 0x34
 6698 01a9 00       		.byte	0
 6699 01aa 03       		.uleb128 0x3
ARM GAS  C:\Users\chemi\AppData\Local\Temp\ccHerMgL.s 			page 136


 6700 01ab 08       		.uleb128 0x8
 6701 01ac 3A       		.uleb128 0x3a
 6702 01ad 0B       		.uleb128 0xb
 6703 01ae 3B       		.uleb128 0x3b
 6704 01af 0B       		.uleb128 0xb
 6705 01b0 49       		.uleb128 0x49
 6706 01b1 13       		.uleb128 0x13
 6707 01b2 02       		.uleb128 0x2
 6708 01b3 17       		.uleb128 0x17
 6709 01b4 00       		.byte	0
 6710 01b5 00       		.byte	0
 6711 01b6 23       		.uleb128 0x23
 6712 01b7 898201   		.uleb128 0x4109
 6713 01ba 01       		.byte	0x1
 6714 01bb 11       		.uleb128 0x11
 6715 01bc 01       		.uleb128 0x1
 6716 01bd 31       		.uleb128 0x31
 6717 01be 13       		.uleb128 0x13
 6718 01bf 01       		.uleb128 0x1
 6719 01c0 13       		.uleb128 0x13
 6720 01c1 00       		.byte	0
 6721 01c2 00       		.byte	0
 6722 01c3 24       		.uleb128 0x24
 6723 01c4 8A8201   		.uleb128 0x410a
 6724 01c7 00       		.byte	0
 6725 01c8 02       		.uleb128 0x2
 6726 01c9 18       		.uleb128 0x18
 6727 01ca 9142     		.uleb128 0x2111
 6728 01cc 18       		.uleb128 0x18
 6729 01cd 00       		.byte	0
 6730 01ce 00       		.byte	0
 6731 01cf 25       		.uleb128 0x25
 6732 01d0 898201   		.uleb128 0x4109
 6733 01d3 01       		.byte	0x1
 6734 01d4 11       		.uleb128 0x11
 6735 01d5 01       		.uleb128 0x1
 6736 01d6 9342     		.uleb128 0x2113
 6737 01d8 18       		.uleb128 0x18
 6738 01d9 01       		.uleb128 0x1
 6739 01da 13       		.uleb128 0x13
 6740 01db 00       		.byte	0
 6741 01dc 00       		.byte	0
 6742 01dd 26       		.uleb128 0x26
 6743 01de 898201   		.uleb128 0x4109
 6744 01e1 01       		.byte	0x1
 6745 01e2 11       		.uleb128 0x11
 6746 01e3 01       		.uleb128 0x1
 6747 01e4 00       		.byte	0
 6748 01e5 00       		.byte	0
 6749 01e6 27       		.uleb128 0x27
 6750 01e7 2E       		.uleb128 0x2e
 6751 01e8 01       		.byte	0x1
 6752 01e9 3F       		.uleb128 0x3f
 6753 01ea 19       		.uleb128 0x19
 6754 01eb 03       		.uleb128 0x3
 6755 01ec 0E       		.uleb128 0xe
 6756 01ed 3A       		.uleb128 0x3a
ARM GAS  C:\Users\chemi\AppData\Local\Temp\ccHerMgL.s 			page 137


 6757 01ee 0B       		.uleb128 0xb
 6758 01ef 3B       		.uleb128 0x3b
 6759 01f0 0B       		.uleb128 0xb
 6760 01f1 27       		.uleb128 0x27
 6761 01f2 19       		.uleb128 0x19
 6762 01f3 11       		.uleb128 0x11
 6763 01f4 01       		.uleb128 0x1
 6764 01f5 12       		.uleb128 0x12
 6765 01f6 06       		.uleb128 0x6
 6766 01f7 40       		.uleb128 0x40
 6767 01f8 18       		.uleb128 0x18
 6768 01f9 9642     		.uleb128 0x2116
 6769 01fb 19       		.uleb128 0x19
 6770 01fc 01       		.uleb128 0x1
 6771 01fd 13       		.uleb128 0x13
 6772 01fe 00       		.byte	0
 6773 01ff 00       		.byte	0
 6774 0200 28       		.uleb128 0x28
 6775 0201 898201   		.uleb128 0x4109
 6776 0204 00       		.byte	0
 6777 0205 11       		.uleb128 0x11
 6778 0206 01       		.uleb128 0x1
 6779 0207 31       		.uleb128 0x31
 6780 0208 13       		.uleb128 0x13
 6781 0209 00       		.byte	0
 6782 020a 00       		.byte	0
 6783 020b 29       		.uleb128 0x29
 6784 020c 898201   		.uleb128 0x4109
 6785 020f 01       		.byte	0x1
 6786 0210 11       		.uleb128 0x11
 6787 0211 01       		.uleb128 0x1
 6788 0212 01       		.uleb128 0x1
 6789 0213 13       		.uleb128 0x13
 6790 0214 00       		.byte	0
 6791 0215 00       		.byte	0
 6792 0216 2A       		.uleb128 0x2a
 6793 0217 2E       		.uleb128 0x2e
 6794 0218 01       		.byte	0x1
 6795 0219 3F       		.uleb128 0x3f
 6796 021a 19       		.uleb128 0x19
 6797 021b 03       		.uleb128 0x3
 6798 021c 0E       		.uleb128 0xe
 6799 021d 3A       		.uleb128 0x3a
 6800 021e 0B       		.uleb128 0xb
 6801 021f 3B       		.uleb128 0x3b
 6802 0220 05       		.uleb128 0x5
 6803 0221 27       		.uleb128 0x27
 6804 0222 19       		.uleb128 0x19
 6805 0223 11       		.uleb128 0x11
 6806 0224 01       		.uleb128 0x1
 6807 0225 12       		.uleb128 0x12
 6808 0226 06       		.uleb128 0x6
 6809 0227 40       		.uleb128 0x40
 6810 0228 18       		.uleb128 0x18
 6811 0229 9742     		.uleb128 0x2117
 6812 022b 19       		.uleb128 0x19
 6813 022c 01       		.uleb128 0x1
ARM GAS  C:\Users\chemi\AppData\Local\Temp\ccHerMgL.s 			page 138


 6814 022d 13       		.uleb128 0x13
 6815 022e 00       		.byte	0
 6816 022f 00       		.byte	0
 6817 0230 2B       		.uleb128 0x2b
 6818 0231 05       		.uleb128 0x5
 6819 0232 00       		.byte	0
 6820 0233 03       		.uleb128 0x3
 6821 0234 0E       		.uleb128 0xe
 6822 0235 3A       		.uleb128 0x3a
 6823 0236 0B       		.uleb128 0xb
 6824 0237 3B       		.uleb128 0x3b
 6825 0238 05       		.uleb128 0x5
 6826 0239 49       		.uleb128 0x49
 6827 023a 13       		.uleb128 0x13
 6828 023b 02       		.uleb128 0x2
 6829 023c 17       		.uleb128 0x17
 6830 023d 00       		.byte	0
 6831 023e 00       		.byte	0
 6832 023f 2C       		.uleb128 0x2c
 6833 0240 898201   		.uleb128 0x4109
 6834 0243 01       		.byte	0x1
 6835 0244 11       		.uleb128 0x11
 6836 0245 01       		.uleb128 0x1
 6837 0246 9542     		.uleb128 0x2115
 6838 0248 19       		.uleb128 0x19
 6839 0249 31       		.uleb128 0x31
 6840 024a 13       		.uleb128 0x13
 6841 024b 00       		.byte	0
 6842 024c 00       		.byte	0
 6843 024d 2D       		.uleb128 0x2d
 6844 024e 2E       		.uleb128 0x2e
 6845 024f 01       		.byte	0x1
 6846 0250 3F       		.uleb128 0x3f
 6847 0251 19       		.uleb128 0x19
 6848 0252 03       		.uleb128 0x3
 6849 0253 0E       		.uleb128 0xe
 6850 0254 3A       		.uleb128 0x3a
 6851 0255 0B       		.uleb128 0xb
 6852 0256 3B       		.uleb128 0x3b
 6853 0257 05       		.uleb128 0x5
 6854 0258 27       		.uleb128 0x27
 6855 0259 19       		.uleb128 0x19
 6856 025a 11       		.uleb128 0x11
 6857 025b 01       		.uleb128 0x1
 6858 025c 12       		.uleb128 0x12
 6859 025d 06       		.uleb128 0x6
 6860 025e 40       		.uleb128 0x40
 6861 025f 18       		.uleb128 0x18
 6862 0260 01       		.uleb128 0x1
 6863 0261 13       		.uleb128 0x13
 6864 0262 00       		.byte	0
 6865 0263 00       		.byte	0
 6866 0264 2E       		.uleb128 0x2e
 6867 0265 34       		.uleb128 0x34
 6868 0266 00       		.byte	0
 6869 0267 03       		.uleb128 0x3
 6870 0268 0E       		.uleb128 0xe
ARM GAS  C:\Users\chemi\AppData\Local\Temp\ccHerMgL.s 			page 139


 6871 0269 3A       		.uleb128 0x3a
 6872 026a 0B       		.uleb128 0xb
 6873 026b 3B       		.uleb128 0x3b
 6874 026c 05       		.uleb128 0x5
 6875 026d 49       		.uleb128 0x49
 6876 026e 13       		.uleb128 0x13
 6877 026f 02       		.uleb128 0x2
 6878 0270 17       		.uleb128 0x17
 6879 0271 00       		.byte	0
 6880 0272 00       		.byte	0
 6881 0273 2F       		.uleb128 0x2f
 6882 0274 34       		.uleb128 0x34
 6883 0275 00       		.byte	0
 6884 0276 03       		.uleb128 0x3
 6885 0277 08       		.uleb128 0x8
 6886 0278 3A       		.uleb128 0x3a
 6887 0279 0B       		.uleb128 0xb
 6888 027a 3B       		.uleb128 0x3b
 6889 027b 05       		.uleb128 0x5
 6890 027c 49       		.uleb128 0x49
 6891 027d 13       		.uleb128 0x13
 6892 027e 02       		.uleb128 0x2
 6893 027f 17       		.uleb128 0x17
 6894 0280 00       		.byte	0
 6895 0281 00       		.byte	0
 6896 0282 30       		.uleb128 0x30
 6897 0283 2E       		.uleb128 0x2e
 6898 0284 01       		.byte	0x1
 6899 0285 3F       		.uleb128 0x3f
 6900 0286 19       		.uleb128 0x19
 6901 0287 03       		.uleb128 0x3
 6902 0288 0E       		.uleb128 0xe
 6903 0289 3A       		.uleb128 0x3a
 6904 028a 0B       		.uleb128 0xb
 6905 028b 3B       		.uleb128 0x3b
 6906 028c 05       		.uleb128 0x5
 6907 028d 27       		.uleb128 0x27
 6908 028e 19       		.uleb128 0x19
 6909 028f 49       		.uleb128 0x49
 6910 0290 13       		.uleb128 0x13
 6911 0291 11       		.uleb128 0x11
 6912 0292 01       		.uleb128 0x1
 6913 0293 12       		.uleb128 0x12
 6914 0294 06       		.uleb128 0x6
 6915 0295 40       		.uleb128 0x40
 6916 0296 18       		.uleb128 0x18
 6917 0297 9742     		.uleb128 0x2117
 6918 0299 19       		.uleb128 0x19
 6919 029a 01       		.uleb128 0x1
 6920 029b 13       		.uleb128 0x13
 6921 029c 00       		.byte	0
 6922 029d 00       		.byte	0
 6923 029e 31       		.uleb128 0x31
 6924 029f 0B       		.uleb128 0xb
 6925 02a0 01       		.byte	0x1
 6926 02a1 11       		.uleb128 0x11
 6927 02a2 01       		.uleb128 0x1
ARM GAS  C:\Users\chemi\AppData\Local\Temp\ccHerMgL.s 			page 140


 6928 02a3 12       		.uleb128 0x12
 6929 02a4 06       		.uleb128 0x6
 6930 02a5 00       		.byte	0
 6931 02a6 00       		.byte	0
 6932 02a7 32       		.uleb128 0x32
 6933 02a8 898201   		.uleb128 0x4109
 6934 02ab 01       		.byte	0x1
 6935 02ac 11       		.uleb128 0x11
 6936 02ad 01       		.uleb128 0x1
 6937 02ae 31       		.uleb128 0x31
 6938 02af 13       		.uleb128 0x13
 6939 02b0 00       		.byte	0
 6940 02b1 00       		.byte	0
 6941 02b2 33       		.uleb128 0x33
 6942 02b3 2E       		.uleb128 0x2e
 6943 02b4 01       		.byte	0x1
 6944 02b5 3F       		.uleb128 0x3f
 6945 02b6 19       		.uleb128 0x19
 6946 02b7 03       		.uleb128 0x3
 6947 02b8 0E       		.uleb128 0xe
 6948 02b9 3A       		.uleb128 0x3a
 6949 02ba 0B       		.uleb128 0xb
 6950 02bb 3B       		.uleb128 0x3b
 6951 02bc 05       		.uleb128 0x5
 6952 02bd 27       		.uleb128 0x27
 6953 02be 19       		.uleb128 0x19
 6954 02bf 11       		.uleb128 0x11
 6955 02c0 01       		.uleb128 0x1
 6956 02c1 12       		.uleb128 0x12
 6957 02c2 06       		.uleb128 0x6
 6958 02c3 40       		.uleb128 0x40
 6959 02c4 18       		.uleb128 0x18
 6960 02c5 9642     		.uleb128 0x2116
 6961 02c7 19       		.uleb128 0x19
 6962 02c8 01       		.uleb128 0x1
 6963 02c9 13       		.uleb128 0x13
 6964 02ca 00       		.byte	0
 6965 02cb 00       		.byte	0
 6966 02cc 34       		.uleb128 0x34
 6967 02cd 05       		.uleb128 0x5
 6968 02ce 00       		.byte	0
 6969 02cf 03       		.uleb128 0x3
 6970 02d0 08       		.uleb128 0x8
 6971 02d1 3A       		.uleb128 0x3a
 6972 02d2 0B       		.uleb128 0xb
 6973 02d3 3B       		.uleb128 0x3b
 6974 02d4 05       		.uleb128 0x5
 6975 02d5 49       		.uleb128 0x49
 6976 02d6 13       		.uleb128 0x13
 6977 02d7 02       		.uleb128 0x2
 6978 02d8 17       		.uleb128 0x17
 6979 02d9 00       		.byte	0
 6980 02da 00       		.byte	0
 6981 02db 35       		.uleb128 0x35
 6982 02dc 34       		.uleb128 0x34
 6983 02dd 00       		.byte	0
 6984 02de 03       		.uleb128 0x3
ARM GAS  C:\Users\chemi\AppData\Local\Temp\ccHerMgL.s 			page 141


 6985 02df 0E       		.uleb128 0xe
 6986 02e0 3A       		.uleb128 0x3a
 6987 02e1 0B       		.uleb128 0xb
 6988 02e2 3B       		.uleb128 0x3b
 6989 02e3 05       		.uleb128 0x5
 6990 02e4 49       		.uleb128 0x49
 6991 02e5 13       		.uleb128 0x13
 6992 02e6 02       		.uleb128 0x2
 6993 02e7 18       		.uleb128 0x18
 6994 02e8 00       		.byte	0
 6995 02e9 00       		.byte	0
 6996 02ea 36       		.uleb128 0x36
 6997 02eb 0B       		.uleb128 0xb
 6998 02ec 01       		.byte	0x1
 6999 02ed 55       		.uleb128 0x55
 7000 02ee 17       		.uleb128 0x17
 7001 02ef 01       		.uleb128 0x1
 7002 02f0 13       		.uleb128 0x13
 7003 02f1 00       		.byte	0
 7004 02f2 00       		.byte	0
 7005 02f3 37       		.uleb128 0x37
 7006 02f4 898201   		.uleb128 0x4109
 7007 02f7 01       		.byte	0x1
 7008 02f8 11       		.uleb128 0x11
 7009 02f9 01       		.uleb128 0x1
 7010 02fa 9342     		.uleb128 0x2113
 7011 02fc 18       		.uleb128 0x18
 7012 02fd 00       		.byte	0
 7013 02fe 00       		.byte	0
 7014 02ff 38       		.uleb128 0x38
 7015 0300 898201   		.uleb128 0x4109
 7016 0303 01       		.byte	0x1
 7017 0304 11       		.uleb128 0x11
 7018 0305 01       		.uleb128 0x1
 7019 0306 9542     		.uleb128 0x2115
 7020 0308 19       		.uleb128 0x19
 7021 0309 00       		.byte	0
 7022 030a 00       		.byte	0
 7023 030b 39       		.uleb128 0x39
 7024 030c 898201   		.uleb128 0x4109
 7025 030f 01       		.byte	0x1
 7026 0310 11       		.uleb128 0x11
 7027 0311 01       		.uleb128 0x1
 7028 0312 9542     		.uleb128 0x2115
 7029 0314 19       		.uleb128 0x19
 7030 0315 01       		.uleb128 0x1
 7031 0316 13       		.uleb128 0x13
 7032 0317 00       		.byte	0
 7033 0318 00       		.byte	0
 7034 0319 3A       		.uleb128 0x3a
 7035 031a 34       		.uleb128 0x34
 7036 031b 00       		.byte	0
 7037 031c 31       		.uleb128 0x31
 7038 031d 13       		.uleb128 0x13
 7039 031e 02       		.uleb128 0x2
 7040 031f 18       		.uleb128 0x18
 7041 0320 00       		.byte	0
ARM GAS  C:\Users\chemi\AppData\Local\Temp\ccHerMgL.s 			page 142


 7042 0321 00       		.byte	0
 7043 0322 3B       		.uleb128 0x3b
 7044 0323 34       		.uleb128 0x34
 7045 0324 00       		.byte	0
 7046 0325 31       		.uleb128 0x31
 7047 0326 13       		.uleb128 0x13
 7048 0327 00       		.byte	0
 7049 0328 00       		.byte	0
 7050 0329 3C       		.uleb128 0x3c
 7051 032a 34       		.uleb128 0x34
 7052 032b 00       		.byte	0
 7053 032c 03       		.uleb128 0x3
 7054 032d 08       		.uleb128 0x8
 7055 032e 3A       		.uleb128 0x3a
 7056 032f 0B       		.uleb128 0xb
 7057 0330 3B       		.uleb128 0x3b
 7058 0331 05       		.uleb128 0x5
 7059 0332 49       		.uleb128 0x49
 7060 0333 13       		.uleb128 0x13
 7061 0334 02       		.uleb128 0x2
 7062 0335 18       		.uleb128 0x18
 7063 0336 00       		.byte	0
 7064 0337 00       		.byte	0
 7065 0338 3D       		.uleb128 0x3d
 7066 0339 34       		.uleb128 0x34
 7067 033a 00       		.byte	0
 7068 033b 03       		.uleb128 0x3
 7069 033c 0E       		.uleb128 0xe
 7070 033d 3A       		.uleb128 0x3a
 7071 033e 0B       		.uleb128 0xb
 7072 033f 3B       		.uleb128 0x3b
 7073 0340 05       		.uleb128 0x5
 7074 0341 49       		.uleb128 0x49
 7075 0342 13       		.uleb128 0x13
 7076 0343 3F       		.uleb128 0x3f
 7077 0344 19       		.uleb128 0x19
 7078 0345 3C       		.uleb128 0x3c
 7079 0346 19       		.uleb128 0x19
 7080 0347 00       		.byte	0
 7081 0348 00       		.byte	0
 7082 0349 3E       		.uleb128 0x3e
 7083 034a 35       		.uleb128 0x35
 7084 034b 00       		.byte	0
 7085 034c 49       		.uleb128 0x49
 7086 034d 13       		.uleb128 0x13
 7087 034e 00       		.byte	0
 7088 034f 00       		.byte	0
 7089 0350 3F       		.uleb128 0x3f
 7090 0351 34       		.uleb128 0x34
 7091 0352 00       		.byte	0
 7092 0353 03       		.uleb128 0x3
 7093 0354 0E       		.uleb128 0xe
 7094 0355 3A       		.uleb128 0x3a
 7095 0356 0B       		.uleb128 0xb
 7096 0357 3B       		.uleb128 0x3b
 7097 0358 0B       		.uleb128 0xb
 7098 0359 49       		.uleb128 0x49
ARM GAS  C:\Users\chemi\AppData\Local\Temp\ccHerMgL.s 			page 143


 7099 035a 13       		.uleb128 0x13
 7100 035b 3F       		.uleb128 0x3f
 7101 035c 19       		.uleb128 0x19
 7102 035d 02       		.uleb128 0x2
 7103 035e 18       		.uleb128 0x18
 7104 035f 00       		.byte	0
 7105 0360 00       		.byte	0
 7106 0361 40       		.uleb128 0x40
 7107 0362 2E       		.uleb128 0x2e
 7108 0363 00       		.byte	0
 7109 0364 3F       		.uleb128 0x3f
 7110 0365 19       		.uleb128 0x19
 7111 0366 3C       		.uleb128 0x3c
 7112 0367 19       		.uleb128 0x19
 7113 0368 6E       		.uleb128 0x6e
 7114 0369 0E       		.uleb128 0xe
 7115 036a 03       		.uleb128 0x3
 7116 036b 0E       		.uleb128 0xe
 7117 036c 3A       		.uleb128 0x3a
 7118 036d 0B       		.uleb128 0xb
 7119 036e 3B       		.uleb128 0x3b
 7120 036f 0B       		.uleb128 0xb
 7121 0370 00       		.byte	0
 7122 0371 00       		.byte	0
 7123 0372 41       		.uleb128 0x41
 7124 0373 2E       		.uleb128 0x2e
 7125 0374 00       		.byte	0
 7126 0375 3F       		.uleb128 0x3f
 7127 0376 19       		.uleb128 0x19
 7128 0377 3C       		.uleb128 0x3c
 7129 0378 19       		.uleb128 0x19
 7130 0379 6E       		.uleb128 0x6e
 7131 037a 0E       		.uleb128 0xe
 7132 037b 03       		.uleb128 0x3
 7133 037c 0E       		.uleb128 0xe
 7134 037d 3A       		.uleb128 0x3a
 7135 037e 0B       		.uleb128 0xb
 7136 037f 3B       		.uleb128 0x3b
 7137 0380 05       		.uleb128 0x5
 7138 0381 00       		.byte	0
 7139 0382 00       		.byte	0
 7140 0383 00       		.byte	0
 7141              		.section	.debug_loc,"",%progbits
 7142              	.Ldebug_loc0:
 7143              	.LLST0:
 7144 0000 00000000 		.4byte	.LVL0
 7145 0004 16000000 		.4byte	.LVL2
 7146 0008 0100     		.2byte	0x1
 7147 000a 50       		.byte	0x50
 7148 000b 16000000 		.4byte	.LVL2
 7149 000f 1A000000 		.4byte	.LVL3
 7150 0013 0400     		.2byte	0x4
 7151 0015 F3       		.byte	0xf3
 7152 0016 01       		.uleb128 0x1
 7153 0017 50       		.byte	0x50
 7154 0018 9F       		.byte	0x9f
 7155 0019 1A000000 		.4byte	.LVL3
ARM GAS  C:\Users\chemi\AppData\Local\Temp\ccHerMgL.s 			page 144


 7156 001d 26000000 		.4byte	.LVL4
 7157 0021 0100     		.2byte	0x1
 7158 0023 50       		.byte	0x50
 7159 0024 26000000 		.4byte	.LVL4
 7160 0028 28000000 		.4byte	.LVL5
 7161 002c 0400     		.2byte	0x4
 7162 002e F3       		.byte	0xf3
 7163 002f 01       		.uleb128 0x1
 7164 0030 50       		.byte	0x50
 7165 0031 9F       		.byte	0x9f
 7166 0032 28000000 		.4byte	.LVL5
 7167 0036 3E000000 		.4byte	.LVL6
 7168 003a 0100     		.2byte	0x1
 7169 003c 50       		.byte	0x50
 7170 003d 3E000000 		.4byte	.LVL6
 7171 0041 40000000 		.4byte	.LVL7
 7172 0045 0400     		.2byte	0x4
 7173 0047 F3       		.byte	0xf3
 7174 0048 01       		.uleb128 0x1
 7175 0049 50       		.byte	0x50
 7176 004a 9F       		.byte	0x9f
 7177 004b 40000000 		.4byte	.LVL7
 7178 004f 4A000000 		.4byte	.LVL8
 7179 0053 0100     		.2byte	0x1
 7180 0055 50       		.byte	0x50
 7181 0056 4A000000 		.4byte	.LVL8
 7182 005a 4C000000 		.4byte	.LVL9
 7183 005e 0400     		.2byte	0x4
 7184 0060 F3       		.byte	0xf3
 7185 0061 01       		.uleb128 0x1
 7186 0062 50       		.byte	0x50
 7187 0063 9F       		.byte	0x9f
 7188 0064 4C000000 		.4byte	.LVL9
 7189 0068 4E000000 		.4byte	.LVL10
 7190 006c 0100     		.2byte	0x1
 7191 006e 50       		.byte	0x50
 7192 006f 4E000000 		.4byte	.LVL10
 7193 0073 50000000 		.4byte	.LVL11
 7194 0077 0400     		.2byte	0x4
 7195 0079 F3       		.byte	0xf3
 7196 007a 01       		.uleb128 0x1
 7197 007b 50       		.byte	0x50
 7198 007c 9F       		.byte	0x9f
 7199 007d 50000000 		.4byte	.LVL11
 7200 0081 52000000 		.4byte	.LVL12
 7201 0085 0100     		.2byte	0x1
 7202 0087 50       		.byte	0x50
 7203 0088 52000000 		.4byte	.LVL12
 7204 008c 68000000 		.4byte	.LFE68
 7205 0090 0400     		.2byte	0x4
 7206 0092 F3       		.byte	0xf3
 7207 0093 01       		.uleb128 0x1
 7208 0094 50       		.byte	0x50
 7209 0095 9F       		.byte	0x9f
 7210 0096 00000000 		.4byte	0
 7211 009a 00000000 		.4byte	0
 7212              	.LLST1:
ARM GAS  C:\Users\chemi\AppData\Local\Temp\ccHerMgL.s 			page 145


 7213 009e 0C000000 		.4byte	.LVL1
 7214 00a2 16000000 		.4byte	.LVL2
 7215 00a6 0100     		.2byte	0x1
 7216 00a8 50       		.byte	0x50
 7217 00a9 16000000 		.4byte	.LVL2
 7218 00ad 1A000000 		.4byte	.LVL3
 7219 00b1 0400     		.2byte	0x4
 7220 00b3 F3       		.byte	0xf3
 7221 00b4 01       		.uleb128 0x1
 7222 00b5 50       		.byte	0x50
 7223 00b6 9F       		.byte	0x9f
 7224 00b7 4C000000 		.4byte	.LVL9
 7225 00bb 4E000000 		.4byte	.LVL10
 7226 00bf 0100     		.2byte	0x1
 7227 00c1 50       		.byte	0x50
 7228 00c2 4E000000 		.4byte	.LVL10
 7229 00c6 50000000 		.4byte	.LVL11
 7230 00ca 0400     		.2byte	0x4
 7231 00cc F3       		.byte	0xf3
 7232 00cd 01       		.uleb128 0x1
 7233 00ce 50       		.byte	0x50
 7234 00cf 9F       		.byte	0x9f
 7235 00d0 00000000 		.4byte	0
 7236 00d4 00000000 		.4byte	0
 7237              	.LLST2:
 7238 00d8 00000000 		.4byte	.LVL13
 7239 00dc 2E000000 		.4byte	.LVL16
 7240 00e0 0100     		.2byte	0x1
 7241 00e2 50       		.byte	0x50
 7242 00e3 2E000000 		.4byte	.LVL16
 7243 00e7 46000000 		.4byte	.LVL23
 7244 00eb 0400     		.2byte	0x4
 7245 00ed F3       		.byte	0xf3
 7246 00ee 01       		.uleb128 0x1
 7247 00ef 50       		.byte	0x50
 7248 00f0 9F       		.byte	0x9f
 7249 00f1 46000000 		.4byte	.LVL23
 7250 00f5 4C000000 		.4byte	.LVL26
 7251 00f9 0100     		.2byte	0x1
 7252 00fb 50       		.byte	0x50
 7253 00fc 4C000000 		.4byte	.LVL26
 7254 0100 7C000000 		.4byte	.LVL28
 7255 0104 0400     		.2byte	0x4
 7256 0106 F3       		.byte	0xf3
 7257 0107 01       		.uleb128 0x1
 7258 0108 50       		.byte	0x50
 7259 0109 9F       		.byte	0x9f
 7260 010a 7C000000 		.4byte	.LVL28
 7261 010e 84000000 		.4byte	.LVL30
 7262 0112 0100     		.2byte	0x1
 7263 0114 50       		.byte	0x50
 7264 0115 84000000 		.4byte	.LVL30
 7265 0119 9C000000 		.4byte	.LVL37
 7266 011d 0400     		.2byte	0x4
 7267 011f F3       		.byte	0xf3
 7268 0120 01       		.uleb128 0x1
 7269 0121 50       		.byte	0x50
ARM GAS  C:\Users\chemi\AppData\Local\Temp\ccHerMgL.s 			page 146


 7270 0122 9F       		.byte	0x9f
 7271 0123 9C000000 		.4byte	.LVL37
 7272 0127 A2000000 		.4byte	.LVL40
 7273 012b 0100     		.2byte	0x1
 7274 012d 50       		.byte	0x50
 7275 012e A2000000 		.4byte	.LVL40
 7276 0132 D4000000 		.4byte	.LVL42
 7277 0136 0400     		.2byte	0x4
 7278 0138 F3       		.byte	0xf3
 7279 0139 01       		.uleb128 0x1
 7280 013a 50       		.byte	0x50
 7281 013b 9F       		.byte	0x9f
 7282 013c D4000000 		.4byte	.LVL42
 7283 0140 DE000000 		.4byte	.LVL44
 7284 0144 0100     		.2byte	0x1
 7285 0146 50       		.byte	0x50
 7286 0147 DE000000 		.4byte	.LVL44
 7287 014b 0C010000 		.4byte	.LVL53
 7288 014f 0400     		.2byte	0x4
 7289 0151 F3       		.byte	0xf3
 7290 0152 01       		.uleb128 0x1
 7291 0153 50       		.byte	0x50
 7292 0154 9F       		.byte	0x9f
 7293 0155 0C010000 		.4byte	.LVL53
 7294 0159 2C010000 		.4byte	.LVL57
 7295 015d 0100     		.2byte	0x1
 7296 015f 50       		.byte	0x50
 7297 0160 2C010000 		.4byte	.LVL57
 7298 0164 70010000 		.4byte	.LFE69
 7299 0168 0400     		.2byte	0x4
 7300 016a F3       		.byte	0xf3
 7301 016b 01       		.uleb128 0x1
 7302 016c 50       		.byte	0x50
 7303 016d 9F       		.byte	0x9f
 7304 016e 00000000 		.4byte	0
 7305 0172 00000000 		.4byte	0
 7306              	.LLST3:
 7307 0176 00000000 		.4byte	.LVL13
 7308 017a 2C000000 		.4byte	.LVL15
 7309 017e 0100     		.2byte	0x1
 7310 0180 51       		.byte	0x51
 7311 0181 2C000000 		.4byte	.LVL15
 7312 0185 46000000 		.4byte	.LVL23
 7313 0189 0100     		.2byte	0x1
 7314 018b 56       		.byte	0x56
 7315 018c 46000000 		.4byte	.LVL23
 7316 0190 4A000000 		.4byte	.LVL25
 7317 0194 0100     		.2byte	0x1
 7318 0196 51       		.byte	0x51
 7319 0197 4A000000 		.4byte	.LVL25
 7320 019b 7C000000 		.4byte	.LVL28
 7321 019f 0100     		.2byte	0x1
 7322 01a1 56       		.byte	0x56
 7323 01a2 7C000000 		.4byte	.LVL28
 7324 01a6 82000000 		.4byte	.LVL29
 7325 01aa 0100     		.2byte	0x1
 7326 01ac 51       		.byte	0x51
ARM GAS  C:\Users\chemi\AppData\Local\Temp\ccHerMgL.s 			page 147


 7327 01ad 82000000 		.4byte	.LVL29
 7328 01b1 8A000000 		.4byte	.LVL32
 7329 01b5 0100     		.2byte	0x1
 7330 01b7 56       		.byte	0x56
 7331 01b8 8A000000 		.4byte	.LVL32
 7332 01bc 9C000000 		.4byte	.LVL37
 7333 01c0 0400     		.2byte	0x4
 7334 01c2 F3       		.byte	0xf3
 7335 01c3 01       		.uleb128 0x1
 7336 01c4 51       		.byte	0x51
 7337 01c5 9F       		.byte	0x9f
 7338 01c6 9C000000 		.4byte	.LVL37
 7339 01ca A0000000 		.4byte	.LVL39
 7340 01ce 0100     		.2byte	0x1
 7341 01d0 51       		.byte	0x51
 7342 01d1 A0000000 		.4byte	.LVL39
 7343 01d5 A6000000 		.4byte	.LVL41
 7344 01d9 0100     		.2byte	0x1
 7345 01db 56       		.byte	0x56
 7346 01dc A6000000 		.4byte	.LVL41
 7347 01e0 D4000000 		.4byte	.LVL42
 7348 01e4 0400     		.2byte	0x4
 7349 01e6 F3       		.byte	0xf3
 7350 01e7 01       		.uleb128 0x1
 7351 01e8 51       		.byte	0x51
 7352 01e9 9F       		.byte	0x9f
 7353 01ea D4000000 		.4byte	.LVL42
 7354 01ee DC000000 		.4byte	.LVL43
 7355 01f2 0100     		.2byte	0x1
 7356 01f4 51       		.byte	0x51
 7357 01f5 DC000000 		.4byte	.LVL43
 7358 01f9 08010000 		.4byte	.LVL52
 7359 01fd 0100     		.2byte	0x1
 7360 01ff 56       		.byte	0x56
 7361 0200 08010000 		.4byte	.LVL52
 7362 0204 0C010000 		.4byte	.LVL53
 7363 0208 0400     		.2byte	0x4
 7364 020a F3       		.byte	0xf3
 7365 020b 01       		.uleb128 0x1
 7366 020c 51       		.byte	0x51
 7367 020d 9F       		.byte	0x9f
 7368 020e 0C010000 		.4byte	.LVL53
 7369 0212 14010000 		.4byte	.LVL55
 7370 0216 0100     		.2byte	0x1
 7371 0218 51       		.byte	0x51
 7372 0219 14010000 		.4byte	.LVL55
 7373 021d 70010000 		.4byte	.LFE69
 7374 0221 0400     		.2byte	0x4
 7375 0223 F3       		.byte	0xf3
 7376 0224 01       		.uleb128 0x1
 7377 0225 51       		.byte	0x51
 7378 0226 9F       		.byte	0x9f
 7379 0227 00000000 		.4byte	0
 7380 022b 00000000 		.4byte	0
 7381              	.LLST4:
 7382 022f 00000000 		.4byte	.LVL13
 7383 0233 31000000 		.4byte	.LVL17-1
ARM GAS  C:\Users\chemi\AppData\Local\Temp\ccHerMgL.s 			page 148


 7384 0237 0100     		.2byte	0x1
 7385 0239 52       		.byte	0x52
 7386 023a 31000000 		.4byte	.LVL17-1
 7387 023e 46000000 		.4byte	.LVL23
 7388 0242 0400     		.2byte	0x4
 7389 0244 F3       		.byte	0xf3
 7390 0245 01       		.uleb128 0x1
 7391 0246 52       		.byte	0x52
 7392 0247 9F       		.byte	0x9f
 7393 0248 46000000 		.4byte	.LVL23
 7394 024c 48000000 		.4byte	.LVL24
 7395 0250 0100     		.2byte	0x1
 7396 0252 52       		.byte	0x52
 7397 0253 48000000 		.4byte	.LVL24
 7398 0257 7C000000 		.4byte	.LVL28
 7399 025b 0400     		.2byte	0x4
 7400 025d F3       		.byte	0xf3
 7401 025e 01       		.uleb128 0x1
 7402 025f 52       		.byte	0x52
 7403 0260 9F       		.byte	0x9f
 7404 0261 7C000000 		.4byte	.LVL28
 7405 0265 87000000 		.4byte	.LVL31-1
 7406 0269 0100     		.2byte	0x1
 7407 026b 52       		.byte	0x52
 7408 026c 87000000 		.4byte	.LVL31-1
 7409 0270 9C000000 		.4byte	.LVL37
 7410 0274 0400     		.2byte	0x4
 7411 0276 F3       		.byte	0xf3
 7412 0277 01       		.uleb128 0x1
 7413 0278 52       		.byte	0x52
 7414 0279 9F       		.byte	0x9f
 7415 027a 9C000000 		.4byte	.LVL37
 7416 027e 9E000000 		.4byte	.LVL38
 7417 0282 0100     		.2byte	0x1
 7418 0284 52       		.byte	0x52
 7419 0285 9E000000 		.4byte	.LVL38
 7420 0289 D4000000 		.4byte	.LVL42
 7421 028d 0400     		.2byte	0x4
 7422 028f F3       		.byte	0xf3
 7423 0290 01       		.uleb128 0x1
 7424 0291 52       		.byte	0x52
 7425 0292 9F       		.byte	0x9f
 7426 0293 D4000000 		.4byte	.LVL42
 7427 0297 E1000000 		.4byte	.LVL45-1
 7428 029b 0100     		.2byte	0x1
 7429 029d 52       		.byte	0x52
 7430 029e E1000000 		.4byte	.LVL45-1
 7431 02a2 0C010000 		.4byte	.LVL53
 7432 02a6 0400     		.2byte	0x4
 7433 02a8 F3       		.byte	0xf3
 7434 02a9 01       		.uleb128 0x1
 7435 02aa 52       		.byte	0x52
 7436 02ab 9F       		.byte	0x9f
 7437 02ac 0C010000 		.4byte	.LVL53
 7438 02b0 10010000 		.4byte	.LVL54
 7439 02b4 0100     		.2byte	0x1
 7440 02b6 52       		.byte	0x52
ARM GAS  C:\Users\chemi\AppData\Local\Temp\ccHerMgL.s 			page 149


 7441 02b7 10010000 		.4byte	.LVL54
 7442 02bb 70010000 		.4byte	.LFE69
 7443 02bf 0400     		.2byte	0x4
 7444 02c1 F3       		.byte	0xf3
 7445 02c2 01       		.uleb128 0x1
 7446 02c3 52       		.byte	0x52
 7447 02c4 9F       		.byte	0x9f
 7448 02c5 00000000 		.4byte	0
 7449 02c9 00000000 		.4byte	0
 7450              	.LLST5:
 7451 02cd 00000000 		.4byte	.LVL13
 7452 02d1 1A000000 		.4byte	.LVL14
 7453 02d5 0100     		.2byte	0x1
 7454 02d7 53       		.byte	0x53
 7455 02d8 1A000000 		.4byte	.LVL14
 7456 02dc 66010000 		.4byte	.LVL60
 7457 02e0 0100     		.2byte	0x1
 7458 02e2 57       		.byte	0x57
 7459 02e3 66010000 		.4byte	.LVL60
 7460 02e7 70010000 		.4byte	.LFE69
 7461 02eb 0400     		.2byte	0x4
 7462 02ed F3       		.byte	0xf3
 7463 02ee 01       		.uleb128 0x1
 7464 02ef 53       		.byte	0x53
 7465 02f0 9F       		.byte	0x9f
 7466 02f1 00000000 		.4byte	0
 7467 02f5 00000000 		.4byte	0
 7468              	.LLST6:
 7469 02f9 44000000 		.4byte	.LVL22
 7470 02fd 46000000 		.4byte	.LVL23
 7471 0301 0100     		.2byte	0x1
 7472 0303 50       		.byte	0x50
 7473 0304 50000000 		.4byte	.LVL27
 7474 0308 7C000000 		.4byte	.LVL28
 7475 030c 0100     		.2byte	0x1
 7476 030e 50       		.byte	0x50
 7477 030f 9A000000 		.4byte	.LVL36
 7478 0313 9C000000 		.4byte	.LVL37
 7479 0317 0100     		.2byte	0x1
 7480 0319 50       		.byte	0x50
 7481 031a A6000000 		.4byte	.LVL41
 7482 031e D4000000 		.4byte	.LVL42
 7483 0322 0100     		.2byte	0x1
 7484 0324 50       		.byte	0x50
 7485 0325 00000000 		.4byte	0
 7486 0329 00000000 		.4byte	0
 7487              	.LLST7:
 7488 032d 34000000 		.4byte	.LVL18
 7489 0331 36000000 		.4byte	.LVL19
 7490 0335 0100     		.2byte	0x1
 7491 0337 50       		.byte	0x50
 7492 0338 36000000 		.4byte	.LVL19
 7493 033c 46000000 		.4byte	.LVL23
 7494 0340 0100     		.2byte	0x1
 7495 0342 55       		.byte	0x55
 7496 0343 8A000000 		.4byte	.LVL32
 7497 0347 8C000000 		.4byte	.LVL33
ARM GAS  C:\Users\chemi\AppData\Local\Temp\ccHerMgL.s 			page 150


 7498 034b 0100     		.2byte	0x1
 7499 034d 50       		.byte	0x50
 7500 034e 8C000000 		.4byte	.LVL33
 7501 0352 9C000000 		.4byte	.LVL37
 7502 0356 0100     		.2byte	0x1
 7503 0358 56       		.byte	0x56
 7504 0359 E4000000 		.4byte	.LVL46
 7505 035d E6000000 		.4byte	.LVL47
 7506 0361 0100     		.2byte	0x1
 7507 0363 50       		.byte	0x50
 7508 0364 E6000000 		.4byte	.LVL47
 7509 0368 08010000 		.4byte	.LVL52
 7510 036c 0100     		.2byte	0x1
 7511 036e 55       		.byte	0x55
 7512 036f 00000000 		.4byte	0
 7513 0373 00000000 		.4byte	0
 7514              	.LLST8:
 7515 0377 14010000 		.4byte	.LVL55
 7516 037b 2C010000 		.4byte	.LVL57
 7517 037f 0100     		.2byte	0x1
 7518 0381 53       		.byte	0x53
 7519 0382 00000000 		.4byte	0
 7520 0386 00000000 		.4byte	0
 7521              	.LLST9:
 7522 038a 00000000 		.4byte	.LVL61
 7523 038e 10000000 		.4byte	.LVL64
 7524 0392 0100     		.2byte	0x1
 7525 0394 50       		.byte	0x50
 7526 0395 10000000 		.4byte	.LVL64
 7527 0399 4E000000 		.4byte	.LVL71
 7528 039d 0100     		.2byte	0x1
 7529 039f 55       		.byte	0x55
 7530 03a0 4E000000 		.4byte	.LVL71
 7531 03a4 D4010000 		.4byte	.LFE70
 7532 03a8 0400     		.2byte	0x4
 7533 03aa F3       		.byte	0xf3
 7534 03ab 01       		.uleb128 0x1
 7535 03ac 50       		.byte	0x50
 7536 03ad 9F       		.byte	0x9f
 7537 03ae 00000000 		.4byte	0
 7538 03b2 00000000 		.4byte	0
 7539              	.LLST10:
 7540 03b6 00000000 		.4byte	.LVL61
 7541 03ba 0E000000 		.4byte	.LVL63
 7542 03be 0100     		.2byte	0x1
 7543 03c0 51       		.byte	0x51
 7544 03c1 0E000000 		.4byte	.LVL63
 7545 03c5 D4010000 		.4byte	.LFE70
 7546 03c9 0400     		.2byte	0x4
 7547 03cb F3       		.byte	0xf3
 7548 03cc 01       		.uleb128 0x1
 7549 03cd 51       		.byte	0x51
 7550 03ce 9F       		.byte	0x9f
 7551 03cf 00000000 		.4byte	0
 7552 03d3 00000000 		.4byte	0
 7553              	.LLST11:
 7554 03d7 00000000 		.4byte	.LVL61
ARM GAS  C:\Users\chemi\AppData\Local\Temp\ccHerMgL.s 			page 151


 7555 03db 0C000000 		.4byte	.LVL62
 7556 03df 0100     		.2byte	0x1
 7557 03e1 52       		.byte	0x52
 7558 03e2 0C000000 		.4byte	.LVL62
 7559 03e6 A4010000 		.4byte	.LVL96
 7560 03ea 0100     		.2byte	0x1
 7561 03ec 54       		.byte	0x54
 7562 03ed A4010000 		.4byte	.LVL96
 7563 03f1 D4010000 		.4byte	.LFE70
 7564 03f5 0400     		.2byte	0x4
 7565 03f7 F3       		.byte	0xf3
 7566 03f8 01       		.uleb128 0x1
 7567 03f9 52       		.byte	0x52
 7568 03fa 9F       		.byte	0x9f
 7569 03fb 00000000 		.4byte	0
 7570 03ff 00000000 		.4byte	0
 7571              	.LLST12:
 7572 0403 00000000 		.4byte	.LVL61
 7573 0407 15000000 		.4byte	.LVL65-1
 7574 040b 0100     		.2byte	0x1
 7575 040d 53       		.byte	0x53
 7576 040e 15000000 		.4byte	.LVL65-1
 7577 0412 D4010000 		.4byte	.LFE70
 7578 0416 0400     		.2byte	0x4
 7579 0418 F3       		.byte	0xf3
 7580 0419 01       		.uleb128 0x1
 7581 041a 53       		.byte	0x53
 7582 041b 9F       		.byte	0x9f
 7583 041c 00000000 		.4byte	0
 7584 0420 00000000 		.4byte	0
 7585              	.LLST13:
 7586 0424 4C000000 		.4byte	.LVL70
 7587 0428 4E000000 		.4byte	.LVL71
 7588 042c 0200     		.2byte	0x2
 7589 042e 30       		.byte	0x30
 7590 042f 9F       		.byte	0x9f
 7591 0430 00000000 		.4byte	0
 7592 0434 00000000 		.4byte	0
 7593              	.LLST14:
 7594 0438 00000000 		.4byte	.LVL61
 7595 043c 4E000000 		.4byte	.LVL71
 7596 0440 0200     		.2byte	0x2
 7597 0442 30       		.byte	0x30
 7598 0443 9F       		.byte	0x9f
 7599 0444 4E000000 		.4byte	.LVL71
 7600 0448 A4010000 		.4byte	.LVL96
 7601 044c 0100     		.2byte	0x1
 7602 044e 58       		.byte	0x58
 7603 044f 00000000 		.4byte	0
 7604 0453 00000000 		.4byte	0
 7605              	.LLST15:
 7606 0457 00000000 		.4byte	.LVL61
 7607 045b 4E000000 		.4byte	.LVL71
 7608 045f 0200     		.2byte	0x2
 7609 0461 30       		.byte	0x30
 7610 0462 9F       		.byte	0x9f
 7611 0463 4E000000 		.4byte	.LVL71
ARM GAS  C:\Users\chemi\AppData\Local\Temp\ccHerMgL.s 			page 152


 7612 0467 A4010000 		.4byte	.LVL96
 7613 046b 0100     		.2byte	0x1
 7614 046d 56       		.byte	0x56
 7615 046e 00000000 		.4byte	0
 7616 0472 00000000 		.4byte	0
 7617              	.LLST16:
 7618 0476 20010000 		.4byte	.LVL83
 7619 047a 27010000 		.4byte	.LVL85-1
 7620 047e 0100     		.2byte	0x1
 7621 0480 51       		.byte	0x51
 7622 0481 00000000 		.4byte	0
 7623 0485 00000000 		.4byte	0
 7624              	.LLST17:
 7625 0489 00000000 		.4byte	.LVL97
 7626 048d 0E000000 		.4byte	.LVL99
 7627 0491 0100     		.2byte	0x1
 7628 0493 50       		.byte	0x50
 7629 0494 0E000000 		.4byte	.LVL99
 7630 0498 2E000000 		.4byte	.LVL103
 7631 049c 0100     		.2byte	0x1
 7632 049e 55       		.byte	0x55
 7633 049f 2E000000 		.4byte	.LVL103
 7634 04a3 33000000 		.4byte	.LVL104-1
 7635 04a7 0100     		.2byte	0x1
 7636 04a9 50       		.byte	0x50
 7637 04aa 33000000 		.4byte	.LVL104-1
 7638 04ae 3C000000 		.4byte	.LFE71
 7639 04b2 0400     		.2byte	0x4
 7640 04b4 F3       		.byte	0xf3
 7641 04b5 01       		.uleb128 0x1
 7642 04b6 50       		.byte	0x50
 7643 04b7 9F       		.byte	0x9f
 7644 04b8 00000000 		.4byte	0
 7645 04bc 00000000 		.4byte	0
 7646              	.LLST18:
 7647 04c0 00000000 		.4byte	.LVL97
 7648 04c4 0C000000 		.4byte	.LVL98
 7649 04c8 0100     		.2byte	0x1
 7650 04ca 51       		.byte	0x51
 7651 04cb 0C000000 		.4byte	.LVL98
 7652 04cf 3C000000 		.4byte	.LFE71
 7653 04d3 0400     		.2byte	0x4
 7654 04d5 F3       		.byte	0xf3
 7655 04d6 01       		.uleb128 0x1
 7656 04d7 51       		.byte	0x51
 7657 04d8 9F       		.byte	0x9f
 7658 04d9 00000000 		.4byte	0
 7659 04dd 00000000 		.4byte	0
 7660              	.LLST19:
 7661 04e1 00000000 		.4byte	.LVL97
 7662 04e5 0F000000 		.4byte	.LVL100-1
 7663 04e9 0100     		.2byte	0x1
 7664 04eb 52       		.byte	0x52
 7665 04ec 0F000000 		.4byte	.LVL100-1
 7666 04f0 2E000000 		.4byte	.LVL103
 7667 04f4 0100     		.2byte	0x1
 7668 04f6 54       		.byte	0x54
ARM GAS  C:\Users\chemi\AppData\Local\Temp\ccHerMgL.s 			page 153


 7669 04f7 2E000000 		.4byte	.LVL103
 7670 04fb 33000000 		.4byte	.LVL104-1
 7671 04ff 0100     		.2byte	0x1
 7672 0501 52       		.byte	0x52
 7673 0502 33000000 		.4byte	.LVL104-1
 7674 0506 3C000000 		.4byte	.LFE71
 7675 050a 0400     		.2byte	0x4
 7676 050c F3       		.byte	0xf3
 7677 050d 01       		.uleb128 0x1
 7678 050e 52       		.byte	0x52
 7679 050f 9F       		.byte	0x9f
 7680 0510 00000000 		.4byte	0
 7681 0514 00000000 		.4byte	0
 7682              	.LLST20:
 7683 0518 00000000 		.4byte	.LVL105
 7684 051c 44000000 		.4byte	.LVL115
 7685 0520 0100     		.2byte	0x1
 7686 0522 50       		.byte	0x50
 7687 0523 44000000 		.4byte	.LVL115
 7688 0527 5E000000 		.4byte	.LVL117
 7689 052b 0400     		.2byte	0x4
 7690 052d F3       		.byte	0xf3
 7691 052e 01       		.uleb128 0x1
 7692 052f 50       		.byte	0x50
 7693 0530 9F       		.byte	0x9f
 7694 0531 5E000000 		.4byte	.LVL117
 7695 0535 8E000000 		.4byte	.LVL127
 7696 0539 0100     		.2byte	0x1
 7697 053b 50       		.byte	0x50
 7698 053c 8E000000 		.4byte	.LVL127
 7699 0540 C6000000 		.4byte	.LVL136
 7700 0544 0400     		.2byte	0x4
 7701 0546 F3       		.byte	0xf3
 7702 0547 01       		.uleb128 0x1
 7703 0548 50       		.byte	0x50
 7704 0549 9F       		.byte	0x9f
 7705 054a C6000000 		.4byte	.LVL136
 7706 054e CA000000 		.4byte	.LVL137
 7707 0552 0100     		.2byte	0x1
 7708 0554 50       		.byte	0x50
 7709 0555 CA000000 		.4byte	.LVL137
 7710 0559 DE000000 		.4byte	.LVL140
 7711 055d 0400     		.2byte	0x4
 7712 055f F3       		.byte	0xf3
 7713 0560 01       		.uleb128 0x1
 7714 0561 50       		.byte	0x50
 7715 0562 9F       		.byte	0x9f
 7716 0563 DE000000 		.4byte	.LVL140
 7717 0567 F2000000 		.4byte	.LVL143
 7718 056b 0100     		.2byte	0x1
 7719 056d 50       		.byte	0x50
 7720 056e F2000000 		.4byte	.LVL143
 7721 0572 20010000 		.4byte	.LFE72
 7722 0576 0400     		.2byte	0x4
 7723 0578 F3       		.byte	0xf3
 7724 0579 01       		.uleb128 0x1
 7725 057a 50       		.byte	0x50
ARM GAS  C:\Users\chemi\AppData\Local\Temp\ccHerMgL.s 			page 154


 7726 057b 9F       		.byte	0x9f
 7727 057c 00000000 		.4byte	0
 7728 0580 00000000 		.4byte	0
 7729              	.LLST21:
 7730 0584 00000000 		.4byte	.LVL105
 7731 0588 3E000000 		.4byte	.LVL114
 7732 058c 0100     		.2byte	0x1
 7733 058e 51       		.byte	0x51
 7734 058f 3E000000 		.4byte	.LVL114
 7735 0593 66000000 		.4byte	.LVL119
 7736 0597 0400     		.2byte	0x4
 7737 0599 F3       		.byte	0xf3
 7738 059a 01       		.uleb128 0x1
 7739 059b 51       		.byte	0x51
 7740 059c 9F       		.byte	0x9f
 7741 059d 66000000 		.4byte	.LVL119
 7742 05a1 9C000000 		.4byte	.LVL128
 7743 05a5 0100     		.2byte	0x1
 7744 05a7 51       		.byte	0x51
 7745 05a8 9C000000 		.4byte	.LVL128
 7746 05ac C0000000 		.4byte	.LVL134
 7747 05b0 0400     		.2byte	0x4
 7748 05b2 F3       		.byte	0xf3
 7749 05b3 01       		.uleb128 0x1
 7750 05b4 51       		.byte	0x51
 7751 05b5 9F       		.byte	0x9f
 7752 05b6 C0000000 		.4byte	.LVL134
 7753 05ba C4000000 		.4byte	.LVL135
 7754 05be 0100     		.2byte	0x1
 7755 05c0 51       		.byte	0x51
 7756 05c1 C4000000 		.4byte	.LVL135
 7757 05c5 C6000000 		.4byte	.LVL136
 7758 05c9 0400     		.2byte	0x4
 7759 05cb F3       		.byte	0xf3
 7760 05cc 01       		.uleb128 0x1
 7761 05cd 51       		.byte	0x51
 7762 05ce 9F       		.byte	0x9f
 7763 05cf C6000000 		.4byte	.LVL136
 7764 05d3 CD000000 		.4byte	.LVL138-1
 7765 05d7 0100     		.2byte	0x1
 7766 05d9 51       		.byte	0x51
 7767 05da CD000000 		.4byte	.LVL138-1
 7768 05de DE000000 		.4byte	.LVL140
 7769 05e2 0400     		.2byte	0x4
 7770 05e4 F3       		.byte	0xf3
 7771 05e5 01       		.uleb128 0x1
 7772 05e6 51       		.byte	0x51
 7773 05e7 9F       		.byte	0x9f
 7774 05e8 DE000000 		.4byte	.LVL140
 7775 05ec E8000000 		.4byte	.LVL141
 7776 05f0 0100     		.2byte	0x1
 7777 05f2 51       		.byte	0x51
 7778 05f3 E8000000 		.4byte	.LVL141
 7779 05f7 EA000000 		.4byte	.LVL142
 7780 05fb 0400     		.2byte	0x4
 7781 05fd F3       		.byte	0xf3
 7782 05fe 01       		.uleb128 0x1
ARM GAS  C:\Users\chemi\AppData\Local\Temp\ccHerMgL.s 			page 155


 7783 05ff 51       		.byte	0x51
 7784 0600 9F       		.byte	0x9f
 7785 0601 EA000000 		.4byte	.LVL142
 7786 0605 F2000000 		.4byte	.LVL143
 7787 0609 0100     		.2byte	0x1
 7788 060b 51       		.byte	0x51
 7789 060c F2000000 		.4byte	.LVL143
 7790 0610 20010000 		.4byte	.LFE72
 7791 0614 0400     		.2byte	0x4
 7792 0616 F3       		.byte	0xf3
 7793 0617 01       		.uleb128 0x1
 7794 0618 51       		.byte	0x51
 7795 0619 9F       		.byte	0x9f
 7796 061a 00000000 		.4byte	0
 7797 061e 00000000 		.4byte	0
 7798              	.LLST22:
 7799 0622 00000000 		.4byte	.LVL105
 7800 0626 14000000 		.4byte	.LVL106
 7801 062a 0100     		.2byte	0x1
 7802 062c 52       		.byte	0x52
 7803 062d 14000000 		.4byte	.LVL106
 7804 0631 FC000000 		.4byte	.LVL144
 7805 0635 0100     		.2byte	0x1
 7806 0637 55       		.byte	0x55
 7807 0638 FC000000 		.4byte	.LVL144
 7808 063c FE000000 		.4byte	.LVL145
 7809 0640 0400     		.2byte	0x4
 7810 0642 F3       		.byte	0xf3
 7811 0643 01       		.uleb128 0x1
 7812 0644 52       		.byte	0x52
 7813 0645 9F       		.byte	0x9f
 7814 0646 FE000000 		.4byte	.LVL145
 7815 064a 02010000 		.4byte	.LVL146
 7816 064e 0100     		.2byte	0x1
 7817 0650 55       		.byte	0x55
 7818 0651 02010000 		.4byte	.LVL146
 7819 0655 20010000 		.4byte	.LFE72
 7820 0659 0400     		.2byte	0x4
 7821 065b F3       		.byte	0xf3
 7822 065c 01       		.uleb128 0x1
 7823 065d 52       		.byte	0x52
 7824 065e 9F       		.byte	0x9f
 7825 065f 00000000 		.4byte	0
 7826 0663 00000000 		.4byte	0
 7827              	.LLST23:
 7828 0667 00000000 		.4byte	.LVL105
 7829 066b 2C000000 		.4byte	.LVL107
 7830 066f 0200     		.2byte	0x2
 7831 0671 30       		.byte	0x30
 7832 0672 9F       		.byte	0x9f
 7833 0673 2C000000 		.4byte	.LVL107
 7834 0677 2E000000 		.4byte	.LVL108
 7835 067b 0100     		.2byte	0x1
 7836 067d 52       		.byte	0x52
 7837 067e 2E000000 		.4byte	.LVL108
 7838 0682 32000000 		.4byte	.LVL109
 7839 0686 0200     		.2byte	0x2
ARM GAS  C:\Users\chemi\AppData\Local\Temp\ccHerMgL.s 			page 156


 7840 0688 30       		.byte	0x30
 7841 0689 9F       		.byte	0x9f
 7842 068a 32000000 		.4byte	.LVL109
 7843 068e 34000000 		.4byte	.LVL110
 7844 0692 0100     		.2byte	0x1
 7845 0694 52       		.byte	0x52
 7846 0695 34000000 		.4byte	.LVL110
 7847 0699 38000000 		.4byte	.LVL111
 7848 069d 0200     		.2byte	0x2
 7849 069f 30       		.byte	0x30
 7850 06a0 9F       		.byte	0x9f
 7851 06a1 38000000 		.4byte	.LVL111
 7852 06a5 3A000000 		.4byte	.LVL112
 7853 06a9 0100     		.2byte	0x1
 7854 06ab 52       		.byte	0x52
 7855 06ac 3A000000 		.4byte	.LVL112
 7856 06b0 3C000000 		.4byte	.LVL113
 7857 06b4 0200     		.2byte	0x2
 7858 06b6 30       		.byte	0x30
 7859 06b7 9F       		.byte	0x9f
 7860 06b8 3C000000 		.4byte	.LVL113
 7861 06bc 4B000000 		.4byte	.LVL116-1
 7862 06c0 0100     		.2byte	0x1
 7863 06c2 52       		.byte	0x52
 7864 06c3 5E000000 		.4byte	.LVL117
 7865 06c7 64000000 		.4byte	.LVL118
 7866 06cb 0100     		.2byte	0x1
 7867 06cd 52       		.byte	0x52
 7868 06ce 64000000 		.4byte	.LVL118
 7869 06d2 66000000 		.4byte	.LVL119
 7870 06d6 0100     		.2byte	0x1
 7871 06d8 53       		.byte	0x53
 7872 06d9 66000000 		.4byte	.LVL119
 7873 06dd BA000000 		.4byte	.LVL132
 7874 06e1 0200     		.2byte	0x2
 7875 06e3 30       		.byte	0x30
 7876 06e4 9F       		.byte	0x9f
 7877 06e5 C0000000 		.4byte	.LVL134
 7878 06e9 F2000000 		.4byte	.LVL143
 7879 06ed 0200     		.2byte	0x2
 7880 06ef 30       		.byte	0x30
 7881 06f0 9F       		.byte	0x9f
 7882 06f1 00000000 		.4byte	0
 7883 06f5 00000000 		.4byte	0
 7884              	.LLST24:
 7885 06f9 00000000 		.4byte	.LVL105
 7886 06fd 7A000000 		.4byte	.LVL120
 7887 0701 0200     		.2byte	0x2
 7888 0703 30       		.byte	0x30
 7889 0704 9F       		.byte	0x9f
 7890 0705 7A000000 		.4byte	.LVL120
 7891 0709 7C000000 		.4byte	.LVL121
 7892 070d 0100     		.2byte	0x1
 7893 070f 53       		.byte	0x53
 7894 0710 7C000000 		.4byte	.LVL121
 7895 0714 82000000 		.4byte	.LVL122
 7896 0718 0200     		.2byte	0x2
ARM GAS  C:\Users\chemi\AppData\Local\Temp\ccHerMgL.s 			page 157


 7897 071a 30       		.byte	0x30
 7898 071b 9F       		.byte	0x9f
 7899 071c 82000000 		.4byte	.LVL122
 7900 0720 84000000 		.4byte	.LVL123
 7901 0724 0100     		.2byte	0x1
 7902 0726 53       		.byte	0x53
 7903 0727 84000000 		.4byte	.LVL123
 7904 072b 88000000 		.4byte	.LVL124
 7905 072f 0200     		.2byte	0x2
 7906 0731 30       		.byte	0x30
 7907 0732 9F       		.byte	0x9f
 7908 0733 88000000 		.4byte	.LVL124
 7909 0737 8A000000 		.4byte	.LVL125
 7910 073b 0100     		.2byte	0x1
 7911 073d 53       		.byte	0x53
 7912 073e 8A000000 		.4byte	.LVL125
 7913 0742 8C000000 		.4byte	.LVL126
 7914 0746 0200     		.2byte	0x2
 7915 0748 30       		.byte	0x30
 7916 0749 9F       		.byte	0x9f
 7917 074a 8C000000 		.4byte	.LVL126
 7918 074e A2000000 		.4byte	.LVL129
 7919 0752 0100     		.2byte	0x1
 7920 0754 53       		.byte	0x53
 7921 0755 C0000000 		.4byte	.LVL134
 7922 0759 C6000000 		.4byte	.LVL136
 7923 075d 0100     		.2byte	0x1
 7924 075f 53       		.byte	0x53
 7925 0760 C6000000 		.4byte	.LVL136
 7926 0764 F2000000 		.4byte	.LVL143
 7927 0768 0200     		.2byte	0x2
 7928 076a 30       		.byte	0x30
 7929 076b 9F       		.byte	0x9f
 7930 076c 00000000 		.4byte	0
 7931 0770 00000000 		.4byte	0
 7932              	.LLST25:
 7933 0774 00000000 		.4byte	.LVL105
 7934 0778 C6000000 		.4byte	.LVL136
 7935 077c 0600     		.2byte	0x6
 7936 077e 9E       		.byte	0x9e
 7937 077f 04       		.uleb128 0x4
 7938 0780 00000000 		.4byte	0
 7939 0784 C6000000 		.4byte	.LVL136
 7940 0788 CD000000 		.4byte	.LVL138-1
 7941 078c 0300     		.2byte	0x3
 7942 078e 74       		.byte	0x74
 7943 078f 08       		.sleb128 8
 7944 0790 06       		.byte	0x6
 7945 0791 DE000000 		.4byte	.LVL140
 7946 0795 FE000000 		.4byte	.LVL145
 7947 0799 0600     		.2byte	0x6
 7948 079b 9E       		.byte	0x9e
 7949 079c 04       		.uleb128 0x4
 7950 079d 00000000 		.4byte	0
 7951 07a1 00000000 		.4byte	0
 7952 07a5 00000000 		.4byte	0
 7953              	.LLST26:
ARM GAS  C:\Users\chemi\AppData\Local\Temp\ccHerMgL.s 			page 158


 7954 07a9 AA000000 		.4byte	.LVL130
 7955 07ad AD000000 		.4byte	.LVL131-1
 7956 07b1 0100     		.2byte	0x1
 7957 07b3 52       		.byte	0x52
 7958 07b4 00000000 		.4byte	0
 7959 07b8 00000000 		.4byte	0
 7960              	.LLST27:
 7961 07bc 00000000 		.4byte	.LVL147
 7962 07c0 18000000 		.4byte	.LVL148
 7963 07c4 0100     		.2byte	0x1
 7964 07c6 50       		.byte	0x50
 7965 07c7 18000000 		.4byte	.LVL148
 7966 07cb 6A000000 		.4byte	.LFE73
 7967 07cf 0100     		.2byte	0x1
 7968 07d1 56       		.byte	0x56
 7969 07d2 00000000 		.4byte	0
 7970 07d6 00000000 		.4byte	0
 7971              	.LLST28:
 7972 07da 00000000 		.4byte	.LVL147
 7973 07de 18000000 		.4byte	.LVL148
 7974 07e2 0100     		.2byte	0x1
 7975 07e4 51       		.byte	0x51
 7976 07e5 18000000 		.4byte	.LVL148
 7977 07e9 6A000000 		.4byte	.LFE73
 7978 07ed 0400     		.2byte	0x4
 7979 07ef F3       		.byte	0xf3
 7980 07f0 01       		.uleb128 0x1
 7981 07f1 51       		.byte	0x51
 7982 07f2 9F       		.byte	0x9f
 7983 07f3 00000000 		.4byte	0
 7984 07f7 00000000 		.4byte	0
 7985              	.LLST29:
 7986 07fb 00000000 		.4byte	.LVL147
 7987 07ff 18000000 		.4byte	.LVL148
 7988 0803 0100     		.2byte	0x1
 7989 0805 52       		.byte	0x52
 7990 0806 18000000 		.4byte	.LVL148
 7991 080a 6A000000 		.4byte	.LFE73
 7992 080e 0100     		.2byte	0x1
 7993 0810 5B       		.byte	0x5b
 7994 0811 00000000 		.4byte	0
 7995 0815 00000000 		.4byte	0
 7996              	.LLST30:
 7997 0819 00000000 		.4byte	.LVL147
 7998 081d 18000000 		.4byte	.LVL148
 7999 0821 0100     		.2byte	0x1
 8000 0823 53       		.byte	0x53
 8001 0824 18000000 		.4byte	.LVL148
 8002 0828 6A000000 		.4byte	.LFE73
 8003 082c 0400     		.2byte	0x4
 8004 082e F3       		.byte	0xf3
 8005 082f 01       		.uleb128 0x1
 8006 0830 53       		.byte	0x53
 8007 0831 9F       		.byte	0x9f
 8008 0832 00000000 		.4byte	0
 8009 0836 00000000 		.4byte	0
 8010              	.LLST31:
ARM GAS  C:\Users\chemi\AppData\Local\Temp\ccHerMgL.s 			page 159


 8011 083a 00000000 		.4byte	.LVL147
 8012 083e 18000000 		.4byte	.LVL148
 8013 0842 0300     		.2byte	0x3
 8014 0844 09       		.byte	0x9
 8015 0845 FF       		.byte	0xff
 8016 0846 9F       		.byte	0x9f
 8017 0847 18000000 		.4byte	.LVL148
 8018 084b 6A000000 		.4byte	.LFE73
 8019 084f 0100     		.2byte	0x1
 8020 0851 57       		.byte	0x57
 8021 0852 00000000 		.4byte	0
 8022 0856 00000000 		.4byte	0
 8023              	.LLST32:
 8024 085a 00000000 		.4byte	.LVL147
 8025 085e 18000000 		.4byte	.LVL148
 8026 0862 0300     		.2byte	0x3
 8027 0864 09       		.byte	0x9
 8028 0865 FF       		.byte	0xff
 8029 0866 9F       		.byte	0x9f
 8030 0867 00000000 		.4byte	0
 8031 086b 00000000 		.4byte	0
 8032              	.LLST33:
 8033 086f 00000000 		.4byte	.LVL147
 8034 0873 18000000 		.4byte	.LVL148
 8035 0877 0200     		.2byte	0x2
 8036 0879 30       		.byte	0x30
 8037 087a 9F       		.byte	0x9f
 8038 087b 18000000 		.4byte	.LVL148
 8039 087f 4A000000 		.4byte	.LVL154
 8040 0883 0100     		.2byte	0x1
 8041 0885 55       		.byte	0x55
 8042 0886 4A000000 		.4byte	.LVL154
 8043 088a 4C000000 		.4byte	.LVL155
 8044 088e 0300     		.2byte	0x3
 8045 0890 75       		.byte	0x75
 8046 0891 01       		.sleb128 1
 8047 0892 9F       		.byte	0x9f
 8048 0893 4E000000 		.4byte	.LVL156
 8049 0897 6A000000 		.4byte	.LFE73
 8050 089b 0100     		.2byte	0x1
 8051 089d 55       		.byte	0x55
 8052 089e 00000000 		.4byte	0
 8053 08a2 00000000 		.4byte	0
 8054              	.LLST34:
 8055 08a6 32000000 		.4byte	.LVL150
 8056 08aa 38000000 		.4byte	.LVL151
 8057 08ae 0100     		.2byte	0x1
 8058 08b0 50       		.byte	0x50
 8059 08b1 38000000 		.4byte	.LVL151
 8060 08b5 3B000000 		.4byte	.LVL152-1
 8061 08b9 0100     		.2byte	0x1
 8062 08bb 52       		.byte	0x52
 8063 08bc 3B000000 		.4byte	.LVL152-1
 8064 08c0 4E000000 		.4byte	.LVL156
 8065 08c4 0100     		.2byte	0x1
 8066 08c6 59       		.byte	0x59
 8067 08c7 00000000 		.4byte	0
ARM GAS  C:\Users\chemi\AppData\Local\Temp\ccHerMgL.s 			page 160


 8068 08cb 00000000 		.4byte	0
 8069              	.LLST35:
 8070 08cf 00000000 		.4byte	.LVL157
 8071 08d3 4E000000 		.4byte	.LVL166
 8072 08d7 0100     		.2byte	0x1
 8073 08d9 50       		.byte	0x50
 8074 08da 4E000000 		.4byte	.LVL166
 8075 08de 88000000 		.4byte	.LVL168
 8076 08e2 0100     		.2byte	0x1
 8077 08e4 55       		.byte	0x55
 8078 08e5 88000000 		.4byte	.LVL168
 8079 08e9 C6000000 		.4byte	.LVL178
 8080 08ed 0100     		.2byte	0x1
 8081 08ef 50       		.byte	0x50
 8082 08f0 C6000000 		.4byte	.LVL178
 8083 08f4 06010000 		.4byte	.LVL182
 8084 08f8 0100     		.2byte	0x1
 8085 08fa 55       		.byte	0x55
 8086 08fb 06010000 		.4byte	.LVL182
 8087 08ff 2E010000 		.4byte	.LVL186
 8088 0903 0100     		.2byte	0x1
 8089 0905 50       		.byte	0x50
 8090 0906 2E010000 		.4byte	.LVL186
 8091 090a 42010000 		.4byte	.LVL189
 8092 090e 0100     		.2byte	0x1
 8093 0910 55       		.byte	0x55
 8094 0911 42010000 		.4byte	.LVL189
 8095 0915 70010000 		.4byte	.LVL194
 8096 0919 0100     		.2byte	0x1
 8097 091b 50       		.byte	0x50
 8098 091c 70010000 		.4byte	.LVL194
 8099 0920 7A010000 		.4byte	.LVL196
 8100 0924 0100     		.2byte	0x1
 8101 0926 55       		.byte	0x55
 8102 0927 7A010000 		.4byte	.LVL196
 8103 092b 9C010000 		.4byte	.LFE74
 8104 092f 0400     		.2byte	0x4
 8105 0931 F3       		.byte	0xf3
 8106 0932 01       		.uleb128 0x1
 8107 0933 50       		.byte	0x50
 8108 0934 9F       		.byte	0x9f
 8109 0935 00000000 		.4byte	0
 8110 0939 00000000 		.4byte	0
 8111              	.LLST36:
 8112 093d 00000000 		.4byte	.LVL157
 8113 0941 32000000 		.4byte	.LVL159
 8114 0945 0100     		.2byte	0x1
 8115 0947 51       		.byte	0x51
 8116 0948 32000000 		.4byte	.LVL159
 8117 094c 34000000 		.4byte	.LVL160
 8118 0950 0400     		.2byte	0x4
 8119 0952 F3       		.byte	0xf3
 8120 0953 01       		.uleb128 0x1
 8121 0954 51       		.byte	0x51
 8122 0955 9F       		.byte	0x9f
 8123 0956 34000000 		.4byte	.LVL160
 8124 095a 38000000 		.4byte	.LVL161
ARM GAS  C:\Users\chemi\AppData\Local\Temp\ccHerMgL.s 			page 161


 8125 095e 0100     		.2byte	0x1
 8126 0960 51       		.byte	0x51
 8127 0961 38000000 		.4byte	.LVL161
 8128 0965 3A000000 		.4byte	.LVL162
 8129 0969 0400     		.2byte	0x4
 8130 096b F3       		.byte	0xf3
 8131 096c 01       		.uleb128 0x1
 8132 096d 51       		.byte	0x51
 8133 096e 9F       		.byte	0x9f
 8134 096f 3A000000 		.4byte	.LVL162
 8135 0973 3E000000 		.4byte	.LVL163
 8136 0977 0100     		.2byte	0x1
 8137 0979 51       		.byte	0x51
 8138 097a 3E000000 		.4byte	.LVL163
 8139 097e 40000000 		.4byte	.LVL164
 8140 0982 0400     		.2byte	0x4
 8141 0984 F3       		.byte	0xf3
 8142 0985 01       		.uleb128 0x1
 8143 0986 51       		.byte	0x51
 8144 0987 9F       		.byte	0x9f
 8145 0988 40000000 		.4byte	.LVL164
 8146 098c 42000000 		.4byte	.LVL165
 8147 0990 0100     		.2byte	0x1
 8148 0992 51       		.byte	0x51
 8149 0993 42000000 		.4byte	.LVL165
 8150 0997 94000000 		.4byte	.LVL170
 8151 099b 0400     		.2byte	0x4
 8152 099d F3       		.byte	0xf3
 8153 099e 01       		.uleb128 0x1
 8154 099f 51       		.byte	0x51
 8155 09a0 9F       		.byte	0x9f
 8156 09a1 94000000 		.4byte	.LVL170
 8157 09a5 A8000000 		.4byte	.LVL171
 8158 09a9 0100     		.2byte	0x1
 8159 09ab 51       		.byte	0x51
 8160 09ac A8000000 		.4byte	.LVL171
 8161 09b0 AA000000 		.4byte	.LVL172
 8162 09b4 0400     		.2byte	0x4
 8163 09b6 F3       		.byte	0xf3
 8164 09b7 01       		.uleb128 0x1
 8165 09b8 51       		.byte	0x51
 8166 09b9 9F       		.byte	0x9f
 8167 09ba AA000000 		.4byte	.LVL172
 8168 09be B0000000 		.4byte	.LVL173
 8169 09c2 0100     		.2byte	0x1
 8170 09c4 51       		.byte	0x51
 8171 09c5 B0000000 		.4byte	.LVL173
 8172 09c9 B2000000 		.4byte	.LVL174
 8173 09cd 0400     		.2byte	0x4
 8174 09cf F3       		.byte	0xf3
 8175 09d0 01       		.uleb128 0x1
 8176 09d1 51       		.byte	0x51
 8177 09d2 9F       		.byte	0x9f
 8178 09d3 B2000000 		.4byte	.LVL174
 8179 09d7 B6000000 		.4byte	.LVL175
 8180 09db 0100     		.2byte	0x1
 8181 09dd 51       		.byte	0x51
ARM GAS  C:\Users\chemi\AppData\Local\Temp\ccHerMgL.s 			page 162


 8182 09de B6000000 		.4byte	.LVL175
 8183 09e2 B8000000 		.4byte	.LVL176
 8184 09e6 0400     		.2byte	0x4
 8185 09e8 F3       		.byte	0xf3
 8186 09e9 01       		.uleb128 0x1
 8187 09ea 51       		.byte	0x51
 8188 09eb 9F       		.byte	0x9f
 8189 09ec B8000000 		.4byte	.LVL176
 8190 09f0 BA000000 		.4byte	.LVL177
 8191 09f4 0100     		.2byte	0x1
 8192 09f6 51       		.byte	0x51
 8193 09f7 BA000000 		.4byte	.LVL177
 8194 09fb 1A010000 		.4byte	.LVL184
 8195 09ff 0400     		.2byte	0x4
 8196 0a01 F3       		.byte	0xf3
 8197 0a02 01       		.uleb128 0x1
 8198 0a03 51       		.byte	0x51
 8199 0a04 9F       		.byte	0x9f
 8200 0a05 1A010000 		.4byte	.LVL184
 8201 0a09 31010000 		.4byte	.LVL187-1
 8202 0a0d 0100     		.2byte	0x1
 8203 0a0f 51       		.byte	0x51
 8204 0a10 31010000 		.4byte	.LVL187-1
 8205 0a14 42010000 		.4byte	.LVL189
 8206 0a18 0400     		.2byte	0x4
 8207 0a1a F3       		.byte	0xf3
 8208 0a1b 01       		.uleb128 0x1
 8209 0a1c 51       		.byte	0x51
 8210 0a1d 9F       		.byte	0x9f
 8211 0a1e 42010000 		.4byte	.LVL189
 8212 0a22 50010000 		.4byte	.LVL190
 8213 0a26 0100     		.2byte	0x1
 8214 0a28 51       		.byte	0x51
 8215 0a29 50010000 		.4byte	.LVL190
 8216 0a2d 5A010000 		.4byte	.LVL191
 8217 0a31 0400     		.2byte	0x4
 8218 0a33 F3       		.byte	0xf3
 8219 0a34 01       		.uleb128 0x1
 8220 0a35 51       		.byte	0x51
 8221 0a36 9F       		.byte	0x9f
 8222 0a37 5A010000 		.4byte	.LVL191
 8223 0a3b 5E010000 		.4byte	.LVL192
 8224 0a3f 0100     		.2byte	0x1
 8225 0a41 51       		.byte	0x51
 8226 0a42 5E010000 		.4byte	.LVL192
 8227 0a46 9C010000 		.4byte	.LFE74
 8228 0a4a 0400     		.2byte	0x4
 8229 0a4c F3       		.byte	0xf3
 8230 0a4d 01       		.uleb128 0x1
 8231 0a4e 51       		.byte	0x51
 8232 0a4f 9F       		.byte	0x9f
 8233 0a50 00000000 		.4byte	0
 8234 0a54 00000000 		.4byte	0
 8235              	.LLST37:
 8236 0a58 00000000 		.4byte	.LVL157
 8237 0a5c 1A000000 		.4byte	.LVL158
 8238 0a60 0100     		.2byte	0x1
ARM GAS  C:\Users\chemi\AppData\Local\Temp\ccHerMgL.s 			page 163


 8239 0a62 52       		.byte	0x52
 8240 0a63 1A000000 		.4byte	.LVL158
 8241 0a67 9C010000 		.4byte	.LFE74
 8242 0a6b 0400     		.2byte	0x4
 8243 0a6d F3       		.byte	0xf3
 8244 0a6e 01       		.uleb128 0x1
 8245 0a6f 52       		.byte	0x52
 8246 0a70 9F       		.byte	0x9f
 8247 0a71 00000000 		.4byte	0
 8248 0a75 00000000 		.4byte	0
 8249              	.LLST38:
 8250 0a79 00000000 		.4byte	.LVL157
 8251 0a7d 32000000 		.4byte	.LVL159
 8252 0a81 0200     		.2byte	0x2
 8253 0a83 30       		.byte	0x30
 8254 0a84 9F       		.byte	0x9f
 8255 0a85 32000000 		.4byte	.LVL159
 8256 0a89 34000000 		.4byte	.LVL160
 8257 0a8d 0100     		.2byte	0x1
 8258 0a8f 51       		.byte	0x51
 8259 0a90 34000000 		.4byte	.LVL160
 8260 0a94 38000000 		.4byte	.LVL161
 8261 0a98 0200     		.2byte	0x2
 8262 0a9a 30       		.byte	0x30
 8263 0a9b 9F       		.byte	0x9f
 8264 0a9c 38000000 		.4byte	.LVL161
 8265 0aa0 3A000000 		.4byte	.LVL162
 8266 0aa4 0100     		.2byte	0x1
 8267 0aa6 51       		.byte	0x51
 8268 0aa7 3A000000 		.4byte	.LVL162
 8269 0aab 3E000000 		.4byte	.LVL163
 8270 0aaf 0200     		.2byte	0x2
 8271 0ab1 30       		.byte	0x30
 8272 0ab2 9F       		.byte	0x9f
 8273 0ab3 3E000000 		.4byte	.LVL163
 8274 0ab7 40000000 		.4byte	.LVL164
 8275 0abb 0100     		.2byte	0x1
 8276 0abd 51       		.byte	0x51
 8277 0abe 40000000 		.4byte	.LVL164
 8278 0ac2 42000000 		.4byte	.LVL165
 8279 0ac6 0200     		.2byte	0x2
 8280 0ac8 30       		.byte	0x30
 8281 0ac9 9F       		.byte	0x9f
 8282 0aca 42000000 		.4byte	.LVL165
 8283 0ace 55000000 		.4byte	.LVL167-1
 8284 0ad2 0100     		.2byte	0x1
 8285 0ad4 51       		.byte	0x51
 8286 0ad5 88000000 		.4byte	.LVL168
 8287 0ad9 92000000 		.4byte	.LVL169
 8288 0add 0100     		.2byte	0x1
 8289 0adf 51       		.byte	0x51
 8290 0ae0 92000000 		.4byte	.LVL169
 8291 0ae4 94000000 		.4byte	.LVL170
 8292 0ae8 0100     		.2byte	0x1
 8293 0aea 53       		.byte	0x53
 8294 0aeb 94000000 		.4byte	.LVL170
 8295 0aef FE000000 		.4byte	.LVL180
ARM GAS  C:\Users\chemi\AppData\Local\Temp\ccHerMgL.s 			page 164


 8296 0af3 0200     		.2byte	0x2
 8297 0af5 30       		.byte	0x30
 8298 0af6 9F       		.byte	0x9f
 8299 0af7 06010000 		.4byte	.LVL182
 8300 0afb 6E010000 		.4byte	.LVL193
 8301 0aff 0200     		.2byte	0x2
 8302 0b01 30       		.byte	0x30
 8303 0b02 9F       		.byte	0x9f
 8304 0b03 00000000 		.4byte	0
 8305 0b07 00000000 		.4byte	0
 8306              	.LLST39:
 8307 0b0b 00000000 		.4byte	.LVL157
 8308 0b0f A8000000 		.4byte	.LVL171
 8309 0b13 0200     		.2byte	0x2
 8310 0b15 30       		.byte	0x30
 8311 0b16 9F       		.byte	0x9f
 8312 0b17 A8000000 		.4byte	.LVL171
 8313 0b1b AA000000 		.4byte	.LVL172
 8314 0b1f 0100     		.2byte	0x1
 8315 0b21 51       		.byte	0x51
 8316 0b22 AA000000 		.4byte	.LVL172
 8317 0b26 B0000000 		.4byte	.LVL173
 8318 0b2a 0200     		.2byte	0x2
 8319 0b2c 30       		.byte	0x30
 8320 0b2d 9F       		.byte	0x9f
 8321 0b2e B0000000 		.4byte	.LVL173
 8322 0b32 B2000000 		.4byte	.LVL174
 8323 0b36 0100     		.2byte	0x1
 8324 0b38 51       		.byte	0x51
 8325 0b39 B2000000 		.4byte	.LVL174
 8326 0b3d B6000000 		.4byte	.LVL175
 8327 0b41 0200     		.2byte	0x2
 8328 0b43 30       		.byte	0x30
 8329 0b44 9F       		.byte	0x9f
 8330 0b45 B6000000 		.4byte	.LVL175
 8331 0b49 B8000000 		.4byte	.LVL176
 8332 0b4d 0100     		.2byte	0x1
 8333 0b4f 51       		.byte	0x51
 8334 0b50 B8000000 		.4byte	.LVL176
 8335 0b54 BA000000 		.4byte	.LVL177
 8336 0b58 0200     		.2byte	0x2
 8337 0b5a 30       		.byte	0x30
 8338 0b5b 9F       		.byte	0x9f
 8339 0b5c BA000000 		.4byte	.LVL177
 8340 0b60 CD000000 		.4byte	.LVL179-1
 8341 0b64 0100     		.2byte	0x1
 8342 0b66 51       		.byte	0x51
 8343 0b67 06010000 		.4byte	.LVL182
 8344 0b6b 18010000 		.4byte	.LVL183
 8345 0b6f 0100     		.2byte	0x1
 8346 0b71 51       		.byte	0x51
 8347 0b72 18010000 		.4byte	.LVL183
 8348 0b76 1A010000 		.4byte	.LVL184
 8349 0b7a 0100     		.2byte	0x1
 8350 0b7c 53       		.byte	0x53
 8351 0b7d 1A010000 		.4byte	.LVL184
 8352 0b81 6E010000 		.4byte	.LVL193
ARM GAS  C:\Users\chemi\AppData\Local\Temp\ccHerMgL.s 			page 165


 8353 0b85 0200     		.2byte	0x2
 8354 0b87 30       		.byte	0x30
 8355 0b88 9F       		.byte	0x9f
 8356 0b89 00000000 		.4byte	0
 8357 0b8d 00000000 		.4byte	0
 8358              	.LLST40:
 8359 0b91 00000000 		.4byte	.LVL157
 8360 0b95 1A010000 		.4byte	.LVL184
 8361 0b99 0600     		.2byte	0x6
 8362 0b9b 9E       		.byte	0x9e
 8363 0b9c 04       		.uleb128 0x4
 8364 0b9d 00000000 		.4byte	0
 8365 0ba1 1A010000 		.4byte	.LVL184
 8366 0ba5 1E010000 		.4byte	.LVL185
 8367 0ba9 0300     		.2byte	0x3
 8368 0bab 74       		.byte	0x74
 8369 0bac 08       		.sleb128 8
 8370 0bad 06       		.byte	0x6
 8371 0bae 42010000 		.4byte	.LVL189
 8372 0bb2 74010000 		.4byte	.LVL195
 8373 0bb6 0600     		.2byte	0x6
 8374 0bb8 9E       		.byte	0x9e
 8375 0bb9 04       		.uleb128 0x4
 8376 0bba 00000000 		.4byte	0
 8377 0bbe 00000000 		.4byte	0
 8378 0bc2 00000000 		.4byte	0
 8379              	.LLST41:
 8380 0bc6 00000000 		.4byte	.LVL197
 8381 0bca 0C000000 		.4byte	.LVL198
 8382 0bce 0100     		.2byte	0x1
 8383 0bd0 50       		.byte	0x50
 8384 0bd1 0C000000 		.4byte	.LVL198
 8385 0bd5 20000000 		.4byte	.LFE75
 8386 0bd9 0400     		.2byte	0x4
 8387 0bdb F3       		.byte	0xf3
 8388 0bdc 01       		.uleb128 0x1
 8389 0bdd 50       		.byte	0x50
 8390 0bde 9F       		.byte	0x9f
 8391 0bdf 00000000 		.4byte	0
 8392 0be3 00000000 		.4byte	0
 8393              	.LLST42:
 8394 0be7 00000000 		.4byte	.LVL197
 8395 0beb 0C000000 		.4byte	.LVL198
 8396 0bef 0100     		.2byte	0x1
 8397 0bf1 51       		.byte	0x51
 8398 0bf2 0C000000 		.4byte	.LVL198
 8399 0bf6 20000000 		.4byte	.LFE75
 8400 0bfa 0100     		.2byte	0x1
 8401 0bfc 54       		.byte	0x54
 8402 0bfd 00000000 		.4byte	0
 8403 0c01 00000000 		.4byte	0
 8404              	.LLST43:
 8405 0c05 00000000 		.4byte	.LVL197
 8406 0c09 0C000000 		.4byte	.LVL198
 8407 0c0d 0500     		.2byte	0x5
 8408 0c0f 70       		.byte	0x70
 8409 0c10 00       		.sleb128 0
ARM GAS  C:\Users\chemi\AppData\Local\Temp\ccHerMgL.s 			page 166


 8410 0c11 34       		.byte	0x34
 8411 0c12 24       		.byte	0x24
 8412 0c13 9F       		.byte	0x9f
 8413 0c14 00000000 		.4byte	0
 8414 0c18 00000000 		.4byte	0
 8415              	.LLST44:
 8416 0c1c 00000000 		.4byte	.LVL197
 8417 0c20 0C000000 		.4byte	.LVL198
 8418 0c24 0200     		.2byte	0x2
 8419 0c26 30       		.byte	0x30
 8420 0c27 9F       		.byte	0x9f
 8421 0c28 00000000 		.4byte	0
 8422 0c2c 00000000 		.4byte	0
 8423              	.LLST45:
 8424 0c30 00000000 		.4byte	.LVL201
 8425 0c34 28000000 		.4byte	.LVL206
 8426 0c38 0100     		.2byte	0x1
 8427 0c3a 50       		.byte	0x50
 8428 0c3b 28000000 		.4byte	.LVL206
 8429 0c3f 30000000 		.4byte	.LVL208
 8430 0c43 0400     		.2byte	0x4
 8431 0c45 F3       		.byte	0xf3
 8432 0c46 01       		.uleb128 0x1
 8433 0c47 50       		.byte	0x50
 8434 0c48 9F       		.byte	0x9f
 8435 0c49 30000000 		.4byte	.LVL208
 8436 0c4d 3C000000 		.4byte	.LVL209
 8437 0c51 0100     		.2byte	0x1
 8438 0c53 50       		.byte	0x50
 8439 0c54 3C000000 		.4byte	.LVL209
 8440 0c58 94000000 		.4byte	.LFE76
 8441 0c5c 0400     		.2byte	0x4
 8442 0c5e F3       		.byte	0xf3
 8443 0c5f 01       		.uleb128 0x1
 8444 0c60 50       		.byte	0x50
 8445 0c61 9F       		.byte	0x9f
 8446 0c62 00000000 		.4byte	0
 8447 0c66 00000000 		.4byte	0
 8448              	.LLST46:
 8449 0c6a 00000000 		.4byte	.LVL201
 8450 0c6e 1C000000 		.4byte	.LVL205
 8451 0c72 0100     		.2byte	0x1
 8452 0c74 51       		.byte	0x51
 8453 0c75 1C000000 		.4byte	.LVL205
 8454 0c79 94000000 		.4byte	.LFE76
 8455 0c7d 0400     		.2byte	0x4
 8456 0c7f F3       		.byte	0xf3
 8457 0c80 01       		.uleb128 0x1
 8458 0c81 51       		.byte	0x51
 8459 0c82 9F       		.byte	0x9f
 8460 0c83 00000000 		.4byte	0
 8461 0c87 00000000 		.4byte	0
 8462              	.LLST47:
 8463 0c8b 00000000 		.4byte	.LVL201
 8464 0c8f 08000000 		.4byte	.LVL202
 8465 0c93 0100     		.2byte	0x1
 8466 0c95 52       		.byte	0x52
ARM GAS  C:\Users\chemi\AppData\Local\Temp\ccHerMgL.s 			page 167


 8467 0c96 08000000 		.4byte	.LVL202
 8468 0c9a 94000000 		.4byte	.LFE76
 8469 0c9e 0400     		.2byte	0x4
 8470 0ca0 F3       		.byte	0xf3
 8471 0ca1 01       		.uleb128 0x1
 8472 0ca2 52       		.byte	0x52
 8473 0ca3 9F       		.byte	0x9f
 8474 0ca4 00000000 		.4byte	0
 8475 0ca8 00000000 		.4byte	0
 8476              	.LLST48:
 8477 0cac 12000000 		.4byte	.LVL203
 8478 0cb0 5E000000 		.4byte	.LVL212
 8479 0cb4 0200     		.2byte	0x2
 8480 0cb6 30       		.byte	0x30
 8481 0cb7 9F       		.byte	0x9f
 8482 0cb8 5E000000 		.4byte	.LVL212
 8483 0cbc 60000000 		.4byte	.LVL213
 8484 0cc0 0200     		.2byte	0x2
 8485 0cc2 31       		.byte	0x31
 8486 0cc3 9F       		.byte	0x9f
 8487 0cc4 60000000 		.4byte	.LVL213
 8488 0cc8 88000000 		.4byte	.LVL215
 8489 0ccc 0100     		.2byte	0x1
 8490 0cce 56       		.byte	0x56
 8491 0ccf 88000000 		.4byte	.LVL215
 8492 0cd3 94000000 		.4byte	.LFE76
 8493 0cd7 0100     		.2byte	0x1
 8494 0cd9 50       		.byte	0x50
 8495 0cda 00000000 		.4byte	0
 8496 0cde 00000000 		.4byte	0
 8497              	.LLST49:
 8498 0ce2 12000000 		.4byte	.LVL203
 8499 0ce6 88000000 		.4byte	.LVL215
 8500 0cea 0100     		.2byte	0x1
 8501 0cec 54       		.byte	0x54
 8502 0ced 00000000 		.4byte	0
 8503 0cf1 00000000 		.4byte	0
 8504              	.LLST50:
 8505 0cf5 1A000000 		.4byte	.LVL204
 8506 0cf9 88000000 		.4byte	.LVL215
 8507 0cfd 0100     		.2byte	0x1
 8508 0cff 59       		.byte	0x59
 8509 0d00 00000000 		.4byte	0
 8510 0d04 00000000 		.4byte	0
 8511              	.LLST51:
 8512 0d08 00000000 		.4byte	.LVL216
 8513 0d0c 06000000 		.4byte	.LVL217
 8514 0d10 0100     		.2byte	0x1
 8515 0d12 50       		.byte	0x50
 8516 0d13 06000000 		.4byte	.LVL217
 8517 0d17 0A000000 		.4byte	.LVL218
 8518 0d1b 0300     		.2byte	0x3
 8519 0d1d 72       		.byte	0x72
 8520 0d1e 01       		.sleb128 1
 8521 0d1f 9F       		.byte	0x9f
 8522 0d20 0A000000 		.4byte	.LVL218
 8523 0d24 10000000 		.4byte	.LVL219
ARM GAS  C:\Users\chemi\AppData\Local\Temp\ccHerMgL.s 			page 168


 8524 0d28 0100     		.2byte	0x1
 8525 0d2a 52       		.byte	0x52
 8526 0d2b 10000000 		.4byte	.LVL219
 8527 0d2f 14000000 		.4byte	.LVL221
 8528 0d33 0300     		.2byte	0x3
 8529 0d35 72       		.byte	0x72
 8530 0d36 01       		.sleb128 1
 8531 0d37 9F       		.byte	0x9f
 8532 0d38 14000000 		.4byte	.LVL221
 8533 0d3c 16000000 		.4byte	.LFE77
 8534 0d40 0100     		.2byte	0x1
 8535 0d42 52       		.byte	0x52
 8536 0d43 00000000 		.4byte	0
 8537 0d47 00000000 		.4byte	0
 8538              	.LLST52:
 8539 0d4b 00000000 		.4byte	.LVL216
 8540 0d4f 06000000 		.4byte	.LVL217
 8541 0d53 0400     		.2byte	0x4
 8542 0d55 0A       		.byte	0xa
 8543 0d56 0515     		.2byte	0x1505
 8544 0d58 9F       		.byte	0x9f
 8545 0d59 06000000 		.4byte	.LVL217
 8546 0d5d 10000000 		.4byte	.LVL219
 8547 0d61 0100     		.2byte	0x1
 8548 0d63 50       		.byte	0x50
 8549 0d64 12000000 		.4byte	.LVL220
 8550 0d68 16000000 		.4byte	.LFE77
 8551 0d6c 0100     		.2byte	0x1
 8552 0d6e 50       		.byte	0x50
 8553 0d6f 00000000 		.4byte	0
 8554 0d73 00000000 		.4byte	0
 8555              	.LLST53:
 8556 0d77 00000000 		.4byte	.LVL222
 8557 0d7b 1A000000 		.4byte	.LVL223
 8558 0d7f 0100     		.2byte	0x1
 8559 0d81 50       		.byte	0x50
 8560 0d82 1A000000 		.4byte	.LVL223
 8561 0d86 BA000000 		.4byte	.LVL240
 8562 0d8a 0100     		.2byte	0x1
 8563 0d8c 59       		.byte	0x59
 8564 0d8d BA000000 		.4byte	.LVL240
 8565 0d91 BC000000 		.4byte	.LVL241
 8566 0d95 0400     		.2byte	0x4
 8567 0d97 F3       		.byte	0xf3
 8568 0d98 01       		.uleb128 0x1
 8569 0d99 50       		.byte	0x50
 8570 0d9a 9F       		.byte	0x9f
 8571 0d9b BC000000 		.4byte	.LVL241
 8572 0d9f C2000000 		.4byte	.LVL242
 8573 0da3 0100     		.2byte	0x1
 8574 0da5 59       		.byte	0x59
 8575 0da6 C2000000 		.4byte	.LVL242
 8576 0daa CC000000 		.4byte	.LFE78
 8577 0dae 0400     		.2byte	0x4
 8578 0db0 F3       		.byte	0xf3
 8579 0db1 01       		.uleb128 0x1
 8580 0db2 50       		.byte	0x50
ARM GAS  C:\Users\chemi\AppData\Local\Temp\ccHerMgL.s 			page 169


 8581 0db3 9F       		.byte	0x9f
 8582 0db4 00000000 		.4byte	0
 8583 0db8 00000000 		.4byte	0
 8584              	.LLST54:
 8585 0dbc 00000000 		.4byte	.LVL222
 8586 0dc0 1A000000 		.4byte	.LVL223
 8587 0dc4 0100     		.2byte	0x1
 8588 0dc6 51       		.byte	0x51
 8589 0dc7 1A000000 		.4byte	.LVL223
 8590 0dcb CC000000 		.4byte	.LFE78
 8591 0dcf 0400     		.2byte	0x4
 8592 0dd1 F3       		.byte	0xf3
 8593 0dd2 01       		.uleb128 0x1
 8594 0dd3 51       		.byte	0x51
 8595 0dd4 9F       		.byte	0x9f
 8596 0dd5 00000000 		.4byte	0
 8597 0dd9 00000000 		.4byte	0
 8598              	.LLST55:
 8599 0ddd 00000000 		.4byte	.LVL222
 8600 0de1 1A000000 		.4byte	.LVL223
 8601 0de5 0100     		.2byte	0x1
 8602 0de7 52       		.byte	0x52
 8603 0de8 1A000000 		.4byte	.LVL223
 8604 0dec BA000000 		.4byte	.LVL240
 8605 0df0 0100     		.2byte	0x1
 8606 0df2 55       		.byte	0x55
 8607 0df3 BA000000 		.4byte	.LVL240
 8608 0df7 BC000000 		.4byte	.LVL241
 8609 0dfb 0400     		.2byte	0x4
 8610 0dfd F3       		.byte	0xf3
 8611 0dfe 01       		.uleb128 0x1
 8612 0dff 52       		.byte	0x52
 8613 0e00 9F       		.byte	0x9f
 8614 0e01 BC000000 		.4byte	.LVL241
 8615 0e05 C2000000 		.4byte	.LVL242
 8616 0e09 0100     		.2byte	0x1
 8617 0e0b 55       		.byte	0x55
 8618 0e0c C2000000 		.4byte	.LVL242
 8619 0e10 CC000000 		.4byte	.LFE78
 8620 0e14 0400     		.2byte	0x4
 8621 0e16 F3       		.byte	0xf3
 8622 0e17 01       		.uleb128 0x1
 8623 0e18 52       		.byte	0x52
 8624 0e19 9F       		.byte	0x9f
 8625 0e1a 00000000 		.4byte	0
 8626 0e1e 00000000 		.4byte	0
 8627              	.LLST56:
 8628 0e22 30000000 		.4byte	.LVL225
 8629 0e26 A4000000 		.4byte	.LVL237
 8630 0e2a 0100     		.2byte	0x1
 8631 0e2c 5A       		.byte	0x5a
 8632 0e2d 00000000 		.4byte	0
 8633 0e31 00000000 		.4byte	0
 8634              	.LLST57:
 8635 0e35 4A000000 		.4byte	.LVL226
 8636 0e39 58000000 		.4byte	.LVL227
 8637 0e3d 0100     		.2byte	0x1
ARM GAS  C:\Users\chemi\AppData\Local\Temp\ccHerMgL.s 			page 170


 8638 0e3f 50       		.byte	0x50
 8639 0e40 88000000 		.4byte	.LVL231
 8640 0e44 96000000 		.4byte	.LVL232
 8641 0e48 0100     		.2byte	0x1
 8642 0e4a 50       		.byte	0x50
 8643 0e4b 00000000 		.4byte	0
 8644 0e4f 00000000 		.4byte	0
 8645              	.LLST58:
 8646 0e53 00000000 		.4byte	.LVL222
 8647 0e57 1A000000 		.4byte	.LVL223
 8648 0e5b 0200     		.2byte	0x2
 8649 0e5d 30       		.byte	0x30
 8650 0e5e 9F       		.byte	0x9f
 8651 0e5f 5A000000 		.4byte	.LVL228
 8652 0e63 5C000000 		.4byte	.LVL229
 8653 0e67 0200     		.2byte	0x2
 8654 0e69 31       		.byte	0x31
 8655 0e6a 9F       		.byte	0x9f
 8656 0e6b 98000000 		.4byte	.LVL233
 8657 0e6f 9A000000 		.4byte	.LVL234
 8658 0e73 0200     		.2byte	0x2
 8659 0e75 31       		.byte	0x31
 8660 0e76 9F       		.byte	0x9f
 8661 0e77 00000000 		.4byte	0
 8662 0e7b 00000000 		.4byte	0
 8663              	.LLST59:
 8664 0e7f 00000000 		.4byte	.LVL222
 8665 0e83 1A000000 		.4byte	.LVL223
 8666 0e87 0200     		.2byte	0x2
 8667 0e89 30       		.byte	0x30
 8668 0e8a 9F       		.byte	0x9f
 8669 0e8b 1A000000 		.4byte	.LVL223
 8670 0e8f A4000000 		.4byte	.LVL237
 8671 0e93 0300     		.2byte	0x3
 8672 0e95 76       		.byte	0x76
 8673 0e96 7F       		.sleb128 -1
 8674 0e97 9F       		.byte	0x9f
 8675 0e98 A4000000 		.4byte	.LVL237
 8676 0e9c A6000000 		.4byte	.LVL238
 8677 0ea0 0100     		.2byte	0x1
 8678 0ea2 56       		.byte	0x56
 8679 0ea3 AC000000 		.4byte	.LVL239
 8680 0ea7 BA000000 		.4byte	.LVL240
 8681 0eab 0300     		.2byte	0x3
 8682 0ead 76       		.byte	0x76
 8683 0eae 7F       		.sleb128 -1
 8684 0eaf 9F       		.byte	0x9f
 8685 0eb0 BC000000 		.4byte	.LVL241
 8686 0eb4 C2000000 		.4byte	.LVL242
 8687 0eb8 0300     		.2byte	0x3
 8688 0eba 76       		.byte	0x76
 8689 0ebb 7F       		.sleb128 -1
 8690 0ebc 9F       		.byte	0x9f
 8691 0ebd 00000000 		.4byte	0
 8692 0ec1 00000000 		.4byte	0
 8693              	.LLST60:
 8694 0ec5 64000000 		.4byte	.LVL230
ARM GAS  C:\Users\chemi\AppData\Local\Temp\ccHerMgL.s 			page 171


 8695 0ec9 9E000000 		.4byte	.LVL235
 8696 0ecd 0100     		.2byte	0x1
 8697 0ecf 58       		.byte	0x58
 8698 0ed0 A2000000 		.4byte	.LVL236
 8699 0ed4 A4000000 		.4byte	.LVL237
 8700 0ed8 0100     		.2byte	0x1
 8701 0eda 58       		.byte	0x58
 8702 0edb 00000000 		.4byte	0
 8703 0edf 00000000 		.4byte	0
 8704              	.LLST61:
 8705 0ee3 00000000 		.4byte	.LVL243
 8706 0ee7 22000000 		.4byte	.LVL246
 8707 0eeb 0100     		.2byte	0x1
 8708 0eed 50       		.byte	0x50
 8709 0eee 22000000 		.4byte	.LVL246
 8710 0ef2 64000000 		.4byte	.LVL255
 8711 0ef6 0100     		.2byte	0x1
 8712 0ef8 56       		.byte	0x56
 8713 0ef9 64000000 		.4byte	.LVL255
 8714 0efd 70010000 		.4byte	.LFE79
 8715 0f01 0400     		.2byte	0x4
 8716 0f03 F3       		.byte	0xf3
 8717 0f04 01       		.uleb128 0x1
 8718 0f05 50       		.byte	0x50
 8719 0f06 9F       		.byte	0x9f
 8720 0f07 00000000 		.4byte	0
 8721 0f0b 00000000 		.4byte	0
 8722              	.LLST62:
 8723 0f0f 00000000 		.4byte	.LVL243
 8724 0f13 1E000000 		.4byte	.LVL244
 8725 0f17 0100     		.2byte	0x1
 8726 0f19 51       		.byte	0x51
 8727 0f1a 1E000000 		.4byte	.LVL244
 8728 0f1e 70010000 		.4byte	.LFE79
 8729 0f22 0400     		.2byte	0x4
 8730 0f24 F3       		.byte	0xf3
 8731 0f25 01       		.uleb128 0x1
 8732 0f26 51       		.byte	0x51
 8733 0f27 9F       		.byte	0x9f
 8734 0f28 00000000 		.4byte	0
 8735 0f2c 00000000 		.4byte	0
 8736              	.LLST63:
 8737 0f30 00000000 		.4byte	.LVL243
 8738 0f34 20000000 		.4byte	.LVL245
 8739 0f38 0100     		.2byte	0x1
 8740 0f3a 52       		.byte	0x52
 8741 0f3b 20000000 		.4byte	.LVL245
 8742 0f3f 70010000 		.4byte	.LFE79
 8743 0f43 0400     		.2byte	0x4
 8744 0f45 F3       		.byte	0xf3
 8745 0f46 01       		.uleb128 0x1
 8746 0f47 52       		.byte	0x52
 8747 0f48 9F       		.byte	0x9f
 8748 0f49 00000000 		.4byte	0
 8749 0f4d 00000000 		.4byte	0
 8750              	.LLST64:
 8751 0f51 00000000 		.4byte	.LVL243
ARM GAS  C:\Users\chemi\AppData\Local\Temp\ccHerMgL.s 			page 172


 8752 0f55 2B000000 		.4byte	.LVL248-1
 8753 0f59 0100     		.2byte	0x1
 8754 0f5b 53       		.byte	0x53
 8755 0f5c 2B000000 		.4byte	.LVL248-1
 8756 0f60 64010000 		.4byte	.LVL281
 8757 0f64 0100     		.2byte	0x1
 8758 0f66 5B       		.byte	0x5b
 8759 0f67 64010000 		.4byte	.LVL281
 8760 0f6b 70010000 		.4byte	.LFE79
 8761 0f6f 0400     		.2byte	0x4
 8762 0f71 F3       		.byte	0xf3
 8763 0f72 01       		.uleb128 0x1
 8764 0f73 53       		.byte	0x53
 8765 0f74 9F       		.byte	0x9f
 8766 0f75 00000000 		.4byte	0
 8767 0f79 00000000 		.4byte	0
 8768              	.LLST65:
 8769 0f7d 28000000 		.4byte	.LVL247
 8770 0f81 2C000000 		.4byte	.LVL248
 8771 0f85 0100     		.2byte	0x1
 8772 0f87 54       		.byte	0x54
 8773 0f88 2C000000 		.4byte	.LVL248
 8774 0f8c 38000000 		.4byte	.LVL249
 8775 0f90 0300     		.2byte	0x3
 8776 0f92 74       		.byte	0x74
 8777 0f93 01       		.sleb128 1
 8778 0f94 9F       		.byte	0x9f
 8779 0f95 38000000 		.4byte	.LVL249
 8780 0f99 44000000 		.4byte	.LVL250
 8781 0f9d 0300     		.2byte	0x3
 8782 0f9f 74       		.byte	0x74
 8783 0fa0 02       		.sleb128 2
 8784 0fa1 9F       		.byte	0x9f
 8785 0fa2 44000000 		.4byte	.LVL250
 8786 0fa6 50000000 		.4byte	.LVL251
 8787 0faa 0300     		.2byte	0x3
 8788 0fac 74       		.byte	0x74
 8789 0fad 03       		.sleb128 3
 8790 0fae 9F       		.byte	0x9f
 8791 0faf 50000000 		.4byte	.LVL251
 8792 0fb3 5A000000 		.4byte	.LVL252
 8793 0fb7 0300     		.2byte	0x3
 8794 0fb9 74       		.byte	0x74
 8795 0fba 04       		.sleb128 4
 8796 0fbb 9F       		.byte	0x9f
 8797 0fbc 60000000 		.4byte	.LVL254
 8798 0fc0 BE000000 		.4byte	.LVL263
 8799 0fc4 0100     		.2byte	0x1
 8800 0fc6 54       		.byte	0x54
 8801 0fc7 BE000000 		.4byte	.LVL263
 8802 0fcb C0000000 		.4byte	.LVL264
 8803 0fcf 0300     		.2byte	0x3
 8804 0fd1 74       		.byte	0x74
 8805 0fd2 7B       		.sleb128 -5
 8806 0fd3 9F       		.byte	0x9f
 8807 0fd4 C0000000 		.4byte	.LVL264
 8808 0fd8 C4000000 		.4byte	.LVL265
ARM GAS  C:\Users\chemi\AppData\Local\Temp\ccHerMgL.s 			page 173


 8809 0fdc 0300     		.2byte	0x3
 8810 0fde 74       		.byte	0x74
 8811 0fdf 7F       		.sleb128 -1
 8812 0fe0 9F       		.byte	0x9f
 8813 0fe1 D2000000 		.4byte	.LVL266
 8814 0fe5 F2000000 		.4byte	.LVL269
 8815 0fe9 0100     		.2byte	0x1
 8816 0feb 54       		.byte	0x54
 8817 0fec F2000000 		.4byte	.LVL269
 8818 0ff0 F6000000 		.4byte	.LVL270
 8819 0ff4 0A00     		.2byte	0xa
 8820 0ff6 91       		.byte	0x91
 8821 0ff7 54       		.sleb128 -44
 8822 0ff8 94       		.byte	0x94
 8823 0ff9 02       		.byte	0x2
 8824 0ffa 74       		.byte	0x74
 8825 0ffb 00       		.sleb128 0
 8826 0ffc 22       		.byte	0x22
 8827 0ffd 23       		.byte	0x23
 8828 0ffe 05       		.uleb128 0x5
 8829 0fff 9F       		.byte	0x9f
 8830 1000 F6000000 		.4byte	.LVL270
 8831 1004 0E010000 		.4byte	.LVL273
 8832 1008 0100     		.2byte	0x1
 8833 100a 54       		.byte	0x54
 8834 100b 0E010000 		.4byte	.LVL273
 8835 100f 1A010000 		.4byte	.LVL274
 8836 1013 0300     		.2byte	0x3
 8837 1015 74       		.byte	0x74
 8838 1016 01       		.sleb128 1
 8839 1017 9F       		.byte	0x9f
 8840 1018 1A010000 		.4byte	.LVL274
 8841 101c 26010000 		.4byte	.LVL275
 8842 1020 0300     		.2byte	0x3
 8843 1022 74       		.byte	0x74
 8844 1023 02       		.sleb128 2
 8845 1024 9F       		.byte	0x9f
 8846 1025 26010000 		.4byte	.LVL275
 8847 1029 32010000 		.4byte	.LVL276
 8848 102d 0300     		.2byte	0x3
 8849 102f 74       		.byte	0x74
 8850 1030 03       		.sleb128 3
 8851 1031 9F       		.byte	0x9f
 8852 1032 32010000 		.4byte	.LVL276
 8853 1036 4E010000 		.4byte	.LVL279
 8854 103a 0300     		.2byte	0x3
 8855 103c 74       		.byte	0x74
 8856 103d 04       		.sleb128 4
 8857 103e 9F       		.byte	0x9f
 8858 103f 00000000 		.4byte	0
 8859 1043 00000000 		.4byte	0
 8860              	.LLST66:
 8861 1047 28000000 		.4byte	.LVL247
 8862 104b 64000000 		.4byte	.LVL255
 8863 104f 0200     		.2byte	0x2
 8864 1051 30       		.byte	0x30
 8865 1052 9F       		.byte	0x9f
ARM GAS  C:\Users\chemi\AppData\Local\Temp\ccHerMgL.s 			page 174


 8866 1053 C0000000 		.4byte	.LVL264
 8867 1057 C4000000 		.4byte	.LVL265
 8868 105b 0200     		.2byte	0x2
 8869 105d 30       		.byte	0x30
 8870 105e 9F       		.byte	0x9f
 8871 105f D2000000 		.4byte	.LVL266
 8872 1063 00010000 		.4byte	.LVL272
 8873 1067 0100     		.2byte	0x1
 8874 1069 58       		.byte	0x58
 8875 106a 00000000 		.4byte	0
 8876 106e 00000000 		.4byte	0
 8877              	.LLST67:
 8878 1072 28000000 		.4byte	.LVL247
 8879 1076 64000000 		.4byte	.LVL255
 8880 107a 0200     		.2byte	0x2
 8881 107c 30       		.byte	0x30
 8882 107d 9F       		.byte	0x9f
 8883 107e 64000000 		.4byte	.LVL255
 8884 1082 FE000000 		.4byte	.LVL271
 8885 1086 0100     		.2byte	0x1
 8886 1088 57       		.byte	0x57
 8887 1089 00010000 		.4byte	.LVL272
 8888 108d 64010000 		.4byte	.LVL281
 8889 1091 0100     		.2byte	0x1
 8890 1093 57       		.byte	0x57
 8891 1094 00000000 		.4byte	0
 8892 1098 00000000 		.4byte	0
 8893              	.LLST68:
 8894 109c 28000000 		.4byte	.LVL247
 8895 10a0 64000000 		.4byte	.LVL255
 8896 10a4 0200     		.2byte	0x2
 8897 10a6 30       		.byte	0x30
 8898 10a7 9F       		.byte	0x9f
 8899 10a8 00000000 		.4byte	0
 8900 10ac 00000000 		.4byte	0
 8901              	.LLST69:
 8902 10b0 28000000 		.4byte	.LVL247
 8903 10b4 64000000 		.4byte	.LVL255
 8904 10b8 0200     		.2byte	0x2
 8905 10ba 30       		.byte	0x30
 8906 10bb 9F       		.byte	0x9f
 8907 10bc 64000000 		.4byte	.LVL255
 8908 10c0 BC000000 		.4byte	.LVL262
 8909 10c4 0100     		.2byte	0x1
 8910 10c6 55       		.byte	0x55
 8911 10c7 C0000000 		.4byte	.LVL264
 8912 10cb 64010000 		.4byte	.LVL281
 8913 10cf 0100     		.2byte	0x1
 8914 10d1 55       		.byte	0x55
 8915 10d2 00000000 		.4byte	0
 8916 10d6 00000000 		.4byte	0
 8917              	.LLST70:
 8918 10da 60000000 		.4byte	.LVL254
 8919 10de 64000000 		.4byte	.LVL255
 8920 10e2 0200     		.2byte	0x2
 8921 10e4 30       		.byte	0x30
 8922 10e5 9F       		.byte	0x9f
ARM GAS  C:\Users\chemi\AppData\Local\Temp\ccHerMgL.s 			page 175


 8923 10e6 00000000 		.4byte	0
 8924 10ea 00000000 		.4byte	0
 8925              	.LLST71:
 8926 10ee D2000000 		.4byte	.LVL266
 8927 10f2 DC000000 		.4byte	.LVL267
 8928 10f6 0100     		.2byte	0x1
 8929 10f8 52       		.byte	0x52
 8930 10f9 DC000000 		.4byte	.LVL267
 8931 10fd E7000000 		.4byte	.LVL268-1
 8932 1101 0100     		.2byte	0x1
 8933 1103 5E       		.byte	0x5e
 8934 1104 F2000000 		.4byte	.LVL269
 8935 1108 F6000000 		.4byte	.LVL270
 8936 110c 0200     		.2byte	0x2
 8937 110e 91       		.byte	0x91
 8938 110f 54       		.sleb128 -44
 8939 1110 F6000000 		.4byte	.LVL270
 8940 1114 00010000 		.4byte	.LVL272
 8941 1118 0100     		.2byte	0x1
 8942 111a 52       		.byte	0x52
 8943 111b 00000000 		.4byte	0
 8944 111f 00000000 		.4byte	0
 8945              	.LLST72:
 8946 1123 00000000 		.4byte	.LVL282
 8947 1127 10000000 		.4byte	.LVL284
 8948 112b 0100     		.2byte	0x1
 8949 112d 50       		.byte	0x50
 8950 112e 10000000 		.4byte	.LVL284
 8951 1132 64000000 		.4byte	.LVL291
 8952 1136 0100     		.2byte	0x1
 8953 1138 56       		.byte	0x56
 8954 1139 64000000 		.4byte	.LVL291
 8955 113d 66000000 		.4byte	.LVL292
 8956 1141 0400     		.2byte	0x4
 8957 1143 F3       		.byte	0xf3
 8958 1144 01       		.uleb128 0x1
 8959 1145 50       		.byte	0x50
 8960 1146 9F       		.byte	0x9f
 8961 1147 66000000 		.4byte	.LVL292
 8962 114b 4E010000 		.4byte	.LVL310
 8963 114f 0100     		.2byte	0x1
 8964 1151 56       		.byte	0x56
 8965 1152 4E010000 		.4byte	.LVL310
 8966 1156 38020000 		.4byte	.LVL331
 8967 115a 0400     		.2byte	0x4
 8968 115c F3       		.byte	0xf3
 8969 115d 01       		.uleb128 0x1
 8970 115e 50       		.byte	0x50
 8971 115f 9F       		.byte	0x9f
 8972 1160 38020000 		.4byte	.LVL331
 8973 1164 64020000 		.4byte	.LFE80
 8974 1168 0100     		.2byte	0x1
 8975 116a 56       		.byte	0x56
 8976 116b 00000000 		.4byte	0
 8977 116f 00000000 		.4byte	0
 8978              	.LLST73:
 8979 1173 00000000 		.4byte	.LVL282
ARM GAS  C:\Users\chemi\AppData\Local\Temp\ccHerMgL.s 			page 176


 8980 1177 10000000 		.4byte	.LVL284
 8981 117b 0100     		.2byte	0x1
 8982 117d 51       		.byte	0x51
 8983 117e 10000000 		.4byte	.LVL284
 8984 1182 64020000 		.4byte	.LFE80
 8985 1186 0400     		.2byte	0x4
 8986 1188 F3       		.byte	0xf3
 8987 1189 01       		.uleb128 0x1
 8988 118a 51       		.byte	0x51
 8989 118b 9F       		.byte	0x9f
 8990 118c 00000000 		.4byte	0
 8991 1190 00000000 		.4byte	0
 8992              	.LLST74:
 8993 1194 00000000 		.4byte	.LVL282
 8994 1198 10000000 		.4byte	.LVL284
 8995 119c 0100     		.2byte	0x1
 8996 119e 52       		.byte	0x52
 8997 119f 10000000 		.4byte	.LVL284
 8998 11a3 64020000 		.4byte	.LFE80
 8999 11a7 0400     		.2byte	0x4
 9000 11a9 F3       		.byte	0xf3
 9001 11aa 01       		.uleb128 0x1
 9002 11ab 52       		.byte	0x52
 9003 11ac 9F       		.byte	0x9f
 9004 11ad 00000000 		.4byte	0
 9005 11b1 00000000 		.4byte	0
 9006              	.LLST75:
 9007 11b5 00000000 		.4byte	.LVL282
 9008 11b9 10000000 		.4byte	.LVL284
 9009 11bd 0100     		.2byte	0x1
 9010 11bf 53       		.byte	0x53
 9011 11c0 10000000 		.4byte	.LVL284
 9012 11c4 64000000 		.4byte	.LVL291
 9013 11c8 0100     		.2byte	0x1
 9014 11ca 57       		.byte	0x57
 9015 11cb 64000000 		.4byte	.LVL291
 9016 11cf 66000000 		.4byte	.LVL292
 9017 11d3 0400     		.2byte	0x4
 9018 11d5 F3       		.byte	0xf3
 9019 11d6 01       		.uleb128 0x1
 9020 11d7 53       		.byte	0x53
 9021 11d8 9F       		.byte	0x9f
 9022 11d9 66000000 		.4byte	.LVL292
 9023 11dd 36020000 		.4byte	.LVL330
 9024 11e1 0100     		.2byte	0x1
 9025 11e3 57       		.byte	0x57
 9026 11e4 36020000 		.4byte	.LVL330
 9027 11e8 38020000 		.4byte	.LVL331
 9028 11ec 0400     		.2byte	0x4
 9029 11ee F3       		.byte	0xf3
 9030 11ef 01       		.uleb128 0x1
 9031 11f0 53       		.byte	0x53
 9032 11f1 9F       		.byte	0x9f
 9033 11f2 38020000 		.4byte	.LVL331
 9034 11f6 64020000 		.4byte	.LFE80
 9035 11fa 0100     		.2byte	0x1
 9036 11fc 57       		.byte	0x57
ARM GAS  C:\Users\chemi\AppData\Local\Temp\ccHerMgL.s 			page 177


 9037 11fd 00000000 		.4byte	0
 9038 1201 00000000 		.4byte	0
 9039              	.LLST76:
 9040 1205 0A000000 		.4byte	.LVL283
 9041 1209 10000000 		.4byte	.LVL284
 9042 120d 0100     		.2byte	0x1
 9043 120f 55       		.byte	0x55
 9044 1210 10000000 		.4byte	.LVL284
 9045 1214 1C000000 		.4byte	.LVL286
 9046 1218 0600     		.2byte	0x6
 9047 121a 74       		.byte	0x74
 9048 121b 00       		.sleb128 0
 9049 121c 75       		.byte	0x75
 9050 121d 00       		.sleb128 0
 9051 121e 22       		.byte	0x22
 9052 121f 9F       		.byte	0x9f
 9053 1220 1C000000 		.4byte	.LVL286
 9054 1224 1E000000 		.4byte	.LVL287
 9055 1228 0800     		.2byte	0x8
 9056 122a 74       		.byte	0x74
 9057 122b 00       		.sleb128 0
 9058 122c 75       		.byte	0x75
 9059 122d 00       		.sleb128 0
 9060 122e 22       		.byte	0x22
 9061 122f 23       		.byte	0x23
 9062 1230 01       		.uleb128 0x1
 9063 1231 9F       		.byte	0x9f
 9064 1232 66000000 		.4byte	.LVL292
 9065 1236 90000000 		.4byte	.LVL296
 9066 123a 0100     		.2byte	0x1
 9067 123c 54       		.byte	0x54
 9068 123d 90000000 		.4byte	.LVL296
 9069 1241 9C000000 		.4byte	.LVL298
 9070 1245 0600     		.2byte	0x6
 9071 1247 75       		.byte	0x75
 9072 1248 00       		.sleb128 0
 9073 1249 74       		.byte	0x74
 9074 124a 00       		.sleb128 0
 9075 124b 22       		.byte	0x22
 9076 124c 9F       		.byte	0x9f
 9077 124d 9C000000 		.4byte	.LVL298
 9078 1251 9E000000 		.4byte	.LVL299
 9079 1255 0800     		.2byte	0x8
 9080 1257 74       		.byte	0x74
 9081 1258 00       		.sleb128 0
 9082 1259 75       		.byte	0x75
 9083 125a 00       		.sleb128 0
 9084 125b 22       		.byte	0x22
 9085 125c 23       		.byte	0x23
 9086 125d 01       		.uleb128 0x1
 9087 125e 9F       		.byte	0x9f
 9088 125f 32010000 		.4byte	.LVL307
 9089 1263 4A010000 		.4byte	.LVL309
 9090 1267 0100     		.2byte	0x1
 9091 1269 54       		.byte	0x54
 9092 126a 72010000 		.4byte	.LVL314
 9093 126e 7C010000 		.4byte	.LVL315
ARM GAS  C:\Users\chemi\AppData\Local\Temp\ccHerMgL.s 			page 178


 9094 1272 0100     		.2byte	0x1
 9095 1274 5B       		.byte	0x5b
 9096 1275 88010000 		.4byte	.LVL316
 9097 1279 92010000 		.4byte	.LVL318
 9098 127d 0600     		.2byte	0x6
 9099 127f 7A       		.byte	0x7a
 9100 1280 00       		.sleb128 0
 9101 1281 7B       		.byte	0x7b
 9102 1282 00       		.sleb128 0
 9103 1283 22       		.byte	0x22
 9104 1284 9F       		.byte	0x9f
 9105 1285 92010000 		.4byte	.LVL318
 9106 1289 96010000 		.4byte	.LVL319
 9107 128d 0800     		.2byte	0x8
 9108 128f 7A       		.byte	0x7a
 9109 1290 00       		.sleb128 0
 9110 1291 7B       		.byte	0x7b
 9111 1292 00       		.sleb128 0
 9112 1293 22       		.byte	0x22
 9113 1294 23       		.byte	0x23
 9114 1295 01       		.uleb128 0x1
 9115 1296 9F       		.byte	0x9f
 9116 1297 B2010000 		.4byte	.LVL320
 9117 129b EA010000 		.4byte	.LVL323
 9118 129f 0100     		.2byte	0x1
 9119 12a1 5B       		.byte	0x5b
 9120 12a2 F6010000 		.4byte	.LVL326
 9121 12a6 18020000 		.4byte	.LVL327
 9122 12aa 0100     		.2byte	0x1
 9123 12ac 5B       		.byte	0x5b
 9124 12ad 38020000 		.4byte	.LVL331
 9125 12b1 40020000 		.4byte	.LVL333
 9126 12b5 0300     		.2byte	0x3
 9127 12b7 74       		.byte	0x74
 9128 12b8 05       		.sleb128 5
 9129 12b9 9F       		.byte	0x9f
 9130 12ba 42020000 		.4byte	.LVL334
 9131 12be 64020000 		.4byte	.LFE80
 9132 12c2 0100     		.2byte	0x1
 9133 12c4 54       		.byte	0x54
 9134 12c5 00000000 		.4byte	0
 9135 12c9 00000000 		.4byte	0
 9136              	.LLST77:
 9137 12cd 00000000 		.4byte	.LVL282
 9138 12d1 66000000 		.4byte	.LVL292
 9139 12d5 0200     		.2byte	0x2
 9140 12d7 30       		.byte	0x30
 9141 12d8 9F       		.byte	0x9f
 9142 12d9 F6000000 		.4byte	.LVL305
 9143 12dd 1E010000 		.4byte	.LVL306
 9144 12e1 0100     		.2byte	0x1
 9145 12e3 50       		.byte	0x50
 9146 12e4 68010000 		.4byte	.LVL313
 9147 12e8 72010000 		.4byte	.LVL314
 9148 12ec 0100     		.2byte	0x1
 9149 12ee 50       		.byte	0x50
 9150 12ef 00000000 		.4byte	0
ARM GAS  C:\Users\chemi\AppData\Local\Temp\ccHerMgL.s 			page 179


 9151 12f3 00000000 		.4byte	0
 9152              	.LLST78:
 9153 12f7 00000000 		.4byte	.LVL282
 9154 12fb 4E010000 		.4byte	.LVL310
 9155 12ff 0200     		.2byte	0x2
 9156 1301 30       		.byte	0x30
 9157 1302 9F       		.byte	0x9f
 9158 1303 4E010000 		.4byte	.LVL310
 9159 1307 5C010000 		.4byte	.LVL312
 9160 130b 0100     		.2byte	0x1
 9161 130d 55       		.byte	0x55
 9162 130e 68010000 		.4byte	.LVL313
 9163 1312 36020000 		.4byte	.LVL330
 9164 1316 0100     		.2byte	0x1
 9165 1318 55       		.byte	0x55
 9166 1319 38020000 		.4byte	.LVL331
 9167 131d 64020000 		.4byte	.LFE80
 9168 1321 0200     		.2byte	0x2
 9169 1323 30       		.byte	0x30
 9170 1324 9F       		.byte	0x9f
 9171 1325 00000000 		.4byte	0
 9172 1329 00000000 		.4byte	0
 9173              	.LLST79:
 9174 132d 00000000 		.4byte	.LVL282
 9175 1331 66000000 		.4byte	.LVL292
 9176 1335 0200     		.2byte	0x2
 9177 1337 30       		.byte	0x30
 9178 1338 9F       		.byte	0x9f
 9179 1339 66000000 		.4byte	.LVL292
 9180 133d 32020000 		.4byte	.LVL329
 9181 1341 0200     		.2byte	0x2
 9182 1343 7D       		.byte	0x7d
 9183 1344 00       		.sleb128 0
 9184 1345 32020000 		.4byte	.LVL329
 9185 1349 36020000 		.4byte	.LVL330
 9186 134d 0300     		.2byte	0x3
 9187 134f 91       		.byte	0x91
 9188 1350 B87F     		.sleb128 -72
 9189 1352 36020000 		.4byte	.LVL330
 9190 1356 38020000 		.4byte	.LVL331
 9191 135a 0300     		.2byte	0x3
 9192 135c 7D       		.byte	0x7d
 9193 135d B87F     		.sleb128 -72
 9194 135f 38020000 		.4byte	.LVL331
 9195 1363 64020000 		.4byte	.LFE80
 9196 1367 0200     		.2byte	0x2
 9197 1369 7D       		.byte	0x7d
 9198 136a 00       		.sleb128 0
 9199 136b 00000000 		.4byte	0
 9200 136f 00000000 		.4byte	0
 9201              	.LLST80:
 9202 1373 00000000 		.4byte	.LVL282
 9203 1377 66000000 		.4byte	.LVL292
 9204 137b 0200     		.2byte	0x2
 9205 137d 30       		.byte	0x30
 9206 137e 9F       		.byte	0x9f
 9207 137f 38020000 		.4byte	.LVL331
ARM GAS  C:\Users\chemi\AppData\Local\Temp\ccHerMgL.s 			page 180


 9208 1383 64020000 		.4byte	.LFE80
 9209 1387 0200     		.2byte	0x2
 9210 1389 30       		.byte	0x30
 9211 138a 9F       		.byte	0x9f
 9212 138b 00000000 		.4byte	0
 9213 138f 00000000 		.4byte	0
 9214              	.LLST81:
 9215 1393 68010000 		.4byte	.LVL313
 9216 1397 72010000 		.4byte	.LVL314
 9217 139b 0200     		.2byte	0x2
 9218 139d 30       		.byte	0x30
 9219 139e 9F       		.byte	0x9f
 9220 139f 72010000 		.4byte	.LVL314
 9221 13a3 7C010000 		.4byte	.LVL315
 9222 13a7 0100     		.2byte	0x1
 9223 13a9 53       		.byte	0x53
 9224 13aa 00000000 		.4byte	0
 9225 13ae 00000000 		.4byte	0
 9226              	.LLST82:
 9227 13b2 00000000 		.4byte	.LVL282
 9228 13b6 10000000 		.4byte	.LVL284
 9229 13ba 0200     		.2byte	0x2
 9230 13bc 30       		.byte	0x30
 9231 13bd 9F       		.byte	0x9f
 9232 13be 10000000 		.4byte	.LVL284
 9233 13c2 48000000 		.4byte	.LVL288
 9234 13c6 0100     		.2byte	0x1
 9235 13c8 54       		.byte	0x54
 9236 13c9 4C000000 		.4byte	.LVL289
 9237 13cd 64000000 		.4byte	.LVL291
 9238 13d1 0100     		.2byte	0x1
 9239 13d3 54       		.byte	0x54
 9240 13d4 00000000 		.4byte	0
 9241 13d8 00000000 		.4byte	0
 9242              	.LLST83:
 9243 13dc 66000000 		.4byte	.LVL292
 9244 13e0 88000000 		.4byte	.LVL295
 9245 13e4 0200     		.2byte	0x2
 9246 13e6 91       		.byte	0x91
 9247 13e7 40       		.sleb128 -64
 9248 13e8 D4000000 		.4byte	.LVL301
 9249 13ec DC000000 		.4byte	.LVL302
 9250 13f0 0100     		.2byte	0x1
 9251 13f2 53       		.byte	0x53
 9252 13f3 DC000000 		.4byte	.LVL302
 9253 13f7 DE000000 		.4byte	.LVL303
 9254 13fb 0300     		.2byte	0x3
 9255 13fd 71       		.byte	0x71
 9256 13fe 01       		.sleb128 1
 9257 13ff 9F       		.byte	0x9f
 9258 1400 E8000000 		.4byte	.LVL304
 9259 1404 F5000000 		.4byte	.LVL305-1
 9260 1408 0100     		.2byte	0x1
 9261 140a 53       		.byte	0x53
 9262 140b F5000000 		.4byte	.LVL305-1
 9263 140f 4E010000 		.4byte	.LVL310
 9264 1413 0200     		.2byte	0x2
ARM GAS  C:\Users\chemi\AppData\Local\Temp\ccHerMgL.s 			page 181


 9265 1415 91       		.byte	0x91
 9266 1416 40       		.sleb128 -64
 9267 1417 38020000 		.4byte	.LVL331
 9268 141b 3C020000 		.4byte	.LVL332
 9269 141f 0100     		.2byte	0x1
 9270 1421 53       		.byte	0x53
 9271 1422 3C020000 		.4byte	.LVL332
 9272 1426 64020000 		.4byte	.LFE80
 9273 142a 0200     		.2byte	0x2
 9274 142c 91       		.byte	0x91
 9275 142d 40       		.sleb128 -64
 9276 142e 00000000 		.4byte	0
 9277 1432 00000000 		.4byte	0
 9278              	.LLST84:
 9279 1436 90000000 		.4byte	.LVL296
 9280 143a AA000000 		.4byte	.LVL300
 9281 143e 0100     		.2byte	0x1
 9282 1440 55       		.byte	0x55
 9283 1441 00000000 		.4byte	0
 9284 1445 00000000 		.4byte	0
 9285              	.LLST85:
 9286 1449 4A010000 		.4byte	.LVL309
 9287 144d 4E010000 		.4byte	.LVL310
 9288 1451 0200     		.2byte	0x2
 9289 1453 91       		.byte	0x91
 9290 1454 48       		.sleb128 -56
 9291 1455 00000000 		.4byte	0
 9292 1459 00000000 		.4byte	0
 9293              	.LLST86:
 9294 145d 4E010000 		.4byte	.LVL310
 9295 1461 EA010000 		.4byte	.LVL323
 9296 1465 0100     		.2byte	0x1
 9297 1467 58       		.byte	0x58
 9298 1468 EA010000 		.4byte	.LVL323
 9299 146c EE010000 		.4byte	.LVL324
 9300 1470 0300     		.2byte	0x3
 9301 1472 78       		.byte	0x78
 9302 1473 01       		.sleb128 1
 9303 1474 9F       		.byte	0x9f
 9304 1475 F0010000 		.4byte	.LVL325
 9305 1479 36020000 		.4byte	.LVL330
 9306 147d 0100     		.2byte	0x1
 9307 147f 58       		.byte	0x58
 9308 1480 00000000 		.4byte	0
 9309 1484 00000000 		.4byte	0
 9310              	.LLST87:
 9311 1488 88010000 		.4byte	.LVL316
 9312 148c D4010000 		.4byte	.LVL321
 9313 1490 0100     		.2byte	0x1
 9314 1492 5A       		.byte	0x5a
 9315 1493 F6010000 		.4byte	.LVL326
 9316 1497 18020000 		.4byte	.LVL327
 9317 149b 0100     		.2byte	0x1
 9318 149d 5A       		.byte	0x5a
 9319 149e 00000000 		.4byte	0
 9320 14a2 00000000 		.4byte	0
 9321              	.LLST88:
ARM GAS  C:\Users\chemi\AppData\Local\Temp\ccHerMgL.s 			page 182


 9322 14a6 00000000 		.4byte	.LVL335
 9323 14aa 10000000 		.4byte	.LVL336
 9324 14ae 0100     		.2byte	0x1
 9325 14b0 50       		.byte	0x50
 9326 14b1 10000000 		.4byte	.LVL336
 9327 14b5 40000000 		.4byte	.LFE81
 9328 14b9 0100     		.2byte	0x1
 9329 14bb 54       		.byte	0x54
 9330 14bc 00000000 		.4byte	0
 9331 14c0 00000000 		.4byte	0
 9332              	.LLST89:
 9333 14c4 00000000 		.4byte	.LVL335
 9334 14c8 14000000 		.4byte	.LVL337
 9335 14cc 0100     		.2byte	0x1
 9336 14ce 51       		.byte	0x51
 9337 14cf 14000000 		.4byte	.LVL337
 9338 14d3 40000000 		.4byte	.LFE81
 9339 14d7 0100     		.2byte	0x1
 9340 14d9 55       		.byte	0x55
 9341 14da 00000000 		.4byte	0
 9342 14de 00000000 		.4byte	0
 9343              	.LLST90:
 9344 14e2 2C000000 		.4byte	.LVL340
 9345 14e6 38000000 		.4byte	.LVL341
 9346 14ea 0100     		.2byte	0x1
 9347 14ec 55       		.byte	0x55
 9348 14ed 00000000 		.4byte	0
 9349 14f1 00000000 		.4byte	0
 9350              	.LLST91:
 9351 14f5 2C000000 		.4byte	.LVL340
 9352 14f9 38000000 		.4byte	.LVL341
 9353 14fd 0100     		.2byte	0x1
 9354 14ff 54       		.byte	0x54
 9355 1500 00000000 		.4byte	0
 9356 1504 00000000 		.4byte	0
 9357              	.LLST92:
 9358 1508 00000000 		.4byte	.LVL342
 9359 150c 10000000 		.4byte	.LVL343
 9360 1510 0100     		.2byte	0x1
 9361 1512 50       		.byte	0x50
 9362 1513 10000000 		.4byte	.LVL343
 9363 1517 56000000 		.4byte	.LFE82
 9364 151b 0100     		.2byte	0x1
 9365 151d 54       		.byte	0x54
 9366 151e 00000000 		.4byte	0
 9367 1522 00000000 		.4byte	0
 9368              	.LLST93:
 9369 1526 00000000 		.4byte	.LVL342
 9370 152a 14000000 		.4byte	.LVL344
 9371 152e 0100     		.2byte	0x1
 9372 1530 51       		.byte	0x51
 9373 1531 14000000 		.4byte	.LVL344
 9374 1535 56000000 		.4byte	.LFE82
 9375 1539 0100     		.2byte	0x1
 9376 153b 55       		.byte	0x55
 9377 153c 00000000 		.4byte	0
 9378 1540 00000000 		.4byte	0
ARM GAS  C:\Users\chemi\AppData\Local\Temp\ccHerMgL.s 			page 183


 9379              	.LLST94:
 9380 1544 00000000 		.4byte	.LVL349
 9381 1548 06000000 		.4byte	.LVL350
 9382 154c 0100     		.2byte	0x1
 9383 154e 50       		.byte	0x50
 9384 154f 06000000 		.4byte	.LVL350
 9385 1553 12000000 		.4byte	.LFE83
 9386 1557 0400     		.2byte	0x4
 9387 1559 F3       		.byte	0xf3
 9388 155a 01       		.uleb128 0x1
 9389 155b 50       		.byte	0x50
 9390 155c 9F       		.byte	0x9f
 9391 155d 00000000 		.4byte	0
 9392 1561 00000000 		.4byte	0
 9393              	.LLST95:
 9394 1565 00000000 		.4byte	.LVL352
 9395 1569 05000000 		.4byte	.LVL353-1
 9396 156d 0100     		.2byte	0x1
 9397 156f 50       		.byte	0x50
 9398 1570 05000000 		.4byte	.LVL353-1
 9399 1574 16000000 		.4byte	.LFE84
 9400 1578 0400     		.2byte	0x4
 9401 157a F3       		.byte	0xf3
 9402 157b 01       		.uleb128 0x1
 9403 157c 50       		.byte	0x50
 9404 157d 9F       		.byte	0x9f
 9405 157e 00000000 		.4byte	0
 9406 1582 00000000 		.4byte	0
 9407              	.LLST96:
 9408 1586 00000000 		.4byte	.LVL352
 9409 158a 05000000 		.4byte	.LVL353-1
 9410 158e 0100     		.2byte	0x1
 9411 1590 51       		.byte	0x51
 9412 1591 05000000 		.4byte	.LVL353-1
 9413 1595 16000000 		.4byte	.LFE84
 9414 1599 0400     		.2byte	0x4
 9415 159b F3       		.byte	0xf3
 9416 159c 01       		.uleb128 0x1
 9417 159d 51       		.byte	0x51
 9418 159e 9F       		.byte	0x9f
 9419 159f 00000000 		.4byte	0
 9420 15a3 00000000 		.4byte	0
 9421              	.LLST97:
 9422 15a7 06000000 		.4byte	.LVL353
 9423 15ab 0C000000 		.4byte	.LVL354
 9424 15af 0100     		.2byte	0x1
 9425 15b1 50       		.byte	0x50
 9426 15b2 12000000 		.4byte	.LVL355
 9427 15b6 14000000 		.4byte	.LVL356
 9428 15ba 0100     		.2byte	0x1
 9429 15bc 50       		.byte	0x50
 9430 15bd 00000000 		.4byte	0
 9431 15c1 00000000 		.4byte	0
 9432              		.section	.debug_aranges,"",%progbits
 9433 0000 9C000000 		.4byte	0x9c
 9434 0004 0200     		.2byte	0x2
 9435 0006 00000000 		.4byte	.Ldebug_info0
ARM GAS  C:\Users\chemi\AppData\Local\Temp\ccHerMgL.s 			page 184


 9436 000a 04       		.byte	0x4
 9437 000b 00       		.byte	0
 9438 000c 0000     		.2byte	0
 9439 000e 0000     		.2byte	0
 9440 0010 00000000 		.4byte	.LFB68
 9441 0014 68000000 		.4byte	.LFE68-.LFB68
 9442 0018 00000000 		.4byte	.LFB69
 9443 001c 70010000 		.4byte	.LFE69-.LFB69
 9444 0020 00000000 		.4byte	.LFB70
 9445 0024 D4010000 		.4byte	.LFE70-.LFB70
 9446 0028 00000000 		.4byte	.LFB71
 9447 002c 3C000000 		.4byte	.LFE71-.LFB71
 9448 0030 00000000 		.4byte	.LFB72
 9449 0034 20010000 		.4byte	.LFE72-.LFB72
 9450 0038 00000000 		.4byte	.LFB73
 9451 003c 6A000000 		.4byte	.LFE73-.LFB73
 9452 0040 00000000 		.4byte	.LFB74
 9453 0044 9C010000 		.4byte	.LFE74-.LFB74
 9454 0048 00000000 		.4byte	.LFB75
 9455 004c 20000000 		.4byte	.LFE75-.LFB75
 9456 0050 00000000 		.4byte	.LFB76
 9457 0054 94000000 		.4byte	.LFE76-.LFB76
 9458 0058 00000000 		.4byte	.LFB77
 9459 005c 16000000 		.4byte	.LFE77-.LFB77
 9460 0060 00000000 		.4byte	.LFB78
 9461 0064 CC000000 		.4byte	.LFE78-.LFB78
 9462 0068 00000000 		.4byte	.LFB79
 9463 006c 70010000 		.4byte	.LFE79-.LFB79
 9464 0070 00000000 		.4byte	.LFB80
 9465 0074 64020000 		.4byte	.LFE80-.LFB80
 9466 0078 00000000 		.4byte	.LFB81
 9467 007c 40000000 		.4byte	.LFE81-.LFB81
 9468 0080 00000000 		.4byte	.LFB82
 9469 0084 56000000 		.4byte	.LFE82-.LFB82
 9470 0088 00000000 		.4byte	.LFB83
 9471 008c 12000000 		.4byte	.LFE83-.LFB83
 9472 0090 00000000 		.4byte	.LFB84
 9473 0094 16000000 		.4byte	.LFE84-.LFB84
 9474 0098 00000000 		.4byte	0
 9475 009c 00000000 		.4byte	0
 9476              		.section	.debug_ranges,"",%progbits
 9477              	.Ldebug_ranges0:
 9478 0000 0C000000 		.4byte	.LBB4
 9479 0004 1A000000 		.4byte	.LBE4
 9480 0008 4C000000 		.4byte	.LBB7
 9481 000c 50000000 		.4byte	.LBE7
 9482 0010 00000000 		.4byte	0
 9483 0014 00000000 		.4byte	0
 9484 0018 16000000 		.4byte	.LBB12
 9485 001c 18000000 		.4byte	.LBE12
 9486 0020 1C000000 		.4byte	.LBB13
 9487 0024 4E000000 		.4byte	.LBE13
 9488 0028 00000000 		.4byte	0
 9489 002c 00000000 		.4byte	0
 9490 0030 0A000000 		.4byte	.LBB15
 9491 0034 0E000000 		.4byte	.LBE15
 9492 0038 16000000 		.4byte	.LBB19
ARM GAS  C:\Users\chemi\AppData\Local\Temp\ccHerMgL.s 			page 185


 9493 003c 18000000 		.4byte	.LBE19
 9494 0040 1A000000 		.4byte	.LBB20
 9495 0044 AC000000 		.4byte	.LBE20
 9496 0048 00000000 		.4byte	0
 9497 004c 00000000 		.4byte	0
 9498 0050 2C000000 		.4byte	.LBB16
 9499 0054 2E000000 		.4byte	.LBE16
 9500 0058 30000000 		.4byte	.LBB17
 9501 005c 64000000 		.4byte	.LBE17
 9502 0060 00000000 		.4byte	0
 9503 0064 00000000 		.4byte	0
 9504 0068 B6000000 		.4byte	.LBB22
 9505 006c B8000000 		.4byte	.LBE22
 9506 0070 C4000000 		.4byte	.LBB23
 9507 0074 F6000000 		.4byte	.LBE23
 9508 0078 00000000 		.4byte	0
 9509 007c 00000000 		.4byte	0
 9510 0080 66000000 		.4byte	.LBB25
 9511 0084 88000000 		.4byte	.LBE25
 9512 0088 90000000 		.4byte	.LBB28
 9513 008c CC000000 		.4byte	.LBE28
 9514 0090 D4000000 		.4byte	.LBB31
 9515 0094 4E010000 		.4byte	.LBE31
 9516 0098 38020000 		.4byte	.LBB33
 9517 009c 64020000 		.4byte	.LBE33
 9518 00a0 00000000 		.4byte	0
 9519 00a4 00000000 		.4byte	0
 9520 00a8 CC000000 		.4byte	.LBB29
 9521 00ac D4000000 		.4byte	.LBE29
 9522 00b0 4E010000 		.4byte	.LBB32
 9523 00b4 18020000 		.4byte	.LBE32
 9524 00b8 00000000 		.4byte	0
 9525 00bc 00000000 		.4byte	0
 9526 00c0 00000000 		.4byte	.LFB68
 9527 00c4 68000000 		.4byte	.LFE68
 9528 00c8 00000000 		.4byte	.LFB69
 9529 00cc 70010000 		.4byte	.LFE69
 9530 00d0 00000000 		.4byte	.LFB70
 9531 00d4 D4010000 		.4byte	.LFE70
 9532 00d8 00000000 		.4byte	.LFB71
 9533 00dc 3C000000 		.4byte	.LFE71
 9534 00e0 00000000 		.4byte	.LFB72
 9535 00e4 20010000 		.4byte	.LFE72
 9536 00e8 00000000 		.4byte	.LFB73
 9537 00ec 6A000000 		.4byte	.LFE73
 9538 00f0 00000000 		.4byte	.LFB74
 9539 00f4 9C010000 		.4byte	.LFE74
 9540 00f8 00000000 		.4byte	.LFB75
 9541 00fc 20000000 		.4byte	.LFE75
 9542 0100 00000000 		.4byte	.LFB76
 9543 0104 94000000 		.4byte	.LFE76
 9544 0108 00000000 		.4byte	.LFB77
 9545 010c 16000000 		.4byte	.LFE77
 9546 0110 00000000 		.4byte	.LFB78
 9547 0114 CC000000 		.4byte	.LFE78
 9548 0118 00000000 		.4byte	.LFB79
 9549 011c 70010000 		.4byte	.LFE79
ARM GAS  C:\Users\chemi\AppData\Local\Temp\ccHerMgL.s 			page 186


 9550 0120 00000000 		.4byte	.LFB80
 9551 0124 64020000 		.4byte	.LFE80
 9552 0128 00000000 		.4byte	.LFB81
 9553 012c 40000000 		.4byte	.LFE81
 9554 0130 00000000 		.4byte	.LFB82
 9555 0134 56000000 		.4byte	.LFE82
 9556 0138 00000000 		.4byte	.LFB83
 9557 013c 12000000 		.4byte	.LFE83
 9558 0140 00000000 		.4byte	.LFB84
 9559 0144 16000000 		.4byte	.LFE84
 9560 0148 00000000 		.4byte	0
 9561 014c 00000000 		.4byte	0
 9562              		.section	.debug_line,"",%progbits
 9563              	.Ldebug_line0:
 9564 0000 C5060000 		.section	.debug_str,"MS",%progbits,1
 9564      0200C102 
 9564      00000201 
 9564      FB0E0D00 
 9564      01010101 
 9565              	.LASF46:
 9566 0000 5F565431 		.ascii	"_VT100_ERASE_LINE\000"
 9566      30305F45 
 9566      52415345 
 9566      5F4C494E 
 9566      4500
 9567              	.LASF174:
 9568 0012 636F756E 		.ascii	"count\000"
 9568      7400
 9569              	.LASF120:
 9570 0018 70617261 		.ascii	"parameter_entry\000"
 9570      6D657465 
 9570      725F656E 
 9570      74727900 
 9571              	.LASF72:
 9572 0028 7072696E 		.ascii	"print\000"
 9572      7400
 9573              	.LASF182:
 9574 002e 67657463 		.ascii	"getche\000"
 9574      686500
 9575              	.LASF45:
 9576 0035 5F565431 		.ascii	"_VT100_ERASE_SCREEN\000"
 9576      30305F45 
 9576      52415345 
 9576      5F534352 
 9576      45454E00 
 9577              	.LASF58:
 9578 0049 5F565431 		.ascii	"_VT100_CURSOR_ENABLE\000"
 9578      30305F43 
 9578      5552534F 
 9578      525F454E 
 9578      41424C45 
 9579              	.LASF169:
 9580 005e 74656D70 		.ascii	"temp_hash1\000"
 9580      5F686173 
 9580      683100
 9581              	.LASF170:
 9582 0069 74656D70 		.ascii	"temp_hash2\000"
ARM GAS  C:\Users\chemi\AppData\Local\Temp\ccHerMgL.s 			page 187


 9582      5F686173 
 9582      683200
 9583              	.LASF44:
 9584 0074 5F565431 		.ascii	"_VT100_HIDDEN\000"
 9584      30305F48 
 9584      49444445 
 9584      4E00
 9585              	.LASF154:
 9586 0082 45455052 		.ascii	"EEPROM_Read_Row\000"
 9586      4F4D5F52 
 9586      6561645F 
 9586      526F7700 
 9587              	.LASF207:
 9588 0092 7072696E 		.ascii	"print_param\000"
 9588      745F7061 
 9588      72616D00 
 9589              	.LASF1:
 9590 009e 7369676E 		.ascii	"signed char\000"
 9590      65642063 
 9590      68617200 
 9591              	.LASF3:
 9592 00aa 5F5F7569 		.ascii	"__uint8_t\000"
 9592      6E74385F 
 9592      7400
 9593              	.LASF115:
 9594 00b4 74797065 		.ascii	"type\000"
 9594      00
 9595              	.LASF10:
 9596 00b9 6C6F6E67 		.ascii	"long int\000"
 9596      20696E74 
 9596      00
 9597              	.LASF81:
 9598 00c2 6572726F 		.ascii	"errorPrinter\000"
 9598      72507269 
 9598      6E746572 
 9598      00
 9599              	.LASF205:
 9600 00cf 433A5C55 		.ascii	"C:\\Users\\chemi\\UD3_QCW\\UD3_QFN.cydsn\000"
 9600      73657273 
 9600      5C636865 
 9600      6D695C55 
 9600      44335F51 
 9601              	.LASF14:
 9602 00f4 6C6F6E67 		.ascii	"long long unsigned int\000"
 9602      206C6F6E 
 9602      6720756E 
 9602      7369676E 
 9602      65642069 
 9603              	.LASF155:
 9604 010b 61646472 		.ascii	"addr\000"
 9604      00
 9605              	.LASF180:
 9606 0110 64617461 		.ascii	"data\000"
 9606      00
 9607              	.LASF83:
 9608 0115 5F5F5445 		.ascii	"__TERMINAL_HANDLE__\000"
 9608      524D494E 
ARM GAS  C:\Users\chemi\AppData\Local\Temp\ccHerMgL.s 			page 188


 9608      414C5F48 
 9608      414E444C 
 9608      455F5F00 
 9609              	.LASF28:
 9610 0129 51756575 		.ascii	"QueueHandle_t\000"
 9610      6548616E 
 9610      646C655F 
 9610      7400
 9611              	.LASF186:
 9612 0137 49544D5F 		.ascii	"ITM_RxBuffer\000"
 9612      52784275 
 9612      66666572 
 9612      00
 9613              	.LASF67:
 9614 0144 63757272 		.ascii	"currAutocompleteCount\000"
 9614      4175746F 
 9614      636F6D70 
 9614      6C657465 
 9614      436F756E 
 9615              	.LASF141:
 9616 015a 755F7465 		.ascii	"u_temp_buffer\000"
 9616      6D705F62 
 9616      75666665 
 9616      7200
 9617              	.LASF55:
 9618 0168 5F565431 		.ascii	"_VT100_CURSOR_UP_BY\000"
 9618      30305F43 
 9618      5552534F 
 9618      525F5550 
 9618      5F425900 
 9619              	.LASF17:
 9620 017c 696E7431 		.ascii	"int16_t\000"
 9620      365F7400 
 9621              	.LASF111:
 9622 0184 54595045 		.ascii	"TYPE_STRING\000"
 9622      5F535452 
 9622      494E4700 
 9623              	.LASF61:
 9624 0190 5F565431 		.ascii	"_VT100_CLS\000"
 9624      30305F43 
 9624      4C5300
 9625              	.LASF57:
 9626 019b 5F565431 		.ascii	"_VT100_CURSOR_RESTORE_POSITION\000"
 9626      30305F43 
 9626      5552534F 
 9626      525F5245 
 9626      53544F52 
 9627              	.LASF132:
 9628 01ba 78546963 		.ascii	"xTicksToWait\000"
 9628      6B73546F 
 9628      57616974 
 9628      00
 9629              	.LASF68:
 9630 01c7 63757272 		.ascii	"currProgram\000"
 9630      50726F67 
 9630      72616D00 
 9631              	.LASF85:
ARM GAS  C:\Users\chemi\AppData\Local\Temp\ccHerMgL.s 			page 189


 9632 01d3 66756E63 		.ascii	"function\000"
 9632      74696F6E 
 9632      00
 9633              	.LASF2:
 9634 01dc 5F5F696E 		.ascii	"__int8_t\000"
 9634      74385F74 
 9634      00
 9635              	.LASF118:
 9636 01e5 7465726D 		.ascii	"term_block\000"
 9636      5F626C6F 
 9636      636B00
 9637              	.LASF53:
 9638 01f0 5F565431 		.ascii	"_VT100_CURSOR_FORWARD_BY\000"
 9638      30305F43 
 9638      5552534F 
 9638      525F464F 
 9638      52574152 
 9639              	.LASF128:
 9640 0209 68656C70 		.ascii	"help\000"
 9640      00
 9641              	.LASF176:
 9642 020e 6368616E 		.ascii	"change_count\000"
 9642      67655F63 
 9642      6F756E74 
 9642      00
 9643              	.LASF52:
 9644 021b 5F565431 		.ascii	"_VT100_CURSOR_BACK_BY\000"
 9644      30305F43 
 9644      5552534F 
 9644      525F4241 
 9644      434B5F42 
 9645              	.LASF183:
 9646 0231 6B626869 		.ascii	"kbhit\000"
 9646      7400
 9647              	.LASF188:
 9648 0237 73747274 		.ascii	"strtof\000"
 9648      6F6600
 9649              	.LASF181:
 9650 023e 666F756E 		.ascii	"found_param\000"
 9650      645F7061 
 9650      72616D00 
 9651              	.LASF29:
 9652 024a 74736B54 		.ascii	"tskTaskControlBlock\000"
 9652      61736B43 
 9652      6F6E7472 
 9652      6F6C426C 
 9652      6F636B00 
 9653              	.LASF38:
 9654 025e 5F565431 		.ascii	"_VT100_RESET_ATTRIB\000"
 9654      30305F52 
 9654      45534554 
 9654      5F415454 
 9654      52494200 
 9655              	.LASF190:
 9656 0272 73747274 		.ascii	"strtol\000"
 9656      6F6C00
 9657              	.LASF66:
ARM GAS  C:\Users\chemi\AppData\Local\Temp\ccHerMgL.s 			page 190


 9658 0279 63757272 		.ascii	"currBufferLength\000"
 9658      42756666 
 9658      65724C65 
 9658      6E677468 
 9658      00
 9659              	.LASF27:
 9660 028a 5461736B 		.ascii	"TaskHandle_t\000"
 9660      48616E64 
 9660      6C655F74 
 9660      00
 9661              	.LASF158:
 9662 0297 61646472 		.ascii	"address\000"
 9662      65737300 
 9663              	.LASF13:
 9664 029f 6C6F6E67 		.ascii	"long long int\000"
 9664      206C6F6E 
 9664      6720696E 
 9664      7400
 9665              	.LASF145:
 9666 02ad 665F7465 		.ascii	"f_temp_buffer\000"
 9666      6D705F62 
 9666      75666665 
 9666      7200
 9667              	.LASF93:
 9668 02bb 5465726D 		.ascii	"TermCommandFunction\000"
 9668      436F6D6D 
 9668      616E6446 
 9668      756E6374 
 9668      696F6E00 
 9669              	.LASF22:
 9670 02cf 646F7562 		.ascii	"double\000"
 9670      6C6500
 9671              	.LASF142:
 9672 02d6 695F7465 		.ascii	"i_temp_buffer\000"
 9672      6D705F62 
 9672      75666665 
 9672      7200
 9673              	.LASF25:
 9674 02e4 42617365 		.ascii	"BaseType_t\000"
 9674      54797065 
 9674      5F7400
 9675              	.LASF151:
 9676 02ef 74657874 		.ascii	"text_len\000"
 9676      5F6C656E 
 9676      00
 9677              	.LASF60:
 9678 02f8 5F565431 		.ascii	"_VT100_CURSOR_SET_COLUMN\000"
 9678      30305F43 
 9678      5552534F 
 9678      525F5345 
 9678      545F434F 
 9679              	.LASF147:
 9680 0311 7365745F 		.ascii	"set_visibility\000"
 9680      76697369 
 9680      62696C69 
 9680      747900
 9681              	.LASF157:
ARM GAS  C:\Users\chemi\AppData\Local\Temp\ccHerMgL.s 			page 191


 9682 0320 62797465 		.ascii	"byte\000"
 9682      00
 9683              	.LASF194:
 9684 0325 73707269 		.ascii	"sprintf_\000"
 9684      6E74665F 
 9684      00
 9685              	.LASF11:
 9686 032e 5F5F7569 		.ascii	"__uint32_t\000"
 9686      6E743332 
 9686      5F7400
 9687              	.LASF203:
 9688 0339 474E5520 		.ascii	"GNU C99 5.4.1 20160609 (release) [ARM/embedded-5-br"
 9688      43393920 
 9688      352E342E 
 9688      31203230 
 9688      31363036 
 9689 036c 616E6368 		.ascii	"anch revision 237715] -mcpu=cortex-m3 -mthumb -g -O"
 9689      20726576 
 9689      6973696F 
 9689      6E203233 
 9689      37373135 
 9690 039f 73202D73 		.ascii	"s -std=gnu99 -ffunction-sections -ffat-lto-objects\000"
 9690      74643D67 
 9690      6E753939 
 9690      202D6666 
 9690      756E6374 
 9691              	.LASF84:
 9692 03d2 5F5F5465 		.ascii	"__TermCommandDescriptor__\000"
 9692      726D436F 
 9692      6D6D616E 
 9692      64446573 
 9692      63726970 
 9693              	.LASF113:
 9694 03ec 706F7274 		.ascii	"port_str\000"
 9694      5F737472 
 9694      00
 9695              	.LASF36:
 9696 03f5 5F565431 		.ascii	"_VT100_FOREGROUND_COLOR\000"
 9696      30305F46 
 9696      4F524547 
 9696      524F554E 
 9696      445F434F 
 9697              	.LASF64:
 9698 040d 706F7274 		.ascii	"port\000"
 9698      00
 9699              	.LASF125:
 9700 0412 76616C75 		.ascii	"value\000"
 9700      6500
 9701              	.LASF156:
 9702 0418 45455052 		.ascii	"EEPROM_buffer_write\000"
 9702      4F4D5F62 
 9702      75666665 
 9702      725F7772 
 9702      69746500 
 9703              	.LASF204:
 9704 042c 2E2E5C63 		.ascii	"..\\common\\ud3core\\cli_basic.c\000"
 9704      6F6D6D6F 
ARM GAS  C:\Users\chemi\AppData\Local\Temp\ccHerMgL.s 			page 192


 9704      6E5C7564 
 9704      33636F72 
 9704      655C636C 
 9705              	.LASF196:
 9706 044a 45455052 		.ascii	"EEPROM_1_Write\000"
 9706      4F4D5F31 
 9706      5F577269 
 9706      746500
 9707              	.LASF121:
 9708 0459 70617261 		.ascii	"parameter_entry_struct\000"
 9708      6D657465 
 9708      725F656E 
 9708      7472795F 
 9708      73747275 
 9709              	.LASF0:
 9710 0470 756E7369 		.ascii	"unsigned int\000"
 9710      676E6564 
 9710      20696E74 
 9710      00
 9711              	.LASF130:
 9712 047d 67657463 		.ascii	"getch\000"
 9712      6800
 9713              	.LASF18:
 9714 0483 75696E74 		.ascii	"uint16_t\000"
 9714      31365F74 
 9714      00
 9715              	.LASF192:
 9716 048c 7374726C 		.ascii	"strlen\000"
 9716      656E00
 9717              	.LASF164:
 9718 0493 726F774E 		.ascii	"rowNumber\000"
 9718      756D6265 
 9718      7200
 9719              	.LASF108:
 9720 049d 54595045 		.ascii	"TYPE_SIGNED\000"
 9720      5F534947 
 9720      4E454400 
 9721              	.LASF127:
 9722 04a9 63616C6C 		.ascii	"callback_function\000"
 9722      6261636B 
 9722      5F66756E 
 9722      6374696F 
 9722      6E00
 9723              	.LASF137:
 9724 04bb 63685F70 		.ascii	"ch_ptr\000"
 9724      747200
 9725              	.LASF12:
 9726 04c2 6C6F6E67 		.ascii	"long unsigned int\000"
 9726      20756E73 
 9726      69676E65 
 9726      6420696E 
 9726      7400
 9727              	.LASF69:
 9728 04d4 6175746F 		.ascii	"autocompleteBuffer\000"
 9728      636F6D70 
 9728      6C657465 
 9728      42756666 
ARM GAS  C:\Users\chemi\AppData\Local\Temp\ccHerMgL.s 			page 193


 9728      657200
 9729              	.LASF71:
 9730 04e7 6175746F 		.ascii	"autocompleteStart\000"
 9730      636F6D70 
 9730      6C657465 
 9730      53746172 
 9730      7400
 9731              	.LASF171:
 9732 04f9 636F6C6C 		.ascii	"collision\000"
 9732      6973696F 
 9732      6E00
 9733              	.LASF198:
 9734 0503 78517565 		.ascii	"xQueueSemaphoreTake\000"
 9734      75655365 
 9734      6D617068 
 9734      6F726554 
 9734      616B6500 
 9735              	.LASF124:
 9736 0517 6E616D65 		.ascii	"name\000"
 9736      00
 9737              	.LASF95:
 9738 051c 5465726D 		.ascii	"TermErrorPrinter\000"
 9738      4572726F 
 9738      72507269 
 9738      6E746572 
 9738      00
 9739              	.LASF199:
 9740 052d 78517565 		.ascii	"xQueueGenericSend\000"
 9740      75654765 
 9740      6E657269 
 9740      6353656E 
 9740      6400
 9741              	.LASF166:
 9742 053f 646A625F 		.ascii	"djb_hash\000"
 9742      68617368 
 9742      00
 9743              	.LASF32:
 9744 0548 53747265 		.ascii	"StreamBufferHandle_t\000"
 9744      616D4275 
 9744      66666572 
 9744      48616E64 
 9744      6C655F74 
 9745              	.LASF126:
 9746 055d 73697A65 		.ascii	"size\000"
 9746      00
 9747              	.LASF8:
 9748 0562 73686F72 		.ascii	"short unsigned int\000"
 9748      7420756E 
 9748      7369676E 
 9748      65642069 
 9748      6E7400
 9749              	.LASF122:
 9750 0575 70617261 		.ascii	"parameter_type\000"
 9750      6D657465 
 9750      725F7479 
 9750      706500
 9751              	.LASF178:
ARM GAS  C:\Users\chemi\AppData\Local\Temp\ccHerMgL.s 			page 194


 9752 0584 70617261 		.ascii	"param_count\000"
 9752      6D5F636F 
 9752      756E7400 
 9753              	.LASF195:
 9754 0590 45455052 		.ascii	"EEPROM_1_ReadByte\000"
 9754      4F4D5F31 
 9754      5F526561 
 9754      64427974 
 9754      6500
 9755              	.LASF139:
 9756 05a2 70617261 		.ascii	"param_type\000"
 9756      6D5F7479 
 9756      706500
 9757              	.LASF43:
 9758 05ad 5F565431 		.ascii	"_VT100_REVERSE\000"
 9758      30305F52 
 9758      45564552 
 9758      534500
 9759              	.LASF160:
 9760 05bc 65657072 		.ascii	"eeprom_buffer\000"
 9760      6F6D5F62 
 9760      75666665 
 9760      7200
 9761              	.LASF101:
 9762 05ca 696E7075 		.ascii	"inputStream\000"
 9762      74537472 
 9762      65616D00 
 9763              	.LASF78:
 9764 05d6 65736353 		.ascii	"escSeqBuff\000"
 9764      65714275 
 9764      666600
 9765              	.LASF50:
 9766 05e1 5F565431 		.ascii	"_VT100_WRAP_OFF\000"
 9766      30305F57 
 9766      5241505F 
 9766      4F464600 
 9767              	.LASF173:
 9768 05f1 65657072 		.ascii	"eeprom_offset\000"
 9768      6F6D5F6F 
 9768      66667365 
 9768      7400
 9769              	.LASF9:
 9770 05ff 5F5F696E 		.ascii	"__int32_t\000"
 9770      7433325F 
 9770      7400
 9771              	.LASF129:
 9772 0609 6E5F6E75 		.ascii	"n_number\000"
 9772      6D626572 
 9772      00
 9773              	.LASF114:
 9774 0612 706F7274 		.ascii	"port_struct\000"
 9774      5F737472 
 9774      75637400 
 9775              	.LASF62:
 9776 061e 5445524D 		.ascii	"TERMINAL_HANDLE\000"
 9776      494E414C 
 9776      5F48414E 
ARM GAS  C:\Users\chemi\AppData\Local\Temp\ccHerMgL.s 			page 195


 9776      444C4500 
 9777              	.LASF100:
 9778 062e 7261775F 		.ascii	"raw_input\000"
 9778      696E7075 
 9778      7400
 9779              	.LASF35:
 9780 0638 5F565431 		.ascii	"_VT100_CURSOR_END\000"
 9780      30305F43 
 9780      5552534F 
 9780      525F454E 
 9780      4400
 9781              	.LASF140:
 9782 064a 63757272 		.ascii	"current_parameter\000"
 9782      656E745F 
 9782      70617261 
 9782      6D657465 
 9782      7200
 9783              	.LASF119:
 9784 065c 74656C65 		.ascii	"telemetry_handle\000"
 9784      6D657472 
 9784      795F6861 
 9784      6E646C65 
 9784      00
 9785              	.LASF34:
 9786 066d 5F565431 		.ascii	"_VT100_CURSOR_POS1\000"
 9786      30305F43 
 9786      5552534F 
 9786      525F504F 
 9786      533100
 9787              	.LASF24:
 9788 0680 73697A65 		.ascii	"sizetype\000"
 9788      74797065 
 9788      00
 9789              	.LASF103:
 9790 0689 61726743 		.ascii	"argCount\000"
 9790      6F756E74 
 9790      00
 9791              	.LASF49:
 9792 0692 5F565431 		.ascii	"_VT100_WRAP_ON\000"
 9792      30305F57 
 9792      5241505F 
 9792      4F4E00
 9793              	.LASF39:
 9794 06a1 5F565431 		.ascii	"_VT100_BRIGHT\000"
 9794      30305F42 
 9794      52494748 
 9794      5400
 9795              	.LASF56:
 9796 06af 5F565431 		.ascii	"_VT100_CURSOR_SAVE_POSITION\000"
 9796      30305F43 
 9796      5552534F 
 9796      525F5341 
 9796      56455F50 
 9797              	.LASF191:
 9798 06cb 5445524D 		.ascii	"TERM_sendVT100Code\000"
 9798      5F73656E 
 9798      64565431 
ARM GAS  C:\Users\chemi\AppData\Local\Temp\ccHerMgL.s 			page 196


 9798      3030436F 
 9798      646500
 9799              	.LASF26:
 9800 06de 5469636B 		.ascii	"TickType_t\000"
 9800      54797065 
 9800      5F7400
 9801              	.LASF184:
 9802 06e9 5465726D 		.ascii	"Term_check_break\000"
 9802      5F636865 
 9802      636B5F62 
 9802      7265616B 
 9802      00
 9803              	.LASF88:
 9804 06fa 636F6D6D 		.ascii	"commandLength\000"
 9804      616E644C 
 9804      656E6774 
 9804      6800
 9805              	.LASF179:
 9806 0708 45455052 		.ascii	"EEPROM_read_conf\000"
 9806      4F4D5F72 
 9806      6561645F 
 9806      636F6E66 
 9806      00
 9807              	.LASF165:
 9808 0719 62797465 		.ascii	"byteNumber\000"
 9808      4E756D62 
 9808      657200
 9809              	.LASF175:
 9810 0724 6368616E 		.ascii	"change_flag\000"
 9810      67655F66 
 9810      6C616700 
 9811              	.LASF40:
 9812 0730 5F565431 		.ascii	"_VT100_DIM\000"
 9812      30305F44 
 9812      494D00
 9813              	.LASF51:
 9814 073b 5F565431 		.ascii	"_VT100_ERASE_LINE_END\000"
 9814      30305F45 
 9814      52415345 
 9814      5F4C494E 
 9814      455F454E 
 9815              	.LASF112:
 9816 0751 54595045 		.ascii	"TYPE_BUFFER\000"
 9816      5F425546 
 9816      46455200 
 9817              	.LASF79:
 9818 075d 6563686F 		.ascii	"echoEnabled\000"
 9818      456E6162 
 9818      6C656400 
 9819              	.LASF41:
 9820 0769 5F565431 		.ascii	"_VT100_UNDERSCORE\000"
 9820      30305F55 
 9820      4E444552 
 9820      53434F52 
 9820      4500
 9821              	.LASF21:
 9822 077b 666C6F61 		.ascii	"float\000"
ARM GAS  C:\Users\chemi\AppData\Local\Temp\ccHerMgL.s 			page 197


 9822      7400
 9823              	.LASF168:
 9824 0781 45455052 		.ascii	"EEPROM_check_hash\000"
 9824      4F4D5F63 
 9824      6865636B 
 9824      5F686173 
 9824      6800
 9825              	.LASF206:
 9826 0793 6572726F 		.ascii	"error\000"
 9826      7200
 9827              	.LASF99:
 9828 0799 696E7075 		.ascii	"inputHandler\000"
 9828      7448616E 
 9828      646C6572 
 9828      00
 9829              	.LASF82:
 9830 07a6 5465726D 		.ascii	"TermCommandDescriptor\000"
 9830      436F6D6D 
 9830      616E6444 
 9830      65736372 
 9830      6970746F 
 9831              	.LASF110:
 9832 07bc 54595045 		.ascii	"TYPE_CHAR\000"
 9832      5F434841 
 9832      5200
 9833              	.LASF92:
 9834 07c6 6E657874 		.ascii	"nextCmd\000"
 9834      436D6400 
 9835              	.LASF201:
 9836 07ce 78537472 		.ascii	"xStreamBufferSend\000"
 9836      65616D42 
 9836      75666665 
 9836      7253656E 
 9836      6400
 9837              	.LASF187:
 9838 07e0 62797465 		.ascii	"byte_cnt\000"
 9838      5F636E74 
 9838      00
 9839              	.LASF37:
 9840 07e9 5F565431 		.ascii	"_VT100_BACKGROUND_COLOR\000"
 9840      30305F42 
 9840      41434B47 
 9840      524F554E 
 9840      445F434F 
 9841              	.LASF30:
 9842 0801 51756575 		.ascii	"QueueDefinition\000"
 9842      65446566 
 9842      696E6974 
 9842      696F6E00 
 9843              	.LASF19:
 9844 0811 696E7433 		.ascii	"int32_t\000"
 9844      325F7400 
 9845              	.LASF4:
 9846 0819 756E7369 		.ascii	"unsigned char\000"
 9846      676E6564 
 9846      20636861 
 9846      7200
ARM GAS  C:\Users\chemi\AppData\Local\Temp\ccHerMgL.s 			page 198


 9847              	.LASF161:
 9848 0827 6C617374 		.ascii	"last_row\000"
 9848      5F726F77 
 9848      00
 9849              	.LASF134:
 9850 0830 6E657756 		.ascii	"newValue\000"
 9850      616C7565 
 9850      00
 9851              	.LASF107:
 9852 0839 54595045 		.ascii	"TYPE_UNSIGNED\000"
 9852      5F554E53 
 9852      49474E45 
 9852      4400
 9853              	.LASF6:
 9854 0847 73686F72 		.ascii	"short int\000"
 9854      7420696E 
 9854      7400
 9855              	.LASF94:
 9856 0851 5465726D 		.ascii	"TermCommandInputHandler\000"
 9856      436F6D6D 
 9856      616E6449 
 9856      6E707574 
 9856      48616E64 
 9857              	.LASF76:
 9858 0869 63757272 		.ascii	"currHistoryReadPosition\000"
 9858      48697374 
 9858      6F727952 
 9858      65616450 
 9858      6F736974 
 9859              	.LASF104:
 9860 0881 5465726D 		.ascii	"TermProgram\000"
 9860      50726F67 
 9860      72616D00 
 9861              	.LASF54:
 9862 088d 5F565431 		.ascii	"_VT100_CURSOR_DOWN_BY\000"
 9862      30305F43 
 9862      5552534F 
 9862      525F444F 
 9862      574E5F42 
 9863              	.LASF65:
 9864 08a3 63757272 		.ascii	"currBufferPosition\000"
 9864      42756666 
 9864      6572506F 
 9864      73697469 
 9864      6F6E00
 9865              	.LASF133:
 9866 08b6 70617261 		.ascii	"params\000"
 9866      6D7300
 9867              	.LASF42:
 9868 08bd 5F565431 		.ascii	"_VT100_BLINK\000"
 9868      30305F42 
 9868      4C494E4B 
 9868      00
 9869              	.LASF105:
 9870 08ca 76743130 		.ascii	"vt100\000"
 9870      3000
 9871              	.LASF152:
ARM GAS  C:\Users\chemi\AppData\Local\Temp\ccHerMgL.s 			page 199


 9872 08d0 7072696E 		.ascii	"print_param_buffer\000"
 9872      745F7061 
 9872      72616D5F 
 9872      62756666 
 9872      657200
 9873              	.LASF47:
 9874 08e3 5F565431 		.ascii	"_VT100_FONT_G0\000"
 9874      30305F46 
 9874      4F4E545F 
 9874      473000
 9875              	.LASF48:
 9876 08f2 5F565431 		.ascii	"_VT100_FONT_G1\000"
 9876      30305F46 
 9876      4F4E545F 
 9876      473100
 9877              	.LASF77:
 9878 0901 63757272 		.ascii	"currEscSeqPos\000"
 9878      45736353 
 9878      6571506F 
 9878      7300
 9879              	.LASF20:
 9880 090f 75696E74 		.ascii	"uint32_t\000"
 9880      33325F74 
 9880      00
 9881              	.LASF138:
 9882 0918 70617261 		.ascii	"param_size\000"
 9882      6D5F7369 
 9882      7A6500
 9883              	.LASF146:
 9884 0923 75706461 		.ascii	"updateDefaultFunction\000"
 9884      74654465 
 9884      6661756C 
 9884      7446756E 
 9884      6374696F 
 9885              	.LASF23:
 9886 0939 63686172 		.ascii	"char\000"
 9886      00
 9887              	.LASF31:
 9888 093e 53656D61 		.ascii	"SemaphoreHandle_t\000"
 9888      70686F72 
 9888      6548616E 
 9888      646C655F 
 9888      7400
 9889              	.LASF136:
 9890 0950 6676616C 		.ascii	"fvalue\000"
 9890      756500
 9891              	.LASF106:
 9892 0957 636C695F 		.ascii	"cli_types\000"
 9892      74797065 
 9892      7300
 9893              	.LASF148:
 9894 0961 74657874 		.ascii	"text\000"
 9894      00
 9895              	.LASF197:
 9896 0966 616C6172 		.ascii	"alarm_push\000"
 9896      6D5F7075 
 9896      736800
ARM GAS  C:\Users\chemi\AppData\Local\Temp\ccHerMgL.s 			page 200


 9897              	.LASF7:
 9898 0971 5F5F7569 		.ascii	"__uint16_t\000"
 9898      6E743136 
 9898      5F7400
 9899              	.LASF59:
 9900 097c 5F565431 		.ascii	"_VT100_CURSOR_DISABLE\000"
 9900      30305F43 
 9900      5552534F 
 9900      525F4449 
 9900      5341424C 
 9901              	.LASF135:
 9902 0992 696E6465 		.ascii	"index\000"
 9902      7800
 9903              	.LASF86:
 9904 0998 636F6D6D 		.ascii	"command\000"
 9904      616E6400 
 9905              	.LASF153:
 9906 09a0 62756666 		.ascii	"buffer\000"
 9906      657200
 9907              	.LASF177:
 9908 09a7 74656D70 		.ascii	"temp_hash\000"
 9908      5F686173 
 9908      6800
 9909              	.LASF80:
 9910 09b1 636D644C 		.ascii	"cmdListHead\000"
 9910      69737448 
 9910      65616400 
 9911              	.LASF193:
 9912 09bd 6D656D63 		.ascii	"memcmp\000"
 9912      6D7000
 9913              	.LASF97:
 9914 09c4 5465726D 		.ascii	"TermAutoCompHandler\000"
 9914      4175746F 
 9914      436F6D70 
 9914      48616E64 
 9914      6C657200 
 9915              	.LASF98:
 9916 09d8 7461736B 		.ascii	"task\000"
 9916      00
 9917              	.LASF70:
 9918 09dd 6175746F 		.ascii	"autocompleteBufferLength\000"
 9918      636F6D70 
 9918      6C657465 
 9918      42756666 
 9918      65724C65 
 9919              	.LASF163:
 9920 09f6 7265745F 		.ascii	"ret_change\000"
 9920      6368616E 
 9920      676500
 9921              	.LASF167:
 9922 0a01 68617368 		.ascii	"hash\000"
 9922      00
 9923              	.LASF87:
 9924 0a06 636F6D6D 		.ascii	"commandDescription\000"
 9924      616E6444 
 9924      65736372 
 9924      69707469 
ARM GAS  C:\Users\chemi\AppData\Local\Temp\ccHerMgL.s 			page 201


 9924      6F6E00
 9925              	.LASF15:
 9926 0a19 696E7438 		.ascii	"int8_t\000"
 9926      5F7400
 9927              	.LASF74:
 9928 0a20 68697374 		.ascii	"historyBuffer\000"
 9928      6F727942 
 9928      75666665 
 9928      7200
 9929              	.LASF90:
 9930 0a2e 41434861 		.ascii	"ACHandler\000"
 9930      6E646C65 
 9930      7200
 9931              	.LASF159:
 9932 0a38 666C7573 		.ascii	"flush\000"
 9932      6800
 9933              	.LASF63:
 9934 0a3e 696E7075 		.ascii	"inputBuffer\000"
 9934      74427566 
 9934      66657200 
 9935              	.LASF123:
 9936 0a4a 76697369 		.ascii	"visible\000"
 9936      626C6500 
 9937              	.LASF73:
 9938 0a52 63757272 		.ascii	"currUserName\000"
 9938      55736572 
 9938      4E616D65 
 9938      00
 9939              	.LASF189:
 9940 0a5f 73747274 		.ascii	"strtoul\000"
 9940      6F756C00 
 9941              	.LASF149:
 9942 0a67 6D61785F 		.ascii	"max_len\000"
 9942      6C656E00 
 9943              	.LASF89:
 9944 0a6f 6D696E50 		.ascii	"minPermissionLevel\000"
 9944      65726D69 
 9944      7373696F 
 9944      6E4C6576 
 9944      656C00
 9945              	.LASF144:
 9946 0a82 7072696E 		.ascii	"print_param_help\000"
 9946      745F7061 
 9946      72616D5F 
 9946      68656C70 
 9946      00
 9947              	.LASF16:
 9948 0a93 75696E74 		.ascii	"uint8_t\000"
 9948      385F7400 
 9949              	.LASF117:
 9950 0a9b 7465726D 		.ascii	"term_send_alarms\000"
 9950      5F73656E 
 9950      645F616C 
 9950      61726D73 
 9950      00
 9951              	.LASF143:
 9952 0aac 7072696E 		.ascii	"print_param_helperfunc\000"
ARM GAS  C:\Users\chemi\AppData\Local\Temp\ccHerMgL.s 			page 202


 9952      745F7061 
 9952      72616D5F 
 9952      68656C70 
 9952      65726675 
 9953              	.LASF150:
 9954 0ac3 6D61785F 		.ascii	"max_index\000"
 9954      696E6465 
 9954      7800
 9955              	.LASF200:
 9956 0acd 78537472 		.ascii	"xStreamBufferReceive\000"
 9956      65616D42 
 9956      75666665 
 9956      72526563 
 9956      65697665 
 9957              	.LASF75:
 9958 0ae2 63757272 		.ascii	"currHistoryWritePosition\000"
 9958      48697374 
 9958      6F727957 
 9958      72697465 
 9958      506F7369 
 9959              	.LASF5:
 9960 0afb 5F5F696E 		.ascii	"__int16_t\000"
 9960      7431365F 
 9960      7400
 9961              	.LASF109:
 9962 0b05 54595045 		.ascii	"TYPE_FLOAT\000"
 9962      5F464C4F 
 9962      415400
 9963              	.LASF131:
 9964 0b10 68616E64 		.ascii	"handle\000"
 9964      6C6500
 9965              	.LASF172:
 9966 0b17 45455052 		.ascii	"EEPROM_write_conf\000"
 9966      4F4D5F77 
 9966      72697465 
 9966      5F636F6E 
 9966      6600
 9967              	.LASF116:
 9968 0b29 7465726D 		.ascii	"term_mode\000"
 9968      5F6D6F64 
 9968      6500
 9969              	.LASF162:
 9970 0b33 6368616E 		.ascii	"changed\000"
 9970      67656400 
 9971              	.LASF102:
 9972 0b3b 61726773 		.ascii	"args\000"
 9972      00
 9973              	.LASF202:
 9974 0b40 78537472 		.ascii	"xStreamBufferIsEmpty\000"
 9974      65616D42 
 9974      75666665 
 9974      72497345 
 9974      6D707479 
 9975              	.LASF33:
 9976 0b55 53747265 		.ascii	"StreamBufferDef_t\000"
 9976      616D4275 
 9976      66666572 
ARM GAS  C:\Users\chemi\AppData\Local\Temp\ccHerMgL.s 			page 203


 9976      4465665F 
 9976      7400
 9977              	.LASF91:
 9978 0b67 41435061 		.ascii	"ACParams\000"
 9978      72616D73 
 9978      00
 9979              	.LASF96:
 9980 0b70 5465726D 		.ascii	"TermPrintHandler\000"
 9980      5072696E 
 9980      7448616E 
 9980      646C6572 
 9980      00
 9981              	.LASF185:
 9982 0b81 6D735F74 		.ascii	"ms_to_wait\000"
 9982      6F5F7761 
 9982      697400
 9983              		.ident	"GCC: (GNU Tools for ARM Embedded Processors) 5.4.1 20160609 (release) [ARM/embedded-5-bran
