ARM GAS  C:\Users\chemi\AppData\Local\Temp\ccFrP3K3.s 			page 1


   1              		.syntax unified
   2              		.cpu cortex-m3
   3              		.fpu softvfp
   4              		.eabi_attribute 20, 1
   5              		.eabi_attribute 21, 1
   6              		.eabi_attribute 23, 3
   7              		.eabi_attribute 24, 1
   8              		.eabi_attribute 25, 1
   9              		.eabi_attribute 26, 1
  10              		.eabi_attribute 30, 4
  11              		.eabi_attribute 34, 1
  12              		.eabi_attribute 18, 4
  13              		.thumb
  14              		.syntax unified
  15              		.file	"cli_common.c"
  16              		.text
  17              	.Ltext0:
  18              		.cfi_sections	.debug_frame
  19              		.section	.text.callback_TuneFunction,"ax",%progbits
  20              		.align	1
  21              		.global	callback_TuneFunction
  22              		.thumb
  23              		.thumb_func
  24              		.type	callback_TuneFunction, %function
  25              	callback_TuneFunction:
  26              	.LFB77:
  27              		.file 1 "..\\common\\ud3core\\cli_common.c"
   1:..\common\ud3core/cli_common.c **** /*
   2:..\common\ud3core/cli_common.c ****  * UD3
   3:..\common\ud3core/cli_common.c ****  *
   4:..\common\ud3core/cli_common.c ****  * Copyright (c) 2018 Jens Kerrinnes
   5:..\common\ud3core/cli_common.c ****  * Copyright (c) 2015 Steve Ward
   6:..\common\ud3core/cli_common.c ****  *
   7:..\common\ud3core/cli_common.c ****  * Permission is hereby granted, free of charge, to any person obtaining a copy of
   8:..\common\ud3core/cli_common.c ****  * this software and associated documentation files (the "Software"), to deal in
   9:..\common\ud3core/cli_common.c ****  * the Software without restriction, including without limitation the rights to
  10:..\common\ud3core/cli_common.c ****  * use, copy, modify, merge, publish, distribute, sublicense, and/or sell copies of
  11:..\common\ud3core/cli_common.c ****  * the Software, and to permit persons to whom the Software is furnished to do so,
  12:..\common\ud3core/cli_common.c ****  * subject to the following conditions:
  13:..\common\ud3core/cli_common.c ****  *
  14:..\common\ud3core/cli_common.c ****  * The above copyright notice and this permission notice shall be included in all
  15:..\common\ud3core/cli_common.c ****  * copies or substantial portions of the Software.
  16:..\common\ud3core/cli_common.c ****  *
  17:..\common\ud3core/cli_common.c ****  * THE SOFTWARE IS PROVIDED "AS IS", WITHOUT WARRANTY OF ANY KIND, EXPRESS OR
  18:..\common\ud3core/cli_common.c ****  * IMPLIED, INCLUDING BUT NOT LIMITED TO THE WARRANTIES OF MERCHANTABILITY, FITNESS
  19:..\common\ud3core/cli_common.c ****  * FOR A PARTICULAR PURPOSE AND NONINFRINGEMENT. IN NO EVENT SHALL THE AUTHORS OR
  20:..\common\ud3core/cli_common.c ****  * COPYRIGHT HOLDERS BE LIABLE FOR ANY CLAIM, DAMAGES OR OTHER LIABILITY, WHETHER
  21:..\common\ud3core/cli_common.c ****  * IN AN ACTION OF CONTRACT, TORT OR OTHERWISE, ARISING FROM, OUT OF OR IN
  22:..\common\ud3core/cli_common.c ****  * CONNECTION WITH THE SOFTWARE OR THE USE OR OTHER DEALINGS IN THE SOFTWARE.
  23:..\common\ud3core/cli_common.c **** */
  24:..\common\ud3core/cli_common.c **** 
  25:..\common\ud3core/cli_common.c **** #include "cli_common.h"
  26:..\common\ud3core/cli_common.c **** #include "ZCDtoPWM.h"
  27:..\common\ud3core/cli_common.c **** #include "autotune.h"
  28:..\common\ud3core/cli_common.c **** #include "interrupter.h"
  29:..\common\ud3core/cli_common.c **** #include "clock.h"
  30:..\common\ud3core/cli_common.c **** #include "hardware.h"
ARM GAS  C:\Users\chemi\AppData\Local\Temp\ccFrP3K3.s 			page 2


  31:..\common\ud3core/cli_common.c **** #include "telemetry.h"
  32:..\common\ud3core/cli_common.c **** #include <project.h>
  33:..\common\ud3core/cli_common.c **** #include <stdint.h>
  34:..\common\ud3core/cli_common.c **** #include <stdlib.h>
  35:..\common\ud3core/cli_common.c **** #include "helper/printf.h"
  36:..\common\ud3core/cli_common.c **** #include "helper/debug.h"
  37:..\common\ud3core/cli_common.c **** 
  38:..\common\ud3core/cli_common.c **** #include "cyapicallbacks.h"
  39:..\common\ud3core/cli_common.c **** #include <cytypes.h>
  40:..\common\ud3core/cli_common.c **** 
  41:..\common\ud3core/cli_common.c **** #include "tasks/tsk_analog.h"
  42:..\common\ud3core/cli_common.c **** #include "tasks/tsk_overlay.h"
  43:..\common\ud3core/cli_common.c **** #include "tasks/tsk_priority.h"
  44:..\common\ud3core/cli_common.c **** #include "tasks/tsk_midi.h"
  45:..\common\ud3core/cli_common.c **** #include "tasks/tsk_cli.h"
  46:..\common\ud3core/cli_common.c **** #include "tasks/tsk_min.h"
  47:..\common\ud3core/cli_common.c **** #include "tasks/tsk_fault.h"
  48:..\common\ud3core/cli_common.c **** #include "tasks/tsk_hwGauge.h"
  49:..\common\ud3core/cli_common.c **** #include "min_id.h"
  50:..\common\ud3core/cli_common.c **** #include "helper/teslaterm.h"
  51:..\common\ud3core/cli_common.c **** #include "math.h"
  52:..\common\ud3core/cli_common.c **** #include "alarmevent.h"
  53:..\common\ud3core/cli_common.c **** #include "version.h"
  54:..\common\ud3core/cli_common.c **** #include "qcw.h"
  55:..\common\ud3core/cli_common.c **** #include "system.h"
  56:..\common\ud3core/cli_common.c **** #include "SidFilter.h"
  57:..\common\ud3core/cli_common.c **** 
  58:..\common\ud3core/cli_common.c **** #include "helper/digipot.h"
  59:..\common\ud3core/cli_common.c **** 
  60:..\common\ud3core/cli_common.c **** 
  61:..\common\ud3core/cli_common.c **** #define UNUSED_VARIABLE(N) \
  62:..\common\ud3core/cli_common.c **** 	do {                   \
  63:..\common\ud3core/cli_common.c **** 		(void)(N);         \
  64:..\common\ud3core/cli_common.c **** 	} while (0)
  65:..\common\ud3core/cli_common.c ****         
  66:..\common\ud3core/cli_common.c **** 	
  67:..\common\ud3core/cli_common.c **** uint8_t callback_ConfigFunction(parameter_entry * params, uint8_t index, TERMINAL_HANDLE * handle);
  68:..\common\ud3core/cli_common.c **** uint8_t callback_DefaultFunction(parameter_entry * params, uint8_t index, TERMINAL_HANDLE * handle)
  69:..\common\ud3core/cli_common.c **** uint8_t callback_TuneFunction(parameter_entry * params, uint8_t index, TERMINAL_HANDLE * handle);
  70:..\common\ud3core/cli_common.c **** uint8_t callback_TTupdateFunction(parameter_entry * params, uint8_t index, TERMINAL_HANDLE * handle
  71:..\common\ud3core/cli_common.c **** uint8_t callback_OfftimeFunction(parameter_entry * params, uint8_t index, TERMINAL_HANDLE * handle)
  72:..\common\ud3core/cli_common.c **** uint8_t callback_i2tFunction(parameter_entry * params, uint8_t index, TERMINAL_HANDLE * handle);
  73:..\common\ud3core/cli_common.c **** uint8_t callback_baudrateFunction(parameter_entry * params, uint8_t index, TERMINAL_HANDLE * handle
  74:..\common\ud3core/cli_common.c **** uint8_t callback_SPIspeedFunction(parameter_entry * params, uint8_t index, TERMINAL_HANDLE * handle
  75:..\common\ud3core/cli_common.c **** uint8_t callback_VisibleFunction(parameter_entry * params, uint8_t index, TERMINAL_HANDLE * handle)
  76:..\common\ud3core/cli_common.c **** uint8_t callback_MchFunction(parameter_entry * params, uint8_t index, TERMINAL_HANDLE * handle);
  77:..\common\ud3core/cli_common.c **** uint8_t callback_MchCopyFunction(parameter_entry * params, uint8_t index, TERMINAL_HANDLE * handle)
  78:..\common\ud3core/cli_common.c **** uint8_t callback_ivoUART(parameter_entry * params, uint8_t index, TERMINAL_HANDLE * handle);
  79:..\common\ud3core/cli_common.c **** uint8_t callback_ivoLED(parameter_entry * params, uint8_t index, TERMINAL_HANDLE * handle);
  80:..\common\ud3core/cli_common.c **** 
  81:..\common\ud3core/cli_common.c **** void update_ivo();
  82:..\common\ud3core/cli_common.c **** 
  83:..\common\ud3core/cli_common.c **** cli_config configuration;
  84:..\common\ud3core/cli_common.c **** cli_parameter param;
  85:..\common\ud3core/cli_common.c **** 
  86:..\common\ud3core/cli_common.c **** enum uart_ivo{
  87:..\common\ud3core/cli_common.c ****     UART_IVO_NONE=0,
ARM GAS  C:\Users\chemi\AppData\Local\Temp\ccFrP3K3.s 			page 3


  88:..\common\ud3core/cli_common.c ****     UART_IVO_TX=1,
  89:..\common\ud3core/cli_common.c ****     UART_IVO_RX=10,
  90:..\common\ud3core/cli_common.c ****     UART_IVO_RX_TX=11
  91:..\common\ud3core/cli_common.c **** };
  92:..\common\ud3core/cli_common.c **** 
  93:..\common\ud3core/cli_common.c **** 
  94:..\common\ud3core/cli_common.c **** /*****************************************************************************
  95:..\common\ud3core/cli_common.c **** * Initializes parameters with default values
  96:..\common\ud3core/cli_common.c **** ******************************************************************************/
  97:..\common\ud3core/cli_common.c **** void init_config(){
  98:..\common\ud3core/cli_common.c ****     configuration.watchdog = 1;
  99:..\common\ud3core/cli_common.c ****     configuration.watchdog_timeout = 1000;
 100:..\common\ud3core/cli_common.c ****     configuration.max_tr_pw = 1000;
 101:..\common\ud3core/cli_common.c ****     configuration.max_tr_prf = 800;
 102:..\common\ud3core/cli_common.c ****     configuration.max_qcw_pw = 1000;
 103:..\common\ud3core/cli_common.c ****     configuration.max_tr_current = 400;
 104:..\common\ud3core/cli_common.c ****     configuration.min_tr_current = 100;
 105:..\common\ud3core/cli_common.c ****     configuration.max_qcw_current = 300;
 106:..\common\ud3core/cli_common.c ****     configuration.temp1_max = 40;
 107:..\common\ud3core/cli_common.c ****     configuration.temp2_max = 40;
 108:..\common\ud3core/cli_common.c ****     configuration.ct1_ratio = 600;
 109:..\common\ud3core/cli_common.c ****     configuration.ct2_ratio = 1000;
 110:..\common\ud3core/cli_common.c ****     configuration.ct1_burden = 33;
 111:..\common\ud3core/cli_common.c ****     configuration.ct2_burden = 500;
 112:..\common\ud3core/cli_common.c ****     configuration.lead_time = 500;
 113:..\common\ud3core/cli_common.c ****     configuration.start_freq = 630;
 114:..\common\ud3core/cli_common.c ****     configuration.start_cycles = 20;
 115:..\common\ud3core/cli_common.c ****     configuration.max_tr_duty = 100;
 116:..\common\ud3core/cli_common.c ****     configuration.max_qcw_duty = 350;
 117:..\common\ud3core/cli_common.c ****     configuration.temp1_setpoint = 30;
 118:..\common\ud3core/cli_common.c ****     configuration.pid_temp_set = 45;
 119:..\common\ud3core/cli_common.c ****     configuration.pid_temp_mode = 0;
 120:..\common\ud3core/cli_common.c ****     configuration.pid_temp_p = 0.2;
 121:..\common\ud3core/cli_common.c ****     configuration.pid_temp_i = 0.2;
 122:..\common\ud3core/cli_common.c ****     configuration.temp2_setpoint = 30;
 123:..\common\ud3core/cli_common.c ****     configuration.temp2_mode = 0;
 124:..\common\ud3core/cli_common.c ****     configuration.ps_scheme = 2;
 125:..\common\ud3core/cli_common.c ****     configuration.autotune_s = 1;
 126:..\common\ud3core/cli_common.c ****     configuration.baudrate = 115200;
 127:..\common\ud3core/cli_common.c ****     configuration.r_top = 500000;
 128:..\common\ud3core/cli_common.c ****     strncpy(configuration.ud_name,"UD3-Tesla", sizeof(configuration.ud_name));
 129:..\common\ud3core/cli_common.c ****     configuration.ct2_type = CT2_TYPE_CURRENT;
 130:..\common\ud3core/cli_common.c ****     configuration.ct2_voltage = 4000;
 131:..\common\ud3core/cli_common.c ****     configuration.ct2_offset = 0;
 132:..\common\ud3core/cli_common.c ****     configuration.ct2_current = 0;
 133:..\common\ud3core/cli_common.c ****     configuration.chargedelay = 1000;
 134:..\common\ud3core/cli_common.c ****     configuration.ivo_uart = UART_IVO_NONE;
 135:..\common\ud3core/cli_common.c ****     configuration.ext_interrupter = 0;
 136:..\common\ud3core/cli_common.c ****     configuration.pca9685 = 0;
 137:..\common\ud3core/cli_common.c ****     configuration.max_fb_errors = 0;
 138:..\common\ud3core/cli_common.c ****     configuration.ivo_led = 0;
 139:..\common\ud3core/cli_common.c ****     configuration.uvlo_analog = 0;
 140:..\common\ud3core/cli_common.c ****     
 141:..\common\ud3core/cli_common.c ****     configuration.SigGen_minOtOffset = 0;
 142:..\common\ud3core/cli_common.c ****     
 143:..\common\ud3core/cli_common.c ****     configuration.min_fb_current = 25;
 144:..\common\ud3core/cli_common.c ****     
ARM GAS  C:\Users\chemi\AppData\Local\Temp\ccFrP3K3.s 			page 4


 145:..\common\ud3core/cli_common.c ****     configuration.compressor_attac = 20;
 146:..\common\ud3core/cli_common.c ****     configuration.compressor_sustain = 44;
 147:..\common\ud3core/cli_common.c ****     configuration.compressor_release = 20;
 148:..\common\ud3core/cli_common.c ****     configuration.compressor_maxDutyOffset = 64;
 149:..\common\ud3core/cli_common.c ****     
 150:..\common\ud3core/cli_common.c ****     configuration.ntc_b = 3977;
 151:..\common\ud3core/cli_common.c ****     configuration.ntc_r25 = 10000;
 152:..\common\ud3core/cli_common.c ****     
 153:..\common\ud3core/cli_common.c ****     configuration.idac = 185;
 154:..\common\ud3core/cli_common.c ****     
 155:..\common\ud3core/cli_common.c ****     configuration.vdrive = 15.0f;
 156:..\common\ud3core/cli_common.c ****     
 157:..\common\ud3core/cli_common.c ****     configuration.hw_rev = SYS_detect_hw_rev();
 158:..\common\ud3core/cli_common.c ****     configuration.autostart = pdFALSE;
 159:..\common\ud3core/cli_common.c ****     
 160:..\common\ud3core/cli_common.c ****     configuration.drive_factor = 1.0f;
 161:..\common\ud3core/cli_common.c ****     
 162:..\common\ud3core/cli_common.c ****     interrupter.mod = INTR_MOD_PW;
 163:..\common\ud3core/cli_common.c ****     
 164:..\common\ud3core/cli_common.c ****     param.pw = 0;
 165:..\common\ud3core/cli_common.c ****     param.vol = 0;
 166:..\common\ud3core/cli_common.c ****     param.burst_on = 0;
 167:..\common\ud3core/cli_common.c ****     param.burst_off = 500;
 168:..\common\ud3core/cli_common.c ****     param.tune_start = 400;
 169:..\common\ud3core/cli_common.c ****     param.tune_end = 1000;
 170:..\common\ud3core/cli_common.c ****     param.tune_pw = 50;
 171:..\common\ud3core/cli_common.c ****     param.tune_delay = 50;
 172:..\common\ud3core/cli_common.c ****     param.offtime = 3;
 173:..\common\ud3core/cli_common.c ****     
 174:..\common\ud3core/cli_common.c ****     param.qcw_repeat = 99;
 175:..\common\ud3core/cli_common.c ****     param.synth = SYNTH_OFF;
 176:..\common\ud3core/cli_common.c ****     
 177:..\common\ud3core/cli_common.c ****     param.qcw_holdoff = 0;
 178:..\common\ud3core/cli_common.c ****     param.qcw_max = 255;
 179:..\common\ud3core/cli_common.c ****     param.qcw_offset = 0;
 180:..\common\ud3core/cli_common.c ****     param.qcw_ramp = 200;
 181:..\common\ud3core/cli_common.c ****     param.qcw_freq = 5000;
 182:..\common\ud3core/cli_common.c ****     param.qcw_vol = 0;
 183:..\common\ud3core/cli_common.c ****     
 184:..\common\ud3core/cli_common.c ****     update_ivo();
 185:..\common\ud3core/cli_common.c ****     
 186:..\common\ud3core/cli_common.c ****     ramp.changed = pdTRUE;
 187:..\common\ud3core/cli_common.c ****     qcw_regenerate_ramp();
 188:..\common\ud3core/cli_common.c **** }
 189:..\common\ud3core/cli_common.c **** 
 190:..\common\ud3core/cli_common.c **** // clang-format off
 191:..\common\ud3core/cli_common.c **** 
 192:..\common\ud3core/cli_common.c **** /*****************************************************************************
 193:..\common\ud3core/cli_common.c **** * Parameter struct
 194:..\common\ud3core/cli_common.c **** ******************************************************************************/
 195:..\common\ud3core/cli_common.c **** 
 196:..\common\ud3core/cli_common.c **** parameter_entry confparam[] = {
 197:..\common\ud3core/cli_common.c ****     //       Parameter Type ,Visible,"Text   "         , Value ptr                     ,Min     ,Ma
 198:..\common\ud3core/cli_common.c ****     ADD_PARAM(PARAM_DEFAULT ,pdTRUE ,"pw"              , param.pw                      , 0      ,10
 199:..\common\ud3core/cli_common.c ****     ADD_PARAM(PARAM_DEFAULT ,pdTRUE ,"pwd"             , param.pwd                     , 0      ,60
 200:..\common\ud3core/cli_common.c ****     ADD_PARAM(PARAM_DEFAULT ,pdTRUE ,"vol"             , param.vol                     , 0      ,MA
 201:..\common\ud3core/cli_common.c ****     ADD_PARAM(PARAM_DEFAULT ,pdTRUE ,"bon"             , param.burst_on                , 0      ,10
ARM GAS  C:\Users\chemi\AppData\Local\Temp\ccFrP3K3.s 			page 5


 202:..\common\ud3core/cli_common.c ****     ADD_PARAM(PARAM_DEFAULT ,pdTRUE ,"boff"            , param.burst_off               , 0      ,10
 203:..\common\ud3core/cli_common.c ****     ADD_PARAM(PARAM_CONFIG  ,pdTRUE ,"tune_start"      , param.tune_start              , 5      ,50
 204:..\common\ud3core/cli_common.c ****     ADD_PARAM(PARAM_CONFIG  ,pdTRUE ,"tune_end"        , param.tune_end                , 5      ,50
 205:..\common\ud3core/cli_common.c ****     ADD_PARAM(PARAM_CONFIG  ,pdTRUE ,"tune_pw"         , param.tune_pw                 , 0      ,80
 206:..\common\ud3core/cli_common.c ****     ADD_PARAM(PARAM_CONFIG  ,pdTRUE ,"tune_delay"      , param.tune_delay              , 1      ,20
 207:..\common\ud3core/cli_common.c ****     ADD_PARAM(PARAM_CONFIG  ,pdTRUE ,"offtime"         , param.offtime                 , 3      ,25
 208:..\common\ud3core/cli_common.c ****     ADD_PARAM(PARAM_DEFAULT ,pdTRUE ,"qcw_ramp"        , param.qcw_ramp                , 1      ,10
 209:..\common\ud3core/cli_common.c ****     ADD_PARAM(PARAM_DEFAULT ,pdTRUE ,"qcw_offset"      , param.qcw_offset              , 0      ,25
 210:..\common\ud3core/cli_common.c ****     ADD_PARAM(PARAM_DEFAULT ,pdTRUE ,"qcw_hold"        , param.qcw_holdoff             , 0      ,25
 211:..\common\ud3core/cli_common.c ****     ADD_PARAM(PARAM_DEFAULT ,pdTRUE ,"qcw_max"         , param.qcw_max                 , 0      ,25
 212:..\common\ud3core/cli_common.c ****     ADD_PARAM(PARAM_DEFAULT ,pdTRUE ,"qcw_freq"        , param.qcw_freq                , 0      ,40
 213:..\common\ud3core/cli_common.c ****     ADD_PARAM(PARAM_DEFAULT ,pdTRUE ,"qcw_vol"         , param.qcw_vol                 , 0      ,25
 214:..\common\ud3core/cli_common.c ****     ADD_PARAM(PARAM_DEFAULT ,pdTRUE ,"qcw_repeat"      , param.qcw_repeat              , 0      ,10
 215:..\common\ud3core/cli_common.c ****     ADD_PARAM(PARAM_DEFAULT ,pdTRUE ,"synth"           , param.synth                   , 0      ,3 
 216:..\common\ud3core/cli_common.c ****     ADD_PARAM(PARAM_DEFAULT ,pdTRUE ,"sid_hpv_enabled" , SID_filterData.hpvEnabledGlobally, 0      
 217:..\common\ud3core/cli_common.c ****     ADD_PARAM(PARAM_DEFAULT ,pdTRUE ,"sid_noise_volume", SID_filterData.noiseVolume    , 0      ,MA
 218:..\common\ud3core/cli_common.c ****     ADD_PARAM(PARAM_DEFAULT ,pdTRUE ,"sid_ch1_volume"  , SID_filterData.channelVolume[0], 0     ,MA
 219:..\common\ud3core/cli_common.c ****     ADD_PARAM(PARAM_DEFAULT ,pdTRUE ,"sid_ch2_volume"  , SID_filterData.channelVolume[1], 0     ,MA
 220:..\common\ud3core/cli_common.c ****     ADD_PARAM(PARAM_DEFAULT ,pdTRUE ,"sid_ch3_volume"  , SID_filterData.channelVolume[2], 0     ,MA
 221:..\common\ud3core/cli_common.c ****     ADD_PARAM(PARAM_CONFIG  ,pdTRUE ,"watchdog"        , configuration.watchdog        , 0      ,1 
 222:..\common\ud3core/cli_common.c ****     ADD_PARAM(PARAM_CONFIG  ,pdTRUE ,"watchdog_timeout", configuration.watchdog_timeout, 1      ,10
 223:..\common\ud3core/cli_common.c ****     ADD_PARAM(PARAM_CONFIG  ,pdTRUE ,"max_tr_pw"       , configuration.max_tr_pw       , 0      ,10
 224:..\common\ud3core/cli_common.c ****     ADD_PARAM(PARAM_CONFIG  ,pdTRUE ,"max_tr_prf"      , configuration.max_tr_prf      , 0      ,30
 225:..\common\ud3core/cli_common.c ****     ADD_PARAM(PARAM_CONFIG  ,pdTRUE ,"max_qcw_pw"      , configuration.max_qcw_pw      , 0      ,50
 226:..\common\ud3core/cli_common.c ****     ADD_PARAM(PARAM_CONFIG  ,pdTRUE ,"max_tr_current"  , configuration.max_tr_current  , 0      ,80
 227:..\common\ud3core/cli_common.c ****     ADD_PARAM(PARAM_CONFIG  ,pdTRUE ,"min_tr_current"  , configuration.min_tr_current  , 0      ,80
 228:..\common\ud3core/cli_common.c ****     ADD_PARAM(PARAM_CONFIG  ,pdTRUE ,"max_qcw_current" , configuration.max_qcw_current , 0      ,80
 229:..\common\ud3core/cli_common.c ****     ADD_PARAM(PARAM_CONFIG  ,pdTRUE ,"temp1_max"       , configuration.temp1_max       , 0      ,10
 230:..\common\ud3core/cli_common.c ****     ADD_PARAM(PARAM_CONFIG  ,pdTRUE ,"temp2_max"       , configuration.temp2_max       , 0      ,10
 231:..\common\ud3core/cli_common.c ****     ADD_PARAM(PARAM_CONFIG  ,pdTRUE ,"ct1_ratio"       , configuration.ct1_ratio       , 1      ,50
 232:..\common\ud3core/cli_common.c ****     ADD_PARAM(PARAM_CONFIG  ,pdTRUE ,"ct2_ratio"       , configuration.ct2_ratio       , 1      ,50
 233:..\common\ud3core/cli_common.c ****     ADD_PARAM(PARAM_CONFIG  ,pdTRUE ,"ct1_burden"      , configuration.ct1_burden      , 1      ,10
 234:..\common\ud3core/cli_common.c ****     ADD_PARAM(PARAM_CONFIG  ,pdTRUE ,"ct2_burden"      , configuration.ct2_burden      , 1      ,10
 235:..\common\ud3core/cli_common.c ****     ADD_PARAM(PARAM_CONFIG  ,pdTRUE ,"ct2_type"        , configuration.ct2_type        , 0      ,1 
 236:..\common\ud3core/cli_common.c ****     ADD_PARAM(PARAM_CONFIG  ,pdTRUE ,"ct2_current"     , configuration.ct2_current     , 0      ,20
 237:..\common\ud3core/cli_common.c ****     ADD_PARAM(PARAM_CONFIG  ,pdTRUE ,"ct2_voltage"     , configuration.ct2_voltage     , 0      ,50
 238:..\common\ud3core/cli_common.c ****     ADD_PARAM(PARAM_CONFIG  ,pdTRUE ,"ct2_offset"      , configuration.ct2_offset      , 0      ,50
 239:..\common\ud3core/cli_common.c ****     ADD_PARAM(PARAM_CONFIG  ,pdTRUE ,"lead_time"       , configuration.lead_time       , 0      ,40
 240:..\common\ud3core/cli_common.c ****     ADD_PARAM(PARAM_CONFIG  ,pdTRUE ,"start_freq"      , configuration.start_freq      , 0      ,50
 241:..\common\ud3core/cli_common.c ****     ADD_PARAM(PARAM_CONFIG  ,pdTRUE ,"start_cycles"    , configuration.start_cycles    , 0      ,20
 242:..\common\ud3core/cli_common.c ****     ADD_PARAM(PARAM_CONFIG  ,pdTRUE ,"max_tr_duty"     , configuration.max_tr_duty     , 1      ,50
 243:..\common\ud3core/cli_common.c ****     ADD_PARAM(PARAM_CONFIG  ,pdTRUE ,"max_qcw_duty"    , configuration.max_qcw_duty    , 1      ,50
 244:..\common\ud3core/cli_common.c ****     ADD_PARAM(PARAM_CONFIG  ,pdTRUE ,"temp1_setpoint"  , configuration.temp1_setpoint  , 0      ,10
 245:..\common\ud3core/cli_common.c ****     ADD_PARAM(PARAM_CONFIG  ,pdTRUE ,"pid_temp_set"    , configuration.pid_temp_set    , 0      ,10
 246:..\common\ud3core/cli_common.c ****     ADD_PARAM(PARAM_CONFIG  ,pdTRUE ,"pid_temp_mode"   , configuration.pid_temp_mode   , 0      ,4 
 247:..\common\ud3core/cli_common.c ****     ADD_PARAM(PARAM_CONFIG  ,pdTRUE ,"pid_temp_p"      , configuration.pid_temp_p      , 0      ,20
 248:..\common\ud3core/cli_common.c ****     ADD_PARAM(PARAM_CONFIG  ,pdTRUE ,"pid_temp_i"      , configuration.pid_temp_i      , 0      ,20
 249:..\common\ud3core/cli_common.c ****     ADD_PARAM(PARAM_CONFIG  ,pdTRUE ,"temp2_setpoint"  , configuration.temp2_setpoint  , 0      ,10
 250:..\common\ud3core/cli_common.c ****     ADD_PARAM(PARAM_CONFIG  ,pdTRUE ,"temp2_mode"      , configuration.temp2_mode      , 0      ,4 
 251:..\common\ud3core/cli_common.c ****     ADD_PARAM(PARAM_CONFIG  ,pdTRUE ,"ps_scheme"       , configuration.ps_scheme       , 0      ,5 
 252:..\common\ud3core/cli_common.c ****     ADD_PARAM(PARAM_CONFIG  ,pdTRUE ,"charge_delay"    , configuration.chargedelay     , 1      ,60
 253:..\common\ud3core/cli_common.c ****     ADD_PARAM(PARAM_CONFIG  ,pdTRUE ,"autotune_s"      , configuration.autotune_s      , 1      ,32
 254:..\common\ud3core/cli_common.c ****     ADD_PARAM(PARAM_CONFIG  ,pdTRUE ,"ud_name"         , configuration.ud_name         , 0      ,0 
 255:..\common\ud3core/cli_common.c ****     ADD_PARAM(PARAM_CONFIG  ,pdTRUE ,"baudrate"        , configuration.baudrate        , 1200   ,40
 256:..\common\ud3core/cli_common.c ****     ADD_PARAM(PARAM_CONFIG  ,pdTRUE ,"ivo_uart"        , configuration.ivo_uart        , 0      ,11
 257:..\common\ud3core/cli_common.c ****     ADD_PARAM(PARAM_CONFIG  ,pdTRUE ,"r_bus"           , configuration.r_top           , 100    ,10
 258:..\common\ud3core/cli_common.c ****     ADD_PARAM(PARAM_CONFIG  ,pdTRUE ,"ena_ext_int"     , configuration.ext_interrupter , 0      ,2 
ARM GAS  C:\Users\chemi\AppData\Local\Temp\ccFrP3K3.s 			page 6


 259:..\common\ud3core/cli_common.c ****     ADD_PARAM(PARAM_CONFIG  ,pdTRUE ,"qcw_coil"        , configuration.is_qcw          , 0      ,1 
 260:..\common\ud3core/cli_common.c ****     ADD_PARAM(PARAM_CONFIG  ,pdTRUE ,"pca9685"         , configuration.pca9685         , 0      ,1 
 261:..\common\ud3core/cli_common.c ****     ADD_PARAM(PARAM_CONFIG  ,pdTRUE ,"max_fb_errors"   , configuration.max_fb_errors   , 0      ,60
 262:..\common\ud3core/cli_common.c ****     ADD_PARAM(PARAM_CONFIG  ,pdTRUE ,"ntc_b"           , configuration.ntc_b           , 0      ,10
 263:..\common\ud3core/cli_common.c ****     ADD_PARAM(PARAM_CONFIG  ,pdTRUE ,"ntc_r25"         , configuration.ntc_r25         , 0      ,33
 264:..\common\ud3core/cli_common.c ****     ADD_PARAM(PARAM_CONFIG  ,pdTRUE ,"ntc_idac"        , configuration.idac            , 0      ,20
 265:..\common\ud3core/cli_common.c ****     ADD_PARAM(PARAM_CONFIG  ,pdFALSE,"d_factor"        , configuration.drive_factor    , 0      ,10
 266:..\common\ud3core/cli_common.c ****     ADD_PARAM(PARAM_CONFIG  ,pdFALSE,"hwGauge_cfg"     , hwGauges.rawData              , 0      ,0 
 267:..\common\ud3core/cli_common.c ****     ADD_PARAM(PARAM_CONFIG  ,pdTRUE ,"vdrive"          , configuration.vdrive          , 10     ,24
 268:..\common\ud3core/cli_common.c ****     ADD_PARAM(PARAM_CONFIG  ,pdTRUE ,"ivo_led"         , configuration.ivo_led         , 0      ,1 
 269:..\common\ud3core/cli_common.c ****     ADD_PARAM(PARAM_CONFIG  ,pdTRUE ,"uvlo_analog"     , configuration.uvlo_analog     , 0      ,32
 270:..\common\ud3core/cli_common.c ****     ADD_PARAM(PARAM_CONFIG  ,pdTRUE ,"hw_rev"          , configuration.hw_rev          , 0      ,2 
 271:..\common\ud3core/cli_common.c ****     ADD_PARAM(PARAM_CONFIG  ,pdTRUE ,"autostart"       , configuration.autostart       , 0      ,1 
 272:..\common\ud3core/cli_common.c ****     ADD_PARAM(PARAM_CONFIG  ,pdTRUE ,"min_fb_current"  , configuration.min_fb_current  , 0      ,25
 273:..\common\ud3core/cli_common.c ****     ADD_PARAM(PARAM_CONFIG  ,pdTRUE ,"minDutyOffset"   , configuration.SigGen_minOtOffset  , 0     
 274:..\common\ud3core/cli_common.c ****     ADD_PARAM(PARAM_CONFIG  ,pdTRUE ,"comp_attac"      , configuration.compressor_attac  , 0      ,
 275:..\common\ud3core/cli_common.c ****     ADD_PARAM(PARAM_CONFIG  ,pdTRUE ,"comp_sustain"    , configuration.compressor_sustain  , 0     
 276:..\common\ud3core/cli_common.c ****     ADD_PARAM(PARAM_CONFIG  ,pdTRUE ,"comp_release"    , configuration.compressor_release  , 0     
 277:..\common\ud3core/cli_common.c ****     ADD_PARAM(PARAM_CONFIG  ,pdTRUE ,"comp_dutyOffset" , configuration.compressor_maxDutyOffset  , 
 278:..\common\ud3core/cli_common.c **** };
 279:..\common\ud3core/cli_common.c **** 
 280:..\common\ud3core/cli_common.c ****    
 281:..\common\ud3core/cli_common.c **** void eeprom_load(TERMINAL_HANDLE * handle){
 282:..\common\ud3core/cli_common.c ****     EEPROM_read_conf(confparam, PARAM_SIZE(confparam) ,0,handle);
 283:..\common\ud3core/cli_common.c ****     if(param.offtime<3) param.offtime=3;
 284:..\common\ud3core/cli_common.c ****     update_ivo();
 285:..\common\ud3core/cli_common.c ****     update_visibilty();
 286:..\common\ud3core/cli_common.c ****     uart_baudrate(configuration.baudrate);
 287:..\common\ud3core/cli_common.c ****     ramp.changed = pdTRUE;
 288:..\common\ud3core/cli_common.c ****     qcw_regenerate_ramp();
 289:..\common\ud3core/cli_common.c ****     init_telemetry();
 290:..\common\ud3core/cli_common.c ****     callback_temp_pid(confparam,0,handle);
 291:..\common\ud3core/cli_common.c ****     callback_ext_interrupter(confparam,0,handle);
 292:..\common\ud3core/cli_common.c ****     callback_ConfigFunction(confparam,0,handle);
 293:..\common\ud3core/cli_common.c **** }
 294:..\common\ud3core/cli_common.c **** 
 295:..\common\ud3core/cli_common.c **** 
 296:..\common\ud3core/cli_common.c **** 
 297:..\common\ud3core/cli_common.c **** void update_visibilty(void){
 298:..\common\ud3core/cli_common.c **** 
 299:..\common\ud3core/cli_common.c ****     switch(configuration.ct2_type){
 300:..\common\ud3core/cli_common.c ****         case CT2_TYPE_CURRENT:
 301:..\common\ud3core/cli_common.c ****             set_visibility(confparam,CONF_SIZE, "ct2_current",pdFALSE);
 302:..\common\ud3core/cli_common.c ****             set_visibility(confparam,CONF_SIZE, "ct2_voltage",pdFALSE);
 303:..\common\ud3core/cli_common.c ****             set_visibility(confparam,CONF_SIZE, "ct2_offset",pdFALSE);
 304:..\common\ud3core/cli_common.c ****             set_visibility(confparam,CONF_SIZE, "ct2_ratio",pdTRUE);
 305:..\common\ud3core/cli_common.c ****             set_visibility(confparam,CONF_SIZE, "ct2_burden",pdTRUE);
 306:..\common\ud3core/cli_common.c ****         break;
 307:..\common\ud3core/cli_common.c ****         case CT2_TYPE_VOLTAGE:
 308:..\common\ud3core/cli_common.c ****             set_visibility(confparam,CONF_SIZE, "ct2_ratio",pdFALSE);
 309:..\common\ud3core/cli_common.c ****             set_visibility(confparam,CONF_SIZE, "ct2_burden",pdFALSE);
 310:..\common\ud3core/cli_common.c ****             set_visibility(confparam,CONF_SIZE, "ct2_current",pdTRUE);
 311:..\common\ud3core/cli_common.c ****             set_visibility(confparam,CONF_SIZE, "ct2_voltage",pdTRUE);
 312:..\common\ud3core/cli_common.c ****             set_visibility(confparam,CONF_SIZE, "ct2_offset",pdTRUE);
 313:..\common\ud3core/cli_common.c ****         break;
 314:..\common\ud3core/cli_common.c ****     }
 315:..\common\ud3core/cli_common.c ****     
ARM GAS  C:\Users\chemi\AppData\Local\Temp\ccFrP3K3.s 			page 7


 316:..\common\ud3core/cli_common.c ****     set_visibility(confparam, CONF_SIZE, "vdrive", configuration.hw_rev > 0 ? pdTRUE : pdFALSE);   
 317:..\common\ud3core/cli_common.c **** 
 318:..\common\ud3core/cli_common.c **** }
 319:..\common\ud3core/cli_common.c **** 
 320:..\common\ud3core/cli_common.c **** // clang-format on
 321:..\common\ud3core/cli_common.c **** 
 322:..\common\ud3core/cli_common.c **** void init_tt_if_enabled(TERMINAL_HANDLE* handle) {
 323:..\common\ud3core/cli_common.c ****     if (portM->term_mode!=PORT_TERM_VT100) {
 324:..\common\ud3core/cli_common.c ****         uint8_t include_chart;
 325:..\common\ud3core/cli_common.c ****         if (portM->term_mode==PORT_TERM_TT) {
 326:..\common\ud3core/cli_common.c ****             include_chart = pdTRUE;
 327:..\common\ud3core/cli_common.c ****         } else {
 328:..\common\ud3core/cli_common.c ****             include_chart = pdFALSE;
 329:..\common\ud3core/cli_common.c ****         }
 330:..\common\ud3core/cli_common.c ****         init_tt(include_chart,handle);
 331:..\common\ud3core/cli_common.c ****     }
 332:..\common\ud3core/cli_common.c **** }
 333:..\common\ud3core/cli_common.c **** 
 334:..\common\ud3core/cli_common.c **** /*****************************************************************************
 335:..\common\ud3core/cli_common.c **** * Callback for invert option UART
 336:..\common\ud3core/cli_common.c **** ******************************************************************************/
 337:..\common\ud3core/cli_common.c **** 
 338:..\common\ud3core/cli_common.c **** void update_ivo(){
 339:..\common\ud3core/cli_common.c ****     switch(configuration.ivo_uart){
 340:..\common\ud3core/cli_common.c ****     case UART_IVO_NONE:
 341:..\common\ud3core/cli_common.c ****         clear_bit(IVO_Control, IVO_UART_TX_BIT);
 342:..\common\ud3core/cli_common.c ****         clear_bit(IVO_Control, IVO_UART_RX_BIT);
 343:..\common\ud3core/cli_common.c ****         break;
 344:..\common\ud3core/cli_common.c ****     case UART_IVO_TX:
 345:..\common\ud3core/cli_common.c ****         set_bit(IVO_Control, IVO_UART_TX_BIT);
 346:..\common\ud3core/cli_common.c ****         clear_bit(IVO_Control, IVO_UART_RX_BIT);
 347:..\common\ud3core/cli_common.c ****         break;
 348:..\common\ud3core/cli_common.c ****     case UART_IVO_RX:
 349:..\common\ud3core/cli_common.c ****         set_bit(IVO_Control, IVO_UART_RX_BIT);
 350:..\common\ud3core/cli_common.c ****         clear_bit(IVO_Control, IVO_UART_TX_BIT);
 351:..\common\ud3core/cli_common.c ****         break;
 352:..\common\ud3core/cli_common.c ****     case UART_IVO_RX_TX:
 353:..\common\ud3core/cli_common.c ****         set_bit(IVO_Control, IVO_UART_RX_BIT);
 354:..\common\ud3core/cli_common.c ****         set_bit(IVO_Control, IVO_UART_TX_BIT);
 355:..\common\ud3core/cli_common.c ****         break;
 356:..\common\ud3core/cli_common.c ****     }  
 357:..\common\ud3core/cli_common.c ****     if(configuration.ivo_led){
 358:..\common\ud3core/cli_common.c ****         set_bit(IVO_Control, IVO_LED_BIT);
 359:..\common\ud3core/cli_common.c ****     }else{
 360:..\common\ud3core/cli_common.c ****         clear_bit(IVO_Control, IVO_LED_BIT);
 361:..\common\ud3core/cli_common.c ****     }
 362:..\common\ud3core/cli_common.c ****     
 363:..\common\ud3core/cli_common.c **** }
 364:..\common\ud3core/cli_common.c **** 
 365:..\common\ud3core/cli_common.c **** uint8_t callback_ivoUART(parameter_entry * params, uint8_t index, TERMINAL_HANDLE * handle){
 366:..\common\ud3core/cli_common.c ****     if(configuration.ivo_uart == UART_IVO_NONE || configuration.ivo_uart == UART_IVO_TX || configur
 367:..\common\ud3core/cli_common.c ****         update_ivo();   
 368:..\common\ud3core/cli_common.c ****         return 1;
 369:..\common\ud3core/cli_common.c ****     }else{
 370:..\common\ud3core/cli_common.c ****         ttprintf("Only the folowing combinations are allowed\r\n");
 371:..\common\ud3core/cli_common.c ****         ttprintf("0  = no inversion\r\n");
 372:..\common\ud3core/cli_common.c ****         ttprintf("1  = rx inverted, tx not inverted\r\n");
ARM GAS  C:\Users\chemi\AppData\Local\Temp\ccFrP3K3.s 			page 8


 373:..\common\ud3core/cli_common.c ****         ttprintf("10 = rx not inverted, tx inverted\r\n");
 374:..\common\ud3core/cli_common.c ****         ttprintf("11 = rx and tx inverted\r\n");
 375:..\common\ud3core/cli_common.c ****         return 0;
 376:..\common\ud3core/cli_common.c ****     }
 377:..\common\ud3core/cli_common.c **** }
 378:..\common\ud3core/cli_common.c **** 
 379:..\common\ud3core/cli_common.c **** uint8_t callback_ivoLED(parameter_entry * params, uint8_t index, TERMINAL_HANDLE * handle){
 380:..\common\ud3core/cli_common.c ****     update_ivo();
 381:..\common\ud3core/cli_common.c ****     return 1;
 382:..\common\ud3core/cli_common.c **** }
 383:..\common\ud3core/cli_common.c **** 
 384:..\common\ud3core/cli_common.c **** 
 385:..\common\ud3core/cli_common.c **** /*****************************************************************************
 386:..\common\ud3core/cli_common.c **** * Callback if the offtime parameter is changed
 387:..\common\ud3core/cli_common.c **** ******************************************************************************/
 388:..\common\ud3core/cli_common.c **** uint8_t callback_VisibleFunction(parameter_entry * params, uint8_t index, TERMINAL_HANDLE * handle)
 389:..\common\ud3core/cli_common.c ****     update_visibilty();
 390:..\common\ud3core/cli_common.c ****     return 1;
 391:..\common\ud3core/cli_common.c **** }
 392:..\common\ud3core/cli_common.c **** 
 393:..\common\ud3core/cli_common.c **** 
 394:..\common\ud3core/cli_common.c **** /*****************************************************************************
 395:..\common\ud3core/cli_common.c **** * Callback if the maximum current is changed
 396:..\common\ud3core/cli_common.c **** ******************************************************************************/
 397:..\common\ud3core/cli_common.c **** uint8_t callback_TTupdateFunction(parameter_entry * params, uint8_t index, TERMINAL_HANDLE * handle
 398:..\common\ud3core/cli_common.c ****     
 399:..\common\ud3core/cli_common.c ****     uint32_t max_current_cmp = ((4080ul * configuration.ct1_ratio) / configuration.ct1_burden)/100;
 400:..\common\ud3core/cli_common.c ****     uint32_t max_current_meas = ((5000ul * configuration.ct1_ratio) / configuration.ct1_burden)/100
 401:..\common\ud3core/cli_common.c ****     
 402:..\common\ud3core/cli_common.c ****     if(configuration.max_tr_current>max_current_cmp || configuration.max_qcw_current>max_current_cm
 403:..\common\ud3core/cli_common.c ****         ttprintf("Warning: Max CT1 current with the current setup is %uA for OCD and %uA for peak m
 404:..\common\ud3core/cli_common.c ****         if(configuration.max_tr_current>max_current_cmp) configuration.max_tr_current = max_current
 405:..\common\ud3core/cli_common.c ****         if(configuration.max_qcw_current>max_current_cmp) configuration.max_qcw_current = max_curre
 406:..\common\ud3core/cli_common.c ****     }
 407:..\common\ud3core/cli_common.c ****     uint8 sfflag = system_fault_Read();
 408:..\common\ud3core/cli_common.c ****     
 409:..\common\ud3core/cli_common.c ****     sysflt_set(pdTRUE); //halt tesla coil operation during updates!
 410:..\common\ud3core/cli_common.c ****     
 411:..\common\ud3core/cli_common.c ****     configure_ZCD_to_PWM();
 412:..\common\ud3core/cli_common.c ****     
 413:..\common\ud3core/cli_common.c ****     system_fault_Control = sfflag;
 414:..\common\ud3core/cli_common.c ****     
 415:..\common\ud3core/cli_common.c ****     init_tt_if_enabled(handle);
 416:..\common\ud3core/cli_common.c **** 	return 1;
 417:..\common\ud3core/cli_common.c **** }
 418:..\common\ud3core/cli_common.c **** 
 419:..\common\ud3core/cli_common.c **** /*****************************************************************************
 420:..\common\ud3core/cli_common.c **** * Callback if a autotune parameter is changed
 421:..\common\ud3core/cli_common.c **** ******************************************************************************/
 422:..\common\ud3core/cli_common.c **** uint8_t callback_TuneFunction(parameter_entry * params, uint8_t index, TERMINAL_HANDLE * handle) {
  28              		.loc 1 422 0
  29              		.cfi_startproc
  30              		@ args = 0, pretend = 0, frame = 0
  31              		@ frame_needed = 0, uses_anonymous_args = 0
  32              	.LVL0:
  33 0000 08B5     		push	{r3, lr}
  34              		.cfi_def_cfa_offset 8
ARM GAS  C:\Users\chemi\AppData\Local\Temp\ccFrP3K3.s 			page 9


  35              		.cfi_offset 3, -8
  36              		.cfi_offset 14, -4
 423:..\common\ud3core/cli_common.c ****     if(param.tune_start >= param.tune_end){
  37              		.loc 1 423 0
  38 0002 054B     		ldr	r3, .L4
  39 0004 D988     		ldrh	r1, [r3, #6]
  40              	.LVL1:
  41 0006 1B89     		ldrh	r3, [r3, #8]
  42 0008 9942     		cmp	r1, r3
  43 000a 03D3     		bcc	.L2
  44              	.LVL2:
  45              	.LBB4:
  46              	.LBB5:
 424:..\common\ud3core/cli_common.c ****         ttprintf("ERROR: tune_start > tune_end\r\n");
  47              		.loc 1 424 0
  48 000c 536A     		ldr	r3, [r2, #36]
  49 000e 0349     		ldr	r1, .L4+4
  50 0010 5068     		ldr	r0, [r2, #4]
  51              	.LVL3:
  52 0012 9847     		blx	r3
  53              	.LVL4:
  54              	.L2:
  55              	.LBE5:
  56              	.LBE4:
 425:..\common\ud3core/cli_common.c **** 		return 1;
 426:..\common\ud3core/cli_common.c **** 	} else
 427:..\common\ud3core/cli_common.c **** 		return 1;
 428:..\common\ud3core/cli_common.c **** }
  57              		.loc 1 428 0
  58 0014 0120     		movs	r0, #1
  59 0016 08BD     		pop	{r3, pc}
  60              	.L5:
  61              		.align	2
  62              	.L4:
  63 0018 00000000 		.word	param
  64 001c 00000000 		.word	.LC0
  65              		.cfi_endproc
  66              	.LFE77:
  67              		.size	callback_TuneFunction, .-callback_TuneFunction
  68              		.section	.text.update_visibilty,"ax",%progbits
  69              		.align	1
  70              		.global	update_visibilty
  71              		.thumb
  72              		.thumb_func
  73              		.type	update_visibilty, %function
  74              	update_visibilty:
  75              	.LFB70:
 297:..\common\ud3core/cli_common.c **** 
  76              		.loc 1 297 0
  77              		.cfi_startproc
  78              		@ args = 0, pretend = 0, frame = 0
  79              		@ frame_needed = 0, uses_anonymous_args = 0
  80 0000 70B5     		push	{r4, r5, r6, lr}
  81              		.cfi_def_cfa_offset 16
  82              		.cfi_offset 4, -16
  83              		.cfi_offset 5, -12
  84              		.cfi_offset 6, -8
ARM GAS  C:\Users\chemi\AppData\Local\Temp\ccFrP3K3.s 			page 10


  85              		.cfi_offset 14, -4
 299:..\common\ud3core/cli_common.c ****         case CT2_TYPE_CURRENT:
  86              		.loc 1 299 0
  87 0002 264B     		ldr	r3, .L11
  88 0004 93F84C40 		ldrb	r4, [r3, #76]	@ zero_extendqisi2
  89 0008 1D46     		mov	r5, r3
  90 000a E4B1     		cbz	r4, .L8
  91 000c 012C     		cmp	r4, #1
  92 000e 38D1     		bne	.L7
 308:..\common\ud3core/cli_common.c ****             set_visibility(confparam,CONF_SIZE, "ct2_burden",pdFALSE);
  93              		.loc 1 308 0
  94 0010 0023     		movs	r3, #0
  95 0012 234A     		ldr	r2, .L11+4
  96 0014 5021     		movs	r1, #80
  97 0016 2348     		ldr	r0, .L11+8
  98 0018 FFF7FEFF 		bl	set_visibility
  99              	.LVL5:
 309:..\common\ud3core/cli_common.c ****             set_visibility(confparam,CONF_SIZE, "ct2_current",pdTRUE);
 100              		.loc 1 309 0
 101 001c 0023     		movs	r3, #0
 102 001e 224A     		ldr	r2, .L11+12
 103 0020 5021     		movs	r1, #80
 104 0022 2048     		ldr	r0, .L11+8
 105 0024 FFF7FEFF 		bl	set_visibility
 106              	.LVL6:
 310:..\common\ud3core/cli_common.c ****             set_visibility(confparam,CONF_SIZE, "ct2_voltage",pdTRUE);
 107              		.loc 1 310 0
 108 0028 2346     		mov	r3, r4
 109 002a 204A     		ldr	r2, .L11+16
 110 002c 5021     		movs	r1, #80
 111 002e 1D48     		ldr	r0, .L11+8
 112 0030 FFF7FEFF 		bl	set_visibility
 113              	.LVL7:
 311:..\common\ud3core/cli_common.c ****             set_visibility(confparam,CONF_SIZE, "ct2_offset",pdTRUE);
 114              		.loc 1 311 0
 115 0034 2346     		mov	r3, r4
 116 0036 1E4A     		ldr	r2, .L11+20
 117 0038 5021     		movs	r1, #80
 118 003a 1A48     		ldr	r0, .L11+8
 119 003c FFF7FEFF 		bl	set_visibility
 120              	.LVL8:
 312:..\common\ud3core/cli_common.c ****         break;
 121              		.loc 1 312 0
 122 0040 2346     		mov	r3, r4
 123 0042 1C4A     		ldr	r2, .L11+24
 124 0044 19E0     		b	.L10
 125              	.L8:
 301:..\common\ud3core/cli_common.c ****             set_visibility(confparam,CONF_SIZE, "ct2_voltage",pdFALSE);
 126              		.loc 1 301 0
 127 0046 2346     		mov	r3, r4
 128 0048 184A     		ldr	r2, .L11+16
 129 004a 5021     		movs	r1, #80
 130 004c 1548     		ldr	r0, .L11+8
 131 004e FFF7FEFF 		bl	set_visibility
 132              	.LVL9:
 302:..\common\ud3core/cli_common.c ****             set_visibility(confparam,CONF_SIZE, "ct2_offset",pdFALSE);
 133              		.loc 1 302 0
ARM GAS  C:\Users\chemi\AppData\Local\Temp\ccFrP3K3.s 			page 11


 134 0052 2346     		mov	r3, r4
 135 0054 164A     		ldr	r2, .L11+20
 136 0056 5021     		movs	r1, #80
 137 0058 1248     		ldr	r0, .L11+8
 138 005a FFF7FEFF 		bl	set_visibility
 139              	.LVL10:
 303:..\common\ud3core/cli_common.c ****             set_visibility(confparam,CONF_SIZE, "ct2_ratio",pdTRUE);
 140              		.loc 1 303 0
 141 005e 2346     		mov	r3, r4
 142 0060 144A     		ldr	r2, .L11+24
 143 0062 5021     		movs	r1, #80
 144 0064 0F48     		ldr	r0, .L11+8
 145 0066 FFF7FEFF 		bl	set_visibility
 146              	.LVL11:
 304:..\common\ud3core/cli_common.c ****             set_visibility(confparam,CONF_SIZE, "ct2_burden",pdTRUE);
 147              		.loc 1 304 0
 148 006a 0123     		movs	r3, #1
 149 006c 0C4A     		ldr	r2, .L11+4
 150 006e 5021     		movs	r1, #80
 151 0070 0C48     		ldr	r0, .L11+8
 152 0072 FFF7FEFF 		bl	set_visibility
 153              	.LVL12:
 305:..\common\ud3core/cli_common.c ****         break;
 154              		.loc 1 305 0
 155 0076 0C4A     		ldr	r2, .L11+12
 156 0078 0123     		movs	r3, #1
 157              	.L10:
 312:..\common\ud3core/cli_common.c ****         break;
 158              		.loc 1 312 0
 159 007a 5021     		movs	r1, #80
 160 007c 0948     		ldr	r0, .L11+8
 161 007e FFF7FEFF 		bl	set_visibility
 162              	.LVL13:
 163              	.L7:
 316:..\common\ud3core/cli_common.c **** 
 164              		.loc 1 316 0
 165 0082 95F87030 		ldrb	r3, [r5, #112]	@ zero_extendqisi2
 166 0086 0C4A     		ldr	r2, .L11+28
 167 0088 0033     		adds	r3, r3, #0
 168 008a 18BF     		it	ne
 169 008c 0123     		movne	r3, #1
 170 008e 5021     		movs	r1, #80
 171 0090 0448     		ldr	r0, .L11+8
 318:..\common\ud3core/cli_common.c **** 
 172              		.loc 1 318 0
 173 0092 BDE87040 		pop	{r4, r5, r6, lr}
 174              		.cfi_restore 14
 175              		.cfi_restore 6
 176              		.cfi_restore 5
 177              		.cfi_restore 4
 178              		.cfi_def_cfa_offset 0
 316:..\common\ud3core/cli_common.c **** 
 179              		.loc 1 316 0
 180 0096 FFF7FEBF 		b	set_visibility
 181              	.LVL14:
 182              	.L12:
 183 009a 00BF     		.align	2
ARM GAS  C:\Users\chemi\AppData\Local\Temp\ccFrP3K3.s 			page 12


 184              	.L11:
 185 009c 00000000 		.word	configuration
 186 00a0 42000000 		.word	.LC4
 187 00a4 00000000 		.word	.LANCHOR0
 188 00a8 4C000000 		.word	.LC5
 189 00ac 1F000000 		.word	.LC1
 190 00b0 2B000000 		.word	.LC2
 191 00b4 37000000 		.word	.LC3
 192 00b8 57000000 		.word	.LC6
 193              		.cfi_endproc
 194              	.LFE70:
 195              		.size	update_visibilty, .-update_visibilty
 196              		.section	.text.init_tt_if_enabled,"ax",%progbits
 197              		.align	1
 198              		.global	init_tt_if_enabled
 199              		.thumb
 200              		.thumb_func
 201              		.type	init_tt_if_enabled, %function
 202              	init_tt_if_enabled:
 203              	.LFB71:
 322:..\common\ud3core/cli_common.c ****     if (portM->term_mode!=PORT_TERM_VT100) {
 204              		.loc 1 322 0
 205              		.cfi_startproc
 206              		@ args = 0, pretend = 0, frame = 0
 207              		@ frame_needed = 0, uses_anonymous_args = 0
 208              		@ link register save eliminated.
 209              	.LVL15:
 323:..\common\ud3core/cli_common.c ****         uint8_t include_chart;
 210              		.loc 1 323 0
 211 0000 4368     		ldr	r3, [r0, #4]
 322:..\common\ud3core/cli_common.c ****     if (portM->term_mode!=PORT_TERM_VT100) {
 212              		.loc 1 322 0
 213 0002 0146     		mov	r1, r0
 323:..\common\ud3core/cli_common.c ****         uint8_t include_chart;
 214              		.loc 1 323 0
 215 0004 9878     		ldrb	r0, [r3, #2]	@ zero_extendqisi2
 216              	.LVL16:
 217 0006 0428     		cmp	r0, #4
 218 0008 04D0     		beq	.L13
 219              	.LVL17:
 220              	.LBB6:
 330:..\common\ud3core/cli_common.c ****     }
 221              		.loc 1 330 0
 222 000a 431F     		subs	r3, r0, #5
 223 000c 5842     		rsbs	r0, r3, #0
 224              	.LVL18:
 225 000e 5841     		adcs	r0, r0, r3
 226 0010 FFF7FEBF 		b	init_tt
 227              	.LVL19:
 228              	.L13:
 229 0014 7047     		bx	lr
 230              	.LBE6:
 231              		.cfi_endproc
 232              	.LFE71:
 233              		.size	init_tt_if_enabled, .-init_tt_if_enabled
 234              		.section	.text.callback_TTupdateFunction,"ax",%progbits
 235              		.align	1
ARM GAS  C:\Users\chemi\AppData\Local\Temp\ccFrP3K3.s 			page 13


 236              		.global	callback_TTupdateFunction
 237              		.thumb
 238              		.thumb_func
 239              		.type	callback_TTupdateFunction, %function
 240              	callback_TTupdateFunction:
 241              	.LFB76:
 397:..\common\ud3core/cli_common.c ****     
 242              		.loc 1 397 0
 243              		.cfi_startproc
 244              		@ args = 0, pretend = 0, frame = 0
 245              		@ frame_needed = 0, uses_anonymous_args = 0
 246              	.LVL20:
 399:..\common\ud3core/cli_common.c ****     uint32_t max_current_meas = ((5000ul * configuration.ct1_ratio) / configuration.ct1_burden)/100
 247              		.loc 1 399 0
 248 0000 1C49     		ldr	r1, .L20
 249              	.LVL21:
 397:..\common\ud3core/cli_common.c ****     
 250              		.loc 1 397 0
 251 0002 F8B5     		push	{r3, r4, r5, r6, r7, lr}
 252              		.cfi_def_cfa_offset 24
 253              		.cfi_offset 3, -24
 254              		.cfi_offset 4, -20
 255              		.cfi_offset 5, -16
 256              		.cfi_offset 6, -12
 257              		.cfi_offset 7, -8
 258              		.cfi_offset 14, -4
 399:..\common\ud3core/cli_common.c ****     uint32_t max_current_meas = ((5000ul * configuration.ct1_ratio) / configuration.ct1_burden)/100
 259              		.loc 1 399 0
 260 0004 4B8A     		ldrh	r3, [r1, #18]
 261 0006 4FF47F64 		mov	r4, #4080
 262 000a 5C43     		muls	r4, r3, r4
 263 000c C88A     		ldrh	r0, [r1, #22]
 264              	.LVL22:
 397:..\common\ud3core/cli_common.c ****     
 265              		.loc 1 397 0
 266 000e 1546     		mov	r5, r2
 399:..\common\ud3core/cli_common.c ****     uint32_t max_current_meas = ((5000ul * configuration.ct1_ratio) / configuration.ct1_burden)/100
 267              		.loc 1 399 0
 268 0010 B4FBF0F2 		udiv	r2, r4, r0
 269              	.LVL23:
 270 0014 6424     		movs	r4, #100
 271 0016 B2FBF4F4 		udiv	r4, r2, r4
 272              	.LVL24:
 402:..\common\ud3core/cli_common.c ****         ttprintf("Warning: Max CT1 current with the current setup is %uA for OCD and %uA for peak m
 273              		.loc 1 402 0
 274 001a 4A89     		ldrh	r2, [r1, #10]
 275 001c 0F46     		mov	r7, r1
 276 001e 9442     		cmp	r4, r2
 277 0020 02D3     		bcc	.L16
 402:..\common\ud3core/cli_common.c ****         ttprintf("Warning: Max CT1 current with the current setup is %uA for OCD and %uA for peak m
 278              		.loc 1 402 0 is_stmt 0 discriminator 1
 279 0022 CA89     		ldrh	r2, [r1, #14]
 280 0024 9442     		cmp	r4, r2
 281 0026 16D2     		bcs	.L17
 282              	.L16:
 403:..\common\ud3core/cli_common.c ****         if(configuration.max_tr_current>max_current_cmp) configuration.max_tr_current = max_current
 283              		.loc 1 403 0 is_stmt 1
ARM GAS  C:\Users\chemi\AppData\Local\Temp\ccFrP3K3.s 			page 14


 284 0028 41F28832 		movw	r2, #5000
 285 002c 5343     		muls	r3, r2, r3
 286              	.LVL25:
 287 002e B3FBF0F3 		udiv	r3, r3, r0
 288 0032 6422     		movs	r2, #100
 289 0034 B3FBF2F3 		udiv	r3, r3, r2
 290 0038 6E6A     		ldr	r6, [r5, #36]
 291 003a 2246     		mov	r2, r4
 292 003c 0E49     		ldr	r1, .L20+4
 293 003e 6868     		ldr	r0, [r5, #4]
 294              	.LVL26:
 295 0040 B047     		blx	r6
 296              	.LVL27:
 404:..\common\ud3core/cli_common.c ****         if(configuration.max_qcw_current>max_current_cmp) configuration.max_qcw_current = max_curre
 297              		.loc 1 404 0
 298 0042 7B89     		ldrh	r3, [r7, #10]
 299 0044 9C42     		cmp	r4, r3
 300 0046 3CBF     		itt	cc
 301 0048 0A4B     		ldrcc	r3, .L20
 302 004a 5C81     		strhcc	r4, [r3, #10]	@ movhi
 405:..\common\ud3core/cli_common.c ****     }
 303              		.loc 1 405 0
 304 004c FB89     		ldrh	r3, [r7, #14]
 305 004e 9C42     		cmp	r4, r3
 306 0050 3CBF     		itt	cc
 307 0052 084B     		ldrcc	r3, .L20
 308 0054 DC81     		strhcc	r4, [r3, #14]	@ movhi
 309              	.L17:
 407:..\common\ud3core/cli_common.c ****     
 310              		.loc 1 407 0
 311 0056 FFF7FEFF 		bl	system_fault_Read
 312              	.LVL28:
 313 005a 0446     		mov	r4, r0
 314              	.LVL29:
 409:..\common\ud3core/cli_common.c ****     
 315              		.loc 1 409 0
 316 005c 0120     		movs	r0, #1
 317 005e FFF7FEFF 		bl	sysflt_set
 318              	.LVL30:
 411:..\common\ud3core/cli_common.c ****     
 319              		.loc 1 411 0
 320 0062 FFF7FEFF 		bl	configure_ZCD_to_PWM
 321              	.LVL31:
 413:..\common\ud3core/cli_common.c ****     
 322              		.loc 1 413 0
 323 0066 054B     		ldr	r3, .L20+8
 415:..\common\ud3core/cli_common.c **** 	return 1;
 324              		.loc 1 415 0
 325 0068 2846     		mov	r0, r5
 413:..\common\ud3core/cli_common.c ****     
 326              		.loc 1 413 0
 327 006a 1C70     		strb	r4, [r3]
 415:..\common\ud3core/cli_common.c **** 	return 1;
 328              		.loc 1 415 0
 329 006c FFF7FEFF 		bl	init_tt_if_enabled
 330              	.LVL32:
 417:..\common\ud3core/cli_common.c **** 
ARM GAS  C:\Users\chemi\AppData\Local\Temp\ccFrP3K3.s 			page 15


 331              		.loc 1 417 0
 332 0070 0120     		movs	r0, #1
 333 0072 F8BD     		pop	{r3, r4, r5, r6, r7, pc}
 334              	.LVL33:
 335              	.L21:
 336              		.align	2
 337              	.L20:
 338 0074 00000000 		.word	configuration
 339 0078 5E000000 		.word	.LC7
 340 007c 7E640040 		.word	1073767550
 341              		.cfi_endproc
 342              	.LFE76:
 343              		.size	callback_TTupdateFunction, .-callback_TTupdateFunction
 344              		.section	.text.callback_ConfigFunction,"ax",%progbits
 345              		.align	1
 346              		.global	callback_ConfigFunction
 347              		.thumb
 348              		.thumb_func
 349              		.type	callback_ConfigFunction, %function
 350              	callback_ConfigFunction:
 351              	.LFB80:
 429:..\common\ud3core/cli_common.c **** 
 430:..\common\ud3core/cli_common.c **** 
 431:..\common\ud3core/cli_common.c **** 
 432:..\common\ud3core/cli_common.c **** /*****************************************************************************
 433:..\common\ud3core/cli_common.c **** * Callback if the baudrate is changed
 434:..\common\ud3core/cli_common.c **** ******************************************************************************/
 435:..\common\ud3core/cli_common.c **** void uart_baudrate(uint32_t baudrate){
 436:..\common\ud3core/cli_common.c ****     float divider = (float)(BCLK__BUS_CLK__HZ/8)/(float)baudrate;
 437:..\common\ud3core/cli_common.c ****     uint16_t divider_selected=1;
 438:..\common\ud3core/cli_common.c ****     
 439:..\common\ud3core/cli_common.c ****     uint32_t down_rate = (BCLK__BUS_CLK__HZ/8)/floor(divider);
 440:..\common\ud3core/cli_common.c ****     uint32_t up_rate = (BCLK__BUS_CLK__HZ/8)/ceil(divider);
 441:..\common\ud3core/cli_common.c ****    
 442:..\common\ud3core/cli_common.c ****     float down_rate_error = (down_rate/(float)baudrate)-1;
 443:..\common\ud3core/cli_common.c ****     float up_rate_error = (up_rate/(float)baudrate)-1;
 444:..\common\ud3core/cli_common.c ****     
 445:..\common\ud3core/cli_common.c ****     UART_Stop();
 446:..\common\ud3core/cli_common.c ****     if(fabs(down_rate_error) < fabs(up_rate_error)){
 447:..\common\ud3core/cli_common.c ****         //selected round down divider
 448:..\common\ud3core/cli_common.c ****         divider_selected = floor(divider);
 449:..\common\ud3core/cli_common.c ****     }else{
 450:..\common\ud3core/cli_common.c ****         //selected round up divider
 451:..\common\ud3core/cli_common.c ****         divider_selected = ceil(divider);
 452:..\common\ud3core/cli_common.c ****     }
 453:..\common\ud3core/cli_common.c **** 
 454:..\common\ud3core/cli_common.c ****     UART_CLK_SetDividerValue(divider_selected);
 455:..\common\ud3core/cli_common.c ****     
 456:..\common\ud3core/cli_common.c ****     tt.n.rx_datarate.max = baudrate / 8;
 457:..\common\ud3core/cli_common.c ****     tt.n.tx_datarate.max = baudrate / 8;
 458:..\common\ud3core/cli_common.c ****     
 459:..\common\ud3core/cli_common.c ****     UART_Start();  
 460:..\common\ud3core/cli_common.c ****     
 461:..\common\ud3core/cli_common.c **** }
 462:..\common\ud3core/cli_common.c **** 
 463:..\common\ud3core/cli_common.c **** uint8_t callback_baudrateFunction(parameter_entry * params, uint8_t index, TERMINAL_HANDLE * handle
 464:..\common\ud3core/cli_common.c ****     uart_baudrate(configuration.baudrate);
ARM GAS  C:\Users\chemi\AppData\Local\Temp\ccFrP3K3.s 			page 16


 465:..\common\ud3core/cli_common.c ****  
 466:..\common\ud3core/cli_common.c ****     return 1;
 467:..\common\ud3core/cli_common.c **** }
 468:..\common\ud3core/cli_common.c **** 
 469:..\common\ud3core/cli_common.c **** 
 470:..\common\ud3core/cli_common.c **** /*****************************************************************************
 471:..\common\ud3core/cli_common.c **** * Callback if a configuration relevant parameter is changed
 472:..\common\ud3core/cli_common.c **** ******************************************************************************/
 473:..\common\ud3core/cli_common.c **** uint8_t callback_ConfigFunction(parameter_entry * params, uint8_t index, TERMINAL_HANDLE * handle){
 352              		.loc 1 473 0
 353              		.cfi_startproc
 354              		@ args = 0, pretend = 0, frame = 0
 355              		@ frame_needed = 0, uses_anonymous_args = 0
 356              	.LVL34:
 357 0000 70B5     		push	{r4, r5, r6, lr}
 358              		.cfi_def_cfa_offset 16
 359              		.cfi_offset 4, -16
 360              		.cfi_offset 5, -12
 361              		.cfi_offset 6, -8
 362              		.cfi_offset 14, -4
 363              		.loc 1 473 0
 364 0002 1646     		mov	r6, r2
 474:..\common\ud3core/cli_common.c ****     uint8 sfflag = system_fault_Read();
 365              		.loc 1 474 0
 366 0004 FFF7FEFF 		bl	system_fault_Read
 367              	.LVL35:
 475:..\common\ud3core/cli_common.c ****     sysflt_set(pdTRUE); //halt tesla coil operation during updates!
 476:..\common\ud3core/cli_common.c ****     
 477:..\common\ud3core/cli_common.c ****     if(configuration.hw_rev > 0){
 368              		.loc 1 477 0
 369 0008 184C     		ldr	r4, .L35
 474:..\common\ud3core/cli_common.c ****     uint8 sfflag = system_fault_Read();
 370              		.loc 1 474 0
 371 000a 0546     		mov	r5, r0
 372              	.LVL36:
 475:..\common\ud3core/cli_common.c ****     sysflt_set(pdTRUE); //halt tesla coil operation during updates!
 373              		.loc 1 475 0
 374 000c 0120     		movs	r0, #1
 375 000e FFF7FEFF 		bl	sysflt_set
 376              	.LVL37:
 377              		.loc 1 477 0
 378 0012 94F87030 		ldrb	r3, [r4, #112]	@ zero_extendqisi2
 379 0016 2BB1     		cbz	r3, .L23
 478:..\common\ud3core/cli_common.c ****         dcdc_ena_Write(0); //disable DCDC
 380              		.loc 1 478 0
 381 0018 0020     		movs	r0, #0
 382 001a FFF7FEFF 		bl	dcdc_ena_Write
 383              	.LVL38:
 479:..\common\ud3core/cli_common.c ****         digipot_set_voltage(configuration.vdrive);
 384              		.loc 1 479 0
 385 001e E06E     		ldr	r0, [r4, #108]	@ float
 386 0020 FFF7FEFF 		bl	digipot_set_voltage
 387              	.LVL39:
 388              	.L23:
 480:..\common\ud3core/cli_common.c ****     }
 481:..\common\ud3core/cli_common.c ****     
 482:..\common\ud3core/cli_common.c ****     WD_enable(configuration.watchdog);
ARM GAS  C:\Users\chemi\AppData\Local\Temp\ccFrP3K3.s 			page 17


 389              		.loc 1 482 0
 390 0024 2078     		ldrb	r0, [r4]	@ zero_extendqisi2
 391 0026 FFF7FEFF 		bl	WD_enable
 392              	.LVL40:
 483:..\common\ud3core/cli_common.c ****     configure_interrupter();
 393              		.loc 1 483 0
 394 002a FFF7FEFF 		bl	configure_interrupter
 395              	.LVL41:
 484:..\common\ud3core/cli_common.c **** 	initialize_charging();
 396              		.loc 1 484 0
 397 002e FFF7FEFF 		bl	initialize_charging
 398              	.LVL42:
 485:..\common\ud3core/cli_common.c **** 	configure_ZCD_to_PWM();
 399              		.loc 1 485 0
 400 0032 FFF7FEFF 		bl	configure_ZCD_to_PWM
 401              	.LVL43:
 486:..\common\ud3core/cli_common.c ****     update_visibilty();
 402              		.loc 1 486 0
 403 0036 FFF7FEFF 		bl	update_visibilty
 404              	.LVL44:
 487:..\common\ud3core/cli_common.c ****     reconfig_charge_timer();
 405              		.loc 1 487 0
 406 003a FFF7FEFF 		bl	reconfig_charge_timer
 407              	.LVL45:
 488:..\common\ud3core/cli_common.c ****     
 489:..\common\ud3core/cli_common.c ****     recalc_telemetry_limits();
 408              		.loc 1 489 0
 409 003e FFF7FEFF 		bl	recalc_telemetry_limits
 410              	.LVL46:
 490:..\common\ud3core/cli_common.c **** 
 491:..\common\ud3core/cli_common.c ****     init_tt_if_enabled(handle);
 411              		.loc 1 491 0
 412 0042 3046     		mov	r0, r6
 413 0044 FFF7FEFF 		bl	init_tt_if_enabled
 414              	.LVL47:
 492:..\common\ud3core/cli_common.c ****     
 493:..\common\ud3core/cli_common.c ****     if(configuration.hw_rev > 0){
 415              		.loc 1 493 0
 416 0048 94F87030 		ldrb	r3, [r4, #112]	@ zero_extendqisi2
 417 004c 13B1     		cbz	r3, .L24
 494:..\common\ud3core/cli_common.c ****         dcdc_ena_Write(1); //enable DCDC
 418              		.loc 1 494 0
 419 004e 0120     		movs	r0, #1
 420 0050 FFF7FEFF 		bl	dcdc_ena_Write
 421              	.LVL48:
 422              	.L24:
 495:..\common\ud3core/cli_common.c ****     }
 496:..\common\ud3core/cli_common.c ****     tsk_analog_recalc_drive_top(configuration.drive_factor);
 423              		.loc 1 496 0
 424 0054 A06F     		ldr	r0, [r4, #120]	@ float
 425 0056 FFF7FEFF 		bl	tsk_analog_recalc_drive_top
 426              	.LVL49:
 497:..\common\ud3core/cli_common.c ****     
 498:..\common\ud3core/cli_common.c ****     if(configuration.is_qcw){
 427              		.loc 1 498 0
 428 005a 94F85C30 		ldrb	r3, [r4, #92]	@ zero_extendqisi2
 429 005e 0BB1     		cbz	r3, .L25
ARM GAS  C:\Users\chemi\AppData\Local\Temp\ccFrP3K3.s 			page 18


 499:..\common\ud3core/cli_common.c ****         qcw_regenerate_ramp();   
 430              		.loc 1 499 0
 431 0060 FFF7FEFF 		bl	qcw_regenerate_ramp
 432              	.LVL50:
 433              	.L25:
 500:..\common\ud3core/cli_common.c ****     }
 501:..\common\ud3core/cli_common.c ****     
 502:..\common\ud3core/cli_common.c **** 	system_fault_Control = sfflag;
 434              		.loc 1 502 0
 435 0064 024B     		ldr	r3, .L35+4
 503:..\common\ud3core/cli_common.c ****     return 1;
 504:..\common\ud3core/cli_common.c **** }
 436              		.loc 1 504 0
 437 0066 0120     		movs	r0, #1
 502:..\common\ud3core/cli_common.c ****     return 1;
 438              		.loc 1 502 0
 439 0068 1D70     		strb	r5, [r3]
 440              		.loc 1 504 0
 441 006a 70BD     		pop	{r4, r5, r6, pc}
 442              	.LVL51:
 443              	.L36:
 444              		.align	2
 445              	.L35:
 446 006c 00000000 		.word	configuration
 447 0070 7E640040 		.word	1073767550
 448              		.cfi_endproc
 449              	.LFE80:
 450              		.size	callback_ConfigFunction, .-callback_ConfigFunction
 451              		.section	.text.update_ivo,"ax",%progbits
 452              		.align	1
 453              		.global	update_ivo
 454              		.thumb
 455              		.thumb_func
 456              		.type	update_ivo, %function
 457              	update_ivo:
 458              	.LFB72:
 338:..\common\ud3core/cli_common.c ****     switch(configuration.ivo_uart){
 459              		.loc 1 338 0
 460              		.cfi_startproc
 461              		@ args = 0, pretend = 0, frame = 0
 462              		@ frame_needed = 0, uses_anonymous_args = 0
 463              		@ link register save eliminated.
 339:..\common\ud3core/cli_common.c ****     case UART_IVO_NONE:
 464              		.loc 1 339 0
 465 0000 1A4A     		ldr	r2, .L49
 466 0002 1B4B     		ldr	r3, .L49+4
 467 0004 92F85A10 		ldrb	r1, [r2, #90]	@ zero_extendqisi2
 468 0008 0B29     		cmp	r1, #11
 469 000a 23D8     		bhi	.L38
 470 000c DFE801F0 		tbb	[pc, r1]
 471              	.L40:
 472 0010 06       		.byte	(.L39-.L40)/2
 473 0011 0A       		.byte	(.L41-.L40)/2
 474 0012 22       		.byte	(.L38-.L40)/2
 475 0013 22       		.byte	(.L38-.L40)/2
 476 0014 22       		.byte	(.L38-.L40)/2
 477 0015 22       		.byte	(.L38-.L40)/2
ARM GAS  C:\Users\chemi\AppData\Local\Temp\ccFrP3K3.s 			page 19


 478 0016 22       		.byte	(.L38-.L40)/2
 479 0017 22       		.byte	(.L38-.L40)/2
 480 0018 22       		.byte	(.L38-.L40)/2
 481 0019 22       		.byte	(.L38-.L40)/2
 482 001a 12       		.byte	(.L42-.L40)/2
 483 001b 1A       		.byte	(.L43-.L40)/2
 484              		.p2align 1
 485              	.L39:
 341:..\common\ud3core/cli_common.c ****         clear_bit(IVO_Control, IVO_UART_RX_BIT);
 486              		.loc 1 341 0
 487 001c 1978     		ldrb	r1, [r3]	@ zero_extendqisi2
 488 001e 01F0FD01 		and	r1, r1, #253
 489 0022 02E0     		b	.L48
 490              	.L41:
 345:..\common\ud3core/cli_common.c ****         clear_bit(IVO_Control, IVO_UART_RX_BIT);
 491              		.loc 1 345 0
 492 0024 1978     		ldrb	r1, [r3]	@ zero_extendqisi2
 493 0026 41F00201 		orr	r1, r1, #2
 494              	.L48:
 495 002a 1970     		strb	r1, [r3]
 346:..\common\ud3core/cli_common.c ****         break;
 496              		.loc 1 346 0
 497 002c 1978     		ldrb	r1, [r3]	@ zero_extendqisi2
 498 002e 01F0FE01 		and	r1, r1, #254
 499 0032 0EE0     		b	.L46
 500              	.L42:
 349:..\common\ud3core/cli_common.c ****         clear_bit(IVO_Control, IVO_UART_TX_BIT);
 501              		.loc 1 349 0
 502 0034 1978     		ldrb	r1, [r3]	@ zero_extendqisi2
 503 0036 41F00101 		orr	r1, r1, #1
 504 003a 1970     		strb	r1, [r3]
 350:..\common\ud3core/cli_common.c ****         break;
 505              		.loc 1 350 0
 506 003c 1978     		ldrb	r1, [r3]	@ zero_extendqisi2
 507 003e 01F0FD01 		and	r1, r1, #253
 508 0042 06E0     		b	.L46
 509              	.L43:
 353:..\common\ud3core/cli_common.c ****         set_bit(IVO_Control, IVO_UART_TX_BIT);
 510              		.loc 1 353 0
 511 0044 1978     		ldrb	r1, [r3]	@ zero_extendqisi2
 512 0046 41F00101 		orr	r1, r1, #1
 513 004a 1970     		strb	r1, [r3]
 354:..\common\ud3core/cli_common.c ****         break;
 514              		.loc 1 354 0
 515 004c 1978     		ldrb	r1, [r3]	@ zero_extendqisi2
 516 004e 41F00201 		orr	r1, r1, #2
 517              	.L46:
 518 0052 1970     		strb	r1, [r3]
 519              	.L38:
 357:..\common\ud3core/cli_common.c ****         set_bit(IVO_Control, IVO_LED_BIT);
 520              		.loc 1 357 0
 521 0054 92F86620 		ldrb	r2, [r2, #102]	@ zero_extendqisi2
 522 0058 1AB1     		cbz	r2, .L44
 358:..\common\ud3core/cli_common.c ****     }else{
 523              		.loc 1 358 0
 524 005a 1A78     		ldrb	r2, [r3]	@ zero_extendqisi2
 525 005c 42F00402 		orr	r2, r2, #4
ARM GAS  C:\Users\chemi\AppData\Local\Temp\ccFrP3K3.s 			page 20


 526 0060 02E0     		b	.L47
 527              	.L44:
 360:..\common\ud3core/cli_common.c ****     }
 528              		.loc 1 360 0
 529 0062 1A78     		ldrb	r2, [r3]	@ zero_extendqisi2
 530 0064 02F0FB02 		and	r2, r2, #251
 531              	.L47:
 532 0068 1A70     		strb	r2, [r3]
 533 006a 7047     		bx	lr
 534              	.L50:
 535              		.align	2
 536              	.L49:
 537 006c 00000000 		.word	configuration
 538 0070 77650040 		.word	1073767799
 539              		.cfi_endproc
 540              	.LFE72:
 541              		.size	update_ivo, .-update_ivo
 542              		.section	.text.init_config,"ax",%progbits
 543              		.align	1
 544              		.global	init_config
 545              		.thumb
 546              		.thumb_func
 547              		.type	init_config, %function
 548              	init_config:
 549              	.LFB68:
  97:..\common\ud3core/cli_common.c ****     configuration.watchdog = 1;
 550              		.loc 1 97 0
 551              		.cfi_startproc
 552              		@ args = 0, pretend = 0, frame = 0
 553              		@ frame_needed = 0, uses_anonymous_args = 0
 554 0000 2DE9F047 		push	{r4, r5, r6, r7, r8, r9, r10, lr}
 555              		.cfi_def_cfa_offset 32
 556              		.cfi_offset 4, -32
 557              		.cfi_offset 5, -28
 558              		.cfi_offset 6, -24
 559              		.cfi_offset 7, -20
 560              		.cfi_offset 8, -16
 561              		.cfi_offset 9, -12
 562              		.cfi_offset 10, -8
 563              		.cfi_offset 14, -4
  98:..\common\ud3core/cli_common.c ****     configuration.watchdog_timeout = 1000;
 564              		.loc 1 98 0
 565 0004 564C     		ldr	r4, .L52
 105:..\common\ud3core/cli_common.c ****     configuration.temp1_max = 40;
 566              		.loc 1 105 0
 567 0006 4FF49672 		mov	r2, #300
 568 000a E281     		strh	r2, [r4, #14]	@ movhi
 106:..\common\ud3core/cli_common.c ****     configuration.temp2_max = 40;
 569              		.loc 1 106 0
 570 000c 2822     		movs	r2, #40
 571 000e 2274     		strb	r2, [r4, #16]
 107:..\common\ud3core/cli_common.c ****     configuration.ct1_ratio = 600;
 572              		.loc 1 107 0
 573 0010 6274     		strb	r2, [r4, #17]
 108:..\common\ud3core/cli_common.c ****     configuration.ct2_ratio = 1000;
 574              		.loc 1 108 0
 575 0012 4FF41672 		mov	r2, #600
ARM GAS  C:\Users\chemi\AppData\Local\Temp\ccFrP3K3.s 			page 21


 576 0016 6282     		strh	r2, [r4, #18]	@ movhi
 110:..\common\ud3core/cli_common.c ****     configuration.ct2_burden = 500;
 577              		.loc 1 110 0
 578 0018 2122     		movs	r2, #33
 579 001a E282     		strh	r2, [r4, #22]	@ movhi
 113:..\common\ud3core/cli_common.c ****     configuration.start_cycles = 20;
 580              		.loc 1 113 0
 581 001c 40F27622 		movw	r2, #630
 101:..\common\ud3core/cli_common.c ****     configuration.max_qcw_pw = 1000;
 582              		.loc 1 101 0
 583 0020 4FF44873 		mov	r3, #800
 584 0024 E380     		strh	r3, [r4, #6]	@ movhi
 104:..\common\ud3core/cli_common.c ****     configuration.max_qcw_current = 300;
 585              		.loc 1 104 0
 586 0026 6423     		movs	r3, #100
 587 0028 A381     		strh	r3, [r4, #12]	@ movhi
 115:..\common\ud3core/cli_common.c ****     configuration.max_qcw_duty = 350;
 588              		.loc 1 115 0
 589 002a 2384     		strh	r3, [r4, #32]	@ movhi
 116:..\common\ud3core/cli_common.c ****     configuration.temp1_setpoint = 30;
 590              		.loc 1 116 0
 591 002c 4FF4AF73 		mov	r3, #350
 592 0030 6384     		strh	r3, [r4, #34]	@ movhi
 117:..\common\ud3core/cli_common.c ****     configuration.pid_temp_set = 45;
 593              		.loc 1 117 0
 594 0032 1E23     		movs	r3, #30
 113:..\common\ud3core/cli_common.c ****     configuration.start_cycles = 20;
 595              		.loc 1 113 0
 596 0034 A283     		strh	r2, [r4, #28]	@ movhi
 117:..\common\ud3core/cli_common.c ****     configuration.pid_temp_set = 45;
 597              		.loc 1 117 0
 598 0036 A384     		strh	r3, [r4, #36]	@ movhi
 122:..\common\ud3core/cli_common.c ****     configuration.temp2_mode = 0;
 599              		.loc 1 122 0
 600 0038 E384     		strh	r3, [r4, #38]	@ movhi
 118:..\common\ud3core/cli_common.c ****     configuration.pid_temp_mode = 0;
 601              		.loc 1 118 0
 602 003a 2D22     		movs	r2, #45
 124:..\common\ud3core/cli_common.c ****     configuration.autotune_s = 1;
 603              		.loc 1 124 0
 604 003c 0223     		movs	r3, #2
 118:..\common\ud3core/cli_common.c ****     configuration.pid_temp_mode = 0;
 605              		.loc 1 118 0
 606 003e 2285     		strh	r2, [r4, #40]	@ movhi
 124:..\common\ud3core/cli_common.c ****     configuration.autotune_s = 1;
 607              		.loc 1 124 0
 608 0040 84F83530 		strb	r3, [r4, #53]
 120:..\common\ud3core/cli_common.c ****     configuration.pid_temp_i = 0.2;
 609              		.loc 1 120 0
 610 0044 474A     		ldr	r2, .L52+4
 126:..\common\ud3core/cli_common.c ****     configuration.r_top = 500000;
 611              		.loc 1 126 0
 612 0046 4FF4E133 		mov	r3, #115200
 613 004a A364     		str	r3, [r4, #72]
 127:..\common\ud3core/cli_common.c ****     strncpy(configuration.ud_name,"UD3-Tesla", sizeof(configuration.ud_name));
 614              		.loc 1 127 0
 615 004c 464B     		ldr	r3, .L52+8
ARM GAS  C:\Users\chemi\AppData\Local\Temp\ccFrP3K3.s 			page 22


 119:..\common\ud3core/cli_common.c ****     configuration.pid_temp_p = 0.2;
 616              		.loc 1 119 0
 617 004e 0025     		movs	r5, #0
  99:..\common\ud3core/cli_common.c ****     configuration.max_tr_pw = 1000;
 618              		.loc 1 99 0
 619 0050 4FF47A76 		mov	r6, #1000
  98:..\common\ud3core/cli_common.c ****     configuration.watchdog_timeout = 1000;
 620              		.loc 1 98 0
 621 0054 0127     		movs	r7, #1
 111:..\common\ud3core/cli_common.c ****     configuration.lead_time = 500;
 622              		.loc 1 111 0
 623 0056 4FF4FA78 		mov	r8, #500
 114:..\common\ud3core/cli_common.c ****     configuration.max_tr_duty = 100;
 624              		.loc 1 114 0
 625 005a 4FF01409 		mov	r9, #20
 103:..\common\ud3core/cli_common.c ****     configuration.min_tr_current = 100;
 626              		.loc 1 103 0
 627 005e 4FF4C87A 		mov	r10, #400
 120:..\common\ud3core/cli_common.c ****     configuration.pid_temp_i = 0.2;
 628              		.loc 1 120 0
 629 0062 E262     		str	r2, [r4, #44]	@ float
 121:..\common\ud3core/cli_common.c ****     configuration.temp2_setpoint = 30;
 630              		.loc 1 121 0
 631 0064 2263     		str	r2, [r4, #48]	@ float
 128:..\common\ud3core/cli_common.c ****     configuration.ct2_type = CT2_TYPE_CURRENT;
 632              		.loc 1 128 0
 633 0066 4149     		ldr	r1, .L52+12
 634 0068 1022     		movs	r2, #16
 635 006a 04F13700 		add	r0, r4, #55
 127:..\common\ud3core/cli_common.c ****     strncpy(configuration.ud_name,"UD3-Tesla", sizeof(configuration.ud_name));
 636              		.loc 1 127 0
 637 006e 6365     		str	r3, [r4, #84]
  98:..\common\ud3core/cli_common.c ****     configuration.watchdog_timeout = 1000;
 638              		.loc 1 98 0
 639 0070 2770     		strb	r7, [r4]
  99:..\common\ud3core/cli_common.c ****     configuration.max_tr_pw = 1000;
 640              		.loc 1 99 0
 641 0072 6680     		strh	r6, [r4, #2]	@ movhi
 100:..\common\ud3core/cli_common.c ****     configuration.max_tr_prf = 800;
 642              		.loc 1 100 0
 643 0074 A680     		strh	r6, [r4, #4]	@ movhi
 102:..\common\ud3core/cli_common.c ****     configuration.max_tr_current = 400;
 644              		.loc 1 102 0
 645 0076 2681     		strh	r6, [r4, #8]	@ movhi
 103:..\common\ud3core/cli_common.c ****     configuration.min_tr_current = 100;
 646              		.loc 1 103 0
 647 0078 A4F80AA0 		strh	r10, [r4, #10]	@ movhi
 109:..\common\ud3core/cli_common.c ****     configuration.ct1_burden = 33;
 648              		.loc 1 109 0
 649 007c A682     		strh	r6, [r4, #20]	@ movhi
 111:..\common\ud3core/cli_common.c ****     configuration.lead_time = 500;
 650              		.loc 1 111 0
 651 007e A4F81880 		strh	r8, [r4, #24]	@ movhi
 112:..\common\ud3core/cli_common.c ****     configuration.start_freq = 630;
 652              		.loc 1 112 0
 653 0082 A4F81A80 		strh	r8, [r4, #26]	@ movhi
 114:..\common\ud3core/cli_common.c ****     configuration.max_tr_duty = 100;
ARM GAS  C:\Users\chemi\AppData\Local\Temp\ccFrP3K3.s 			page 23


 654              		.loc 1 114 0
 655 0086 84F81E90 		strb	r9, [r4, #30]
 119:..\common\ud3core/cli_common.c ****     configuration.pid_temp_p = 0.2;
 656              		.loc 1 119 0
 657 008a 84F82A50 		strb	r5, [r4, #42]
 123:..\common\ud3core/cli_common.c ****     configuration.ps_scheme = 2;
 658              		.loc 1 123 0
 659 008e 84F83450 		strb	r5, [r4, #52]
 125:..\common\ud3core/cli_common.c ****     configuration.baudrate = 115200;
 660              		.loc 1 125 0
 661 0092 84F83670 		strb	r7, [r4, #54]
 128:..\common\ud3core/cli_common.c ****     configuration.ct2_type = CT2_TYPE_CURRENT;
 662              		.loc 1 128 0
 663 0096 FFF7FEFF 		bl	strncpy
 664              	.LVL52:
 130:..\common\ud3core/cli_common.c ****     configuration.ct2_offset = 0;
 665              		.loc 1 130 0
 666 009a 4FF47A63 		mov	r3, #4000
 667 009e A4F85030 		strh	r3, [r4, #80]	@ movhi
 143:..\common\ud3core/cli_common.c ****     
 668              		.loc 1 143 0
 669 00a2 1923     		movs	r3, #25
 670 00a4 84F87230 		strb	r3, [r4, #114]
 146:..\common\ud3core/cli_common.c ****     configuration.compressor_release = 20;
 671              		.loc 1 146 0
 672 00a8 2C23     		movs	r3, #44
 673 00aa 84F87530 		strb	r3, [r4, #117]
 148:..\common\ud3core/cli_common.c ****     
 674              		.loc 1 148 0
 675 00ae 4023     		movs	r3, #64
 676 00b0 84F87730 		strb	r3, [r4, #119]
 150:..\common\ud3core/cli_common.c ****     configuration.ntc_r25 = 10000;
 677              		.loc 1 150 0
 678 00b4 40F68973 		movw	r3, #3977
 679 00b8 A4F86030 		strh	r3, [r4, #96]	@ movhi
 151:..\common\ud3core/cli_common.c ****     
 680              		.loc 1 151 0
 681 00bc 42F21073 		movw	r3, #10000
 682 00c0 A4F86230 		strh	r3, [r4, #98]	@ movhi
 153:..\common\ud3core/cli_common.c ****     
 683              		.loc 1 153 0
 684 00c4 B923     		movs	r3, #185
 685 00c6 A4F86430 		strh	r3, [r4, #100]	@ movhi
 155:..\common\ud3core/cli_common.c ****     
 686              		.loc 1 155 0
 687 00ca 294B     		ldr	r3, .L52+16
 129:..\common\ud3core/cli_common.c ****     configuration.ct2_voltage = 4000;
 688              		.loc 1 129 0
 689 00cc 84F84C50 		strb	r5, [r4, #76]
 155:..\common\ud3core/cli_common.c ****     
 690              		.loc 1 155 0
 691 00d0 E366     		str	r3, [r4, #108]	@ float
 131:..\common\ud3core/cli_common.c ****     configuration.ct2_current = 0;
 692              		.loc 1 131 0
 693 00d2 A4F85250 		strh	r5, [r4, #82]	@ movhi
 132:..\common\ud3core/cli_common.c ****     configuration.chargedelay = 1000;
 694              		.loc 1 132 0
ARM GAS  C:\Users\chemi\AppData\Local\Temp\ccFrP3K3.s 			page 24


 695 00d6 A4F84E50 		strh	r5, [r4, #78]	@ movhi
 133:..\common\ud3core/cli_common.c ****     configuration.ivo_uart = UART_IVO_NONE;
 696              		.loc 1 133 0
 697 00da A4F85860 		strh	r6, [r4, #88]	@ movhi
 134:..\common\ud3core/cli_common.c ****     configuration.ext_interrupter = 0;
 698              		.loc 1 134 0
 699 00de 84F85A50 		strb	r5, [r4, #90]
 135:..\common\ud3core/cli_common.c ****     configuration.pca9685 = 0;
 700              		.loc 1 135 0
 701 00e2 84F85B50 		strb	r5, [r4, #91]
 136:..\common\ud3core/cli_common.c ****     configuration.max_fb_errors = 0;
 702              		.loc 1 136 0
 703 00e6 84F85D50 		strb	r5, [r4, #93]
 137:..\common\ud3core/cli_common.c ****     configuration.ivo_led = 0;
 704              		.loc 1 137 0
 705 00ea A4F85E50 		strh	r5, [r4, #94]	@ movhi
 138:..\common\ud3core/cli_common.c ****     configuration.uvlo_analog = 0;
 706              		.loc 1 138 0
 707 00ee 84F86650 		strb	r5, [r4, #102]
 139:..\common\ud3core/cli_common.c ****     
 708              		.loc 1 139 0
 709 00f2 A4F86850 		strh	r5, [r4, #104]	@ movhi
 141:..\common\ud3core/cli_common.c ****     
 710              		.loc 1 141 0
 711 00f6 84F87350 		strb	r5, [r4, #115]
 145:..\common\ud3core/cli_common.c ****     configuration.compressor_sustain = 44;
 712              		.loc 1 145 0
 713 00fa 84F87490 		strb	r9, [r4, #116]
 147:..\common\ud3core/cli_common.c ****     configuration.compressor_maxDutyOffset = 64;
 714              		.loc 1 147 0
 715 00fe 84F87690 		strb	r9, [r4, #118]
 157:..\common\ud3core/cli_common.c ****     configuration.autostart = pdFALSE;
 716              		.loc 1 157 0
 717 0102 FFF7FEFF 		bl	SYS_detect_hw_rev
 718              	.LVL53:
 160:..\common\ud3core/cli_common.c ****     
 719              		.loc 1 160 0
 720 0106 4FF07E53 		mov	r3, #1065353216
 721 010a A367     		str	r3, [r4, #120]	@ float
 162:..\common\ud3core/cli_common.c ****     
 722              		.loc 1 162 0
 723 010c 194B     		ldr	r3, .L52+20
 170:..\common\ud3core/cli_common.c ****     param.tune_delay = 50;
 724              		.loc 1 170 0
 725 010e 3222     		movs	r2, #50
 162:..\common\ud3core/cli_common.c ****     
 726              		.loc 1 162 0
 727 0110 9D71     		strb	r5, [r3, #6]
 164:..\common\ud3core/cli_common.c ****     param.vol = 0;
 728              		.loc 1 164 0
 729 0112 194B     		ldr	r3, .L52+24
 157:..\common\ud3core/cli_common.c ****     configuration.autostart = pdFALSE;
 730              		.loc 1 157 0
 731 0114 84F87000 		strb	r0, [r4, #112]
 170:..\common\ud3core/cli_common.c ****     param.tune_delay = 50;
 732              		.loc 1 170 0
 733 0118 5A81     		strh	r2, [r3, #10]	@ movhi
ARM GAS  C:\Users\chemi\AppData\Local\Temp\ccFrP3K3.s 			page 25


 171:..\common\ud3core/cli_common.c ****     param.offtime = 3;
 734              		.loc 1 171 0
 735 011a 9A81     		strh	r2, [r3, #12]	@ movhi
 172:..\common\ud3core/cli_common.c ****     
 736              		.loc 1 172 0
 737 011c 0322     		movs	r2, #3
 738 011e DA81     		strh	r2, [r3, #14]	@ movhi
 174:..\common\ud3core/cli_common.c ****     param.synth = SYNTH_OFF;
 739              		.loc 1 174 0
 740 0120 6322     		movs	r2, #99
 741 0122 DA82     		strh	r2, [r3, #22]	@ movhi
 178:..\common\ud3core/cli_common.c ****     param.qcw_offset = 0;
 742              		.loc 1 178 0
 743 0124 FF22     		movs	r2, #255
 744 0126 1A75     		strb	r2, [r3, #20]
 180:..\common\ud3core/cli_common.c ****     param.qcw_freq = 5000;
 745              		.loc 1 180 0
 746 0128 C822     		movs	r2, #200
 747 012a 1A82     		strh	r2, [r3, #16]	@ movhi
 181:..\common\ud3core/cli_common.c ****     param.qcw_vol = 0;
 748              		.loc 1 181 0
 749 012c 41F28832 		movw	r2, #5000
 164:..\common\ud3core/cli_common.c ****     param.vol = 0;
 750              		.loc 1 164 0
 751 0130 1D80     		strh	r5, [r3]	@ movhi
 165:..\common\ud3core/cli_common.c ****     param.burst_on = 0;
 752              		.loc 1 165 0
 753 0132 9D80     		strh	r5, [r3, #4]	@ movhi
 166:..\common\ud3core/cli_common.c ****     param.burst_off = 500;
 754              		.loc 1 166 0
 755 0134 9D83     		strh	r5, [r3, #28]	@ movhi
 167:..\common\ud3core/cli_common.c ****     param.tune_start = 400;
 756              		.loc 1 167 0
 757 0136 A3F81E80 		strh	r8, [r3, #30]	@ movhi
 168:..\common\ud3core/cli_common.c ****     param.tune_end = 1000;
 758              		.loc 1 168 0
 759 013a A3F806A0 		strh	r10, [r3, #6]	@ movhi
 169:..\common\ud3core/cli_common.c ****     param.tune_pw = 50;
 760              		.loc 1 169 0
 761 013e 1E81     		strh	r6, [r3, #8]	@ movhi
 175:..\common\ud3core/cli_common.c ****     
 762              		.loc 1 175 0
 763 0140 83F82050 		strb	r5, [r3, #32]
 177:..\common\ud3core/cli_common.c ****     param.qcw_max = 255;
 764              		.loc 1 177 0
 765 0144 9D74     		strb	r5, [r3, #18]
 179:..\common\ud3core/cli_common.c ****     param.qcw_ramp = 200;
 766              		.loc 1 179 0
 767 0146 DD74     		strb	r5, [r3, #19]
 182:..\common\ud3core/cli_common.c ****     
 768              		.loc 1 182 0
 769 0148 9D76     		strb	r5, [r3, #26]
 158:..\common\ud3core/cli_common.c ****     
 770              		.loc 1 158 0
 771 014a 84F87150 		strb	r5, [r4, #113]
 181:..\common\ud3core/cli_common.c ****     param.qcw_vol = 0;
 772              		.loc 1 181 0
ARM GAS  C:\Users\chemi\AppData\Local\Temp\ccFrP3K3.s 			page 26


 773 014e 1A83     		strh	r2, [r3, #24]	@ movhi
 184:..\common\ud3core/cli_common.c ****     
 774              		.loc 1 184 0
 775 0150 FFF7FEFF 		bl	update_ivo
 776              	.LVL54:
 186:..\common\ud3core/cli_common.c ****     qcw_regenerate_ramp();
 777              		.loc 1 186 0
 778 0154 094B     		ldr	r3, .L52+28
 779 0156 1F70     		strb	r7, [r3]
 188:..\common\ud3core/cli_common.c **** 
 780              		.loc 1 188 0
 781 0158 BDE8F047 		pop	{r4, r5, r6, r7, r8, r9, r10, lr}
 782              		.cfi_restore 14
 783              		.cfi_restore 10
 784              		.cfi_restore 9
 785              		.cfi_restore 8
 786              		.cfi_restore 7
 787              		.cfi_restore 6
 788              		.cfi_restore 5
 789              		.cfi_restore 4
 790              		.cfi_def_cfa_offset 0
 187:..\common\ud3core/cli_common.c **** }
 791              		.loc 1 187 0
 792 015c FFF7FEBF 		b	qcw_regenerate_ramp
 793              	.LVL55:
 794              	.L53:
 795              		.align	2
 796              	.L52:
 797 0160 00000000 		.word	configuration
 798 0164 CDCC4C3E 		.word	1045220557
 799 0168 20A10700 		.word	500000
 800 016c BC000000 		.word	.LC8
 801 0170 00007041 		.word	1097859072
 802 0174 00000000 		.word	interrupter
 803 0178 00000000 		.word	param
 804 017c 00000000 		.word	ramp
 805              		.cfi_endproc
 806              	.LFE68:
 807              		.size	init_config, .-init_config
 808              		.section	.text.callback_ivoUART,"ax",%progbits
 809              		.align	1
 810              		.global	callback_ivoUART
 811              		.thumb
 812              		.thumb_func
 813              		.type	callback_ivoUART, %function
 814              	callback_ivoUART:
 815              	.LFB73:
 365:..\common\ud3core/cli_common.c ****     if(configuration.ivo_uart == UART_IVO_NONE || configuration.ivo_uart == UART_IVO_TX || configur
 816              		.loc 1 365 0
 817              		.cfi_startproc
 818              		@ args = 0, pretend = 0, frame = 0
 819              		@ frame_needed = 0, uses_anonymous_args = 0
 820              	.LVL56:
 821 0000 10B5     		push	{r4, lr}
 822              		.cfi_def_cfa_offset 8
 823              		.cfi_offset 4, -8
 824              		.cfi_offset 14, -4
ARM GAS  C:\Users\chemi\AppData\Local\Temp\ccFrP3K3.s 			page 27


 366:..\common\ud3core/cli_common.c ****         update_ivo();   
 825              		.loc 1 366 0
 826 0002 114B     		ldr	r3, .L58
 365:..\common\ud3core/cli_common.c ****     if(configuration.ivo_uart == UART_IVO_NONE || configuration.ivo_uart == UART_IVO_TX || configur
 827              		.loc 1 365 0
 828 0004 1446     		mov	r4, r2
 366:..\common\ud3core/cli_common.c ****         update_ivo();   
 829              		.loc 1 366 0
 830 0006 93F85A30 		ldrb	r3, [r3, #90]	@ zero_extendqisi2
 831 000a 012B     		cmp	r3, #1
 832 000c 02D9     		bls	.L55
 366:..\common\ud3core/cli_common.c ****         update_ivo();   
 833              		.loc 1 366 0 is_stmt 0 discriminator 1
 834 000e 0A3B     		subs	r3, r3, #10
 835 0010 012B     		cmp	r3, #1
 836 0012 03D8     		bhi	.L56
 837              	.L55:
 367:..\common\ud3core/cli_common.c ****         return 1;
 838              		.loc 1 367 0 is_stmt 1
 839 0014 FFF7FEFF 		bl	update_ivo
 840              	.LVL57:
 368:..\common\ud3core/cli_common.c ****     }else{
 841              		.loc 1 368 0
 842 0018 0120     		movs	r0, #1
 843 001a 10BD     		pop	{r4, pc}
 844              	.LVL58:
 845              	.L56:
 846              	.LBB9:
 847              	.LBB10:
 370:..\common\ud3core/cli_common.c ****         ttprintf("0  = no inversion\r\n");
 848              		.loc 1 370 0
 849 001c 536A     		ldr	r3, [r2, #36]
 850 001e 5068     		ldr	r0, [r2, #4]
 851              	.LVL59:
 852 0020 0A49     		ldr	r1, .L58+4
 853              	.LVL60:
 854 0022 9847     		blx	r3
 855              	.LVL61:
 371:..\common\ud3core/cli_common.c ****         ttprintf("1  = rx inverted, tx not inverted\r\n");
 856              		.loc 1 371 0
 857 0024 636A     		ldr	r3, [r4, #36]
 858 0026 0A49     		ldr	r1, .L58+8
 859 0028 6068     		ldr	r0, [r4, #4]
 860 002a 9847     		blx	r3
 861              	.LVL62:
 372:..\common\ud3core/cli_common.c ****         ttprintf("10 = rx not inverted, tx inverted\r\n");
 862              		.loc 1 372 0
 863 002c 636A     		ldr	r3, [r4, #36]
 864 002e 0949     		ldr	r1, .L58+12
 865 0030 6068     		ldr	r0, [r4, #4]
 866 0032 9847     		blx	r3
 867              	.LVL63:
 373:..\common\ud3core/cli_common.c ****         ttprintf("11 = rx and tx inverted\r\n");
 868              		.loc 1 373 0
 869 0034 636A     		ldr	r3, [r4, #36]
 870 0036 0849     		ldr	r1, .L58+16
 871 0038 6068     		ldr	r0, [r4, #4]
ARM GAS  C:\Users\chemi\AppData\Local\Temp\ccFrP3K3.s 			page 28


 872 003a 9847     		blx	r3
 873              	.LVL64:
 374:..\common\ud3core/cli_common.c ****         return 0;
 874              		.loc 1 374 0
 875 003c 636A     		ldr	r3, [r4, #36]
 876 003e 0749     		ldr	r1, .L58+20
 877 0040 6068     		ldr	r0, [r4, #4]
 878 0042 9847     		blx	r3
 879              	.LVL65:
 880 0044 0020     		movs	r0, #0
 881              	.LBE10:
 882              	.LBE9:
 377:..\common\ud3core/cli_common.c **** 
 883              		.loc 1 377 0
 884 0046 10BD     		pop	{r4, pc}
 885              	.LVL66:
 886              	.L59:
 887              		.align	2
 888              	.L58:
 889 0048 00000000 		.word	configuration
 890 004c C6000000 		.word	.LC9
 891 0050 F3000000 		.word	.LC10
 892 0054 07010000 		.word	.LC11
 893 0058 2B010000 		.word	.LC12
 894 005c 4F010000 		.word	.LC13
 895              		.cfi_endproc
 896              	.LFE73:
 897              		.size	callback_ivoUART, .-callback_ivoUART
 898              		.section	.text.callback_ivoLED,"ax",%progbits
 899              		.align	1
 900              		.global	callback_ivoLED
 901              		.thumb
 902              		.thumb_func
 903              		.type	callback_ivoLED, %function
 904              	callback_ivoLED:
 905              	.LFB74:
 379:..\common\ud3core/cli_common.c ****     update_ivo();
 906              		.loc 1 379 0
 907              		.cfi_startproc
 908              		@ args = 0, pretend = 0, frame = 0
 909              		@ frame_needed = 0, uses_anonymous_args = 0
 910              	.LVL67:
 911 0000 08B5     		push	{r3, lr}
 912              		.cfi_def_cfa_offset 8
 913              		.cfi_offset 3, -8
 914              		.cfi_offset 14, -4
 380:..\common\ud3core/cli_common.c ****     return 1;
 915              		.loc 1 380 0
 916 0002 FFF7FEFF 		bl	update_ivo
 917              	.LVL68:
 382:..\common\ud3core/cli_common.c **** 
 918              		.loc 1 382 0
 919 0006 0120     		movs	r0, #1
 920 0008 08BD     		pop	{r3, pc}
 921              		.cfi_endproc
 922              	.LFE74:
 923              		.size	callback_ivoLED, .-callback_ivoLED
ARM GAS  C:\Users\chemi\AppData\Local\Temp\ccFrP3K3.s 			page 29


 924              		.section	.text.callback_VisibleFunction,"ax",%progbits
 925              		.align	1
 926              		.global	callback_VisibleFunction
 927              		.thumb
 928              		.thumb_func
 929              		.type	callback_VisibleFunction, %function
 930              	callback_VisibleFunction:
 931              	.LFB75:
 388:..\common\ud3core/cli_common.c ****     update_visibilty();
 932              		.loc 1 388 0
 933              		.cfi_startproc
 934              		@ args = 0, pretend = 0, frame = 0
 935              		@ frame_needed = 0, uses_anonymous_args = 0
 936              	.LVL69:
 937 0000 08B5     		push	{r3, lr}
 938              		.cfi_def_cfa_offset 8
 939              		.cfi_offset 3, -8
 940              		.cfi_offset 14, -4
 389:..\common\ud3core/cli_common.c ****     return 1;
 941              		.loc 1 389 0
 942 0002 FFF7FEFF 		bl	update_visibilty
 943              	.LVL70:
 391:..\common\ud3core/cli_common.c **** 
 944              		.loc 1 391 0
 945 0006 0120     		movs	r0, #1
 946 0008 08BD     		pop	{r3, pc}
 947              		.cfi_endproc
 948              	.LFE75:
 949              		.size	callback_VisibleFunction, .-callback_VisibleFunction
 950              		.global	__aeabi_ui2f
 951              		.global	__aeabi_fdiv
 952              		.global	__aeabi_f2d
 953              		.global	__aeabi_ddiv
 954              		.global	__aeabi_d2uiz
 955              		.global	__aeabi_fsub
 956              		.global	__aeabi_fcmplt
 957              		.section	.text.uart_baudrate,"ax",%progbits
 958              		.align	1
 959              		.global	uart_baudrate
 960              		.thumb
 961              		.thumb_func
 962              		.type	uart_baudrate, %function
 963              	uart_baudrate:
 964              	.LFB78:
 435:..\common\ud3core/cli_common.c ****     float divider = (float)(BCLK__BUS_CLK__HZ/8)/(float)baudrate;
 965              		.loc 1 435 0
 966              		.cfi_startproc
 967              		@ args = 0, pretend = 0, frame = 0
 968              		@ frame_needed = 0, uses_anonymous_args = 0
 969              	.LVL71:
 970 0000 2DE9F047 		push	{r4, r5, r6, r7, r8, r9, r10, lr}
 971              		.cfi_def_cfa_offset 32
 972              		.cfi_offset 4, -32
 973              		.cfi_offset 5, -28
 974              		.cfi_offset 6, -24
 975              		.cfi_offset 7, -20
 976              		.cfi_offset 8, -16
ARM GAS  C:\Users\chemi\AppData\Local\Temp\ccFrP3K3.s 			page 30


 977              		.cfi_offset 9, -12
 978              		.cfi_offset 10, -8
 979              		.cfi_offset 14, -4
 435:..\common\ud3core/cli_common.c ****     float divider = (float)(BCLK__BUS_CLK__HZ/8)/(float)baudrate;
 980              		.loc 1 435 0
 981 0004 0446     		mov	r4, r0
 436:..\common\ud3core/cli_common.c ****     uint16_t divider_selected=1;
 982              		.loc 1 436 0
 983 0006 FFF7FEFF 		bl	__aeabi_ui2f
 984              	.LVL72:
 985 000a 0546     		mov	r5, r0
 986              	.LVL73:
 439:..\common\ud3core/cli_common.c ****     uint32_t up_rate = (BCLK__BUS_CLK__HZ/8)/ceil(divider);
 987              		.loc 1 439 0
 988 000c 0146     		mov	r1, r0
 989 000e 2E48     		ldr	r0, .L69+8
 990              	.LVL74:
 991 0010 FFF7FEFF 		bl	__aeabi_fdiv
 992              	.LVL75:
 993 0014 FFF7FEFF 		bl	__aeabi_f2d
 994              	.LVL76:
 995 0018 0646     		mov	r6, r0
 996 001a 0F46     		mov	r7, r1
 997 001c FFF7FEFF 		bl	floor
 998              	.LVL77:
 999 0020 8046     		mov	r8, r0
 1000 0022 8946     		mov	r9, r1
 1001              	.LVL78:
 440:..\common\ud3core/cli_common.c ****    
 1002              		.loc 1 440 0
 1003 0024 3046     		mov	r0, r6
 1004 0026 3946     		mov	r1, r7
 1005 0028 FFF7FEFF 		bl	ceil
 1006              	.LVL79:
 1007 002c 0646     		mov	r6, r0
 1008 002e 0F46     		mov	r7, r1
 1009              	.LVL80:
 445:..\common\ud3core/cli_common.c ****     if(fabs(down_rate_error) < fabs(up_rate_error)){
 1010              		.loc 1 445 0
 1011 0030 FFF7FEFF 		bl	UART_Stop
 1012              	.LVL81:
 446:..\common\ud3core/cli_common.c ****         //selected round down divider
 1013              		.loc 1 446 0
 1014 0034 22A1     		adr	r1, .L69
 1015 0036 D1E90001 		ldrd	r0, [r1]
 1016 003a 4246     		mov	r2, r8
 1017 003c 4B46     		mov	r3, r9
 1018 003e FFF7FEFF 		bl	__aeabi_ddiv
 1019              	.LVL82:
 1020 0042 FFF7FEFF 		bl	__aeabi_d2uiz
 1021              	.LVL83:
 1022 0046 FFF7FEFF 		bl	__aeabi_ui2f
 1023              	.LVL84:
 1024 004a 2946     		mov	r1, r5
 1025 004c FFF7FEFF 		bl	__aeabi_fdiv
 1026              	.LVL85:
 1027 0050 4FF07E51 		mov	r1, #1065353216
ARM GAS  C:\Users\chemi\AppData\Local\Temp\ccFrP3K3.s 			page 31


 1028 0054 FFF7FEFF 		bl	__aeabi_fsub
 1029              	.LVL86:
 1030 0058 3246     		mov	r2, r6
 1031 005a 3B46     		mov	r3, r7
 1032 005c 20F0004A 		bic	r10, r0, #-2147483648
 1033 0060 17A1     		adr	r1, .L69
 1034 0062 D1E90001 		ldrd	r0, [r1]
 1035 0066 FFF7FEFF 		bl	__aeabi_ddiv
 1036              	.LVL87:
 1037 006a FFF7FEFF 		bl	__aeabi_d2uiz
 1038              	.LVL88:
 1039 006e FFF7FEFF 		bl	__aeabi_ui2f
 1040              	.LVL89:
 1041 0072 2946     		mov	r1, r5
 1042 0074 FFF7FEFF 		bl	__aeabi_fdiv
 1043              	.LVL90:
 1044 0078 4FF07E51 		mov	r1, #1065353216
 1045 007c FFF7FEFF 		bl	__aeabi_fsub
 1046              	.LVL91:
 1047 0080 20F00041 		bic	r1, r0, #-2147483648
 1048 0084 5046     		mov	r0, r10
 1049 0086 FFF7FEFF 		bl	__aeabi_fcmplt
 1050              	.LVL92:
 1051 008a 10B1     		cbz	r0, .L67
 448:..\common\ud3core/cli_common.c ****     }else{
 1052              		.loc 1 448 0
 1053 008c 4046     		mov	r0, r8
 1054 008e 4946     		mov	r1, r9
 1055 0090 01E0     		b	.L68
 1056              	.L67:
 451:..\common\ud3core/cli_common.c ****     }
 1057              		.loc 1 451 0
 1058 0092 3046     		mov	r0, r6
 1059 0094 3946     		mov	r1, r7
 1060              	.L68:
 1061 0096 FFF7FEFF 		bl	__aeabi_d2uiz
 1062              	.LVL93:
 1063 009a 80B2     		uxth	r0, r0
 1064              	.LVL94:
 454:..\common\ud3core/cli_common.c ****     
 1065              		.loc 1 454 0
 1066 009c 0138     		subs	r0, r0, #1
 1067              	.LVL95:
 1068 009e 80B2     		uxth	r0, r0
 1069              	.LVL96:
 1070 00a0 0121     		movs	r1, #1
 1071 00a2 FFF7FEFF 		bl	UART_CLK_SetDividerRegister
 1072              	.LVL97:
 456:..\common\ud3core/cli_common.c ****     tt.n.tx_datarate.max = baudrate / 8;
 1073              		.loc 1 456 0
 1074 00a6 094B     		ldr	r3, .L69+12
 1075 00a8 E008     		lsrs	r0, r4, #3
 1076 00aa C3F8B001 		str	r0, [r3, #432]
 457:..\common\ud3core/cli_common.c ****     
 1077              		.loc 1 457 0
 1078 00ae C3F89001 		str	r0, [r3, #400]
 461:..\common\ud3core/cli_common.c **** 
ARM GAS  C:\Users\chemi\AppData\Local\Temp\ccFrP3K3.s 			page 32


 1079              		.loc 1 461 0
 1080 00b2 BDE8F047 		pop	{r4, r5, r6, r7, r8, r9, r10, lr}
 1081              		.cfi_restore 14
 1082              		.cfi_restore 10
 1083              		.cfi_restore 9
 1084              		.cfi_restore 8
 1085              		.cfi_restore 7
 1086              		.cfi_restore 6
 1087              		.cfi_restore 5
 1088              		.cfi_restore 4
 1089              		.cfi_def_cfa_offset 0
 1090              	.LVL98:
 459:..\common\ud3core/cli_common.c ****     
 1091              		.loc 1 459 0
 1092 00b6 FFF7FEBF 		b	UART_Start
 1093              	.LVL99:
 1094              	.L70:
 1095 00ba 00BFAFF3 		.align	3
 1095      0080
 1096              	.L69:
 1097 00c0 00000000 		.word	0
 1098 00c4 80845E41 		.word	1096713344
 1099 00c8 0024F44A 		.word	1257513984
 1100 00cc 00000000 		.word	tt
 1101              		.cfi_endproc
 1102              	.LFE78:
 1103              		.size	uart_baudrate, .-uart_baudrate
 1104              		.section	.text.eeprom_load,"ax",%progbits
 1105              		.align	1
 1106              		.global	eeprom_load
 1107              		.thumb
 1108              		.thumb_func
 1109              		.type	eeprom_load, %function
 1110              	eeprom_load:
 1111              	.LFB69:
 281:..\common\ud3core/cli_common.c ****     EEPROM_read_conf(confparam, PARAM_SIZE(confparam) ,0,handle);
 1112              		.loc 1 281 0
 1113              		.cfi_startproc
 1114              		@ args = 0, pretend = 0, frame = 0
 1115              		@ frame_needed = 0, uses_anonymous_args = 0
 1116              	.LVL100:
 1117 0000 10B5     		push	{r4, lr}
 1118              		.cfi_def_cfa_offset 8
 1119              		.cfi_offset 4, -8
 1120              		.cfi_offset 14, -4
 281:..\common\ud3core/cli_common.c ****     EEPROM_read_conf(confparam, PARAM_SIZE(confparam) ,0,handle);
 1121              		.loc 1 281 0
 1122 0002 0446     		mov	r4, r0
 282:..\common\ud3core/cli_common.c ****     if(param.offtime<3) param.offtime=3;
 1123              		.loc 1 282 0
 1124 0004 5021     		movs	r1, #80
 1125 0006 0346     		mov	r3, r0
 1126 0008 0022     		movs	r2, #0
 1127 000a 1448     		ldr	r0, .L73
 1128              	.LVL101:
 1129 000c FFF7FEFF 		bl	EEPROM_read_conf
 1130              	.LVL102:
ARM GAS  C:\Users\chemi\AppData\Local\Temp\ccFrP3K3.s 			page 33


 283:..\common\ud3core/cli_common.c ****     update_ivo();
 1131              		.loc 1 283 0
 1132 0010 134B     		ldr	r3, .L73+4
 1133 0012 DA89     		ldrh	r2, [r3, #14]
 1134 0014 022A     		cmp	r2, #2
 1135 0016 9CBF     		itt	ls
 1136 0018 0322     		movls	r2, #3
 1137 001a DA81     		strhls	r2, [r3, #14]	@ movhi
 284:..\common\ud3core/cli_common.c ****     update_visibilty();
 1138              		.loc 1 284 0
 1139 001c FFF7FEFF 		bl	update_ivo
 1140              	.LVL103:
 285:..\common\ud3core/cli_common.c ****     uart_baudrate(configuration.baudrate);
 1141              		.loc 1 285 0
 1142 0020 FFF7FEFF 		bl	update_visibilty
 1143              	.LVL104:
 286:..\common\ud3core/cli_common.c ****     ramp.changed = pdTRUE;
 1144              		.loc 1 286 0
 1145 0024 0F4B     		ldr	r3, .L73+8
 1146 0026 986C     		ldr	r0, [r3, #72]
 1147 0028 FFF7FEFF 		bl	uart_baudrate
 1148              	.LVL105:
 287:..\common\ud3core/cli_common.c ****     qcw_regenerate_ramp();
 1149              		.loc 1 287 0
 1150 002c 0E4B     		ldr	r3, .L73+12
 1151 002e 0122     		movs	r2, #1
 1152 0030 1A70     		strb	r2, [r3]
 288:..\common\ud3core/cli_common.c ****     init_telemetry();
 1153              		.loc 1 288 0
 1154 0032 FFF7FEFF 		bl	qcw_regenerate_ramp
 1155              	.LVL106:
 289:..\common\ud3core/cli_common.c ****     callback_temp_pid(confparam,0,handle);
 1156              		.loc 1 289 0
 1157 0036 FFF7FEFF 		bl	init_telemetry
 1158              	.LVL107:
 290:..\common\ud3core/cli_common.c ****     callback_ext_interrupter(confparam,0,handle);
 1159              		.loc 1 290 0
 1160 003a 2246     		mov	r2, r4
 1161 003c 0021     		movs	r1, #0
 1162 003e 0748     		ldr	r0, .L73
 1163 0040 FFF7FEFF 		bl	callback_temp_pid
 1164              	.LVL108:
 291:..\common\ud3core/cli_common.c ****     callback_ConfigFunction(confparam,0,handle);
 1165              		.loc 1 291 0
 1166 0044 2246     		mov	r2, r4
 1167 0046 0021     		movs	r1, #0
 1168 0048 0448     		ldr	r0, .L73
 1169 004a FFF7FEFF 		bl	callback_ext_interrupter
 1170              	.LVL109:
 292:..\common\ud3core/cli_common.c **** }
 1171              		.loc 1 292 0
 1172 004e 2246     		mov	r2, r4
 293:..\common\ud3core/cli_common.c **** 
 1173              		.loc 1 293 0
 1174 0050 BDE81040 		pop	{r4, lr}
 1175              		.cfi_restore 14
 1176              		.cfi_restore 4
ARM GAS  C:\Users\chemi\AppData\Local\Temp\ccFrP3K3.s 			page 34


 1177              		.cfi_def_cfa_offset 0
 1178              	.LVL110:
 292:..\common\ud3core/cli_common.c **** }
 1179              		.loc 1 292 0
 1180 0054 0021     		movs	r1, #0
 1181 0056 0148     		ldr	r0, .L73
 1182 0058 FFF7FEBF 		b	callback_ConfigFunction
 1183              	.LVL111:
 1184              	.L74:
 1185              		.align	2
 1186              	.L73:
 1187 005c 00000000 		.word	.LANCHOR0
 1188 0060 00000000 		.word	param
 1189 0064 00000000 		.word	configuration
 1190 0068 00000000 		.word	ramp
 1191              		.cfi_endproc
 1192              	.LFE69:
 1193              		.size	eeprom_load, .-eeprom_load
 1194              		.section	.text.callback_baudrateFunction,"ax",%progbits
 1195              		.align	1
 1196              		.global	callback_baudrateFunction
 1197              		.thumb
 1198              		.thumb_func
 1199              		.type	callback_baudrateFunction, %function
 1200              	callback_baudrateFunction:
 1201              	.LFB79:
 463:..\common\ud3core/cli_common.c ****     uart_baudrate(configuration.baudrate);
 1202              		.loc 1 463 0
 1203              		.cfi_startproc
 1204              		@ args = 0, pretend = 0, frame = 0
 1205              		@ frame_needed = 0, uses_anonymous_args = 0
 1206              	.LVL112:
 1207 0000 08B5     		push	{r3, lr}
 1208              		.cfi_def_cfa_offset 8
 1209              		.cfi_offset 3, -8
 1210              		.cfi_offset 14, -4
 464:..\common\ud3core/cli_common.c ****  
 1211              		.loc 1 464 0
 1212 0002 034B     		ldr	r3, .L76
 1213 0004 986C     		ldr	r0, [r3, #72]
 1214              	.LVL113:
 1215 0006 FFF7FEFF 		bl	uart_baudrate
 1216              	.LVL114:
 467:..\common\ud3core/cli_common.c **** 
 1217              		.loc 1 467 0
 1218 000a 0120     		movs	r0, #1
 1219 000c 08BD     		pop	{r3, pc}
 1220              	.L77:
 1221 000e 00BF     		.align	2
 1222              	.L76:
 1223 0010 00000000 		.word	configuration
 1224              		.cfi_endproc
 1225              	.LFE79:
 1226              		.size	callback_baudrateFunction, .-callback_baudrateFunction
 1227              		.section	.text.callback_DefaultFunction,"ax",%progbits
 1228              		.align	1
 1229              		.global	callback_DefaultFunction
ARM GAS  C:\Users\chemi\AppData\Local\Temp\ccFrP3K3.s 			page 35


 1230              		.thumb
 1231              		.thumb_func
 1232              		.type	callback_DefaultFunction, %function
 1233              	callback_DefaultFunction:
 1234              	.LFB81:
 505:..\common\ud3core/cli_common.c **** 
 506:..\common\ud3core/cli_common.c **** /*****************************************************************************
 507:..\common\ud3core/cli_common.c **** * Default function if a parameter is changes (not used)
 508:..\common\ud3core/cli_common.c **** ******************************************************************************/
 509:..\common\ud3core/cli_common.c **** uint8_t callback_DefaultFunction(parameter_entry * params, uint8_t index, TERMINAL_HANDLE * handle)
 1235              		.loc 1 509 0
 1236              		.cfi_startproc
 1237              		@ args = 0, pretend = 0, frame = 0
 1238              		@ frame_needed = 0, uses_anonymous_args = 0
 1239              		@ link register save eliminated.
 1240              	.LVL115:
 510:..\common\ud3core/cli_common.c ****     
 511:..\common\ud3core/cli_common.c ****     return 1;
 512:..\common\ud3core/cli_common.c **** }
 1241              		.loc 1 512 0
 1242 0000 0120     		movs	r0, #1
 1243              	.LVL116:
 1244 0002 7047     		bx	lr
 1245              		.cfi_endproc
 1246              	.LFE81:
 1247              		.size	callback_DefaultFunction, .-callback_DefaultFunction
 1248              		.section	.text.con_info,"ax",%progbits
 1249              		.align	1
 1250              		.global	con_info
 1251              		.thumb
 1252              		.thumb_func
 1253              		.type	con_info, %function
 1254              	con_info:
 1255              	.LFB82:
 513:..\common\ud3core/cli_common.c **** 
 514:..\common\ud3core/cli_common.c **** 
 515:..\common\ud3core/cli_common.c **** void con_info(TERMINAL_HANDLE * handle){
 1256              		.loc 1 515 0
 1257              		.cfi_startproc
 1258              		@ args = 0, pretend = 0, frame = 0
 1259              		@ frame_needed = 0, uses_anonymous_args = 0
 1260              	.LVL117:
 1261 0000 70B5     		push	{r4, r5, r6, lr}
 1262              		.cfi_def_cfa_offset 16
 1263              		.cfi_offset 4, -16
 1264              		.cfi_offset 5, -12
 1265              		.cfi_offset 6, -8
 1266              		.cfi_offset 14, -4
 1267              		.loc 1 515 0
 1268 0002 0446     		mov	r4, r0
 516:..\common\ud3core/cli_common.c ****     #define COL_A 9
 517:..\common\ud3core/cli_common.c ****     #define COL_B 15
 518:..\common\ud3core/cli_common.c ****     ttprintf("\r\nConnected clients:\r\n");
 1269              		.loc 1 518 0
 1270 0004 436A     		ldr	r3, [r0, #36]
 1271 0006 1D49     		ldr	r1, .L83
 1272 0008 4068     		ldr	r0, [r0, #4]
ARM GAS  C:\Users\chemi\AppData\Local\Temp\ccFrP3K3.s 			page 36


 1273              	.LVL118:
 1274 000a 9847     		blx	r3
 1275              	.LVL119:
 519:..\common\ud3core/cli_common.c ****     TERM_sendVT100Code(handle, _VT100_CURSOR_SET_COLUMN, COL_A);
 1276              		.loc 1 519 0
 1277 000c 0922     		movs	r2, #9
 1278 000e 1A21     		movs	r1, #26
 1279 0010 2046     		mov	r0, r4
 1280 0012 FFF7FEFF 		bl	TERM_sendVT100Code
 1281              	.LVL120:
 520:..\common\ud3core/cli_common.c ****     ttprintf("Num");
 1282              		.loc 1 520 0
 1283 0016 636A     		ldr	r3, [r4, #36]
 1284 0018 1949     		ldr	r1, .L83+4
 1285 001a 6068     		ldr	r0, [r4, #4]
 1286 001c 9847     		blx	r3
 1287              	.LVL121:
 521:..\common\ud3core/cli_common.c ****     TERM_sendVT100Code(handle, _VT100_CURSOR_SET_COLUMN, COL_B);
 1288              		.loc 1 521 0
 1289 001e 0F22     		movs	r2, #15
 1290 0020 1A21     		movs	r1, #26
 1291 0022 2046     		mov	r0, r4
 1292 0024 FFF7FEFF 		bl	TERM_sendVT100Code
 1293              	.LVL122:
 522:..\common\ud3core/cli_common.c ****     ttprintf("| Remote IP\r\n");
 1294              		.loc 1 522 0
 1295 0028 636A     		ldr	r3, [r4, #36]
 1296 002a 1649     		ldr	r1, .L83+8
 1297 002c 6068     		ldr	r0, [r4, #4]
 1298 002e 9847     		blx	r3
 1299              	.LVL123:
 1300 0030 154E     		ldr	r6, .L83+12
 1301 0032 0025     		movs	r5, #0
 1302              	.LVL124:
 1303              	.L81:
 1304              	.LBB11:
 523:..\common\ud3core/cli_common.c ****     
 524:..\common\ud3core/cli_common.c ****     for(uint8_t i=0;i<NUM_MIN_CON;i++){
 525:..\common\ud3core/cli_common.c ****         if(socket_info[i].socket==SOCKET_CONNECTED){
 1305              		.loc 1 525 0
 1306 0034 16F8023C 		ldrb	r3, [r6, #-2]	@ zero_extendqisi2
 1307 0038 012B     		cmp	r3, #1
 1308 003a 13D1     		bne	.L80
 526:..\common\ud3core/cli_common.c ****             TERM_sendVT100Code(handle, _VT100_CURSOR_SET_COLUMN, COL_A);
 1309              		.loc 1 526 0
 1310 003c 0922     		movs	r2, #9
 1311 003e 1A21     		movs	r1, #26
 1312 0040 2046     		mov	r0, r4
 1313 0042 FFF7FEFF 		bl	TERM_sendVT100Code
 1314              	.LVL125:
 527:..\common\ud3core/cli_common.c ****             ttprintf("\033[36m%d", i);
 1315              		.loc 1 527 0
 1316 0046 636A     		ldr	r3, [r4, #36]
 1317 0048 2A46     		mov	r2, r5
 1318 004a 1049     		ldr	r1, .L83+16
 1319 004c 6068     		ldr	r0, [r4, #4]
 1320 004e 9847     		blx	r3
ARM GAS  C:\Users\chemi\AppData\Local\Temp\ccFrP3K3.s 			page 37


 1321              	.LVL126:
 528:..\common\ud3core/cli_common.c ****             TERM_sendVT100Code(handle, _VT100_CURSOR_SET_COLUMN, COL_B);
 1322              		.loc 1 528 0
 1323 0050 0F22     		movs	r2, #15
 1324 0052 1A21     		movs	r1, #26
 1325 0054 2046     		mov	r0, r4
 1326 0056 FFF7FEFF 		bl	TERM_sendVT100Code
 1327              	.LVL127:
 529:..\common\ud3core/cli_common.c ****             ttprintf("\033[32m%s\r\n", socket_info[i].info);
 1328              		.loc 1 529 0
 1329 005a 636A     		ldr	r3, [r4, #36]
 1330 005c 3246     		mov	r2, r6
 1331 005e 0C49     		ldr	r1, .L83+20
 1332 0060 6068     		ldr	r0, [r4, #4]
 1333 0062 9847     		blx	r3
 1334              	.LVL128:
 1335              	.L80:
 1336 0064 0135     		adds	r5, r5, #1
 1337              	.LVL129:
 524:..\common\ud3core/cli_common.c ****         if(socket_info[i].socket==SOCKET_CONNECTED){
 1338              		.loc 1 524 0 discriminator 2
 1339 0066 042D     		cmp	r5, #4
 1340 0068 06F11206 		add	r6, r6, #18
 1341 006c E2D1     		bne	.L81
 1342              	.LBE11:
 530:..\common\ud3core/cli_common.c ****         }
 531:..\common\ud3core/cli_common.c ****     }
 532:..\common\ud3core/cli_common.c ****     TERM_sendVT100Code(handle, _VT100_FOREGROUND_COLOR, _VT100_WHITE);
 1343              		.loc 1 532 0
 1344 006e 2046     		mov	r0, r4
 533:..\common\ud3core/cli_common.c **** }
 1345              		.loc 1 533 0
 1346 0070 BDE87040 		pop	{r4, r5, r6, lr}
 1347              		.cfi_restore 14
 1348              		.cfi_restore 6
 1349              		.cfi_restore 5
 1350              		.cfi_restore 4
 1351              		.cfi_def_cfa_offset 0
 1352              	.LVL130:
 532:..\common\ud3core/cli_common.c **** }
 1353              		.loc 1 532 0
 1354 0074 0722     		movs	r2, #7
 1355 0076 0221     		movs	r1, #2
 1356 0078 FFF7FEBF 		b	TERM_sendVT100Code
 1357              	.LVL131:
 1358              	.L84:
 1359              		.align	2
 1360              	.L83:
 1361 007c 69010000 		.word	.LC14
 1362 0080 80010000 		.word	.LC15
 1363 0084 84010000 		.word	.LC16
 1364 0088 02000000 		.word	socket_info+2
 1365 008c 92010000 		.word	.LC17
 1366 0090 9A010000 		.word	.LC18
 1367              		.cfi_endproc
 1368              	.LFE82:
 1369              		.size	con_info, .-con_info
ARM GAS  C:\Users\chemi\AppData\Local\Temp\ccFrP3K3.s 			page 38


 1370              		.section	.text.con_numcon,"ax",%progbits
 1371              		.align	1
 1372              		.global	con_numcon
 1373              		.thumb
 1374              		.thumb_func
 1375              		.type	con_numcon, %function
 1376              	con_numcon:
 1377              	.LFB83:
 534:..\common\ud3core/cli_common.c **** 
 535:..\common\ud3core/cli_common.c **** void con_numcon(TERMINAL_HANDLE * handle){
 1378              		.loc 1 535 0
 1379              		.cfi_startproc
 1380              		@ args = 0, pretend = 0, frame = 0
 1381              		@ frame_needed = 0, uses_anonymous_args = 0
 1382              		@ link register save eliminated.
 1383              	.LVL132:
 1384 0000 0023     		movs	r3, #0
 536:..\common\ud3core/cli_common.c ****     uint8_t cnt=0;
 1385              		.loc 1 536 0
 1386 0002 1A46     		mov	r2, r3
 535:..\common\ud3core/cli_common.c ****     uint8_t cnt=0;
 1387              		.loc 1 535 0
 1388 0004 10B4     		push	{r4}
 1389              		.cfi_def_cfa_offset 4
 1390              		.cfi_offset 4, -4
 1391              	.LBB12:
 537:..\common\ud3core/cli_common.c ****     for(uint8_t i=0;i<NUM_MIN_CON;i++){
 538:..\common\ud3core/cli_common.c ****         if(socket_info[i].socket==SOCKET_CONNECTED){
 1392              		.loc 1 538 0
 1393 0006 0849     		ldr	r1, .L89
 1394              	.LVL133:
 1395              	.L87:
 1396 0008 5C5C     		ldrb	r4, [r3, r1]	@ zero_extendqisi2
 1397 000a 1233     		adds	r3, r3, #18
 1398 000c 012C     		cmp	r4, #1
 539:..\common\ud3core/cli_common.c ****             cnt++;
 1399              		.loc 1 539 0
 1400 000e 04BF     		itt	eq
 1401 0010 0132     		addeq	r2, r2, #1
 1402              	.LVL134:
 1403 0012 D2B2     		uxtbeq	r2, r2
 1404              	.LVL135:
 537:..\common\ud3core/cli_common.c ****     for(uint8_t i=0;i<NUM_MIN_CON;i++){
 1405              		.loc 1 537 0
 1406 0014 482B     		cmp	r3, #72
 1407 0016 F7D1     		bne	.L87
 1408              	.LBE12:
 540:..\common\ud3core/cli_common.c ****         }
 541:..\common\ud3core/cli_common.c ****     }
 542:..\common\ud3core/cli_common.c ****     ttprintf("CLI-Sessions: %u/%u\r\n",cnt ,NUM_MIN_CON);
 1409              		.loc 1 542 0
 1410 0018 446A     		ldr	r4, [r0, #36]
 1411 001a 0423     		movs	r3, #4
 1412 001c A446     		mov	ip, r4
 1413 001e 0349     		ldr	r1, .L89+4
 1414 0020 4068     		ldr	r0, [r0, #4]
 1415              	.LVL136:
ARM GAS  C:\Users\chemi\AppData\Local\Temp\ccFrP3K3.s 			page 39


 543:..\common\ud3core/cli_common.c **** }
 1416              		.loc 1 543 0
 1417 0022 10BC     		pop	{r4}
 1418              		.cfi_restore 4
 1419              		.cfi_def_cfa_offset 0
 542:..\common\ud3core/cli_common.c **** }
 1420              		.loc 1 542 0
 1421 0024 6047     		bx	ip
 1422              	.LVL137:
 1423              	.L90:
 1424 0026 00BF     		.align	2
 1425              	.L89:
 1426 0028 00000000 		.word	socket_info
 1427 002c A4010000 		.word	.LC19
 1428              		.cfi_endproc
 1429              	.LFE83:
 1430              		.size	con_numcon, .-con_numcon
 1431              		.section	.text.con_minstat,"ax",%progbits
 1432              		.align	1
 1433              		.global	con_minstat
 1434              		.thumb
 1435              		.thumb_func
 1436              		.type	con_minstat, %function
 1437              	con_minstat:
 1438              	.LFB84:
 544:..\common\ud3core/cli_common.c **** 
 545:..\common\ud3core/cli_common.c **** /*****************************************************************************
 546:..\common\ud3core/cli_common.c **** * Displays the statistics of the min protocol
 547:..\common\ud3core/cli_common.c **** ******************************************************************************/
 548:..\common\ud3core/cli_common.c **** uint8_t con_minstat(TERMINAL_HANDLE * handle){
 1439              		.loc 1 548 0
 1440              		.cfi_startproc
 1441              		@ args = 0, pretend = 0, frame = 0
 1442              		@ frame_needed = 0, uses_anonymous_args = 0
 1443              	.LVL138:
 1444 0000 2DE9F041 		push	{r4, r5, r6, r7, r8, lr}
 1445              		.cfi_def_cfa_offset 24
 1446              		.cfi_offset 4, -24
 1447              		.cfi_offset 5, -20
 1448              		.cfi_offset 6, -16
 1449              		.cfi_offset 7, -12
 1450              		.cfi_offset 8, -8
 1451              		.cfi_offset 14, -4
 1452              		.loc 1 548 0
 1453 0004 0446     		mov	r4, r0
 549:..\common\ud3core/cli_common.c ****     TERM_sendVT100Code(handle, _VT100_CLS,0);
 1454              		.loc 1 549 0
 1455 0006 0022     		movs	r2, #0
 1456 0008 1B21     		movs	r1, #27
 1457 000a FFF7FEFF 		bl	TERM_sendVT100Code
 1458              	.LVL139:
 550:..\common\ud3core/cli_common.c ****     TERM_sendVT100Code(handle, _VT100_CURSOR_DISABLE,0);
 1459              		.loc 1 550 0
 1460 000e 0022     		movs	r2, #0
 1461 0010 1921     		movs	r1, #25
 1462 0012 2046     		mov	r0, r4
 1463 0014 FFF7FEFF 		bl	TERM_sendVT100Code
ARM GAS  C:\Users\chemi\AppData\Local\Temp\ccFrP3K3.s 			page 40


 1464              	.LVL140:
 1465 0018 564D     		ldr	r5, .L101
 1466 001a 574E     		ldr	r6, .L101+4
 1467              	.L94:
 1468              	.LBB13:
 551:..\common\ud3core/cli_common.c ****   
 552:..\common\ud3core/cli_common.c ****     while(true){
 553:..\common\ud3core/cli_common.c **** 
 554:..\common\ud3core/cli_common.c ****         uint8_t c = getch(handle, 200 /portTICK_RATE_MS);
 1469              		.loc 1 554 0
 1470 001c C821     		movs	r1, #200
 1471 001e 2046     		mov	r0, r4
 1472 0020 FFF7FEFF 		bl	getch
 1473              	.LVL141:
 555:..\common\ud3core/cli_common.c ****         if(c == CTRL_C || c == 'q'){  //0x03 = CTRL+C
 1474              		.loc 1 555 0
 1475 0024 0328     		cmp	r0, #3
 1476 0026 00F09C80 		beq	.L92
 1477              		.loc 1 555 0 is_stmt 0 discriminator 1
 1478 002a 7128     		cmp	r0, #113
 1479 002c 00F09980 		beq	.L92
 556:..\common\ud3core/cli_common.c ****             break;   
 557:..\common\ud3core/cli_common.c ****         }else if ( c == 'r'){
 1480              		.loc 1 557 0 is_stmt 1
 1481 0030 7228     		cmp	r0, #114
 1482 0032 0DD1     		bne	.L93
 558:..\common\ud3core/cli_common.c ****             min_ctx.transport_fifo.dropped_frames = 0;
 1483              		.loc 1 558 0
 1484 0034 0023     		movs	r3, #0
 1485 0036 C5F8CC30 		str	r3, [r5, #204]
 559:..\common\ud3core/cli_common.c ****             min_ctx.transport_fifo.spurious_acks = 0;
 1486              		.loc 1 559 0
 1487 003a C5F8D030 		str	r3, [r5, #208]
 560:..\common\ud3core/cli_common.c ****             min_ctx.transport_fifo.resets_received = 0;
 1488              		.loc 1 560 0
 1489 003e C5F8D830 		str	r3, [r5, #216]
 561:..\common\ud3core/cli_common.c ****             min_ctx.transport_fifo.sequence_mismatch_drop = 0;
 1490              		.loc 1 561 0
 1491 0042 C5F8D430 		str	r3, [r5, #212]
 562:..\common\ud3core/cli_common.c ****             min_ctx.transport_fifo.n_frames_max = 0;
 1492              		.loc 1 562 0
 1493 0046 85F8E730 		strb	r3, [r5, #231]
 563:..\common\ud3core/cli_common.c ****             min_ctx.transport_fifo.crc_fails = 0;
 1494              		.loc 1 563 0
 1495 004a C5F8DC30 		str	r3, [r5, #220]
 564:..\common\ud3core/cli_common.c ****             min_time.resync = 0;
 1496              		.loc 1 564 0
 1497 004e F360     		str	r3, [r6, #12]
 1498              	.L93:
 565:..\common\ud3core/cli_common.c ****         }
 566:..\common\ud3core/cli_common.c ****         
 567:..\common\ud3core/cli_common.c ****         TERM_sendVT100Code(handle, _VT100_CURSOR_POS1,0);
 1499              		.loc 1 567 0
 1500 0050 0022     		movs	r2, #0
 1501 0052 1146     		mov	r1, r2
 1502 0054 2046     		mov	r0, r4
 1503              	.LVL142:
ARM GAS  C:\Users\chemi\AppData\Local\Temp\ccFrP3K3.s 			page 41


 1504 0056 FFF7FEFF 		bl	TERM_sendVT100Code
 1505              	.LVL143:
 568:..\common\ud3core/cli_common.c ****         ttprintf("MIN monitor    (press [CTRL+C] for quit or press [r] for reset stats)\r\n");
 1506              		.loc 1 568 0
 1507 005a 636A     		ldr	r3, [r4, #36]
 1508 005c 4749     		ldr	r1, .L101+8
 1509 005e 6068     		ldr	r0, [r4, #4]
 1510 0060 9847     		blx	r3
 1511              	.LVL144:
 569:..\common\ud3core/cli_common.c ****         ttprintf("%sDropped frames        : %lu\r\n", TERM_getVT100Code(_VT100_ERASE_LINE_END, 0), 
 1512              		.loc 1 569 0
 1513 0062 0021     		movs	r1, #0
 1514 0064 1120     		movs	r0, #17
 1515 0066 676A     		ldr	r7, [r4, #36]
 1516 0068 D4F80480 		ldr	r8, [r4, #4]
 1517 006c FFF7FEFF 		bl	TERM_getVT100Code
 1518              	.LVL145:
 1519 0070 D5F8CC30 		ldr	r3, [r5, #204]
 1520 0074 0246     		mov	r2, r0
 1521 0076 4249     		ldr	r1, .L101+12
 1522 0078 4046     		mov	r0, r8
 1523 007a B847     		blx	r7
 1524              	.LVL146:
 570:..\common\ud3core/cli_common.c ****         ttprintf("%sSpurious acks         : %lu\r\n", TERM_getVT100Code(_VT100_ERASE_LINE_END, 0),m
 1525              		.loc 1 570 0
 1526 007c 0021     		movs	r1, #0
 1527 007e 1120     		movs	r0, #17
 1528 0080 676A     		ldr	r7, [r4, #36]
 1529 0082 D4F80480 		ldr	r8, [r4, #4]
 1530 0086 FFF7FEFF 		bl	TERM_getVT100Code
 1531              	.LVL147:
 1532 008a D5F8D030 		ldr	r3, [r5, #208]
 1533 008e 0246     		mov	r2, r0
 1534 0090 3C49     		ldr	r1, .L101+16
 1535 0092 4046     		mov	r0, r8
 1536 0094 B847     		blx	r7
 1537              	.LVL148:
 571:..\common\ud3core/cli_common.c ****         ttprintf("%sResets received       : %lu\r\n", TERM_getVT100Code(_VT100_ERASE_LINE_END, 0),m
 1538              		.loc 1 571 0
 1539 0096 0021     		movs	r1, #0
 1540 0098 1120     		movs	r0, #17
 1541 009a 676A     		ldr	r7, [r4, #36]
 1542 009c D4F80480 		ldr	r8, [r4, #4]
 1543 00a0 FFF7FEFF 		bl	TERM_getVT100Code
 1544              	.LVL149:
 1545 00a4 D5F8D830 		ldr	r3, [r5, #216]
 1546 00a8 0246     		mov	r2, r0
 1547 00aa 3749     		ldr	r1, .L101+20
 1548 00ac 4046     		mov	r0, r8
 1549 00ae B847     		blx	r7
 1550              	.LVL150:
 572:..\common\ud3core/cli_common.c ****         ttprintf("%sSequence mismatch drop: %lu\r\n", TERM_getVT100Code(_VT100_ERASE_LINE_END, 0),m
 1551              		.loc 1 572 0
 1552 00b0 0021     		movs	r1, #0
 1553 00b2 1120     		movs	r0, #17
 1554 00b4 676A     		ldr	r7, [r4, #36]
 1555 00b6 D4F80480 		ldr	r8, [r4, #4]
ARM GAS  C:\Users\chemi\AppData\Local\Temp\ccFrP3K3.s 			page 42


 1556 00ba FFF7FEFF 		bl	TERM_getVT100Code
 1557              	.LVL151:
 1558 00be D5F8D430 		ldr	r3, [r5, #212]
 1559 00c2 0246     		mov	r2, r0
 1560 00c4 3149     		ldr	r1, .L101+24
 1561 00c6 4046     		mov	r0, r8
 1562 00c8 B847     		blx	r7
 1563              	.LVL152:
 573:..\common\ud3core/cli_common.c ****         ttprintf("%sMax frames in buffer  : %u\r\n", TERM_getVT100Code(_VT100_ERASE_LINE_END, 0),mi
 1564              		.loc 1 573 0
 1565 00ca 0021     		movs	r1, #0
 1566 00cc 1120     		movs	r0, #17
 1567 00ce 676A     		ldr	r7, [r4, #36]
 1568 00d0 D4F80480 		ldr	r8, [r4, #4]
 1569 00d4 FFF7FEFF 		bl	TERM_getVT100Code
 1570              	.LVL153:
 1571 00d8 95F8E730 		ldrb	r3, [r5, #231]	@ zero_extendqisi2
 1572 00dc 0246     		mov	r2, r0
 1573 00de 2C49     		ldr	r1, .L101+28
 1574 00e0 4046     		mov	r0, r8
 1575 00e2 B847     		blx	r7
 1576              	.LVL154:
 574:..\common\ud3core/cli_common.c ****         ttprintf("%sCRC errors            : %u\r\n", TERM_getVT100Code(_VT100_ERASE_LINE_END, 0),mi
 1577              		.loc 1 574 0
 1578 00e4 0021     		movs	r1, #0
 1579 00e6 1120     		movs	r0, #17
 1580 00e8 676A     		ldr	r7, [r4, #36]
 1581 00ea D4F80480 		ldr	r8, [r4, #4]
 1582 00ee FFF7FEFF 		bl	TERM_getVT100Code
 1583              	.LVL155:
 1584 00f2 D5F8DC30 		ldr	r3, [r5, #220]
 1585 00f6 0246     		mov	r2, r0
 1586 00f8 2649     		ldr	r1, .L101+32
 1587 00fa 4046     		mov	r0, r8
 1588 00fc B847     		blx	r7
 1589              	.LVL156:
 575:..\common\ud3core/cli_common.c ****         ttprintf("%sRemote Time           : %u\r\n", TERM_getVT100Code(_VT100_ERASE_LINE_END, 0),mi
 1590              		.loc 1 575 0
 1591 00fe 0021     		movs	r1, #0
 1592 0100 1120     		movs	r0, #17
 1593 0102 676A     		ldr	r7, [r4, #36]
 1594 0104 D4F80480 		ldr	r8, [r4, #4]
 1595 0108 FFF7FEFF 		bl	TERM_getVT100Code
 1596              	.LVL157:
 1597 010c 3368     		ldr	r3, [r6]
 1598 010e 0246     		mov	r2, r0
 1599 0110 2149     		ldr	r1, .L101+36
 1600 0112 4046     		mov	r0, r8
 1601 0114 B847     		blx	r7
 1602              	.LVL158:
 576:..\common\ud3core/cli_common.c ****         ttprintf("%sLocal Time            : %u\r\n", TERM_getVT100Code(_VT100_ERASE_LINE_END, 0),l_
 1603              		.loc 1 576 0
 1604 0116 0021     		movs	r1, #0
 1605 0118 1120     		movs	r0, #17
 1606 011a 676A     		ldr	r7, [r4, #36]
 1607 011c D4F80480 		ldr	r8, [r4, #4]
 1608 0120 FFF7FEFF 		bl	TERM_getVT100Code
ARM GAS  C:\Users\chemi\AppData\Local\Temp\ccFrP3K3.s 			page 43


 1609              	.LVL159:
 1610 0124 1D4B     		ldr	r3, .L101+40
 1611 0126 0246     		mov	r2, r0
 1612 0128 1B68     		ldr	r3, [r3]
 1613 012a 1D49     		ldr	r1, .L101+44
 1614 012c 4046     		mov	r0, r8
 1615 012e B847     		blx	r7
 1616              	.LVL160:
 577:..\common\ud3core/cli_common.c ****         ttprintf("%sDiff Time             : %i\r\n", TERM_getVT100Code(_VT100_ERASE_LINE_END, 0),mi
 1617              		.loc 1 577 0
 1618 0130 0021     		movs	r1, #0
 1619 0132 1120     		movs	r0, #17
 1620 0134 676A     		ldr	r7, [r4, #36]
 1621 0136 D4F80480 		ldr	r8, [r4, #4]
 1622 013a FFF7FEFF 		bl	TERM_getVT100Code
 1623              	.LVL161:
 1624 013e 7368     		ldr	r3, [r6, #4]
 1625 0140 0246     		mov	r2, r0
 1626 0142 1849     		ldr	r1, .L101+48
 1627 0144 4046     		mov	r0, r8
 1628 0146 B847     		blx	r7
 1629              	.LVL162:
 578:..\common\ud3core/cli_common.c ****         ttprintf("%sResync count          : %u\r\n", TERM_getVT100Code(_VT100_ERASE_LINE_END, 0),mi
 1630              		.loc 1 578 0
 1631 0148 0021     		movs	r1, #0
 1632 014a 1120     		movs	r0, #17
 1633 014c D4F80480 		ldr	r8, [r4, #4]
 1634 0150 676A     		ldr	r7, [r4, #36]
 1635 0152 FFF7FEFF 		bl	TERM_getVT100Code
 1636              	.LVL163:
 1637 0156 F368     		ldr	r3, [r6, #12]
 1638 0158 0246     		mov	r2, r0
 1639 015a 1349     		ldr	r1, .L101+52
 1640 015c 4046     		mov	r0, r8
 1641 015e B847     		blx	r7
 1642              	.LVL164:
 1643              	.LBE13:
 579:..\common\ud3core/cli_common.c ****     }
 1644              		.loc 1 579 0
 1645 0160 5CE7     		b	.L94
 1646              	.LVL165:
 1647              	.L92:
 580:..\common\ud3core/cli_common.c ****     TERM_sendVT100Code(handle, _VT100_CURSOR_ENABLE,0);
 1648              		.loc 1 580 0
 1649 0162 2046     		mov	r0, r4
 1650              	.LVL166:
 1651 0164 0022     		movs	r2, #0
 1652 0166 1821     		movs	r1, #24
 1653 0168 FFF7FEFF 		bl	TERM_sendVT100Code
 1654              	.LVL167:
 581:..\common\ud3core/cli_common.c ****     return 1; 
 582:..\common\ud3core/cli_common.c **** }
 1655              		.loc 1 582 0
 1656 016c 0120     		movs	r0, #1
 1657 016e BDE8F081 		pop	{r4, r5, r6, r7, r8, pc}
 1658              	.LVL168:
 1659              	.L102:
ARM GAS  C:\Users\chemi\AppData\Local\Temp\ccFrP3K3.s 			page 44


 1660 0172 00BF     		.align	2
 1661              	.L101:
 1662 0174 00000000 		.word	min_ctx
 1663 0178 00000000 		.word	min_time
 1664 017c BA010000 		.word	.LC20
 1665 0180 02020000 		.word	.LC21
 1666 0184 22020000 		.word	.LC22
 1667 0188 42020000 		.word	.LC23
 1668 018c 62020000 		.word	.LC24
 1669 0190 82020000 		.word	.LC25
 1670 0194 A1020000 		.word	.LC26
 1671 0198 C0020000 		.word	.LC27
 1672 019c 00000000 		.word	l_time
 1673 01a0 DF020000 		.word	.LC28
 1674 01a4 FE020000 		.word	.LC29
 1675 01a8 1D030000 		.word	.LC30
 1676              		.cfi_endproc
 1677              	.LFE84:
 1678              		.size	con_minstat, .-con_minstat
 1679              		.section	.text.CMD_con,"ax",%progbits
 1680              		.align	1
 1681              		.global	CMD_con
 1682              		.thumb
 1683              		.thumb_func
 1684              		.type	CMD_con, %function
 1685              	CMD_con:
 1686              	.LFB85:
 583:..\common\ud3core/cli_common.c **** 
 584:..\common\ud3core/cli_common.c **** /*****************************************************************************
 585:..\common\ud3core/cli_common.c **** * Prints the ethernet connections
 586:..\common\ud3core/cli_common.c **** ******************************************************************************/
 587:..\common\ud3core/cli_common.c **** uint8_t CMD_con(TERMINAL_HANDLE * handle, uint8_t argCount, char ** args) {
 1687              		.loc 1 587 0
 1688              		.cfi_startproc
 1689              		@ args = 0, pretend = 0, frame = 0
 1690              		@ frame_needed = 0, uses_anonymous_args = 0
 1691              	.LVL169:
 1692 0000 38B5     		push	{r3, r4, r5, lr}
 1693              		.cfi_def_cfa_offset 16
 1694              		.cfi_offset 3, -16
 1695              		.cfi_offset 4, -12
 1696              		.cfi_offset 5, -8
 1697              		.cfi_offset 14, -4
 1698              		.loc 1 587 0
 1699 0002 0446     		mov	r4, r0
 588:..\common\ud3core/cli_common.c ****     if(argCount==0 || strcmp(args[0], "-?") == 0){
 1700              		.loc 1 588 0
 1701 0004 29B1     		cbz	r1, .L104
 1702              		.loc 1 588 0 is_stmt 0 discriminator 1
 1703 0006 1568     		ldr	r5, [r2]
 1704 0008 1249     		ldr	r1, .L112
 1705              	.LVL170:
 1706 000a 2846     		mov	r0, r5
 1707              	.LVL171:
 1708 000c FFF7FEFF 		bl	strcmp
 1709              	.LVL172:
 1710 0010 20B9     		cbnz	r0, .L105
ARM GAS  C:\Users\chemi\AppData\Local\Temp\ccFrP3K3.s 			page 45


 1711              	.L104:
 589:..\common\ud3core/cli_common.c ****         ttprintf("con [info|numcon|min]\r\n");
 1712              		.loc 1 589 0 is_stmt 1
 1713 0012 636A     		ldr	r3, [r4, #36]
 1714 0014 1049     		ldr	r1, .L112+4
 1715 0016 6068     		ldr	r0, [r4, #4]
 1716 0018 9847     		blx	r3
 1717              	.LVL173:
 590:..\common\ud3core/cli_common.c ****         return TERM_CMD_EXIT_SUCCESS;
 1718              		.loc 1 590 0
 1719 001a 19E0     		b	.L106
 1720              	.L105:
 591:..\common\ud3core/cli_common.c ****     }
 592:..\common\ud3core/cli_common.c **** 
 593:..\common\ud3core/cli_common.c ****     if(strcmp(args[0], "info") == 0){
 1721              		.loc 1 593 0
 1722 001c 0F49     		ldr	r1, .L112+8
 1723 001e 2846     		mov	r0, r5
 1724 0020 FFF7FEFF 		bl	strcmp
 1725              	.LVL174:
 1726 0024 18B9     		cbnz	r0, .L107
 594:..\common\ud3core/cli_common.c ****         con_info(handle);
 1727              		.loc 1 594 0
 1728 0026 2046     		mov	r0, r4
 1729 0028 FFF7FEFF 		bl	con_info
 1730              	.LVL175:
 595:..\common\ud3core/cli_common.c ****         return TERM_CMD_EXIT_SUCCESS;
 1731              		.loc 1 595 0
 1732 002c 10E0     		b	.L106
 1733              	.L107:
 596:..\common\ud3core/cli_common.c ****     }
 597:..\common\ud3core/cli_common.c **** 
 598:..\common\ud3core/cli_common.c ****     if(strcmp(args[0], "numcon") == 0){
 1734              		.loc 1 598 0
 1735 002e 0C49     		ldr	r1, .L112+12
 1736 0030 2846     		mov	r0, r5
 1737 0032 FFF7FEFF 		bl	strcmp
 1738              	.LVL176:
 1739 0036 18B9     		cbnz	r0, .L108
 599:..\common\ud3core/cli_common.c ****         con_numcon(handle);
 1740              		.loc 1 599 0
 1741 0038 2046     		mov	r0, r4
 1742 003a FFF7FEFF 		bl	con_numcon
 1743              	.LVL177:
 600:..\common\ud3core/cli_common.c ****         return TERM_CMD_EXIT_SUCCESS;
 1744              		.loc 1 600 0
 1745 003e 07E0     		b	.L106
 1746              	.L108:
 601:..\common\ud3core/cli_common.c ****     }
 602:..\common\ud3core/cli_common.c **** 
 603:..\common\ud3core/cli_common.c ****     if(strcmp(args[0], "min") == 0){
 1747              		.loc 1 603 0
 1748 0040 0849     		ldr	r1, .L112+16
 1749 0042 2846     		mov	r0, r5
 1750 0044 FFF7FEFF 		bl	strcmp
 1751              	.LVL178:
 1752 0048 10B9     		cbnz	r0, .L106
ARM GAS  C:\Users\chemi\AppData\Local\Temp\ccFrP3K3.s 			page 46


 604:..\common\ud3core/cli_common.c ****         con_minstat(handle);
 1753              		.loc 1 604 0
 1754 004a 2046     		mov	r0, r4
 1755 004c FFF7FEFF 		bl	con_minstat
 1756              	.LVL179:
 1757              	.L106:
 605:..\common\ud3core/cli_common.c ****         return TERM_CMD_EXIT_SUCCESS;
 606:..\common\ud3core/cli_common.c ****     }
 607:..\common\ud3core/cli_common.c ****     return TERM_CMD_EXIT_SUCCESS;
 608:..\common\ud3core/cli_common.c **** }
 1758              		.loc 1 608 0
 1759 0050 FF20     		movs	r0, #255
 1760 0052 38BD     		pop	{r3, r4, r5, pc}
 1761              	.LVL180:
 1762              	.L113:
 1763              		.align	2
 1764              	.L112:
 1765 0054 3C030000 		.word	.LC31
 1766 0058 3F030000 		.word	.LC32
 1767 005c 57030000 		.word	.LC33
 1768 0060 5C030000 		.word	.LC34
 1769 0064 63030000 		.word	.LC35
 1770              		.cfi_endproc
 1771              	.LFE85:
 1772              		.size	CMD_con, .-CMD_con
 1773              		.global	__aeabi_d2f
 1774              		.global	__aeabi_fmul
 1775              		.section	.text.CMD_calib,"ax",%progbits
 1776              		.align	1
 1777              		.global	CMD_calib
 1778              		.thumb
 1779              		.thumb_func
 1780              		.type	CMD_calib, %function
 1781              	CMD_calib:
 1782              	.LFB86:
 609:..\common\ud3core/cli_common.c **** 
 610:..\common\ud3core/cli_common.c **** /*****************************************************************************
 611:..\common\ud3core/cli_common.c **** * Calibrate Vdriver
 612:..\common\ud3core/cli_common.c **** ******************************************************************************/
 613:..\common\ud3core/cli_common.c **** uint8_t CMD_calib(TERMINAL_HANDLE * handle, uint8_t argCount, char ** args) {
 1783              		.loc 1 613 0
 1784              		.cfi_startproc
 1785              		@ args = 0, pretend = 0, frame = 0
 1786              		@ frame_needed = 0, uses_anonymous_args = 0
 1787              	.LVL181:
 1788 0000 2DE9F041 		push	{r4, r5, r6, r7, r8, lr}
 1789              		.cfi_def_cfa_offset 24
 1790              		.cfi_offset 4, -24
 1791              		.cfi_offset 5, -20
 1792              		.cfi_offset 6, -16
 1793              		.cfi_offset 7, -12
 1794              		.cfi_offset 8, -8
 1795              		.cfi_offset 14, -4
 1796              		.loc 1 613 0
 1797 0004 0446     		mov	r4, r0
 614:..\common\ud3core/cli_common.c ****     
 615:..\common\ud3core/cli_common.c ****     #define NUM_CALIB_SAMPLES 16    
ARM GAS  C:\Users\chemi\AppData\Local\Temp\ccFrP3K3.s 			page 47


 616:..\common\ud3core/cli_common.c ****     
 617:..\common\ud3core/cli_common.c ****     if(argCount==0 || strcmp(args[0], "-?") == 0){
 1798              		.loc 1 617 0
 1799 0006 29B1     		cbz	r1, .L115
 1800              		.loc 1 617 0 is_stmt 0 discriminator 1
 1801 0008 1568     		ldr	r5, [r2]
 1802 000a 2A49     		ldr	r1, .L125
 1803              	.LVL182:
 1804 000c 2846     		mov	r0, r5
 1805              	.LVL183:
 1806 000e FFF7FEFF 		bl	strcmp
 1807              	.LVL184:
 1808 0012 20B9     		cbnz	r0, .L116
 1809              	.L115:
 618:..\common\ud3core/cli_common.c ****         ttprintf("calib [measured voltage]\r\n");
 1810              		.loc 1 618 0 is_stmt 1
 1811 0014 636A     		ldr	r3, [r4, #36]
 1812 0016 2849     		ldr	r1, .L125+4
 1813 0018 6068     		ldr	r0, [r4, #4]
 1814 001a 9847     		blx	r3
 1815              	.LVL185:
 619:..\common\ud3core/cli_common.c ****         return TERM_CMD_EXIT_SUCCESS;
 1816              		.loc 1 619 0
 1817 001c 47E0     		b	.L117
 1818              	.L116:
 620:..\common\ud3core/cli_common.c ****     }
 621:..\common\ud3core/cli_common.c **** 
 622:..\common\ud3core/cli_common.c ****     float voltage = atof(args[0]);
 1819              		.loc 1 622 0
 1820 001e 2846     		mov	r0, r5
 1821 0020 FFF7FEFF 		bl	atof
 1822              	.LVL186:
 1823 0024 FFF7FEFF 		bl	__aeabi_d2f
 1824              	.LVL187:
 1825 0028 8046     		mov	r8, r0
 1826              	.LVL188:
 623:..\common\ud3core/cli_common.c ****     tsk_analog_recalc_drive_top(1.0f);
 1827              		.loc 1 623 0
 1828 002a 4FF07E50 		mov	r0, #1065353216
 1829              	.LVL189:
 1830 002e FFF7FEFF 		bl	tsk_analog_recalc_drive_top
 1831              	.LVL190:
 624:..\common\ud3core/cli_common.c ****     
 625:..\common\ud3core/cli_common.c ****     ttprintf("Collecting samples for %f drive Voltage ...\r\n", voltage);
 1832              		.loc 1 625 0
 1833 0032 4046     		mov	r0, r8
 1834 0034 FFF7FEFF 		bl	__aeabi_f2d
 1835              	.LVL191:
 1836 0038 656A     		ldr	r5, [r4, #36]
 1837 003a 0246     		mov	r2, r0
 1838 003c 0B46     		mov	r3, r1
 1839 003e 6068     		ldr	r0, [r4, #4]
 1840 0040 1E49     		ldr	r1, .L125+8
 1841 0042 A847     		blx	r5
 1842              	.LVL192:
 626:..\common\ud3core/cli_common.c ****     Term_check_break(handle,100);
 1843              		.loc 1 626 0
ARM GAS  C:\Users\chemi\AppData\Local\Temp\ccFrP3K3.s 			page 48


 1844 0044 6421     		movs	r1, #100
 1845 0046 2046     		mov	r0, r4
 1846 0048 FFF7FEFF 		bl	Term_check_break
 1847              	.LVL193:
 627:..\common\ud3core/cli_common.c ****     
 628:..\common\ud3core/cli_common.c ****     
 629:..\common\ud3core/cli_common.c ****     uint32_t i=NUM_CALIB_SAMPLES;
 630:..\common\ud3core/cli_common.c ****     
 631:..\common\ud3core/cli_common.c ****     uint32_t accu = 0;
 1848              		.loc 1 631 0
 1849 004c 0026     		movs	r6, #0
 629:..\common\ud3core/cli_common.c ****     
 1850              		.loc 1 629 0
 1851 004e 1025     		movs	r5, #16
 1852              	.LVL194:
 1853              	.L120:
 1854              	.LBB14:
 632:..\common\ud3core/cli_common.c ****     
 633:..\common\ud3core/cli_common.c ****     while(i){
 634:..\common\ud3core/cli_common.c ****         uint32_t sample = read_driver_mv();
 1855              		.loc 1 634 0
 1856 0050 FFF7FEFF 		bl	read_driver_mv
 1857              	.LVL195:
 635:..\common\ud3core/cli_common.c ****         accu += sample;
 636:..\common\ud3core/cli_common.c ****         ttprintf("Sample %u: %u mv\r\n", i, sample); 
 1858              		.loc 1 636 0
 1859 0054 1A49     		ldr	r1, .L125+12
 634:..\common\ud3core/cli_common.c ****         accu += sample;
 1860              		.loc 1 634 0
 1861 0056 0346     		mov	r3, r0
 1862              	.LVL196:
 635:..\common\ud3core/cli_common.c ****         accu += sample;
 1863              		.loc 1 635 0
 1864 0058 0644     		add	r6, r6, r0
 1865              	.LVL197:
 1866              		.loc 1 636 0
 1867 005a 676A     		ldr	r7, [r4, #36]
 1868 005c 2A46     		mov	r2, r5
 1869 005e 6068     		ldr	r0, [r4, #4]
 1870              	.LVL198:
 1871 0060 B847     		blx	r7
 1872              	.LVL199:
 637:..\common\ud3core/cli_common.c ****         
 638:..\common\ud3core/cli_common.c ****         if(Term_check_break(handle,100) == pdFALSE){
 1873              		.loc 1 638 0
 1874 0062 6421     		movs	r1, #100
 1875 0064 2046     		mov	r0, r4
 1876 0066 FFF7FEFF 		bl	Term_check_break
 1877              	.LVL200:
 1878 006a 20B9     		cbnz	r0, .L118
 639:..\common\ud3core/cli_common.c ****             ttprintf("Canceled by user\r\n");
 1879              		.loc 1 639 0
 1880 006c 636A     		ldr	r3, [r4, #36]
 1881 006e 1549     		ldr	r1, .L125+16
 1882 0070 6068     		ldr	r0, [r4, #4]
 1883 0072 9847     		blx	r3
 1884              	.LVL201:
ARM GAS  C:\Users\chemi\AppData\Local\Temp\ccFrP3K3.s 			page 49


 640:..\common\ud3core/cli_common.c ****             goto abort;
 1885              		.loc 1 640 0
 1886 0074 17E0     		b	.L119
 1887              	.L118:
 1888              	.LVL202:
 1889              	.LBE14:
 633:..\common\ud3core/cli_common.c ****         uint32_t sample = read_driver_mv();
 1890              		.loc 1 633 0
 1891 0076 013D     		subs	r5, r5, #1
 1892              	.LVL203:
 1893 0078 EAD1     		bne	.L120
 1894              	.LVL204:
 641:..\common\ud3core/cli_common.c ****         }
 642:..\common\ud3core/cli_common.c ****         i--;
 643:..\common\ud3core/cli_common.c ****     }
 644:..\common\ud3core/cli_common.c ****     
 645:..\common\ud3core/cli_common.c ****     accu = accu / NUM_CALIB_SAMPLES;
 646:..\common\ud3core/cli_common.c ****     
 647:..\common\ud3core/cli_common.c ****     configuration.drive_factor =  voltage * 1000.0f / (float)accu;
 1895              		.loc 1 647 0
 1896 007a 1349     		ldr	r1, .L125+20
 1897 007c 4046     		mov	r0, r8
 1898 007e FFF7FEFF 		bl	__aeabi_fmul
 1899              	.LVL205:
 1900 0082 0546     		mov	r5, r0
 1901              	.LVL206:
 1902 0084 3009     		lsrs	r0, r6, #4
 1903              	.LVL207:
 1904 0086 FFF7FEFF 		bl	__aeabi_ui2f
 1905              	.LVL208:
 1906 008a 0146     		mov	r1, r0
 1907 008c 2846     		mov	r0, r5
 1908 008e FFF7FEFF 		bl	__aeabi_fdiv
 1909              	.LVL209:
 1910 0092 0E4B     		ldr	r3, .L125+24
 1911 0094 9867     		str	r0, [r3, #120]	@ float
 648:..\common\ud3core/cli_common.c ****     
 649:..\common\ud3core/cli_common.c ****     ttprintf ("New factor: %f\r\n", configuration.drive_factor);
 1912              		.loc 1 649 0
 1913 0096 FFF7FEFF 		bl	__aeabi_f2d
 1914              	.LVL210:
 1915 009a 656A     		ldr	r5, [r4, #36]
 1916 009c 0246     		mov	r2, r0
 1917 009e 0B46     		mov	r3, r1
 1918 00a0 6068     		ldr	r0, [r4, #4]
 1919 00a2 0B49     		ldr	r1, .L125+28
 1920 00a4 A847     		blx	r5
 1921              	.LVL211:
 1922              	.L119:
 650:..\common\ud3core/cli_common.c ****     
 651:..\common\ud3core/cli_common.c ****     abort:
 652:..\common\ud3core/cli_common.c ****     
 653:..\common\ud3core/cli_common.c ****     tsk_analog_recalc_drive_top(configuration.drive_factor);
 1923              		.loc 1 653 0
 1924 00a6 094B     		ldr	r3, .L125+24
 1925 00a8 986F     		ldr	r0, [r3, #120]	@ float
 1926 00aa FFF7FEFF 		bl	tsk_analog_recalc_drive_top
ARM GAS  C:\Users\chemi\AppData\Local\Temp\ccFrP3K3.s 			page 50


 1927              	.LVL212:
 1928              	.L117:
 654:..\common\ud3core/cli_common.c ****     
 655:..\common\ud3core/cli_common.c ****     return TERM_CMD_EXIT_SUCCESS;
 656:..\common\ud3core/cli_common.c **** }
 1929              		.loc 1 656 0
 1930 00ae FF20     		movs	r0, #255
 1931 00b0 BDE8F081 		pop	{r4, r5, r6, r7, r8, pc}
 1932              	.LVL213:
 1933              	.L126:
 1934              		.align	2
 1935              	.L125:
 1936 00b4 3C030000 		.word	.LC31
 1937 00b8 67030000 		.word	.LC36
 1938 00bc 82030000 		.word	.LC37
 1939 00c0 B0030000 		.word	.LC38
 1940 00c4 C3030000 		.word	.LC39
 1941 00c8 00007A44 		.word	1148846080
 1942 00cc 00000000 		.word	configuration
 1943 00d0 D6030000 		.word	.LC40
 1944              		.cfi_endproc
 1945              	.LFE86:
 1946              		.size	CMD_calib, .-CMD_calib
 1947              		.section	.text.CMD_features,"ax",%progbits
 1948              		.align	1
 1949              		.global	CMD_features
 1950              		.thumb
 1951              		.thumb_func
 1952              		.type	CMD_features, %function
 1953              	CMD_features:
 1954              	.LFB87:
 657:..\common\ud3core/cli_common.c **** 
 658:..\common\ud3core/cli_common.c **** /*****************************************************************************
 659:..\common\ud3core/cli_common.c **** * Sends the features to teslaterm
 660:..\common\ud3core/cli_common.c **** ******************************************************************************/
 661:..\common\ud3core/cli_common.c **** uint8_t CMD_features(TERMINAL_HANDLE * handle, uint8_t argCount, char ** args) {
 1955              		.loc 1 661 0
 1956              		.cfi_startproc
 1957              		@ args = 0, pretend = 0, frame = 0
 1958              		@ frame_needed = 0, uses_anonymous_args = 0
 1959              	.LVL214:
 1960 0000 70B5     		push	{r4, r5, r6, lr}
 1961              		.cfi_def_cfa_offset 16
 1962              		.cfi_offset 4, -16
 1963              		.cfi_offset 5, -12
 1964              		.cfi_offset 6, -8
 1965              		.cfi_offset 14, -4
 1966              		.loc 1 661 0
 1967 0002 0646     		mov	r6, r0
 1968              	.LBB15:
 662:..\common\ud3core/cli_common.c **** 	for (uint8_t i = 0; i < sizeof(version)/sizeof(char*); i++) {
 663:..\common\ud3core/cli_common.c ****        send_features(version[i],handle); 
 1969              		.loc 1 663 0
 1970 0004 054D     		ldr	r5, .L130
 1971              	.LBE15:
 661:..\common\ud3core/cli_common.c **** 	for (uint8_t i = 0; i < sizeof(version)/sizeof(char*); i++) {
 1972              		.loc 1 661 0
ARM GAS  C:\Users\chemi\AppData\Local\Temp\ccFrP3K3.s 			page 51


 1973 0006 0024     		movs	r4, #0
 1974              	.LVL215:
 1975              	.L128:
 1976              	.LBB16:
 1977              		.loc 1 663 0 discriminator 3
 1978 0008 55F82400 		ldr	r0, [r5, r4, lsl #2]
 1979 000c 3146     		mov	r1, r6
 1980 000e 0134     		adds	r4, r4, #1
 1981              	.LVL216:
 1982 0010 FFF7FEFF 		bl	send_features
 1983              	.LVL217:
 662:..\common\ud3core/cli_common.c **** 	for (uint8_t i = 0; i < sizeof(version)/sizeof(char*); i++) {
 1984              		.loc 1 662 0 discriminator 3
 1985 0014 062C     		cmp	r4, #6
 1986 0016 F7D1     		bne	.L128
 1987              	.LBE16:
 664:..\common\ud3core/cli_common.c ****     }
 665:..\common\ud3core/cli_common.c ****     return TERM_CMD_EXIT_SUCCESS; 
 666:..\common\ud3core/cli_common.c **** }
 1988              		.loc 1 666 0
 1989 0018 FF20     		movs	r0, #255
 1990 001a 70BD     		pop	{r4, r5, r6, pc}
 1991              	.LVL218:
 1992              	.L131:
 1993              		.align	2
 1994              	.L130:
 1995 001c 00000000 		.word	.LANCHOR1
 1996              		.cfi_endproc
 1997              	.LFE87:
 1998              		.size	CMD_features, .-CMD_features
 1999              		.section	.text.CMD_config_get,"ax",%progbits
 2000              		.align	1
 2001              		.global	CMD_config_get
 2002              		.thumb
 2003              		.thumb_func
 2004              		.type	CMD_config_get, %function
 2005              	CMD_config_get:
 2006              	.LFB88:
 667:..\common\ud3core/cli_common.c **** 
 668:..\common\ud3core/cli_common.c **** /*****************************************************************************
 669:..\common\ud3core/cli_common.c **** * Sends the configuration to teslaterm
 670:..\common\ud3core/cli_common.c **** ******************************************************************************/
 671:..\common\ud3core/cli_common.c **** uint8_t CMD_config_get(TERMINAL_HANDLE * handle, uint8_t argCount, char ** args){
 2007              		.loc 1 671 0
 2008              		.cfi_startproc
 2009              		@ args = 0, pretend = 0, frame = 80
 2010              		@ frame_needed = 0, uses_anonymous_args = 0
 2011              	.LVL219:
 2012 0000 70B5     		push	{r4, r5, r6, lr}
 2013              		.cfi_def_cfa_offset 16
 2014              		.cfi_offset 4, -16
 2015              		.cfi_offset 5, -12
 2016              		.cfi_offset 6, -8
 2017              		.cfi_offset 14, -4
 2018 0002 0646     		mov	r6, r0
 2019 0004 104C     		ldr	r4, .L139
 2020 0006 94B0     		sub	sp, sp, #80
ARM GAS  C:\Users\chemi\AppData\Local\Temp\ccFrP3K3.s 			page 52


 2021              		.cfi_def_cfa_offset 96
 2022              		.loc 1 671 0
 2023 0008 0025     		movs	r5, #0
 2024              	.LVL220:
 2025              	.L134:
 2026              	.LBB17:
 672:..\common\ud3core/cli_common.c ****     char buffer[80];
 673:..\common\ud3core/cli_common.c **** 	for (uint8_t current_parameter = 0; current_parameter < sizeof(confparam) / sizeof(parameter_entry
 674:..\common\ud3core/cli_common.c ****         if(confparam[current_parameter].parameter_type == PARAM_CONFIG  && confparam[current_parame
 2027              		.loc 1 674 0
 2028 000a 14F8013C 		ldrb	r3, [r4, #-1]	@ zero_extendqisi2
 2029 000e EAB2     		uxtb	r2, r5
 2030              	.LVL221:
 2031 0010 012B     		cmp	r3, #1
 2032 0012 0BD1     		bne	.L133
 2033              		.loc 1 674 0 is_stmt 0 discriminator 1
 2034 0014 2378     		ldrb	r3, [r4]	@ zero_extendqisi2
 2035 0016 4BB1     		cbz	r3, .L133
 675:..\common\ud3core/cli_common.c ****             print_param_buffer(buffer, confparam, current_parameter);
 2036              		.loc 1 675 0 is_stmt 1
 2037 0018 0C49     		ldr	r1, .L139+4
 2038 001a 6846     		mov	r0, sp
 2039 001c FFF7FEFF 		bl	print_param_buffer
 2040              	.LVL222:
 676:..\common\ud3core/cli_common.c ****             send_config(buffer,confparam[current_parameter].help, handle);
 2041              		.loc 1 676 0
 2042 0020 3246     		mov	r2, r6
 2043 0022 D4F81F10 		ldr	r1, [r4, #31]
 2044 0026 6846     		mov	r0, sp
 2045 0028 FFF7FEFF 		bl	send_config
 2046              	.LVL223:
 2047              	.L133:
 2048 002c 0135     		adds	r5, r5, #1
 2049              	.LVL224:
 673:..\common\ud3core/cli_common.c ****         if(confparam[current_parameter].parameter_type == PARAM_CONFIG  && confparam[current_parame
 2050              		.loc 1 673 0 discriminator 2
 2051 002e 502D     		cmp	r5, #80
 2052 0030 04F12404 		add	r4, r4, #36
 2053 0034 E9D1     		bne	.L134
 2054              	.LBE17:
 677:..\common\ud3core/cli_common.c ****         }
 678:..\common\ud3core/cli_common.c ****     }
 679:..\common\ud3core/cli_common.c ****     send_config("NULL","NULL", handle);
 2055              		.loc 1 679 0
 2056 0036 0649     		ldr	r1, .L139+8
 2057 0038 3246     		mov	r2, r6
 2058 003a 0846     		mov	r0, r1
 2059 003c FFF7FEFF 		bl	send_config
 2060              	.LVL225:
 680:..\common\ud3core/cli_common.c ****     return TERM_CMD_EXIT_SUCCESS; 
 681:..\common\ud3core/cli_common.c **** }
 2061              		.loc 1 681 0
 2062 0040 FF20     		movs	r0, #255
 2063 0042 14B0     		add	sp, sp, #80
 2064              		.cfi_def_cfa_offset 16
 2065              		@ sp needed
 2066 0044 70BD     		pop	{r4, r5, r6, pc}
ARM GAS  C:\Users\chemi\AppData\Local\Temp\ccFrP3K3.s 			page 53


 2067              	.LVL226:
 2068              	.L140:
 2069 0046 00BF     		.align	2
 2070              	.L139:
 2071 0048 01000000 		.word	.LANCHOR0+1
 2072 004c 00000000 		.word	.LANCHOR0
 2073 0050 E7030000 		.word	.LC41
 2074              		.cfi_endproc
 2075              	.LFE88:
 2076              		.size	CMD_config_get, .-CMD_config_get
 2077              		.section	.text.CMD_bootloader,"ax",%progbits
 2078              		.align	1
 2079              		.global	CMD_bootloader
 2080              		.thumb
 2081              		.thumb_func
 2082              		.type	CMD_bootloader, %function
 2083              	CMD_bootloader:
 2084              	.LFB89:
 682:..\common\ud3core/cli_common.c **** 
 683:..\common\ud3core/cli_common.c **** /*****************************************************************************
 684:..\common\ud3core/cli_common.c **** * Kicks the controller into the bootloader
 685:..\common\ud3core/cli_common.c **** ******************************************************************************/
 686:..\common\ud3core/cli_common.c **** uint8_t CMD_bootloader(TERMINAL_HANDLE * handle, uint8_t argCount, char ** args){
 2085              		.loc 1 686 0
 2086              		.cfi_startproc
 2087              		@ args = 0, pretend = 0, frame = 0
 2088              		@ frame_needed = 0, uses_anonymous_args = 0
 2089              	.LVL227:
 2090 0000 08B5     		push	{r3, lr}
 2091              		.cfi_def_cfa_offset 8
 2092              		.cfi_offset 3, -8
 2093              		.cfi_offset 14, -4
 687:..\common\ud3core/cli_common.c **** #if USE_BOOTLOADER
 688:..\common\ud3core/cli_common.c ****     Bootloadable_Load();
 2094              		.loc 1 688 0
 2095 0002 FFF7FEFF 		bl	Bootloadable_Load
 2096              	.LVL228:
 689:..\common\ud3core/cli_common.c **** #endif
 690:..\common\ud3core/cli_common.c **** 	return TERM_CMD_EXIT_SUCCESS;
 691:..\common\ud3core/cli_common.c **** }
 2097              		.loc 1 691 0
 2098 0006 FF20     		movs	r0, #255
 2099 0008 08BD     		pop	{r3, pc}
 2100              		.cfi_endproc
 2101              	.LFE89:
 2102              		.size	CMD_bootloader, .-CMD_bootloader
 2103              		.section	.text.CMD_udkill,"ax",%progbits
 2104              		.align	1
 2105              		.global	CMD_udkill
 2106              		.thumb
 2107              		.thumb_func
 2108              		.type	CMD_udkill, %function
 2109              	CMD_udkill:
 2110              	.LFB90:
 692:..\common\ud3core/cli_common.c **** 
 693:..\common\ud3core/cli_common.c **** 
 694:..\common\ud3core/cli_common.c **** /*****************************************************************************
ARM GAS  C:\Users\chemi\AppData\Local\Temp\ccFrP3K3.s 			page 54


 695:..\common\ud3core/cli_common.c **** * sets the kill bit, stops the interrupter and switches the bus off
 696:..\common\ud3core/cli_common.c **** ******************************************************************************/
 697:..\common\ud3core/cli_common.c **** uint8_t CMD_udkill(TERMINAL_HANDLE * handle, uint8_t argCount, char ** args) {
 2111              		.loc 1 697 0
 2112              		.cfi_startproc
 2113              		@ args = 0, pretend = 0, frame = 0
 2114              		@ frame_needed = 0, uses_anonymous_args = 0
 2115              	.LVL229:
 2116 0000 70B5     		push	{r4, r5, r6, lr}
 2117              		.cfi_def_cfa_offset 16
 2118              		.cfi_offset 4, -16
 2119              		.cfi_offset 5, -12
 2120              		.cfi_offset 6, -8
 2121              		.cfi_offset 14, -4
 2122              		.loc 1 697 0
 2123 0002 0446     		mov	r4, r0
 698:..\common\ud3core/cli_common.c ****     
 699:..\common\ud3core/cli_common.c ****     if(argCount==0 || strcmp(args[0], "-?") == 0){
 2124              		.loc 1 699 0
 2125 0004 29B1     		cbz	r1, .L143
 2126              		.loc 1 699 0 is_stmt 0 discriminator 1
 2127 0006 1568     		ldr	r5, [r2]
 2128 0008 2E49     		ldr	r1, .L153
 2129              	.LVL230:
 2130 000a 2846     		mov	r0, r5
 2131              	.LVL231:
 2132 000c FFF7FEFF 		bl	strcmp
 2133              	.LVL232:
 2134 0010 20B9     		cbnz	r0, .L144
 2135              	.L143:
 700:..\common\ud3core/cli_common.c ****         ttprintf("Usage: kill [set|reset|get]\r\n");
 2136              		.loc 1 700 0 is_stmt 1
 2137 0012 636A     		ldr	r3, [r4, #36]
 2138 0014 2C49     		ldr	r1, .L153+4
 2139 0016 6068     		ldr	r0, [r4, #4]
 2140 0018 9847     		blx	r3
 2141              	.LVL233:
 701:..\common\ud3core/cli_common.c ****         return TERM_CMD_EXIT_SUCCESS;
 2142              		.loc 1 701 0
 2143 001a 51E0     		b	.L145
 2144              	.L144:
 702:..\common\ud3core/cli_common.c ****     }
 703:..\common\ud3core/cli_common.c ****     
 704:..\common\ud3core/cli_common.c ****     if(strcmp(args[0], "set") == 0){
 2145              		.loc 1 704 0
 2146 001c 2B49     		ldr	r1, .L153+8
 2147 001e 2846     		mov	r0, r5
 2148 0020 FFF7FEFF 		bl	strcmp
 2149              	.LVL234:
 2150 0024 0646     		mov	r6, r0
 2151 0026 C8B9     		cbnz	r0, .L146
 705:..\common\ud3core/cli_common.c ****         interrupter_kill();
 2152              		.loc 1 705 0
 2153 0028 FFF7FEFF 		bl	interrupter_kill
 2154              	.LVL235:
 706:..\common\ud3core/cli_common.c ****     	tsk_midi_kill();
 2155              		.loc 1 706 0
ARM GAS  C:\Users\chemi\AppData\Local\Temp\ccFrP3K3.s 			page 55


 2156 002c FFF7FEFF 		bl	tsk_midi_kill
 2157              	.LVL236:
 707:..\common\ud3core/cli_common.c ****     	bus_command = BUS_COMMAND_OFF;
 2158              		.loc 1 707 0
 2159 0030 274B     		ldr	r3, .L153+12
 2160 0032 1E70     		strb	r6, [r3]
 708:..\common\ud3core/cli_common.c ****         
 709:..\common\ud3core/cli_common.c ****         QCW_delete_timer();
 2161              		.loc 1 709 0
 2162 0034 FFF7FEFF 		bl	QCW_delete_timer
 2163              	.LVL237:
 710:..\common\ud3core/cli_common.c ****         
 711:..\common\ud3core/cli_common.c ****     	interrupter1_control_Control = 0;
 2164              		.loc 1 711 0
 2165 0038 264B     		ldr	r3, .L153+16
 712:..\common\ud3core/cli_common.c ****     	QCW_enable_Control = 0;
 713:..\common\ud3core/cli_common.c ****     	TERM_sendVT100Code(handle, _VT100_FOREGROUND_COLOR, _VT100_GREEN);
 2166              		.loc 1 713 0
 2167 003a 0222     		movs	r2, #2
 2168 003c 1146     		mov	r1, r2
 711:..\common\ud3core/cli_common.c ****     	QCW_enable_Control = 0;
 2169              		.loc 1 711 0
 2170 003e 1E70     		strb	r6, [r3]
 2171              		.loc 1 713 0
 2172 0040 2046     		mov	r0, r4
 712:..\common\ud3core/cli_common.c ****     	QCW_enable_Control = 0;
 2173              		.loc 1 712 0
 2174 0042 03F8046C 		strb	r6, [r3, #-4]
 2175              		.loc 1 713 0
 2176 0046 FFF7FEFF 		bl	TERM_sendVT100Code
 2177              	.LVL238:
 714:..\common\ud3core/cli_common.c ****     	ttprintf("Killbit set\r\n");
 2178              		.loc 1 714 0
 2179 004a 2349     		ldr	r1, .L153+20
 2180 004c 636A     		ldr	r3, [r4, #36]
 2181 004e 6068     		ldr	r0, [r4, #4]
 2182 0050 9847     		blx	r3
 2183              	.LVL239:
 715:..\common\ud3core/cli_common.c ****         alarm_push(ALM_PRIO_CRITICAL, "FAULT: Killbit set", ALM_NO_VALUE);
 2184              		.loc 1 715 0
 2185 0052 4FF00042 		mov	r2, #-2147483648
 2186 0056 2149     		ldr	r1, .L153+24
 2187 0058 0320     		movs	r0, #3
 2188 005a 19E0     		b	.L152
 2189              	.L146:
 716:..\common\ud3core/cli_common.c ****     	TERM_sendVT100Code(handle, _VT100_FOREGROUND_COLOR, _VT100_WHITE);
 717:..\common\ud3core/cli_common.c ****         return TERM_CMD_EXIT_SUCCESS;
 718:..\common\ud3core/cli_common.c ****     }else if(strcmp(args[0], "reset") == 0){
 2190              		.loc 1 718 0
 2191 005c 2049     		ldr	r1, .L153+28
 2192 005e 2846     		mov	r0, r5
 2193 0060 FFF7FEFF 		bl	strcmp
 2194              	.LVL240:
 2195 0064 0646     		mov	r6, r0
 2196 0066 B0B9     		cbnz	r0, .L147
 719:..\common\ud3core/cli_common.c ****         interrupter_unkill();
 2197              		.loc 1 719 0
ARM GAS  C:\Users\chemi\AppData\Local\Temp\ccFrP3K3.s 			page 56


 2198 0068 FFF7FEFF 		bl	interrupter_unkill
 2199              	.LVL241:
 720:..\common\ud3core/cli_common.c ****         reset_fault();
 2200              		.loc 1 720 0
 2201 006c FFF7FEFF 		bl	reset_fault
 2202              	.LVL242:
 721:..\common\ud3core/cli_common.c ****         sysflt_clr(pdTRUE); 
 2203              		.loc 1 721 0
 2204 0070 0120     		movs	r0, #1
 2205 0072 FFF7FEFF 		bl	sysflt_clr
 2206              	.LVL243:
 722:..\common\ud3core/cli_common.c ****         TERM_sendVT100Code(handle, _VT100_FOREGROUND_COLOR, _VT100_GREEN);
 2207              		.loc 1 722 0
 2208 0076 0222     		movs	r2, #2
 2209 0078 1146     		mov	r1, r2
 2210 007a 2046     		mov	r0, r4
 2211 007c FFF7FEFF 		bl	TERM_sendVT100Code
 2212              	.LVL244:
 723:..\common\ud3core/cli_common.c ****     	ttprintf("Killbit reset\r\n");
 2213              		.loc 1 723 0
 2214 0080 1849     		ldr	r1, .L153+32
 2215 0082 636A     		ldr	r3, [r4, #36]
 2216 0084 6068     		ldr	r0, [r4, #4]
 2217 0086 9847     		blx	r3
 2218              	.LVL245:
 724:..\common\ud3core/cli_common.c ****         alarm_push(ALM_PRIO_INFO, "INFO: Killbit reset", ALM_NO_VALUE);
 2219              		.loc 1 724 0
 2220 0088 3046     		mov	r0, r6
 2221 008a 1749     		ldr	r1, .L153+36
 2222 008c 4FF00042 		mov	r2, #-2147483648
 2223              	.L152:
 2224 0090 FFF7FEFF 		bl	alarm_push
 2225              	.LVL246:
 2226 0094 0FE0     		b	.L151
 2227              	.L147:
 725:..\common\ud3core/cli_common.c ****     	TERM_sendVT100Code(handle, _VT100_FOREGROUND_COLOR, _VT100_WHITE);
 726:..\common\ud3core/cli_common.c ****         return TERM_CMD_EXIT_SUCCESS;
 727:..\common\ud3core/cli_common.c ****     }else if(strcmp(args[0], "get") == 0){
 2228              		.loc 1 727 0
 2229 0096 1549     		ldr	r1, .L153+40
 2230 0098 2846     		mov	r0, r5
 2231 009a FFF7FEFF 		bl	strcmp
 2232              	.LVL247:
 2233 009e 78B9     		cbnz	r0, .L145
 728:..\common\ud3core/cli_common.c ****         TERM_sendVT100Code(handle, _VT100_FOREGROUND_COLOR, _VT100_RED);
 2234              		.loc 1 728 0
 2235 00a0 0122     		movs	r2, #1
 2236 00a2 0221     		movs	r1, #2
 2237 00a4 2046     		mov	r0, r4
 2238 00a6 FFF7FEFF 		bl	TERM_sendVT100Code
 2239              	.LVL248:
 729:..\common\ud3core/cli_common.c ****         ttprintf("Killbit: %u\r\n",sysfault.interlock);
 2240              		.loc 1 729 0
 2241 00aa 114A     		ldr	r2, .L153+44
 2242 00ac 636A     		ldr	r3, [r4, #36]
 2243 00ae 127A     		ldrb	r2, [r2, #8]	@ zero_extendqisi2
 2244 00b0 1049     		ldr	r1, .L153+48
ARM GAS  C:\Users\chemi\AppData\Local\Temp\ccFrP3K3.s 			page 57


 2245 00b2 6068     		ldr	r0, [r4, #4]
 2246 00b4 9847     		blx	r3
 2247              	.LVL249:
 2248              	.L151:
 730:..\common\ud3core/cli_common.c ****         TERM_sendVT100Code(handle, _VT100_FOREGROUND_COLOR, _VT100_WHITE);;
 2249              		.loc 1 730 0
 2250 00b6 0722     		movs	r2, #7
 2251 00b8 0221     		movs	r1, #2
 2252 00ba 2046     		mov	r0, r4
 2253 00bc FFF7FEFF 		bl	TERM_sendVT100Code
 2254              	.LVL250:
 2255              	.L145:
 731:..\common\ud3core/cli_common.c ****         return TERM_CMD_EXIT_SUCCESS;
 732:..\common\ud3core/cli_common.c ****     }
 733:..\common\ud3core/cli_common.c ****     return TERM_CMD_EXIT_SUCCESS;
 734:..\common\ud3core/cli_common.c **** }
 2256              		.loc 1 734 0
 2257 00c0 FF20     		movs	r0, #255
 2258 00c2 70BD     		pop	{r4, r5, r6, pc}
 2259              	.LVL251:
 2260              	.L154:
 2261              		.align	2
 2262              	.L153:
 2263 00c4 3C030000 		.word	.LC31
 2264 00c8 EC030000 		.word	.LC42
 2265 00cc 0A040000 		.word	.LC43
 2266 00d0 00000000 		.word	bus_command
 2267 00d4 7D640040 		.word	1073767549
 2268 00d8 0E040000 		.word	.LC44
 2269 00dc 1C040000 		.word	.LC45
 2270 00e0 2F040000 		.word	.LC46
 2271 00e4 35040000 		.word	.LC47
 2272 00e8 45040000 		.word	.LC48
 2273 00ec 59040000 		.word	.LC49
 2274 00f0 00000000 		.word	sysfault
 2275 00f4 5D040000 		.word	.LC50
 2276              		.cfi_endproc
 2277              	.LFE90:
 2278              		.size	CMD_udkill, .-CMD_udkill
 2279              		.section	.text.CMD_get,"ax",%progbits
 2280              		.align	1
 2281              		.global	CMD_get
 2282              		.thumb
 2283              		.thumb_func
 2284              		.type	CMD_get, %function
 2285              	CMD_get:
 2286              	.LFB91:
 735:..\common\ud3core/cli_common.c **** 
 736:..\common\ud3core/cli_common.c **** 
 737:..\common\ud3core/cli_common.c **** /*****************************************************************************
 738:..\common\ud3core/cli_common.c **** * Get a value from a parameter or print all parameters
 739:..\common\ud3core/cli_common.c **** ******************************************************************************/
 740:..\common\ud3core/cli_common.c **** uint8_t CMD_get(TERMINAL_HANDLE * handle, uint8_t argCount, char ** args) {
 2287              		.loc 1 740 0
 2288              		.cfi_startproc
 2289              		@ args = 0, pretend = 0, frame = 0
 2290              		@ frame_needed = 0, uses_anonymous_args = 0
ARM GAS  C:\Users\chemi\AppData\Local\Temp\ccFrP3K3.s 			page 58


 2291              	.LVL252:
 2292 0000 2DE9F843 		push	{r3, r4, r5, r6, r7, r8, r9, lr}
 2293              		.cfi_def_cfa_offset 32
 2294              		.cfi_offset 3, -32
 2295              		.cfi_offset 4, -28
 2296              		.cfi_offset 5, -24
 2297              		.cfi_offset 6, -20
 2298              		.cfi_offset 7, -16
 2299              		.cfi_offset 8, -12
 2300              		.cfi_offset 9, -8
 2301              		.cfi_offset 14, -4
 2302              		.loc 1 740 0
 2303 0004 0446     		mov	r4, r0
 741:..\common\ud3core/cli_common.c ****     
 742:..\common\ud3core/cli_common.c ****     if(argCount==0){
 2304              		.loc 1 742 0
 2305 0006 29B9     		cbnz	r1, .L156
 743:..\common\ud3core/cli_common.c ****         print_param_help(confparam, PARAM_SIZE(confparam), handle);
 2306              		.loc 1 743 0
 2307 0008 0246     		mov	r2, r0
 2308              	.LVL253:
 2309 000a 5021     		movs	r1, #80
 2310              	.LVL254:
 2311 000c 1B48     		ldr	r0, .L163
 2312              	.LVL255:
 2313 000e FFF7FEFF 		bl	print_param_help
 2314              	.LVL256:
 2315 0012 09E0     		b	.L162
 2316              	.LVL257:
 2317              	.L156:
 744:..\common\ud3core/cli_common.c ****         return TERM_CMD_EXIT_SUCCESS;
 745:..\common\ud3core/cli_common.c ****     }
 746:..\common\ud3core/cli_common.c ****     
 747:..\common\ud3core/cli_common.c ****     if(strcmp(args[0], "-?") == 0){
 2318              		.loc 1 747 0
 2319 0014 1668     		ldr	r6, [r2]
 2320 0016 1A49     		ldr	r1, .L163+4
 2321              	.LVL258:
 2322 0018 3046     		mov	r0, r6
 2323              	.LVL259:
 2324 001a FFF7FEFF 		bl	strcmp
 2325              	.LVL260:
 2326 001e 30B9     		cbnz	r0, .L158
 748:..\common\ud3core/cli_common.c ****         ttprintf("Usage: get [parameter]\r\n");
 2327              		.loc 1 748 0
 2328 0020 636A     		ldr	r3, [r4, #36]
 2329 0022 1849     		ldr	r1, .L163+8
 2330 0024 6068     		ldr	r0, [r4, #4]
 2331 0026 9847     		blx	r3
 2332              	.LVL261:
 2333              	.L162:
 749:..\common\ud3core/cli_common.c ****         return TERM_CMD_EXIT_SUCCESS;
 2334              		.loc 1 749 0
 2335 0028 FF20     		movs	r0, #255
 2336 002a BDE8F883 		pop	{r3, r4, r5, r6, r7, r8, r9, pc}
 2337              	.LVL262:
 2338              	.L158:
ARM GAS  C:\Users\chemi\AppData\Local\Temp\ccFrP3K3.s 			page 59


 2339              	.LBB18:
 750:..\common\ud3core/cli_common.c ****     }
 751:..\common\ud3core/cli_common.c ****     
 752:..\common\ud3core/cli_common.c **** 	for (uint8_t current_parameter = 0; current_parameter < sizeof(confparam) / sizeof(parameter_entry
 753:..\common\ud3core/cli_common.c **** 		if (strcmp(args[0], confparam[current_parameter].name) == 0) {
 2340              		.loc 1 753 0
 2341 002e 134F     		ldr	r7, .L163
 2342              	.LBE18:
 2343 0030 0025     		movs	r5, #0
 2344              	.LBB19:
 2345 0032 4FF02408 		mov	r8, #36
 2346              	.L160:
 2347 0036 08FB0573 		mla	r3, r8, r5, r7
 2348 003a 3046     		mov	r0, r6
 2349 003c 5968     		ldr	r1, [r3, #4]
 2350 003e 5FFA85F9 		uxtb	r9, r5
 2351              	.LVL263:
 2352 0042 FFF7FEFF 		bl	strcmp
 2353              	.LVL264:
 2354 0046 28B9     		cbnz	r0, .L159
 754:..\common\ud3core/cli_common.c **** 			//Parameter found:
 755:..\common\ud3core/cli_common.c **** 			print_param(confparam,current_parameter,handle);
 2355              		.loc 1 755 0
 2356 0048 2246     		mov	r2, r4
 2357 004a 4946     		mov	r1, r9
 2358 004c 0B48     		ldr	r0, .L163
 2359 004e FFF7FEFF 		bl	print_param
 2360              	.LVL265:
 2361 0052 E9E7     		b	.L162
 2362              	.L159:
 2363              	.LVL266:
 2364 0054 0135     		adds	r5, r5, #1
 2365              	.LVL267:
 752:..\common\ud3core/cli_common.c **** 		if (strcmp(args[0], confparam[current_parameter].name) == 0) {
 2366              		.loc 1 752 0 discriminator 2
 2367 0056 502D     		cmp	r5, #80
 2368 0058 EDD1     		bne	.L160
 2369              	.LBE19:
 756:..\common\ud3core/cli_common.c **** 			return TERM_CMD_EXIT_SUCCESS;
 757:..\common\ud3core/cli_common.c **** 		}
 758:..\common\ud3core/cli_common.c **** 	}
 759:..\common\ud3core/cli_common.c **** 	TERM_sendVT100Code(handle, _VT100_FOREGROUND_COLOR, _VT100_RED);
 2370              		.loc 1 759 0
 2371 005a 0122     		movs	r2, #1
 2372 005c 2046     		mov	r0, r4
 2373 005e 0221     		movs	r1, #2
 2374 0060 FFF7FEFF 		bl	TERM_sendVT100Code
 2375              	.LVL268:
 760:..\common\ud3core/cli_common.c **** 	ttprintf("E: unknown param\r\n");
 2376              		.loc 1 760 0
 2377 0064 636A     		ldr	r3, [r4, #36]
 2378 0066 0849     		ldr	r1, .L163+12
 2379 0068 6068     		ldr	r0, [r4, #4]
 2380 006a 9847     		blx	r3
 2381              	.LVL269:
 761:..\common\ud3core/cli_common.c **** 	TERM_sendVT100Code(handle, _VT100_FOREGROUND_COLOR, _VT100_WHITE);
 2382              		.loc 1 761 0
ARM GAS  C:\Users\chemi\AppData\Local\Temp\ccFrP3K3.s 			page 60


 2383 006c 2046     		mov	r0, r4
 2384 006e 0722     		movs	r2, #7
 2385 0070 0221     		movs	r1, #2
 2386 0072 FFF7FEFF 		bl	TERM_sendVT100Code
 2387              	.LVL270:
 762:..\common\ud3core/cli_common.c **** 	return 0;
 2388              		.loc 1 762 0
 2389 0076 0020     		movs	r0, #0
 763:..\common\ud3core/cli_common.c **** }
 2390              		.loc 1 763 0
 2391 0078 BDE8F883 		pop	{r3, r4, r5, r6, r7, r8, r9, pc}
 2392              	.LVL271:
 2393              	.L164:
 2394              		.align	2
 2395              	.L163:
 2396 007c 00000000 		.word	.LANCHOR0
 2397 0080 3C030000 		.word	.LC31
 2398 0084 6B040000 		.word	.LC51
 2399 0088 84040000 		.word	.LC52
 2400              		.cfi_endproc
 2401              	.LFE91:
 2402              		.size	CMD_get, .-CMD_get
 2403              		.section	.text.CMD_set,"ax",%progbits
 2404              		.align	1
 2405              		.global	CMD_set
 2406              		.thumb
 2407              		.thumb_func
 2408              		.type	CMD_set, %function
 2409              	CMD_set:
 2410              	.LFB92:
 764:..\common\ud3core/cli_common.c **** 
 765:..\common\ud3core/cli_common.c **** /*****************************************************************************
 766:..\common\ud3core/cli_common.c **** * Set a new value to a parameter
 767:..\common\ud3core/cli_common.c **** ******************************************************************************/
 768:..\common\ud3core/cli_common.c **** uint8_t CMD_set(TERMINAL_HANDLE * handle, uint8_t argCount, char ** args) {
 2411              		.loc 1 768 0
 2412              		.cfi_startproc
 2413              		@ args = 0, pretend = 0, frame = 0
 2414              		@ frame_needed = 0, uses_anonymous_args = 0
 2415              	.LVL272:
 769:..\common\ud3core/cli_common.c **** 
 770:..\common\ud3core/cli_common.c **** 	if(argCount<2){
 2416              		.loc 1 770 0
 2417 0000 0129     		cmp	r1, #1
 768:..\common\ud3core/cli_common.c **** 
 2418              		.loc 1 768 0
 2419 0002 2DE9F84F 		push	{r3, r4, r5, r6, r7, r8, r9, r10, fp, lr}
 2420              		.cfi_def_cfa_offset 40
 2421              		.cfi_offset 3, -40
 2422              		.cfi_offset 4, -36
 2423              		.cfi_offset 5, -32
 2424              		.cfi_offset 6, -28
 2425              		.cfi_offset 7, -24
 2426              		.cfi_offset 8, -20
 2427              		.cfi_offset 9, -16
 2428              		.cfi_offset 10, -12
 2429              		.cfi_offset 11, -8
ARM GAS  C:\Users\chemi\AppData\Local\Temp\ccFrP3K3.s 			page 61


 2430              		.cfi_offset 14, -4
 768:..\common\ud3core/cli_common.c **** 
 2431              		.loc 1 768 0
 2432 0006 0446     		mov	r4, r0
 2433 0008 1646     		mov	r6, r2
 2434              		.loc 1 770 0
 2435 000a 04D8     		bhi	.L166
 771:..\common\ud3core/cli_common.c ****         ttprintf("Usage: set [parameter] [value]\r\n");
 2436              		.loc 1 771 0
 2437 000c 436A     		ldr	r3, [r0, #36]
 2438 000e 2749     		ldr	r1, .L175
 2439              	.LVL273:
 2440 0010 4068     		ldr	r0, [r0, #4]
 2441              	.LVL274:
 2442 0012 9847     		blx	r3
 2443              	.LVL275:
 772:..\common\ud3core/cli_common.c ****         return TERM_CMD_EXIT_SUCCESS;
 2444              		.loc 1 772 0
 2445 0014 47E0     		b	.L167
 2446              	.LVL276:
 2447              	.L166:
 2448              	.LBB20:
 773:..\common\ud3core/cli_common.c ****     }
 774:..\common\ud3core/cli_common.c ****   
 775:..\common\ud3core/cli_common.c **** 	for (uint8_t current_parameter = 0; current_parameter < sizeof(confparam) / sizeof(parameter_entry
 776:..\common\ud3core/cli_common.c **** 		if (strcmp(args[0], confparam[current_parameter].name) == 0) {
 2449              		.loc 1 776 0
 2450 0016 D2F80090 		ldr	r9, [r2]
 2451 001a DFF894A0 		ldr	r10, .L175+4
 2452 001e 0025     		movs	r5, #0
 2453 0020 4FF0240B 		mov	fp, #36
 2454              	.LVL277:
 2455              	.L172:
 2456 0024 0BFB05A8 		mla	r8, fp, r5, r10
 2457 0028 4846     		mov	r0, r9
 2458 002a D8F80410 		ldr	r1, [r8, #4]
 2459 002e EFB2     		uxtb	r7, r5
 2460              	.LVL278:
 2461 0030 FFF7FEFF 		bl	strcmp
 2462              	.LVL279:
 2463 0034 30BB     		cbnz	r0, .L168
 777:..\common\ud3core/cli_common.c **** 			//parameter name found:
 778:..\common\ud3core/cli_common.c **** 
 779:..\common\ud3core/cli_common.c **** 			if (updateDefaultFunction(confparam, args[1],current_parameter, handle)){
 2464              		.loc 1 779 0
 2465 0036 2346     		mov	r3, r4
 2466 0038 3A46     		mov	r2, r7
 2467 003a 7168     		ldr	r1, [r6, #4]
 2468 003c 1C48     		ldr	r0, .L175+4
 2469 003e FFF7FEFF 		bl	updateDefaultFunction
 2470              	.LVL280:
 2471 0042 B8B1     		cbz	r0, .L169
 780:..\common\ud3core/cli_common.c ****                 if(confparam[current_parameter].callback_function){
 2472              		.loc 1 780 0
 2473 0044 D8F81C30 		ldr	r3, [r8, #28]
 2474 0048 63B1     		cbz	r3, .L170
 781:..\common\ud3core/cli_common.c ****                     if (confparam[current_parameter].callback_function(confparam, current_parameter
ARM GAS  C:\Users\chemi\AppData\Local\Temp\ccFrP3K3.s 			page 62


 2475              		.loc 1 781 0
 2476 004a 2246     		mov	r2, r4
 2477 004c 3946     		mov	r1, r7
 2478 004e 1848     		ldr	r0, .L175+4
 2479 0050 9847     		blx	r3
 2480              	.LVL281:
 2481 0052 38B9     		cbnz	r0, .L170
 782:..\common\ud3core/cli_common.c ****                         TERM_sendVT100Code(handle, _VT100_FOREGROUND_COLOR, _VT100_GREEN);
 783:..\common\ud3core/cli_common.c ****                         ttprintf("OK\r\n");
 784:..\common\ud3core/cli_common.c ****                         TERM_sendVT100Code(handle, _VT100_FOREGROUND_COLOR, _VT100_WHITE);
 785:..\common\ud3core/cli_common.c ****                         return TERM_CMD_EXIT_SUCCESS;
 786:..\common\ud3core/cli_common.c ****                     }else{
 787:..\common\ud3core/cli_common.c ****                         TERM_sendVT100Code(handle, _VT100_FOREGROUND_COLOR, _VT100_RED);
 2482              		.loc 1 787 0
 2483 0054 0221     		movs	r1, #2
 2484 0056 0122     		movs	r2, #1
 2485 0058 2046     		mov	r0, r4
 2486 005a FFF7FEFF 		bl	TERM_sendVT100Code
 2487              	.LVL282:
 788:..\common\ud3core/cli_common.c ****                         ttprintf("ERROR: Callback\r\n");
 2488              		.loc 1 788 0
 2489 005e 636A     		ldr	r3, [r4, #36]
 2490 0060 1449     		ldr	r1, .L175+8
 2491 0062 19E0     		b	.L174
 2492              	.L170:
 789:..\common\ud3core/cli_common.c ****                         TERM_sendVT100Code(handle, _VT100_FOREGROUND_COLOR, _VT100_WHITE);
 790:..\common\ud3core/cli_common.c ****                         return TERM_CMD_EXIT_SUCCESS;
 791:..\common\ud3core/cli_common.c ****                     }
 792:..\common\ud3core/cli_common.c ****                 }else{
 793:..\common\ud3core/cli_common.c ****                     TERM_sendVT100Code(handle, _VT100_FOREGROUND_COLOR, _VT100_GREEN);
 2493              		.loc 1 793 0
 2494 0064 0222     		movs	r2, #2
 2495 0066 1146     		mov	r1, r2
 2496 0068 2046     		mov	r0, r4
 2497 006a FFF7FEFF 		bl	TERM_sendVT100Code
 2498              	.LVL283:
 794:..\common\ud3core/cli_common.c ****                     ttprintf("OK\r\n");
 2499              		.loc 1 794 0
 2500 006e 636A     		ldr	r3, [r4, #36]
 2501 0070 1149     		ldr	r1, .L175+12
 2502 0072 11E0     		b	.L174
 2503              	.L169:
 795:..\common\ud3core/cli_common.c ****                     TERM_sendVT100Code(handle, _VT100_FOREGROUND_COLOR, _VT100_WHITE);
 796:..\common\ud3core/cli_common.c ****                     return TERM_CMD_EXIT_SUCCESS;
 797:..\common\ud3core/cli_common.c ****                 }
 798:..\common\ud3core/cli_common.c **** 			} else {
 799:..\common\ud3core/cli_common.c **** 				TERM_sendVT100Code(handle, _VT100_FOREGROUND_COLOR, _VT100_RED);
 2504              		.loc 1 799 0
 2505 0074 0221     		movs	r1, #2
 2506 0076 0122     		movs	r2, #1
 2507 0078 2046     		mov	r0, r4
 2508 007a FFF7FEFF 		bl	TERM_sendVT100Code
 2509              	.LVL284:
 800:..\common\ud3core/cli_common.c **** 				ttprintf("NOK\r\n");
 2510              		.loc 1 800 0
 2511 007e 636A     		ldr	r3, [r4, #36]
 2512 0080 0E49     		ldr	r1, .L175+16
ARM GAS  C:\Users\chemi\AppData\Local\Temp\ccFrP3K3.s 			page 63


 2513 0082 09E0     		b	.L174
 2514              	.L168:
 2515              	.LVL285:
 2516 0084 0135     		adds	r5, r5, #1
 2517              	.LVL286:
 775:..\common\ud3core/cli_common.c **** 		if (strcmp(args[0], confparam[current_parameter].name) == 0) {
 2518              		.loc 1 775 0 discriminator 2
 2519 0086 502D     		cmp	r5, #80
 2520 0088 CCD1     		bne	.L172
 2521              	.LBE20:
 801:..\common\ud3core/cli_common.c **** 				TERM_sendVT100Code(handle, _VT100_FOREGROUND_COLOR, _VT100_WHITE);
 802:..\common\ud3core/cli_common.c **** 				return TERM_CMD_EXIT_SUCCESS;
 803:..\common\ud3core/cli_common.c **** 			}
 804:..\common\ud3core/cli_common.c **** 		}
 805:..\common\ud3core/cli_common.c **** 	}
 806:..\common\ud3core/cli_common.c **** 	TERM_sendVT100Code(handle, _VT100_FOREGROUND_COLOR, _VT100_RED);
 2522              		.loc 1 806 0
 2523 008a 0221     		movs	r1, #2
 2524 008c 0122     		movs	r2, #1
 2525 008e 2046     		mov	r0, r4
 2526 0090 FFF7FEFF 		bl	TERM_sendVT100Code
 2527              	.LVL287:
 807:..\common\ud3core/cli_common.c **** 	ttprintf("E: unknown param\r\n");
 2528              		.loc 1 807 0
 2529 0094 636A     		ldr	r3, [r4, #36]
 2530 0096 0A49     		ldr	r1, .L175+20
 2531              	.LVL288:
 2532              	.L174:
 2533 0098 6068     		ldr	r0, [r4, #4]
 2534 009a 9847     		blx	r3
 2535              	.LVL289:
 808:..\common\ud3core/cli_common.c **** 	TERM_sendVT100Code(handle, _VT100_FOREGROUND_COLOR, _VT100_WHITE);
 2536              		.loc 1 808 0
 2537 009c 0722     		movs	r2, #7
 2538 009e 0221     		movs	r1, #2
 2539 00a0 2046     		mov	r0, r4
 2540 00a2 FFF7FEFF 		bl	TERM_sendVT100Code
 2541              	.LVL290:
 2542              	.L167:
 809:..\common\ud3core/cli_common.c **** 	return TERM_CMD_EXIT_SUCCESS;
 810:..\common\ud3core/cli_common.c **** }
 2543              		.loc 1 810 0
 2544 00a6 FF20     		movs	r0, #255
 2545 00a8 BDE8F88F 		pop	{r3, r4, r5, r6, r7, r8, r9, r10, fp, pc}
 2546              	.LVL291:
 2547              	.L176:
 2548              		.align	2
 2549              	.L175:
 2550 00ac 97040000 		.word	.LC53
 2551 00b0 00000000 		.word	.LANCHOR0
 2552 00b4 BD040000 		.word	.LC55
 2553 00b8 B8040000 		.word	.LC54
 2554 00bc CF040000 		.word	.LC56
 2555 00c0 84040000 		.word	.LC52
 2556              		.cfi_endproc
 2557              	.LFE92:
 2558              		.size	CMD_set, .-CMD_set
ARM GAS  C:\Users\chemi\AppData\Local\Temp\ccFrP3K3.s 			page 64


 2559              		.section	.text.CMD_eeprom,"ax",%progbits
 2560              		.align	1
 2561              		.global	CMD_eeprom
 2562              		.thumb
 2563              		.thumb_func
 2564              		.type	CMD_eeprom, %function
 2565              	CMD_eeprom:
 2566              	.LFB93:
 811:..\common\ud3core/cli_common.c **** 
 812:..\common\ud3core/cli_common.c **** 
 813:..\common\ud3core/cli_common.c **** /*****************************************************************************
 814:..\common\ud3core/cli_common.c **** * Saves confparams to eeprom
 815:..\common\ud3core/cli_common.c **** ******************************************************************************/
 816:..\common\ud3core/cli_common.c **** uint8_t CMD_eeprom(TERMINAL_HANDLE * handle, uint8_t argCount, char ** args) {
 2567              		.loc 1 816 0
 2568              		.cfi_startproc
 2569              		@ args = 0, pretend = 0, frame = 0
 2570              		@ frame_needed = 0, uses_anonymous_args = 0
 2571              	.LVL292:
 2572 0000 F8B5     		push	{r3, r4, r5, r6, r7, lr}
 2573              		.cfi_def_cfa_offset 24
 2574              		.cfi_offset 3, -24
 2575              		.cfi_offset 4, -20
 2576              		.cfi_offset 5, -16
 2577              		.cfi_offset 6, -12
 2578              		.cfi_offset 7, -8
 2579              		.cfi_offset 14, -4
 2580              		.loc 1 816 0
 2581 0002 0446     		mov	r4, r0
 2582 0004 1546     		mov	r5, r2
 817:..\common\ud3core/cli_common.c ****     if(argCount==0 || strcmp(args[0], "-?") == 0){
 2583              		.loc 1 817 0
 2584 0006 21B1     		cbz	r1, .L178
 2585              		.loc 1 817 0 is_stmt 0 discriminator 1
 2586 0008 1C49     		ldr	r1, .L186
 2587              	.LVL293:
 2588 000a 1068     		ldr	r0, [r2]
 2589              	.LVL294:
 2590 000c FFF7FEFF 		bl	strcmp
 2591              	.LVL295:
 2592 0010 20B9     		cbnz	r0, .L179
 2593              	.L178:
 818:..\common\ud3core/cli_common.c ****         ttprintf("Usage: eeprom [load|save]\r\n");
 2594              		.loc 1 818 0 is_stmt 1
 2595 0012 636A     		ldr	r3, [r4, #36]
 2596 0014 1A49     		ldr	r1, .L186+4
 2597 0016 6068     		ldr	r0, [r4, #4]
 2598 0018 9847     		blx	r3
 2599              	.LVL296:
 819:..\common\ud3core/cli_common.c ****         return TERM_CMD_EXIT_SUCCESS;
 2600              		.loc 1 819 0
 2601 001a 2DE0     		b	.L180
 2602              	.L179:
 820:..\common\ud3core/cli_common.c ****     }
 821:..\common\ud3core/cli_common.c ****     EEPROM_1_UpdateTemperature();
 2603              		.loc 1 821 0
 2604 001c FFF7FEFF 		bl	EEPROM_1_UpdateTemperature
ARM GAS  C:\Users\chemi\AppData\Local\Temp\ccFrP3K3.s 			page 65


 2605              	.LVL297:
 822:..\common\ud3core/cli_common.c **** 	uint8 sfflag = system_fault_Read();
 2606              		.loc 1 822 0
 2607 0020 FFF7FEFF 		bl	system_fault_Read
 2608              	.LVL298:
 2609 0024 0746     		mov	r7, r0
 2610              	.LVL299:
 823:..\common\ud3core/cli_common.c **** 	sysflt_set(pdTRUE); //halt tesla coil operation during updates!
 2611              		.loc 1 823 0
 2612 0026 0120     		movs	r0, #1
 2613 0028 FFF7FEFF 		bl	sysflt_set
 2614              	.LVL300:
 824:..\common\ud3core/cli_common.c ****     
 825:..\common\ud3core/cli_common.c **** 	if(strcmp(args[0], "save") == 0){
 2615              		.loc 1 825 0
 2616 002c 2D68     		ldr	r5, [r5]
 2617              	.LVL301:
 2618 002e 1549     		ldr	r1, .L186+8
 2619 0030 2846     		mov	r0, r5
 2620 0032 FFF7FEFF 		bl	strcmp
 2621              	.LVL302:
 2622 0036 0646     		mov	r6, r0
 2623 0038 58B9     		cbnz	r0, .L181
 826:..\common\ud3core/cli_common.c ****         EEPROM_check_hash(confparam,PARAM_SIZE(confparam),handle);
 2624              		.loc 1 826 0
 2625 003a 2246     		mov	r2, r4
 2626 003c 5021     		movs	r1, #80
 2627 003e 1248     		ldr	r0, .L186+12
 2628 0040 FFF7FEFF 		bl	EEPROM_check_hash
 2629              	.LVL303:
 827:..\common\ud3core/cli_common.c **** 	    EEPROM_write_conf(confparam, PARAM_SIZE(confparam),0, handle);
 2630              		.loc 1 827 0
 2631 0044 2346     		mov	r3, r4
 2632 0046 3246     		mov	r2, r6
 2633 0048 5021     		movs	r1, #80
 2634 004a 0F48     		ldr	r0, .L186+12
 2635 004c FFF7FEFF 		bl	EEPROM_write_conf
 2636              	.LVL304:
 2637 0050 10E0     		b	.L182
 2638              	.L181:
 828:..\common\ud3core/cli_common.c ****         
 829:..\common\ud3core/cli_common.c **** 	}else if(strcmp(args[0], "load") == 0){
 2639              		.loc 1 829 0
 2640 0052 0E49     		ldr	r1, .L186+16
 2641 0054 2846     		mov	r0, r5
 2642 0056 FFF7FEFF 		bl	strcmp
 2643              	.LVL305:
 2644 005a 0246     		mov	r2, r0
 2645 005c 50B9     		cbnz	r0, .L182
 830:..\common\ud3core/cli_common.c **** 		EEPROM_read_conf(confparam, PARAM_SIZE(confparam) ,0,handle);
 2646              		.loc 1 830 0
 2647 005e 2346     		mov	r3, r4
 2648 0060 5021     		movs	r1, #80
 2649 0062 0948     		ldr	r0, .L186+12
 2650 0064 FFF7FEFF 		bl	EEPROM_read_conf
 2651              	.LVL306:
 831:..\common\ud3core/cli_common.c ****         
ARM GAS  C:\Users\chemi\AppData\Local\Temp\ccFrP3K3.s 			page 66


 832:..\common\ud3core/cli_common.c ****         configure_interrupter();
 2652              		.loc 1 832 0
 2653 0068 FFF7FEFF 		bl	configure_interrupter
 2654              	.LVL307:
 833:..\common\ud3core/cli_common.c **** 	    initialize_charging();
 2655              		.loc 1 833 0
 2656 006c FFF7FEFF 		bl	initialize_charging
 2657              	.LVL308:
 834:..\common\ud3core/cli_common.c **** 	    configure_ZCD_to_PWM();
 2658              		.loc 1 834 0
 2659 0070 FFF7FEFF 		bl	configure_ZCD_to_PWM
 2660              	.LVL309:
 2661              	.L182:
 835:..\common\ud3core/cli_common.c **** 	}
 836:..\common\ud3core/cli_common.c ****     
 837:..\common\ud3core/cli_common.c ****     system_fault_Control = sfflag;
 2662              		.loc 1 837 0
 2663 0074 064B     		ldr	r3, .L186+20
 2664 0076 1F70     		strb	r7, [r3]
 2665              	.LVL310:
 2666              	.L180:
 838:..\common\ud3core/cli_common.c **** 	return TERM_CMD_EXIT_SUCCESS;
 839:..\common\ud3core/cli_common.c **** }
 2667              		.loc 1 839 0
 2668 0078 FF20     		movs	r0, #255
 2669 007a F8BD     		pop	{r3, r4, r5, r6, r7, pc}
 2670              	.LVL311:
 2671              	.L187:
 2672              		.align	2
 2673              	.L186:
 2674 007c 3C030000 		.word	.LC31
 2675 0080 D5040000 		.word	.LC57
 2676 0084 F1040000 		.word	.LC58
 2677 0088 00000000 		.word	.LANCHOR0
 2678 008c F6040000 		.word	.LC59
 2679 0090 7E640040 		.word	1073767550
 2680              		.cfi_endproc
 2681              	.LFE93:
 2682              		.size	CMD_eeprom, .-CMD_eeprom
 2683              		.section	.text.CMD_bus,"ax",%progbits
 2684              		.align	1
 2685              		.global	CMD_bus
 2686              		.thumb
 2687              		.thumb_func
 2688              		.type	CMD_bus, %function
 2689              	CMD_bus:
 2690              	.LFB94:
 840:..\common\ud3core/cli_common.c **** 
 841:..\common\ud3core/cli_common.c **** /*****************************************************************************
 842:..\common\ud3core/cli_common.c **** * Switches the bus on/off
 843:..\common\ud3core/cli_common.c **** ******************************************************************************/
 844:..\common\ud3core/cli_common.c **** uint8_t CMD_bus(TERMINAL_HANDLE * handle, uint8_t argCount, char ** args){
 2691              		.loc 1 844 0
 2692              		.cfi_startproc
 2693              		@ args = 0, pretend = 0, frame = 0
 2694              		@ frame_needed = 0, uses_anonymous_args = 0
 2695              	.LVL312:
ARM GAS  C:\Users\chemi\AppData\Local\Temp\ccFrP3K3.s 			page 67


 2696 0000 38B5     		push	{r3, r4, r5, lr}
 2697              		.cfi_def_cfa_offset 16
 2698              		.cfi_offset 3, -16
 2699              		.cfi_offset 4, -12
 2700              		.cfi_offset 5, -8
 2701              		.cfi_offset 14, -4
 2702              		.loc 1 844 0
 2703 0002 0446     		mov	r4, r0
 845:..\common\ud3core/cli_common.c ****     if(argCount==0 || strcmp(args[0], "-?") == 0){
 2704              		.loc 1 845 0
 2705 0004 29B1     		cbz	r1, .L189
 2706              		.loc 1 845 0 is_stmt 0 discriminator 1
 2707 0006 1568     		ldr	r5, [r2]
 2708 0008 0F49     		ldr	r1, .L197
 2709              	.LVL313:
 2710 000a 2846     		mov	r0, r5
 2711              	.LVL314:
 2712 000c FFF7FEFF 		bl	strcmp
 2713              	.LVL315:
 2714 0010 10B9     		cbnz	r0, .L190
 2715              	.L189:
 846:..\common\ud3core/cli_common.c ****         ttprintf("Usage: bus [on|off]\r\n");
 2716              		.loc 1 846 0 is_stmt 1
 2717 0012 636A     		ldr	r3, [r4, #36]
 2718 0014 0D49     		ldr	r1, .L197+4
 2719 0016 13E0     		b	.L196
 2720              	.L190:
 847:..\common\ud3core/cli_common.c ****         return TERM_CMD_EXIT_SUCCESS;
 848:..\common\ud3core/cli_common.c ****     }
 849:..\common\ud3core/cli_common.c **** 
 850:..\common\ud3core/cli_common.c **** 	if(strcmp(args[0], "on") == 0){
 2721              		.loc 1 850 0
 2722 0018 0D49     		ldr	r1, .L197+8
 2723 001a 2846     		mov	r0, r5
 2724 001c FFF7FEFF 		bl	strcmp
 2725              	.LVL316:
 2726 0020 28B9     		cbnz	r0, .L192
 851:..\common\ud3core/cli_common.c **** 		bus_command = BUS_COMMAND_ON;
 2727              		.loc 1 851 0
 2728 0022 0C4B     		ldr	r3, .L197+12
 2729 0024 0122     		movs	r2, #1
 2730 0026 1A70     		strb	r2, [r3]
 852:..\common\ud3core/cli_common.c **** 		ttprintf("BUS ON\r\n");
 2731              		.loc 1 852 0
 2732 0028 0B49     		ldr	r1, .L197+16
 2733 002a 636A     		ldr	r3, [r4, #36]
 2734 002c 08E0     		b	.L196
 2735              	.L192:
 853:..\common\ud3core/cli_common.c ****         return TERM_CMD_EXIT_SUCCESS;
 854:..\common\ud3core/cli_common.c **** 	}
 855:..\common\ud3core/cli_common.c **** 	if(strcmp(args[0], "off") == 0){
 2736              		.loc 1 855 0
 2737 002e 0B49     		ldr	r1, .L197+20
 2738 0030 2846     		mov	r0, r5
 2739 0032 FFF7FEFF 		bl	strcmp
 2740              	.LVL317:
 2741 0036 28B9     		cbnz	r0, .L191
ARM GAS  C:\Users\chemi\AppData\Local\Temp\ccFrP3K3.s 			page 68


 856:..\common\ud3core/cli_common.c **** 		bus_command = BUS_COMMAND_OFF;
 2742              		.loc 1 856 0
 2743 0038 064B     		ldr	r3, .L197+12
 857:..\common\ud3core/cli_common.c **** 		ttprintf("BUS OFF\r\n");
 2744              		.loc 1 857 0
 2745 003a 0949     		ldr	r1, .L197+24
 856:..\common\ud3core/cli_common.c **** 		bus_command = BUS_COMMAND_OFF;
 2746              		.loc 1 856 0
 2747 003c 1870     		strb	r0, [r3]
 2748              		.loc 1 857 0
 2749 003e 636A     		ldr	r3, [r4, #36]
 2750              	.L196:
 2751 0040 6068     		ldr	r0, [r4, #4]
 2752 0042 9847     		blx	r3
 2753              	.LVL318:
 2754              	.L191:
 858:..\common\ud3core/cli_common.c ****         return TERM_CMD_EXIT_SUCCESS;
 859:..\common\ud3core/cli_common.c **** 	}
 860:..\common\ud3core/cli_common.c ****     return TERM_CMD_EXIT_SUCCESS;
 861:..\common\ud3core/cli_common.c **** }
 2755              		.loc 1 861 0
 2756 0044 FF20     		movs	r0, #255
 2757 0046 38BD     		pop	{r3, r4, r5, pc}
 2758              	.LVL319:
 2759              	.L198:
 2760              		.align	2
 2761              	.L197:
 2762 0048 3C030000 		.word	.LC31
 2763 004c FB040000 		.word	.LC60
 2764 0050 11050000 		.word	.LC61
 2765 0054 00000000 		.word	bus_command
 2766 0058 14050000 		.word	.LC62
 2767 005c 1D050000 		.word	.LC63
 2768 0060 21050000 		.word	.LC64
 2769              		.cfi_endproc
 2770              	.LFE94:
 2771              		.size	CMD_bus, .-CMD_bus
 2772              		.section	.text.CMD_load_defaults,"ax",%progbits
 2773              		.align	1
 2774              		.global	CMD_load_defaults
 2775              		.thumb
 2776              		.thumb_func
 2777              		.type	CMD_load_defaults, %function
 2778              	CMD_load_defaults:
 2779              	.LFB95:
 862:..\common\ud3core/cli_common.c **** 
 863:..\common\ud3core/cli_common.c **** /*****************************************************************************
 864:..\common\ud3core/cli_common.c **** * Loads the default parametes out of flash
 865:..\common\ud3core/cli_common.c **** ******************************************************************************/
 866:..\common\ud3core/cli_common.c **** uint8_t CMD_load_defaults(TERMINAL_HANDLE * handle, uint8_t argCount, char ** args){
 2780              		.loc 1 866 0
 2781              		.cfi_startproc
 2782              		@ args = 0, pretend = 0, frame = 0
 2783              		@ frame_needed = 0, uses_anonymous_args = 0
 2784              	.LVL320:
 2785 0000 08B5     		push	{r3, lr}
 2786              		.cfi_def_cfa_offset 8
ARM GAS  C:\Users\chemi\AppData\Local\Temp\ccFrP3K3.s 			page 69


 2787              		.cfi_offset 3, -8
 2788              		.cfi_offset 14, -4
 867:..\common\ud3core/cli_common.c ****     ttprintf("Default parameters loaded\r\n");
 2789              		.loc 1 867 0
 2790 0002 0449     		ldr	r1, .L200
 2791              	.LVL321:
 2792 0004 436A     		ldr	r3, [r0, #36]
 2793 0006 4068     		ldr	r0, [r0, #4]
 2794              	.LVL322:
 2795 0008 9847     		blx	r3
 2796              	.LVL323:
 868:..\common\ud3core/cli_common.c ****     init_config();
 2797              		.loc 1 868 0
 2798 000a FFF7FEFF 		bl	init_config
 2799              	.LVL324:
 869:..\common\ud3core/cli_common.c ****     return TERM_CMD_EXIT_SUCCESS;
 870:..\common\ud3core/cli_common.c **** }
 2800              		.loc 1 870 0
 2801 000e FF20     		movs	r0, #255
 2802 0010 08BD     		pop	{r3, pc}
 2803              	.L201:
 2804 0012 00BF     		.align	2
 2805              	.L200:
 2806 0014 2B050000 		.word	.LC65
 2807              		.cfi_endproc
 2808              	.LFE95:
 2809              		.size	CMD_load_defaults, .-CMD_load_defaults
 2810              		.section	.text.CMD_reset,"ax",%progbits
 2811              		.align	1
 2812              		.global	CMD_reset
 2813              		.thumb
 2814              		.thumb_func
 2815              		.type	CMD_reset, %function
 2816              	CMD_reset:
 2817              	.LFB96:
 871:..\common\ud3core/cli_common.c **** 
 872:..\common\ud3core/cli_common.c **** /*****************************************************************************
 873:..\common\ud3core/cli_common.c **** * Reset of the controller
 874:..\common\ud3core/cli_common.c **** ******************************************************************************/
 875:..\common\ud3core/cli_common.c **** uint8_t CMD_reset(TERMINAL_HANDLE * handle, uint8_t argCount, char ** args){
 2818              		.loc 1 875 0
 2819              		.cfi_startproc
 2820              		@ args = 0, pretend = 0, frame = 0
 2821              		@ frame_needed = 0, uses_anonymous_args = 0
 2822              	.LVL325:
 2823 0000 08B5     		push	{r3, lr}
 2824              		.cfi_def_cfa_offset 8
 2825              		.cfi_offset 3, -8
 2826              		.cfi_offset 14, -4
 876:..\common\ud3core/cli_common.c ****     CySoftwareReset();
 2827              		.loc 1 876 0
 2828 0002 FFF7FEFF 		bl	CySoftwareReset
 2829              	.LVL326:
 877:..\common\ud3core/cli_common.c ****     return TERM_CMD_EXIT_SUCCESS;
 878:..\common\ud3core/cli_common.c **** }
 2830              		.loc 1 878 0
 2831 0006 FF20     		movs	r0, #255
ARM GAS  C:\Users\chemi\AppData\Local\Temp\ccFrP3K3.s 			page 70


 2832 0008 08BD     		pop	{r3, pc}
 2833              		.cfi_endproc
 2834              	.LFE96:
 2835              		.size	CMD_reset, .-CMD_reset
 2836              		.section	.text.CMD_relay,"ax",%progbits
 2837              		.align	1
 2838              		.global	CMD_relay
 2839              		.thumb
 2840              		.thumb_func
 2841              		.type	CMD_relay, %function
 2842              	CMD_relay:
 2843              	.LFB97:
 879:..\common\ud3core/cli_common.c **** 
 880:..\common\ud3core/cli_common.c **** /*****************************************************************************
 881:..\common\ud3core/cli_common.c **** * Switches the user relay 3 or 4
 882:..\common\ud3core/cli_common.c **** ******************************************************************************/
 883:..\common\ud3core/cli_common.c **** uint8_t CMD_relay(TERMINAL_HANDLE * handle, uint8_t argCount, char ** args){
 2844              		.loc 1 883 0
 2845              		.cfi_startproc
 2846              		@ args = 0, pretend = 0, frame = 0
 2847              		@ frame_needed = 0, uses_anonymous_args = 0
 2848              	.LVL327:
 884:..\common\ud3core/cli_common.c ****     if(argCount<2 || strcmp(args[0], "-?") == 0){
 2849              		.loc 1 884 0
 2850 0000 0129     		cmp	r1, #1
 883:..\common\ud3core/cli_common.c ****     if(argCount<2 || strcmp(args[0], "-?") == 0){
 2851              		.loc 1 883 0
 2852 0002 70B5     		push	{r4, r5, r6, lr}
 2853              		.cfi_def_cfa_offset 16
 2854              		.cfi_offset 4, -16
 2855              		.cfi_offset 5, -12
 2856              		.cfi_offset 6, -8
 2857              		.cfi_offset 14, -4
 883:..\common\ud3core/cli_common.c ****     if(argCount<2 || strcmp(args[0], "-?") == 0){
 2858              		.loc 1 883 0
 2859 0004 0546     		mov	r5, r0
 2860 0006 1646     		mov	r6, r2
 2861              		.loc 1 884 0
 2862 0008 0FD9     		bls	.L209
 2863              		.loc 1 884 0 is_stmt 0 discriminator 1
 2864 000a 1468     		ldr	r4, [r2]
 2865 000c 1149     		ldr	r1, .L210
 2866              	.LVL328:
 2867 000e 2046     		mov	r0, r4
 2868              	.LVL329:
 2869 0010 FFF7FEFF 		bl	strcmp
 2870              	.LVL330:
 2871 0014 48B1     		cbz	r0, .L209
 885:..\common\ud3core/cli_common.c ****         ttprintf("Usage: relay 3/4 [1|0]\r\n");
 886:..\common\ud3core/cli_common.c ****         return TERM_CMD_EXIT_SUCCESS;
 887:..\common\ud3core/cli_common.c ****     }
 888:..\common\ud3core/cli_common.c ****     
 889:..\common\ud3core/cli_common.c ****     uint8_t r_number = atoi(args[0]);
 2872              		.loc 1 889 0 is_stmt 1
 2873 0016 2046     		mov	r0, r4
 2874 0018 FFF7FEFF 		bl	atoi
 2875              	.LVL331:
ARM GAS  C:\Users\chemi\AppData\Local\Temp\ccFrP3K3.s 			page 71


 2876 001c 0446     		mov	r4, r0
 2877              	.LVL332:
 890:..\common\ud3core/cli_common.c ****     uint8_t value = atoi(args[1]);
 2878              		.loc 1 890 0
 2879 001e 7068     		ldr	r0, [r6, #4]
 2880 0020 FFF7FEFF 		bl	atoi
 2881              	.LVL333:
 2882 0024 C0B2     		uxtb	r0, r0
 2883              	.LVL334:
 891:..\common\ud3core/cli_common.c ****     if(value > 1){
 2884              		.loc 1 891 0
 2885 0026 0128     		cmp	r0, #1
 2886 0028 04D9     		bls	.L207
 2887              	.LVL335:
 2888              	.L209:
 892:..\common\ud3core/cli_common.c ****         ttprintf("Usage: relay 3/4 [1|0]\r\n");
 2889              		.loc 1 892 0
 2890 002a 6B6A     		ldr	r3, [r5, #36]
 2891 002c 0A49     		ldr	r1, .L210+4
 2892 002e 6868     		ldr	r0, [r5, #4]
 2893 0030 9847     		blx	r3
 2894              	.LVL336:
 893:..\common\ud3core/cli_common.c ****         return TERM_CMD_EXIT_SUCCESS;
 2895              		.loc 1 893 0
 2896 0032 0DE0     		b	.L206
 2897              	.LVL337:
 2898              	.L207:
 889:..\common\ud3core/cli_common.c ****     uint8_t value = atoi(args[1]);
 2899              		.loc 1 889 0
 2900 0034 E3B2     		uxtb	r3, r4
 894:..\common\ud3core/cli_common.c ****     }
 895:..\common\ud3core/cli_common.c ****     
 896:..\common\ud3core/cli_common.c ****     if(r_number == 3){
 2901              		.loc 1 896 0
 2902 0036 032B     		cmp	r3, #3
 2903 0038 04D1     		bne	.L208
 897:..\common\ud3core/cli_common.c ****         temp_pwm_WriteCompare1(value ? 255 : 0);
 2904              		.loc 1 897 0
 2905 003a 4042     		negs	r0, r0
 2906              	.LVL338:
 2907 003c C0B2     		uxtb	r0, r0
 2908              	.LVL339:
 2909 003e FFF7FEFF 		bl	temp_pwm_WriteCompare1
 2910              	.LVL340:
 898:..\common\ud3core/cli_common.c ****         return TERM_CMD_EXIT_SUCCESS;
 2911              		.loc 1 898 0
 2912 0042 05E0     		b	.L206
 2913              	.LVL341:
 2914              	.L208:
 899:..\common\ud3core/cli_common.c ****     }
 900:..\common\ud3core/cli_common.c ****     if(r_number == 4){
 2915              		.loc 1 900 0
 2916 0044 042B     		cmp	r3, #4
 2917 0046 03D1     		bne	.L206
 901:..\common\ud3core/cli_common.c ****         temp_pwm_WriteCompare2(value ? 255 : 0);
 2918              		.loc 1 901 0
 2919 0048 4042     		negs	r0, r0
ARM GAS  C:\Users\chemi\AppData\Local\Temp\ccFrP3K3.s 			page 72


 2920              	.LVL342:
 2921 004a C0B2     		uxtb	r0, r0
 2922              	.LVL343:
 2923 004c FFF7FEFF 		bl	temp_pwm_WriteCompare2
 2924              	.LVL344:
 2925              	.L206:
 902:..\common\ud3core/cli_common.c ****         return TERM_CMD_EXIT_SUCCESS;
 903:..\common\ud3core/cli_common.c ****     }
 904:..\common\ud3core/cli_common.c ****     return TERM_CMD_EXIT_SUCCESS;
 905:..\common\ud3core/cli_common.c **** }
 2926              		.loc 1 905 0
 2927 0050 FF20     		movs	r0, #255
 2928 0052 70BD     		pop	{r4, r5, r6, pc}
 2929              	.LVL345:
 2930              	.L211:
 2931              		.align	2
 2932              	.L210:
 2933 0054 3C030000 		.word	.LC31
 2934 0058 47050000 		.word	.LC66
 2935              		.cfi_endproc
 2936              	.LFE97:
 2937              		.size	CMD_relay, .-CMD_relay
 2938              		.section	.text.CMD_pwm,"ax",%progbits
 2939              		.align	1
 2940              		.global	CMD_pwm
 2941              		.thumb
 2942              		.thumb_func
 2943              		.type	CMD_pwm, %function
 2944              	CMD_pwm:
 2945              	.LFB98:
 906:..\common\ud3core/cli_common.c **** 
 907:..\common\ud3core/cli_common.c **** /*****************************************************************************
 908:..\common\ud3core/cli_common.c **** * Switches the user relay 3 or 4
 909:..\common\ud3core/cli_common.c **** ******************************************************************************/
 910:..\common\ud3core/cli_common.c **** uint8_t CMD_pwm(TERMINAL_HANDLE * handle, uint8_t argCount, char ** args){
 2946              		.loc 1 910 0
 2947              		.cfi_startproc
 2948              		@ args = 0, pretend = 0, frame = 0
 2949              		@ frame_needed = 0, uses_anonymous_args = 0
 2950              	.LVL346:
 911:..\common\ud3core/cli_common.c ****     if(argCount<2 || strcmp(args[0], "-?") == 0){
 2951              		.loc 1 911 0
 2952 0000 0129     		cmp	r1, #1
 910:..\common\ud3core/cli_common.c ****     if(argCount<2 || strcmp(args[0], "-?") == 0){
 2953              		.loc 1 910 0
 2954 0002 70B5     		push	{r4, r5, r6, lr}
 2955              		.cfi_def_cfa_offset 16
 2956              		.cfi_offset 4, -16
 2957              		.cfi_offset 5, -12
 2958              		.cfi_offset 6, -8
 2959              		.cfi_offset 14, -4
 910:..\common\ud3core/cli_common.c ****     if(argCount<2 || strcmp(args[0], "-?") == 0){
 2960              		.loc 1 910 0
 2961 0004 0646     		mov	r6, r0
 2962 0006 1546     		mov	r5, r2
 2963              		.loc 1 911 0
 2964 0008 05D9     		bls	.L213
ARM GAS  C:\Users\chemi\AppData\Local\Temp\ccFrP3K3.s 			page 73


 2965              		.loc 1 911 0 is_stmt 0 discriminator 1
 2966 000a 1468     		ldr	r4, [r2]
 2967 000c 0E49     		ldr	r1, .L217
 2968              	.LVL347:
 2969 000e 2046     		mov	r0, r4
 2970              	.LVL348:
 2971 0010 FFF7FEFF 		bl	strcmp
 2972              	.LVL349:
 2973 0014 20B9     		cbnz	r0, .L214
 2974              	.L213:
 912:..\common\ud3core/cli_common.c ****         ttprintf("Usage: pwm 3/4 [0-255]\r\n");
 2975              		.loc 1 912 0 is_stmt 1
 2976 0016 736A     		ldr	r3, [r6, #36]
 2977 0018 0C49     		ldr	r1, .L217+4
 2978 001a 7068     		ldr	r0, [r6, #4]
 2979 001c 9847     		blx	r3
 2980              	.LVL350:
 913:..\common\ud3core/cli_common.c ****         return TERM_CMD_EXIT_SUCCESS;
 2981              		.loc 1 913 0
 2982 001e 10E0     		b	.L215
 2983              	.L214:
 914:..\common\ud3core/cli_common.c ****     }
 915:..\common\ud3core/cli_common.c ****     
 916:..\common\ud3core/cli_common.c ****     uint8_t pwm_number = atoi(args[0]);
 2984              		.loc 1 916 0
 2985 0020 2046     		mov	r0, r4
 2986 0022 FFF7FEFF 		bl	atoi
 2987              	.LVL351:
 2988 0026 C4B2     		uxtb	r4, r0
 2989              	.LVL352:
 917:..\common\ud3core/cli_common.c ****     uint8_t value = atoi(args[1]);
 2990              		.loc 1 917 0
 2991 0028 6868     		ldr	r0, [r5, #4]
 2992 002a FFF7FEFF 		bl	atoi
 2993              	.LVL353:
 918:..\common\ud3core/cli_common.c ****     if(value > 255){
 919:..\common\ud3core/cli_common.c ****         value = 255;
 920:..\common\ud3core/cli_common.c ****     }
 921:..\common\ud3core/cli_common.c ****     
 922:..\common\ud3core/cli_common.c ****     if(pwm_number == 3){
 2994              		.loc 1 922 0
 2995 002e 032C     		cmp	r4, #3
 917:..\common\ud3core/cli_common.c ****     uint8_t value = atoi(args[1]);
 2996              		.loc 1 917 0
 2997 0030 C0B2     		uxtb	r0, r0
 2998              	.LVL354:
 2999              		.loc 1 922 0
 3000 0032 02D1     		bne	.L216
 923:..\common\ud3core/cli_common.c ****         temp_pwm_WriteCompare1(value);
 3001              		.loc 1 923 0
 3002 0034 FFF7FEFF 		bl	temp_pwm_WriteCompare1
 3003              	.LVL355:
 924:..\common\ud3core/cli_common.c ****         return TERM_CMD_EXIT_SUCCESS;
 3004              		.loc 1 924 0
 3005 0038 03E0     		b	.L215
 3006              	.LVL356:
 3007              	.L216:
ARM GAS  C:\Users\chemi\AppData\Local\Temp\ccFrP3K3.s 			page 74


 925:..\common\ud3core/cli_common.c ****     }
 926:..\common\ud3core/cli_common.c ****     if(pwm_number == 4){
 3008              		.loc 1 926 0
 3009 003a 042C     		cmp	r4, #4
 3010 003c 01D1     		bne	.L215
 927:..\common\ud3core/cli_common.c ****         temp_pwm_WriteCompare2(value);
 3011              		.loc 1 927 0
 3012 003e FFF7FEFF 		bl	temp_pwm_WriteCompare2
 3013              	.LVL357:
 3014              	.L215:
 928:..\common\ud3core/cli_common.c ****         return TERM_CMD_EXIT_SUCCESS;
 929:..\common\ud3core/cli_common.c ****     }
 930:..\common\ud3core/cli_common.c ****     return TERM_CMD_EXIT_SUCCESS;
 931:..\common\ud3core/cli_common.c **** }
 3015              		.loc 1 931 0
 3016 0042 FF20     		movs	r0, #255
 3017 0044 70BD     		pop	{r4, r5, r6, pc}
 3018              	.LVL358:
 3019              	.L218:
 3020 0046 00BF     		.align	2
 3021              	.L217:
 3022 0048 3C030000 		.word	.LC31
 3023 004c 60050000 		.word	.LC67
 3024              		.cfi_endproc
 3025              	.LFE98:
 3026              		.size	CMD_pwm, .-CMD_pwm
 3027              		.section	.text.CMD_hwrev,"ax",%progbits
 3028              		.align	1
 3029              		.global	CMD_hwrev
 3030              		.thumb
 3031              		.thumb_func
 3032              		.type	CMD_hwrev, %function
 3033              	CMD_hwrev:
 3034              	.LFB99:
 932:..\common\ud3core/cli_common.c **** 
 933:..\common\ud3core/cli_common.c **** 
 934:..\common\ud3core/cli_common.c **** /*****************************************************************************
 935:..\common\ud3core/cli_common.c **** * Read hardware revision bits
 936:..\common\ud3core/cli_common.c **** ******************************************************************************/
 937:..\common\ud3core/cli_common.c **** uint8_t CMD_hwrev(TERMINAL_HANDLE * handle, uint8_t argCount, char ** args){
 3035              		.loc 1 937 0
 3036              		.cfi_startproc
 3037              		@ args = 0, pretend = 0, frame = 0
 3038              		@ frame_needed = 0, uses_anonymous_args = 0
 3039              	.LVL359:
 3040 0000 F8B5     		push	{r3, r4, r5, r6, r7, lr}
 3041              		.cfi_def_cfa_offset 24
 3042              		.cfi_offset 3, -24
 3043              		.cfi_offset 4, -20
 3044              		.cfi_offset 5, -16
 3045              		.cfi_offset 6, -12
 3046              		.cfi_offset 7, -8
 3047              		.cfi_offset 14, -4
 938:..\common\ud3core/cli_common.c ****     ttprintf("Hardware revision is set to: %u = %s\r\n", configuration.hw_rev, SYS_get_rev_string(c
 3048              		.loc 1 938 0
 3049 0002 0E4B     		ldr	r3, .L220
 3050 0004 466A     		ldr	r6, [r0, #36]
ARM GAS  C:\Users\chemi\AppData\Local\Temp\ccFrP3K3.s 			page 75


 3051 0006 93F87050 		ldrb	r5, [r3, #112]	@ zero_extendqisi2
 3052 000a 4768     		ldr	r7, [r0, #4]
 937:..\common\ud3core/cli_common.c ****     ttprintf("Hardware revision is set to: %u = %s\r\n", configuration.hw_rev, SYS_get_rev_string(c
 3053              		.loc 1 937 0
 3054 000c 0446     		mov	r4, r0
 3055              		.loc 1 938 0
 3056 000e 2846     		mov	r0, r5
 3057              	.LVL360:
 3058 0010 FFF7FEFF 		bl	SYS_get_rev_string
 3059              	.LVL361:
 3060 0014 2A46     		mov	r2, r5
 3061 0016 0346     		mov	r3, r0
 3062 0018 0949     		ldr	r1, .L220+4
 3063 001a 3846     		mov	r0, r7
 3064 001c B047     		blx	r6
 3065              	.LVL362:
 939:..\common\ud3core/cli_common.c ****     
 940:..\common\ud3core/cli_common.c ****     uint8_t rev = SYS_detect_hw_rev();
 3066              		.loc 1 940 0
 3067 001e FFF7FEFF 		bl	SYS_detect_hw_rev
 3068              	.LVL363:
 941:..\common\ud3core/cli_common.c ****     
 942:..\common\ud3core/cli_common.c ****     ttprintf("Hardware revision bits: %u = %s\r\n", rev, SYS_get_rev_string(rev));
 3069              		.loc 1 942 0
 3070 0022 656A     		ldr	r5, [r4, #36]
 940:..\common\ud3core/cli_common.c ****     
 3071              		.loc 1 940 0
 3072 0024 0646     		mov	r6, r0
 3073              	.LVL364:
 3074              		.loc 1 942 0
 3075 0026 6468     		ldr	r4, [r4, #4]
 3076              	.LVL365:
 3077 0028 FFF7FEFF 		bl	SYS_get_rev_string
 3078              	.LVL366:
 3079 002c 3246     		mov	r2, r6
 3080 002e 0346     		mov	r3, r0
 3081 0030 0449     		ldr	r1, .L220+8
 3082 0032 2046     		mov	r0, r4
 3083 0034 A847     		blx	r5
 3084              	.LVL367:
 943:..\common\ud3core/cli_common.c ****     
 944:..\common\ud3core/cli_common.c **** 
 945:..\common\ud3core/cli_common.c ****     return TERM_CMD_EXIT_SUCCESS;
 946:..\common\ud3core/cli_common.c **** }
 3085              		.loc 1 946 0
 3086 0036 FF20     		movs	r0, #255
 3087 0038 F8BD     		pop	{r3, r4, r5, r6, r7, pc}
 3088              	.LVL368:
 3089              	.L221:
 3090 003a 00BF     		.align	2
 3091              	.L220:
 3092 003c 00000000 		.word	configuration
 3093 0040 79050000 		.word	.LC68
 3094 0044 A0050000 		.word	.LC69
 3095              		.cfi_endproc
 3096              	.LFE99:
 3097              		.size	CMD_hwrev, .-CMD_hwrev
ARM GAS  C:\Users\chemi\AppData\Local\Temp\ccFrP3K3.s 			page 76


 3098              		.section	.text.send_signal_state_new,"ax",%progbits
 3099              		.align	1
 3100              		.global	send_signal_state_new
 3101              		.thumb
 3102              		.thumb_func
 3103              		.type	send_signal_state_new, %function
 3104              	send_signal_state_new:
 3105              	.LFB100:
 947:..\common\ud3core/cli_common.c **** 
 948:..\common\ud3core/cli_common.c **** /*****************************************************************************
 949:..\common\ud3core/cli_common.c **** * Signal debugging
 950:..\common\ud3core/cli_common.c **** ******************************************************************************/
 951:..\common\ud3core/cli_common.c **** 
 952:..\common\ud3core/cli_common.c **** void send_signal_state_new(uint8_t signal, uint8_t inverted, TERMINAL_HANDLE * handle){
 3106              		.loc 1 952 0
 3107              		.cfi_startproc
 3108              		@ args = 0, pretend = 0, frame = 0
 3109              		@ frame_needed = 0, uses_anonymous_args = 0
 3110              	.LVL369:
 3111 0000 10B5     		push	{r4, lr}
 3112              		.cfi_def_cfa_offset 8
 3113              		.cfi_offset 4, -8
 3114              		.cfi_offset 14, -4
 3115              		.loc 1 952 0
 3116 0002 1446     		mov	r4, r2
 953:..\common\ud3core/cli_common.c ****     if(inverted) signal = !signal; 
 3117              		.loc 1 953 0
 3118 0004 11B1     		cbz	r1, .L223
 3119              		.loc 1 953 0 is_stmt 0 discriminator 1
 3120 0006 B0FA80F0 		clz	r0, r0
 3121              	.LVL370:
 3122 000a 4009     		lsrs	r0, r0, #5
 3123              	.LVL371:
 3124              	.L223:
 954:..\common\ud3core/cli_common.c ****     if(signal){
 3125              		.loc 1 954 0 is_stmt 1
 3126 000c 38B1     		cbz	r0, .L224
 3127              	.LVL372:
 3128              	.LBB23:
 3129              	.LBB24:
 955:..\common\ud3core/cli_common.c ****         TERM_sendVT100Code(handle, _VT100_FOREGROUND_COLOR, _VT100_RED);
 3130              		.loc 1 955 0
 3131 000e 0221     		movs	r1, #2
 3132              	.LVL373:
 3133 0010 0122     		movs	r2, #1
 3134              	.LVL374:
 3135 0012 2046     		mov	r0, r4
 3136 0014 FFF7FEFF 		bl	TERM_sendVT100Code
 3137              	.LVL375:
 956:..\common\ud3core/cli_common.c ****         ttprintf("true \r\n");
 3138              		.loc 1 956 0
 3139 0018 636A     		ldr	r3, [r4, #36]
 3140 001a 0949     		ldr	r1, .L229
 3141 001c 06E0     		b	.L228
 3142              	.LVL376:
 3143              	.L224:
 3144              	.LBE24:
ARM GAS  C:\Users\chemi\AppData\Local\Temp\ccFrP3K3.s 			page 77


 3145              	.LBE23:
 957:..\common\ud3core/cli_common.c ****         TERM_sendVT100Code(handle, _VT100_FOREGROUND_COLOR, _VT100_WHITE); 
 958:..\common\ud3core/cli_common.c ****     }else{
 959:..\common\ud3core/cli_common.c ****         TERM_sendVT100Code(handle, _VT100_FOREGROUND_COLOR, _VT100_GREEN);
 3146              		.loc 1 959 0
 3147 001e 0222     		movs	r2, #2
 3148              	.LVL377:
 3149 0020 1146     		mov	r1, r2
 3150              	.LVL378:
 3151 0022 2046     		mov	r0, r4
 3152 0024 FFF7FEFF 		bl	TERM_sendVT100Code
 3153              	.LVL379:
 960:..\common\ud3core/cli_common.c ****         ttprintf("false\r\n");
 3154              		.loc 1 960 0
 3155 0028 636A     		ldr	r3, [r4, #36]
 3156 002a 0649     		ldr	r1, .L229+4
 3157              	.L228:
 3158 002c 6068     		ldr	r0, [r4, #4]
 3159 002e 9847     		blx	r3
 3160              	.LVL380:
 961:..\common\ud3core/cli_common.c ****         TERM_sendVT100Code(handle, _VT100_FOREGROUND_COLOR, _VT100_WHITE);
 3161              		.loc 1 961 0
 3162 0030 2046     		mov	r0, r4
 962:..\common\ud3core/cli_common.c ****     }
 963:..\common\ud3core/cli_common.c **** }
 3163              		.loc 1 963 0
 3164 0032 BDE81040 		pop	{r4, lr}
 3165              		.cfi_restore 14
 3166              		.cfi_restore 4
 3167              		.cfi_def_cfa_offset 0
 3168              	.LVL381:
 961:..\common\ud3core/cli_common.c ****         TERM_sendVT100Code(handle, _VT100_FOREGROUND_COLOR, _VT100_WHITE);
 3169              		.loc 1 961 0
 3170 0036 0722     		movs	r2, #7
 3171 0038 0221     		movs	r1, #2
 3172 003a FFF7FEBF 		b	TERM_sendVT100Code
 3173              	.LVL382:
 3174              	.L230:
 3175 003e 00BF     		.align	2
 3176              	.L229:
 3177 0040 C2050000 		.word	.LC70
 3178 0044 CA050000 		.word	.LC71
 3179              		.cfi_endproc
 3180              	.LFE100:
 3181              		.size	send_signal_state_new, .-send_signal_state_new
 3182              		.section	.text.send_signal_state_wo_new,"ax",%progbits
 3183              		.align	1
 3184              		.global	send_signal_state_wo_new
 3185              		.thumb
 3186              		.thumb_func
 3187              		.type	send_signal_state_wo_new, %function
 3188              	send_signal_state_wo_new:
 3189              	.LFB101:
 964:..\common\ud3core/cli_common.c **** void send_signal_state_wo_new(uint8_t signal, uint8_t inverted, TERMINAL_HANDLE * handle){
 3190              		.loc 1 964 0
 3191              		.cfi_startproc
 3192              		@ args = 0, pretend = 0, frame = 0
ARM GAS  C:\Users\chemi\AppData\Local\Temp\ccFrP3K3.s 			page 78


 3193              		@ frame_needed = 0, uses_anonymous_args = 0
 3194              	.LVL383:
 3195 0000 10B5     		push	{r4, lr}
 3196              		.cfi_def_cfa_offset 8
 3197              		.cfi_offset 4, -8
 3198              		.cfi_offset 14, -4
 3199              		.loc 1 964 0
 3200 0002 1446     		mov	r4, r2
 965:..\common\ud3core/cli_common.c ****     if(inverted) signal = !signal; 
 3201              		.loc 1 965 0
 3202 0004 11B1     		cbz	r1, .L232
 3203              		.loc 1 965 0 is_stmt 0 discriminator 1
 3204 0006 B0FA80F0 		clz	r0, r0
 3205              	.LVL384:
 3206 000a 4009     		lsrs	r0, r0, #5
 3207              	.LVL385:
 3208              	.L232:
 966:..\common\ud3core/cli_common.c ****     if(signal){
 3209              		.loc 1 966 0 is_stmt 1
 3210 000c 38B1     		cbz	r0, .L233
 3211              	.LVL386:
 3212              	.LBB27:
 3213              	.LBB28:
 967:..\common\ud3core/cli_common.c ****         TERM_sendVT100Code(handle, _VT100_FOREGROUND_COLOR, _VT100_RED);
 3214              		.loc 1 967 0
 3215 000e 0221     		movs	r1, #2
 3216              	.LVL387:
 3217 0010 0122     		movs	r2, #1
 3218              	.LVL388:
 3219 0012 2046     		mov	r0, r4
 3220 0014 FFF7FEFF 		bl	TERM_sendVT100Code
 3221              	.LVL389:
 968:..\common\ud3core/cli_common.c ****         ttprintf("true ");
 3222              		.loc 1 968 0
 3223 0018 636A     		ldr	r3, [r4, #36]
 3224 001a 0949     		ldr	r1, .L238
 3225 001c 06E0     		b	.L237
 3226              	.LVL390:
 3227              	.L233:
 3228              	.LBE28:
 3229              	.LBE27:
 969:..\common\ud3core/cli_common.c ****         TERM_sendVT100Code(handle, _VT100_FOREGROUND_COLOR, _VT100_WHITE);
 970:..\common\ud3core/cli_common.c ****     }else{
 971:..\common\ud3core/cli_common.c ****         TERM_sendVT100Code(handle, _VT100_FOREGROUND_COLOR, _VT100_GREEN);
 3230              		.loc 1 971 0
 3231 001e 0222     		movs	r2, #2
 3232              	.LVL391:
 3233 0020 1146     		mov	r1, r2
 3234              	.LVL392:
 3235 0022 2046     		mov	r0, r4
 3236 0024 FFF7FEFF 		bl	TERM_sendVT100Code
 3237              	.LVL393:
 972:..\common\ud3core/cli_common.c ****         ttprintf("false");
 3238              		.loc 1 972 0
 3239 0028 636A     		ldr	r3, [r4, #36]
 3240 002a 0649     		ldr	r1, .L238+4
 3241              	.L237:
ARM GAS  C:\Users\chemi\AppData\Local\Temp\ccFrP3K3.s 			page 79


 3242 002c 6068     		ldr	r0, [r4, #4]
 3243 002e 9847     		blx	r3
 3244              	.LVL394:
 973:..\common\ud3core/cli_common.c ****         TERM_sendVT100Code(handle, _VT100_FOREGROUND_COLOR, _VT100_WHITE);
 3245              		.loc 1 973 0
 3246 0030 2046     		mov	r0, r4
 974:..\common\ud3core/cli_common.c ****     }
 975:..\common\ud3core/cli_common.c **** }
 3247              		.loc 1 975 0
 3248 0032 BDE81040 		pop	{r4, lr}
 3249              		.cfi_restore 14
 3250              		.cfi_restore 4
 3251              		.cfi_def_cfa_offset 0
 3252              	.LVL395:
 973:..\common\ud3core/cli_common.c ****         TERM_sendVT100Code(handle, _VT100_FOREGROUND_COLOR, _VT100_WHITE);
 3253              		.loc 1 973 0
 3254 0036 0722     		movs	r2, #7
 3255 0038 0221     		movs	r1, #2
 3256 003a FFF7FEBF 		b	TERM_sendVT100Code
 3257              	.LVL396:
 3258              	.L239:
 3259 003e 00BF     		.align	2
 3260              	.L238:
 3261 0040 D2050000 		.word	.LC72
 3262 0044 D8050000 		.word	.LC73
 3263              		.cfi_endproc
 3264              	.LFE101:
 3265              		.size	send_signal_state_wo_new, .-send_signal_state_wo_new
 3266              		.section	.text.CMD_signals,"ax",%progbits
 3267              		.align	1
 3268              		.global	CMD_signals
 3269              		.thumb
 3270              		.thumb_func
 3271              		.type	CMD_signals, %function
 3272              	CMD_signals:
 3273              	.LFB102:
 976:..\common\ud3core/cli_common.c **** 
 977:..\common\ud3core/cli_common.c **** uint8_t CMD_signals(TERMINAL_HANDLE * handle, uint8_t argCount, char ** args){
 3274              		.loc 1 977 0
 3275              		.cfi_startproc
 3276              		@ args = 0, pretend = 0, frame = 0
 3277              		@ frame_needed = 0, uses_anonymous_args = 0
 3278              	.LVL397:
 3279 0000 2DE9F743 		push	{r0, r1, r2, r4, r5, r6, r7, r8, r9, lr}
 3280              		.cfi_def_cfa_offset 40
 3281              		.cfi_offset 4, -28
 3282              		.cfi_offset 5, -24
 3283              		.cfi_offset 6, -20
 3284              		.cfi_offset 7, -16
 3285              		.cfi_offset 8, -12
 3286              		.cfi_offset 9, -8
 3287              		.cfi_offset 14, -4
 3288              		.loc 1 977 0
 3289 0004 0446     		mov	r4, r0
 978:..\common\ud3core/cli_common.c ****     TERM_sendVT100Code(handle, _VT100_CLS, 0);
 3290              		.loc 1 978 0
 3291 0006 0022     		movs	r2, #0
ARM GAS  C:\Users\chemi\AppData\Local\Temp\ccFrP3K3.s 			page 80


 3292              	.LVL398:
 3293 0008 1B21     		movs	r1, #27
 3294              	.LVL399:
 3295 000a FFF7FEFF 		bl	TERM_sendVT100Code
 3296              	.LVL400:
 979:..\common\ud3core/cli_common.c ****     TERM_sendVT100Code(handle, _VT100_CURSOR_DISABLE, 0);
 3297              		.loc 1 979 0
 3298 000e 0022     		movs	r2, #0
 3299 0010 1921     		movs	r1, #25
 3300 0012 2046     		mov	r0, r4
 3301 0014 FFF7FEFF 		bl	TERM_sendVT100Code
 3302              	.LVL401:
 3303              	.L249:
 980:..\common\ud3core/cli_common.c ****     do{
 981:..\common\ud3core/cli_common.c ****         TERM_sendVT100Code(handle, _VT100_CURSOR_POS1, 0);
 3304              		.loc 1 981 0
 3305 0018 0022     		movs	r2, #0
 3306 001a 1146     		mov	r1, r2
 3307 001c 2046     		mov	r0, r4
 3308 001e FFF7FEFF 		bl	TERM_sendVT100Code
 3309              	.LVL402:
 982:..\common\ud3core/cli_common.c ****         ttprintf("Signal state [CTRL+C] for quit:\r\n");
 3310              		.loc 1 982 0
 3311 0022 636A     		ldr	r3, [r4, #36]
 3312 0024 9E49     		ldr	r1, .L252
 3313 0026 6068     		ldr	r0, [r4, #4]
 3314 0028 9847     		blx	r3
 3315              	.LVL403:
 983:..\common\ud3core/cli_common.c ****         ttprintf("**************************\r\n");
 3316              		.loc 1 983 0
 3317 002a 636A     		ldr	r3, [r4, #36]
 3318 002c 9D49     		ldr	r1, .L252+4
 3319 002e 6068     		ldr	r0, [r4, #4]
 3320 0030 9847     		blx	r3
 3321              	.LVL404:
 984:..\common\ud3core/cli_common.c ****         ttprintf("UVLO pin: ");
 3322              		.loc 1 984 0
 3323 0032 636A     		ldr	r3, [r4, #36]
 3324 0034 9C49     		ldr	r1, .L252+8
 3325 0036 6068     		ldr	r0, [r4, #4]
 3326 0038 9847     		blx	r3
 3327              	.LVL405:
 985:..\common\ud3core/cli_common.c ****         send_signal_state_wo_new(UVLO_Read(), pdTRUE, handle);
 3328              		.loc 1 985 0
 3329 003a FFF7FEFF 		bl	UVLO_Read
 3330              	.LVL406:
 3331 003e 2246     		mov	r2, r4
 3332 0040 0121     		movs	r1, #1
 3333 0042 FFF7FEFF 		bl	send_signal_state_wo_new
 3334              	.LVL407:
 986:..\common\ud3core/cli_common.c ****         ttprintf(" Clock failure: ");
 3335              		.loc 1 986 0
 3336 0046 636A     		ldr	r3, [r4, #36]
 3337 0048 9849     		ldr	r1, .L252+12
 3338 004a 6068     		ldr	r0, [r4, #4]
 3339 004c 9847     		blx	r3
 3340              	.LVL408:
ARM GAS  C:\Users\chemi\AppData\Local\Temp\ccFrP3K3.s 			page 81


 987:..\common\ud3core/cli_common.c ****         #ifndef SIMULATOR
 988:..\common\ud3core/cli_common.c ****         send_signal_state_new(!(CY_GET_XTND_REG8((void CYFAR *)CYREG_FASTCLK_XMHZ_CSR) & 0x80u),pdT
 3341              		.loc 1 988 0
 3342 004e 984B     		ldr	r3, .L252+16
 989:..\common\ud3core/cli_common.c ****         #else
 990:..\common\ud3core/cli_common.c ****         send_signal_state_new(1,pdTRUE,handle);
 991:..\common\ud3core/cli_common.c ****         #endif
 992:..\common\ud3core/cli_common.c ****         ttprintf("Sysfault driver undervoltage: ");
 993:..\common\ud3core/cli_common.c ****         send_signal_state_new(sysfault.uvlo,pdFALSE,handle);
 3343              		.loc 1 993 0
 3344 0050 984D     		ldr	r5, .L252+20
 988:..\common\ud3core/cli_common.c ****         #else
 3345              		.loc 1 988 0
 3346 0052 1878     		ldrb	r0, [r3]	@ zero_extendqisi2
 3347 0054 2246     		mov	r2, r4
 3348 0056 C043     		mvns	r0, r0
 3349 0058 0121     		movs	r1, #1
 3350 005a C0F3C010 		ubfx	r0, r0, #7, #1
 3351 005e FFF7FEFF 		bl	send_signal_state_new
 3352              	.LVL409:
 992:..\common\ud3core/cli_common.c ****         send_signal_state_new(sysfault.uvlo,pdFALSE,handle);
 3353              		.loc 1 992 0
 3354 0062 636A     		ldr	r3, [r4, #36]
 3355 0064 9449     		ldr	r1, .L252+24
 3356 0066 6068     		ldr	r0, [r4, #4]
 3357 0068 9847     		blx	r3
 3358              	.LVL410:
 3359              		.loc 1 993 0
 3360 006a 2246     		mov	r2, r4
 3361 006c 2878     		ldrb	r0, [r5]	@ zero_extendqisi2
 3362 006e 0021     		movs	r1, #0
 3363 0070 FFF7FEFF 		bl	send_signal_state_new
 3364              	.LVL411:
 994:..\common\ud3core/cli_common.c ****         ttprintf("Sysfault Temp 1: ");
 3365              		.loc 1 994 0
 3366 0074 636A     		ldr	r3, [r4, #36]
 3367 0076 9149     		ldr	r1, .L252+28
 3368 0078 6068     		ldr	r0, [r4, #4]
 3369 007a 9847     		blx	r3
 3370              	.LVL412:
 995:..\common\ud3core/cli_common.c ****         send_signal_state_wo_new(sysfault.temp1,pdFALSE,handle);
 3371              		.loc 1 995 0
 3372 007c 2246     		mov	r2, r4
 3373 007e 6878     		ldrb	r0, [r5, #1]	@ zero_extendqisi2
 3374 0080 0021     		movs	r1, #0
 3375 0082 FFF7FEFF 		bl	send_signal_state_wo_new
 3376              	.LVL413:
 996:..\common\ud3core/cli_common.c ****         ttprintf(" Temp 2: ");
 3377              		.loc 1 996 0
 3378 0086 636A     		ldr	r3, [r4, #36]
 3379 0088 8D49     		ldr	r1, .L252+32
 3380 008a 6068     		ldr	r0, [r4, #4]
 3381 008c 9847     		blx	r3
 3382              	.LVL414:
 997:..\common\ud3core/cli_common.c ****         send_signal_state_new(sysfault.temp2,pdFALSE,handle);
 3383              		.loc 1 997 0
 3384 008e 2246     		mov	r2, r4
ARM GAS  C:\Users\chemi\AppData\Local\Temp\ccFrP3K3.s 			page 82


 3385 0090 A878     		ldrb	r0, [r5, #2]	@ zero_extendqisi2
 3386 0092 0021     		movs	r1, #0
 3387 0094 FFF7FEFF 		bl	send_signal_state_new
 3388              	.LVL415:
 998:..\common\ud3core/cli_common.c ****         ttprintf("Sysfault fuse: ");
 3389              		.loc 1 998 0
 3390 0098 636A     		ldr	r3, [r4, #36]
 3391 009a 8A49     		ldr	r1, .L252+36
 3392 009c 6068     		ldr	r0, [r4, #4]
 3393 009e 9847     		blx	r3
 3394              	.LVL416:
 999:..\common\ud3core/cli_common.c ****         send_signal_state_wo_new(sysfault.fuse,pdFALSE,handle);
 3395              		.loc 1 999 0
 3396 00a0 2246     		mov	r2, r4
 3397 00a2 E878     		ldrb	r0, [r5, #3]	@ zero_extendqisi2
 3398 00a4 0021     		movs	r1, #0
 3399 00a6 FFF7FEFF 		bl	send_signal_state_wo_new
 3400              	.LVL417:
1000:..\common\ud3core/cli_common.c ****         ttprintf(" charging: ");
 3401              		.loc 1 1000 0
 3402 00aa 636A     		ldr	r3, [r4, #36]
 3403 00ac 8649     		ldr	r1, .L252+40
 3404 00ae 6068     		ldr	r0, [r4, #4]
 3405 00b0 9847     		blx	r3
 3406              	.LVL418:
1001:..\common\ud3core/cli_common.c ****         send_signal_state_new(sysfault.charge,pdFALSE,handle);
 3407              		.loc 1 1001 0
 3408 00b2 2246     		mov	r2, r4
 3409 00b4 2879     		ldrb	r0, [r5, #4]	@ zero_extendqisi2
 3410 00b6 0021     		movs	r1, #0
 3411 00b8 FFF7FEFF 		bl	send_signal_state_new
 3412              	.LVL419:
1002:..\common\ud3core/cli_common.c ****         ttprintf("Sysfault watchdog: ");
 3413              		.loc 1 1002 0
 3414 00bc 636A     		ldr	r3, [r4, #36]
 3415 00be 8349     		ldr	r1, .L252+44
 3416 00c0 6068     		ldr	r0, [r4, #4]
 3417 00c2 9847     		blx	r3
 3418              	.LVL420:
1003:..\common\ud3core/cli_common.c ****         send_signal_state_wo_new(sysfault.watchdog,pdFALSE,handle);
 3419              		.loc 1 1003 0
 3420 00c4 2246     		mov	r2, r4
 3421 00c6 6879     		ldrb	r0, [r5, #5]	@ zero_extendqisi2
 3422 00c8 0021     		movs	r1, #0
 3423 00ca FFF7FEFF 		bl	send_signal_state_wo_new
 3424              	.LVL421:
1004:..\common\ud3core/cli_common.c ****         ttprintf(" updating: ");
 3425              		.loc 1 1004 0
 3426 00ce 636A     		ldr	r3, [r4, #36]
 3427 00d0 7F49     		ldr	r1, .L252+48
 3428 00d2 6068     		ldr	r0, [r4, #4]
 3429 00d4 9847     		blx	r3
 3430              	.LVL422:
1005:..\common\ud3core/cli_common.c ****         send_signal_state_new(sysfault.update,pdFALSE,handle);
 3431              		.loc 1 1005 0
 3432 00d6 2246     		mov	r2, r4
 3433 00d8 A879     		ldrb	r0, [r5, #6]	@ zero_extendqisi2
ARM GAS  C:\Users\chemi\AppData\Local\Temp\ccFrP3K3.s 			page 83


 3434 00da 0021     		movs	r1, #0
 3435 00dc FFF7FEFF 		bl	send_signal_state_new
 3436              	.LVL423:
1006:..\common\ud3core/cli_common.c ****         ttprintf("Sysfault bus uvlo: ");
 3437              		.loc 1 1006 0
 3438 00e0 636A     		ldr	r3, [r4, #36]
 3439 00e2 7C49     		ldr	r1, .L252+52
 3440 00e4 6068     		ldr	r0, [r4, #4]
 3441 00e6 9847     		blx	r3
 3442              	.LVL424:
1007:..\common\ud3core/cli_common.c ****         send_signal_state_wo_new(sysfault.bus_uv,pdFALSE,handle);
 3443              		.loc 1 1007 0
 3444 00e8 2246     		mov	r2, r4
 3445 00ea E879     		ldrb	r0, [r5, #7]	@ zero_extendqisi2
 3446 00ec 0021     		movs	r1, #0
 3447 00ee FFF7FEFF 		bl	send_signal_state_wo_new
 3448              	.LVL425:
1008:..\common\ud3core/cli_common.c ****         ttprintf(" feedback: ");
 3449              		.loc 1 1008 0
 3450 00f2 636A     		ldr	r3, [r4, #36]
 3451 00f4 7849     		ldr	r1, .L252+56
 3452 00f6 6068     		ldr	r0, [r4, #4]
 3453 00f8 9847     		blx	r3
 3454              	.LVL426:
1009:..\common\ud3core/cli_common.c ****         send_signal_state_new(sysfault.feedback,pdFALSE,handle);
 3455              		.loc 1 1009 0
 3456 00fa 2246     		mov	r2, r4
 3457 00fc A87A     		ldrb	r0, [r5, #10]	@ zero_extendqisi2
 3458 00fe 0021     		movs	r1, #0
 3459 0100 FFF7FEFF 		bl	send_signal_state_new
 3460              	.LVL427:
1010:..\common\ud3core/cli_common.c ****         ttprintf("Sysfault interlock: ");
 3461              		.loc 1 1010 0
 3462 0104 636A     		ldr	r3, [r4, #36]
 3463 0106 7549     		ldr	r1, .L252+60
 3464 0108 6068     		ldr	r0, [r4, #4]
 3465 010a 9847     		blx	r3
 3466              	.LVL428:
1011:..\common\ud3core/cli_common.c ****         send_signal_state_wo_new(sysfault.interlock,pdFALSE,handle);
 3467              		.loc 1 1011 0
 3468 010c 2246     		mov	r2, r4
 3469 010e 287A     		ldrb	r0, [r5, #8]	@ zero_extendqisi2
 3470 0110 0021     		movs	r1, #0
 3471 0112 FFF7FEFF 		bl	send_signal_state_wo_new
 3472              	.LVL429:
1012:..\common\ud3core/cli_common.c ****         ttprintf(" link: ");
 3473              		.loc 1 1012 0
 3474 0116 636A     		ldr	r3, [r4, #36]
 3475 0118 7149     		ldr	r1, .L252+64
 3476 011a 6068     		ldr	r0, [r4, #4]
 3477 011c 9847     		blx	r3
 3478              	.LVL430:
1013:..\common\ud3core/cli_common.c ****         send_signal_state_wo_new(sysfault.link_state,pdFALSE,handle);
 3479              		.loc 1 1013 0
 3480 011e 2246     		mov	r2, r4
 3481 0120 687A     		ldrb	r0, [r5, #9]	@ zero_extendqisi2
 3482 0122 0021     		movs	r1, #0
ARM GAS  C:\Users\chemi\AppData\Local\Temp\ccFrP3K3.s 			page 84


 3483 0124 FFF7FEFF 		bl	send_signal_state_wo_new
 3484              	.LVL431:
1014:..\common\ud3core/cli_common.c ****         ttprintf(" combined: ");
 3485              		.loc 1 1014 0
 3486 0128 636A     		ldr	r3, [r4, #36]
 3487 012a 6E49     		ldr	r1, .L252+68
 3488 012c 6068     		ldr	r0, [r4, #4]
 3489 012e 9847     		blx	r3
 3490              	.LVL432:
1015:..\common\ud3core/cli_common.c ****         send_signal_state_new(system_fault_Read(),pdTRUE,handle);
 3491              		.loc 1 1015 0
 3492 0130 FFF7FEFF 		bl	system_fault_Read
 3493              	.LVL433:
 3494 0134 2246     		mov	r2, r4
 3495 0136 0121     		movs	r1, #1
 3496 0138 FFF7FEFF 		bl	send_signal_state_new
 3497              	.LVL434:
1016:..\common\ud3core/cli_common.c ****         ttprintf("Feedback errors: %4u\r\n", feedback_error_cnt);
 3498              		.loc 1 1016 0
 3499 013c 6A4A     		ldr	r2, .L252+72
 3500 013e 636A     		ldr	r3, [r4, #36]
 3501 0140 1268     		ldr	r2, [r2]
 3502 0142 6A49     		ldr	r1, .L252+76
 3503 0144 6068     		ldr	r0, [r4, #4]
 3504 0146 9847     		blx	r3
 3505              	.LVL435:
1017:..\common\ud3core/cli_common.c ****         ttprintf("Relay 1: ");
 3506              		.loc 1 1017 0
 3507 0148 636A     		ldr	r3, [r4, #36]
 3508 014a 6949     		ldr	r1, .L252+80
 3509 014c 6068     		ldr	r0, [r4, #4]
 3510 014e 9847     		blx	r3
 3511              	.LVL436:
1018:..\common\ud3core/cli_common.c ****         send_signal_state_wo_new(relay_read_bus(),pdFALSE,handle);
 3512              		.loc 1 1018 0
 3513 0150 FFF7FEFF 		bl	Relay1_Read
 3514              	.LVL437:
 3515 0154 2246     		mov	r2, r4
 3516 0156 0021     		movs	r1, #0
 3517 0158 FFF7FEFF 		bl	send_signal_state_wo_new
 3518              	.LVL438:
1019:..\common\ud3core/cli_common.c ****         ttprintf(" Relay 2: ");
 3519              		.loc 1 1019 0
 3520 015c 636A     		ldr	r3, [r4, #36]
 3521 015e 6549     		ldr	r1, .L252+84
 3522 0160 6068     		ldr	r0, [r4, #4]
 3523 0162 9847     		blx	r3
 3524              	.LVL439:
1020:..\common\ud3core/cli_common.c ****         send_signal_state_wo_new(relay_read_charge_end(),pdFALSE,handle);
 3525              		.loc 1 1020 0
 3526 0164 FFF7FEFF 		bl	Relay2_Read
 3527              	.LVL440:
 3528 0168 2246     		mov	r2, r4
 3529 016a 0021     		movs	r1, #0
 3530 016c FFF7FEFF 		bl	send_signal_state_wo_new
 3531              	.LVL441:
1021:..\common\ud3core/cli_common.c ****         ttprintf(" Relay 3: ");
ARM GAS  C:\Users\chemi\AppData\Local\Temp\ccFrP3K3.s 			page 85


 3532              		.loc 1 1021 0
 3533 0170 636A     		ldr	r3, [r4, #36]
 3534 0172 6149     		ldr	r1, .L252+88
 3535 0174 6068     		ldr	r0, [r4, #4]
 3536 0176 9847     		blx	r3
 3537              	.LVL442:
1022:..\common\ud3core/cli_common.c ****         send_signal_state_wo_new(Relay3_Read(),pdFALSE,handle);
 3538              		.loc 1 1022 0
 3539 0178 FFF7FEFF 		bl	Relay3_Read
 3540              	.LVL443:
 3541 017c 2246     		mov	r2, r4
 3542 017e 0021     		movs	r1, #0
 3543 0180 FFF7FEFF 		bl	send_signal_state_wo_new
 3544              	.LVL444:
1023:..\common\ud3core/cli_common.c ****         ttprintf(" Relay 4: ");
 3545              		.loc 1 1023 0
 3546 0184 636A     		ldr	r3, [r4, #36]
 3547 0186 5D49     		ldr	r1, .L252+92
 3548 0188 6068     		ldr	r0, [r4, #4]
 3549 018a 9847     		blx	r3
 3550              	.LVL445:
1024:..\common\ud3core/cli_common.c ****         send_signal_state_new(Relay4_Read(),pdFALSE,handle);
 3551              		.loc 1 1024 0
 3552 018c FFF7FEFF 		bl	Relay4_Read
 3553              	.LVL446:
 3554 0190 2246     		mov	r2, r4
 3555 0192 0021     		movs	r1, #0
 3556 0194 FFF7FEFF 		bl	send_signal_state_new
 3557              	.LVL447:
1025:..\common\ud3core/cli_common.c ****         ttprintf("Fan: ");
 3558              		.loc 1 1025 0
 3559 0198 636A     		ldr	r3, [r4, #36]
 3560 019a 5949     		ldr	r1, .L252+96
 3561 019c 6068     		ldr	r0, [r4, #4]
 3562 019e 9847     		blx	r3
 3563              	.LVL448:
1026:..\common\ud3core/cli_common.c ****         send_signal_state_wo_new(Fan_Read(),pdFALSE,handle);
 3564              		.loc 1 1026 0
 3565 01a0 FFF7FEFF 		bl	Fan_Read
 3566              	.LVL449:
 3567 01a4 2246     		mov	r2, r4
 3568 01a6 0021     		movs	r1, #0
 3569 01a8 FFF7FEFF 		bl	send_signal_state_wo_new
 3570              	.LVL450:
1027:..\common\ud3core/cli_common.c ****         ttprintf(" Bus status: ");
1028:..\common\ud3core/cli_common.c ****         TERM_sendVT100Code(handle, _VT100_FOREGROUND_COLOR, _VT100_CYAN);
1029:..\common\ud3core/cli_common.c ****         switch(tt.n.bus_status.value){
 3571              		.loc 1 1029 0
 3572 01ac 554D     		ldr	r5, .L252+100
1027:..\common\ud3core/cli_common.c ****         ttprintf(" Bus status: ");
 3573              		.loc 1 1027 0
 3574 01ae 636A     		ldr	r3, [r4, #36]
 3575 01b0 5549     		ldr	r1, .L252+104
 3576 01b2 6068     		ldr	r0, [r4, #4]
 3577 01b4 9847     		blx	r3
 3578              	.LVL451:
1028:..\common\ud3core/cli_common.c ****         switch(tt.n.bus_status.value){
ARM GAS  C:\Users\chemi\AppData\Local\Temp\ccFrP3K3.s 			page 86


 3579              		.loc 1 1028 0
 3580 01b6 0622     		movs	r2, #6
 3581 01b8 0221     		movs	r1, #2
 3582 01ba 2046     		mov	r0, r4
 3583 01bc FFF7FEFF 		bl	TERM_sendVT100Code
 3584              	.LVL452:
 3585              		.loc 1 1029 0
 3586 01c0 D5F8A020 		ldr	r2, [r5, #160]
 3587 01c4 636A     		ldr	r3, [r4, #36]
 3588 01c6 072A     		cmp	r2, #7
 3589 01c8 12D8     		bhi	.L241
 3590 01ca DFE802F0 		tbb	[pc, r2]
 3591              	.L243:
 3592 01ce 0A       		.byte	(.L242-.L243)/2
 3593 01cf 08       		.byte	(.L244-.L243)/2
 3594 01d0 0C       		.byte	(.L245-.L243)/2
 3595 01d1 0E       		.byte	(.L246-.L243)/2
 3596 01d2 11       		.byte	(.L241-.L243)/2
 3597 01d3 11       		.byte	(.L241-.L243)/2
 3598 01d4 04       		.byte	(.L247-.L243)/2
 3599 01d5 06       		.byte	(.L248-.L243)/2
 3600              		.p2align 1
 3601              	.L247:
1030:..\common\ud3core/cli_common.c ****             case BUS_BATT_OV_FLT:
1031:..\common\ud3core/cli_common.c ****                 ttprintf("Overvoltage      ");
 3602              		.loc 1 1031 0
 3603 01d6 4D49     		ldr	r1, .L252+108
 3604 01d8 08E0     		b	.L251
 3605              	.L248:
1032:..\common\ud3core/cli_common.c ****             break;
1033:..\common\ud3core/cli_common.c ****             case BUS_BATT_UV_FLT:
1034:..\common\ud3core/cli_common.c ****                 ttprintf("Undervoltage     ");
 3606              		.loc 1 1034 0
 3607 01da 4D49     		ldr	r1, .L252+112
 3608 01dc 06E0     		b	.L251
 3609              	.L244:
1035:..\common\ud3core/cli_common.c ****             break;
1036:..\common\ud3core/cli_common.c ****             case BUS_CHARGING:
1037:..\common\ud3core/cli_common.c ****                 ttprintf("Charging         ");
 3610              		.loc 1 1037 0
 3611 01de 4D49     		ldr	r1, .L252+116
 3612 01e0 04E0     		b	.L251
 3613              	.L242:
1038:..\common\ud3core/cli_common.c ****             break;
1039:..\common\ud3core/cli_common.c ****             case BUS_OFF:
1040:..\common\ud3core/cli_common.c ****                 ttprintf("Off              ");
 3614              		.loc 1 1040 0
 3615 01e2 4D49     		ldr	r1, .L252+120
 3616 01e4 02E0     		b	.L251
 3617              	.L245:
1041:..\common\ud3core/cli_common.c ****             break;
1042:..\common\ud3core/cli_common.c ****             case BUS_READY:
1043:..\common\ud3core/cli_common.c ****                 ttprintf("Ready            ");
 3618              		.loc 1 1043 0
 3619 01e6 4D49     		ldr	r1, .L252+124
 3620 01e8 00E0     		b	.L251
 3621              	.L246:
ARM GAS  C:\Users\chemi\AppData\Local\Temp\ccFrP3K3.s 			page 87


1044:..\common\ud3core/cli_common.c ****             break;
1045:..\common\ud3core/cli_common.c ****             case BUS_TEMP1_FAULT:
1046:..\common\ud3core/cli_common.c ****                 ttprintf("Temperature fault");
 3622              		.loc 1 1046 0
 3623 01ea 4D49     		ldr	r1, .L252+128
 3624              	.L251:
 3625 01ec 6068     		ldr	r0, [r4, #4]
 3626 01ee 9847     		blx	r3
 3627              	.LVL453:
 3628              	.L241:
1047:..\common\ud3core/cli_common.c ****             break;
1048:..\common\ud3core/cli_common.c ****         }
1049:..\common\ud3core/cli_common.c ****         ttprintf("\r\n");
 3629              		.loc 1 1049 0
 3630 01f0 636A     		ldr	r3, [r4, #36]
 3631 01f2 4C49     		ldr	r1, .L252+132
 3632 01f4 6068     		ldr	r0, [r4, #4]
 3633 01f6 9847     		blx	r3
 3634              	.LVL454:
1050:..\common\ud3core/cli_common.c ****         TERM_sendVT100Code(handle, _VT100_FOREGROUND_COLOR, _VT100_WHITE);
 3635              		.loc 1 1050 0
 3636 01f8 0722     		movs	r2, #7
 3637 01fa 0221     		movs	r1, #2
 3638 01fc 2046     		mov	r0, r4
 3639 01fe FFF7FEFF 		bl	TERM_sendVT100Code
 3640              	.LVL455:
1051:..\common\ud3core/cli_common.c ****         ttprintf("                                    \r");
 3641              		.loc 1 1051 0
 3642 0202 636A     		ldr	r3, [r4, #36]
 3643 0204 4849     		ldr	r1, .L252+136
 3644 0206 6068     		ldr	r0, [r4, #4]
 3645 0208 9847     		blx	r3
 3646              	.LVL456:
1052:..\common\ud3core/cli_common.c ****         ttprintf("Temp 1: %i.%i*C Temp 2: %i.%i*C\r\n", tt.n.temp1.value/10, tt.n.temp1.value%10, t
 3647              		.loc 1 1052 0
 3648 020a D5F88010 		ldr	r1, [r5, #128]
 3649 020e 0A23     		movs	r3, #10
 3650 0210 91FBF3F6 		sdiv	r6, r1, r3
 3651 0214 286E     		ldr	r0, [r5, #96]
 3652 0216 03FB1611 		mls	r1, r3, r6, r1
 3653 021a 90FBF3F2 		sdiv	r2, r0, r3
 3654 021e 0191     		str	r1, [sp, #4]
 3655 0220 03FB1203 		mls	r3, r3, r2, r0
 3656 0224 0096     		str	r6, [sp]
 3657 0226 4149     		ldr	r1, .L252+140
 3658 0228 666A     		ldr	r6, [r4, #36]
 3659 022a 6068     		ldr	r0, [r4, #4]
 3660 022c B047     		blx	r6
 3661              	.LVL457:
1053:..\common\ud3core/cli_common.c ****         ttprintf("                                    \r");
1054:..\common\ud3core/cli_common.c ****         ttprintf("Vbus: %u mV Vbatt: %u mV\r\n", ADC_CountsTo_mVolts(ADC_active_sample_buf[0].v_bus
 3662              		.loc 1 1054 0
 3663 022e 404E     		ldr	r6, .L252+144
1053:..\common\ud3core/cli_common.c ****         ttprintf("                                    \r");
 3664              		.loc 1 1053 0
 3665 0230 3D49     		ldr	r1, .L252+136
 3666 0232 636A     		ldr	r3, [r4, #36]
ARM GAS  C:\Users\chemi\AppData\Local\Temp\ccFrP3K3.s 			page 88


 3667 0234 6068     		ldr	r0, [r4, #4]
 3668 0236 9847     		blx	r3
 3669              	.LVL458:
 3670              		.loc 1 1054 0
 3671 0238 3368     		ldr	r3, [r6]
 3672 023a 676A     		ldr	r7, [r4, #36]
 3673 023c B3F90000 		ldrsh	r0, [r3]
 3674 0240 D4F80480 		ldr	r8, [r4, #4]
 3675 0244 FFF7FEFF 		bl	ADC_CountsTo_mVolts
 3676              	.LVL459:
 3677 0248 3368     		ldr	r3, [r6]
 3678 024a 8146     		mov	r9, r0
 3679 024c B3F90200 		ldrsh	r0, [r3, #2]
 3680 0250 FFF7FEFF 		bl	ADC_CountsTo_mVolts
 3681              	.LVL460:
 3682 0254 4A46     		mov	r2, r9
 3683 0256 0346     		mov	r3, r0
 3684 0258 3649     		ldr	r1, .L252+148
 3685 025a 4046     		mov	r0, r8
 3686 025c B847     		blx	r7
 3687              	.LVL461:
1055:..\common\ud3core/cli_common.c ****         ttprintf("                                    \r");
 3688              		.loc 1 1055 0
 3689 025e 3249     		ldr	r1, .L252+136
 3690 0260 636A     		ldr	r3, [r4, #36]
 3691 0262 6068     		ldr	r0, [r4, #4]
 3692 0264 9847     		blx	r3
 3693              	.LVL462:
1056:..\common\ud3core/cli_common.c ****         ttprintf("Ibus: %u mV Vdriver: %u mV\r\n\r\n", ADC_CountsTo_mVolts(ADC_active_sample_buf[0]
 3694              		.loc 1 1056 0
 3695 0266 3368     		ldr	r3, [r6]
 3696 0268 676A     		ldr	r7, [r4, #36]
 3697 026a B3F90400 		ldrsh	r0, [r3, #4]
 3698 026e D4F80480 		ldr	r8, [r4, #4]
 3699 0272 FFF7FEFF 		bl	ADC_CountsTo_mVolts
 3700              	.LVL463:
 3701 0276 2B6C     		ldr	r3, [r5, #64]
 3702 0278 0246     		mov	r2, r0
 3703 027a 2F49     		ldr	r1, .L252+152
 3704 027c 4046     		mov	r0, r8
 3705 027e B847     		blx	r7
 3706              	.LVL464:
1057:..\common\ud3core/cli_common.c **** 
1058:..\common\ud3core/cli_common.c ****     }while(Term_check_break(handle,250));
 3707              		.loc 1 1058 0
 3708 0280 FA21     		movs	r1, #250
 3709 0282 2046     		mov	r0, r4
 3710 0284 FFF7FEFF 		bl	Term_check_break
 3711              	.LVL465:
 3712 0288 0246     		mov	r2, r0
 3713 028a 0028     		cmp	r0, #0
 3714 028c 7FF4C4AE 		bne	.L249
1059:..\common\ud3core/cli_common.c ****     
1060:..\common\ud3core/cli_common.c ****     TERM_sendVT100Code(handle, _VT100_RESET_ATTRIB, 0);
 3715              		.loc 1 1060 0
 3716 0290 2046     		mov	r0, r4
 3717 0292 0421     		movs	r1, #4
ARM GAS  C:\Users\chemi\AppData\Local\Temp\ccFrP3K3.s 			page 89


 3718 0294 FFF7FEFF 		bl	TERM_sendVT100Code
 3719              	.LVL466:
1061:..\common\ud3core/cli_common.c **** 
1062:..\common\ud3core/cli_common.c ****     return TERM_CMD_EXIT_SUCCESS;
1063:..\common\ud3core/cli_common.c **** }
 3720              		.loc 1 1063 0
 3721 0298 FF20     		movs	r0, #255
 3722 029a 03B0     		add	sp, sp, #12
 3723              		.cfi_def_cfa_offset 28
 3724              		@ sp needed
 3725 029c BDE8F083 		pop	{r4, r5, r6, r7, r8, r9, pc}
 3726              	.LVL467:
 3727              	.L253:
 3728              		.align	2
 3729              	.L252:
 3730 02a0 DE050000 		.word	.LC74
 3731 02a4 00060000 		.word	.LC75
 3732 02a8 1D060000 		.word	.LC76
 3733 02ac 28060000 		.word	.LC77
 3734 02b0 10420040 		.word	1073758736
 3735 02b4 00000000 		.word	sysfault
 3736 02b8 39060000 		.word	.LC78
 3737 02bc 58060000 		.word	.LC79
 3738 02c0 6A060000 		.word	.LC80
 3739 02c4 74060000 		.word	.LC81
 3740 02c8 84060000 		.word	.LC82
 3741 02cc 90060000 		.word	.LC83
 3742 02d0 A4060000 		.word	.LC84
 3743 02d4 B0060000 		.word	.LC85
 3744 02d8 C4060000 		.word	.LC86
 3745 02dc D0060000 		.word	.LC87
 3746 02e0 E5060000 		.word	.LC88
 3747 02e4 ED060000 		.word	.LC89
 3748 02e8 00000000 		.word	feedback_error_cnt
 3749 02ec F9060000 		.word	.LC90
 3750 02f0 10070000 		.word	.LC91
 3751 02f4 1A070000 		.word	.LC92
 3752 02f8 25070000 		.word	.LC93
 3753 02fc 30070000 		.word	.LC94
 3754 0300 3B070000 		.word	.LC95
 3755 0304 00000000 		.word	tt
 3756 0308 41070000 		.word	.LC96
 3757 030c 4F070000 		.word	.LC97
 3758 0310 61070000 		.word	.LC98
 3759 0314 73070000 		.word	.LC99
 3760 0318 85070000 		.word	.LC100
 3761 031c 97070000 		.word	.LC101
 3762 0320 A9070000 		.word	.LC102
 3763 0324 BB070000 		.word	.LC103
 3764 0328 BE070000 		.word	.LC104
 3765 032c E4070000 		.word	.LC105
 3766 0330 00000000 		.word	ADC_active_sample_buf
 3767 0334 06080000 		.word	.LC106
 3768 0338 21080000 		.word	.LC107
 3769              		.cfi_endproc
 3770              	.LFE102:
 3771              		.size	CMD_signals, .-CMD_signals
ARM GAS  C:\Users\chemi\AppData\Local\Temp\ccFrP3K3.s 			page 90


 3772              		.global	confparam
 3773              		.comm	param,36,2
 3774              		.comm	configuration,124,4
 3775              		.comm	ramp,406,2
 3776              		.comm	bus_command,1,1
 3777              		.comm	interrupter,12,4
 3778              		.comm	ct1_dac_val,3,1
 3779              		.comm	params,26,2
 3780              		.section	.rodata
 3781              		.align	2
 3782              		.set	.LANCHOR1,. + 0
 3783              		.type	version, %object
 3784              		.size	version, 24
 3785              	version:
 3786 0000 CE130000 		.word	.LC261
 3787 0004 DB130000 		.word	.LC262
 3788 0008 FB130000 		.word	.LC263
 3789 000c 09140000 		.word	.LC264
 3790 0010 17140000 		.word	.LC265
 3791 0014 2F140000 		.word	.LC266
 3792              		.section	.rodata.str1.1,"aMS",%progbits,1
 3793              	.LC0:
 3794 0000 4552524F 		.ascii	"ERROR: tune_start > tune_end\015\012\000"
 3794      523A2074 
 3794      756E655F 
 3794      73746172 
 3794      74203E20 
 3795              	.LC1:
 3796 001f 6374325F 		.ascii	"ct2_current\000"
 3796      63757272 
 3796      656E7400 
 3797              	.LC2:
 3798 002b 6374325F 		.ascii	"ct2_voltage\000"
 3798      766F6C74 
 3798      61676500 
 3799              	.LC3:
 3800 0037 6374325F 		.ascii	"ct2_offset\000"
 3800      6F666673 
 3800      657400
 3801              	.LC4:
 3802 0042 6374325F 		.ascii	"ct2_ratio\000"
 3802      72617469 
 3802      6F00
 3803              	.LC5:
 3804 004c 6374325F 		.ascii	"ct2_burden\000"
 3804      62757264 
 3804      656E00
 3805              	.LC6:
 3806 0057 76647269 		.ascii	"vdrive\000"
 3806      766500
 3807              	.LC7:
 3808 005e 5761726E 		.ascii	"Warning: Max CT1 current with the current setup is "
 3808      696E673A 
 3808      204D6178 
 3808      20435431 
 3808      20637572 
 3809 0091 25754120 		.ascii	"%uA for OCD and %uA for peak measurement\015\012\000"
ARM GAS  C:\Users\chemi\AppData\Local\Temp\ccFrP3K3.s 			page 91


 3809      666F7220 
 3809      4F434420 
 3809      616E6420 
 3809      25754120 
 3810              	.LC8:
 3811 00bc 5544332D 		.ascii	"UD3-Tesla\000"
 3811      5465736C 
 3811      6100
 3812              	.LC9:
 3813 00c6 4F6E6C79 		.ascii	"Only the folowing combinations are allowed\015\012\000"
 3813      20746865 
 3813      20666F6C 
 3813      6F77696E 
 3813      6720636F 
 3814              	.LC10:
 3815 00f3 3020203D 		.ascii	"0  = no inversion\015\012\000"
 3815      206E6F20 
 3815      696E7665 
 3815      7273696F 
 3815      6E0D0A00 
 3816              	.LC11:
 3817 0107 3120203D 		.ascii	"1  = rx inverted, tx not inverted\015\012\000"
 3817      20727820 
 3817      696E7665 
 3817      72746564 
