ARM GAS  C:\Users\chemi\AppData\Local\Temp\ccHerMgL.s 			page 1


   1              		.syntax unified
   2              		.cpu cortex-m3
   3              		.fpu softvfp
   4              		.eabi_attribute 20, 1
   5              		.eabi_attribute 21, 1
   6              		.eabi_attribute 23, 3
   7              		.eabi_attribute 24, 1
   8              		.eabi_attribute 25, 1
   9              		.eabi_attribute 26, 1
  10              		.eabi_attribute 30, 4
  11              		.eabi_attribute 34, 1
  12              		.eabi_attribute 18, 4
  13              		.thumb
  14              		.syntax unified
  15              		.file	"cli_basic.c"
  16              		.text
  17              	.Ltext0:
  18              		.cfi_sections	.debug_frame
  19              		.section	.text.n_number,"ax",%progbits
  20              		.align	1
  21              		.global	n_number
  22              		.thumb
  23              		.thumb_func
  24              		.type	n_number, %function
  25              	n_number:
  26              	.LFB68:
  27              		.file 1 "..\\common\\ud3core\\cli_basic.c"
   1:..\common\ud3core/cli_basic.c **** /*
   2:..\common\ud3core/cli_basic.c ****  * UD3
   3:..\common\ud3core/cli_basic.c ****  *
   4:..\common\ud3core/cli_basic.c ****  * Copyright (c) 2018 Jens Kerrinnes
   5:..\common\ud3core/cli_basic.c ****  * Copyright (c) 2015 Steve Ward
   6:..\common\ud3core/cli_basic.c ****  *
   7:..\common\ud3core/cli_basic.c ****  * Permission is hereby granted, free of charge, to any person obtaining a copy of
   8:..\common\ud3core/cli_basic.c ****  * this software and associated documentation files (the "Software"), to deal in
   9:..\common\ud3core/cli_basic.c ****  * the Software without restriction, including without limitation the rights to
  10:..\common\ud3core/cli_basic.c ****  * use, copy, modify, merge, publish, distribute, sublicense, and/or sell copies of
  11:..\common\ud3core/cli_basic.c ****  * the Software, and to permit persons to whom the Software is furnished to do so,
  12:..\common\ud3core/cli_basic.c ****  * subject to the following conditions:
  13:..\common\ud3core/cli_basic.c ****  *
  14:..\common\ud3core/cli_basic.c ****  * The above copyright notice and this permission notice shall be included in all
  15:..\common\ud3core/cli_basic.c ****  * copies or substantial portions of the Software.
  16:..\common\ud3core/cli_basic.c ****  *
  17:..\common\ud3core/cli_basic.c ****  * THE SOFTWARE IS PROVIDED "AS IS", WITHOUT WARRANTY OF ANY KIND, EXPRESS OR
  18:..\common\ud3core/cli_basic.c ****  * IMPLIED, INCLUDING BUT NOT LIMITED TO THE WARRANTIES OF MERCHANTABILITY, FITNESS
  19:..\common\ud3core/cli_basic.c ****  * FOR A PARTICULAR PURPOSE AND NONINFRINGEMENT. IN NO EVENT SHALL THE AUTHORS OR
  20:..\common\ud3core/cli_basic.c ****  * COPYRIGHT HOLDERS BE LIABLE FOR ANY CLAIM, DAMAGES OR OTHER LIABILITY, WHETHER
  21:..\common\ud3core/cli_basic.c ****  * IN AN ACTION OF CONTRACT, TORT OR OTHERWISE, ARISING FROM, OUT OF OR IN
  22:..\common\ud3core/cli_basic.c ****  * CONNECTION WITH THE SOFTWARE OR THE USE OR OTHER DEALINGS IN THE SOFTWARE.
  23:..\common\ud3core/cli_basic.c **** */
  24:..\common\ud3core/cli_basic.c **** #include "tasks/tsk_cli.h"
  25:..\common\ud3core/cli_basic.c **** #include "cli_basic.h"
  26:..\common\ud3core/cli_basic.c **** #include "helper/printf.h"
  27:..\common\ud3core/cli_basic.c **** #include <stdlib.h>
  28:..\common\ud3core/cli_basic.c **** #include <device.h>
  29:..\common\ud3core/cli_basic.c **** #include "TTerm.h"
  30:..\common\ud3core/cli_basic.c **** #ifndef BOOT
ARM GAS  C:\Users\chemi\AppData\Local\Temp\ccHerMgL.s 			page 2


  31:..\common\ud3core/cli_basic.c **** #include "tasks/tsk_usb.h"
  32:..\common\ud3core/cli_basic.c **** #include "tasks/tsk_eth_common.h"
  33:..\common\ud3core/cli_basic.c **** #include "alarmevent.h"
  34:..\common\ud3core/cli_basic.c **** 
  35:..\common\ud3core/cli_basic.c **** #endif
  36:..\common\ud3core/cli_basic.c **** 
  37:..\common\ud3core/cli_basic.c **** uint8_t EEPROM_Read_Row(uint8_t row, uint8_t * buffer);
  38:..\common\ud3core/cli_basic.c **** uint8_t EEPROM_1_Write_Row(uint8_t row, uint8_t * buffer);
  39:..\common\ud3core/cli_basic.c **** 
  40:..\common\ud3core/cli_basic.c **** uint16_t byte_cnt;
  41:..\common\ud3core/cli_basic.c **** 
  42:..\common\ud3core/cli_basic.c **** #define EEPROM_READ_BYTE(x) EEPROM_1_ReadByte(x)
  43:..\common\ud3core/cli_basic.c **** #define EEPROM_WRITE_ROW(x,y) EEPROM_1_Write(y,x)
  44:..\common\ud3core/cli_basic.c **** 
  45:..\common\ud3core/cli_basic.c **** uint8_t n_number(uint32_t n){
  28              		.loc 1 45 0
  29              		.cfi_startproc
  30              		@ args = 0, pretend = 0, frame = 0
  31              		@ frame_needed = 0, uses_anonymous_args = 0
  32              		@ link register save eliminated.
  33              	.LVL0:
  46:..\common\ud3core/cli_basic.c ****   if(n < 100000) {
  34              		.loc 1 46 0
  35 0000 144B     		ldr	r3, .L13
  36 0002 9842     		cmp	r0, r3
  37 0004 10D8     		bhi	.L2
  47:..\common\ud3core/cli_basic.c ****     if(n < 1000) {
  38              		.loc 1 47 0
  39 0006 B0F57A7F 		cmp	r0, #1000
  40 000a 06D2     		bcs	.L3
  41              	.LVL1:
  42              	.LBB4:
  43              	.LBB5:
  48:..\common\ud3core/cli_basic.c ****       if(n < 100) {
  44              		.loc 1 48 0
  45 000c 6328     		cmp	r0, #99
  46 000e 1DD8     		bhi	.L6
  49:..\common\ud3core/cli_basic.c ****         if(n < 10)
  50:..\common\ud3core/cli_basic.c ****           return 1;
  51:..\common\ud3core/cli_basic.c ****         return 2;
  47              		.loc 1 51 0
  48 0010 0A28     		cmp	r0, #10
  49 0012 34BF     		ite	cc
  50 0014 0120     		movcc	r0, #1
  51              	.LVL2:
  52 0016 0220     		movcs	r0, #2
  53 0018 7047     		bx	lr
  54              	.LVL3:
  55              	.L3:
  56              	.LBE5:
  57              	.LBE4:
  52:..\common\ud3core/cli_basic.c ****       }
  53:..\common\ud3core/cli_basic.c ****       return 3;
  54:..\common\ud3core/cli_basic.c ****     }
  55:..\common\ud3core/cli_basic.c ****     if(n < 10000)
  56:..\common\ud3core/cli_basic.c ****       return 4;
  57:..\common\ud3core/cli_basic.c ****     else
ARM GAS  C:\Users\chemi\AppData\Local\Temp\ccHerMgL.s 			page 3


  58:..\common\ud3core/cli_basic.c ****       return 5;
  58              		.loc 1 58 0
  59 001a 42F20F73 		movw	r3, #9999
  60 001e 9842     		cmp	r0, r3
  61 0020 94BF     		ite	ls
  62 0022 0420     		movls	r0, #4
  63 0024 0520     		movhi	r0, #5
  64              	.LVL4:
  65 0026 7047     		bx	lr
  66              	.LVL5:
  67              	.L2:
  59:..\common\ud3core/cli_basic.c ****   }
  60:..\common\ud3core/cli_basic.c ****   if(n < 100000000) {
  68              		.loc 1 60 0
  69 0028 0B4B     		ldr	r3, .L13+4
  70 002a 9842     		cmp	r0, r3
  71 002c 08D8     		bhi	.L5
  61:..\common\ud3core/cli_basic.c ****     if(n < 10000000) {
  72              		.loc 1 61 0
  73 002e 0B4B     		ldr	r3, .L13+8
  74 0030 9842     		cmp	r0, r3
  75 0032 0DD8     		bhi	.L9
  62:..\common\ud3core/cli_basic.c ****       if(n < 1000000)
  63:..\common\ud3core/cli_basic.c ****         return 6;
  64:..\common\ud3core/cli_basic.c ****       return 7;
  76              		.loc 1 64 0
  77 0034 0A4B     		ldr	r3, .L13+12
  78 0036 9842     		cmp	r0, r3
  79 0038 94BF     		ite	ls
  80 003a 0620     		movls	r0, #6
  81 003c 0720     		movhi	r0, #7
  82              	.LVL6:
  83 003e 7047     		bx	lr
  84              	.LVL7:
  85              	.L5:
  65:..\common\ud3core/cli_basic.c ****     }
  66:..\common\ud3core/cli_basic.c ****     return 8;
  67:..\common\ud3core/cli_basic.c ****   }
  68:..\common\ud3core/cli_basic.c ****   if(n < 1000000000)
  69:..\common\ud3core/cli_basic.c ****     return 9;
  70:..\common\ud3core/cli_basic.c ****   else
  71:..\common\ud3core/cli_basic.c ****     return 10;   
  86              		.loc 1 71 0
  87 0040 084B     		ldr	r3, .L13+16
  88 0042 9842     		cmp	r0, r3
  89 0044 94BF     		ite	ls
  90 0046 0920     		movls	r0, #9
  91 0048 0A20     		movhi	r0, #10
  92              	.LVL8:
  93 004a 7047     		bx	lr
  94              	.LVL9:
  95              	.L6:
  96              	.LBB7:
  97              	.LBB6:
  53:..\common\ud3core/cli_basic.c ****     }
  98              		.loc 1 53 0
  99 004c 0320     		movs	r0, #3
ARM GAS  C:\Users\chemi\AppData\Local\Temp\ccHerMgL.s 			page 4


 100              	.LVL10:
 101 004e 7047     		bx	lr
 102              	.LVL11:
 103              	.L9:
 104              	.LBE6:
 105              	.LBE7:
  66:..\common\ud3core/cli_basic.c ****   }
 106              		.loc 1 66 0
 107 0050 0820     		movs	r0, #8
 108              	.LVL12:
  72:..\common\ud3core/cli_basic.c **** }
 109              		.loc 1 72 0
 110 0052 7047     		bx	lr
 111              	.L14:
 112              		.align	2
 113              	.L13:
 114 0054 9F860100 		.word	99999
 115 0058 FFE0F505 		.word	99999999
 116 005c 7F969800 		.word	9999999
 117 0060 3F420F00 		.word	999999
 118 0064 FFC99A3B 		.word	999999999
 119              		.cfi_endproc
 120              	.LFE68:
 121              		.size	n_number, .-n_number
 122              		.global	__aeabi_i2f
 123              		.global	__aeabi_fmul
 124              		.global	__aeabi_f2iz
 125              		.global	__aeabi_fcmpge
 126              		.global	__aeabi_fcmple
 127              		.section	.text.updateDefaultFunction,"ax",%progbits
 128              		.align	1
 129              		.global	updateDefaultFunction
 130              		.thumb
 131              		.thumb_func
 132              		.type	updateDefaultFunction, %function
 133              	updateDefaultFunction:
 134              	.LFB69:
  73:..\common\ud3core/cli_basic.c **** 
  74:..\common\ud3core/cli_basic.c **** uint8_t updateDefaultFunction(parameter_entry * params, char * newValue, uint8_t index, TERMINAL_HA
 135              		.loc 1 74 0
 136              		.cfi_startproc
 137              		@ args = 0, pretend = 0, frame = 8
 138              		@ frame_needed = 0, uses_anonymous_args = 0
 139              	.LVL13:
 140 0000 F0B5     		push	{r4, r5, r6, r7, lr}
 141              		.cfi_def_cfa_offset 20
 142              		.cfi_offset 4, -20
 143              		.cfi_offset 5, -16
 144              		.cfi_offset 6, -12
 145              		.cfi_offset 7, -8
 146              		.cfi_offset 14, -4
  75:..\common\ud3core/cli_basic.c ****     int32_t value;
  76:..\common\ud3core/cli_basic.c ****     float fvalue;
  77:..\common\ud3core/cli_basic.c ****     char* ch_ptr;
  78:..\common\ud3core/cli_basic.c ****     switch (params[index].type){
 147              		.loc 1 78 0
 148 0002 2424     		movs	r4, #36
ARM GAS  C:\Users\chemi\AppData\Local\Temp\ccHerMgL.s 			page 5


 149 0004 04FB0204 		mla	r4, r4, r2, r0
 150 0008 657B     		ldrb	r5, [r4, #13]	@ zero_extendqisi2
  74:..\common\ud3core/cli_basic.c ****     int32_t value;
 151              		.loc 1 74 0
 152 000a 85B0     		sub	sp, sp, #20
 153              		.cfi_def_cfa_offset 40
  74:..\common\ud3core/cli_basic.c ****     int32_t value;
 154              		.loc 1 74 0
 155 000c 0E46     		mov	r6, r1
 156 000e 1F46     		mov	r7, r3
 157              		.loc 1 78 0
 158 0010 042D     		cmp	r5, #4
 159 0012 00F2A480 		bhi	.L41
 160 0016 DFE805F0 		tbb	[pc, r5]
 161              	.LVL14:
 162              	.L18:
 163 001a 06       		.byte	(.L17-.L18)/2
 164 001b 31       		.byte	(.L19-.L18)/2
 165 001c 5D       		.byte	(.L20-.L18)/2
 166 001d 79       		.byte	(.L21-.L18)/2
 167 001e 03       		.byte	(.L22-.L18)/2
 168 001f 00       		.p2align 1
 169              	.L22:
 170 0020 4E1E     		subs	r6, r1, #1
 171 0022 0023     		movs	r3, #0
 172 0024 7EE0     		b	.L23
 173              	.L17:
  79:..\common\ud3core/cli_basic.c ****     case TYPE_UNSIGNED:
  80:..\common\ud3core/cli_basic.c ****         if(params[index].div){
 174              		.loc 1 80 0
 175 0026 238B     		ldrh	r3, [r4, #24]
 176 0028 6BB1     		cbz	r3, .L24
  81:..\common\ud3core/cli_basic.c ****             fvalue=strtof(newValue,&ch_ptr);
 177              		.loc 1 81 0
 178 002a 03A9     		add	r1, sp, #12
 179              	.LVL15:
 180 002c 3046     		mov	r0, r6
 181              	.LVL16:
 182 002e FFF7FEFF 		bl	strtof
 183              	.LVL17:
 184 0032 0546     		mov	r5, r0
 185              	.LVL18:
  82:..\common\ud3core/cli_basic.c ****             value = fvalue*params[index].div;
 186              		.loc 1 82 0
 187 0034 208B     		ldrh	r0, [r4, #24]
 188              	.LVL19:
 189 0036 FFF7FEFF 		bl	__aeabi_i2f
 190              	.LVL20:
 191 003a 2946     		mov	r1, r5
 192 003c FFF7FEFF 		bl	__aeabi_fmul
 193              	.LVL21:
 194 0040 FFF7FEFF 		bl	__aeabi_f2iz
 195              	.LVL22:
 196 0044 04E0     		b	.L25
 197              	.LVL23:
 198              	.L24:
  83:..\common\ud3core/cli_basic.c ****         }else{
ARM GAS  C:\Users\chemi\AppData\Local\Temp\ccHerMgL.s 			page 6


  84:..\common\ud3core/cli_basic.c ****             value = strtoul(newValue,&ch_ptr,10);
 199              		.loc 1 84 0
 200 0046 0A22     		movs	r2, #10
 201              	.LVL24:
 202 0048 03A9     		add	r1, sp, #12
 203              	.LVL25:
 204 004a 3046     		mov	r0, r6
 205              	.LVL26:
 206 004c FFF7FEFF 		bl	strtoul
 207              	.LVL27:
 208              	.L25:
  85:..\common\ud3core/cli_basic.c ****         }
  86:..\common\ud3core/cli_basic.c ****         if (value >= params[index].min && value <= params[index].max){
 209              		.loc 1 86 0
 210 0050 2369     		ldr	r3, [r4, #16]
 211 0052 9842     		cmp	r0, r3
 212 0054 6ADB     		blt	.L26
 213              		.loc 1 86 0 is_stmt 0 discriminator 1
 214 0056 6369     		ldr	r3, [r4, #20]
 215 0058 9842     		cmp	r0, r3
 216 005a 67DC     		bgt	.L26
  87:..\common\ud3core/cli_basic.c ****             if(params[index].size==1){
 217              		.loc 1 87 0 is_stmt 1
 218 005c 257B     		ldrb	r5, [r4, #12]	@ zero_extendqisi2
 219 005e 012D     		cmp	r5, #1
 220 0060 02D1     		bne	.L27
  88:..\common\ud3core/cli_basic.c ****                 *(uint8_t*)params[index].value = value;
 221              		.loc 1 88 0
 222 0062 A368     		ldr	r3, [r4, #8]
 223 0064 1870     		strb	r0, [r3]
  89:..\common\ud3core/cli_basic.c ****                 return 1;
 224              		.loc 1 89 0
 225 0066 7BE0     		b	.L16
 226              	.L27:
  90:..\common\ud3core/cli_basic.c ****             }
  91:..\common\ud3core/cli_basic.c ****             if(params[index].size==2){
 227              		.loc 1 91 0
 228 0068 022D     		cmp	r5, #2
 229 006a 02D1     		bne	.L28
  92:..\common\ud3core/cli_basic.c ****                 *(uint16_t*)params[index].value = value;
 230              		.loc 1 92 0
 231 006c A368     		ldr	r3, [r4, #8]
 232 006e 1880     		strh	r0, [r3]	@ movhi
 233 0070 4AE0     		b	.L44
 234              	.L28:
  93:..\common\ud3core/cli_basic.c ****                 return 1;
  94:..\common\ud3core/cli_basic.c ****             }
  95:..\common\ud3core/cli_basic.c ****             if(params[index].size==4){
 235              		.loc 1 95 0
 236 0072 042D     		cmp	r5, #4
 237 0074 73D1     		bne	.L41
  96:..\common\ud3core/cli_basic.c ****                 *(uint32_t*)params[index].value = value;
 238              		.loc 1 96 0
 239 0076 A368     		ldr	r3, [r4, #8]
 240 0078 1860     		str	r0, [r3]
 241 007a 45E0     		b	.L44
 242              	.LVL28:
ARM GAS  C:\Users\chemi\AppData\Local\Temp\ccHerMgL.s 			page 7


 243              	.L19:
  97:..\common\ud3core/cli_basic.c ****                 return 1;
  98:..\common\ud3core/cli_basic.c ****             }
  99:..\common\ud3core/cli_basic.c ****         }else{
 100:..\common\ud3core/cli_basic.c ****             goto error;
 101:..\common\ud3core/cli_basic.c ****         }
 102:..\common\ud3core/cli_basic.c ****         break;
 103:..\common\ud3core/cli_basic.c ****     case TYPE_SIGNED:
 104:..\common\ud3core/cli_basic.c ****         if(params[index].div){
 244              		.loc 1 104 0
 245 007c 238B     		ldrh	r3, [r4, #24]
 246 007e 6BB1     		cbz	r3, .L30
 105:..\common\ud3core/cli_basic.c ****             fvalue=strtof(newValue,&ch_ptr);
 247              		.loc 1 105 0
 248 0080 03A9     		add	r1, sp, #12
 249              	.LVL29:
 250 0082 3046     		mov	r0, r6
 251              	.LVL30:
 252 0084 FFF7FEFF 		bl	strtof
 253              	.LVL31:
 254 0088 0646     		mov	r6, r0
 255              	.LVL32:
 106:..\common\ud3core/cli_basic.c ****             value = fvalue*params[index].div;
 256              		.loc 1 106 0
 257 008a 208B     		ldrh	r0, [r4, #24]
 258              	.LVL33:
 259 008c FFF7FEFF 		bl	__aeabi_i2f
 260              	.LVL34:
 261 0090 3146     		mov	r1, r6
 262 0092 FFF7FEFF 		bl	__aeabi_fmul
 263              	.LVL35:
 264 0096 FFF7FEFF 		bl	__aeabi_f2iz
 265              	.LVL36:
 266 009a 04E0     		b	.L31
 267              	.LVL37:
 268              	.L30:
 107:..\common\ud3core/cli_basic.c ****         }else{
 108:..\common\ud3core/cli_basic.c ****             value = strtol(newValue,&ch_ptr,10);
 269              		.loc 1 108 0
 270 009c 0A22     		movs	r2, #10
 271              	.LVL38:
 272 009e 03A9     		add	r1, sp, #12
 273              	.LVL39:
 274 00a0 3046     		mov	r0, r6
 275              	.LVL40:
 276 00a2 FFF7FEFF 		bl	strtol
 277              	.LVL41:
 278              	.L31:
 109:..\common\ud3core/cli_basic.c ****         }
 110:..\common\ud3core/cli_basic.c ****         if (value >= params[index].min && value <= params[index].max){
 279              		.loc 1 110 0
 280 00a6 2369     		ldr	r3, [r4, #16]
 281 00a8 9842     		cmp	r0, r3
 282 00aa 3FDB     		blt	.L26
 283              		.loc 1 110 0 is_stmt 0 discriminator 1
 284 00ac 6369     		ldr	r3, [r4, #20]
 285 00ae 9842     		cmp	r0, r3
ARM GAS  C:\Users\chemi\AppData\Local\Temp\ccHerMgL.s 			page 8


 286 00b0 3CDC     		bgt	.L26
 111:..\common\ud3core/cli_basic.c ****             if(params[index].size==1){
 287              		.loc 1 111 0 is_stmt 1
 288 00b2 237B     		ldrb	r3, [r4, #12]	@ zero_extendqisi2
 289 00b4 012B     		cmp	r3, #1
 290 00b6 03D1     		bne	.L32
 112:..\common\ud3core/cli_basic.c ****                 *(int8_t*)params[index].value = value;
 291              		.loc 1 112 0
 292 00b8 A268     		ldr	r2, [r4, #8]
 113:..\common\ud3core/cli_basic.c ****                 return 1;
 293              		.loc 1 113 0
 294 00ba 1D46     		mov	r5, r3
 112:..\common\ud3core/cli_basic.c ****                 *(int8_t*)params[index].value = value;
 295              		.loc 1 112 0
 296 00bc 1070     		strb	r0, [r2]
 297              		.loc 1 113 0
 298 00be 4FE0     		b	.L16
 299              	.L32:
 114:..\common\ud3core/cli_basic.c ****             }
 115:..\common\ud3core/cli_basic.c ****             if(params[index].size==2){
 300              		.loc 1 115 0
 301 00c0 022B     		cmp	r3, #2
 302 00c2 02D1     		bne	.L33
 116:..\common\ud3core/cli_basic.c ****                 *(int16_t*)params[index].value = value;
 303              		.loc 1 116 0
 304 00c4 A368     		ldr	r3, [r4, #8]
 305 00c6 1880     		strh	r0, [r3]	@ movhi
 117:..\common\ud3core/cli_basic.c ****                 return 1;
 306              		.loc 1 117 0
 307 00c8 4AE0     		b	.L16
 308              	.L33:
 118:..\common\ud3core/cli_basic.c ****             }
 119:..\common\ud3core/cli_basic.c ****             if(params[index].size==4){
 309              		.loc 1 119 0
 310 00ca 042B     		cmp	r3, #4
 311 00cc 47D1     		bne	.L41
 120:..\common\ud3core/cli_basic.c ****                 *(int32_t*)params[index].value = value;
 312              		.loc 1 120 0
 313 00ce A368     		ldr	r3, [r4, #8]
 314 00d0 1860     		str	r0, [r3]
 121:..\common\ud3core/cli_basic.c ****                 return 1;
 315              		.loc 1 121 0
 316 00d2 45E0     		b	.L16
 317              	.LVL42:
 318              	.L20:
 122:..\common\ud3core/cli_basic.c ****             }
 123:..\common\ud3core/cli_basic.c ****         }else{
 124:..\common\ud3core/cli_basic.c ****             goto error;
 125:..\common\ud3core/cli_basic.c ****         }
 126:..\common\ud3core/cli_basic.c ****         break;
 127:..\common\ud3core/cli_basic.c ****     case TYPE_FLOAT:
 128:..\common\ud3core/cli_basic.c ****             if(params[index].size==4){
 319              		.loc 1 128 0
 320 00d4 237B     		ldrb	r3, [r4, #12]	@ zero_extendqisi2
 321 00d6 042B     		cmp	r3, #4
 322 00d8 41D1     		bne	.L41
 129:..\common\ud3core/cli_basic.c ****                 fvalue=strtof(newValue,&ch_ptr);
ARM GAS  C:\Users\chemi\AppData\Local\Temp\ccHerMgL.s 			page 9


 323              		.loc 1 129 0
 324 00da 03A9     		add	r1, sp, #12
 325              	.LVL43:
 326 00dc 3046     		mov	r0, r6
 327              	.LVL44:
 328 00de FFF7FEFF 		bl	strtof
 329              	.LVL45:
 330 00e2 0546     		mov	r5, r0
 331              	.LVL46:
 130:..\common\ud3core/cli_basic.c ****                 if (fvalue >= (float)params[index].min && fvalue <= (float)params[index].max){
 332              		.loc 1 130 0
 333 00e4 2069     		ldr	r0, [r4, #16]
 334              	.LVL47:
 335 00e6 FFF7FEFF 		bl	__aeabi_i2f
 336              	.LVL48:
 337 00ea 0146     		mov	r1, r0
 338 00ec 2846     		mov	r0, r5
 339 00ee FFF7FEFF 		bl	__aeabi_fcmpge
 340              	.LVL49:
 341 00f2 D8B1     		cbz	r0, .L26
 342              		.loc 1 130 0 is_stmt 0 discriminator 1
 343 00f4 6069     		ldr	r0, [r4, #20]
 344 00f6 FFF7FEFF 		bl	__aeabi_i2f
 345              	.LVL50:
 346 00fa 0146     		mov	r1, r0
 347 00fc 2846     		mov	r0, r5
 348 00fe FFF7FEFF 		bl	__aeabi_fcmple
 349              	.LVL51:
 350 0102 98B1     		cbz	r0, .L26
 131:..\common\ud3core/cli_basic.c ****                     *(float*)params[index].value = fvalue;
 351              		.loc 1 131 0 is_stmt 1
 352 0104 A368     		ldr	r3, [r4, #8]
 353 0106 1D60     		str	r5, [r3]	@ float
 354              	.LVL52:
 355              	.L44:
 132:..\common\ud3core/cli_basic.c ****                     return 1;
 356              		.loc 1 132 0
 357 0108 0125     		movs	r5, #1
 358 010a 29E0     		b	.L16
 359              	.LVL53:
 360              	.L21:
 133:..\common\ud3core/cli_basic.c ****                 }else{
 134:..\common\ud3core/cli_basic.c ****                     goto error;
 135:..\common\ud3core/cli_basic.c ****                 }
 136:..\common\ud3core/cli_basic.c ****             }
 137:..\common\ud3core/cli_basic.c ****         break;
 138:..\common\ud3core/cli_basic.c ****     case TYPE_CHAR:
 139:..\common\ud3core/cli_basic.c ****         *(char*)params[index].value = *newValue;
 361              		.loc 1 139 0
 362 010c A368     		ldr	r3, [r4, #8]
 363 010e 0A78     		ldrb	r2, [r1]	@ zero_extendqisi2
 364              	.LVL54:
 365 0110 1A70     		strb	r2, [r3]
 366 0112 24E0     		b	.L41
 367              	.LVL55:
 368              	.L38:
 369              	.LBB8:
ARM GAS  C:\Users\chemi\AppData\Local\Temp\ccHerMgL.s 			page 10


 140:..\common\ud3core/cli_basic.c ****         break;
 141:..\common\ud3core/cli_basic.c ****     case TYPE_STRING:
 142:..\common\ud3core/cli_basic.c ****         for(int i=0;i<params[index].size;i++){
 143:..\common\ud3core/cli_basic.c ****             *(i+(char*)params[index].value) = newValue[i];
 370              		.loc 1 143 0
 371 0114 16F8011F 		ldrb	r1, [r6, #1]!	@ zero_extendqisi2
 372 0118 A268     		ldr	r2, [r4, #8]
 373 011a D154     		strb	r1, [r2, r3]
 144:..\common\ud3core/cli_basic.c ****             if(!newValue[i]) break;
 374              		.loc 1 144 0
 375 011c 3278     		ldrb	r2, [r6]	@ zero_extendqisi2
 376 011e 002A     		cmp	r2, #0
 377 0120 F2D0     		beq	.L44
 142:..\common\ud3core/cli_basic.c ****             *(i+(char*)params[index].value) = newValue[i];
 378              		.loc 1 142 0 discriminator 2
 379 0122 0133     		adds	r3, r3, #1
 380              	.LVL56:
 381              	.L23:
 142:..\common\ud3core/cli_basic.c ****             *(i+(char*)params[index].value) = newValue[i];
 382              		.loc 1 142 0 is_stmt 0 discriminator 1
 383 0124 227B     		ldrb	r2, [r4, #12]	@ zero_extendqisi2
 384 0126 9342     		cmp	r3, r2
 385 0128 F4DB     		blt	.L38
 386 012a EDE7     		b	.L44
 387              	.LVL57:
 388              	.L26:
 389              	.LDL1:
 390              	.LBE8:
 145:..\common\ud3core/cli_basic.c ****         }
 146:..\common\ud3core/cli_basic.c ****         return 1;
 147:..\common\ud3core/cli_basic.c ****         break;
 148:..\common\ud3core/cli_basic.c **** 
 149:..\common\ud3core/cli_basic.c ****     }
 150:..\common\ud3core/cli_basic.c ****     return 0;
 151:..\common\ud3core/cli_basic.c ****     error:
 152:..\common\ud3core/cli_basic.c ****         if(params[index].div){
 391              		.loc 1 152 0 is_stmt 1
 392 012c 258B     		ldrh	r5, [r4, #24]
 393 012e 7E6A     		ldr	r6, [r7, #36]
 394 0130 7DB1     		cbz	r5, .L40
 153:..\common\ud3core/cli_basic.c ****             ttprintf("E:Range %i.%u-%i.%u\r\n",
 395              		.loc 1 153 0
 396 0132 6169     		ldr	r1, [r4, #20]
 397 0134 2369     		ldr	r3, [r4, #16]
 398 0136 91FBF5F0 		sdiv	r0, r1, r5
 399 013a 93FBF5F2 		sdiv	r2, r3, r5
 400 013e 05FB1011 		mls	r1, r5, r0, r1
 401 0142 8DE80300 		stmia	sp, {r0, r1}
 402 0146 05FB1233 		mls	r3, r5, r2, r3
 403 014a 0749     		ldr	r1, .L45
 404 014c 7868     		ldr	r0, [r7, #4]
 405 014e B047     		blx	r6
 406              	.LVL58:
 407 0150 05E0     		b	.L41
 408              	.L40:
 154:..\common\ud3core/cli_basic.c ****                      params[index].min/params[index].div,
 155:..\common\ud3core/cli_basic.c ****                      params[index].min%params[index].div,                
ARM GAS  C:\Users\chemi\AppData\Local\Temp\ccHerMgL.s 			page 11


 156:..\common\ud3core/cli_basic.c ****                      params[index].max/params[index].div,
 157:..\common\ud3core/cli_basic.c ****                      params[index].max%params[index].div);
 158:..\common\ud3core/cli_basic.c ****         }else{
 159:..\common\ud3core/cli_basic.c ****             ttprintf("E:Range %i-%i\r\n", params[index].min, params[index].max);
 409              		.loc 1 159 0
 410 0152 6369     		ldr	r3, [r4, #20]
 411 0154 2269     		ldr	r2, [r4, #16]
 412 0156 0549     		ldr	r1, .L45+4
 413 0158 7868     		ldr	r0, [r7, #4]
 414 015a B047     		blx	r6
 415              	.LVL59:
 416 015c 00E0     		b	.L16
 417              	.L41:
 150:..\common\ud3core/cli_basic.c ****     error:
 418              		.loc 1 150 0
 419 015e 0025     		movs	r5, #0
 420              	.L16:
 160:..\common\ud3core/cli_basic.c ****         }
 161:..\common\ud3core/cli_basic.c **** 
 162:..\common\ud3core/cli_basic.c ****     return 0;
 163:..\common\ud3core/cli_basic.c **** }
 421              		.loc 1 163 0
 422 0160 2846     		mov	r0, r5
 423 0162 05B0     		add	sp, sp, #20
 424              		.cfi_def_cfa_offset 20
 425              		@ sp needed
 426 0164 F0BD     		pop	{r4, r5, r6, r7, pc}
 427              	.LVL60:
 428              	.L46:
 429 0166 00BF     		.align	2
 430              	.L45:
 431 0168 00000000 		.word	.LC0
 432 016c 16000000 		.word	.LC1
 433              		.cfi_endproc
 434              	.LFE69:
 435              		.size	updateDefaultFunction, .-updateDefaultFunction
 436              		.global	__aeabi_f2d
 437              		.section	.text.print_param_helperfunc,"ax",%progbits
 438              		.align	1
 439              		.global	print_param_helperfunc
 440              		.thumb
 441              		.thumb_func
 442              		.type	print_param_helperfunc, %function
 443              	print_param_helperfunc:
 444              	.LFB70:
 164:..\common\ud3core/cli_basic.c **** 
 165:..\common\ud3core/cli_basic.c **** 
 166:..\common\ud3core/cli_basic.c **** 
 167:..\common\ud3core/cli_basic.c **** void print_param_helperfunc(parameter_entry * params, uint8_t param_size, TERMINAL_HANDLE * handle,
 445              		.loc 1 167 0
 446              		.cfi_startproc
 447              		@ args = 0, pretend = 0, frame = 0
 448              		@ frame_needed = 0, uses_anonymous_args = 0
 449              	.LVL61:
 450 0000 2DE9F347 		push	{r0, r1, r4, r5, r6, r7, r8, r9, r10, lr}
 451              		.cfi_def_cfa_offset 40
 452              		.cfi_offset 4, -32
ARM GAS  C:\Users\chemi\AppData\Local\Temp\ccHerMgL.s 			page 12


 453              		.cfi_offset 5, -28
 454              		.cfi_offset 6, -24
 455              		.cfi_offset 7, -20
 456              		.cfi_offset 8, -16
 457              		.cfi_offset 9, -12
 458              		.cfi_offset 10, -8
 459              		.cfi_offset 14, -4
 460              		.loc 1 167 0
 461 0004 1446     		mov	r4, r2
 462 0006 0E46     		mov	r6, r1
 463 0008 0546     		mov	r5, r0
 168:..\common\ud3core/cli_basic.c ****     #define COL_A 9
 169:..\common\ud3core/cli_basic.c ****     #define COL_B 33
 170:..\common\ud3core/cli_basic.c ****     #define COL_C 64
 171:..\common\ud3core/cli_basic.c ****     uint8_t current_parameter;
 172:..\common\ud3core/cli_basic.c ****     uint32_t u_temp_buffer=0;
 173:..\common\ud3core/cli_basic.c ****     int32_t i_temp_buffer=0;
 174:..\common\ud3core/cli_basic.c ****     TERM_sendVT100Code(handle, _VT100_CURSOR_SET_COLUMN, COL_A);
 464              		.loc 1 174 0
 465 000a 0922     		movs	r2, #9
 466              	.LVL62:
 467 000c 1A21     		movs	r1, #26
 468              	.LVL63:
 469 000e 2046     		mov	r0, r4
 470              	.LVL64:
 167:..\common\ud3core/cli_basic.c ****     #define COL_A 9
 471              		.loc 1 167 0
 472 0010 9A46     		mov	r10, r3
 473              		.loc 1 174 0
 474 0012 FFF7FEFF 		bl	TERM_sendVT100Code
 475              	.LVL65:
 175:..\common\ud3core/cli_basic.c ****     ttprintf("Parameter");
 476              		.loc 1 175 0
 477 0016 636A     		ldr	r3, [r4, #36]
 478 0018 6249     		ldr	r1, .L77
 479 001a 6068     		ldr	r0, [r4, #4]
 480 001c 9847     		blx	r3
 481              	.LVL66:
 176:..\common\ud3core/cli_basic.c ****     TERM_sendVT100Code(handle, _VT100_CURSOR_SET_COLUMN, COL_B);
 482              		.loc 1 176 0
 483 001e 2122     		movs	r2, #33
 484 0020 1A21     		movs	r1, #26
 485 0022 2046     		mov	r0, r4
 486 0024 FFF7FEFF 		bl	TERM_sendVT100Code
 487              	.LVL67:
 177:..\common\ud3core/cli_basic.c ****     ttprintf("| Value");
 488              		.loc 1 177 0
 489 0028 636A     		ldr	r3, [r4, #36]
 490 002a 5F49     		ldr	r1, .L77+4
 491 002c 6068     		ldr	r0, [r4, #4]
 492 002e 9847     		blx	r3
 493              	.LVL68:
 494 0030 4FF02409 		mov	r9, #36
 178:..\common\ud3core/cli_basic.c ****     TERM_sendVT100Code(handle, _VT100_CURSOR_SET_COLUMN, COL_C);
 495              		.loc 1 178 0
 496 0034 4022     		movs	r2, #64
 497 0036 1A21     		movs	r1, #26
ARM GAS  C:\Users\chemi\AppData\Local\Temp\ccHerMgL.s 			page 13


 498 0038 2046     		mov	r0, r4
 499 003a FFF7FEFF 		bl	TERM_sendVT100Code
 500              	.LVL69:
 501 003e 09FB0659 		mla	r9, r9, r6, r5
 179:..\common\ud3core/cli_basic.c ****     ttprintf("| Text\r\n");
 502              		.loc 1 179 0
 503 0042 636A     		ldr	r3, [r4, #36]
 504 0044 5949     		ldr	r1, .L77+8
 505 0046 6068     		ldr	r0, [r4, #4]
 173:..\common\ud3core/cli_basic.c ****     TERM_sendVT100Code(handle, _VT100_CURSOR_SET_COLUMN, COL_A);
 506              		.loc 1 173 0
 507 0048 0026     		movs	r6, #0
 508              		.loc 1 179 0
 509 004a 9847     		blx	r3
 510              	.LVL70:
 172:..\common\ud3core/cli_basic.c ****     int32_t i_temp_buffer=0;
 511              		.loc 1 172 0
 512 004c B046     		mov	r8, r6
 513              	.LVL71:
 514              	.L48:
 180:..\common\ud3core/cli_basic.c ****     for (current_parameter = 0; current_parameter < param_size; current_parameter++) {
 515              		.loc 1 180 0 discriminator 1
 516 004e A945     		cmp	r9, r5
 517 0050 00F0A580 		beq	.L76
 181:..\common\ud3core/cli_basic.c ****         if(params[current_parameter].parameter_type==param_type && params[current_parameter].visibl
 518              		.loc 1 181 0
 519 0054 2B78     		ldrb	r3, [r5]	@ zero_extendqisi2
 520 0056 5345     		cmp	r3, r10
 521 0058 40F09F80 		bne	.L49
 522              		.loc 1 181 0 is_stmt 0 discriminator 1
 523 005c 6B78     		ldrb	r3, [r5, #1]	@ zero_extendqisi2
 524 005e 002B     		cmp	r3, #0
 525 0060 00F09B80 		beq	.L49
 182:..\common\ud3core/cli_basic.c ****             TERM_sendVT100Code(handle, _VT100_CURSOR_SET_COLUMN, COL_A);
 526              		.loc 1 182 0 is_stmt 1
 527 0064 0922     		movs	r2, #9
 528 0066 1A21     		movs	r1, #26
 529 0068 2046     		mov	r0, r4
 530 006a FFF7FEFF 		bl	TERM_sendVT100Code
 531              	.LVL72:
 183:..\common\ud3core/cli_basic.c ****             ttprintf("\033[36m%s", params[current_parameter].name);
 532              		.loc 1 183 0
 533 006e 636A     		ldr	r3, [r4, #36]
 534 0070 6A68     		ldr	r2, [r5, #4]
 535 0072 4F49     		ldr	r1, .L77+12
 536 0074 6068     		ldr	r0, [r4, #4]
 537 0076 9847     		blx	r3
 538              	.LVL73:
 184:..\common\ud3core/cli_basic.c **** 
 185:..\common\ud3core/cli_basic.c ****             switch (params[current_parameter].type){
 539              		.loc 1 185 0
 540 0078 6B7B     		ldrb	r3, [r5, #13]	@ zero_extendqisi2
 541 007a 042B     		cmp	r3, #4
 542 007c 00F28380 		bhi	.L50
 543 0080 DFE803F0 		tbb	[pc, r3]
 544              	.L52:
 545 0084 03       		.byte	(.L51-.L52)/2
ARM GAS  C:\Users\chemi\AppData\Local\Temp\ccHerMgL.s 			page 14


 546 0085 2B       		.byte	(.L53-.L52)/2
 547 0086 5D       		.byte	(.L54-.L52)/2
 548 0087 6D       		.byte	(.L55-.L52)/2
 549 0088 77       		.byte	(.L56-.L52)/2
 550 0089 00       		.p2align 1
 551              	.L51:
 186:..\common\ud3core/cli_basic.c ****             case TYPE_UNSIGNED:
 187:..\common\ud3core/cli_basic.c ****                 switch (params[current_parameter].size){
 552              		.loc 1 187 0
 553 008a 2B7B     		ldrb	r3, [r5, #12]	@ zero_extendqisi2
 554 008c 022B     		cmp	r3, #2
 555 008e 07D0     		beq	.L58
 556 0090 042B     		cmp	r3, #4
 557 0092 09D0     		beq	.L59
 558 0094 012B     		cmp	r3, #1
 559 0096 0AD1     		bne	.L57
 188:..\common\ud3core/cli_basic.c ****                 case 1:
 189:..\common\ud3core/cli_basic.c ****                     u_temp_buffer = *(uint8_t*)params[current_parameter].value;
 560              		.loc 1 189 0
 561 0098 AB68     		ldr	r3, [r5, #8]
 562 009a 93F80080 		ldrb	r8, [r3]	@ zero_extendqisi2
 563              	.LVL74:
 190:..\common\ud3core/cli_basic.c ****                     break;
 564              		.loc 1 190 0
 565 009e 06E0     		b	.L57
 566              	.L58:
 191:..\common\ud3core/cli_basic.c ****                 case 2:
 192:..\common\ud3core/cli_basic.c ****                     u_temp_buffer = *(uint16_t*)params[current_parameter].value;
 567              		.loc 1 192 0
 568 00a0 AB68     		ldr	r3, [r5, #8]
 569 00a2 B3F80080 		ldrh	r8, [r3]
 570              	.LVL75:
 193:..\common\ud3core/cli_basic.c ****                     break;
 571              		.loc 1 193 0
 572 00a6 02E0     		b	.L57
 573              	.L59:
 194:..\common\ud3core/cli_basic.c ****                 case 4:
 195:..\common\ud3core/cli_basic.c ****                     u_temp_buffer = *(uint32_t*)params[current_parameter].value;
 574              		.loc 1 195 0
 575 00a8 AB68     		ldr	r3, [r5, #8]
 576 00aa D3F80080 		ldr	r8, [r3]
 577              	.LVL76:
 578              	.L57:
 196:..\common\ud3core/cli_basic.c ****                     break;
 197:..\common\ud3core/cli_basic.c ****                 }
 198:..\common\ud3core/cli_basic.c **** 
 199:..\common\ud3core/cli_basic.c ****                 TERM_sendVT100Code(handle, _VT100_CURSOR_SET_COLUMN, COL_B);
 579              		.loc 1 199 0
 580 00ae 1A21     		movs	r1, #26
 581 00b0 2122     		movs	r2, #33
 582 00b2 2046     		mov	r0, r4
 583 00b4 FFF7FEFF 		bl	TERM_sendVT100Code
 584              	.LVL77:
 200:..\common\ud3core/cli_basic.c ****                 if(params[current_parameter].div){
 585              		.loc 1 200 0
 586 00b8 298B     		ldrh	r1, [r5, #24]
 587 00ba 676A     		ldr	r7, [r4, #36]
ARM GAS  C:\Users\chemi\AppData\Local\Temp\ccHerMgL.s 			page 15


 588 00bc 51B1     		cbz	r1, .L61
 201:..\common\ud3core/cli_basic.c ****                     ttprintf("\033[37m| \033[32m%u.%0*u", 
 589              		.loc 1 201 0
 590 00be 0846     		mov	r0, r1
 591 00c0 B8FBF1F2 		udiv	r2, r8, r1
 592 00c4 FFF7FEFF 		bl	n_number
 593              	.LVL78:
 594 00c8 01FB1281 		mls	r1, r1, r2, r8
 595 00cc 431E     		subs	r3, r0, #1
 596 00ce 0091     		str	r1, [sp]
 597 00d0 3849     		ldr	r1, .L77+16
 598 00d2 2CE0     		b	.L73
 599              	.L61:
 202:..\common\ud3core/cli_basic.c ****                         (u_temp_buffer/params[current_parameter].div),
 203:..\common\ud3core/cli_basic.c ****                         n_number(params[current_parameter].div)-1,
 204:..\common\ud3core/cli_basic.c ****                         (u_temp_buffer%params[current_parameter].div));
 205:..\common\ud3core/cli_basic.c ****                 }else{
 206:..\common\ud3core/cli_basic.c ****                     ttprintf("\033[37m| \033[32m%u", u_temp_buffer);
 600              		.loc 1 206 0
 601 00d4 4246     		mov	r2, r8
 602 00d6 3849     		ldr	r1, .L77+20
 603 00d8 2EE0     		b	.L75
 604              	.L53:
 207:..\common\ud3core/cli_basic.c ****                 }
 208:..\common\ud3core/cli_basic.c ****                 break;
 209:..\common\ud3core/cli_basic.c ****             case TYPE_SIGNED:
 210:..\common\ud3core/cli_basic.c ****                 switch (params[current_parameter].size){
 605              		.loc 1 210 0
 606 00da 2B7B     		ldrb	r3, [r5, #12]	@ zero_extendqisi2
 607 00dc 022B     		cmp	r3, #2
 608 00de 07D0     		beq	.L63
 609 00e0 042B     		cmp	r3, #4
 610 00e2 09D0     		beq	.L64
 611 00e4 012B     		cmp	r3, #1
 612 00e6 09D1     		bne	.L62
 211:..\common\ud3core/cli_basic.c ****                 case 1:
 212:..\common\ud3core/cli_basic.c ****                     i_temp_buffer = *(int8_t*)params[current_parameter].value;
 613              		.loc 1 212 0
 614 00e8 AB68     		ldr	r3, [r5, #8]
 615 00ea 93F90060 		ldrsb	r6, [r3]
 616              	.LVL79:
 213:..\common\ud3core/cli_basic.c ****                     break;
 617              		.loc 1 213 0
 618 00ee 05E0     		b	.L62
 619              	.L63:
 214:..\common\ud3core/cli_basic.c ****                 case 2:
 215:..\common\ud3core/cli_basic.c ****                     i_temp_buffer = *(int16_t*)params[current_parameter].value;
 620              		.loc 1 215 0
 621 00f0 AB68     		ldr	r3, [r5, #8]
 622 00f2 B3F90060 		ldrsh	r6, [r3]
 623              	.LVL80:
 216:..\common\ud3core/cli_basic.c ****                     break;
 624              		.loc 1 216 0
 625 00f6 01E0     		b	.L62
 626              	.L64:
 217:..\common\ud3core/cli_basic.c ****                 case 4:
 218:..\common\ud3core/cli_basic.c ****                     i_temp_buffer = *(int32_t*)params[current_parameter].value;
ARM GAS  C:\Users\chemi\AppData\Local\Temp\ccHerMgL.s 			page 16


 627              		.loc 1 218 0
 628 00f8 AB68     		ldr	r3, [r5, #8]
 629 00fa 1E68     		ldr	r6, [r3]
 630              	.LVL81:
 631              	.L62:
 219:..\common\ud3core/cli_basic.c ****                     break;
 220:..\common\ud3core/cli_basic.c ****                 }
 221:..\common\ud3core/cli_basic.c **** 
 222:..\common\ud3core/cli_basic.c ****                 TERM_sendVT100Code(handle, _VT100_CURSOR_SET_COLUMN, COL_B);
 632              		.loc 1 222 0
 633 00fc 2046     		mov	r0, r4
 634 00fe 2122     		movs	r2, #33
 635 0100 1A21     		movs	r1, #26
 636 0102 FFF7FEFF 		bl	TERM_sendVT100Code
 637              	.LVL82:
 223:..\common\ud3core/cli_basic.c ****                 if(params[current_parameter].div){
 638              		.loc 1 223 0
 639 0106 288B     		ldrh	r0, [r5, #24]
 640 0108 676A     		ldr	r7, [r4, #36]
 641 010a 98B1     		cbz	r0, .L66
 642              	.LBB9:
 224:..\common\ud3core/cli_basic.c ****                     uint32_t mod;
 225:..\common\ud3core/cli_basic.c ****                     if(i_temp_buffer<0){
 643              		.loc 1 225 0
 644 010c 002E     		cmp	r6, #0
 226:..\common\ud3core/cli_basic.c ****                         mod=(i_temp_buffer*-1)%params[current_parameter].div;
 645              		.loc 1 226 0
 646 010e BCBF     		itt	lt
 647 0110 7142     		rsblt	r1, r6, #0
 648 0112 91FBF0F3 		sdivlt	r3, r1, r0
 649 0116 96FBF0F2 		sdiv	r2, r6, r0
 650 011a B4BF     		ite	lt
 651 011c 00FB1311 		mlslt	r1, r0, r3, r1
 652              	.LVL83:
 227:..\common\ud3core/cli_basic.c ****                     }else{
 228:..\common\ud3core/cli_basic.c ****                         mod=i_temp_buffer%params[current_parameter].div;
 653              		.loc 1 228 0
 654 0120 00FB1261 		mlsge	r1, r0, r2, r6
 655              	.LVL84:
 229:..\common\ud3core/cli_basic.c ****                     }
 230:..\common\ud3core/cli_basic.c ****                     
 231:..\common\ud3core/cli_basic.c ****                     ttprintf("\033[37m| \033[32m%i.%0*u",
 656              		.loc 1 231 0
 657 0124 FFF7FEFF 		bl	n_number
 658              	.LVL85:
 659 0128 0091     		str	r1, [sp]
 660 012a 2449     		ldr	r1, .L77+24
 661 012c 431E     		subs	r3, r0, #1
 662              	.L73:
 663 012e 6068     		ldr	r0, [r4, #4]
 664 0130 B847     		blx	r7
 665              	.LVL86:
 666              	.LBE9:
 667 0132 28E0     		b	.L50
 668              	.L66:
 232:..\common\ud3core/cli_basic.c ****                     (i_temp_buffer/params[current_parameter].div),
 233:..\common\ud3core/cli_basic.c ****                     n_number(params[current_parameter].div)-1,
ARM GAS  C:\Users\chemi\AppData\Local\Temp\ccHerMgL.s 			page 17


 234:..\common\ud3core/cli_basic.c ****                     mod);
 235:..\common\ud3core/cli_basic.c ****                 }else{
 236:..\common\ud3core/cli_basic.c ****                     ttprintf("\033[37m| \033[32m%i", i_temp_buffer);
 669              		.loc 1 236 0
 670 0134 3246     		mov	r2, r6
 671 0136 2249     		ldr	r1, .L77+28
 672              	.L75:
 673 0138 6068     		ldr	r0, [r4, #4]
 674 013a B847     		blx	r7
 675              	.LVL87:
 676 013c 23E0     		b	.L50
 677              	.L54:
 237:..\common\ud3core/cli_basic.c ****                 }
 238:..\common\ud3core/cli_basic.c **** 
 239:..\common\ud3core/cli_basic.c ****                 break;
 240:..\common\ud3core/cli_basic.c ****             case TYPE_FLOAT:
 241:..\common\ud3core/cli_basic.c **** 
 242:..\common\ud3core/cli_basic.c ****                 TERM_sendVT100Code(handle, _VT100_CURSOR_SET_COLUMN, COL_B);
 678              		.loc 1 242 0
 679 013e 2122     		movs	r2, #33
 680 0140 2046     		mov	r0, r4
 681 0142 1A21     		movs	r1, #26
 682 0144 FFF7FEFF 		bl	TERM_sendVT100Code
 683              	.LVL88:
 243:..\common\ud3core/cli_basic.c ****                 ttprintf("\033[37m| \033[32m%f", *(float*)params[current_parameter].value);
 684              		.loc 1 243 0
 685 0148 AB68     		ldr	r3, [r5, #8]
 686 014a 1868     		ldr	r0, [r3]	@ float
 687 014c FFF7FEFF 		bl	__aeabi_f2d
 688              	.LVL89:
 689 0150 676A     		ldr	r7, [r4, #36]
 690 0152 0246     		mov	r2, r0
 691 0154 0B46     		mov	r3, r1
 692 0156 6068     		ldr	r0, [r4, #4]
 693 0158 1A49     		ldr	r1, .L77+32
 694 015a B847     		blx	r7
 695              	.LVL90:
 244:..\common\ud3core/cli_basic.c **** 
 245:..\common\ud3core/cli_basic.c ****                 break;
 696              		.loc 1 245 0
 697 015c 13E0     		b	.L50
 698              	.L55:
 246:..\common\ud3core/cli_basic.c ****             case TYPE_CHAR:
 247:..\common\ud3core/cli_basic.c **** 
 248:..\common\ud3core/cli_basic.c ****                 TERM_sendVT100Code(handle, _VT100_CURSOR_SET_COLUMN, COL_B);
 699              		.loc 1 248 0
 700 015e 2122     		movs	r2, #33
 701 0160 1A21     		movs	r1, #26
 702 0162 2046     		mov	r0, r4
 703 0164 FFF7FEFF 		bl	TERM_sendVT100Code
 704              	.LVL91:
 249:..\common\ud3core/cli_basic.c ****                 ttprintf("\033[37m| \033[32m%c", *(char*)params[current_parameter].value);
 705              		.loc 1 249 0
 706 0168 AA68     		ldr	r2, [r5, #8]
 707 016a 636A     		ldr	r3, [r4, #36]
 708 016c 1278     		ldrb	r2, [r2]	@ zero_extendqisi2
 709 016e 1649     		ldr	r1, .L77+36
ARM GAS  C:\Users\chemi\AppData\Local\Temp\ccHerMgL.s 			page 18


 710 0170 07E0     		b	.L74
 711              	.L56:
 250:..\common\ud3core/cli_basic.c **** 
 251:..\common\ud3core/cli_basic.c ****                 break;
 252:..\common\ud3core/cli_basic.c ****             case TYPE_STRING:
 253:..\common\ud3core/cli_basic.c **** 
 254:..\common\ud3core/cli_basic.c ****                 TERM_sendVT100Code(handle, _VT100_CURSOR_SET_COLUMN, COL_B);
 712              		.loc 1 254 0
 713 0172 2122     		movs	r2, #33
 714 0174 1A21     		movs	r1, #26
 715 0176 2046     		mov	r0, r4
 716 0178 FFF7FEFF 		bl	TERM_sendVT100Code
 717              	.LVL92:
 255:..\common\ud3core/cli_basic.c ****                 ttprintf("\033[37m| \033[32m%s", (char*)params[current_parameter].value);
 718              		.loc 1 255 0
 719 017c 636A     		ldr	r3, [r4, #36]
 720 017e AA68     		ldr	r2, [r5, #8]
 721 0180 1249     		ldr	r1, .L77+40
 722              	.L74:
 723 0182 6068     		ldr	r0, [r4, #4]
 724 0184 9847     		blx	r3
 725              	.LVL93:
 726              	.L50:
 256:..\common\ud3core/cli_basic.c ****                
 257:..\common\ud3core/cli_basic.c ****                 break;
 258:..\common\ud3core/cli_basic.c **** 
 259:..\common\ud3core/cli_basic.c ****             }
 260:..\common\ud3core/cli_basic.c ****             TERM_sendVT100Code(handle, _VT100_CURSOR_SET_COLUMN, COL_C);
 727              		.loc 1 260 0
 728 0186 4022     		movs	r2, #64
 729 0188 1A21     		movs	r1, #26
 730 018a 2046     		mov	r0, r4
 731 018c FFF7FEFF 		bl	TERM_sendVT100Code
 732              	.LVL94:
 261:..\common\ud3core/cli_basic.c ****             ttprintf("\033[37m| %s\r\n", params[current_parameter].help);
 733              		.loc 1 261 0
 734 0190 636A     		ldr	r3, [r4, #36]
 735 0192 2A6A     		ldr	r2, [r5, #32]
 736 0194 0E49     		ldr	r1, .L77+44
 737 0196 6068     		ldr	r0, [r4, #4]
 738 0198 9847     		blx	r3
 739              	.LVL95:
 740              	.L49:
 741 019a 2435     		adds	r5, r5, #36
 742 019c 57E7     		b	.L48
 743              	.L76:
 262:..\common\ud3core/cli_basic.c ****         }
 263:..\common\ud3core/cli_basic.c ****     }
 264:..\common\ud3core/cli_basic.c **** }
 744              		.loc 1 264 0
 745 019e 02B0     		add	sp, sp, #8
 746              		.cfi_def_cfa_offset 32
 747              		@ sp needed
 748 01a0 BDE8F087 		pop	{r4, r5, r6, r7, r8, r9, r10, pc}
 749              	.LVL96:
 750              	.L78:
 751              		.align	2
ARM GAS  C:\Users\chemi\AppData\Local\Temp\ccHerMgL.s 			page 19


 752              	.L77:
 753 01a4 26000000 		.word	.LC2
 754 01a8 30000000 		.word	.LC3
 755 01ac 38000000 		.word	.LC4
 756 01b0 41000000 		.word	.LC5
 757 01b4 49000000 		.word	.LC6
 758 01b8 5D000000 		.word	.LC7
 759 01bc 6C000000 		.word	.LC8
 760 01c0 80000000 		.word	.LC9
 761 01c4 8F000000 		.word	.LC10
 762 01c8 9E000000 		.word	.LC11
 763 01cc AD000000 		.word	.LC12
 764 01d0 BC000000 		.word	.LC13
 765              		.cfi_endproc
 766              	.LFE70:
 767              		.size	print_param_helperfunc, .-print_param_helperfunc
 768              		.section	.text.print_param_help,"ax",%progbits
 769              		.align	1
 770              		.global	print_param_help
 771              		.thumb
 772              		.thumb_func
 773              		.type	print_param_help, %function
 774              	print_param_help:
 775              	.LFB71:
 265:..\common\ud3core/cli_basic.c **** 
 266:..\common\ud3core/cli_basic.c **** void print_param_help(parameter_entry * params, uint8_t param_size, TERMINAL_HANDLE * handle){
 776              		.loc 1 266 0
 777              		.cfi_startproc
 778              		@ args = 0, pretend = 0, frame = 0
 779              		@ frame_needed = 0, uses_anonymous_args = 0
 780              	.LVL97:
 781 0000 70B5     		push	{r4, r5, r6, lr}
 782              		.cfi_def_cfa_offset 16
 783              		.cfi_offset 4, -16
 784              		.cfi_offset 5, -12
 785              		.cfi_offset 6, -8
 786              		.cfi_offset 14, -4
 787              		.loc 1 266 0
 788 0002 1446     		mov	r4, r2
 789 0004 0546     		mov	r5, r0
 790 0006 0E46     		mov	r6, r1
 267:..\common\ud3core/cli_basic.c ****     ttprintf("Parameters:\r\n");
 791              		.loc 1 267 0
 792 0008 536A     		ldr	r3, [r2, #36]
 793 000a 0A49     		ldr	r1, .L80
 794              	.LVL98:
 795 000c 5068     		ldr	r0, [r2, #4]
 796              	.LVL99:
 797 000e 9847     		blx	r3
 798              	.LVL100:
 268:..\common\ud3core/cli_basic.c ****     print_param_helperfunc(params, param_size, handle,PARAM_DEFAULT);
 799              		.loc 1 268 0
 800 0010 2246     		mov	r2, r4
 801 0012 3146     		mov	r1, r6
 802 0014 2846     		mov	r0, r5
 803 0016 0023     		movs	r3, #0
 804 0018 FFF7FEFF 		bl	print_param_helperfunc
ARM GAS  C:\Users\chemi\AppData\Local\Temp\ccHerMgL.s 			page 20


 805              	.LVL101:
 269:..\common\ud3core/cli_basic.c ****     ttprintf("\r\nConfiguration:\r\n");
 806              		.loc 1 269 0
 807 001c 636A     		ldr	r3, [r4, #36]
 808 001e 0649     		ldr	r1, .L80+4
 809 0020 6068     		ldr	r0, [r4, #4]
 810 0022 9847     		blx	r3
 811              	.LVL102:
 270:..\common\ud3core/cli_basic.c ****     print_param_helperfunc(params, param_size, handle,PARAM_CONFIG);
 812              		.loc 1 270 0
 813 0024 2246     		mov	r2, r4
 814 0026 3146     		mov	r1, r6
 815 0028 2846     		mov	r0, r5
 271:..\common\ud3core/cli_basic.c **** }
 816              		.loc 1 271 0
 817 002a BDE87040 		pop	{r4, r5, r6, lr}
 818              		.cfi_restore 14
 819              		.cfi_restore 6
 820              		.cfi_restore 5
 821              		.cfi_restore 4
 822              		.cfi_def_cfa_offset 0
 823              	.LVL103:
 270:..\common\ud3core/cli_basic.c ****     print_param_helperfunc(params, param_size, handle,PARAM_CONFIG);
 824              		.loc 1 270 0
 825 002e 0123     		movs	r3, #1
 826 0030 FFF7FEBF 		b	print_param_helperfunc
 827              	.LVL104:
 828              	.L81:
 829              		.align	2
 830              	.L80:
 831 0034 C8000000 		.word	.LC14
 832 0038 D6000000 		.word	.LC15
 833              		.cfi_endproc
 834              	.LFE71:
 835              		.size	print_param_help, .-print_param_help
 836              		.section	.text.print_param,"ax",%progbits
 837              		.align	1
 838              		.global	print_param
 839              		.thumb
 840              		.thumb_func
 841              		.type	print_param, %function
 842              	print_param:
 843              	.LFB72:
 272:..\common\ud3core/cli_basic.c **** 
 273:..\common\ud3core/cli_basic.c **** void print_param(parameter_entry * params, uint8_t index, TERMINAL_HANDLE * handle){
 844              		.loc 1 273 0
 845              		.cfi_startproc
 846              		@ args = 0, pretend = 0, frame = 0
 847              		@ frame_needed = 0, uses_anonymous_args = 0
 848              	.LVL105:
 849 0000 F7B5     		push	{r0, r1, r2, r4, r5, r6, r7, lr}
 850              		.cfi_def_cfa_offset 32
 851              		.cfi_offset 4, -20
 852              		.cfi_offset 5, -16
 853              		.cfi_offset 6, -12
 854              		.cfi_offset 7, -8
 855              		.cfi_offset 14, -4
ARM GAS  C:\Users\chemi\AppData\Local\Temp\ccHerMgL.s 			page 21


 274:..\common\ud3core/cli_basic.c ****     uint32_t u_temp_buffer=0;
 275:..\common\ud3core/cli_basic.c ****     int32_t i_temp_buffer=0;
 276:..\common\ud3core/cli_basic.c ****     float f_temp_buffer=0.0;
 277:..\common\ud3core/cli_basic.c ****     switch (params[index].type){
 856              		.loc 1 277 0
 857 0002 2424     		movs	r4, #36
 858 0004 04FB0104 		mla	r4, r4, r1, r0
 859 0008 637B     		ldrb	r3, [r4, #13]	@ zero_extendqisi2
 273:..\common\ud3core/cli_basic.c ****     uint32_t u_temp_buffer=0;
 860              		.loc 1 273 0
 861 000a 1546     		mov	r5, r2
 862              		.loc 1 277 0
 863 000c 042B     		cmp	r3, #4
 864 000e 76D8     		bhi	.L82
 865 0010 DFE803F0 		tbb	[pc, r3]
 866              	.LVL106:
 867              	.L85:
 868 0014 03       		.byte	(.L84-.L85)/2
 869 0015 29       		.byte	(.L86-.L85)/2
 870 0016 59       		.byte	(.L87-.L85)/2
 871 0017 65       		.byte	(.L88-.L85)/2
 872 0018 6B       		.byte	(.L89-.L85)/2
 873 0019 00       		.p2align 1
 874              	.L84:
 278:..\common\ud3core/cli_basic.c ****         case TYPE_UNSIGNED:
 279:..\common\ud3core/cli_basic.c ****             switch (params[index].size){
 875              		.loc 1 279 0
 876 001a 237B     		ldrb	r3, [r4, #12]	@ zero_extendqisi2
 877 001c 022B     		cmp	r3, #2
 878 001e 06D0     		beq	.L91
 879 0020 042B     		cmp	r3, #4
 880 0022 07D0     		beq	.L92
 881 0024 012B     		cmp	r3, #1
 882 0026 08D1     		bne	.L104
 280:..\common\ud3core/cli_basic.c ****                 case 1:
 281:..\common\ud3core/cli_basic.c ****                     u_temp_buffer = *(uint8_t*)params[index].value;
 883              		.loc 1 281 0
 884 0028 A368     		ldr	r3, [r4, #8]
 885 002a 1A78     		ldrb	r2, [r3]	@ zero_extendqisi2
 886              	.LVL107:
 282:..\common\ud3core/cli_basic.c ****                     break;
 887              		.loc 1 282 0
 888 002c 06E0     		b	.L90
 889              	.LVL108:
 890              	.L91:
 283:..\common\ud3core/cli_basic.c ****                 case 2:
 284:..\common\ud3core/cli_basic.c ****                     u_temp_buffer = *(uint16_t*)params[index].value;
 891              		.loc 1 284 0
 892 002e A368     		ldr	r3, [r4, #8]
 893 0030 1A88     		ldrh	r2, [r3]
 894              	.LVL109:
 285:..\common\ud3core/cli_basic.c ****                     break;
 895              		.loc 1 285 0
 896 0032 03E0     		b	.L90
 897              	.LVL110:
 898              	.L92:
 286:..\common\ud3core/cli_basic.c ****                 case 4:
ARM GAS  C:\Users\chemi\AppData\Local\Temp\ccHerMgL.s 			page 22


 287:..\common\ud3core/cli_basic.c ****                     u_temp_buffer = *(uint32_t*)params[index].value;
 899              		.loc 1 287 0
 900 0034 A368     		ldr	r3, [r4, #8]
 901 0036 1A68     		ldr	r2, [r3]
 902              	.LVL111:
 288:..\common\ud3core/cli_basic.c ****                     break;
 903              		.loc 1 288 0
 904 0038 00E0     		b	.L90
 905              	.LVL112:
 906              	.L104:
 274:..\common\ud3core/cli_basic.c ****     int32_t i_temp_buffer=0;
 907              		.loc 1 274 0
 908 003a 0022     		movs	r2, #0
 909              	.LVL113:
 910              	.L90:
 289:..\common\ud3core/cli_basic.c ****             }
 290:..\common\ud3core/cli_basic.c ****             if(params[index].div){
 911              		.loc 1 290 0
 912 003c 218B     		ldrh	r1, [r4, #24]
 913              	.LVL114:
 914 003e 6E6A     		ldr	r6, [r5, #36]
 915 0040 69B1     		cbz	r1, .L94
 291:..\common\ud3core/cli_basic.c ****                 ttprintf("\t%s=%u.%0*u\r\n",
 916              		.loc 1 291 0
 917 0042 0846     		mov	r0, r1
 918              	.LVL115:
 919 0044 B2FBF1F7 		udiv	r7, r2, r1
 920 0048 FFF7FEFF 		bl	n_number
 921              	.LVL116:
 922 004c 01FB1722 		mls	r2, r1, r7, r2
 923 0050 0138     		subs	r0, r0, #1
 924 0052 0192     		str	r2, [sp, #4]
 925 0054 0090     		str	r0, [sp]
 926 0056 3B46     		mov	r3, r7
 927 0058 6268     		ldr	r2, [r4, #4]
 928 005a 2A49     		ldr	r1, .L108
 929 005c 2DE0     		b	.L106
 930              	.LVL117:
 931              	.L94:
 292:..\common\ud3core/cli_basic.c ****                                 params[index].name,(u_temp_buffer/params[index].div),
 293:..\common\ud3core/cli_basic.c ****                                 n_number(params[index].div)-1,
 294:..\common\ud3core/cli_basic.c ****                                 (u_temp_buffer%params[index].div));
 295:..\common\ud3core/cli_basic.c ****             }else{
 296:..\common\ud3core/cli_basic.c ****                 ttprintf("\t%s=%u\r\n", params[index].name,u_temp_buffer);
 932              		.loc 1 296 0
 933 005e 1346     		mov	r3, r2
 934 0060 2949     		ldr	r1, .L108+4
 935 0062 6268     		ldr	r2, [r4, #4]
 936              	.LVL118:
 937 0064 45E0     		b	.L107
 938              	.LVL119:
 939              	.L86:
 297:..\common\ud3core/cli_basic.c ****             }
 298:..\common\ud3core/cli_basic.c ****             break;
 299:..\common\ud3core/cli_basic.c ****         case TYPE_SIGNED:
 300:..\common\ud3core/cli_basic.c ****             switch (params[index].size){
 940              		.loc 1 300 0
ARM GAS  C:\Users\chemi\AppData\Local\Temp\ccHerMgL.s 			page 23


 941 0066 237B     		ldrb	r3, [r4, #12]	@ zero_extendqisi2
 942 0068 022B     		cmp	r3, #2
 943 006a 07D0     		beq	.L96
 944 006c 042B     		cmp	r3, #4
 945 006e 09D0     		beq	.L97
 946 0070 012B     		cmp	r3, #1
 947 0072 0AD1     		bne	.L105
 301:..\common\ud3core/cli_basic.c ****             case 1:
 302:..\common\ud3core/cli_basic.c ****                 i_temp_buffer = *(int8_t*)params[index].value;
 948              		.loc 1 302 0
 949 0074 A368     		ldr	r3, [r4, #8]
 950 0076 93F90030 		ldrsb	r3, [r3]
 951              	.LVL120:
 303:..\common\ud3core/cli_basic.c ****                 break;
 952              		.loc 1 303 0
 953 007a 07E0     		b	.L95
 954              	.LVL121:
 955              	.L96:
 304:..\common\ud3core/cli_basic.c ****             case 2:
 305:..\common\ud3core/cli_basic.c ****                 i_temp_buffer = *(int16_t*)params[index].value;
 956              		.loc 1 305 0
 957 007c A368     		ldr	r3, [r4, #8]
 958 007e B3F90030 		ldrsh	r3, [r3]
 959              	.LVL122:
 306:..\common\ud3core/cli_basic.c ****                 break;
 960              		.loc 1 306 0
 961 0082 03E0     		b	.L95
 962              	.LVL123:
 963              	.L97:
 307:..\common\ud3core/cli_basic.c ****             case 4:
 308:..\common\ud3core/cli_basic.c ****                 i_temp_buffer = *(int32_t*)params[index].value;
 964              		.loc 1 308 0
 965 0084 A368     		ldr	r3, [r4, #8]
 966 0086 1B68     		ldr	r3, [r3]
 967              	.LVL124:
 309:..\common\ud3core/cli_basic.c ****                 break;
 968              		.loc 1 309 0
 969 0088 00E0     		b	.L95
 970              	.LVL125:
 971              	.L105:
 275:..\common\ud3core/cli_basic.c ****     float f_temp_buffer=0.0;
 972              		.loc 1 275 0
 973 008a 0023     		movs	r3, #0
 974              	.LVL126:
 975              	.L95:
 310:..\common\ud3core/cli_basic.c ****             }
 311:..\common\ud3core/cli_basic.c ****             if(params[index].div){
 976              		.loc 1 311 0
 977 008c 208B     		ldrh	r0, [r4, #24]
 978              	.LVL127:
 979 008e 6E6A     		ldr	r6, [r5, #36]
 980 0090 B0B1     		cbz	r0, .L99
 981              	.LBB10:
 312:..\common\ud3core/cli_basic.c ****                 uint32_t mod;
 313:..\common\ud3core/cli_basic.c ****                 if(i_temp_buffer<0){
 982              		.loc 1 313 0
 983 0092 002B     		cmp	r3, #0
ARM GAS  C:\Users\chemi\AppData\Local\Temp\ccHerMgL.s 			page 24


 314:..\common\ud3core/cli_basic.c ****                     mod=(i_temp_buffer*-1)%params[index].div;
 984              		.loc 1 314 0
 985 0094 B8BF     		it	lt
 986 0096 5A42     		rsblt	r2, r3, #0
 987 0098 93FBF0F1 		sdiv	r1, r3, r0
 988              	.LVL128:
 989 009c B6BF     		itet	lt
 990 009e 92FBF0F3 		sdivlt	r3, r2, r0
 991              	.LVL129:
 315:..\common\ud3core/cli_basic.c ****                 }else{
 316:..\common\ud3core/cli_basic.c ****                     mod=i_temp_buffer%params[index].div;
 992              		.loc 1 316 0
 993 00a2 00FB1132 		mlsge	r2, r0, r1, r3
 314:..\common\ud3core/cli_basic.c ****                     mod=(i_temp_buffer*-1)%params[index].div;
 994              		.loc 1 314 0
 995 00a6 00FB1322 		mlslt	r2, r0, r3, r2
 996              	.LVL130:
 317:..\common\ud3core/cli_basic.c ****                 }
 318:..\common\ud3core/cli_basic.c ****                 ttprintf("\t%s=%i.%0*u\r\n",
 997              		.loc 1 318 0
 998 00aa FFF7FEFF 		bl	n_number
 999              	.LVL131:
 1000 00ae 0138     		subs	r0, r0, #1
 1001 00b0 0192     		str	r2, [sp, #4]
 1002 00b2 0090     		str	r0, [sp]
 1003 00b4 0B46     		mov	r3, r1
 1004 00b6 6268     		ldr	r2, [r4, #4]
 1005 00b8 1449     		ldr	r1, .L108+8
 1006              	.LVL132:
 1007              	.L106:
 1008 00ba 6868     		ldr	r0, [r5, #4]
 1009 00bc B047     		blx	r6
 1010              	.LVL133:
 1011              	.LBE10:
 1012 00be 1EE0     		b	.L82
 1013              	.LVL134:
 1014              	.L99:
 319:..\common\ud3core/cli_basic.c ****                                 params[index].name,(i_temp_buffer/params[index].div),
 320:..\common\ud3core/cli_basic.c ****                                 n_number(params[index].div)-1,
 321:..\common\ud3core/cli_basic.c ****                                 mod);
 322:..\common\ud3core/cli_basic.c ****             }else{
 323:..\common\ud3core/cli_basic.c ****                 ttprintf("\t%s=%i\r\n", params[index].name,i_temp_buffer);
 1015              		.loc 1 323 0
 1016 00c0 6268     		ldr	r2, [r4, #4]
 1017 00c2 1349     		ldr	r1, .L108+12
 1018              	.LVL135:
 1019 00c4 15E0     		b	.L107
 1020              	.LVL136:
 1021              	.L87:
 324:..\common\ud3core/cli_basic.c ****             }
 325:..\common\ud3core/cli_basic.c ****             break;
 326:..\common\ud3core/cli_basic.c ****         case TYPE_FLOAT:
 327:..\common\ud3core/cli_basic.c ****             f_temp_buffer = *(float*)params[index].value;
 1022              		.loc 1 327 0
 1023 00c6 A368     		ldr	r3, [r4, #8]
 328:..\common\ud3core/cli_basic.c ****             ttprintf("\t%s=%f\r\n", params[index].name,f_temp_buffer);
 1024              		.loc 1 328 0
ARM GAS  C:\Users\chemi\AppData\Local\Temp\ccHerMgL.s 			page 25


 1025 00c8 1868     		ldr	r0, [r3]	@ float
 1026              	.LVL137:
 1027 00ca FFF7FEFF 		bl	__aeabi_f2d
 1028              	.LVL138:
 1029 00ce CDE90001 		strd	r0, [sp]
 1030 00d2 6B6A     		ldr	r3, [r5, #36]
 1031 00d4 6268     		ldr	r2, [r4, #4]
 1032 00d6 0F49     		ldr	r1, .L108+16
 1033 00d8 6868     		ldr	r0, [r5, #4]
 1034 00da 9847     		blx	r3
 1035              	.LVL139:
 329:..\common\ud3core/cli_basic.c ****             break;
 1036              		.loc 1 329 0
 1037 00dc 0FE0     		b	.L82
 1038              	.LVL140:
 1039              	.L88:
 330:..\common\ud3core/cli_basic.c ****         case TYPE_CHAR:
 331:..\common\ud3core/cli_basic.c ****             ttprintf("\t%s=%c\r\n", params[index].name,*(char*)params[index].value);
 1040              		.loc 1 331 0
 1041 00de A368     		ldr	r3, [r4, #8]
 1042 00e0 6E6A     		ldr	r6, [r5, #36]
 1043 00e2 1B78     		ldrb	r3, [r3]	@ zero_extendqisi2
 1044 00e4 6268     		ldr	r2, [r4, #4]
 1045 00e6 0C49     		ldr	r1, .L108+20
 1046              	.LVL141:
 1047 00e8 03E0     		b	.L107
 1048              	.LVL142:
 1049              	.L89:
 332:..\common\ud3core/cli_basic.c ****             break;
 333:..\common\ud3core/cli_basic.c ****         case TYPE_STRING:
 334:..\common\ud3core/cli_basic.c ****             ttprintf("\t%s=%s\r\n", params[index].name,(char*)params[index].value);
 1050              		.loc 1 334 0
 1051 00ea 6E6A     		ldr	r6, [r5, #36]
 1052 00ec A368     		ldr	r3, [r4, #8]
 1053 00ee 6268     		ldr	r2, [r4, #4]
 1054 00f0 0A49     		ldr	r1, .L108+24
 1055              	.LVL143:
 1056              	.L107:
 1057 00f2 B446     		mov	ip, r6
 1058 00f4 6868     		ldr	r0, [r5, #4]
 335:..\common\ud3core/cli_basic.c ****             break;
 336:..\common\ud3core/cli_basic.c ****         }
 337:..\common\ud3core/cli_basic.c **** }
 1059              		.loc 1 337 0
 1060 00f6 03B0     		add	sp, sp, #12
 1061              		.cfi_remember_state
 1062              		.cfi_def_cfa_offset 20
 1063              		@ sp needed
 1064 00f8 BDE8F040 		pop	{r4, r5, r6, r7, lr}
 1065              		.cfi_restore 14
 1066              		.cfi_restore 7
 1067              		.cfi_restore 6
 1068              		.cfi_restore 5
 1069              		.cfi_restore 4
 1070              		.cfi_def_cfa_offset 0
 1071              	.LVL144:
 334:..\common\ud3core/cli_basic.c ****             break;
ARM GAS  C:\Users\chemi\AppData\Local\Temp\ccHerMgL.s 			page 26


 1072              		.loc 1 334 0
 1073 00fc 6047     		bx	ip
 1074              	.LVL145:
 1075              	.L82:
 1076              		.cfi_restore_state
 1077              		.loc 1 337 0
 1078 00fe 03B0     		add	sp, sp, #12
 1079              		.cfi_def_cfa_offset 20
 1080              		@ sp needed
 1081 0100 F0BD     		pop	{r4, r5, r6, r7, pc}
 1082              	.LVL146:
 1083              	.L109:
 1084 0102 00BF     		.align	2
 1085              	.L108:
 1086 0104 E9000000 		.word	.LC16
 1087 0108 F7000000 		.word	.LC17
 1088 010c 00010000 		.word	.LC18
 1089 0110 0E010000 		.word	.LC19
 1090 0114 17010000 		.word	.LC20
 1091 0118 20010000 		.word	.LC21
 1092 011c 29010000 		.word	.LC22
 1093              		.cfi_endproc
 1094              	.LFE72:
 1095              		.size	print_param, .-print_param
 1096              		.section	.text.set_visibility,"ax",%progbits
 1097              		.align	1
 1098              		.global	set_visibility
 1099              		.thumb
 1100              		.thumb_func
 1101              		.type	set_visibility, %function
 1102              	set_visibility:
 1103              	.LFB73:
 338:..\common\ud3core/cli_basic.c **** 
 339:..\common\ud3core/cli_basic.c **** uint8_t set_visibility(parameter_entry * params, uint8_t param_size, char* text, uint8_t visible){
 1104              		.loc 1 339 0
 1105              		.cfi_startproc
 1106              		@ args = 0, pretend = 0, frame = 16
 1107              		@ frame_needed = 0, uses_anonymous_args = 0
 1108              	.LVL147:
 1109 0000 2DE9F04F 		push	{r4, r5, r6, r7, r8, r9, r10, fp, lr}
 1110              		.cfi_def_cfa_offset 36
 1111              		.cfi_offset 4, -36
 1112              		.cfi_offset 5, -32
 1113              		.cfi_offset 6, -28
 1114              		.cfi_offset 7, -24
 1115              		.cfi_offset 8, -20
 1116              		.cfi_offset 9, -16
 1117              		.cfi_offset 10, -12
 1118              		.cfi_offset 11, -8
 1119              		.cfi_offset 14, -4
 340:..\common\ud3core/cli_basic.c ****     int8_t max_len=-1;
 341:..\common\ud3core/cli_basic.c ****     int8_t max_index=-1;
 1120              		.loc 1 341 0
 1121 0004 4FF0FF34 		mov	r4, #-1
 339:..\common\ud3core/cli_basic.c ****     int8_t max_len=-1;
 1122              		.loc 1 339 0
 1123 0008 0646     		mov	r6, r0
ARM GAS  C:\Users\chemi\AppData\Local\Temp\ccHerMgL.s 			page 27


 1124 000a 8A46     		mov	r10, r1
 1125 000c 9346     		mov	fp, r2
 340:..\common\ud3core/cli_basic.c ****     int8_t max_len=-1;
 1126              		.loc 1 340 0
 1127 000e 2746     		mov	r7, r4
 339:..\common\ud3core/cli_basic.c ****     int8_t max_len=-1;
 1128              		.loc 1 339 0
 1129 0010 85B0     		sub	sp, sp, #20
 1130              		.cfi_def_cfa_offset 56
 339:..\common\ud3core/cli_basic.c ****     int8_t max_len=-1;
 1131              		.loc 1 339 0
 1132 0012 0193     		str	r3, [sp, #4]
 1133              	.LBB11:
 342:..\common\ud3core/cli_basic.c ****     
 343:..\common\ud3core/cli_basic.c **** 	for (uint8_t current_parameter = 0; current_parameter < param_size; current_parameter++) {
 1134              		.loc 1 343 0
 1135 0014 0025     		movs	r5, #0
 1136              	.LBB12:
 344:..\common\ud3core/cli_basic.c ****         uint8_t text_len = strlen(params[current_parameter].name);
 1137              		.loc 1 344 0
 1138 0016 2423     		movs	r3, #36
 1139              	.LVL148:
 1140              	.L111:
 1141              	.LBE12:
 343:..\common\ud3core/cli_basic.c ****         uint8_t text_len = strlen(params[current_parameter].name);
 1142              		.loc 1 343 0 discriminator 1
 1143 0018 AA45     		cmp	r10, r5
 1144 001a 18D0     		beq	.L116
 1145              	.LBB13:
 1146              		.loc 1 344 0
 1147 001c 03FB0562 		mla	r2, r3, r5, r6
 1148 0020 5168     		ldr	r1, [r2, #4]
 1149 0022 0393     		str	r3, [sp, #12]
 1150 0024 0846     		mov	r0, r1
 1151 0026 0291     		str	r1, [sp, #8]
 1152 0028 FFF7FEFF 		bl	strlen
 1153              	.LVL149:
 1154 002c 5FFA80F9 		uxtb	r9, r0
 1155 0030 8046     		mov	r8, r0
 1156              	.LVL150:
 345:..\common\ud3core/cli_basic.c **** 		if (memcmp(text, params[current_parameter].name, text_len) == 0) {
 1157              		.loc 1 345 0
 1158 0032 4A46     		mov	r2, r9
 1159 0034 0299     		ldr	r1, [sp, #8]
 1160 0036 5846     		mov	r0, fp
 1161              	.LVL151:
 1162 0038 FFF7FEFF 		bl	memcmp
 1163              	.LVL152:
 1164 003c 039B     		ldr	r3, [sp, #12]
 1165 003e 20B9     		cbnz	r0, .L112
 346:..\common\ud3core/cli_basic.c ****             if(text_len > max_len){
 1166              		.loc 1 346 0
 1167 0040 B945     		cmp	r9, r7
 347:..\common\ud3core/cli_basic.c **** 			    max_len = text_len;
 1168              		.loc 1 347 0
 1169 0042 C4BF     		itt	gt
 1170 0044 4FFA88F7 		sxtbgt	r7, r8
ARM GAS  C:\Users\chemi\AppData\Local\Temp\ccHerMgL.s 			page 28


 1171              	.LVL153:
 348:..\common\ud3core/cli_basic.c ****                 max_index = current_parameter;
 1172              		.loc 1 348 0
 1173 0048 6CB2     		sxtbgt	r4, r5
 1174              	.LVL154:
 1175              	.L112:
 1176 004a 0135     		adds	r5, r5, #1
 1177              	.LVL155:
 1178 004c E4E7     		b	.L111
 1179              	.LVL156:
 1180              	.L116:
 1181              	.LBE13:
 1182              	.LBE11:
 349:..\common\ud3core/cli_basic.c ****             }
 350:..\common\ud3core/cli_basic.c **** 		}
 351:..\common\ud3core/cli_basic.c **** 	}
 352:..\common\ud3core/cli_basic.c ****     
 353:..\common\ud3core/cli_basic.c ****     if(max_index != -1){
 1183              		.loc 1 353 0
 1184 004e 631C     		adds	r3, r4, #1
 354:..\common\ud3core/cli_basic.c ****        params[max_index].visible = visible;
 1185              		.loc 1 354 0
 1186 0050 1FBF     		itttt	ne
 1187 0052 2423     		movne	r3, #36
 1188 0054 03FB0464 		mlane	r4, r3, r4, r6
 1189 0058 9DF80430 		ldrbne	r3, [sp, #4]	@ zero_extendqisi2
 355:..\common\ud3core/cli_basic.c ****        return pdTRUE; 
 1190              		.loc 1 355 0
 1191 005c 0120     		movne	r0, #1
 356:..\common\ud3core/cli_basic.c ****     } else {
 357:..\common\ud3core/cli_basic.c ****         return pdFALSE;
 1192              		.loc 1 357 0
 1193 005e 0CBF     		ite	eq
 1194 0060 0020     		moveq	r0, #0
 354:..\common\ud3core/cli_basic.c ****        return pdTRUE; 
 1195              		.loc 1 354 0
 1196 0062 6370     		strbne	r3, [r4, #1]
 358:..\common\ud3core/cli_basic.c ****     }
 359:..\common\ud3core/cli_basic.c **** }
 1197              		.loc 1 359 0
 1198 0064 05B0     		add	sp, sp, #20
 1199              		.cfi_def_cfa_offset 36
 1200              		@ sp needed
 1201 0066 BDE8F08F 		pop	{r4, r5, r6, r7, r8, r9, r10, fp, pc}
 1202              		.cfi_endproc
 1203              	.LFE73:
 1204              		.size	set_visibility, .-set_visibility
 1205              		.section	.text.print_param_buffer,"ax",%progbits
 1206              		.align	1
 1207              		.global	print_param_buffer
 1208              		.thumb
 1209              		.thumb_func
 1210              		.type	print_param_buffer, %function
 1211              	print_param_buffer:
 1212              	.LFB74:
 360:..\common\ud3core/cli_basic.c **** 
 361:..\common\ud3core/cli_basic.c **** void print_param_buffer(char * buffer, parameter_entry * params, uint8_t index){
ARM GAS  C:\Users\chemi\AppData\Local\Temp\ccHerMgL.s 			page 29


 1213              		.loc 1 361 0
 1214              		.cfi_startproc
 1215              		@ args = 0, pretend = 0, frame = 0
 1216              		@ frame_needed = 0, uses_anonymous_args = 0
 1217              	.LVL157:
 1218 0000 2DE9F043 		push	{r4, r5, r6, r7, r8, r9, lr}
 1219              		.cfi_def_cfa_offset 28
 1220              		.cfi_offset 4, -28
 1221              		.cfi_offset 5, -24
 1222              		.cfi_offset 6, -20
 1223              		.cfi_offset 7, -16
 1224              		.cfi_offset 8, -12
 1225              		.cfi_offset 9, -8
 1226              		.cfi_offset 14, -4
 362:..\common\ud3core/cli_basic.c ****     uint32_t u_temp_buffer=0;
 363:..\common\ud3core/cli_basic.c ****     int32_t i_temp_buffer=0;
 364:..\common\ud3core/cli_basic.c ****     float f_temp_buffer=0.0;
 365:..\common\ud3core/cli_basic.c ****     switch (params[index].type){
 1227              		.loc 1 365 0
 1228 0004 2424     		movs	r4, #36
 1229 0006 04FB0214 		mla	r4, r4, r2, r1
 1230 000a 637B     		ldrb	r3, [r4, #13]	@ zero_extendqisi2
 361:..\common\ud3core/cli_basic.c ****     uint32_t u_temp_buffer=0;
 1231              		.loc 1 361 0
 1232 000c 89B0     		sub	sp, sp, #36
 1233              		.cfi_def_cfa_offset 64
 361:..\common\ud3core/cli_basic.c ****     uint32_t u_temp_buffer=0;
 1234              		.loc 1 361 0
 1235 000e 0546     		mov	r5, r0
 1236              		.loc 1 365 0
 1237 0010 042B     		cmp	r3, #4
 1238 0012 00F2AF80 		bhi	.L117
 1239 0016 DFE803F0 		tbb	[pc, r3]
 1240              	.LVL158:
 1241              	.L120:
 1242 001a 03       		.byte	(.L119-.L120)/2
 1243 001b 3D       		.byte	(.L121-.L120)/2
 1244 001c 80       		.byte	(.L122-.L120)/2
 1245 001d 94       		.byte	(.L123-.L120)/2
 1246 001e A0       		.byte	(.L124-.L120)/2
 1247 001f 00       		.p2align 1
 1248              	.L119:
 366:..\common\ud3core/cli_basic.c ****         case TYPE_UNSIGNED:
 367:..\common\ud3core/cli_basic.c ****             switch (params[index].size){
 1249              		.loc 1 367 0
 1250 0020 267B     		ldrb	r6, [r4, #12]	@ zero_extendqisi2
 1251 0022 022E     		cmp	r6, #2
 1252 0024 06D0     		beq	.L126
 1253 0026 042E     		cmp	r6, #4
 1254 0028 07D0     		beq	.L127
 1255 002a 012E     		cmp	r6, #1
 1256 002c 08D1     		bne	.L137
 368:..\common\ud3core/cli_basic.c ****                 case 1:
 369:..\common\ud3core/cli_basic.c ****                     u_temp_buffer = *(uint8_t*)params[index].value;
 1257              		.loc 1 369 0
 1258 002e A368     		ldr	r3, [r4, #8]
 1259 0030 1978     		ldrb	r1, [r3]	@ zero_extendqisi2
ARM GAS  C:\Users\chemi\AppData\Local\Temp\ccHerMgL.s 			page 30


 1260              	.LVL159:
 370:..\common\ud3core/cli_basic.c ****                     break;
 1261              		.loc 1 370 0
 1262 0032 06E0     		b	.L125
 1263              	.LVL160:
 1264              	.L126:
 371:..\common\ud3core/cli_basic.c ****                 case 2:
 372:..\common\ud3core/cli_basic.c ****                     u_temp_buffer = *(uint16_t*)params[index].value;
 1265              		.loc 1 372 0
 1266 0034 A368     		ldr	r3, [r4, #8]
 1267 0036 1988     		ldrh	r1, [r3]
 1268              	.LVL161:
 373:..\common\ud3core/cli_basic.c ****                     break;
 1269              		.loc 1 373 0
 1270 0038 03E0     		b	.L125
 1271              	.LVL162:
 1272              	.L127:
 374:..\common\ud3core/cli_basic.c ****                 case 4:
 375:..\common\ud3core/cli_basic.c ****                     u_temp_buffer = *(uint32_t*)params[index].value;
 1273              		.loc 1 375 0
 1274 003a A368     		ldr	r3, [r4, #8]
 1275 003c 1968     		ldr	r1, [r3]
 1276              	.LVL163:
 376:..\common\ud3core/cli_basic.c ****                     break;
 1277              		.loc 1 376 0
 1278 003e 00E0     		b	.L125
 1279              	.LVL164:
 1280              	.L137:
 362:..\common\ud3core/cli_basic.c ****     int32_t i_temp_buffer=0;
 1281              		.loc 1 362 0
 1282 0040 0021     		movs	r1, #0
 1283              	.LVL165:
 1284              	.L125:
 377:..\common\ud3core/cli_basic.c ****             }
 378:..\common\ud3core/cli_basic.c ****             if(params[index].div){
 1285              		.loc 1 378 0
 1286 0042 228B     		ldrh	r2, [r4, #24]
 1287 0044 2769     		ldr	r7, [r4, #16]
 1288 0046 D4F81480 		ldr	r8, [r4, #20]
 1289 004a EAB1     		cbz	r2, .L129
 379:..\common\ud3core/cli_basic.c ****                 sprintf(buffer, "%s;%u.%0*u;%u;%u;%i.%u;%i.%u",
 380:..\common\ud3core/cli_basic.c ****                     params[index].name,
 381:..\common\ud3core/cli_basic.c ****                     (u_temp_buffer/params[index].div),
 382:..\common\ud3core/cli_basic.c ****                     n_number(params[index].div)-1,
 1290              		.loc 1 382 0
 1291 004c 1046     		mov	r0, r2
 1292              	.LVL166:
 379:..\common\ud3core/cli_basic.c ****                 sprintf(buffer, "%s;%u.%0*u;%u;%u;%i.%u;%i.%u",
 1293              		.loc 1 379 0
 1294 004e B1FBF2F9 		udiv	r9, r1, r2
 1295              		.loc 1 382 0
 1296 0052 FFF7FEFF 		bl	n_number
 1297              	.LVL167:
 379:..\common\ud3core/cli_basic.c ****                 sprintf(buffer, "%s;%u.%0*u;%u;%u;%i.%u;%i.%u",
 1298              		.loc 1 379 0
 1299 0056 98FBF2F3 		sdiv	r3, r8, r2
 1300 005a 02FB1388 		mls	r8, r2, r3, r8
ARM GAS  C:\Users\chemi\AppData\Local\Temp\ccHerMgL.s 			page 31


 1301 005e 0693     		str	r3, [sp, #24]
 1302 0060 97FBF2F3 		sdiv	r3, r7, r2
 1303 0064 02FB1377 		mls	r7, r2, r3, r7
 1304 0068 02FB1912 		mls	r2, r2, r9, r1
 1305 006c 0493     		str	r3, [sp, #16]
 1306 006e 0138     		subs	r0, r0, #1
 1307 0070 0023     		movs	r3, #0
 1308 0072 0293     		str	r3, [sp, #8]
 1309 0074 CDF81C80 		str	r8, [sp, #28]
 1310 0078 0597     		str	r7, [sp, #20]
 1311 007a 0396     		str	r6, [sp, #12]
 1312 007c 0192     		str	r2, [sp, #4]
 1313 007e 0090     		str	r0, [sp]
 1314 0080 4B46     		mov	r3, r9
 1315 0082 6268     		ldr	r2, [r4, #4]
 1316 0084 3D49     		ldr	r1, .L141
 1317 0086 3AE0     		b	.L139
 1318              	.LVL168:
 1319              	.L129:
 383:..\common\ud3core/cli_basic.c ****                     (u_temp_buffer%params[index].div),
 384:..\common\ud3core/cli_basic.c ****                     params[index].type,
 385:..\common\ud3core/cli_basic.c ****                     params[index].size,
 386:..\common\ud3core/cli_basic.c ****                     (params[index].min/params[index].div),
 387:..\common\ud3core/cli_basic.c ****                     (params[index].min%params[index].div),
 388:..\common\ud3core/cli_basic.c ****                     (params[index].max/params[index].div),
 389:..\common\ud3core/cli_basic.c ****                     (params[index].max%params[index].div));
 390:..\common\ud3core/cli_basic.c ****             }else{
 391:..\common\ud3core/cli_basic.c ****                 sprintf(buffer, "%s;%u;%u;%u;%u;%u",
 1320              		.loc 1 391 0
 1321 0088 8DE8C401 		stmia	sp, {r2, r6, r7, r8}
 1322 008c 0B46     		mov	r3, r1
 1323 008e 6268     		ldr	r2, [r4, #4]
 1324 0090 3B49     		ldr	r1, .L141+4
 1325              	.LVL169:
 1326 0092 6CE0     		b	.L140
 1327              	.LVL170:
 1328              	.L121:
 392:..\common\ud3core/cli_basic.c ****                     params[index].name,
 393:..\common\ud3core/cli_basic.c ****                     u_temp_buffer,
 394:..\common\ud3core/cli_basic.c ****                     params[index].type,
 395:..\common\ud3core/cli_basic.c ****                     params[index].size,
 396:..\common\ud3core/cli_basic.c ****                     params[index].min,
 397:..\common\ud3core/cli_basic.c ****                     params[index].max
 398:..\common\ud3core/cli_basic.c ****                 );
 399:..\common\ud3core/cli_basic.c ****             }
 400:..\common\ud3core/cli_basic.c ****             break;
 401:..\common\ud3core/cli_basic.c ****         case TYPE_SIGNED:
 402:..\common\ud3core/cli_basic.c ****             switch (params[index].size){
 1329              		.loc 1 402 0
 1330 0094 267B     		ldrb	r6, [r4, #12]	@ zero_extendqisi2
 1331 0096 022E     		cmp	r6, #2
 1332 0098 07D0     		beq	.L131
 1333 009a 042E     		cmp	r6, #4
 1334 009c 09D0     		beq	.L132
 1335 009e 012E     		cmp	r6, #1
 1336 00a0 0AD1     		bne	.L138
 403:..\common\ud3core/cli_basic.c ****             case 1:
ARM GAS  C:\Users\chemi\AppData\Local\Temp\ccHerMgL.s 			page 32


 404:..\common\ud3core/cli_basic.c ****                 i_temp_buffer = *(int8_t*)params[index].value;
 1337              		.loc 1 404 0
 1338 00a2 A368     		ldr	r3, [r4, #8]
 1339 00a4 93F90010 		ldrsb	r1, [r3]
 1340              	.LVL171:
 405:..\common\ud3core/cli_basic.c ****                 break;
 1341              		.loc 1 405 0
 1342 00a8 07E0     		b	.L130
 1343              	.LVL172:
 1344              	.L131:
 406:..\common\ud3core/cli_basic.c ****             case 2:
 407:..\common\ud3core/cli_basic.c ****                 i_temp_buffer = *(int16_t*)params[index].value;
 1345              		.loc 1 407 0
 1346 00aa A368     		ldr	r3, [r4, #8]
 1347 00ac B3F90010 		ldrsh	r1, [r3]
 1348              	.LVL173:
 408:..\common\ud3core/cli_basic.c ****                 break;
 1349              		.loc 1 408 0
 1350 00b0 03E0     		b	.L130
 1351              	.LVL174:
 1352              	.L132:
 409:..\common\ud3core/cli_basic.c ****             case 4:
 410:..\common\ud3core/cli_basic.c ****                 i_temp_buffer = *(int32_t*)params[index].value;
 1353              		.loc 1 410 0
 1354 00b2 A368     		ldr	r3, [r4, #8]
 1355 00b4 1968     		ldr	r1, [r3]
 1356              	.LVL175:
 411:..\common\ud3core/cli_basic.c ****                 break;
 1357              		.loc 1 411 0
 1358 00b6 00E0     		b	.L130
 1359              	.LVL176:
 1360              	.L138:
 363:..\common\ud3core/cli_basic.c ****     float f_temp_buffer=0.0;
 1361              		.loc 1 363 0
 1362 00b8 0021     		movs	r1, #0
 1363              	.LVL177:
 1364              	.L130:
 412:..\common\ud3core/cli_basic.c ****             }
 413:..\common\ud3core/cli_basic.c ****             if(params[index].div){
 1365              		.loc 1 413 0
 1366 00ba 228B     		ldrh	r2, [r4, #24]
 1367 00bc 2769     		ldr	r7, [r4, #16]
 1368 00be D4F81480 		ldr	r8, [r4, #20]
 1369 00c2 02B3     		cbz	r2, .L134
 414:..\common\ud3core/cli_basic.c ****                 sprintf(buffer, "%s;%i.%0*u;%u;%u;%i.%u;%i.%u",
 415:..\common\ud3core/cli_basic.c ****                     params[index].name,
 416:..\common\ud3core/cli_basic.c ****                     (i_temp_buffer/params[index].div),
 417:..\common\ud3core/cli_basic.c ****                     n_number(params[index].div)-1,
 1370              		.loc 1 417 0
 1371 00c4 1046     		mov	r0, r2
 1372              	.LVL178:
 414:..\common\ud3core/cli_basic.c ****                 sprintf(buffer, "%s;%i.%0*u;%u;%u;%i.%u;%i.%u",
 1373              		.loc 1 414 0
 1374 00c6 91FBF2F9 		sdiv	r9, r1, r2
 1375              		.loc 1 417 0
 1376 00ca FFF7FEFF 		bl	n_number
 1377              	.LVL179:
ARM GAS  C:\Users\chemi\AppData\Local\Temp\ccHerMgL.s 			page 33


 414:..\common\ud3core/cli_basic.c ****                 sprintf(buffer, "%s;%i.%0*u;%u;%u;%i.%u;%i.%u",
 1378              		.loc 1 414 0
 1379 00ce 98FBF2F3 		sdiv	r3, r8, r2
 1380 00d2 02FB1388 		mls	r8, r2, r3, r8
 1381 00d6 0693     		str	r3, [sp, #24]
 1382 00d8 97FBF2F3 		sdiv	r3, r7, r2
 1383 00dc 02FB1377 		mls	r7, r2, r3, r7
 1384 00e0 0493     		str	r3, [sp, #16]
 1385 00e2 0123     		movs	r3, #1
 1386 00e4 0293     		str	r3, [sp, #8]
 1387 00e6 4B46     		mov	r3, r9
 1388 00e8 02FB1912 		mls	r2, r2, r9, r1
 1389 00ec 0138     		subs	r0, r0, #1
 1390 00ee CDF81C80 		str	r8, [sp, #28]
 1391 00f2 0597     		str	r7, [sp, #20]
 1392 00f4 0396     		str	r6, [sp, #12]
 1393 00f6 0192     		str	r2, [sp, #4]
 1394 00f8 0090     		str	r0, [sp]
 1395 00fa 6268     		ldr	r2, [r4, #4]
 1396 00fc 2149     		ldr	r1, .L141+8
 1397              	.LVL180:
 1398              	.L139:
 1399 00fe 2846     		mov	r0, r5
 1400 0100 FFF7FEFF 		bl	sprintf_
 1401              	.LVL181:
 1402 0104 36E0     		b	.L117
 1403              	.LVL182:
 1404              	.L134:
 418:..\common\ud3core/cli_basic.c ****                     i_temp_buffer%params[index].div,
 419:..\common\ud3core/cli_basic.c ****                     params[index].type,
 420:..\common\ud3core/cli_basic.c ****                     params[index].size,
 421:..\common\ud3core/cli_basic.c ****                     (params[index].min/params[index].div),
 422:..\common\ud3core/cli_basic.c ****                     params[index].min%params[index].div,
 423:..\common\ud3core/cli_basic.c ****                     (params[index].max/params[index].div),
 424:..\common\ud3core/cli_basic.c ****                     params[index].max%params[index].div);
 425:..\common\ud3core/cli_basic.c ****             }else{
 426:..\common\ud3core/cli_basic.c ****                 sprintf(buffer, "%s;%i;%u;%u;%i;%i",
 1405              		.loc 1 426 0
 1406 0106 0123     		movs	r3, #1
 1407 0108 0093     		str	r3, [sp]
 1408 010a CDF80C80 		str	r8, [sp, #12]
 1409 010e 0297     		str	r7, [sp, #8]
 1410 0110 0196     		str	r6, [sp, #4]
 1411 0112 0B46     		mov	r3, r1
 1412 0114 6268     		ldr	r2, [r4, #4]
 1413 0116 1C49     		ldr	r1, .L141+12
 1414              	.LVL183:
 1415 0118 29E0     		b	.L140
 1416              	.LVL184:
 1417              	.L122:
 427:..\common\ud3core/cli_basic.c ****                     params[index].name,
 428:..\common\ud3core/cli_basic.c ****                     i_temp_buffer,
 429:..\common\ud3core/cli_basic.c ****                     params[index].type,
 430:..\common\ud3core/cli_basic.c ****                     params[index].size,
 431:..\common\ud3core/cli_basic.c ****                     params[index].min,
 432:..\common\ud3core/cli_basic.c ****                     params[index].max);
 433:..\common\ud3core/cli_basic.c ****             }
ARM GAS  C:\Users\chemi\AppData\Local\Temp\ccHerMgL.s 			page 34


 434:..\common\ud3core/cli_basic.c ****             break;
 435:..\common\ud3core/cli_basic.c ****         case TYPE_FLOAT:
 436:..\common\ud3core/cli_basic.c ****             f_temp_buffer = *(float*)params[index].value;
 437:..\common\ud3core/cli_basic.c ****             sprintf(buffer, "%s;%f;%u;%u;%i;%i",
 1418              		.loc 1 437 0
 1419 011a 6369     		ldr	r3, [r4, #20]
 1420 011c 0593     		str	r3, [sp, #20]
 1421              	.LVL185:
 1422 011e 2369     		ldr	r3, [r4, #16]
 1423 0120 0493     		str	r3, [sp, #16]
 1424 0122 237B     		ldrb	r3, [r4, #12]	@ zero_extendqisi2
 1425 0124 0393     		str	r3, [sp, #12]
 1426 0126 0223     		movs	r3, #2
 1427 0128 0293     		str	r3, [sp, #8]
 436:..\common\ud3core/cli_basic.c ****             sprintf(buffer, "%s;%f;%u;%u;%i;%i",
 1428              		.loc 1 436 0
 1429 012a A368     		ldr	r3, [r4, #8]
 1430              		.loc 1 437 0
 1431 012c 1868     		ldr	r0, [r3]	@ float
 1432              	.LVL186:
 1433 012e FFF7FEFF 		bl	__aeabi_f2d
 1434              	.LVL187:
 1435 0132 CDE90001 		strd	r0, [sp]
 1436 0136 1549     		ldr	r1, .L141+16
 1437 0138 6268     		ldr	r2, [r4, #4]
 1438 013a 2846     		mov	r0, r5
 1439 013c FFF7FEFF 		bl	sprintf_
 1440              	.LVL188:
 438:..\common\ud3core/cli_basic.c ****                 params[index].name,
 439:..\common\ud3core/cli_basic.c ****                 f_temp_buffer,
 440:..\common\ud3core/cli_basic.c ****                 params[index].type,
 441:..\common\ud3core/cli_basic.c ****                 params[index].size,
 442:..\common\ud3core/cli_basic.c ****                 params[index].min,
 443:..\common\ud3core/cli_basic.c ****                 params[index].max);
 444:..\common\ud3core/cli_basic.c ****             break;
 1441              		.loc 1 444 0
 1442 0140 18E0     		b	.L117
 1443              	.LVL189:
 1444              	.L123:
 445:..\common\ud3core/cli_basic.c ****         case TYPE_CHAR:
 446:..\common\ud3core/cli_basic.c ****             sprintf(buffer, "%s;%c;%u;%u;%s;%s",
 447:..\common\ud3core/cli_basic.c ****                 params[index].name,
 448:..\common\ud3core/cli_basic.c ****                 *(char*)params[index].value,
 1445              		.loc 1 448 0
 1446 0142 A368     		ldr	r3, [r4, #8]
 446:..\common\ud3core/cli_basic.c ****                 params[index].name,
 1447              		.loc 1 446 0
 1448 0144 124A     		ldr	r2, .L141+20
 1449 0146 1B78     		ldrb	r3, [r3]	@ zero_extendqisi2
 1450 0148 0392     		str	r2, [sp, #12]
 1451 014a 0292     		str	r2, [sp, #8]
 1452 014c 227B     		ldrb	r2, [r4, #12]	@ zero_extendqisi2
 1453 014e 1149     		ldr	r1, .L141+24
 1454              	.LVL190:
 1455 0150 0192     		str	r2, [sp, #4]
 1456 0152 0322     		movs	r2, #3
 1457 0154 0092     		str	r2, [sp]
ARM GAS  C:\Users\chemi\AppData\Local\Temp\ccHerMgL.s 			page 35


 1458 0156 6268     		ldr	r2, [r4, #4]
 1459 0158 09E0     		b	.L140
 1460              	.LVL191:
 1461              	.L124:
 449:..\common\ud3core/cli_basic.c ****                 params[index].type,
 450:..\common\ud3core/cli_basic.c ****                 params[index].size,
 451:..\common\ud3core/cli_basic.c ****                 "NULL",
 452:..\common\ud3core/cli_basic.c ****                 "NULL");
 453:..\common\ud3core/cli_basic.c ****             break;
 454:..\common\ud3core/cli_basic.c ****         case TYPE_STRING:
 455:..\common\ud3core/cli_basic.c ****             sprintf(buffer, "%s;%s;%u;%u;%s;%s",
 1462              		.loc 1 455 0
 1463 015a 0D4B     		ldr	r3, .L141+20
 1464 015c 0E49     		ldr	r1, .L141+28
 1465              	.LVL192:
 1466 015e 0393     		str	r3, [sp, #12]
 1467 0160 0293     		str	r3, [sp, #8]
 1468 0162 237B     		ldrb	r3, [r4, #12]	@ zero_extendqisi2
 1469 0164 0193     		str	r3, [sp, #4]
 1470 0166 0423     		movs	r3, #4
 1471 0168 0093     		str	r3, [sp]
 1472 016a A368     		ldr	r3, [r4, #8]
 1473 016c 6268     		ldr	r2, [r4, #4]
 1474              	.LVL193:
 1475              	.L140:
 1476 016e 2846     		mov	r0, r5
 1477              	.LVL194:
 1478 0170 FFF7FEFF 		bl	sprintf_
 1479              	.LVL195:
 1480              	.L117:
 456:..\common\ud3core/cli_basic.c ****                 params[index].name,
 457:..\common\ud3core/cli_basic.c ****                 (char*)params[index].value,
 458:..\common\ud3core/cli_basic.c ****                 params[index].type,
 459:..\common\ud3core/cli_basic.c ****                 params[index].size,
 460:..\common\ud3core/cli_basic.c ****                 "NULL",
 461:..\common\ud3core/cli_basic.c ****                 "NULL");
 462:..\common\ud3core/cli_basic.c ****             break;
 463:..\common\ud3core/cli_basic.c ****         }
 464:..\common\ud3core/cli_basic.c **** }
 1481              		.loc 1 464 0
 1482 0174 09B0     		add	sp, sp, #36
 1483              		.cfi_def_cfa_offset 28
 1484              		@ sp needed
 1485 0176 BDE8F083 		pop	{r4, r5, r6, r7, r8, r9, pc}
 1486              	.LVL196:
 1487              	.L142:
 1488 017a 00BF     		.align	2
 1489              	.L141:
 1490 017c 32010000 		.word	.LC23
 1491 0180 4F010000 		.word	.LC24
 1492 0184 61010000 		.word	.LC25
 1493 0188 7E010000 		.word	.LC26
 1494 018c 90010000 		.word	.LC27
 1495 0190 B4010000 		.word	.LC29
 1496 0194 A2010000 		.word	.LC28
 1497 0198 B9010000 		.word	.LC30
 1498              		.cfi_endproc
ARM GAS  C:\Users\chemi\AppData\Local\Temp\ccHerMgL.s 			page 36


 1499              	.LFE74:
 1500              		.size	print_param_buffer, .-print_param_buffer
 1501              		.section	.text.EEPROM_Read_Row,"ax",%progbits
 1502              		.align	1
 1503              		.global	EEPROM_Read_Row
 1504              		.thumb
 1505              		.thumb_func
 1506              		.type	EEPROM_Read_Row, %function
 1507              	EEPROM_Read_Row:
 1508              	.LFB75:
 465:..\common\ud3core/cli_basic.c **** 
 466:..\common\ud3core/cli_basic.c **** 
 467:..\common\ud3core/cli_basic.c **** uint8_t EEPROM_Read_Row(uint8_t row, uint8_t * buffer){
 1509              		.loc 1 467 0
 1510              		.cfi_startproc
 1511              		@ args = 0, pretend = 0, frame = 0
 1512              		@ frame_needed = 0, uses_anonymous_args = 0
 1513              	.LVL197:
 1514 0000 70B5     		push	{r4, r5, r6, lr}
 1515              		.cfi_def_cfa_offset 16
 1516              		.cfi_offset 4, -16
 1517              		.cfi_offset 5, -12
 1518              		.cfi_offset 6, -8
 1519              		.cfi_offset 14, -4
 468:..\common\ud3core/cli_basic.c ****     uint16_t addr;
 469:..\common\ud3core/cli_basic.c ****     addr = row * CY_EEPROM_SIZEOF_ROW;
 1520              		.loc 1 469 0
 1521 0002 0C46     		mov	r4, r1
 1522 0004 01F11005 		add	r5, r1, #16
 1523              	.LBB14:
 470:..\common\ud3core/cli_basic.c ****     for(uint8_t i = 0; i<CY_EEPROM_SIZEOF_ROW;i++){
 471:..\common\ud3core/cli_basic.c ****         *buffer=EEPROM_READ_BYTE(addr+i);
 1524              		.loc 1 471 0
 1525 0008 C1EB0016 		rsb	r6, r1, r0, lsl #4
 1526              	.LVL198:
 1527              	.L144:
 1528              		.loc 1 471 0 is_stmt 0 discriminator 3
 1529 000c A019     		adds	r0, r4, r6
 1530 000e 80B2     		uxth	r0, r0
 1531 0010 FFF7FEFF 		bl	EEPROM_1_ReadByte
 1532              	.LVL199:
 1533 0014 04F8010B 		strb	r0, [r4], #1
 1534              	.LVL200:
 470:..\common\ud3core/cli_basic.c ****     for(uint8_t i = 0; i<CY_EEPROM_SIZEOF_ROW;i++){
 1535              		.loc 1 470 0 is_stmt 1 discriminator 3
 1536 0018 AC42     		cmp	r4, r5
 1537 001a F7D1     		bne	.L144
 1538              	.LBE14:
 472:..\common\ud3core/cli_basic.c ****         buffer++;
 473:..\common\ud3core/cli_basic.c ****     }
 474:..\common\ud3core/cli_basic.c ****     return 1;
 475:..\common\ud3core/cli_basic.c **** }
 1539              		.loc 1 475 0
 1540 001c 0120     		movs	r0, #1
 1541 001e 70BD     		pop	{r4, r5, r6, pc}
 1542              		.cfi_endproc
 1543              	.LFE75:
ARM GAS  C:\Users\chemi\AppData\Local\Temp\ccHerMgL.s 			page 37


 1544              		.size	EEPROM_Read_Row, .-EEPROM_Read_Row
 1545              		.section	.text.EEPROM_buffer_write,"ax",%progbits
 1546              		.align	1
 1547              		.global	EEPROM_buffer_write
 1548              		.thumb
 1549              		.thumb_func
 1550              		.type	EEPROM_buffer_write, %function
 1551              	EEPROM_buffer_write:
 1552              	.LFB76:
 476:..\common\ud3core/cli_basic.c **** 
 477:..\common\ud3core/cli_basic.c **** uint8_t EEPROM_buffer_write(uint8_t byte, uint16_t address, uint8_t flush){
 1553              		.loc 1 477 0
 1554              		.cfi_startproc
 1555              		@ args = 0, pretend = 0, frame = 0
 1556              		@ frame_needed = 0, uses_anonymous_args = 0
 1557              	.LVL201:
 1558 0000 2DE9F843 		push	{r3, r4, r5, r6, r7, r8, r9, lr}
 1559              		.cfi_def_cfa_offset 32
 1560              		.cfi_offset 3, -32
 1561              		.cfi_offset 4, -28
 1562              		.cfi_offset 5, -24
 1563              		.cfi_offset 6, -20
 1564              		.cfi_offset 7, -16
 1565              		.cfi_offset 8, -12
 1566              		.cfi_offset 9, -8
 1567              		.cfi_offset 14, -4
 1568              		.loc 1 477 0
 1569 0004 9046     		mov	r8, r2
 478:..\common\ud3core/cli_basic.c ****     byte_cnt++;
 1570              		.loc 1 478 0
 1571 0006 204A     		ldr	r2, .L160
 1572              	.LVL202:
 479:..\common\ud3core/cli_basic.c ****     static uint8_t eeprom_buffer[CY_EEPROM_SIZEOF_ROW];
 480:..\common\ud3core/cli_basic.c ****     static uint16_t last_row = 0xFFFF;
 481:..\common\ud3core/cli_basic.c ****     static uint8_t changed=0;
 482:..\common\ud3core/cli_basic.c ****     uint8_t ret_change=0;
 483:..\common\ud3core/cli_basic.c ****     uint16_t rowNumber;
 484:..\common\ud3core/cli_basic.c ****     uint16_t byteNumber;
 485:..\common\ud3core/cli_basic.c ****     rowNumber = address/(uint16_t)CY_EEPROM_SIZEOF_ROW;
 486:..\common\ud3core/cli_basic.c ****     byteNumber = address - (rowNumber * ((uint16_t)CY_EEPROM_SIZEOF_ROW));
 487:..\common\ud3core/cli_basic.c ****     if(last_row==0xFFFF){
 1573              		.loc 1 487 0
 1574 0008 204F     		ldr	r7, .L160+4
 478:..\common\ud3core/cli_basic.c ****     byte_cnt++;
 1575              		.loc 1 478 0
 1576 000a 1388     		ldrh	r3, [r2]
 485:..\common\ud3core/cli_basic.c ****     byteNumber = address - (rowNumber * ((uint16_t)CY_EEPROM_SIZEOF_ROW));
 1577              		.loc 1 485 0
 1578 000c 0C09     		lsrs	r4, r1, #4
 478:..\common\ud3core/cli_basic.c ****     byte_cnt++;
 1579              		.loc 1 478 0
 1580 000e 0133     		adds	r3, r3, #1
 1581 0010 1380     		strh	r3, [r2]	@ movhi
 1582              	.LVL203:
 1583              		.loc 1 487 0
 1584 0012 4FF6FF73 		movw	r3, #65535
 486:..\common\ud3core/cli_basic.c ****     if(last_row==0xFFFF){
ARM GAS  C:\Users\chemi\AppData\Local\Temp\ccHerMgL.s 			page 38


 1585              		.loc 1 486 0
 1586 0016 01F00F09 		and	r9, r1, #15
 1587              	.LVL204:
 1588              		.loc 1 487 0
 1589 001a 3988     		ldrh	r1, [r7]
 1590              	.LVL205:
 477:..\common\ud3core/cli_basic.c ****     byte_cnt++;
 1591              		.loc 1 477 0
 1592 001c 0646     		mov	r6, r0
 1593              		.loc 1 487 0
 1594 001e 9942     		cmp	r1, r3
 1595 0020 1B4D     		ldr	r5, .L160+8
 1596 0022 05D1     		bne	.L147
 488:..\common\ud3core/cli_basic.c ****         last_row=rowNumber;
 489:..\common\ud3core/cli_basic.c ****         EEPROM_Read_Row(rowNumber,eeprom_buffer);
 1597              		.loc 1 489 0
 1598 0024 2946     		mov	r1, r5
 1599 0026 E0B2     		uxtb	r0, r4
 1600              	.LVL206:
 488:..\common\ud3core/cli_basic.c ****         last_row=rowNumber;
 1601              		.loc 1 488 0
 1602 0028 3C80     		strh	r4, [r7]	@ movhi
 1603              		.loc 1 489 0
 1604 002a FFF7FEFF 		bl	EEPROM_Read_Row
 1605              	.LVL207:
 1606 002e 0DE0     		b	.L148
 1607              	.LVL208:
 1608              	.L147:
 490:..\common\ud3core/cli_basic.c ****     }else if(last_row!=rowNumber){
 1609              		.loc 1 490 0
 1610 0030 8C42     		cmp	r4, r1
 1611 0032 0BD0     		beq	.L148
 491:..\common\ud3core/cli_basic.c ****         if(changed){
 1612              		.loc 1 491 0
 1613 0034 2B7C     		ldrb	r3, [r5, #16]	@ zero_extendqisi2
 1614 0036 1BB1     		cbz	r3, .L149
 492:..\common\ud3core/cli_basic.c ****             EEPROM_WRITE_ROW(last_row,eeprom_buffer);
 1615              		.loc 1 492 0
 1616 0038 C9B2     		uxtb	r1, r1
 1617 003a 2846     		mov	r0, r5
 1618              	.LVL209:
 1619 003c FFF7FEFF 		bl	EEPROM_1_Write
 1620              	.LVL210:
 1621              	.L149:
 493:..\common\ud3core/cli_basic.c ****         }
 494:..\common\ud3core/cli_basic.c ****         EEPROM_Read_Row(rowNumber,eeprom_buffer);
 1622              		.loc 1 494 0
 1623 0040 1349     		ldr	r1, .L160+8
 1624 0042 E0B2     		uxtb	r0, r4
 1625 0044 FFF7FEFF 		bl	EEPROM_Read_Row
 1626              	.LVL211:
 495:..\common\ud3core/cli_basic.c ****         changed=0;
 1627              		.loc 1 495 0
 1628 0048 0023     		movs	r3, #0
 1629 004a 2B74     		strb	r3, [r5, #16]
 1630              	.L148:
 496:..\common\ud3core/cli_basic.c ****     }
ARM GAS  C:\Users\chemi\AppData\Local\Temp\ccHerMgL.s 			page 39


 497:..\common\ud3core/cli_basic.c ****     if(eeprom_buffer[byteNumber]!=byte){
 1631              		.loc 1 497 0
 1632 004c 15F80920 		ldrb	r2, [r5, r9]	@ zero_extendqisi2
 1633 0050 0F4B     		ldr	r3, .L160+8
 1634 0052 B242     		cmp	r2, r6
 498:..\common\ud3core/cli_basic.c ****        eeprom_buffer[byteNumber]=byte;
 1635              		.loc 1 498 0
 1636 0054 1DBF     		ittte	ne
 1637 0056 03F80960 		strbne	r6, [r3, r9]
 499:..\common\ud3core/cli_basic.c ****        changed=1;
 1638              		.loc 1 499 0
 1639 005a 0126     		movne	r6, #1
 1640 005c 1E74     		strbne	r6, [r3, #16]
 1641              	.LVL212:
 482:..\common\ud3core/cli_basic.c ****     uint16_t rowNumber;
 1642              		.loc 1 482 0
 1643 005e 0026     		moveq	r6, #0
 1644              	.LVL213:
 500:..\common\ud3core/cli_basic.c ****        ret_change=1;
 501:..\common\ud3core/cli_basic.c ****     }
 502:..\common\ud3core/cli_basic.c **** 
 503:..\common\ud3core/cli_basic.c ****     last_row = rowNumber;
 1645              		.loc 1 503 0
 1646 0060 0A4B     		ldr	r3, .L160+4
 1647 0062 3C80     		strh	r4, [r7]	@ movhi
 504:..\common\ud3core/cli_basic.c **** 
 505:..\common\ud3core/cli_basic.c ****     if(flush && changed){
 1648              		.loc 1 505 0
 1649 0064 B8F1000F 		cmp	r8, #0
 1650 0068 0BD0     		beq	.L151
 1651 006a 4FF6FF72 		movw	r2, #65535
 1652              		.loc 1 505 0 is_stmt 0 discriminator 1
 1653 006e 297C     		ldrb	r1, [r5, #16]	@ zero_extendqisi2
 1654 0070 074F     		ldr	r7, .L160+8
 506:..\common\ud3core/cli_basic.c ****         last_row = 0xFFFF;
 1655              		.loc 1 506 0 is_stmt 1 discriminator 1
 1656 0072 1A80     		strh	r2, [r3]	@ movhi
 505:..\common\ud3core/cli_basic.c ****         last_row = 0xFFFF;
 1657              		.loc 1 505 0 discriminator 1
 1658 0074 29B1     		cbz	r1, .L151
 507:..\common\ud3core/cli_basic.c ****         EEPROM_WRITE_ROW(rowNumber,eeprom_buffer);
 1659              		.loc 1 507 0
 1660 0076 E1B2     		uxtb	r1, r4
 1661 0078 3846     		mov	r0, r7
 1662 007a FFF7FEFF 		bl	EEPROM_1_Write
 1663              	.LVL214:
 508:..\common\ud3core/cli_basic.c ****         changed = 0;
 1664              		.loc 1 508 0
 1665 007e 0023     		movs	r3, #0
 1666 0080 3B74     		strb	r3, [r7, #16]
 1667              	.L151:
 509:..\common\ud3core/cli_basic.c ****     }else if(flush){
 510:..\common\ud3core/cli_basic.c ****         last_row = 0xFFFF;
 511:..\common\ud3core/cli_basic.c ****     }
 512:..\common\ud3core/cli_basic.c ****     return ret_change;
 513:..\common\ud3core/cli_basic.c **** }
 1668              		.loc 1 513 0
ARM GAS  C:\Users\chemi\AppData\Local\Temp\ccHerMgL.s 			page 40


 1669 0082 3046     		mov	r0, r6
 1670 0084 BDE8F883 		pop	{r3, r4, r5, r6, r7, r8, r9, pc}
 1671              	.LVL215:
 1672              	.L161:
 1673              		.align	2
 1674              	.L160:
 1675 0088 00000000 		.word	byte_cnt
 1676 008c 00000000 		.word	.LANCHOR0
 1677 0090 00000000 		.word	.LANCHOR1
 1678              		.cfi_endproc
 1679              	.LFE76:
 1680              		.size	EEPROM_buffer_write, .-EEPROM_buffer_write
 1681              		.section	.text.djb_hash,"ax",%progbits
 1682              		.align	1
 1683              		.global	djb_hash
 1684              		.thumb
 1685              		.thumb_func
 1686              		.type	djb_hash, %function
 1687              	djb_hash:
 1688              	.LFB77:
 514:..\common\ud3core/cli_basic.c **** 
 515:..\common\ud3core/cli_basic.c **** uint32_t djb_hash(const char* cp)
 516:..\common\ud3core/cli_basic.c **** {
 1689              		.loc 1 516 0
 1690              		.cfi_startproc
 1691              		@ args = 0, pretend = 0, frame = 0
 1692              		@ frame_needed = 0, uses_anonymous_args = 0
 1693              		@ link register save eliminated.
 1694              	.LVL216:
 1695 0000 421E     		subs	r2, r0, #1
 517:..\common\ud3core/cli_basic.c ****     uint32_t hash = 5381;
 1696              		.loc 1 517 0
 1697 0002 41F20550 		movw	r0, #5381
 1698              	.LVL217:
 1699              	.L163:
 518:..\common\ud3core/cli_basic.c ****     while (*cp)
 1700              		.loc 1 518 0
 1701 0006 12F8013F 		ldrb	r3, [r2, #1]!	@ zero_extendqisi2
 1702              	.LVL218:
 1703 000a 1BB1     		cbz	r3, .L165
 519:..\common\ud3core/cli_basic.c ****         hash = 33 * hash ^ (unsigned char) *cp++;
 1704              		.loc 1 519 0
 1705 000c 00EB4010 		add	r0, r0, r0, lsl #5
 1706              	.LVL219:
 1707 0010 5840     		eors	r0, r0, r3
 1708              	.LVL220:
 1709 0012 F8E7     		b	.L163
 1710              	.LVL221:
 1711              	.L165:
 520:..\common\ud3core/cli_basic.c ****     return hash;
 521:..\common\ud3core/cli_basic.c **** }
 1712              		.loc 1 521 0
 1713 0014 7047     		bx	lr
 1714              		.cfi_endproc
 1715              	.LFE77:
 1716              		.size	djb_hash, .-djb_hash
 1717              		.section	.text.EEPROM_check_hash,"ax",%progbits
ARM GAS  C:\Users\chemi\AppData\Local\Temp\ccHerMgL.s 			page 41


 1718              		.align	1
 1719              		.global	EEPROM_check_hash
 1720              		.thumb
 1721              		.thumb_func
 1722              		.type	EEPROM_check_hash, %function
 1723              	EEPROM_check_hash:
 1724              	.LFB78:
 522:..\common\ud3core/cli_basic.c **** 
 523:..\common\ud3core/cli_basic.c **** void EEPROM_check_hash(parameter_entry * params, uint8_t param_size, TERMINAL_HANDLE * handle){
 1725              		.loc 1 523 0
 1726              		.cfi_startproc
 1727              		@ args = 0, pretend = 0, frame = 16
 1728              		@ frame_needed = 0, uses_anonymous_args = 0
 1729              	.LVL222:
 1730 0000 0B46     		mov	r3, r1
 1731 0002 2DE9F04F 		push	{r4, r5, r6, r7, r8, r9, r10, fp, lr}
 1732              		.cfi_def_cfa_offset 36
 1733              		.cfi_offset 4, -36
 1734              		.cfi_offset 5, -32
 1735              		.cfi_offset 6, -28
 1736              		.cfi_offset 7, -24
 1737              		.cfi_offset 8, -20
 1738              		.cfi_offset 9, -16
 1739              		.cfi_offset 10, -12
 1740              		.cfi_offset 11, -8
 1741              		.cfi_offset 14, -4
 1742 0006 8146     		mov	r9, r0
 1743 0008 1546     		mov	r5, r2
 1744              	.LBB15:
 524:..\common\ud3core/cli_basic.c ****     uint32_t temp_hash1;
 525:..\common\ud3core/cli_basic.c ****     uint32_t temp_hash2;
 526:..\common\ud3core/cli_basic.c ****     uint32_t collision=0;
 527:..\common\ud3core/cli_basic.c ****     for (uint8_t  current_parameter = 0; current_parameter < param_size; current_parameter++) {
 1745              		.loc 1 527 0
 1746 000a 0446     		mov	r4, r0
 1747 000c 0133     		adds	r3, r3, #1
 1748              	.LBE15:
 523:..\common\ud3core/cli_basic.c ****     uint32_t temp_hash1;
 1749              		.loc 1 523 0
 1750 000e 85B0     		sub	sp, sp, #20
 1751              		.cfi_def_cfa_offset 56
 1752 0010 DBB2     		uxtb	r3, r3
 523:..\common\ud3core/cli_basic.c ****     uint32_t temp_hash1;
 1753              		.loc 1 523 0
 1754 0012 0191     		str	r1, [sp, #4]
 1755 0014 0293     		str	r3, [sp, #8]
 1756              	.LBB19:
 1757              		.loc 1 527 0
 1758 0016 0126     		movs	r6, #1
 1759              	.LBE19:
 526:..\common\ud3core/cli_basic.c ****     for (uint8_t  current_parameter = 0; current_parameter < param_size; current_parameter++) {
 1760              		.loc 1 526 0
 1761 0018 0027     		movs	r7, #0
 1762              	.LVL223:
 1763              	.L167:
 1764              	.LBB20:
 1765              		.loc 1 527 0 discriminator 1
ARM GAS  C:\Users\chemi\AppData\Local\Temp\ccHerMgL.s 			page 42


 1766 001a 029B     		ldr	r3, [sp, #8]
 1767 001c 9E42     		cmp	r6, r3
 1768 001e 45D0     		beq	.L177
 528:..\common\ud3core/cli_basic.c ****         if(params[current_parameter].parameter_type == PARAM_CONFIG){
 1769              		.loc 1 528 0
 1770 0020 2378     		ldrb	r3, [r4]	@ zero_extendqisi2
 1771 0022 012B     		cmp	r3, #1
 1772 0024 3ED1     		bne	.L168
 529:..\common\ud3core/cli_basic.c ****             temp_hash1=djb_hash(params[current_parameter].name);
 1773              		.loc 1 529 0
 1774 0026 6068     		ldr	r0, [r4, #4]
 1775 0028 FFF7FEFF 		bl	djb_hash
 1776              	.LVL224:
 1777              	.LBB16:
 530:..\common\ud3core/cli_basic.c ****             for (uint8_t  n = 0; n < current_parameter; n++) {
 1778              		.loc 1 530 0
 1779 002c C846     		mov	r8, r9
 1780              	.LBE16:
 529:..\common\ud3core/cli_basic.c ****             temp_hash1=djb_hash(params[current_parameter].name);
 1781              		.loc 1 529 0
 1782 002e 8246     		mov	r10, r0
 1783              	.LVL225:
 1784              	.L169:
 1785              	.LBB17:
 1786              		.loc 1 530 0 discriminator 1
 1787 0030 4445     		cmp	r4, r8
 1788 0032 16D0     		beq	.L178
 531:..\common\ud3core/cli_basic.c ****                 if(params[n].parameter_type == PARAM_CONFIG){
 1789              		.loc 1 531 0
 1790 0034 98F800B0 		ldrb	fp, [r8]	@ zero_extendqisi2
 1791 0038 BBF1010F 		cmp	fp, #1
 1792 003c 0ED1     		bne	.L170
 532:..\common\ud3core/cli_basic.c ****                     temp_hash2=djb_hash(params[n].name);
 1793              		.loc 1 532 0
 1794 003e D8F80430 		ldr	r3, [r8, #4]
 1795 0042 1846     		mov	r0, r3
 1796 0044 0393     		str	r3, [sp, #12]
 1797 0046 FFF7FEFF 		bl	djb_hash
 1798              	.LVL226:
 533:..\common\ud3core/cli_basic.c ****                     if(temp_hash1==temp_hash2){
 1799              		.loc 1 533 0
 1800 004a 8245     		cmp	r10, r0
 1801 004c 039B     		ldr	r3, [sp, #12]
 1802 004e 05D1     		bne	.L170
 534:..\common\ud3core/cli_basic.c ****                         ttprintf("Found collision %s <-> %s\r\n", params[current_parameter].name, p
 1803              		.loc 1 534 0
 1804 0050 6F6A     		ldr	r7, [r5, #36]
 1805 0052 6268     		ldr	r2, [r4, #4]
 1806 0054 1B49     		ldr	r1, .L179
 1807 0056 6868     		ldr	r0, [r5, #4]
 1808              	.LVL227:
 1809 0058 B847     		blx	r7
 1810              	.LVL228:
 535:..\common\ud3core/cli_basic.c ****                         collision=1;
 1811              		.loc 1 535 0
 1812 005a 5F46     		mov	r7, fp
 1813              	.LVL229:
ARM GAS  C:\Users\chemi\AppData\Local\Temp\ccHerMgL.s 			page 43


 1814              	.L170:
 1815 005c 08F12408 		add	r8, r8, #36
 1816 0060 E6E7     		b	.L169
 1817              	.L178:
 1818 0062 B046     		mov	r8, r6
 1819              	.L172:
 1820              	.LVL230:
 1821              	.LBE17:
 1822              	.LBB18:
 536:..\common\ud3core/cli_basic.c ****                     }
 537:..\common\ud3core/cli_basic.c ****                 }
 538:..\common\ud3core/cli_basic.c ****             }
 539:..\common\ud3core/cli_basic.c ****             for (uint8_t  n = current_parameter+1; n < param_size; n++) {
 1823              		.loc 1 539 0 discriminator 1
 1824 0064 019B     		ldr	r3, [sp, #4]
 1825 0066 9845     		cmp	r8, r3
 1826 0068 1CD0     		beq	.L168
 540:..\common\ud3core/cli_basic.c ****                 if(params[n].parameter_type == PARAM_CONFIG){
 1827              		.loc 1 540 0
 1828 006a 2423     		movs	r3, #36
 1829 006c 03FB08F3 		mul	r3, r3, r8
 1830 0070 19F803B0 		ldrb	fp, [r9, r3]	@ zero_extendqisi2
 1831 0074 09EB0302 		add	r2, r9, r3
 1832 0078 BBF1010F 		cmp	fp, #1
 1833 007c 0DD1     		bne	.L173
 541:..\common\ud3core/cli_basic.c ****                     temp_hash2=djb_hash(params[n].name);
 1834              		.loc 1 541 0
 1835 007e 5368     		ldr	r3, [r2, #4]
 1836 0080 1846     		mov	r0, r3
 1837 0082 0393     		str	r3, [sp, #12]
 1838 0084 FFF7FEFF 		bl	djb_hash
 1839              	.LVL231:
 542:..\common\ud3core/cli_basic.c ****                     if(temp_hash1==temp_hash2){
 1840              		.loc 1 542 0
 1841 0088 8245     		cmp	r10, r0
 1842 008a 039B     		ldr	r3, [sp, #12]
 1843 008c 05D1     		bne	.L173
 543:..\common\ud3core/cli_basic.c ****                         ttprintf("Found collision %s <-> %s\r\n", params[current_parameter].name, p
 1844              		.loc 1 543 0
 1845 008e 6F6A     		ldr	r7, [r5, #36]
 1846 0090 6268     		ldr	r2, [r4, #4]
 1847 0092 0C49     		ldr	r1, .L179
 1848 0094 6868     		ldr	r0, [r5, #4]
 1849              	.LVL232:
 1850 0096 B847     		blx	r7
 1851              	.LVL233:
 544:..\common\ud3core/cli_basic.c ****                         collision=1;
 1852              		.loc 1 544 0
 1853 0098 5F46     		mov	r7, fp
 1854              	.LVL234:
 1855              	.L173:
 539:..\common\ud3core/cli_basic.c ****                 if(params[n].parameter_type == PARAM_CONFIG){
 1856              		.loc 1 539 0 discriminator 2
 1857 009a 08F10108 		add	r8, r8, #1
 1858              	.LVL235:
 1859 009e 5FFA88F8 		uxtb	r8, r8
 1860              	.LVL236:
ARM GAS  C:\Users\chemi\AppData\Local\Temp\ccHerMgL.s 			page 44


 1861 00a2 DFE7     		b	.L172
 1862              	.LVL237:
 1863              	.L168:
 1864 00a4 0136     		adds	r6, r6, #1
 1865              	.LVL238:
 1866 00a6 2434     		adds	r4, r4, #36
 1867 00a8 F6B2     		uxtb	r6, r6
 1868 00aa B6E7     		b	.L167
 1869              	.LVL239:
 1870              	.L177:
 1871              	.LBE18:
 1872              	.LBE20:
 545:..\common\ud3core/cli_basic.c ****                     }
 546:..\common\ud3core/cli_basic.c ****                 }
 547:..\common\ud3core/cli_basic.c ****             }
 548:..\common\ud3core/cli_basic.c ****         }
 549:..\common\ud3core/cli_basic.c ****     }
 550:..\common\ud3core/cli_basic.c ****     if(collision==0){
 1873              		.loc 1 550 0
 1874 00ac 37B9     		cbnz	r7, .L166
 551:..\common\ud3core/cli_basic.c ****         ttprintf("Check for hash collision done.\r\n");   
 1875              		.loc 1 551 0
 1876 00ae 6B6A     		ldr	r3, [r5, #36]
 1877 00b0 0549     		ldr	r1, .L179+4
 1878 00b2 6868     		ldr	r0, [r5, #4]
 552:..\common\ud3core/cli_basic.c ****     }
 553:..\common\ud3core/cli_basic.c **** }
 1879              		.loc 1 553 0
 1880 00b4 05B0     		add	sp, sp, #20
 1881              		.cfi_remember_state
 1882              		.cfi_def_cfa_offset 36
 1883              		@ sp needed
 1884 00b6 BDE8F04F 		pop	{r4, r5, r6, r7, r8, r9, r10, fp, lr}
 1885              		.cfi_restore 14
 1886              		.cfi_restore 11
 1887              		.cfi_restore 10
 1888              		.cfi_restore 9
 1889              		.cfi_restore 8
 1890              		.cfi_restore 7
 1891              		.cfi_restore 6
 1892              		.cfi_restore 5
 1893              		.cfi_restore 4
 1894              		.cfi_def_cfa_offset 0
 1895              	.LVL240:
 551:..\common\ud3core/cli_basic.c ****         ttprintf("Check for hash collision done.\r\n");   
 1896              		.loc 1 551 0
 1897 00ba 1847     		bx	r3
 1898              	.LVL241:
 1899              	.L166:
 1900              		.cfi_restore_state
 1901              		.loc 1 553 0
 1902 00bc 05B0     		add	sp, sp, #20
 1903              		.cfi_def_cfa_offset 36
 1904              		@ sp needed
 1905 00be BDE8F08F 		pop	{r4, r5, r6, r7, r8, r9, r10, fp, pc}
 1906              	.LVL242:
 1907              	.L180:
ARM GAS  C:\Users\chemi\AppData\Local\Temp\ccHerMgL.s 			page 45


 1908 00c2 00BF     		.align	2
 1909              	.L179:
 1910 00c4 CB010000 		.word	.LC31
 1911 00c8 E7010000 		.word	.LC32
 1912              		.cfi_endproc
 1913              	.LFE78:
 1914              		.size	EEPROM_check_hash, .-EEPROM_check_hash
 1915              		.section	.text.EEPROM_write_conf,"ax",%progbits
 1916              		.align	1
 1917              		.global	EEPROM_write_conf
 1918              		.thumb
 1919              		.thumb_func
 1920              		.type	EEPROM_write_conf, %function
 1921              	EEPROM_write_conf:
 1922              	.LFB79:
 554:..\common\ud3core/cli_basic.c **** 
 555:..\common\ud3core/cli_basic.c **** void EEPROM_write_conf(parameter_entry * params, uint8_t param_size, uint16_t eeprom_offset ,TERMIN
 1923              		.loc 1 555 0
 1924              		.cfi_startproc
 1925              		@ args = 0, pretend = 0, frame = 8
 1926              		@ frame_needed = 0, uses_anonymous_args = 0
 1927              	.LVL243:
 1928 0000 2DE9F04F 		push	{r4, r5, r6, r7, r8, r9, r10, fp, lr}
 1929              		.cfi_def_cfa_offset 36
 1930              		.cfi_offset 4, -36
 1931              		.cfi_offset 5, -32
 1932              		.cfi_offset 6, -28
 1933              		.cfi_offset 7, -24
 1934              		.cfi_offset 8, -20
 1935              		.cfi_offset 9, -16
 1936              		.cfi_offset 10, -12
 1937              		.cfi_offset 11, -8
 1938              		.cfi_offset 14, -4
 1939 0004 0F46     		mov	r7, r1
 1940 0006 0646     		mov	r6, r0
 1941 0008 1446     		mov	r4, r2
 556:..\common\ud3core/cli_basic.c ****     byte_cnt=0;
 1942              		.loc 1 556 0
 1943 000a 0025     		movs	r5, #0
 1944 000c 4FF02409 		mov	r9, #36
 1945 0010 09FB0769 		mla	r9, r9, r7, r6
 557:..\common\ud3core/cli_basic.c **** 	uint16_t count = eeprom_offset;
 558:..\common\ud3core/cli_basic.c **** 	uint8_t change_flag = 0;
 559:..\common\ud3core/cli_basic.c **** 	uint16_t change_count = 0;
 1946              		.loc 1 559 0
 1947 0014 2F46     		mov	r7, r5
 556:..\common\ud3core/cli_basic.c ****     byte_cnt=0;
 1948              		.loc 1 556 0
 1949 0016 DFF85481 		ldr	r8, .L192+8
 555:..\common\ud3core/cli_basic.c ****     byte_cnt=0;
 1950              		.loc 1 555 0
 1951 001a 85B0     		sub	sp, sp, #20
 1952              		.cfi_def_cfa_offset 56
 560:..\common\ud3core/cli_basic.c **** 	uint32_t temp_hash=0;
 561:..\common\ud3core/cli_basic.c **** 	uint16_t param_count=0;
 562:..\common\ud3core/cli_basic.c ****         EEPROM_buffer_write(0x00, count,0);
 1953              		.loc 1 562 0
ARM GAS  C:\Users\chemi\AppData\Local\Temp\ccHerMgL.s 			page 46


 1954 001c 2146     		mov	r1, r4
 1955              	.LVL244:
 1956 001e 2A46     		mov	r2, r5
 1957              	.LVL245:
 1958 0020 2846     		mov	r0, r5
 1959              	.LVL246:
 555:..\common\ud3core/cli_basic.c ****     byte_cnt=0;
 1960              		.loc 1 555 0
 1961 0022 9B46     		mov	fp, r3
 556:..\common\ud3core/cli_basic.c **** 	uint16_t count = eeprom_offset;
 1962              		.loc 1 556 0
 1963 0024 A8F80050 		strh	r5, [r8]	@ movhi
 1964              	.LVL247:
 1965              		.loc 1 562 0
 1966 0028 FFF7FEFF 		bl	EEPROM_buffer_write
 1967              	.LVL248:
 563:..\common\ud3core/cli_basic.c **** 		count++;
 564:..\common\ud3core/cli_basic.c **** 		EEPROM_buffer_write(0xC0, count,0);
 1968              		.loc 1 564 0
 1969 002c 611C     		adds	r1, r4, #1
 1970 002e 2A46     		mov	r2, r5
 1971 0030 89B2     		uxth	r1, r1
 1972 0032 C020     		movs	r0, #192
 1973 0034 FFF7FEFF 		bl	EEPROM_buffer_write
 1974              	.LVL249:
 565:..\common\ud3core/cli_basic.c **** 		count++;
 566:..\common\ud3core/cli_basic.c **** 		EEPROM_buffer_write(0xFF, count,0);
 1975              		.loc 1 566 0
 1976 0038 A11C     		adds	r1, r4, #2
 1977 003a 2A46     		mov	r2, r5
 1978 003c 89B2     		uxth	r1, r1
 1979 003e FF20     		movs	r0, #255
 1980 0040 FFF7FEFF 		bl	EEPROM_buffer_write
 1981              	.LVL250:
 567:..\common\ud3core/cli_basic.c **** 		count++;
 568:..\common\ud3core/cli_basic.c **** 		EEPROM_buffer_write(0xEE, count,0);
 1982              		.loc 1 568 0
 1983 0044 E11C     		adds	r1, r4, #3
 1984 0046 2A46     		mov	r2, r5
 1985 0048 89B2     		uxth	r1, r1
 1986 004a EE20     		movs	r0, #238
 1987 004c FFF7FEFF 		bl	EEPROM_buffer_write
 1988              	.LVL251:
 569:..\common\ud3core/cli_basic.c **** 		count++;
 570:..\common\ud3core/cli_basic.c **** 		EEPROM_buffer_write(0x00, count,0);
 1989              		.loc 1 570 0
 1990 0050 211D     		adds	r1, r4, #4
 1991 0052 2A46     		mov	r2, r5
 1992 0054 89B2     		uxth	r1, r1
 1993 0056 2846     		mov	r0, r5
 571:..\common\ud3core/cli_basic.c **** 		count++;
 1994              		.loc 1 571 0
 1995 0058 0534     		adds	r4, r4, #5
 1996              	.LVL252:
 570:..\common\ud3core/cli_basic.c **** 		count++;
 1997              		.loc 1 570 0
 1998 005a FFF7FEFF 		bl	EEPROM_buffer_write
ARM GAS  C:\Users\chemi\AppData\Local\Temp\ccHerMgL.s 			page 47


 1999              	.LVL253:
 2000              		.loc 1 571 0
 2001 005e A4B2     		uxth	r4, r4
 2002              	.LVL254:
 2003 0060 CDF80880 		str	r8, [sp, #8]
 2004              	.LVL255:
 2005              	.L182:
 2006              	.LBB21:
 572:..\common\ud3core/cli_basic.c **** 		for (uint8_t  current_parameter = 0; current_parameter < param_size; current_parameter++) {
 2007              		.loc 1 572 0 discriminator 1
 2008 0064 4E45     		cmp	r6, r9
 2009 0066 4DD0     		beq	.L190
 573:..\common\ud3core/cli_basic.c ****             if(params[current_parameter].parameter_type == PARAM_CONFIG){
 2010              		.loc 1 573 0
 2011 0068 3378     		ldrb	r3, [r6]	@ zero_extendqisi2
 2012 006a 012B     		cmp	r3, #1
 2013 006c 48D1     		bne	.L183
 574:..\common\ud3core/cli_basic.c ****                 param_count++;
 575:..\common\ud3core/cli_basic.c ****                 change_flag = 0;
 576:..\common\ud3core/cli_basic.c ****                 temp_hash=djb_hash(params[current_parameter].name);
 2014              		.loc 1 576 0
 2015 006e 7068     		ldr	r0, [r6, #4]
 2016 0070 FFF7FEFF 		bl	djb_hash
 2017              	.LVL256:
 2018 0074 8046     		mov	r8, r0
 577:..\common\ud3core/cli_basic.c ****                 EEPROM_buffer_write(temp_hash, count ,0);
 2019              		.loc 1 577 0
 2020 0076 2146     		mov	r1, r4
 2021 0078 0022     		movs	r2, #0
 2022 007a C0B2     		uxtb	r0, r0
 2023 007c FFF7FEFF 		bl	EEPROM_buffer_write
 2024              	.LVL257:
 578:..\common\ud3core/cli_basic.c ****                 count++;
 579:..\common\ud3core/cli_basic.c ****                 EEPROM_buffer_write(temp_hash>>8,count,0);
 2025              		.loc 1 579 0
 2026 0080 611C     		adds	r1, r4, #1
 2027 0082 0022     		movs	r2, #0
 2028 0084 89B2     		uxth	r1, r1
 2029 0086 C8F30720 		ubfx	r0, r8, #8, #8
 2030 008a FFF7FEFF 		bl	EEPROM_buffer_write
 2031              	.LVL258:
 580:..\common\ud3core/cli_basic.c ****                 count++;
 581:..\common\ud3core/cli_basic.c ****                 EEPROM_buffer_write(temp_hash>>16,count,0);
 2032              		.loc 1 581 0
 2033 008e A11C     		adds	r1, r4, #2
 2034 0090 0022     		movs	r2, #0
 2035 0092 89B2     		uxth	r1, r1
 2036 0094 C8F30740 		ubfx	r0, r8, #16, #8
 2037 0098 FFF7FEFF 		bl	EEPROM_buffer_write
 2038              	.LVL259:
 582:..\common\ud3core/cli_basic.c ****                 count++;
 583:..\common\ud3core/cli_basic.c ****                 EEPROM_buffer_write(temp_hash>>24,count,0);
 2039              		.loc 1 583 0
 2040 009c E11C     		adds	r1, r4, #3
 2041 009e 0022     		movs	r2, #0
 2042 00a0 89B2     		uxth	r1, r1
 2043 00a2 4FEA1860 		lsr	r0, r8, #24
ARM GAS  C:\Users\chemi\AppData\Local\Temp\ccHerMgL.s 			page 48


 2044 00a6 FFF7FEFF 		bl	EEPROM_buffer_write
 2045              	.LVL260:
 584:..\common\ud3core/cli_basic.c ****                 count++;
 585:..\common\ud3core/cli_basic.c ****                 EEPROM_buffer_write(params[current_parameter].size,count,0);
 2046              		.loc 1 585 0
 2047 00aa 211D     		adds	r1, r4, #4
 2048 00ac 0022     		movs	r2, #0
 2049 00ae 89B2     		uxth	r1, r1
 2050 00b0 307B     		ldrb	r0, [r6, #12]	@ zero_extendqisi2
 2051 00b2 FFF7FEFF 		bl	EEPROM_buffer_write
 2052              	.LVL261:
 2053              	.LBB22:
 586:..\common\ud3core/cli_basic.c ****                 count++;
 587:..\common\ud3core/cli_basic.c ****                 for(uint8_t i=0;i<params[current_parameter].size;i++){
 2054              		.loc 1 587 0
 2055 00b6 0022     		movs	r2, #0
 2056              	.LBE22:
 575:..\common\ud3core/cli_basic.c ****                 temp_hash=djb_hash(params[current_parameter].name);
 2057              		.loc 1 575 0
 2058 00b8 9046     		mov	r8, r2
 574:..\common\ud3core/cli_basic.c ****                 change_flag = 0;
 2059              		.loc 1 574 0
 2060 00ba 0135     		adds	r5, r5, #1
 2061              	.LVL262:
 586:..\common\ud3core/cli_basic.c ****                 count++;
 2062              		.loc 1 586 0
 2063 00bc 0534     		adds	r4, r4, #5
 2064              	.LVL263:
 574:..\common\ud3core/cli_basic.c ****                 change_flag = 0;
 2065              		.loc 1 574 0
 2066 00be ADB2     		uxth	r5, r5
 2067              	.LVL264:
 586:..\common\ud3core/cli_basic.c ****                 count++;
 2068              		.loc 1 586 0
 2069 00c0 1FFA84FA 		uxth	r10, r4
 2070              	.LVL265:
 2071              	.L184:
 2072              	.LBB23:
 2073              		.loc 1 587 0 discriminator 1
 2074 00c4 317B     		ldrb	r1, [r6, #12]	@ zero_extendqisi2
 2075 00c6 5FFA82FE 		uxtb	lr, r2
 2076 00ca 0AEB0204 		add	r4, r10, r2
 2077 00ce 7145     		cmp	r1, lr
 2078 00d0 A4B2     		uxth	r4, r4
 2079              	.LVL266:
 2080 00d2 02F10103 		add	r3, r2, #1
 2081 00d6 0ED9     		bls	.L191
 588:..\common\ud3core/cli_basic.c ****                     change_flag |= EEPROM_buffer_write(*(i+(uint8_t *)params[current_parameter].val
 2082              		.loc 1 588 0 discriminator 3
 2083 00d8 B068     		ldr	r0, [r6, #8]
 2084 00da 0022     		movs	r2, #0
 2085              	.LVL267:
 2086 00dc 2146     		mov	r1, r4
 2087 00de 10F80E00 		ldrb	r0, [r0, lr]	@ zero_extendqisi2
 2088 00e2 0393     		str	r3, [sp, #12]
 2089 00e4 FFF7FEFF 		bl	EEPROM_buffer_write
 2090              	.LVL268:
ARM GAS  C:\Users\chemi\AppData\Local\Temp\ccHerMgL.s 			page 49


 2091 00e8 039B     		ldr	r3, [sp, #12]
 2092 00ea 48EA0000 		orr	r0, r8, r0
 2093 00ee 5FFA80F8 		uxtb	r8, r0
 2094              	.LVL269:
 2095 00f2 1A46     		mov	r2, r3
 2096 00f4 E6E7     		b	.L184
 2097              	.LVL270:
 2098              	.L191:
 2099              	.LBE23:
 589:..\common\ud3core/cli_basic.c ****                     count++;
 590:..\common\ud3core/cli_basic.c ****                 }
 591:..\common\ud3core/cli_basic.c ****                 if (change_flag) {
 2100              		.loc 1 591 0
 2101 00f6 B8F1000F 		cmp	r8, #0
 2102 00fa 01D0     		beq	.L183
 592:..\common\ud3core/cli_basic.c ****                     change_count++;
 2103              		.loc 1 592 0
 2104 00fc 0137     		adds	r7, r7, #1
 2105              	.LVL271:
 2106 00fe BFB2     		uxth	r7, r7
 2107              	.LVL272:
 2108              	.L183:
 2109 0100 2436     		adds	r6, r6, #36
 2110 0102 AFE7     		b	.L182
 2111              	.L190:
 2112              	.LBE21:
 593:..\common\ud3core/cli_basic.c ****                 }
 594:..\common\ud3core/cli_basic.c ****             }
 595:..\common\ud3core/cli_basic.c **** 		}
 596:..\common\ud3core/cli_basic.c **** 		EEPROM_buffer_write(0xDE, count,0);
 2113              		.loc 1 596 0
 2114 0104 2146     		mov	r1, r4
 2115 0106 0022     		movs	r2, #0
 2116 0108 DE20     		movs	r0, #222
 2117 010a FFF7FEFF 		bl	EEPROM_buffer_write
 2118              	.LVL273:
 597:..\common\ud3core/cli_basic.c **** 		count++;
 598:..\common\ud3core/cli_basic.c **** 		EEPROM_buffer_write(0xAD, count,0);
 2119              		.loc 1 598 0
 2120 010e 611C     		adds	r1, r4, #1
 2121 0110 0022     		movs	r2, #0
 2122 0112 89B2     		uxth	r1, r1
 2123 0114 AD20     		movs	r0, #173
 2124 0116 FFF7FEFF 		bl	EEPROM_buffer_write
 2125              	.LVL274:
 599:..\common\ud3core/cli_basic.c **** 		count++;
 600:..\common\ud3core/cli_basic.c **** 		EEPROM_buffer_write(0xBE, count,0);
 2126              		.loc 1 600 0
 2127 011a A11C     		adds	r1, r4, #2
 2128 011c 0022     		movs	r2, #0
 2129 011e 89B2     		uxth	r1, r1
 2130 0120 BE20     		movs	r0, #190
 2131 0122 FFF7FEFF 		bl	EEPROM_buffer_write
 2132              	.LVL275:
 601:..\common\ud3core/cli_basic.c **** 		count++;
 602:..\common\ud3core/cli_basic.c **** 		EEPROM_buffer_write(0xEF, count,0);
 2133              		.loc 1 602 0
ARM GAS  C:\Users\chemi\AppData\Local\Temp\ccHerMgL.s 			page 50


 2134 0126 E11C     		adds	r1, r4, #3
 2135 0128 0022     		movs	r2, #0
 2136 012a 89B2     		uxth	r1, r1
 2137 012c EF20     		movs	r0, #239
 2138 012e FFF7FEFF 		bl	EEPROM_buffer_write
 2139              	.LVL276:
 603:..\common\ud3core/cli_basic.c ****         count++;
 604:..\common\ud3core/cli_basic.c **** 		EEPROM_buffer_write(0x00, count,1);
 2140              		.loc 1 604 0
 2141 0132 211D     		adds	r1, r4, #4
 2142 0134 0122     		movs	r2, #1
 2143 0136 89B2     		uxth	r1, r1
 2144 0138 0020     		movs	r0, #0
 2145 013a FFF7FEFF 		bl	EEPROM_buffer_write
 2146              	.LVL277:
 605:..\common\ud3core/cli_basic.c ****         alarm_push(ALM_PRIO_INFO, "EEPROM: Dataset written changes", change_count);
 2147              		.loc 1 605 0
 2148 013e 3A46     		mov	r2, r7
 2149 0140 0849     		ldr	r1, .L192
 2150 0142 0020     		movs	r0, #0
 2151 0144 FFF7FEFF 		bl	alarm_push
 2152              	.LVL278:
 606:..\common\ud3core/cli_basic.c **** 		ttprintf("%i / %i new config params written. %i bytes from 2048 used.\r\n", change_count, param_c
 2153              		.loc 1 606 0
 2154 0148 029B     		ldr	r3, [sp, #8]
 2155 014a DBF82440 		ldr	r4, [fp, #36]
 2156              	.LVL279:
 2157 014e 1B88     		ldrh	r3, [r3]
 2158 0150 3A46     		mov	r2, r7
 2159 0152 0093     		str	r3, [sp]
 2160 0154 0449     		ldr	r1, .L192+4
 2161 0156 2B46     		mov	r3, r5
 2162 0158 DBF80400 		ldr	r0, [fp, #4]
 2163 015c A047     		blx	r4
 2164              	.LVL280:
 607:..\common\ud3core/cli_basic.c **** }
 2165              		.loc 1 607 0
 2166 015e 05B0     		add	sp, sp, #20
 2167              		.cfi_def_cfa_offset 36
 2168              		@ sp needed
 2169 0160 BDE8F08F 		pop	{r4, r5, r6, r7, r8, r9, r10, fp, pc}
 2170              	.LVL281:
 2171              	.L193:
 2172              		.align	2
 2173              	.L192:
 2174 0164 08020000 		.word	.LC33
 2175 0168 28020000 		.word	.LC34
 2176 016c 00000000 		.word	byte_cnt
 2177              		.cfi_endproc
 2178              	.LFE79:
 2179              		.size	EEPROM_write_conf, .-EEPROM_write_conf
 2180              		.section	.text.EEPROM_read_conf,"ax",%progbits
 2181              		.align	1
 2182              		.global	EEPROM_read_conf
 2183              		.thumb
 2184              		.thumb_func
 2185              		.type	EEPROM_read_conf, %function
ARM GAS  C:\Users\chemi\AppData\Local\Temp\ccHerMgL.s 			page 51


 2186              	EEPROM_read_conf:
 2187              	.LFB80:
 608:..\common\ud3core/cli_basic.c **** 
 609:..\common\ud3core/cli_basic.c **** void EEPROM_read_conf(parameter_entry * params, uint8_t param_size, uint16_t eeprom_offset ,TERMINA
 2188              		.loc 1 609 0
 2189              		.cfi_startproc
 2190              		@ args = 0, pretend = 0, frame = 32
 2191              		@ frame_needed = 0, uses_anonymous_args = 0
 2192              	.LVL282:
 2193 0000 2DE9F04F 		push	{r4, r5, r6, r7, r8, r9, r10, fp, lr}
 2194              		.cfi_def_cfa_offset 36
 2195              		.cfi_offset 4, -36
 2196              		.cfi_offset 5, -32
 2197              		.cfi_offset 6, -28
 2198              		.cfi_offset 7, -24
 2199              		.cfi_offset 8, -20
 2200              		.cfi_offset 9, -16
 2201              		.cfi_offset 10, -12
 2202              		.cfi_offset 11, -8
 2203              		.cfi_offset 14, -4
 2204 0004 0646     		mov	r6, r0
 2205 0006 8946     		mov	r9, r1
 2206 0008 1546     		mov	r5, r2
 2207              	.LVL283:
 2208 000a 1F46     		mov	r7, r3
 2209 000c 89B0     		sub	sp, sp, #36
 2210              		.cfi_def_cfa_offset 72
 2211              	.LBB24:
 610:..\common\ud3core/cli_basic.c ****     uint16_t addr=eeprom_offset;
 611:..\common\ud3core/cli_basic.c ****     uint32_t temp_hash=0;
 612:..\common\ud3core/cli_basic.c ****     uint8_t data[DATASET_BYTES];
 613:..\common\ud3core/cli_basic.c ****     uint16_t param_count=0;
 614:..\common\ud3core/cli_basic.c ****     uint16_t change_count=0;
 615:..\common\ud3core/cli_basic.c ****     uint8_t change_flag=0;
 616:..\common\ud3core/cli_basic.c ****         for(int i=0;i<DATASET_BYTES;i++){
 2212              		.loc 1 616 0
 2213 000e 0024     		movs	r4, #0
 2214              	.LVL284:
 2215              	.L195:
 617:..\common\ud3core/cli_basic.c ****             data[i] = EEPROM_READ_BYTE(addr);
 2216              		.loc 1 617 0 discriminator 3
 2217 0010 2819     		adds	r0, r5, r4
 2218 0012 80B2     		uxth	r0, r0
 2219 0014 FFF7FEFF 		bl	EEPROM_1_ReadByte
 2220              	.LVL285:
 2221 0018 06AB     		add	r3, sp, #24
 2222 001a 1855     		strb	r0, [r3, r4]
 2223              	.LVL286:
 616:..\common\ud3core/cli_basic.c ****             data[i] = EEPROM_READ_BYTE(addr);
 2224              		.loc 1 616 0 discriminator 3
 2225 001c 0134     		adds	r4, r4, #1
 2226              	.LVL287:
 2227 001e 052C     		cmp	r4, #5
 2228 0020 F6D1     		bne	.L195
 2229 0022 0535     		adds	r5, r5, #5
 2230 0024 ABB2     		uxth	r3, r5
 2231 0026 0193     		str	r3, [sp, #4]
ARM GAS  C:\Users\chemi\AppData\Local\Temp\ccHerMgL.s 			page 52


 2232              	.LBE24:
 618:..\common\ud3core/cli_basic.c ****             addr++;
 619:..\common\ud3core/cli_basic.c ****         }
 620:..\common\ud3core/cli_basic.c ****         if(!(data[0]== 0x00 && data[1] == 0xC0 && data[2] == 0xFF && data[3] == 0xEE)) {
 2233              		.loc 1 620 0
 2234 0028 9DF81830 		ldrb	r3, [sp, #24]	@ zero_extendqisi2
 2235 002c 73B9     		cbnz	r3, .L196
 2236              		.loc 1 620 0 is_stmt 0 discriminator 1
 2237 002e 9DF81920 		ldrb	r2, [sp, #25]	@ zero_extendqisi2
 2238 0032 C02A     		cmp	r2, #192
 2239 0034 0AD1     		bne	.L196
 2240              		.loc 1 620 0 discriminator 2
 2241 0036 9DF81A20 		ldrb	r2, [sp, #26]	@ zero_extendqisi2
 2242 003a FF2A     		cmp	r2, #255
 2243 003c 06D1     		bne	.L196
 2244              		.loc 1 620 0 discriminator 3
 2245 003e 9DF81B20 		ldrb	r2, [sp, #27]	@ zero_extendqisi2
 2246 0042 EE2A     		cmp	r2, #238
 2247 0044 02D1     		bne	.L196
 2248 0046 019C     		ldr	r4, [sp, #4]
 2249              	.LVL288:
 2250 0048 0093     		str	r3, [sp]
 2251 004a 1DE0     		b	.L197
 2252              	.LVL289:
 2253              	.L196:
 621:..\common\ud3core/cli_basic.c ****             #ifndef BOOT
 622:..\common\ud3core/cli_basic.c ****             alarm_push(ALM_PRIO_WARN, "EEPROM: No or old dataset found", ALM_NO_VALUE);
 2254              		.loc 1 622 0 is_stmt 1
 2255 004c 4FF00042 		mov	r2, #-2147483648
 2256 0050 7C49     		ldr	r1, .L230
 2257 0052 0120     		movs	r0, #1
 2258 0054 FFF7FEFF 		bl	alarm_push
 2259              	.LVL290:
 623:..\common\ud3core/cli_basic.c ****             ttprintf("WARNING: No or old EEPROM dataset found\r\n");
 2260              		.loc 1 623 0
 2261 0058 7B6A     		ldr	r3, [r7, #36]
 2262 005a 7B49     		ldr	r1, .L230+4
 2263 005c 7868     		ldr	r0, [r7, #4]
 624:..\common\ud3core/cli_basic.c ****             #endif
 625:..\common\ud3core/cli_basic.c ****             return;
 626:..\common\ud3core/cli_basic.c ****         }
 627:..\common\ud3core/cli_basic.c **** 
 628:..\common\ud3core/cli_basic.c ****     while(addr<CY_EEPROM_SIZE){
 629:..\common\ud3core/cli_basic.c ****         change_flag=0;
 630:..\common\ud3core/cli_basic.c ****         for(int i=0;i<DATASET_BYTES;i++){
 631:..\common\ud3core/cli_basic.c ****             data[i] = EEPROM_READ_BYTE(addr);
 632:..\common\ud3core/cli_basic.c ****             addr++;
 633:..\common\ud3core/cli_basic.c ****         }
 634:..\common\ud3core/cli_basic.c ****         if(data[0]== 0xDE && data[1] == 0xAD && data[2] == 0xBE && data[3] == 0xEF) break;
 635:..\common\ud3core/cli_basic.c ****         uint8_t current_parameter=0;
 636:..\common\ud3core/cli_basic.c ****         for ( current_parameter = 0; current_parameter < param_size; current_parameter++) {
 637:..\common\ud3core/cli_basic.c ****             if(params[current_parameter].parameter_type==PARAM_CONFIG){
 638:..\common\ud3core/cli_basic.c ****                 temp_hash=djb_hash(params[current_parameter].name);
 639:..\common\ud3core/cli_basic.c ****                 if((uint8_t)temp_hash == data[0] && (uint8_t)(temp_hash>>8) == data[1]&& (uint8_t)(
 640:..\common\ud3core/cli_basic.c ****                     for(uint8_t i=0;i<data[4];i++){
 641:..\common\ud3core/cli_basic.c ****                         *(i+(uint8_t * )params[current_parameter].value) = EEPROM_READ_BYTE(addr);
 642:..\common\ud3core/cli_basic.c ****                         addr++;
ARM GAS  C:\Users\chemi\AppData\Local\Temp\ccHerMgL.s 			page 53


 643:..\common\ud3core/cli_basic.c ****                     }
 644:..\common\ud3core/cli_basic.c ****                     change_count++;
 645:..\common\ud3core/cli_basic.c ****                     change_flag=1;
 646:..\common\ud3core/cli_basic.c ****                     break;
 647:..\common\ud3core/cli_basic.c ****                 }
 648:..\common\ud3core/cli_basic.c ****             }
 649:..\common\ud3core/cli_basic.c ****         }
 650:..\common\ud3core/cli_basic.c ****         if(!change_flag) addr+=data[4];
 651:..\common\ud3core/cli_basic.c ****         
 652:..\common\ud3core/cli_basic.c ****         if(current_parameter == param_size){
 653:..\common\ud3core/cli_basic.c ****             #ifndef BOOT
 654:..\common\ud3core/cli_basic.c ****             alarm_push(ALM_PRIO_WARN, "EEPROM: Found unknown ID", data[0]);
 655:..\common\ud3core/cli_basic.c ****             ttprintf("WARNING: Unknown param ID %i found in EEPROM\r\n", data[0]);
 656:..\common\ud3core/cli_basic.c ****             #endif
 657:..\common\ud3core/cli_basic.c ****         }
 658:..\common\ud3core/cli_basic.c ****     }
 659:..\common\ud3core/cli_basic.c ****     uint8_t found_param=0;
 660:..\common\ud3core/cli_basic.c ****     for (uint8_t current_parameter = 0; current_parameter < param_size; current_parameter++) {
 661:..\common\ud3core/cli_basic.c ****         if(params[current_parameter].parameter_type==PARAM_CONFIG){
 662:..\common\ud3core/cli_basic.c ****             param_count++;
 663:..\common\ud3core/cli_basic.c ****             found_param=0;
 664:..\common\ud3core/cli_basic.c ****             addr = DATASET_BYTES + eeprom_offset; //Skip header
 665:..\common\ud3core/cli_basic.c ****             temp_hash=djb_hash(params[current_parameter].name);
 666:..\common\ud3core/cli_basic.c ****             while(addr<CY_EEPROM_SIZE){
 667:..\common\ud3core/cli_basic.c ****                 for(int i=0;i<DATASET_BYTES;i++){
 668:..\common\ud3core/cli_basic.c ****                     data[i] = EEPROM_READ_BYTE(addr);
 669:..\common\ud3core/cli_basic.c ****                     addr++;
 670:..\common\ud3core/cli_basic.c ****                 }
 671:..\common\ud3core/cli_basic.c ****                     addr += data[4];
 672:..\common\ud3core/cli_basic.c ****                 if(data[0] == 0xDE && data[1] == 0xAD && data[2] == 0xBE && data[3] == 0xEF) break;
 673:..\common\ud3core/cli_basic.c ****                 if((uint8_t)temp_hash == data[0] && (uint8_t)(temp_hash>>8) == data[1]&& (uint8_t)(
 674:..\common\ud3core/cli_basic.c ****                         found_param = 1;
 675:..\common\ud3core/cli_basic.c ****                 }
 676:..\common\ud3core/cli_basic.c ****             }
 677:..\common\ud3core/cli_basic.c ****             if(!found_param){
 678:..\common\ud3core/cli_basic.c ****                 alarm_push(ALM_PRIO_WARN, "EEPROM: Found unknown parameter", current_parameter);
 679:..\common\ud3core/cli_basic.c ****                 ttprintf("WARNING: Param [%s] not found in EEPROM\r\n",params[current_parameter].na
 680:..\common\ud3core/cli_basic.c ****             }
 681:..\common\ud3core/cli_basic.c ****         }
 682:..\common\ud3core/cli_basic.c ****     }
 683:..\common\ud3core/cli_basic.c ****     #ifndef BOOT
 684:..\common\ud3core/cli_basic.c ****     alarm_push(ALM_PRIO_INFO, "EEPROM: Dataset loaded", ALM_NO_VALUE);
 685:..\common\ud3core/cli_basic.c ****     ttprintf("%i / %i config params loaded\r\n", change_count, param_count);
 686:..\common\ud3core/cli_basic.c ****     #endif
 687:..\common\ud3core/cli_basic.c **** }
 2264              		.loc 1 687 0
 2265 005e 09B0     		add	sp, sp, #36
 2266              		.cfi_remember_state
 2267              		.cfi_def_cfa_offset 36
 2268              		@ sp needed
 2269 0060 BDE8F04F 		pop	{r4, r5, r6, r7, r8, r9, r10, fp, lr}
 2270              		.cfi_restore 14
 2271              		.cfi_restore 11
 2272              		.cfi_restore 10
 2273              		.cfi_restore 9
 2274              		.cfi_restore 8
 2275              		.cfi_restore 7
ARM GAS  C:\Users\chemi\AppData\Local\Temp\ccHerMgL.s 			page 54


 2276              		.cfi_restore 6
 2277              		.cfi_restore 5
 2278              		.cfi_restore 4
 2279              		.cfi_def_cfa_offset 0
 2280              	.LVL291:
 623:..\common\ud3core/cli_basic.c ****             ttprintf("WARNING: No or old EEPROM dataset found\r\n");
 2281              		.loc 1 623 0
 2282 0064 1847     		bx	r3
 2283              	.LVL292:
 2284              	.L228:
 2285              		.cfi_restore_state
 2286              	.LBB25:
 644:..\common\ud3core/cli_basic.c ****                     change_flag=1;
 2287              		.loc 1 644 0
 2288 0066 009B     		ldr	r3, [sp]
 2289 0068 0133     		adds	r3, r3, #1
 2290 006a 9BB2     		uxth	r3, r3
 2291 006c 0093     		str	r3, [sp]
 2292              	.LVL293:
 2293              	.L206:
 652:..\common\ud3core/cli_basic.c ****             #ifndef BOOT
 2294              		.loc 1 652 0
 2295 006e 029B     		ldr	r3, [sp, #8]
 2296 0070 4B45     		cmp	r3, r9
 2297 0072 09D1     		bne	.L197
 654:..\common\ud3core/cli_basic.c ****             ttprintf("WARNING: Unknown param ID %i found in EEPROM\r\n", data[0]);
 2298              		.loc 1 654 0
 2299 0074 4246     		mov	r2, r8
 2300 0076 7549     		ldr	r1, .L230+8
 2301 0078 0120     		movs	r0, #1
 2302 007a FFF7FEFF 		bl	alarm_push
 2303              	.LVL294:
 655:..\common\ud3core/cli_basic.c ****             #endif
 2304              		.loc 1 655 0
 2305 007e 7B6A     		ldr	r3, [r7, #36]
 2306 0080 4246     		mov	r2, r8
 2307 0082 7349     		ldr	r1, .L230+12
 2308 0084 7868     		ldr	r0, [r7, #4]
 2309 0086 9847     		blx	r3
 2310              	.LVL295:
 2311              	.L197:
 2312              	.LBE25:
 628:..\common\ud3core/cli_basic.c ****         change_flag=0;
 2313              		.loc 1 628 0
 2314 0088 B4F5006F 		cmp	r4, #2048
 2315 008c 1ED2     		bcs	.L211
 2316 008e 0025     		movs	r5, #0
 2317              	.LVL296:
 2318              	.L198:
 2319              	.LBB28:
 2320              	.LBB26:
 631:..\common\ud3core/cli_basic.c ****             addr++;
 2321              		.loc 1 631 0 discriminator 3
 2322 0090 6019     		adds	r0, r4, r5
 2323 0092 80B2     		uxth	r0, r0
 2324 0094 FFF7FEFF 		bl	EEPROM_1_ReadByte
 2325              	.LVL297:
ARM GAS  C:\Users\chemi\AppData\Local\Temp\ccHerMgL.s 			page 55


 2326 0098 06AB     		add	r3, sp, #24
 2327 009a 5855     		strb	r0, [r3, r5]
 2328              	.LVL298:
 630:..\common\ud3core/cli_basic.c ****             data[i] = EEPROM_READ_BYTE(addr);
 2329              		.loc 1 630 0 discriminator 3
 2330 009c 0135     		adds	r5, r5, #1
 2331              	.LVL299:
 2332 009e 052D     		cmp	r5, #5
 2333 00a0 F6D1     		bne	.L198
 2334              	.LBE26:
 634:..\common\ud3core/cli_basic.c ****         uint8_t current_parameter=0;
 2335              		.loc 1 634 0
 2336 00a2 9DF81880 		ldrb	r8, [sp, #24]	@ zero_extendqisi2
 2337 00a6 9DF81950 		ldrb	r5, [sp, #25]	@ zero_extendqisi2
 2338              	.LVL300:
 2339 00aa B8F1DE0F 		cmp	r8, #222
 2340 00ae 9DF81AB0 		ldrb	fp, [sp, #26]	@ zero_extendqisi2
 2341 00b2 9DF81B20 		ldrb	r2, [sp, #27]	@ zero_extendqisi2
 2342 00b6 01D1     		bne	.L199
 634:..\common\ud3core/cli_basic.c ****         uint8_t current_parameter=0;
 2343              		.loc 1 634 0 is_stmt 0 discriminator 1
 2344 00b8 AD2D     		cmp	r5, #173
 2345 00ba 02D0     		beq	.L200
 2346              	.L199:
 2347 00bc B246     		mov	r10, r6
 639:..\common\ud3core/cli_basic.c ****                     for(uint8_t i=0;i<data[4];i++){
 2348              		.loc 1 639 0 is_stmt 1 discriminator 1
 2349 00be 0021     		movs	r1, #0
 2350 00c0 0FE0     		b	.L201
 2351              	.L200:
 634:..\common\ud3core/cli_basic.c ****         uint8_t current_parameter=0;
 2352              		.loc 1 634 0 discriminator 2
 2353 00c2 BBF1BE0F 		cmp	fp, #190
 2354 00c6 F9D1     		bne	.L199
 634:..\common\ud3core/cli_basic.c ****         uint8_t current_parameter=0;
 2355              		.loc 1 634 0 is_stmt 0 discriminator 3
 2356 00c8 EF2A     		cmp	r2, #239
 2357 00ca F7D1     		bne	.L199
 2358              	.L211:
 2359              	.LBE28:
 2360              	.LBB29:
 663:..\common\ud3core/cli_basic.c ****             addr = DATASET_BYTES + eeprom_offset; //Skip header
 2361              		.loc 1 663 0 is_stmt 1
 2362 00cc 4FF00008 		mov	r8, #0
 2363 00d0 4546     		mov	r5, r8
 2364 00d2 8DE0     		b	.L202
 2365              	.LVL301:
 2366              	.L207:
 2367              	.LBE29:
 2368              	.LBB31:
 637:..\common\ud3core/cli_basic.c ****                 temp_hash=djb_hash(params[current_parameter].name);
 2369              		.loc 1 637 0
 2370 00d4 9AF80000 		ldrb	r0, [r10]	@ zero_extendqisi2
 2371 00d8 0128     		cmp	r0, #1
 2372 00da 07D0     		beq	.L226
 2373              	.LVL302:
 2374              	.L203:
ARM GAS  C:\Users\chemi\AppData\Local\Temp\ccHerMgL.s 			page 56


 2375 00dc 0131     		adds	r1, r1, #1
 2376              	.LVL303:
 2377 00de 0AF1240A 		add	r10, r10, #36
 2378              	.L201:
 2379 00e2 CBB2     		uxtb	r3, r1
 636:..\common\ud3core/cli_basic.c ****             if(params[current_parameter].parameter_type==PARAM_CONFIG){
 2380              		.loc 1 636 0 discriminator 1
 2381 00e4 8945     		cmp	r9, r1
 2382 00e6 0293     		str	r3, [sp, #8]
 2383              	.LVL304:
 2384 00e8 F4D1     		bne	.L207
 2385 00ea A5E0     		b	.L227
 2386              	.L226:
 638:..\common\ud3core/cli_basic.c ****                 if((uint8_t)temp_hash == data[0] && (uint8_t)(temp_hash>>8) == data[1]&& (uint8_t)(
 2387              		.loc 1 638 0
 2388 00ec DAF80400 		ldr	r0, [r10, #4]
 2389 00f0 0392     		str	r2, [sp, #12]
 2390 00f2 FFF7FEFF 		bl	djb_hash
 2391              	.LVL305:
 639:..\common\ud3core/cli_basic.c ****                     for(uint8_t i=0;i<data[4];i++){
 2392              		.loc 1 639 0
 2393 00f6 5FFA80FE 		uxtb	lr, r0
 2394 00fa C645     		cmp	lr, r8
 2395 00fc 039A     		ldr	r2, [sp, #12]
 2396 00fe EDD1     		bne	.L203
 639:..\common\ud3core/cli_basic.c ****                     for(uint8_t i=0;i<data[4];i++){
 2397              		.loc 1 639 0 is_stmt 0 discriminator 1
 2398 0100 C0F3072E 		ubfx	lr, r0, #8, #8
 2399 0104 AE45     		cmp	lr, r5
 2400 0106 E9D1     		bne	.L203
 639:..\common\ud3core/cli_basic.c ****                     for(uint8_t i=0;i<data[4];i++){
 2401              		.loc 1 639 0 discriminator 2
 2402 0108 C0F3074E 		ubfx	lr, r0, #16, #8
 2403 010c DE45     		cmp	lr, fp
 2404 010e E5D1     		bne	.L203
 639:..\common\ud3core/cli_basic.c ****                     for(uint8_t i=0;i<data[4];i++){
 2405              		.loc 1 639 0 discriminator 3
 2406 0110 B2EB106F 		cmp	r2, r0, lsr #24
 2407 0114 E2D1     		bne	.L203
 2408 0116 0534     		adds	r4, r4, #5
 2409 0118 4FF0000B 		mov	fp, #0
 2410 011c A5B2     		uxth	r5, r4
 2411              	.LVL306:
 2412              	.L204:
 2413              	.LBB27:
 640:..\common\ud3core/cli_basic.c ****                         *(i+(uint8_t * )params[current_parameter].value) = EEPROM_READ_BYTE(addr);
 2414              		.loc 1 640 0 is_stmt 1 discriminator 1
 2415 011e 9DF81C10 		ldrb	r1, [sp, #28]	@ zero_extendqisi2
 2416 0122 05EB0B04 		add	r4, r5, fp
 2417 0126 0BF10102 		add	r2, fp, #1
 2418 012a 5FFA8BFB 		uxtb	fp, fp
 2419 012e 5945     		cmp	r1, fp
 2420 0130 A4B2     		uxth	r4, r4
 2421              	.LVL307:
 2422 0132 98D9     		bls	.L228
 641:..\common\ud3core/cli_basic.c ****                         addr++;
 2423              		.loc 1 641 0 discriminator 3
ARM GAS  C:\Users\chemi\AppData\Local\Temp\ccHerMgL.s 			page 57


 2424 0134 DAF80810 		ldr	r1, [r10, #8]
 2425 0138 2046     		mov	r0, r4
 2426 013a 0492     		str	r2, [sp, #16]
 2427 013c 0391     		str	r1, [sp, #12]
 2428 013e FFF7FEFF 		bl	EEPROM_1_ReadByte
 2429              	.LVL308:
 2430 0142 0399     		ldr	r1, [sp, #12]
 2431 0144 049A     		ldr	r2, [sp, #16]
 2432 0146 01F80B00 		strb	r0, [r1, fp]
 2433              	.LVL309:
 2434 014a 9346     		mov	fp, r2
 2435 014c E7E7     		b	.L204
 2436              	.LVL310:
 2437              	.L220:
 2438              	.LBE27:
 2439              	.LBE31:
 2440              	.LBB32:
 661:..\common\ud3core/cli_basic.c ****             param_count++;
 2441              		.loc 1 661 0
 2442 014e 3378     		ldrb	r3, [r6]	@ zero_extendqisi2
 2443 0150 012B     		cmp	r3, #1
 2444 0152 4AD1     		bne	.L212
 665:..\common\ud3core/cli_basic.c ****             while(addr<CY_EEPROM_SIZE){
 2445              		.loc 1 665 0
 2446 0154 7068     		ldr	r0, [r6, #4]
 2447 0156 FFF7FEFF 		bl	djb_hash
 2448              	.LVL311:
 662:..\common\ud3core/cli_basic.c ****             found_param=0;
 2449              		.loc 1 662 0
 2450 015a 0135     		adds	r5, r5, #1
 2451              	.LVL312:
 673:..\common\ud3core/cli_basic.c ****                         found_param = 1;
 2452              		.loc 1 673 0
 2453 015c C0F30723 		ubfx	r3, r0, #8, #8
 664:..\common\ud3core/cli_basic.c ****             temp_hash=djb_hash(params[current_parameter].name);
 2454              		.loc 1 664 0
 2455 0160 DDF804B0 		ldr	fp, [sp, #4]
 673:..\common\ud3core/cli_basic.c ****                         found_param = 1;
 2456              		.loc 1 673 0
 2457 0164 0293     		str	r3, [sp, #8]
 662:..\common\ud3core/cli_basic.c ****             found_param=0;
 2458              		.loc 1 662 0
 2459 0166 ADB2     		uxth	r5, r5
 2460              	.LVL313:
 673:..\common\ud3core/cli_basic.c ****                         found_param = 1;
 2461              		.loc 1 673 0
 2462 0168 C0F30741 		ubfx	r1, r0, #16, #8
 2463 016c 020E     		lsrs	r2, r0, #24
 663:..\common\ud3core/cli_basic.c ****             addr = DATASET_BYTES + eeprom_offset; //Skip header
 2464              		.loc 1 663 0
 2465 016e 0023     		movs	r3, #0
 673:..\common\ud3core/cli_basic.c ****                         found_param = 1;
 2466              		.loc 1 673 0
 2467 0170 C4B2     		uxtb	r4, r0
 2468              	.LVL314:
 2469              	.L213:
 666:..\common\ud3core/cli_basic.c ****                 for(int i=0;i<DATASET_BYTES;i++){
ARM GAS  C:\Users\chemi\AppData\Local\Temp\ccHerMgL.s 			page 58


 2470              		.loc 1 666 0
 2471 0172 BBF5006F 		cmp	fp, #2048
 2472 0176 2DD2     		bcs	.L219
 2473 0178 4FF0000A 		mov	r10, #0
 2474              	.LVL315:
 2475              	.L214:
 2476              	.LBB30:
 668:..\common\ud3core/cli_basic.c ****                     addr++;
 2477              		.loc 1 668 0 discriminator 3
 2478 017c 0BEB0A00 		add	r0, fp, r10
 2479 0180 80B2     		uxth	r0, r0
 2480 0182 0592     		str	r2, [sp, #20]
 2481 0184 0491     		str	r1, [sp, #16]
 2482 0186 0393     		str	r3, [sp, #12]
 2483              	.LVL316:
 2484 0188 FFF7FEFF 		bl	EEPROM_1_ReadByte
 2485              	.LVL317:
 2486 018c 06AB     		add	r3, sp, #24
 2487 018e 03F80A00 		strb	r0, [r3, r10]
 2488              	.LVL318:
 667:..\common\ud3core/cli_basic.c ****                     data[i] = EEPROM_READ_BYTE(addr);
 2489              		.loc 1 667 0 discriminator 3
 2490 0192 0AF1010A 		add	r10, r10, #1
 2491              	.LVL319:
 2492 0196 BAF1050F 		cmp	r10, #5
 2493 019a 039B     		ldr	r3, [sp, #12]
 2494 019c 0499     		ldr	r1, [sp, #16]
 2495 019e 059A     		ldr	r2, [sp, #20]
 2496 01a0 ECD1     		bne	.L214
 2497              	.LBE30:
 671:..\common\ud3core/cli_basic.c ****                 if(data[0] == 0xDE && data[1] == 0xAD && data[2] == 0xBE && data[3] == 0xEF) break;
 2498              		.loc 1 671 0
 2499 01a2 9DF81C00 		ldrb	r0, [sp, #28]	@ zero_extendqisi2
 2500 01a6 0530     		adds	r0, r0, #5
 2501 01a8 8344     		add	fp, fp, r0
 672:..\common\ud3core/cli_basic.c ****                 if((uint8_t)temp_hash == data[0] && (uint8_t)(temp_hash>>8) == data[1]&& (uint8_t)(
 2502              		.loc 1 672 0
 2503 01aa 9DF81800 		ldrb	r0, [sp, #24]	@ zero_extendqisi2
 671:..\common\ud3core/cli_basic.c ****                 if(data[0] == 0xDE && data[1] == 0xAD && data[2] == 0xBE && data[3] == 0xEF) break;
 2504              		.loc 1 671 0
 2505 01ae 1FFA8BFB 		uxth	fp, fp
 2506              	.LVL320:
 672:..\common\ud3core/cli_basic.c ****                 if((uint8_t)temp_hash == data[0] && (uint8_t)(temp_hash>>8) == data[1]&& (uint8_t)(
 2507              		.loc 1 672 0
 2508 01b2 DE28     		cmp	r0, #222
 2509 01b4 1FD1     		bne	.L215
 672:..\common\ud3core/cli_basic.c ****                 if((uint8_t)temp_hash == data[0] && (uint8_t)(temp_hash>>8) == data[1]&& (uint8_t)(
 2510              		.loc 1 672 0 is_stmt 0 discriminator 1
 2511 01b6 9DF819E0 		ldrb	lr, [sp, #25]	@ zero_extendqisi2
 2512 01ba BEF1AD0F 		cmp	lr, #173
 2513 01be 1AD1     		bne	.L215
 672:..\common\ud3core/cli_basic.c ****                 if((uint8_t)temp_hash == data[0] && (uint8_t)(temp_hash>>8) == data[1]&& (uint8_t)(
 2514              		.loc 1 672 0 discriminator 2
 2515 01c0 9DF81AE0 		ldrb	lr, [sp, #26]	@ zero_extendqisi2
 2516 01c4 BEF1BE0F 		cmp	lr, #190
 2517 01c8 15D1     		bne	.L215
 672:..\common\ud3core/cli_basic.c ****                 if((uint8_t)temp_hash == data[0] && (uint8_t)(temp_hash>>8) == data[1]&& (uint8_t)(
ARM GAS  C:\Users\chemi\AppData\Local\Temp\ccHerMgL.s 			page 59


 2518              		.loc 1 672 0 discriminator 3
 2519 01ca 9DF81BE0 		ldrb	lr, [sp, #27]	@ zero_extendqisi2
 2520 01ce BEF1EF0F 		cmp	lr, #239
 2521 01d2 10D1     		bne	.L215
 2522              	.LVL321:
 2523              	.L219:
 677:..\common\ud3core/cli_basic.c ****                 alarm_push(ALM_PRIO_WARN, "EEPROM: Found unknown parameter", current_parameter);
 2524              		.loc 1 677 0 is_stmt 1
 2525 01d4 4BB9     		cbnz	r3, .L212
 678:..\common\ud3core/cli_basic.c ****                 ttprintf("WARNING: Param [%s] not found in EEPROM\r\n",params[current_parameter].na
 2526              		.loc 1 678 0
 2527 01d6 4246     		mov	r2, r8
 2528 01d8 1E49     		ldr	r1, .L230+16
 2529 01da 0120     		movs	r0, #1
 2530 01dc FFF7FEFF 		bl	alarm_push
 2531              	.LVL322:
 679:..\common\ud3core/cli_basic.c ****             }
 2532              		.loc 1 679 0
 2533 01e0 7B6A     		ldr	r3, [r7, #36]
 2534 01e2 7268     		ldr	r2, [r6, #4]
 2535 01e4 1C49     		ldr	r1, .L230+20
 2536 01e6 7868     		ldr	r0, [r7, #4]
 2537 01e8 9847     		blx	r3
 2538              	.LVL323:
 2539              	.L212:
 2540 01ea 08F10108 		add	r8, r8, #1
 2541              	.LVL324:
 2542 01ee 2436     		adds	r6, r6, #36
 2543              	.LVL325:
 2544              	.L202:
 660:..\common\ud3core/cli_basic.c ****         if(params[current_parameter].parameter_type==PARAM_CONFIG){
 2545              		.loc 1 660 0 discriminator 1
 2546 01f0 C145     		cmp	r9, r8
 2547 01f2 ACD1     		bne	.L220
 2548 01f4 10E0     		b	.L229
 2549              	.LVL326:
 2550              	.L215:
 673:..\common\ud3core/cli_basic.c ****                         found_param = 1;
 2551              		.loc 1 673 0
 2552 01f6 8442     		cmp	r4, r0
 2553 01f8 BBD1     		bne	.L213
 673:..\common\ud3core/cli_basic.c ****                         found_param = 1;
 2554              		.loc 1 673 0 is_stmt 0 discriminator 1
 2555 01fa 9DF819E0 		ldrb	lr, [sp, #25]	@ zero_extendqisi2
 2556 01fe 0298     		ldr	r0, [sp, #8]
 2557 0200 7045     		cmp	r0, lr
 2558 0202 B6D1     		bne	.L213
 673:..\common\ud3core/cli_basic.c ****                         found_param = 1;
 2559              		.loc 1 673 0 discriminator 2
 2560 0204 9DF81A00 		ldrb	r0, [sp, #26]	@ zero_extendqisi2
 2561 0208 8142     		cmp	r1, r0
 2562 020a B2D1     		bne	.L213
 673:..\common\ud3core/cli_basic.c ****                         found_param = 1;
 2563              		.loc 1 673 0 discriminator 3
 2564 020c 9DF81B00 		ldrb	r0, [sp, #27]	@ zero_extendqisi2
 674:..\common\ud3core/cli_basic.c ****                 }
 2565              		.loc 1 674 0 is_stmt 1 discriminator 3
ARM GAS  C:\Users\chemi\AppData\Local\Temp\ccHerMgL.s 			page 60


 2566 0210 8242     		cmp	r2, r0
 2567 0212 08BF     		it	eq
 2568 0214 0123     		moveq	r3, #1
 2569 0216 ACE7     		b	.L213
 2570              	.LVL327:
 2571              	.L229:
 2572              	.LBE32:
 684:..\common\ud3core/cli_basic.c ****     ttprintf("%i / %i config params loaded\r\n", change_count, param_count);
 2573              		.loc 1 684 0
 2574 0218 4FF00042 		mov	r2, #-2147483648
 2575 021c 0F49     		ldr	r1, .L230+24
 2576 021e 0020     		movs	r0, #0
 2577 0220 FFF7FEFF 		bl	alarm_push
 2578              	.LVL328:
 685:..\common\ud3core/cli_basic.c ****     #endif
 2579              		.loc 1 685 0
 2580 0224 7C6A     		ldr	r4, [r7, #36]
 2581 0226 2B46     		mov	r3, r5
 2582 0228 A446     		mov	ip, r4
 2583 022a 009A     		ldr	r2, [sp]
 2584 022c 0C49     		ldr	r1, .L230+28
 2585 022e 7868     		ldr	r0, [r7, #4]
 2586              		.loc 1 687 0
 2587 0230 09B0     		add	sp, sp, #36
 2588              		.cfi_remember_state
 2589              		.cfi_def_cfa_offset 36
 2590              	.LVL329:
 2591              		@ sp needed
 2592 0232 BDE8F04F 		pop	{r4, r5, r6, r7, r8, r9, r10, fp, lr}
 2593              		.cfi_restore 14
 2594              		.cfi_restore 11
 2595              		.cfi_restore 10
 2596              		.cfi_restore 9
 2597              		.cfi_restore 8
 2598              		.cfi_restore 7
 2599              		.cfi_restore 6
 2600              		.cfi_restore 5
 2601              		.cfi_restore 4
 2602              		.cfi_def_cfa_offset 0
 2603              	.LVL330:
 685:..\common\ud3core/cli_basic.c ****     #endif
 2604              		.loc 1 685 0
 2605 0236 6047     		bx	ip
 2606              	.LVL331:
 2607              	.L227:
 2608              		.cfi_restore_state
 2609              	.LBB33:
 650:..\common\ud3core/cli_basic.c ****         
 2610              		.loc 1 650 0
 2611 0238 9DF81C30 		ldrb	r3, [sp, #28]	@ zero_extendqisi2
 2612              	.LVL332:
 2613 023c 0533     		adds	r3, r3, #5
 2614 023e 1C44     		add	r4, r4, r3
 2615              	.LVL333:
 2616 0240 A4B2     		uxth	r4, r4
 2617              	.LVL334:
 2618 0242 14E7     		b	.L206
ARM GAS  C:\Users\chemi\AppData\Local\Temp\ccHerMgL.s 			page 61


 2619              	.L231:
 2620              		.align	2
 2621              	.L230:
 2622 0244 66020000 		.word	.LC35
 2623 0248 86020000 		.word	.LC36
 2624 024c B0020000 		.word	.LC37
 2625 0250 C9020000 		.word	.LC38
 2626 0254 F8020000 		.word	.LC39
 2627 0258 18030000 		.word	.LC40
 2628 025c 42030000 		.word	.LC41
 2629 0260 59030000 		.word	.LC42
 2630              	.LBE33:
 2631              		.cfi_endproc
 2632              	.LFE80:
 2633              		.size	EEPROM_read_conf, .-EEPROM_read_conf
 2634              		.section	.text.getch,"ax",%progbits
 2635              		.align	1
 2636              		.global	getch
 2637              		.thumb
 2638              		.thumb_func
 2639              		.type	getch, %function
 2640              	getch:
 2641              	.LFB81:
 688:..\common\ud3core/cli_basic.c **** 
 689:..\common\ud3core/cli_basic.c **** 
 690:..\common\ud3core/cli_basic.c **** 
 691:..\common\ud3core/cli_basic.c **** 
 692:..\common\ud3core/cli_basic.c **** uint8_t getch(TERMINAL_HANDLE * handle, TickType_t xTicksToWait){
 2642              		.loc 1 692 0
 2643              		.cfi_startproc
 2644              		@ args = 0, pretend = 0, frame = 8
 2645              		@ frame_needed = 0, uses_anonymous_args = 0
 2646              	.LVL335:
 2647 0000 37B5     		push	{r0, r1, r2, r4, r5, lr}
 2648              		.cfi_def_cfa_offset 24
 2649              		.cfi_offset 4, -12
 2650              		.cfi_offset 5, -8
 2651              		.cfi_offset 14, -4
 693:..\common\ud3core/cli_basic.c ****     uint8_t c=0;
 2652              		.loc 1 693 0
 2653 0002 0023     		movs	r3, #0
 692:..\common\ud3core/cli_basic.c ****     uint8_t c=0;
 2654              		.loc 1 692 0
 2655 0004 0446     		mov	r4, r0
 2656              		.loc 1 693 0
 2657 0006 8DF80730 		strb	r3, [sp, #7]
 694:..\common\ud3core/cli_basic.c ****     if(xTicksToWait>0){
 2658              		.loc 1 694 0
 2659 000a 0D46     		mov	r5, r1
 2660 000c 29B1     		cbz	r1, .L233
 695:..\common\ud3core/cli_basic.c ****         xSemaphoreGive(portM->term_block);
 2661              		.loc 1 695 0
 2662 000e 4068     		ldr	r0, [r0, #4]
 2663              	.LVL336:
 2664 0010 1A46     		mov	r2, r3
 2665 0012 1946     		mov	r1, r3
 2666              	.LVL337:
ARM GAS  C:\Users\chemi\AppData\Local\Temp\ccHerMgL.s 			page 62


 2667 0014 C068     		ldr	r0, [r0, #12]
 2668 0016 FFF7FEFF 		bl	xQueueGenericSend
 2669              	.LVL338:
 2670              	.L233:
 696:..\common\ud3core/cli_basic.c ****     }
 697:..\common\ud3core/cli_basic.c ****     xStreamBufferReceive(portM->rx,&c,1,xTicksToWait);
 2671              		.loc 1 697 0
 2672 001a 6068     		ldr	r0, [r4, #4]
 2673 001c 2B46     		mov	r3, r5
 2674 001e 0122     		movs	r2, #1
 2675 0020 0DF10701 		add	r1, sp, #7
 2676 0024 8068     		ldr	r0, [r0, #8]
 2677 0026 FFF7FEFF 		bl	xStreamBufferReceive
 2678              	.LVL339:
 698:..\common\ud3core/cli_basic.c ****     if(xTicksToWait>0){
 2679              		.loc 1 698 0
 2680 002a 2DB1     		cbz	r5, .L234
 2681              	.LVL340:
 2682              	.LBB36:
 2683              	.LBB37:
 699:..\common\ud3core/cli_basic.c ****         xSemaphoreTake(portM->term_block, portMAX_DELAY);
 2684              		.loc 1 699 0
 2685 002c 6368     		ldr	r3, [r4, #4]
 2686 002e 4FF0FF31 		mov	r1, #-1
 2687 0032 D868     		ldr	r0, [r3, #12]
 2688 0034 FFF7FEFF 		bl	xQueueSemaphoreTake
 2689              	.LVL341:
 2690              	.L234:
 2691              	.LBE37:
 2692              	.LBE36:
 700:..\common\ud3core/cli_basic.c ****     }
 701:..\common\ud3core/cli_basic.c ****     return c;
 702:..\common\ud3core/cli_basic.c **** }
 2693              		.loc 1 702 0
 2694 0038 9DF80700 		ldrb	r0, [sp, #7]	@ zero_extendqisi2
 2695 003c 03B0     		add	sp, sp, #12
 2696              		.cfi_def_cfa_offset 12
 2697              		@ sp needed
 2698 003e 30BD     		pop	{r4, r5, pc}
 2699              		.cfi_endproc
 2700              	.LFE81:
 2701              		.size	getch, .-getch
 2702              		.section	.text.getche,"ax",%progbits
 2703              		.align	1
 2704              		.global	getche
 2705              		.thumb
 2706              		.thumb_func
 2707              		.type	getche, %function
 2708              	getche:
 2709              	.LFB82:
 703:..\common\ud3core/cli_basic.c **** 
 704:..\common\ud3core/cli_basic.c **** uint8_t getche(TERMINAL_HANDLE * handle, TickType_t xTicksToWait){
 2710              		.loc 1 704 0
 2711              		.cfi_startproc
 2712              		@ args = 0, pretend = 0, frame = 8
 2713              		@ frame_needed = 0, uses_anonymous_args = 0
 2714              	.LVL342:
ARM GAS  C:\Users\chemi\AppData\Local\Temp\ccHerMgL.s 			page 63


 2715 0000 37B5     		push	{r0, r1, r2, r4, r5, lr}
 2716              		.cfi_def_cfa_offset 24
 2717              		.cfi_offset 4, -12
 2718              		.cfi_offset 5, -8
 2719              		.cfi_offset 14, -4
 705:..\common\ud3core/cli_basic.c ****     uint8_t c=0;
 2720              		.loc 1 705 0
 2721 0002 0023     		movs	r3, #0
 704:..\common\ud3core/cli_basic.c ****     uint8_t c=0;
 2722              		.loc 1 704 0
 2723 0004 0446     		mov	r4, r0
 2724              		.loc 1 705 0
 2725 0006 8DF80730 		strb	r3, [sp, #7]
 706:..\common\ud3core/cli_basic.c ****     if(xTicksToWait>0){
 2726              		.loc 1 706 0
 2727 000a 0D46     		mov	r5, r1
 2728 000c 29B1     		cbz	r1, .L242
 707:..\common\ud3core/cli_basic.c ****         xSemaphoreGive(portM->term_block);
 2729              		.loc 1 707 0
 2730 000e 4068     		ldr	r0, [r0, #4]
 2731              	.LVL343:
 2732 0010 1A46     		mov	r2, r3
 2733 0012 1946     		mov	r1, r3
 2734              	.LVL344:
 2735 0014 C068     		ldr	r0, [r0, #12]
 2736 0016 FFF7FEFF 		bl	xQueueGenericSend
 2737              	.LVL345:
 2738              	.L242:
 708:..\common\ud3core/cli_basic.c ****     }
 709:..\common\ud3core/cli_basic.c ****     xStreamBufferReceive(portM->rx,&c,1,xTicksToWait);
 2739              		.loc 1 709 0
 2740 001a 6068     		ldr	r0, [r4, #4]
 2741 001c 2B46     		mov	r3, r5
 2742 001e 0122     		movs	r2, #1
 2743 0020 0DF10701 		add	r1, sp, #7
 2744 0024 8068     		ldr	r0, [r0, #8]
 2745 0026 FFF7FEFF 		bl	xStreamBufferReceive
 2746              	.LVL346:
 710:..\common\ud3core/cli_basic.c ****     if(xTicksToWait>0){
 2747              		.loc 1 710 0
 2748 002a 2DB1     		cbz	r5, .L243
 711:..\common\ud3core/cli_basic.c ****         xSemaphoreTake(portM->term_block, portMAX_DELAY);
 2749              		.loc 1 711 0
 2750 002c 6368     		ldr	r3, [r4, #4]
 2751 002e 4FF0FF31 		mov	r1, #-1
 2752 0032 D868     		ldr	r0, [r3, #12]
 2753 0034 FFF7FEFF 		bl	xQueueSemaphoreTake
 2754              	.LVL347:
 2755              	.L243:
 712:..\common\ud3core/cli_basic.c ****     }
 713:..\common\ud3core/cli_basic.c ****     if(c){
 2756              		.loc 1 713 0
 2757 0038 9DF80730 		ldrb	r3, [sp, #7]	@ zero_extendqisi2
 2758 003c 3BB1     		cbz	r3, .L244
 714:..\common\ud3core/cli_basic.c ****         xStreamBufferSend(portM->tx,&c,1,0);
 2759              		.loc 1 714 0
 2760 003e 6068     		ldr	r0, [r4, #4]
ARM GAS  C:\Users\chemi\AppData\Local\Temp\ccHerMgL.s 			page 64


 2761 0040 0023     		movs	r3, #0
 2762 0042 0122     		movs	r2, #1
 2763 0044 0DF10701 		add	r1, sp, #7
 2764 0048 4068     		ldr	r0, [r0, #4]
 2765 004a FFF7FEFF 		bl	xStreamBufferSend
 2766              	.LVL348:
 2767              	.L244:
 715:..\common\ud3core/cli_basic.c ****     }
 716:..\common\ud3core/cli_basic.c ****     return c;
 717:..\common\ud3core/cli_basic.c **** }
 2768              		.loc 1 717 0
 2769 004e 9DF80700 		ldrb	r0, [sp, #7]	@ zero_extendqisi2
 2770 0052 03B0     		add	sp, sp, #12
 2771              		.cfi_def_cfa_offset 12
 2772              		@ sp needed
 2773 0054 30BD     		pop	{r4, r5, pc}
 2774              		.cfi_endproc
 2775              	.LFE82:
 2776              		.size	getche, .-getche
 2777              		.section	.text.kbhit,"ax",%progbits
 2778              		.align	1
 2779              		.global	kbhit
 2780              		.thumb
 2781              		.thumb_func
 2782              		.type	kbhit, %function
 2783              	kbhit:
 2784              	.LFB83:
 718:..\common\ud3core/cli_basic.c **** 
 719:..\common\ud3core/cli_basic.c **** uint8_t kbhit(TERMINAL_HANDLE * handle){
 2785              		.loc 1 719 0
 2786              		.cfi_startproc
 2787              		@ args = 0, pretend = 0, frame = 0
 2788              		@ frame_needed = 0, uses_anonymous_args = 0
 2789              	.LVL349:
 2790 0000 08B5     		push	{r3, lr}
 2791              		.cfi_def_cfa_offset 8
 2792              		.cfi_offset 3, -8
 2793              		.cfi_offset 14, -4
 720:..\common\ud3core/cli_basic.c ****     if(xStreamBufferIsEmpty(portM->rx)){
 2794              		.loc 1 720 0
 2795 0002 4368     		ldr	r3, [r0, #4]
 2796 0004 9868     		ldr	r0, [r3, #8]
 2797              	.LVL350:
 2798 0006 FFF7FEFF 		bl	xStreamBufferIsEmpty
 2799              	.LVL351:
 721:..\common\ud3core/cli_basic.c ****         return pdFALSE;
 722:..\common\ud3core/cli_basic.c ****     }else{
 723:..\common\ud3core/cli_basic.c ****         return pdTRUE;
 724:..\common\ud3core/cli_basic.c ****     }
 725:..\common\ud3core/cli_basic.c **** }
 2800              		.loc 1 725 0
 2801 000a B0FA80F0 		clz	r0, r0
 2802 000e 4009     		lsrs	r0, r0, #5
 2803 0010 08BD     		pop	{r3, pc}
 2804              		.cfi_endproc
 2805              	.LFE83:
 2806              		.size	kbhit, .-kbhit
ARM GAS  C:\Users\chemi\AppData\Local\Temp\ccHerMgL.s 			page 65


 2807              		.section	.text.Term_check_break,"ax",%progbits
 2808              		.align	1
 2809              		.global	Term_check_break
 2810              		.thumb
 2811              		.thumb_func
 2812              		.type	Term_check_break, %function
 2813              	Term_check_break:
 2814              	.LFB84:
 726:..\common\ud3core/cli_basic.c **** 
 727:..\common\ud3core/cli_basic.c **** #define CTRL_C  0x03
 728:..\common\ud3core/cli_basic.c **** 
 729:..\common\ud3core/cli_basic.c **** uint8_t Term_check_break(TERMINAL_HANDLE * handle, uint32_t ms_to_wait){
 2815              		.loc 1 729 0
 2816              		.cfi_startproc
 2817              		@ args = 0, pretend = 0, frame = 0
 2818              		@ frame_needed = 0, uses_anonymous_args = 0
 2819              	.LVL352:
 2820 0000 08B5     		push	{r3, lr}
 2821              		.cfi_def_cfa_offset 8
 2822              		.cfi_offset 3, -8
 2823              		.cfi_offset 14, -4
 730:..\common\ud3core/cli_basic.c ****     uint8_t c = getch(handle,ms_to_wait /portTICK_RATE_MS);
 2824              		.loc 1 730 0
 2825 0002 FFF7FEFF 		bl	getch
 2826              	.LVL353:
 731:..\common\ud3core/cli_basic.c ****     if(c == CTRL_C || c == 'q'){  //0x03 = CTRL+C
 2827              		.loc 1 731 0
 2828 0006 0328     		cmp	r0, #3
 2829 0008 03D0     		beq	.L257
 732:..\common\ud3core/cli_basic.c ****         return pdFALSE;
 2830              		.loc 1 732 0 discriminator 1
 2831 000a 7138     		subs	r0, r0, #113
 2832              	.LVL354:
 2833 000c 18BF     		it	ne
 2834 000e 0120     		movne	r0, #1
 2835 0010 08BD     		pop	{r3, pc}
 2836              	.LVL355:
 2837              	.L257:
 2838              		.loc 1 732 0 is_stmt 0
 2839 0012 0020     		movs	r0, #0
 2840              	.LVL356:
 733:..\common\ud3core/cli_basic.c ****     }else{
 734:..\common\ud3core/cli_basic.c ****         return pdTRUE;
 735:..\common\ud3core/cli_basic.c ****     } 
 736:..\common\ud3core/cli_basic.c **** }
 2841              		.loc 1 736 0 is_stmt 1
 2842 0014 08BD     		pop	{r3, pc}
 2843              		.cfi_endproc
 2844              	.LFE84:
 2845              		.size	Term_check_break, .-Term_check_break
 2846              		.comm	byte_cnt,2,2
 2847              		.section	.rodata.str1.1,"aMS",%progbits,1
 2848              	.LC0:
 2849 0000 453A5261 		.ascii	"E:Range %i.%u-%i.%u\015\012\000"
 2849      6E676520 
 2849      25692E25 
 2849      752D2569 
ARM GAS  C:\Users\chemi\AppData\Local\Temp\ccHerMgL.s 			page 66


 2849      2E25750D 
 2850              	.LC1:
 2851 0016 453A5261 		.ascii	"E:Range %i-%i\015\012\000"
 2851      6E676520 
 2851      25692D25 
 2851      690D0A00 
 2852              	.LC2:
 2853 0026 50617261 		.ascii	"Parameter\000"
 2853      6D657465 
 2853      7200
 2854              	.LC3:
 2855 0030 7C205661 		.ascii	"| Value\000"
 2855      6C756500 
 2856              	.LC4:
 2857 0038 7C205465 		.ascii	"| Text\015\012\000"
 2857      78740D0A 
 2857      00
 2858              	.LC5:
 2859 0041 1B5B3336 		.ascii	"\033[36m%s\000"
 2859      6D257300 
 2860              	.LC6:
 2861 0049 1B5B3337 		.ascii	"\033[37m| \033[32m%u.%0*u\000"
 2861      6D7C201B 
 2861      5B33326D 
 2861      25752E25 
 2861      302A7500 
 2862              	.LC7:
 2863 005d 1B5B3337 		.ascii	"\033[37m| \033[32m%u\000"
 2863      6D7C201B 
 2863      5B33326D 
 2863      257500
 2864              	.LC8:
 2865 006c 1B5B3337 		.ascii	"\033[37m| \033[32m%i.%0*u\000"
 2865      6D7C201B 
 2865      5B33326D 
 2865      25692E25 
 2865      302A7500 
 2866              	.LC9:
 2867 0080 1B5B3337 		.ascii	"\033[37m| \033[32m%i\000"
 2867      6D7C201B 
 2867      5B33326D 
 2867      256900
 2868              	.LC10:
 2869 008f 1B5B3337 		.ascii	"\033[37m| \033[32m%f\000"
 2869      6D7C201B 
 2869      5B33326D 
 2869      256600
 2870              	.LC11:
 2871 009e 1B5B3337 		.ascii	"\033[37m| \033[32m%c\000"
 2871      6D7C201B 
 2871      5B33326D 
 2871      256300
 2872              	.LC12:
 2873 00ad 1B5B3337 		.ascii	"\033[37m| \033[32m%s\000"
 2873      6D7C201B 
 2873      5B33326D 
 2873      257300
ARM GAS  C:\Users\chemi\AppData\Local\Temp\ccHerMgL.s 			page 67


 2874              	.LC13:
 2875 00bc 1B5B3337 		.ascii	"\033[37m| %s\015\012\000"
 2875      6D7C2025 
 2875      730D0A00 
 2876              	.LC14:
 2877 00c8 50617261 		.ascii	"Parameters:\015\012\000"
 2877      6D657465 
 2877      72733A0D 
 2877      0A00
 2878              	.LC15:
 2879 00d6 0D0A436F 		.ascii	"\015\012Configuration:\015\012\000"
 2879      6E666967 
 2879      75726174 
 2879      696F6E3A 
 2879      0D0A00
 2880              	.LC16:
 2881 00e9 0925733D 		.ascii	"\011%s=%u.%0*u\015\012\000"
 2881      25752E25 
 2881      302A750D 
 2881      0A00
 2882              	.LC17:
 2883 00f7 0925733D 		.ascii	"\011%s=%u\015\012\000"
 2883      25750D0A 
 2883      00
 2884              	.LC18:
 2885 0100 0925733D 		.ascii	"\011%s=%i.%0*u\015\012\000"
 2885      25692E25 
 2885      302A750D 
 2885      0A00
 2886              	.LC19:
 2887 010e 0925733D 		.ascii	"\011%s=%i\015\012\000"
 2887      25690D0A 
 2887      00
 2888              	.LC20:
 2889 0117 0925733D 		.ascii	"\011%s=%f\015\012\000"
 2889      25660D0A 
 2889      00
 2890              	.LC21:
 2891 0120 0925733D 		.ascii	"\011%s=%c\015\012\000"
 2891      25630D0A 
 2891      00
 2892              	.LC22:
 2893 0129 0925733D 		.ascii	"\011%s=%s\015\012\000"
 2893      25730D0A 
 2893      00
 2894              	.LC23:
 2895 0132 25733B25 		.ascii	"%s;%u.%0*u;%u;%u;%i.%u;%i.%u\000"
 2895      752E2530 
 2895      2A753B25 
 2895      753B2575 
 2895      3B25692E 
 2896              	.LC24:
 2897 014f 25733B25 		.ascii	"%s;%u;%u;%u;%u;%u\000"
 2897      753B2575 
 2897      3B25753B 
 2897      25753B25 
 2897      7500
ARM GAS  C:\Users\chemi\AppData\Local\Temp\ccHerMgL.s 			page 68


 2898              	.LC25:
 2899 0161 25733B25 		.ascii	"%s;%i.%0*u;%u;%u;%i.%u;%i.%u\000"
 2899      692E2530 
 2899      2A753B25 
 2899      753B2575 
 2899      3B25692E 
 2900              	.LC26:
 2901 017e 25733B25 		.ascii	"%s;%i;%u;%u;%i;%i\000"
 2901      693B2575 
 2901      3B25753B 
 2901      25693B25 
 2901      6900
 2902              	.LC27:
 2903 0190 25733B25 		.ascii	"%s;%f;%u;%u;%i;%i\000"
 2903      663B2575 
 2903      3B25753B 
 2903      25693B25 
 2903      6900
 2904              	.LC28:
 2905 01a2 25733B25 		.ascii	"%s;%c;%u;%u;%s;%s\000"
 2905      633B2575 
 2905      3B25753B 
 2905      25733B25 
 2905      7300
 2906              	.LC29:
 2907 01b4 4E554C4C 		.ascii	"NULL\000"
 2907      00
 2908              	.LC30:
 2909 01b9 25733B25 		.ascii	"%s;%s;%u;%u;%s;%s\000"
 2909      733B2575 
 2909      3B25753B 
 2909      25733B25 
 2909      7300
 2910              	.LC31:
 2911 01cb 466F756E 		.ascii	"Found collision %s <-> %s\015\012\000"
 2911      6420636F 
 2911      6C6C6973 
 2911      696F6E20 
 2911      2573203C 
 2912              	.LC32:
 2913 01e7 43686563 		.ascii	"Check for hash collision done.\015\012\000"
 2913      6B20666F 
 2913      72206861 
 2913      73682063 
 2913      6F6C6C69 
 2914              	.LC33:
 2915 0208 45455052 		.ascii	"EEPROM: Dataset written changes\000"
 2915      4F4D3A20 
 2915      44617461 
 2915      73657420 
 2915      77726974 
 2916              	.LC34:
 2917 0228 2569202F 		.ascii	"%i / %i new config params written. %i bytes from 20"
 2917      20256920 
 2917      6E657720 
 2917      636F6E66 
 2917      69672070 
ARM GAS  C:\Users\chemi\AppData\Local\Temp\ccHerMgL.s 			page 69


 2918 025b 34382075 		.ascii	"48 used.\015\012\000"
 2918      7365642E 
 2918      0D0A00
 2919              	.LC35:
 2920 0266 45455052 		.ascii	"EEPROM: No or old dataset found\000"
 2920      4F4D3A20 
 2920      4E6F206F 
 2920      72206F6C 
 2920      64206461 
 2921              	.LC36:
 2922 0286 5741524E 		.ascii	"WARNING: No or old EEPROM dataset found\015\012\000"
 2922      494E473A 
 2922      204E6F20 
 2922      6F72206F 
 2922      6C642045 
 2923              	.LC37:
 2924 02b0 45455052 		.ascii	"EEPROM: Found unknown ID\000"
 2924      4F4D3A20 
 2924      466F756E 
 2924      6420756E 
 2924      6B6E6F77 
 2925              	.LC38:
 2926 02c9 5741524E 		.ascii	"WARNING: Unknown param ID %i found in EEPROM\015\012"
 2926      494E473A 
 2926      20556E6B 
 2926      6E6F776E 
 2926      20706172 
 2927 02f7 00       		.ascii	"\000"
 2928              	.LC39:
 2929 02f8 45455052 		.ascii	"EEPROM: Found unknown parameter\000"
 2929      4F4D3A20 
 2929      466F756E 
 2929      6420756E 
 2929      6B6E6F77 
 2930              	.LC40:
 2931 0318 5741524E 		.ascii	"WARNING: Param [%s] not found in EEPROM\015\012\000"
 2931      494E473A 
 2931      20506172 
 2931      616D205B 
 2931      25735D20 
 2932              	.LC41:
 2933 0342 45455052 		.ascii	"EEPROM: Dataset loaded\000"
 2933      4F4D3A20 
 2933      44617461 
 2933      73657420 
 2933      6C6F6164 
 2934              	.LC42:
 2935 0359 2569202F 		.ascii	"%i / %i config params loaded\015\012\000"
 2935      20256920 
 2935      636F6E66 
 2935      69672070 
 2935      6172616D 
 2936              		.data
 2937              		.align	1
 2938              		.set	.LANCHOR0,. + 0
 2939              		.type	last_row.9612, %object
 2940              		.size	last_row.9612, 2
ARM GAS  C:\Users\chemi\AppData\Local\Temp\ccHerMgL.s 			page 70


 2941              	last_row.9612:
 2942 0000 FFFF     		.short	-1
 2943              		.bss
 2944              		.set	.LANCHOR1,. + 0
 2945              		.type	eeprom_buffer.9611, %object
 2946              		.size	eeprom_buffer.9611, 16
 2947              	eeprom_buffer.9611:
 2948 0000 00000000 		.space	16
 2948      00000000 
 2948      00000000 
 2948      00000000 
 2949              		.type	changed.9613, %object
 2950              		.size	changed.9613, 1
 2951              	changed.9613:
 2952 0010 00       		.space	1
 2953              		.text
 2954              	.Letext0:
 2955              		.file 2 "c:\\program files (x86)\\cypress\\psoc creator\\4.4\\psoc creator\\import\\gnu\\arm\\5.4.
 2956              		.file 3 "c:\\program files (x86)\\cypress\\psoc creator\\4.4\\psoc creator\\import\\gnu\\arm\\5.4.
 2957              		.file 4 "..\\common\\rtos\\portable\\GCC\\ARM_CM3/portmacro.h"
 2958              		.file 5 "..\\common\\rtos\\include/task.h"
 2959              		.file 6 "..\\common\\rtos\\include/queue.h"
 2960              		.file 7 "..\\common\\rtos\\include/semphr.h"
 2961              		.file 8 "..\\common\\rtos\\include/stream_buffer.h"
 2962              		.file 9 "..\\common\\tterm/TTerm.h"
 2963              		.file 10 "..\\common\\ud3core/cli_basic.h"
 2964              		.file 11 "Generated_Source\\PSoC5/core_cm3.h"
 2965              		.file 12 "c:\\program files (x86)\\cypress\\psoc creator\\4.4\\psoc creator\\import\\gnu\\arm\\5.4
 2966              		.file 13 "c:\\program files (x86)\\cypress\\psoc creator\\4.4\\psoc creator\\import\\gnu\\arm\\5.4
 2967              		.file 14 "..\\common\\ud3core\\helper/printf.h"
 2968              		.file 15 "Generated_Source\\PSoC5/EEPROM_1.h"
 2969              		.file 16 "..\\common\\ud3core\\alarmevent.h"