ARM GAS  C:\Users\chemi\AppData\Local\Temp\ccVK6jyc.s 			page 1


   1              		.syntax unified
   2              		.cpu cortex-m3
   3              		.fpu softvfp
   4              		.eabi_attribute 20, 1
   5              		.eabi_attribute 21, 1
   6              		.eabi_attribute 23, 3
   7              		.eabi_attribute 24, 1
   8              		.eabi_attribute 25, 1
   9              		.eabi_attribute 26, 1
  10              		.eabi_attribute 30, 4
  11              		.eabi_attribute 34, 1
  12              		.eabi_attribute 18, 4
  13              		.thumb
  14              		.syntax unified
  15              		.file	"clock.c"
  16              		.text
  17              	.Ltext0:
  18              		.cfi_sections	.debug_frame
  19              		.section	.text.clock_tick,"ax",%progbits
  20              		.align	1
  21              		.global	clock_tick
  22              		.thumb
  23              		.thumb_func
  24              		.type	clock_tick, %function
  25              	clock_tick:
  26              	.LFB63:
  27              		.file 1 "..\\common\\ud3core\\clock.c"
   1:..\common\ud3core/clock.c **** /*
   2:..\common\ud3core/clock.c ****  * UD3
   3:..\common\ud3core/clock.c ****  *
   4:..\common\ud3core/clock.c ****  * Copyright (c) 2018 Jens Kerrinnes
   5:..\common\ud3core/clock.c ****  * Copyright (c) 2015 Steve Ward
   6:..\common\ud3core/clock.c ****  *
   7:..\common\ud3core/clock.c ****  * Permission is hereby granted, free of charge, to any person obtaining a copy of
   8:..\common\ud3core/clock.c ****  * this software and associated documentation files (the "Software"), to deal in
   9:..\common\ud3core/clock.c ****  * the Software without restriction, including without limitation the rights to
  10:..\common\ud3core/clock.c ****  * use, copy, modify, merge, publish, distribute, sublicense, and/or sell copies of
  11:..\common\ud3core/clock.c ****  * the Software, and to permit persons to whom the Software is furnished to do so,
  12:..\common\ud3core/clock.c ****  * subject to the following conditions:
  13:..\common\ud3core/clock.c ****  *
  14:..\common\ud3core/clock.c ****  * The above copyright notice and this permission notice shall be included in all
  15:..\common\ud3core/clock.c ****  * copies or substantial portions of the Software.
  16:..\common\ud3core/clock.c ****  *
  17:..\common\ud3core/clock.c ****  * THE SOFTWARE IS PROVIDED "AS IS", WITHOUT WARRANTY OF ANY KIND, EXPRESS OR
  18:..\common\ud3core/clock.c ****  * IMPLIED, INCLUDING BUT NOT LIMITED TO THE WARRANTIES OF MERCHANTABILITY, FITNESS
  19:..\common\ud3core/clock.c ****  * FOR A PARTICULAR PURPOSE AND NONINFRINGEMENT. IN NO EVENT SHALL THE AUTHORS OR
  20:..\common\ud3core/clock.c ****  * COPYRIGHT HOLDERS BE LIABLE FOR ANY CLAIM, DAMAGES OR OTHER LIABILITY, WHETHER
  21:..\common\ud3core/clock.c ****  * IN AN ACTION OF CONTRACT, TORT OR OTHERWISE, ARISING FROM, OUT OF OR IN
  22:..\common\ud3core/clock.c ****  * CONNECTION WITH THE SOFTWARE OR THE USE OR OTHER DEALINGS IN THE SOFTWARE.
  23:..\common\ud3core/clock.c **** */
  24:..\common\ud3core/clock.c **** 
  25:..\common\ud3core/clock.c **** #include "clock.h"
  26:..\common\ud3core/clock.c **** 
  27:..\common\ud3core/clock.c **** static const int32_t n_increment = 0x20000000;
  28:..\common\ud3core/clock.c **** volatile uint64_t h_time;
  29:..\common\ud3core/clock.c **** volatile uint32_t l_time;
  30:..\common\ud3core/clock.c **** volatile uint32_t increment = 0x20000000;
ARM GAS  C:\Users\chemi\AppData\Local\Temp\ccVK6jyc.s 			page 2


  31:..\common\ud3core/clock.c **** 
  32:..\common\ud3core/clock.c **** 
  33:..\common\ud3core/clock.c **** void clock_tick(){
  28              		.loc 1 33 0
  29              		.cfi_startproc
  30              		@ args = 0, pretend = 0, frame = 0
  31              		@ frame_needed = 0, uses_anonymous_args = 0
  32              		@ link register save eliminated.
  34:..\common\ud3core/clock.c ****     h_time += increment;
  33              		.loc 1 34 0
  34 0000 074B     		ldr	r3, .L2
  35 0002 1A68     		ldr	r2, [r3]
  36 0004 074B     		ldr	r3, .L2+4
  37 0006 D3E90001 		ldrd	r0, [r3]
  38 000a 8018     		adds	r0, r0, r2
  39 000c 41F10001 		adc	r1, r1, #0
  40 0010 C3E90001 		strd	r0, [r3]
  35:..\common\ud3core/clock.c ****     l_time = h_time >> 32;
  41              		.loc 1 35 0
  42 0014 D3E90001 		ldrd	r0, [r3]
  43 0018 034B     		ldr	r3, .L2+8
  44 001a 1960     		str	r1, [r3]
  45 001c 7047     		bx	lr
  46              	.L3:
  47 001e 00BF     		.align	2
  48              	.L2:
  49 0020 00000000 		.word	.LANCHOR0
  50 0024 00000000 		.word	h_time
  51 0028 00000000 		.word	l_time
  52              		.cfi_endproc
  53              	.LFE63:
  54              		.size	clock_tick, .-clock_tick
  55              		.section	.text.clock_reset_inc,"ax",%progbits
  56              		.align	1
  57              		.global	clock_reset_inc
  58              		.thumb
  59              		.thumb_func
  60              		.type	clock_reset_inc, %function
  61              	clock_reset_inc:
  62              	.LFB64:
  36:..\common\ud3core/clock.c **** }
  37:..\common\ud3core/clock.c **** 
  38:..\common\ud3core/clock.c **** void clock_reset_inc(){
  63              		.loc 1 38 0
  64              		.cfi_startproc
  65              		@ args = 0, pretend = 0, frame = 0
  66              		@ frame_needed = 0, uses_anonymous_args = 0
  67              		@ link register save eliminated.
  39:..\common\ud3core/clock.c ****     increment = n_increment;
  68              		.loc 1 39 0
  69 0000 024B     		ldr	r3, .L5
  70 0002 4FF00052 		mov	r2, #536870912
  71 0006 1A60     		str	r2, [r3]
  72 0008 7047     		bx	lr
  73              	.L6:
  74 000a 00BF     		.align	2
  75              	.L5:
ARM GAS  C:\Users\chemi\AppData\Local\Temp\ccVK6jyc.s 			page 3


  76 000c 00000000 		.word	.LANCHOR0
  77              		.cfi_endproc
  78              	.LFE64:
  79              		.size	clock_reset_inc, .-clock_reset_inc
  80              		.section	.text.clock_set,"ax",%progbits
  81              		.align	1
  82              		.global	clock_set
  83              		.thumb
  84              		.thumb_func
  85              		.type	clock_set, %function
  86              	clock_set:
  87              	.LFB65:
  40:..\common\ud3core/clock.c **** }
  41:..\common\ud3core/clock.c **** 
  42:..\common\ud3core/clock.c **** void clock_set(uint32_t time){
  88              		.loc 1 42 0
  89              		.cfi_startproc
  90              		@ args = 0, pretend = 0, frame = 0
  91              		@ frame_needed = 0, uses_anonymous_args = 0
  92              		@ link register save eliminated.
  93              	.LVL0:
  43:..\common\ud3core/clock.c ****     h_time = (uint64_t)time << 32;
  94              		.loc 1 43 0
  95 0000 0346     		mov	r3, r0
  96 0002 0249     		ldr	r1, .L8
  97 0004 0022     		movs	r2, #0
  98 0006 C1E90023 		strd	r2, [r1]
  99 000a 7047     		bx	lr
 100              	.L9:
 101              		.align	2
 102              	.L8:
 103 000c 00000000 		.word	h_time
 104              		.cfi_endproc
 105              	.LFE65:
 106              		.size	clock_set, .-clock_set
 107              		.section	.text.clock_trim,"ax",%progbits
 108              		.align	1
 109              		.global	clock_trim
 110              		.thumb
 111              		.thumb_func
 112              		.type	clock_trim, %function
 113              	clock_trim:
 114              	.LFB66:
  44:..\common\ud3core/clock.c **** }
  45:..\common\ud3core/clock.c **** 
  46:..\common\ud3core/clock.c **** 
  47:..\common\ud3core/clock.c **** void clock_trim(int32_t diff){
 115              		.loc 1 47 0
 116              		.cfi_startproc
 117              		@ args = 0, pretend = 0, frame = 0
 118              		@ frame_needed = 0, uses_anonymous_args = 0
 119              		@ link register save eliminated.
 120              	.LVL1:
  48:..\common\ud3core/clock.c ****     static int32_t i=0;
  49:..\common\ud3core/clock.c ****     int32_t p=0;
  50:..\common\ud3core/clock.c ****     i += diff * 4096;
 121              		.loc 1 50 0
ARM GAS  C:\Users\chemi\AppData\Local\Temp\ccVK6jyc.s 			page 4


 122 0000 0A4B     		ldr	r3, .L14
 123 0002 1A68     		ldr	r2, [r3]
 124 0004 02EB0031 		add	r1, r2, r0, lsl #12
 125 0008 094A     		ldr	r2, .L14+4
 126 000a 8A42     		cmp	r2, r1
 127 000c A8BF     		it	ge
 128 000e 0A46     		movge	r2, r1
  51:..\common\ud3core/clock.c ****     if(i>40960000) i=40960000;
  52:..\common\ud3core/clock.c ****     if(i<-40960000) i=-40960000;
 129              		.loc 1 52 0
 130 0010 0849     		ldr	r1, .L14+8
  50:..\common\ud3core/clock.c ****     if(i>40960000) i=40960000;
 131              		.loc 1 50 0
 132 0012 1A60     		str	r2, [r3]
 133              		.loc 1 52 0
 134 0014 8A42     		cmp	r2, r1
  53:..\common\ud3core/clock.c ****     p = diff* 1000000;
  54:..\common\ud3core/clock.c ****     increment = n_increment +p+i;
 135              		.loc 1 54 0
 136 0016 084A     		ldr	r2, .L14+12
  52:..\common\ud3core/clock.c ****     p = diff* 1000000;
 137              		.loc 1 52 0
 138 0018 B8BF     		it	lt
 139 001a 1960     		strlt	r1, [r3]
 140              	.LVL2:
 141              		.loc 1 54 0
 142 001c 5043     		muls	r0, r2, r0
 143              	.LVL3:
 144 001e 1B68     		ldr	r3, [r3]
 145 0020 00F10050 		add	r0, r0, #536870912
 146              	.LVL4:
 147 0024 1844     		add	r0, r0, r3
 148              	.LVL5:
 149 0026 054B     		ldr	r3, .L14+16
 150 0028 1860     		str	r0, [r3]
 151 002a 7047     		bx	lr
 152              	.L15:
 153              		.align	2
 154              	.L14:
 155 002c 00000000 		.word	.LANCHOR1
 156 0030 00007102 		.word	40960000
 157 0034 00008FFD 		.word	-40960000
 158 0038 40420F00 		.word	1000000
 159 003c 00000000 		.word	.LANCHOR0
 160              		.cfi_endproc
 161              	.LFE66:
 162              		.size	clock_trim, .-clock_trim
 163              		.global	increment
 164              		.comm	l_time,4,4
 165              		.comm	h_time,8,8
 166              		.data
 167              		.align	2
 168              		.set	.LANCHOR0,. + 0
 169              		.type	increment, %object
 170              		.size	increment, 4
 171              	increment:
 172 0000 00000020 		.word	536870912
ARM GAS  C:\Users\chemi\AppData\Local\Temp\ccVK6jyc.s 			page 5


 173              		.bss
 174              		.align	2
 175              		.set	.LANCHOR1,. + 0
 176              		.type	i.8128, %object
 177              		.size	i.8128, 4
 178              	i.8128:
 179 0000 00000000 		.space	4
 180              		.text
 181              	.Letext0:
 182              		.file 2 "c:\\program files (x86)\\cypress\\psoc creator\\4.4\\psoc creator\\import\\gnu\\arm\\5.4.
 183              		.file 3 "c:\\program files (x86)\\cypress\\psoc creator\\4.4\\psoc creator\\import\\gnu\\arm\\5.4.
 184              		.file 4 "Generated_Source\\PSoC5/core_cm3.h"