ARM GAS  C:\Users\chemi\AppData\Local\Temp\ccXth4TT.s 			page 1


   1              		.syntax unified
   2              		.cpu cortex-m3
   3              		.fpu softvfp
   4              		.eabi_attribute 20, 1
   5              		.eabi_attribute 21, 1
   6              		.eabi_attribute 23, 3
   7              		.eabi_attribute 24, 1
   8              		.eabi_attribute 25, 1
   9              		.eabi_attribute 26, 1
  10              		.eabi_attribute 30, 4
  11              		.eabi_attribute 34, 1
  12              		.eabi_attribute 18, 4
  13              		.thumb
  14              		.syntax unified
  15              		.file	"debug.c"
  16              		.text
  17              	.Ltext0:
  18              		.cfi_sections	.debug_frame
  19              		.section	.text.print_debug,"ax",%progbits
  20              		.align	1
  21              		.global	print_debug
  22              		.thumb
  23              		.thumb_func
  24              		.type	print_debug, %function
  25              	print_debug:
  26              	.LFB68:
  27              		.file 1 "..\\common\\ud3core\\helper\\debug.c"
   1:..\common\ud3core\helper/debug.c **** /*
   2:..\common\ud3core\helper/debug.c ****  * UD3
   3:..\common\ud3core\helper/debug.c ****  *
   4:..\common\ud3core\helper/debug.c ****  * Copyright (c) 2018 Jens Kerrinnes
   5:..\common\ud3core\helper/debug.c ****  * Copyright (c) 2015 Steve Ward
   6:..\common\ud3core\helper/debug.c ****  *
   7:..\common\ud3core\helper/debug.c ****  * Permission is hereby granted, free of charge, to any person obtaining a copy of
   8:..\common\ud3core\helper/debug.c ****  * this software and associated documentation files (the "Software"), to deal in
   9:..\common\ud3core\helper/debug.c ****  * the Software without restriction, including without limitation the rights to
  10:..\common\ud3core\helper/debug.c ****  * use, copy, modify, merge, publish, distribute, sublicense, and/or sell copies of
  11:..\common\ud3core\helper/debug.c ****  * the Software, and to permit persons to whom the Software is furnished to do so,
  12:..\common\ud3core\helper/debug.c ****  * subject to the following conditions:
  13:..\common\ud3core\helper/debug.c ****  *
  14:..\common\ud3core\helper/debug.c ****  * The above copyright notice and this permission notice shall be included in all
  15:..\common\ud3core\helper/debug.c ****  * copies or substantial portions of the Software.
  16:..\common\ud3core\helper/debug.c ****  *
  17:..\common\ud3core\helper/debug.c ****  * THE SOFTWARE IS PROVIDED "AS IS", WITHOUT WARRANTY OF ANY KIND, EXPRESS OR
  18:..\common\ud3core\helper/debug.c ****  * IMPLIED, INCLUDING BUT NOT LIMITED TO THE WARRANTIES OF MERCHANTABILITY, FITNESS
  19:..\common\ud3core\helper/debug.c ****  * FOR A PARTICULAR PURPOSE AND NONINFRINGEMENT. IN NO EVENT SHALL THE AUTHORS OR
  20:..\common\ud3core\helper/debug.c ****  * COPYRIGHT HOLDERS BE LIABLE FOR ANY CLAIM, DAMAGES OR OTHER LIABILITY, WHETHER
  21:..\common\ud3core\helper/debug.c ****  * IN AN ACTION OF CONTRACT, TORT OR OTHERWISE, ARISING FROM, OUT OF OR IN
  22:..\common\ud3core\helper/debug.c ****  * CONNECTION WITH THE SOFTWARE OR THE USE OR OTHER DEALINGS IN THE SOFTWARE.
  23:..\common\ud3core\helper/debug.c **** */
  24:..\common\ud3core\helper/debug.c **** 
  25:..\common\ud3core\helper/debug.c **** #include <stdlib.h>
  26:..\common\ud3core\helper/debug.c **** 
  27:..\common\ud3core\helper/debug.c **** #include "debug.h"
  28:..\common\ud3core\helper/debug.c **** #include "printf.h"
  29:..\common\ud3core\helper/debug.c **** #include "min.h"
  30:..\common\ud3core\helper/debug.c **** #include "min_id.h"
ARM GAS  C:\Users\chemi\AppData\Local\Temp\ccXth4TT.s 			page 2


  31:..\common\ud3core\helper/debug.c **** #include "tasks/tsk_min.h"
  32:..\common\ud3core\helper/debug.c **** #include "tasks/tsk_cli.h"
  33:..\common\ud3core\helper/debug.c **** 
  34:..\common\ud3core\helper/debug.c **** TERMINAL_HANDLE * debug_port;
  35:..\common\ud3core\helper/debug.c **** uint8_t debug_id=0xFF;
  36:..\common\ud3core\helper/debug.c **** 
  37:..\common\ud3core\helper/debug.c **** #define CTRL_C        0x03
  38:..\common\ud3core\helper/debug.c **** #define DEBUG_LOOP_MS 10
  39:..\common\ud3core\helper/debug.c **** 
  40:..\common\ud3core\helper/debug.c **** uint8_t print_debug(TERMINAL_HANDLE * handle, uint8_t id, uint8_t fibernet){
  28              		.loc 1 40 0
  29              		.cfi_startproc
  30              		@ args = 0, pretend = 0, frame = 80
  31              		@ frame_needed = 0, uses_anonymous_args = 0
  32              	.LVL0:
  33 0000 2DE9F043 		push	{r4, r5, r6, r7, r8, r9, lr}
  34              		.cfi_def_cfa_offset 28
  35              		.cfi_offset 4, -28
  36              		.cfi_offset 5, -24
  37              		.cfi_offset 6, -20
  38              		.cfi_offset 7, -16
  39              		.cfi_offset 8, -12
  40              		.cfi_offset 9, -8
  41              		.cfi_offset 14, -4
  42 0004 0446     		mov	r4, r0
  43 0006 9146     		mov	r9, r2
  41:..\common\ud3core\helper/debug.c ****     debug_port = handle;
  42:..\common\ud3core\helper/debug.c ****     debug_id = id;
  44              		.loc 1 42 0
  45 0008 224D     		ldr	r5, .L15
  41:..\common\ud3core\helper/debug.c ****     debug_port = handle;
  46              		.loc 1 41 0
  47 000a 234E     		ldr	r6, .L15+4
  48              		.loc 1 42 0
  49 000c 2970     		strb	r1, [r5]
  40:..\common\ud3core\helper/debug.c ****     debug_port = handle;
  50              		.loc 1 40 0
  51 000e 95B0     		sub	sp, sp, #84
  52              		.cfi_def_cfa_offset 112
  40:..\common\ud3core\helper/debug.c ****     debug_port = handle;
  53              		.loc 1 40 0
  54 0010 0F46     		mov	r7, r1
  43:..\common\ud3core\helper/debug.c ****     TERM_sendVT100Code(handle, _VT100_CLS, 0);
  55              		.loc 1 43 0
  56 0012 0022     		movs	r2, #0
  57              	.LVL1:
  58 0014 1B21     		movs	r1, #27
  59              	.LVL2:
  41:..\common\ud3core\helper/debug.c ****     debug_port = handle;
  60              		.loc 1 41 0
  61 0016 3060     		str	r0, [r6]
  62 0018 A846     		mov	r8, r5
  63              		.loc 1 43 0
  64 001a FFF7FEFF 		bl	TERM_sendVT100Code
  65              	.LVL3:
  66 001e 636A     		ldr	r3, [r4, #36]
  44:..\common\ud3core\helper/debug.c ****     char buffer[80];
ARM GAS  C:\Users\chemi\AppData\Local\Temp\ccXth4TT.s 			page 3


  45:..\common\ud3core\helper/debug.c ****     if(fibernet){
  67              		.loc 1 45 0
  68 0020 B9F1000F 		cmp	r9, #0
  69 0024 0AD0     		beq	.L2
  46:..\common\ud3core\helper/debug.c ****         ttprintf("Entering fibernet [CTRL+C] for exit\r\n");
  70              		.loc 1 46 0
  71 0026 1D49     		ldr	r1, .L15+8
  72 0028 6068     		ldr	r0, [r4, #4]
  73 002a 9847     		blx	r3
  74              	.LVL4:
  47:..\common\ud3core\helper/debug.c ****         min_send(id,(uint8_t*)ESC_STR "c",strlen(ESC_STR "c"),DEBUG_LOOP_MS /portTICK_RATE_MS);
  75              		.loc 1 47 0
  76 002c 0A23     		movs	r3, #10
  77 002e 0222     		movs	r2, #2
  78 0030 1B49     		ldr	r1, .L15+12
  79 0032 3846     		mov	r0, r7
  80 0034 FFF7FEFF 		bl	min_send
  81              	.LVL5:
  82              	.L4:
  40:..\common\ud3core\helper/debug.c ****     debug_port = handle;
  83              		.loc 1 40 0
  84 0038 0025     		movs	r5, #0
  85 003a 04E0     		b	.L3
  86              	.LVL6:
  87              	.L2:
  48:..\common\ud3core\helper/debug.c ****     }else{
  49:..\common\ud3core\helper/debug.c ****         ttprintf("Entering debug @%u [CTRL+C] for exit\r\n", id);
  88              		.loc 1 49 0
  89 003c 3A46     		mov	r2, r7
  90 003e 1949     		ldr	r1, .L15+16
  91 0040 6068     		ldr	r0, [r4, #4]
  92 0042 9847     		blx	r3
  93              	.LVL7:
  94 0044 F8E7     		b	.L4
  95              	.L3:
  96              	.LVL8:
  97              	.LBB2:
  50:..\common\ud3core\helper/debug.c ****     }
  51:..\common\ud3core\helper/debug.c ****     uint8_t c=0;
  52:..\common\ud3core\helper/debug.c ****     while(c != CTRL_C){
  53:..\common\ud3core\helper/debug.c ****         uint8_t len = xStreamBufferReceive(portM->rx,buffer,sizeof(buffer),DEBUG_LOOP_MS /portTICK_
  98              		.loc 1 53 0
  99 0046 6068     		ldr	r0, [r4, #4]
 100 0048 0A23     		movs	r3, #10
 101 004a 5022     		movs	r2, #80
 102 004c 6946     		mov	r1, sp
 103 004e 8068     		ldr	r0, [r0, #8]
 104 0050 FFF7FEFF 		bl	xStreamBufferReceive
 105              	.LVL9:
 106              	.LBB3:
  54:..\common\ud3core\helper/debug.c ****         for(uint32_t i=0;i<len;i++){
 107              		.loc 1 54 0
 108 0054 0023     		movs	r3, #0
 109              	.LBE3:
  53:..\common\ud3core\helper/debug.c ****         for(uint32_t i=0;i<len;i++){
 110              		.loc 1 53 0
 111 0056 C2B2     		uxtb	r2, r0
ARM GAS  C:\Users\chemi\AppData\Local\Temp\ccXth4TT.s 			page 4


 112              	.LVL10:
 113              	.L5:
 114              	.LBB4:
 115              		.loc 1 54 0 discriminator 1
 116 0058 9342     		cmp	r3, r2
 117 005a 06D2     		bcs	.L14
  55:..\common\ud3core\helper/debug.c ****             if(buffer[i]==CTRL_C) c = CTRL_C;   
 118              		.loc 1 55 0
 119 005c 1DF80310 		ldrb	r1, [sp, r3]	@ zero_extendqisi2
  54:..\common\ud3core\helper/debug.c ****         for(uint32_t i=0;i<len;i++){
 120              		.loc 1 54 0
 121 0060 0133     		adds	r3, r3, #1
 122              	.LVL11:
 123              		.loc 1 55 0
 124 0062 0329     		cmp	r1, #3
 125 0064 08BF     		it	eq
 126 0066 0325     		moveq	r5, #3
 127              	.LVL12:
 128 0068 F6E7     		b	.L5
 129              	.L14:
 130              	.LBE4:
  56:..\common\ud3core\helper/debug.c ****         }
  57:..\common\ud3core\helper/debug.c ****         if(len) {
 131              		.loc 1 57 0
 132 006a 22B1     		cbz	r2, .L8
  58:..\common\ud3core\helper/debug.c ****             min_send(id,(uint8_t*)buffer,len,DEBUG_LOOP_MS /portTICK_RATE_MS);
 133              		.loc 1 58 0
 134 006c 0A23     		movs	r3, #10
 135              	.LVL13:
 136 006e 6946     		mov	r1, sp
 137 0070 3846     		mov	r0, r7
 138 0072 FFF7FEFF 		bl	min_send
 139              	.LVL14:
 140              	.L8:
 141              	.LBE2:
  52:..\common\ud3core\helper/debug.c ****         uint8_t len = xStreamBufferReceive(portM->rx,buffer,sizeof(buffer),DEBUG_LOOP_MS /portTICK_
 142              		.loc 1 52 0
 143 0076 032D     		cmp	r5, #3
 144 0078 E5D1     		bne	.L3
  59:..\common\ud3core\helper/debug.c ****         }
  60:..\common\ud3core\helper/debug.c **** 
  61:..\common\ud3core\helper/debug.c ****     }
  62:..\common\ud3core\helper/debug.c ****     debug_port = NULL;
 145              		.loc 1 62 0
 146 007a 0023     		movs	r3, #0
 147 007c 3360     		str	r3, [r6]
  63:..\common\ud3core\helper/debug.c ****     debug_id = 0xFF;
 148              		.loc 1 63 0
 149 007e FF23     		movs	r3, #255
 150 0080 88F80030 		strb	r3, [r8]
  64:..\common\ud3core\helper/debug.c ****     ttprintf("\r\n");
 151              		.loc 1 64 0
 152 0084 0849     		ldr	r1, .L15+20
 153 0086 636A     		ldr	r3, [r4, #36]
 154 0088 6068     		ldr	r0, [r4, #4]
 155 008a 9847     		blx	r3
 156              	.LVL15:
ARM GAS  C:\Users\chemi\AppData\Local\Temp\ccXth4TT.s 			page 5


  65:..\common\ud3core\helper/debug.c ****     return 1;
  66:..\common\ud3core\helper/debug.c **** }
 157              		.loc 1 66 0
 158 008c 0120     		movs	r0, #1
 159 008e 15B0     		add	sp, sp, #84
 160              		.cfi_def_cfa_offset 28
 161              		@ sp needed
 162 0090 BDE8F083 		pop	{r4, r5, r6, r7, r8, r9, pc}
 163              	.LVL16:
 164              	.L16:
 165              		.align	2
 166              	.L15:
 167 0094 00000000 		.word	.LANCHOR0
 168 0098 00000000 		.word	debug_port
 169 009c 00000000 		.word	.LC0
 170 00a0 26000000 		.word	.LC1
 171 00a4 29000000 		.word	.LC2
 172 00a8 50000000 		.word	.LC3
 173              		.cfi_endproc
 174              	.LFE68:
 175              		.size	print_debug, .-print_debug
 176              		.section	.text.print_min_debug,"ax",%progbits
 177              		.align	1
 178              		.global	print_min_debug
 179              		.thumb
 180              		.thumb_func
 181              		.type	print_min_debug, %function
 182              	print_min_debug:
 183              	.LFB69:
  67:..\common\ud3core\helper/debug.c **** 
  68:..\common\ud3core\helper/debug.c **** uint8_t print_min_debug(TERMINAL_HANDLE * handle){
 184              		.loc 1 68 0
 185              		.cfi_startproc
 186              		@ args = 0, pretend = 0, frame = 0
 187              		@ frame_needed = 0, uses_anonymous_args = 0
 188              	.LVL17:
 189 0000 70B5     		push	{r4, r5, r6, lr}
 190              		.cfi_def_cfa_offset 16
 191              		.cfi_offset 4, -16
 192              		.cfi_offset 5, -12
 193              		.cfi_offset 6, -8
 194              		.cfi_offset 14, -4
 195              		.loc 1 68 0
 196 0002 0446     		mov	r4, r0
  69:..\common\ud3core\helper/debug.c ****     TERM_sendVT100Code(handle, _VT100_CLS, 0);
 197              		.loc 1 69 0
 198 0004 0022     		movs	r2, #0
 199 0006 1B21     		movs	r1, #27
 200 0008 FFF7FEFF 		bl	TERM_sendVT100Code
 201              	.LVL18:
  70:..\common\ud3core\helper/debug.c ****     ttprintf("Entering min debug [CTRL+C] for exit\r\n");
 202              		.loc 1 70 0
 203 000c 636A     		ldr	r3, [r4, #36]
 204 000e 0C49     		ldr	r1, .L20
 205 0010 6068     		ldr	r0, [r4, #4]
 206 0012 9847     		blx	r3
 207              	.LVL19:
ARM GAS  C:\Users\chemi\AppData\Local\Temp\ccXth4TT.s 			page 6


  71:..\common\ud3core\helper/debug.c ****     debug_port = handle;
 208              		.loc 1 71 0
 209 0014 0B4B     		ldr	r3, .L20+4
  72:..\common\ud3core\helper/debug.c ****     min_debug = pdTRUE;
 210              		.loc 1 72 0
 211 0016 0C4A     		ldr	r2, .L20+8
 212 0018 1D46     		mov	r5, r3
 213 001a 1646     		mov	r6, r2
 214 001c 0121     		movs	r1, #1
  71:..\common\ud3core\helper/debug.c ****     debug_port = handle;
 215              		.loc 1 71 0
 216 001e 1C60     		str	r4, [r3]
 217              		.loc 1 72 0
 218 0020 1170     		strb	r1, [r2]
 219              	.L18:
  73:..\common\ud3core\helper/debug.c ****     while(Term_check_break(handle,250));
 220              		.loc 1 73 0 discriminator 1
 221 0022 FA21     		movs	r1, #250
 222 0024 2046     		mov	r0, r4
 223 0026 FFF7FEFF 		bl	Term_check_break
 224              	.LVL20:
 225 002a 0028     		cmp	r0, #0
 226 002c F9D1     		bne	.L18
  74:..\common\ud3core\helper/debug.c ****     min_debug = pdFALSE;
 227              		.loc 1 74 0
 228 002e 3070     		strb	r0, [r6]
  75:..\common\ud3core\helper/debug.c ****     debug_port = NULL;
 229              		.loc 1 75 0
 230 0030 2860     		str	r0, [r5]
  76:..\common\ud3core\helper/debug.c ****     ttprintf("\r\n");
 231              		.loc 1 76 0
 232 0032 636A     		ldr	r3, [r4, #36]
 233 0034 0549     		ldr	r1, .L20+12
 234 0036 6068     		ldr	r0, [r4, #4]
 235 0038 9847     		blx	r3
 236              	.LVL21:
  77:..\common\ud3core\helper/debug.c ****     return 1;
  78:..\common\ud3core\helper/debug.c **** }
 237              		.loc 1 78 0
 238 003a 0120     		movs	r0, #1
 239 003c 70BD     		pop	{r4, r5, r6, pc}
 240              	.LVL22:
 241              	.L21:
 242 003e 00BF     		.align	2
 243              	.L20:
 244 0040 53000000 		.word	.LC4
 245 0044 00000000 		.word	debug_port
 246 0048 00000000 		.word	min_debug
 247 004c 50000000 		.word	.LC3
 248              		.cfi_endproc
 249              	.LFE69:
 250              		.size	print_min_debug, .-print_min_debug
 251              		.section	.text.CMD_debug,"ax",%progbits
 252              		.align	1
 253              		.global	CMD_debug
 254              		.thumb
 255              		.thumb_func
ARM GAS  C:\Users\chemi\AppData\Local\Temp\ccXth4TT.s 			page 7


 256              		.type	CMD_debug, %function
 257              	CMD_debug:
 258              	.LFB70:
  79:..\common\ud3core\helper/debug.c **** 
  80:..\common\ud3core\helper/debug.c **** uint8_t CMD_debug(TERMINAL_HANDLE * handle, uint8_t argCount, char ** args){
 259              		.loc 1 80 0
 260              		.cfi_startproc
 261              		@ args = 0, pretend = 0, frame = 0
 262              		@ frame_needed = 0, uses_anonymous_args = 0
 263              	.LVL23:
 264 0000 38B5     		push	{r3, r4, r5, lr}
 265              		.cfi_def_cfa_offset 16
 266              		.cfi_offset 3, -16
 267              		.cfi_offset 4, -12
 268              		.cfi_offset 5, -8
 269              		.cfi_offset 14, -4
 270              		.loc 1 80 0
 271 0002 0446     		mov	r4, r0
  81:..\common\ud3core\helper/debug.c ****     if(argCount==0 || strcmp(args[0], "-?") == 0){
 272              		.loc 1 81 0
 273 0004 29B1     		cbz	r1, .L23
 274              		.loc 1 81 0 is_stmt 0 discriminator 1
 275 0006 1568     		ldr	r5, [r2]
 276 0008 1949     		ldr	r1, .L34
 277              	.LVL24:
 278 000a 2846     		mov	r0, r5
 279              	.LVL25:
 280 000c FFF7FEFF 		bl	strcmp
 281              	.LVL26:
 282 0010 10B9     		cbnz	r0, .L24
 283              	.L23:
  82:..\common\ud3core\helper/debug.c ****         ttprintf(   "Usage: debug [id]\r\n"
 284              		.loc 1 82 0 is_stmt 1
 285 0012 636A     		ldr	r3, [r4, #36]
 286 0014 1749     		ldr	r1, .L34+4
 287 0016 15E0     		b	.L32
 288              	.L24:
  83:..\common\ud3core\helper/debug.c ****                     "debug min\r\n"
  84:..\common\ud3core\helper/debug.c ****                     "debug error\r\n"
  85:..\common\ud3core\helper/debug.c ****                     "debug fn\r\n");
  86:..\common\ud3core\helper/debug.c ****         return TERM_CMD_EXIT_SUCCESS;
  87:..\common\ud3core\helper/debug.c ****     } 
  88:..\common\ud3core\helper/debug.c **** 
  89:..\common\ud3core\helper/debug.c ****     if(strcmp(args[0], "min") == 0){
 289              		.loc 1 89 0
 290 0018 1749     		ldr	r1, .L34+8
 291 001a 2846     		mov	r0, r5
 292 001c FFF7FEFF 		bl	strcmp
 293              	.LVL27:
 294 0020 18B9     		cbnz	r0, .L26
  90:..\common\ud3core\helper/debug.c ****         print_min_debug(handle);
 295              		.loc 1 90 0
 296 0022 2046     		mov	r0, r4
 297 0024 FFF7FEFF 		bl	print_min_debug
 298              	.LVL28:
  91:..\common\ud3core\helper/debug.c ****         return TERM_CMD_EXIT_SUCCESS;
 299              		.loc 1 91 0
ARM GAS  C:\Users\chemi\AppData\Local\Temp\ccXth4TT.s 			page 8


 300 0028 1FE0     		b	.L25
 301              	.L26:
  92:..\common\ud3core\helper/debug.c **** 	}else  if(strcmp(args[0], "error") == 0){
 302              		.loc 1 92 0
 303 002a 1449     		ldr	r1, .L34+12
 304 002c 2846     		mov	r0, r5
 305 002e FFF7FEFF 		bl	strcmp
 306              	.LVL29:
 307 0032 50B9     		cbnz	r0, .L27
  93:..\common\ud3core\helper/debug.c ****         min_ctx.transport_fifo.sn_max++;
 308              		.loc 1 93 0
 309 0034 124A     		ldr	r2, .L34+16
  94:..\common\ud3core\helper/debug.c ****         ttprintf("injected one fifo offset\r\n");
 310              		.loc 1 94 0
 311 0036 1349     		ldr	r1, .L34+20
  93:..\common\ud3core\helper/debug.c ****         min_ctx.transport_fifo.sn_max++;
 312              		.loc 1 93 0
 313 0038 D2F8F030 		ldr	r3, [r2, #240]
 314 003c 0133     		adds	r3, r3, #1
 315 003e C2F8F030 		str	r3, [r2, #240]
 316              		.loc 1 94 0
 317 0042 636A     		ldr	r3, [r4, #36]
 318              	.L32:
 319 0044 6068     		ldr	r0, [r4, #4]
 320 0046 9847     		blx	r3
 321              	.LVL30:
  95:..\common\ud3core\helper/debug.c ****         return TERM_CMD_EXIT_SUCCESS;
 322              		.loc 1 95 0
 323 0048 0FE0     		b	.L25
 324              	.L27:
  96:..\common\ud3core\helper/debug.c **** 	}else if(strcmp(args[0], "fn") == 0){
 325              		.loc 1 96 0
 326 004a 0F49     		ldr	r1, .L34+24
 327 004c 2846     		mov	r0, r5
 328 004e FFF7FEFF 		bl	strcmp
 329              	.LVL31:
 330 0052 10B9     		cbnz	r0, .L28
  97:..\common\ud3core\helper/debug.c ****         print_debug(handle,MIN_ID_DEBUG,pdTRUE);
 331              		.loc 1 97 0
 332 0054 0122     		movs	r2, #1
 333 0056 2A21     		movs	r1, #42
 334 0058 04E0     		b	.L33
 335              	.L28:
 336              	.LBB5:
  98:..\common\ud3core\helper/debug.c ****         return TERM_CMD_EXIT_SUCCESS;
  99:..\common\ud3core\helper/debug.c **** 	}else{
 100:..\common\ud3core\helper/debug.c ****         uint8_t id = atoi(args[0]);
 337              		.loc 1 100 0
 338 005a 2846     		mov	r0, r5
 339 005c FFF7FEFF 		bl	atoi
 340              	.LVL32:
 101:..\common\ud3core\helper/debug.c ****         print_debug(handle,id,pdFALSE);
 341              		.loc 1 101 0
 342 0060 0022     		movs	r2, #0
 343 0062 C1B2     		uxtb	r1, r0
 344              	.LVL33:
 345              	.L33:
ARM GAS  C:\Users\chemi\AppData\Local\Temp\ccXth4TT.s 			page 9


 346 0064 2046     		mov	r0, r4
 347 0066 FFF7FEFF 		bl	print_debug
 348              	.LVL34:
 349              	.L25:
 350              	.LBE5:
 102:..\common\ud3core\helper/debug.c ****     }
 103:..\common\ud3core\helper/debug.c ****     
 104:..\common\ud3core\helper/debug.c ****     return TERM_CMD_EXIT_SUCCESS;
 105:..\common\ud3core\helper/debug.c **** }
 351              		.loc 1 105 0
 352 006a FF20     		movs	r0, #255
 353 006c 38BD     		pop	{r3, r4, r5, pc}
 354              	.LVL35:
 355              	.L35:
 356 006e 00BF     		.align	2
 357              	.L34:
 358 0070 7A000000 		.word	.LC5
 359 0074 7D000000 		.word	.LC6
 360 0078 B3000000 		.word	.LC7
 361 007c B7000000 		.word	.LC8
 362 0080 00000000 		.word	min_ctx
 363 0084 BD000000 		.word	.LC9
 364 0088 D8000000 		.word	.LC10
 365              		.cfi_endproc
 366              	.LFE70:
 367              		.size	CMD_debug, .-CMD_debug
 368              		.global	debug_id
 369              		.comm	debug_port,4,4
 370              		.section	.rodata.str1.1,"aMS",%progbits,1
 371              	.LC0:
 372 0000 456E7465 		.ascii	"Entering fibernet [CTRL+C] for exit\015\012\000"
 372      72696E67 
 372      20666962 
 372      65726E65 
 372      74205B43 
 373              	.LC1:
 374 0026 1B6300   		.ascii	"\033c\000"
 375              	.LC2:
 376 0029 456E7465 		.ascii	"Entering debug @%u [CTRL+C] for exit\015\012\000"
 376      72696E67 
 376      20646562 
 376      75672040 
 376      2575205B 
 377              	.LC3:
 378 0050 0D0A00   		.ascii	"\015\012\000"
 379              	.LC4:
 380 0053 456E7465 		.ascii	"Entering min debug [CTRL+C] for exit\015\012\000"
 380      72696E67 
 380      206D696E 
 380      20646562 
 380      7567205B 
 381              	.LC5:
 382 007a 2D3F00   		.ascii	"-?\000"
 383              	.LC6:
 384 007d 55736167 		.ascii	"Usage: debug [id]\015\012debug min\015\012debug err"
 384      653A2064 
 384      65627567 
ARM GAS  C:\Users\chemi\AppData\Local\Temp\ccXth4TT.s 			page 10


 384      205B6964 
 384      5D0D0A64 
 385 00a4 6F720D0A 		.ascii	"or\015\012debug fn\015\012\000"
 385      64656275 
 385      6720666E 
 385      0D0A00
 386              	.LC7:
 387 00b3 6D696E00 		.ascii	"min\000"
 388              	.LC8:
 389 00b7 6572726F 		.ascii	"error\000"
 389      7200
 390              	.LC9:
 391 00bd 696E6A65 		.ascii	"injected one fifo offset\015\012\000"
 391      63746564 
 391      206F6E65 
 391      20666966 
 391      6F206F66 
 392              	.LC10:
 393 00d8 666E00   		.ascii	"fn\000"
 394              		.data
 395              		.set	.LANCHOR0,. + 0
 396              		.type	debug_id, %object
 397              		.size	debug_id, 1
 398              	debug_id:
 399 0000 FF       		.byte	-1
 400              		.text
 401              	.Letext0:
 402              		.file 2 "c:\\program files (x86)\\cypress\\psoc creator\\4.4\\psoc creator\\import\\gnu\\arm\\5.4.
 403              		.file 3 "c:\\program files (x86)\\cypress\\psoc creator\\4.4\\psoc creator\\import\\gnu\\arm\\5.4.
 404              		.file 4 "..\\common\\rtos\\portable\\GCC\\ARM_CM3/portmacro.h"
 405              		.file 5 "..\\common\\rtos\\include/task.h"
 406              		.file 6 "..\\common\\rtos\\include/queue.h"
 407              		.file 7 "..\\common\\rtos\\include/semphr.h"
 408              		.file 8 "..\\common\\rtos\\include/stream_buffer.h"
 409              		.file 9 "..\\common\\tterm/TTerm.h"
 410              		.file 10 "..\\common\\ud3core/cli_basic.h"
 411              		.file 11 "..\\common\\min/min.h"
 412              		.file 12 "Generated_Source\\PSoC5/core_cm3.h"
 413              		.file 13 "..\\common\\ud3core/tasks/tsk_min.h"
 414              		.file 14 "c:\\program files (x86)\\cypress\\psoc creator\\4.4\\psoc creator\\import\\gnu\\arm\\5.4
 415              		.file 15 "c:\\program files (x86)\\cypress\\psoc creator\\4.4\\psoc creator\\import\\gnu\\arm\\5.4