ARM GAS  C:\Users\chemi\AppData\Local\Temp\cczjjlNc.s 			page 1


   1              		.syntax unified
   2              		.cpu cortex-m3
   3              		.fpu softvfp
   4              		.eabi_attribute 20, 1
   5              		.eabi_attribute 21, 1
   6              		.eabi_attribute 23, 3
   7              		.eabi_attribute 24, 1
   8              		.eabi_attribute 25, 1
   9              		.eabi_attribute 26, 1
  10              		.eabi_attribute 30, 4
  11              		.eabi_attribute 34, 1
  12              		.eabi_attribute 18, 4
  13              		.thumb
  14              		.syntax unified
  15              		.file	"DLL.c"
  16              		.text
  17              	.Ltext0:
  18              		.cfi_sections	.debug_frame
  19              		.section	.text.DLL_create,"ax",%progbits
  20              		.align	1
  21              		.global	DLL_create
  22              		.thumb
  23              		.thumb_func
  24              		.type	DLL_create, %function
  25              	DLL_create:
  26              	.LFB68:
  27              		.file 1 "..\\common\\Modules\\DLL\\DLL.c"
   1:..\common\Modules\DLL/DLL.c **** /*
   2:..\common\Modules\DLL/DLL.c ****     Copyright (C) 2020-2022 TMax-Electronics.de
   3:..\common\Modules\DLL/DLL.c **** */
   4:..\common\Modules\DLL/DLL.c **** 
   5:..\common\Modules\DLL/DLL.c **** #include <stdint.h>
   6:..\common\Modules\DLL/DLL.c **** 
   7:..\common\Modules\DLL/DLL.c **** #include "include/DLL.h"
   8:..\common\Modules\DLL/DLL.c **** #include "FreeRTOS.h"
   9:..\common\Modules\DLL/DLL.c **** 
  10:..\common\Modules\DLL/DLL.c **** typedef struct{
  11:..\common\Modules\DLL/DLL.c ****     uint32_t nextUID;
  12:..\common\Modules\DLL/DLL.c **** } HeadData;
  13:..\common\Modules\DLL/DLL.c **** 
  14:..\common\Modules\DLL/DLL.c **** DLLObject * DLL_create(){
  28              		.loc 1 14 0
  29              		.cfi_startproc
  30              		@ args = 0, pretend = 0, frame = 0
  31              		@ frame_needed = 0, uses_anonymous_args = 0
  32 0000 10B5     		push	{r4, lr}
  33              		.cfi_def_cfa_offset 8
  34              		.cfi_offset 4, -8
  35              		.cfi_offset 14, -4
  15:..\common\Modules\DLL/DLL.c ****     DLLObject * head = pvPortMalloc(sizeof(DLLObject));
  36              		.loc 1 15 0
  37 0002 1020     		movs	r0, #16
  38 0004 FFF7FEFF 		bl	pvPortMalloc
  39              	.LVL0:
  40 0008 0446     		mov	r4, r0
  41              	.LVL1:
  16:..\common\Modules\DLL/DLL.c ****     HeadData * headData = pvPortMalloc(sizeof(HeadData));
ARM GAS  C:\Users\chemi\AppData\Local\Temp\cczjjlNc.s 			page 2


  42              		.loc 1 16 0
  43 000a 0420     		movs	r0, #4
  44              	.LVL2:
  45 000c FFF7FEFF 		bl	pvPortMalloc
  46              	.LVL3:
  17:..\common\Modules\DLL/DLL.c ****     headData->nextUID = 0;
  47              		.loc 1 17 0
  48 0010 0023     		movs	r3, #0
  49 0012 0360     		str	r3, [r0]
  18:..\common\Modules\DLL/DLL.c ****     head->uid = 0;
  19:..\common\Modules\DLL/DLL.c ****     head->data = (void*) headData;
  50              		.loc 1 19 0
  51 0014 E060     		str	r0, [r4, #12]
  18:..\common\Modules\DLL/DLL.c ****     head->uid = 0;
  52              		.loc 1 18 0
  53 0016 A360     		str	r3, [r4, #8]
  20:..\common\Modules\DLL/DLL.c ****     head->next = head;
  54              		.loc 1 20 0
  55 0018 2460     		str	r4, [r4]
  21:..\common\Modules\DLL/DLL.c ****     head->prev = head;
  56              		.loc 1 21 0
  57 001a 6460     		str	r4, [r4, #4]
  22:..\common\Modules\DLL/DLL.c ****     return head;
  23:..\common\Modules\DLL/DLL.c **** }
  58              		.loc 1 23 0
  59 001c 2046     		mov	r0, r4
  60              	.LVL4:
  61 001e 10BD     		pop	{r4, pc}
  62              		.cfi_endproc
  63              	.LFE68:
  64              		.size	DLL_create, .-DLL_create
  65              		.section	.text.DLL_length,"ax",%progbits
  66              		.align	1
  67              		.global	DLL_length
  68              		.thumb
  69              		.thumb_func
  70              		.type	DLL_length, %function
  71              	DLL_length:
  72              	.LFB70:
  24:..\common\Modules\DLL/DLL.c **** 
  25:..\common\Modules\DLL/DLL.c **** //LEAKY IF THE LIST CONTAINS ITEMS!!!
  26:..\common\Modules\DLL/DLL.c **** void DLL_free(DLLObject * listHead){
  27:..\common\Modules\DLL/DLL.c ****     DLL_clear(listHead);
  28:..\common\Modules\DLL/DLL.c ****     vPortFree(listHead->data);
  29:..\common\Modules\DLL/DLL.c ****     vPortFree(listHead);
  30:..\common\Modules\DLL/DLL.c **** }
  31:..\common\Modules\DLL/DLL.c **** 
  32:..\common\Modules\DLL/DLL.c **** uint32_t DLL_length(DLLObject * listHead){
  73              		.loc 1 32 0
  74              		.cfi_startproc
  75              		@ args = 0, pretend = 0, frame = 0
  76              		@ frame_needed = 0, uses_anonymous_args = 0
  77              		@ link register save eliminated.
  78              	.LVL5:
  33:..\common\Modules\DLL/DLL.c ****     DLLObject * currObj = listHead->next;
  79              		.loc 1 33 0
  80 0000 0268     		ldr	r2, [r0]
ARM GAS  C:\Users\chemi\AppData\Local\Temp\cczjjlNc.s 			page 3


  81              	.LVL6:
  34:..\common\Modules\DLL/DLL.c ****     uint32_t count = 0;
  82              		.loc 1 34 0
  83 0002 0023     		movs	r3, #0
  84              	.LVL7:
  85              	.L3:
  35:..\common\Modules\DLL/DLL.c ****     while(currObj != listHead){
  86              		.loc 1 35 0
  87 0004 8242     		cmp	r2, r0
  88 0006 02D0     		beq	.L6
  36:..\common\Modules\DLL/DLL.c ****         count ++;
  89              		.loc 1 36 0
  90 0008 0133     		adds	r3, r3, #1
  91              	.LVL8:
  37:..\common\Modules\DLL/DLL.c ****         currObj = currObj->next;
  92              		.loc 1 37 0
  93 000a 1268     		ldr	r2, [r2]
  94              	.LVL9:
  95 000c FAE7     		b	.L3
  96              	.L6:
  38:..\common\Modules\DLL/DLL.c ****     }
  39:..\common\Modules\DLL/DLL.c ****     return count;
  40:..\common\Modules\DLL/DLL.c **** }
  97              		.loc 1 40 0
  98 000e 1846     		mov	r0, r3
  99              	.LVL10:
 100 0010 7047     		bx	lr
 101              		.cfi_endproc
 102              	.LFE70:
 103              		.size	DLL_length, .-DLL_length
 104              		.section	.text.DLL_add,"ax",%progbits
 105              		.align	1
 106              		.global	DLL_add
 107              		.thumb
 108              		.thumb_func
 109              		.type	DLL_add, %function
 110              	DLL_add:
 111              	.LFB72:
  41:..\common\Modules\DLL/DLL.c **** 
  42:..\common\Modules\DLL/DLL.c **** void DLL_clear(DLLObject * listHead){
  43:..\common\Modules\DLL/DLL.c ****     DLLObject * currObject = listHead->next;
  44:..\common\Modules\DLL/DLL.c ****     while(currObject != listHead){
  45:..\common\Modules\DLL/DLL.c ****         currObject = currObject->next;
  46:..\common\Modules\DLL/DLL.c ****         DLL_remove(currObject->prev);
  47:..\common\Modules\DLL/DLL.c ****     }
  48:..\common\Modules\DLL/DLL.c **** }
  49:..\common\Modules\DLL/DLL.c **** 
  50:..\common\Modules\DLL/DLL.c **** uint32_t DLL_add(void * data, DLLObject * listHead){
 112              		.loc 1 50 0
 113              		.cfi_startproc
 114              		@ args = 0, pretend = 0, frame = 0
 115              		@ frame_needed = 0, uses_anonymous_args = 0
 116              	.LVL11:
 117 0000 38B5     		push	{r3, r4, r5, lr}
 118              		.cfi_def_cfa_offset 16
 119              		.cfi_offset 3, -16
 120              		.cfi_offset 4, -12
ARM GAS  C:\Users\chemi\AppData\Local\Temp\cczjjlNc.s 			page 4


 121              		.cfi_offset 5, -8
 122              		.cfi_offset 14, -4
 123              		.loc 1 50 0
 124 0002 0C46     		mov	r4, r1
  51:..\common\Modules\DLL/DLL.c ****     if(data == 0) return 0;
 125              		.loc 1 51 0
 126 0004 0546     		mov	r5, r0
 127 0006 78B1     		cbz	r0, .L9
  52:..\common\Modules\DLL/DLL.c ****     //allocate memory for new object
  53:..\common\Modules\DLL/DLL.c ****     DLLObject * newObject = pvPortMalloc(sizeof(DLLObject));
 128              		.loc 1 53 0
 129 0008 1020     		movs	r0, #16
 130              	.LVL12:
 131 000a FFF7FEFF 		bl	pvPortMalloc
 132              	.LVL13:
 133 000e 0346     		mov	r3, r0
 134              	.LVL14:
  54:..\common\Modules\DLL/DLL.c ****     
  55:..\common\Modules\DLL/DLL.c ****     //relink objects
  56:..\common\Modules\DLL/DLL.c ****     listHead->prev->next = newObject;
 135              		.loc 1 56 0
 136 0010 6268     		ldr	r2, [r4, #4]
 137 0012 1060     		str	r0, [r2]
  57:..\common\Modules\DLL/DLL.c ****     newObject->prev = listHead->prev;
 138              		.loc 1 57 0
 139 0014 4260     		str	r2, [r0, #4]
  58:..\common\Modules\DLL/DLL.c ****     listHead->prev = newObject;
  59:..\common\Modules\DLL/DLL.c ****     newObject->next = listHead;
  60:..\common\Modules\DLL/DLL.c ****     
  61:..\common\Modules\DLL/DLL.c ****     //set new object's data
  62:..\common\Modules\DLL/DLL.c ****     newObject->uid = ((HeadData*) listHead->data)->nextUID++;
 140              		.loc 1 62 0
 141 0016 E268     		ldr	r2, [r4, #12]
  58:..\common\Modules\DLL/DLL.c ****     listHead->prev = newObject;
 142              		.loc 1 58 0
 143 0018 6060     		str	r0, [r4, #4]
  59:..\common\Modules\DLL/DLL.c ****     
 144              		.loc 1 59 0
 145 001a 0460     		str	r4, [r0]
 146              		.loc 1 62 0
 147 001c 1068     		ldr	r0, [r2]
 148              	.LVL15:
 149 001e 411C     		adds	r1, r0, #1
 150 0020 1160     		str	r1, [r2]
 151 0022 9860     		str	r0, [r3, #8]
  63:..\common\Modules\DLL/DLL.c ****     newObject->data = data;
 152              		.loc 1 63 0
 153 0024 DD60     		str	r5, [r3, #12]
  64:..\common\Modules\DLL/DLL.c ****     
  65:..\common\Modules\DLL/DLL.c ****     return newObject->uid;
 154              		.loc 1 65 0
 155 0026 38BD     		pop	{r3, r4, r5, pc}
 156              	.LVL16:
 157              	.L9:
  66:..\common\Modules\DLL/DLL.c **** }
 158              		.loc 1 66 0
 159 0028 38BD     		pop	{r3, r4, r5, pc}
ARM GAS  C:\Users\chemi\AppData\Local\Temp\cczjjlNc.s 			page 5


 160              		.cfi_endproc
 161              	.LFE72:
 162              		.size	DLL_add, .-DLL_add
 163              		.section	.text.DLL_find,"ax",%progbits
 164              		.align	1
 165              		.global	DLL_find
 166              		.thumb
 167              		.thumb_func
 168              		.type	DLL_find, %function
 169              	DLL_find:
 170              	.LFB73:
  67:..\common\Modules\DLL/DLL.c **** 
  68:..\common\Modules\DLL/DLL.c **** DLLObject * DLL_find(void * dataPtr, DLLObject * listHead){
 171              		.loc 1 68 0
 172              		.cfi_startproc
 173              		@ args = 0, pretend = 0, frame = 0
 174              		@ frame_needed = 0, uses_anonymous_args = 0
 175              		@ link register save eliminated.
 176              	.LVL17:
  69:..\common\Modules\DLL/DLL.c ****     DLLObject * currObject = listHead->next;
 177              		.loc 1 69 0
 178 0000 0B68     		ldr	r3, [r1]
 179              	.LVL18:
 180              	.L11:
  70:..\common\Modules\DLL/DLL.c ****     while(currObject != listHead){
 181              		.loc 1 70 0
 182 0002 8B42     		cmp	r3, r1
 183 0004 04D0     		beq	.L15
  71:..\common\Modules\DLL/DLL.c ****         if(currObject->data == dataPtr) return currObject; //target object found
 184              		.loc 1 71 0
 185 0006 DA68     		ldr	r2, [r3, #12]
 186 0008 8242     		cmp	r2, r0
 187 000a 03D0     		beq	.L14
  72:..\common\Modules\DLL/DLL.c ****         currObject = currObject->next;
 188              		.loc 1 72 0
 189 000c 1B68     		ldr	r3, [r3]
 190              	.LVL19:
 191 000e F8E7     		b	.L11
 192              	.L15:
  73:..\common\Modules\DLL/DLL.c ****     }
  74:..\common\Modules\DLL/DLL.c ****     return NULL; //object not found
 193              		.loc 1 74 0
 194 0010 0020     		movs	r0, #0
 195              	.LVL20:
 196 0012 7047     		bx	lr
 197              	.LVL21:
 198              	.L14:
 199 0014 1846     		mov	r0, r3
 200              	.LVL22:
  75:..\common\Modules\DLL/DLL.c **** }
 201              		.loc 1 75 0
 202 0016 7047     		bx	lr
 203              		.cfi_endproc
 204              	.LFE73:
 205              		.size	DLL_find, .-DLL_find
 206              		.section	.text.DLL_get,"ax",%progbits
 207              		.align	1
ARM GAS  C:\Users\chemi\AppData\Local\Temp\cczjjlNc.s 			page 6


 208              		.global	DLL_get
 209              		.thumb
 210              		.thumb_func
 211              		.type	DLL_get, %function
 212              	DLL_get:
 213              	.LFB74:
  76:..\common\Modules\DLL/DLL.c **** 
  77:..\common\Modules\DLL/DLL.c **** void * DLL_get(uint16_t index, DLLObject * listHead){
 214              		.loc 1 77 0
 215              		.cfi_startproc
 216              		@ args = 0, pretend = 0, frame = 0
 217              		@ frame_needed = 0, uses_anonymous_args = 0
 218              		@ link register save eliminated.
 219              	.LVL23:
  78:..\common\Modules\DLL/DLL.c ****     DLLObject * currObject = listHead->next;
 220              		.loc 1 78 0
 221 0000 0B68     		ldr	r3, [r1]
 222              	.LVL24:
  79:..\common\Modules\DLL/DLL.c ****     if(currObject == listHead) return 0;
 223              		.loc 1 79 0
 224 0002 9942     		cmp	r1, r3
  80:..\common\Modules\DLL/DLL.c ****     uint16_t currIndex = 0;
  81:..\common\Modules\DLL/DLL.c ****     for(; currIndex < index; currIndex ++){
  82:..\common\Modules\DLL/DLL.c ****         currObject = listHead->next;
  83:..\common\Modules\DLL/DLL.c ****         if(currObject == listHead) return 0;
  84:..\common\Modules\DLL/DLL.c ****     }
  85:..\common\Modules\DLL/DLL.c ****     return currObject->data;
 225              		.loc 1 85 0
 226 0004 14BF     		ite	ne
 227 0006 D868     		ldrne	r0, [r3, #12]
 228              	.LVL25:
  79:..\common\Modules\DLL/DLL.c ****     if(currObject == listHead) return 0;
 229              		.loc 1 79 0
 230 0008 0020     		moveq	r0, #0
  86:..\common\Modules\DLL/DLL.c **** }
 231              		.loc 1 86 0
 232 000a 7047     		bx	lr
 233              		.cfi_endproc
 234              	.LFE74:
 235              		.size	DLL_get, .-DLL_get
 236              		.section	.text.DLL_isEmpty,"ax",%progbits
 237              		.align	1
 238              		.global	DLL_isEmpty
 239              		.thumb
 240              		.thumb_func
 241              		.type	DLL_isEmpty, %function
 242              	DLL_isEmpty:
 243              	.LFB75:
  87:..\common\Modules\DLL/DLL.c **** 
  88:..\common\Modules\DLL/DLL.c **** unsigned DLL_isEmpty(DLLObject * listHead){
 244              		.loc 1 88 0
 245              		.cfi_startproc
 246              		@ args = 0, pretend = 0, frame = 0
 247              		@ frame_needed = 0, uses_anonymous_args = 0
 248              		@ link register save eliminated.
 249              	.LVL26:
  89:..\common\Modules\DLL/DLL.c ****     return listHead->next == listHead;
ARM GAS  C:\Users\chemi\AppData\Local\Temp\cczjjlNc.s 			page 7


 250              		.loc 1 89 0
 251 0000 0368     		ldr	r3, [r0]
  90:..\common\Modules\DLL/DLL.c **** }
 252              		.loc 1 90 0
 253 0002 1B1A     		subs	r3, r3, r0
 254 0004 5842     		rsbs	r0, r3, #0
 255              	.LVL27:
 256 0006 5841     		adcs	r0, r0, r3
 257 0008 7047     		bx	lr
 258              		.cfi_endproc
 259              	.LFE75:
 260              		.size	DLL_isEmpty, .-DLL_isEmpty
 261              		.section	.text.DLL_remove,"ax",%progbits
 262              		.align	1
 263              		.global	DLL_remove
 264              		.thumb
 265              		.thumb_func
 266              		.type	DLL_remove, %function
 267              	DLL_remove:
 268              	.LFB77:
  91:..\common\Modules\DLL/DLL.c **** 
  92:..\common\Modules\DLL/DLL.c **** void DLL_removeData(void * dataPtr, DLLObject * listHead){
  93:..\common\Modules\DLL/DLL.c ****     DLLObject * target = DLL_find(dataPtr, listHead);
  94:..\common\Modules\DLL/DLL.c ****     if(target != NULL) DLL_remove(target);
  95:..\common\Modules\DLL/DLL.c **** }
  96:..\common\Modules\DLL/DLL.c **** 
  97:..\common\Modules\DLL/DLL.c **** void DLL_remove(DLLObject * target){
 269              		.loc 1 97 0
 270              		.cfi_startproc
 271              		@ args = 0, pretend = 0, frame = 0
 272              		@ frame_needed = 0, uses_anonymous_args = 0
 273              		@ link register save eliminated.
 274              	.LVL28:
  98:..\common\Modules\DLL/DLL.c ****     target->prev->next = target->next;
 275              		.loc 1 98 0
 276 0000 90E80600 		ldmia	r0, {r1, r2}
 277 0004 1160     		str	r1, [r2]
  99:..\common\Modules\DLL/DLL.c ****     target->next->prev = target->prev;
 278              		.loc 1 99 0
 279 0006 0368     		ldr	r3, [r0]
 280 0008 5A60     		str	r2, [r3, #4]
 100:..\common\Modules\DLL/DLL.c ****     vPortFree(target);
 281              		.loc 1 100 0
 282 000a FFF7FEBF 		b	vPortFree
 283              	.LVL29:
 284              		.cfi_endproc
 285              	.LFE77:
 286              		.size	DLL_remove, .-DLL_remove
 287              		.section	.text.DLL_clear,"ax",%progbits
 288              		.align	1
 289              		.global	DLL_clear
 290              		.thumb
 291              		.thumb_func
 292              		.type	DLL_clear, %function
 293              	DLL_clear:
 294              	.LFB71:
  42:..\common\Modules\DLL/DLL.c ****     DLLObject * currObject = listHead->next;
ARM GAS  C:\Users\chemi\AppData\Local\Temp\cczjjlNc.s 			page 8


 295              		.loc 1 42 0
 296              		.cfi_startproc
 297              		@ args = 0, pretend = 0, frame = 0
 298              		@ frame_needed = 0, uses_anonymous_args = 0
 299              	.LVL30:
 300 0000 38B5     		push	{r3, r4, r5, lr}
 301              		.cfi_def_cfa_offset 16
 302              		.cfi_offset 3, -16
 303              		.cfi_offset 4, -12
 304              		.cfi_offset 5, -8
 305              		.cfi_offset 14, -4
  42:..\common\Modules\DLL/DLL.c ****     DLLObject * currObject = listHead->next;
 306              		.loc 1 42 0
 307 0002 0546     		mov	r5, r0
  43:..\common\Modules\DLL/DLL.c ****     while(currObject != listHead){
 308              		.loc 1 43 0
 309 0004 0468     		ldr	r4, [r0]
 310              	.LVL31:
 311              	.L22:
  44:..\common\Modules\DLL/DLL.c ****         currObject = currObject->next;
 312              		.loc 1 44 0
 313 0006 AC42     		cmp	r4, r5
 314 0008 04D0     		beq	.L24
  45:..\common\Modules\DLL/DLL.c ****         DLL_remove(currObject->prev);
 315              		.loc 1 45 0
 316 000a 2468     		ldr	r4, [r4]
 317              	.LVL32:
  46:..\common\Modules\DLL/DLL.c ****     }
 318              		.loc 1 46 0
 319 000c 6068     		ldr	r0, [r4, #4]
 320 000e FFF7FEFF 		bl	DLL_remove
 321              	.LVL33:
 322 0012 F8E7     		b	.L22
 323              	.L24:
  48:..\common\Modules\DLL/DLL.c **** 
 324              		.loc 1 48 0
 325 0014 38BD     		pop	{r3, r4, r5, pc}
 326              		.cfi_endproc
 327              	.LFE71:
 328              		.size	DLL_clear, .-DLL_clear
 329              		.section	.text.DLL_free,"ax",%progbits
 330              		.align	1
 331              		.global	DLL_free
 332              		.thumb
 333              		.thumb_func
 334              		.type	DLL_free, %function
 335              	DLL_free:
 336              	.LFB69:
  26:..\common\Modules\DLL/DLL.c ****     DLL_clear(listHead);
 337              		.loc 1 26 0
 338              		.cfi_startproc
 339              		@ args = 0, pretend = 0, frame = 0
 340              		@ frame_needed = 0, uses_anonymous_args = 0
 341              	.LVL34:
 342 0000 10B5     		push	{r4, lr}
 343              		.cfi_def_cfa_offset 8
 344              		.cfi_offset 4, -8
ARM GAS  C:\Users\chemi\AppData\Local\Temp\cczjjlNc.s 			page 9


 345              		.cfi_offset 14, -4
  26:..\common\Modules\DLL/DLL.c ****     DLL_clear(listHead);
 346              		.loc 1 26 0
 347 0002 0446     		mov	r4, r0
  27:..\common\Modules\DLL/DLL.c ****     vPortFree(listHead->data);
 348              		.loc 1 27 0
 349 0004 FFF7FEFF 		bl	DLL_clear
 350              	.LVL35:
  28:..\common\Modules\DLL/DLL.c ****     vPortFree(listHead);
 351              		.loc 1 28 0
 352 0008 E068     		ldr	r0, [r4, #12]
 353 000a FFF7FEFF 		bl	vPortFree
 354              	.LVL36:
  29:..\common\Modules\DLL/DLL.c **** }
 355              		.loc 1 29 0
 356 000e 2046     		mov	r0, r4
  30:..\common\Modules\DLL/DLL.c **** 
 357              		.loc 1 30 0
 358 0010 BDE81040 		pop	{r4, lr}
 359              		.cfi_restore 14
 360              		.cfi_restore 4
 361              		.cfi_def_cfa_offset 0
 362              	.LVL37:
  29:..\common\Modules\DLL/DLL.c **** }
 363              		.loc 1 29 0
 364 0014 FFF7FEBF 		b	vPortFree
 365              	.LVL38:
 366              		.cfi_endproc
 367              	.LFE69:
 368              		.size	DLL_free, .-DLL_free
 369              		.section	.text.DLL_removeData,"ax",%progbits
 370              		.align	1
 371              		.global	DLL_removeData
 372              		.thumb
 373              		.thumb_func
 374              		.type	DLL_removeData, %function
 375              	DLL_removeData:
 376              	.LFB76:
  92:..\common\Modules\DLL/DLL.c ****     DLLObject * target = DLL_find(dataPtr, listHead);
 377              		.loc 1 92 0
 378              		.cfi_startproc
 379              		@ args = 0, pretend = 0, frame = 0
 380              		@ frame_needed = 0, uses_anonymous_args = 0
 381              	.LVL39:
 382 0000 08B5     		push	{r3, lr}
 383              		.cfi_def_cfa_offset 8
 384              		.cfi_offset 3, -8
 385              		.cfi_offset 14, -4
  93:..\common\Modules\DLL/DLL.c ****     if(target != NULL) DLL_remove(target);
 386              		.loc 1 93 0
 387 0002 FFF7FEFF 		bl	DLL_find
 388              	.LVL40:
  94:..\common\Modules\DLL/DLL.c **** }
 389              		.loc 1 94 0
 390 0006 18B1     		cbz	r0, .L26
  95:..\common\Modules\DLL/DLL.c **** 
 391              		.loc 1 95 0 discriminator 1
ARM GAS  C:\Users\chemi\AppData\Local\Temp\cczjjlNc.s 			page 10


 392 0008 BDE80840 		pop	{r3, lr}
 393              		.cfi_remember_state
 394              		.cfi_restore 14
 395              		.cfi_restore 3
 396              		.cfi_def_cfa_offset 0
  94:..\common\Modules\DLL/DLL.c **** }
 397              		.loc 1 94 0 discriminator 1
 398 000c FFF7FEBF 		b	DLL_remove
 399              	.LVL41:
 400              	.L26:
 401              		.cfi_restore_state
 402 0010 08BD     		pop	{r3, pc}
 403              		.cfi_endproc
 404              	.LFE76:
 405              		.size	DLL_removeData, .-DLL_removeData
 406              		.section	.text.DLL_pop,"ax",%progbits
 407              		.align	1
 408              		.global	DLL_pop
 409              		.thumb
 410              		.thumb_func
 411              		.type	DLL_pop, %function
 412              	DLL_pop:
 413              	.LFB78:
 101:..\common\Modules\DLL/DLL.c **** }
 102:..\common\Modules\DLL/DLL.c **** 
 103:..\common\Modules\DLL/DLL.c **** void* DLL_pop(DLLObject * listHead){
 414              		.loc 1 103 0
 415              		.cfi_startproc
 416              		@ args = 0, pretend = 0, frame = 0
 417              		@ frame_needed = 0, uses_anonymous_args = 0
 418              	.LVL42:
 104:..\common\Modules\DLL/DLL.c ****     if(listHead->next == listHead){
 419              		.loc 1 104 0
 420 0000 0368     		ldr	r3, [r0]
 103:..\common\Modules\DLL/DLL.c ****     if(listHead->next == listHead){
 421              		.loc 1 103 0
 422 0002 10B5     		push	{r4, lr}
 423              		.cfi_def_cfa_offset 8
 424              		.cfi_offset 4, -8
 425              		.cfi_offset 14, -4
 426              		.loc 1 104 0
 427 0004 9842     		cmp	r0, r3
 428 0006 05D0     		beq	.L30
 105:..\common\Modules\DLL/DLL.c ****         return NULL;
 106:..\common\Modules\DLL/DLL.c ****     }
 107:..\common\Modules\DLL/DLL.c ****     void* ret = listHead->next->data;
 429              		.loc 1 107 0
 430 0008 DC68     		ldr	r4, [r3, #12]
 431              	.LVL43:
 108:..\common\Modules\DLL/DLL.c ****     DLL_remove(listHead->next);
 432              		.loc 1 108 0
 433 000a 1846     		mov	r0, r3
 434              	.LVL44:
 435 000c FFF7FEFF 		bl	DLL_remove
 436              	.LVL45:
 109:..\common\Modules\DLL/DLL.c ****     return ret;
 437              		.loc 1 109 0
ARM GAS  C:\Users\chemi\AppData\Local\Temp\cczjjlNc.s 			page 11


 438 0010 2046     		mov	r0, r4
 439 0012 10BD     		pop	{r4, pc}
 440              	.LVL46:
 441              	.L30:
 105:..\common\Modules\DLL/DLL.c ****         return NULL;
 442              		.loc 1 105 0
 443 0014 0020     		movs	r0, #0
 444              	.LVL47:
 110:..\common\Modules\DLL/DLL.c **** }
 445              		.loc 1 110 0
 446 0016 10BD     		pop	{r4, pc}
 447              		.cfi_endproc
 448              	.LFE78:
 449              		.size	DLL_pop, .-DLL_pop
 450              		.section	.text.DLL_moveToEnd,"ax",%progbits
 451              		.align	1
 452              		.global	DLL_moveToEnd
 453              		.thumb
 454              		.thumb_func
 455              		.type	DLL_moveToEnd, %function
 456              	DLL_moveToEnd:
 457              	.LFB79:
 111:..\common\Modules\DLL/DLL.c **** 
 112:..\common\Modules\DLL/DLL.c **** void DLL_moveToEnd(DLLObject * currObject, DLLObject * listHead){
 458              		.loc 1 112 0
 459              		.cfi_startproc
 460              		@ args = 0, pretend = 0, frame = 0
 461              		@ frame_needed = 0, uses_anonymous_args = 0
 462              		@ link register save eliminated.
 463              	.LVL48:
 113:..\common\Modules\DLL/DLL.c ****     currObject->prev->next = currObject->next;
 464              		.loc 1 113 0
 465 0000 90E80C00 		ldmia	r0, {r2, r3}
 466 0004 1A60     		str	r2, [r3]
 114:..\common\Modules\DLL/DLL.c ****     currObject->next->prev = currObject->prev;
 467              		.loc 1 114 0
 468 0006 0268     		ldr	r2, [r0]
 469 0008 5360     		str	r3, [r2, #4]
 115:..\common\Modules\DLL/DLL.c ****     
 116:..\common\Modules\DLL/DLL.c ****     listHead->prev->next = currObject;
 470              		.loc 1 116 0
 471 000a 4B68     		ldr	r3, [r1, #4]
 472 000c 1860     		str	r0, [r3]
 117:..\common\Modules\DLL/DLL.c ****     currObject->prev = listHead->prev;
 473              		.loc 1 117 0
 474 000e 4360     		str	r3, [r0, #4]
 118:..\common\Modules\DLL/DLL.c ****     listHead->prev = currObject;
 475              		.loc 1 118 0
 476 0010 4860     		str	r0, [r1, #4]
 119:..\common\Modules\DLL/DLL.c ****     currObject->next = listHead;
 477              		.loc 1 119 0
 478 0012 0160     		str	r1, [r0]
 479 0014 7047     		bx	lr
 480              		.cfi_endproc
 481              	.LFE79:
 482              		.size	DLL_moveToEnd, .-DLL_moveToEnd
 483              		.text
ARM GAS  C:\Users\chemi\AppData\Local\Temp\cczjjlNc.s 			page 12


 484              	.Letext0:
 485              		.file 2 "c:\\program files (x86)\\cypress\\psoc creator\\4.4\\psoc creator\\import\\gnu\\arm\\5.4.
 486              		.file 3 "c:\\program files (x86)\\cypress\\psoc creator\\4.4\\psoc creator\\import\\gnu\\arm\\5.4.
 487              		.file 4 "..\\common\\Modules\\DLL\\include/DLL.h"
 488              		.file 5 "..\\common\\rtos\\include/portable.h"
 489              		.file 6 "Generated_Source\\PSoC5/core_cm3.h"