ARM GAS  C:\Users\chemi\AppData\Local\Temp\cco4J00m.s 			page 1


   1              		.syntax unified
   2              		.cpu cortex-m3
   3              		.fpu softvfp
   4              		.eabi_attribute 20, 1
   5              		.eabi_attribute 21, 1
   6              		.eabi_attribute 23, 3
   7              		.eabi_attribute 24, 1
   8              		.eabi_attribute 25, 1
   9              		.eabi_attribute 26, 1
  10              		.eabi_attribute 30, 4
  11              		.eabi_attribute 34, 1
  12              		.eabi_attribute 18, 4
  13              		.thumb
  14              		.syntax unified
  15              		.file	"DMA.c"
  16              		.text
  17              	.Ltext0:
  18              		.cfi_sections	.debug_frame
  19              		.section	.text.initialize_DMA,"ax",%progbits
  20              		.align	1
  21              		.global	initialize_DMA
  22              		.thumb
  23              		.thumb_func
  24              		.type	initialize_DMA, %function
  25              	initialize_DMA:
  26              	.LFB63:
  27              		.file 1 "..\\common\\ud3core\\DMA.c"
   1:..\common\ud3core/DMA.c **** /*
   2:..\common\ud3core/DMA.c ****  * UD3
   3:..\common\ud3core/DMA.c ****  *
   4:..\common\ud3core/DMA.c ****  * Copyright (c) 2018 Jens Kerrinnes
   5:..\common\ud3core/DMA.c ****  * Copyright (c) 2015 Steve Ward
   6:..\common\ud3core/DMA.c ****  *
   7:..\common\ud3core/DMA.c ****  * Permission is hereby granted, free of charge, to any person obtaining a copy of
   8:..\common\ud3core/DMA.c ****  * this software and associated documentation files (the "Software"), to deal in
   9:..\common\ud3core/DMA.c ****  * the Software without restriction, including without limitation the rights to
  10:..\common\ud3core/DMA.c ****  * use, copy, modify, merge, publish, distribute, sublicense, and/or sell copies of
  11:..\common\ud3core/DMA.c ****  * the Software, and to permit persons to whom the Software is furnished to do so,
  12:..\common\ud3core/DMA.c ****  * subject to the following conditions:
  13:..\common\ud3core/DMA.c ****  *
  14:..\common\ud3core/DMA.c ****  * The above copyright notice and this permission notice shall be included in all
  15:..\common\ud3core/DMA.c ****  * copies or substantial portions of the Software.
  16:..\common\ud3core/DMA.c ****  *
  17:..\common\ud3core/DMA.c ****  * THE SOFTWARE IS PROVIDED "AS IS", WITHOUT WARRANTY OF ANY KIND, EXPRESS OR
  18:..\common\ud3core/DMA.c ****  * IMPLIED, INCLUDING BUT NOT LIMITED TO THE WARRANTIES OF MERCHANTABILITY, FITNESS
  19:..\common\ud3core/DMA.c ****  * FOR A PARTICULAR PURPOSE AND NONINFRINGEMENT. IN NO EVENT SHALL THE AUTHORS OR
  20:..\common\ud3core/DMA.c ****  * COPYRIGHT HOLDERS BE LIABLE FOR ANY CLAIM, DAMAGES OR OTHER LIABILITY, WHETHER
  21:..\common\ud3core/DMA.c ****  * IN AN ACTION OF CONTRACT, TORT OR OTHERWISE, ARISING FROM, OUT OF OR IN
  22:..\common\ud3core/DMA.c ****  * CONNECTION WITH THE SOFTWARE OR THE USE OR OTHER DEALINGS IN THE SOFTWARE.
  23:..\common\ud3core/DMA.c **** */
  24:..\common\ud3core/DMA.c **** 
  25:..\common\ud3core/DMA.c **** #include "DMA.h"
  26:..\common\ud3core/DMA.c **** #include "ZCDtoPWM.h"
  27:..\common\ud3core/DMA.c **** #include <device.h>
  28:..\common\ud3core/DMA.c **** 
  29:..\common\ud3core/DMA.c **** void initialize_DMA(void) {
  28              		.loc 1 29 0
ARM GAS  C:\Users\chemi\AppData\Local\Temp\cco4J00m.s 			page 2


  29              		.cfi_startproc
  30              		@ args = 0, pretend = 0, frame = 0
  31              		@ frame_needed = 0, uses_anonymous_args = 0
  32 0000 2DE9F843 		push	{r3, r4, r5, r6, r7, r8, r9, lr}
  33              		.cfi_def_cfa_offset 32
  34              		.cfi_offset 3, -32
  35              		.cfi_offset 4, -28
  36              		.cfi_offset 5, -24
  37              		.cfi_offset 6, -20
  38              		.cfi_offset 7, -16
  39              		.cfi_offset 8, -12
  40              		.cfi_offset 9, -8
  41              		.cfi_offset 14, -4
  30:..\common\ud3core/DMA.c **** 	/* Variable declarations for FBC_to_ram_DMA */
  31:..\common\ud3core/DMA.c **** 	/* Move these variable declarations to the top of the function */
  32:..\common\ud3core/DMA.c **** 	uint8 FBC_to_ram_DMA_Chan;
  33:..\common\ud3core/DMA.c **** 	uint8 FBC_to_ram_DMA_TD[1];
  34:..\common\ud3core/DMA.c **** 	FBC_to_ram_DMA_Chan = FBC_to_ram_DMA_DmaInitialize(FBC_to_ram_DMA_BYTES_PER_BURST, FBC_to_ram_DMA_
  42              		.loc 1 34 0
  43 0004 4FF48042 		mov	r2, #16384
  44 0008 41F6FF73 		movw	r3, #8191
  45 000c 0121     		movs	r1, #1
  46 000e 0220     		movs	r0, #2
  47 0010 FFF7FEFF 		bl	FBC_to_ram_DMA_DmaInitialize
  48              	.LVL0:
  49 0014 0646     		mov	r6, r0
  50              	.LVL1:
  35:..\common\ud3core/DMA.c **** 													   HI16(FBC_to_ram_DMA_SRC_BASE), HI16(FBC_to_ram_DMA_DST_BASE));
  36:..\common\ud3core/DMA.c **** 	FBC_to_ram_DMA_TD[0] = CyDmaTdAllocate();
  51              		.loc 1 36 0
  52 0016 FFF7FEFF 		bl	CyDmaTdAllocate
  53              	.LVL2:
  54 001a 0546     		mov	r5, r0
  55              	.LVL3:
  37:..\common\ud3core/DMA.c **** 	CyDmaTdSetConfiguration(FBC_to_ram_DMA_TD[0], 2, FBC_to_ram_DMA_TD[0], FBC_to_ram_DMA__TD_TERMOUT_
  38:..\common\ud3core/DMA.c **** 	CyDmaTdSetAddress(FBC_to_ram_DMA_TD[0], LO16((uint32)FB_capture_CAPTURE_LSB_PTR), LO16((uint32)&fb
  56              		.loc 1 38 0
  57 001c BD4C     		ldr	r4, .L2
  37:..\common\ud3core/DMA.c **** 	CyDmaTdSetConfiguration(FBC_to_ram_DMA_TD[0], 2, FBC_to_ram_DMA_TD[0], FBC_to_ram_DMA__TD_TERMOUT_
  58              		.loc 1 37 0
  59 001e 0423     		movs	r3, #4
  60              		.loc 1 38 0
  61 0020 A4B2     		uxth	r4, r4
  37:..\common\ud3core/DMA.c **** 	CyDmaTdSetConfiguration(FBC_to_ram_DMA_TD[0], 2, FBC_to_ram_DMA_TD[0], FBC_to_ram_DMA__TD_TERMOUT_
  62              		.loc 1 37 0
  63 0022 0246     		mov	r2, r0
  64 0024 0221     		movs	r1, #2
  65 0026 FFF7FEFF 		bl	CyDmaTdSetConfiguration
  66              	.LVL4:
  67              		.loc 1 38 0
  68 002a 2246     		mov	r2, r4
  69 002c 44F60871 		movw	r1, #20232
  70 0030 2846     		mov	r0, r5
  71 0032 FFF7FEFF 		bl	CyDmaTdSetAddress
  72              	.LVL5:
  39:..\common\ud3core/DMA.c **** 	CyDmaChSetInitialTd(FBC_to_ram_DMA_Chan, FBC_to_ram_DMA_TD[0]);
  73              		.loc 1 39 0
ARM GAS  C:\Users\chemi\AppData\Local\Temp\cco4J00m.s 			page 3


  74 0036 2946     		mov	r1, r5
  75 0038 3046     		mov	r0, r6
  76 003a FFF7FEFF 		bl	CyDmaChSetInitialTd
  77              	.LVL6:
  40:..\common\ud3core/DMA.c **** 	CyDmaChEnable(FBC_to_ram_DMA_Chan, 1);
  78              		.loc 1 40 0
  79 003e 0121     		movs	r1, #1
  80 0040 3046     		mov	r0, r6
  81 0042 FFF7FEFF 		bl	CyDmaChEnable
  82              	.LVL7:
  41:..\common\ud3core/DMA.c **** 
  42:..\common\ud3core/DMA.c **** 	/* Variable declarations for ram_to_filter_DMA */
  43:..\common\ud3core/DMA.c **** 	/* Move these variable declarations to the top of the function */
  44:..\common\ud3core/DMA.c **** 	uint8 ram_to_filter_DMA_Chan;
  45:..\common\ud3core/DMA.c **** 	uint8 ram_to_filter_DMA_TD[1];
  46:..\common\ud3core/DMA.c **** 	ram_to_filter_DMA_Chan = ram_to_filter_DMA_DmaInitialize(ram_to_filter_DMA_BYTES_PER_BURST, ram_to
  83              		.loc 1 46 0
  84 0046 4FF48043 		mov	r3, #16384
  85 004a 41F6FF72 		movw	r2, #8191
  86 004e 0121     		movs	r1, #1
  87 0050 0220     		movs	r0, #2
  88 0052 FFF7FEFF 		bl	ram_to_filter_DMA_DmaInitialize
  89              	.LVL8:
  90 0056 0646     		mov	r6, r0
  91              	.LVL9:
  47:..\common\ud3core/DMA.c **** 															 HI16(ram_to_filter_DMA_SRC_BASE), HI16(ram_to_filter_DMA_DST_BASE));
  48:..\common\ud3core/DMA.c **** 	ram_to_filter_DMA_TD[0] = CyDmaTdAllocate();
  92              		.loc 1 48 0
  93 0058 FFF7FEFF 		bl	CyDmaTdAllocate
  94              	.LVL10:
  95 005c 0546     		mov	r5, r0
  96              	.LVL11:
  49:..\common\ud3core/DMA.c **** 	CyDmaTdSetConfiguration(ram_to_filter_DMA_TD[0], 2, ram_to_filter_DMA_TD[0], ram_to_filter_DMA__TD
  97              		.loc 1 49 0
  98 005e 0023     		movs	r3, #0
  99 0060 0246     		mov	r2, r0
 100 0062 0221     		movs	r1, #2
 101 0064 FFF7FEFF 		bl	CyDmaTdSetConfiguration
 102              	.LVL12:
  50:..\common\ud3core/DMA.c **** 	CyDmaTdSetAddress(ram_to_filter_DMA_TD[0], LO16((uint32)&fb_filter_in), LO16((uint32)FB_Filter_STA
 103              		.loc 1 50 0
 104 0068 4CF2A072 		movw	r2, #51104
 105 006c 2146     		mov	r1, r4
 106 006e 2846     		mov	r0, r5
 107 0070 FFF7FEFF 		bl	CyDmaTdSetAddress
 108              	.LVL13:
  51:..\common\ud3core/DMA.c **** 	CyDmaChSetInitialTd(ram_to_filter_DMA_Chan, ram_to_filter_DMA_TD[0]);
 109              		.loc 1 51 0
 110 0074 2946     		mov	r1, r5
 111 0076 3046     		mov	r0, r6
 112 0078 FFF7FEFF 		bl	CyDmaChSetInitialTd
 113              	.LVL14:
  52:..\common\ud3core/DMA.c **** 	CyDmaChEnable(ram_to_filter_DMA_Chan, 1);
 114              		.loc 1 52 0
 115 007c 0121     		movs	r1, #1
 116 007e 3046     		mov	r0, r6
 117 0080 FFF7FEFF 		bl	CyDmaChEnable
ARM GAS  C:\Users\chemi\AppData\Local\Temp\cco4J00m.s 			page 4


 118              	.LVL15:
  53:..\common\ud3core/DMA.c **** 
  54:..\common\ud3core/DMA.c **** 	/* Variable declarations for filter_to_fram_DMA */
  55:..\common\ud3core/DMA.c **** 	/* Move these variable declarations to the top of the function */
  56:..\common\ud3core/DMA.c **** 	uint8 filter_to_fram_DMA_Chan;
  57:..\common\ud3core/DMA.c **** 	uint8 filter_to_fram_DMA_TD[1];
  58:..\common\ud3core/DMA.c **** 	filter_to_fram_DMA_Chan = filter_to_fram_DMA_DmaInitialize(filter_to_fram_DMA_BYTES_PER_BURST, fil
 119              		.loc 1 58 0
 120 0084 41F6FF73 		movw	r3, #8191
 121 0088 4FF48042 		mov	r2, #16384
 122 008c 0121     		movs	r1, #1
 123 008e 0220     		movs	r0, #2
 124 0090 FFF7FEFF 		bl	filter_to_fram_DMA_DmaInitialize
 125              	.LVL16:
 126 0094 0646     		mov	r6, r0
 127              	.LVL17:
  59:..\common\ud3core/DMA.c **** 															   HI16(filter_to_fram_DMA_SRC_BASE), HI16(filter_to_fram_DMA_DST_BASE));
  60:..\common\ud3core/DMA.c **** 	filter_to_fram_DMA_TD[0] = CyDmaTdAllocate();
 128              		.loc 1 60 0
 129 0096 FFF7FEFF 		bl	CyDmaTdAllocate
 130              	.LVL18:
 131 009a 0546     		mov	r5, r0
 132              	.LVL19:
  61:..\common\ud3core/DMA.c **** 	CyDmaTdSetConfiguration(filter_to_fram_DMA_TD[0], 2, filter_to_fram_DMA_TD[0], filter_to_fram_DMA_
  62:..\common\ud3core/DMA.c **** 	CyDmaTdSetAddress(filter_to_fram_DMA_TD[0], LO16((uint32)FB_Filter_HOLDA_PTR), LO16((uint32)&fb_fi
 133              		.loc 1 62 0
 134 009c 9E4C     		ldr	r4, .L2+4
  61:..\common\ud3core/DMA.c **** 	CyDmaTdSetConfiguration(filter_to_fram_DMA_TD[0], 2, filter_to_fram_DMA_TD[0], filter_to_fram_DMA_
 135              		.loc 1 61 0
 136 009e 0023     		movs	r3, #0
 137              		.loc 1 62 0
 138 00a0 A4B2     		uxth	r4, r4
  61:..\common\ud3core/DMA.c **** 	CyDmaTdSetConfiguration(filter_to_fram_DMA_TD[0], 2, filter_to_fram_DMA_TD[0], filter_to_fram_DMA_
 139              		.loc 1 61 0
 140 00a2 0246     		mov	r2, r0
 141 00a4 0221     		movs	r1, #2
 142 00a6 FFF7FEFF 		bl	CyDmaTdSetConfiguration
 143              	.LVL20:
 144              		.loc 1 62 0
 145 00aa 2246     		mov	r2, r4
 146 00ac 4CF2A871 		movw	r1, #51112
 147 00b0 2846     		mov	r0, r5
 148 00b2 FFF7FEFF 		bl	CyDmaTdSetAddress
 149              	.LVL21:
  63:..\common\ud3core/DMA.c **** 	CyDmaChSetInitialTd(filter_to_fram_DMA_Chan, filter_to_fram_DMA_TD[0]);
 150              		.loc 1 63 0
 151 00b6 2946     		mov	r1, r5
 152 00b8 3046     		mov	r0, r6
 153 00ba FFF7FEFF 		bl	CyDmaChSetInitialTd
 154              	.LVL22:
  64:..\common\ud3core/DMA.c **** 	CyDmaChEnable(filter_to_fram_DMA_Chan, 1);
 155              		.loc 1 64 0
 156 00be 0121     		movs	r1, #1
 157 00c0 3046     		mov	r0, r6
 158 00c2 FFF7FEFF 		bl	CyDmaChEnable
 159              	.LVL23:
  65:..\common\ud3core/DMA.c **** 
ARM GAS  C:\Users\chemi\AppData\Local\Temp\cco4J00m.s 			page 5


  66:..\common\ud3core/DMA.c **** 	/* Variable declarations for fram_to_PWMA_DMA */
  67:..\common\ud3core/DMA.c **** 	/* Move these variable declarations to the top of the function */
  68:..\common\ud3core/DMA.c **** 	uint8 fram_to_PWMA_DMA_Chan;
  69:..\common\ud3core/DMA.c **** 	uint8 fram_to_PWMA_DMA_TD[1];
  70:..\common\ud3core/DMA.c **** 	fram_to_PWMA_DMA_Chan = fram_to_PWMA_DMA_DmaInitialize(fram_to_PWMA_DMA_BYTES_PER_BURST, fram_to_P
 160              		.loc 1 70 0
 161 00c6 4FF48043 		mov	r3, #16384
 162 00ca 41F6FF72 		movw	r2, #8191
 163 00ce 0121     		movs	r1, #1
 164 00d0 0220     		movs	r0, #2
 165 00d2 FFF7FEFF 		bl	fram_to_PWMA_DMA_DmaInitialize
 166              	.LVL24:
 167 00d6 0646     		mov	r6, r0
 168              	.LVL25:
  71:..\common\ud3core/DMA.c **** 														   HI16(fram_to_PWMA_DMA_SRC_BASE), HI16(fram_to_PWMA_DMA_DST_BASE));
  72:..\common\ud3core/DMA.c **** 	fram_to_PWMA_DMA_TD[0] = CyDmaTdAllocate();
 169              		.loc 1 72 0
 170 00d8 FFF7FEFF 		bl	CyDmaTdAllocate
 171              	.LVL26:
 172 00dc 0546     		mov	r5, r0
 173              	.LVL27:
  73:..\common\ud3core/DMA.c **** 	CyDmaTdSetConfiguration(fram_to_PWMA_DMA_TD[0], 2, fram_to_PWMA_DMA_TD[0], fram_to_PWMA_DMA__TD_TE
 174              		.loc 1 73 0
 175 00de 0023     		movs	r3, #0
 176 00e0 0246     		mov	r2, r0
 177 00e2 0221     		movs	r1, #2
 178 00e4 FFF7FEFF 		bl	CyDmaTdSetConfiguration
 179              	.LVL28:
  74:..\common\ud3core/DMA.c **** 	CyDmaTdSetAddress(fram_to_PWMA_DMA_TD[0], LO16((uint32)&fb_filter_out), LO16((uint32)PWMA_COMPARE1
 180              		.loc 1 74 0
 181 00e8 44F61272 		movw	r2, #20242
 182 00ec 2146     		mov	r1, r4
 183 00ee 2846     		mov	r0, r5
 184 00f0 FFF7FEFF 		bl	CyDmaTdSetAddress
 185              	.LVL29:
  75:..\common\ud3core/DMA.c **** 	CyDmaChSetInitialTd(fram_to_PWMA_DMA_Chan, fram_to_PWMA_DMA_TD[0]);
 186              		.loc 1 75 0
 187 00f4 2946     		mov	r1, r5
 188 00f6 3046     		mov	r0, r6
 189 00f8 FFF7FEFF 		bl	CyDmaChSetInitialTd
 190              	.LVL30:
  76:..\common\ud3core/DMA.c **** 	CyDmaChEnable(fram_to_PWMA_DMA_Chan, 1);
 191              		.loc 1 76 0
 192 00fc 0121     		movs	r1, #1
 193 00fe 3046     		mov	r0, r6
 194 0100 FFF7FEFF 		bl	CyDmaChEnable
 195              	.LVL31:
  77:..\common\ud3core/DMA.c **** 
  78:..\common\ud3core/DMA.c **** 	/* Variable declarations for PWMA_init_DMA */
  79:..\common\ud3core/DMA.c **** 	/* Move these variable declarations to the top of the function */
  80:..\common\ud3core/DMA.c **** 	uint8 PWMA_init_DMA_Chan;
  81:..\common\ud3core/DMA.c **** 	uint8 PWMA_init_DMA_TD[4];
  82:..\common\ud3core/DMA.c **** 	PWMA_init_DMA_Chan = PWMA_init_DMA_DmaInitialize(PWMA_init_DMA_BYTES_PER_BURST, PWMA_init_DMA_REQU
 196              		.loc 1 82 0
 197 0104 4FF48043 		mov	r3, #16384
 198 0108 41F6FF72 		movw	r2, #8191
 199 010c 0121     		movs	r1, #1
ARM GAS  C:\Users\chemi\AppData\Local\Temp\cco4J00m.s 			page 6


 200 010e 0820     		movs	r0, #8
 201 0110 FFF7FEFF 		bl	PWMA_init_DMA_DmaInitialize
 202              	.LVL32:
 203 0114 8146     		mov	r9, r0
 204              	.LVL33:
  83:..\common\ud3core/DMA.c **** 													 HI16(PWMA_init_DMA_SRC_BASE), HI16(PWMA_init_DMA_DST_BASE));
  84:..\common\ud3core/DMA.c **** 	PWMA_init_DMA_TD[0] = CyDmaTdAllocate();
 205              		.loc 1 84 0
 206 0116 FFF7FEFF 		bl	CyDmaTdAllocate
 207              	.LVL34:
 208 011a 0546     		mov	r5, r0
 209              	.LVL35:
  85:..\common\ud3core/DMA.c **** 	PWMA_init_DMA_TD[1] = CyDmaTdAllocate();
 210              		.loc 1 85 0
 211 011c FFF7FEFF 		bl	CyDmaTdAllocate
 212              	.LVL36:
 213 0120 8046     		mov	r8, r0
 214              	.LVL37:
  86:..\common\ud3core/DMA.c **** 	PWMA_init_DMA_TD[2] = CyDmaTdAllocate();
 215              		.loc 1 86 0
 216 0122 FFF7FEFF 		bl	CyDmaTdAllocate
 217              	.LVL38:
 218 0126 0746     		mov	r7, r0
 219              	.LVL39:
  87:..\common\ud3core/DMA.c **** 	PWMA_init_DMA_TD[3] = CyDmaTdAllocate();
 220              		.loc 1 87 0
 221 0128 FFF7FEFF 		bl	CyDmaTdAllocate
 222              	.LVL40:
 223 012c 0646     		mov	r6, r0
 224              	.LVL41:
  88:..\common\ud3core/DMA.c **** 	CyDmaTdSetConfiguration(PWMA_init_DMA_TD[0], 2, PWMA_init_DMA_TD[1], TD_AUTO_EXEC_NEXT);
 225              		.loc 1 88 0
 226 012e 4246     		mov	r2, r8
 227 0130 2023     		movs	r3, #32
 228 0132 0221     		movs	r1, #2
 229 0134 2846     		mov	r0, r5
 230 0136 FFF7FEFF 		bl	CyDmaTdSetConfiguration
 231              	.LVL42:
  89:..\common\ud3core/DMA.c **** 	CyDmaTdSetConfiguration(PWMA_init_DMA_TD[1], 2, PWMA_init_DMA_TD[2], TD_AUTO_EXEC_NEXT);
 232              		.loc 1 89 0
 233 013a 3A46     		mov	r2, r7
 234 013c 2023     		movs	r3, #32
 235 013e 0221     		movs	r1, #2
 236 0140 4046     		mov	r0, r8
 237 0142 FFF7FEFF 		bl	CyDmaTdSetConfiguration
 238              	.LVL43:
  90:..\common\ud3core/DMA.c **** 	CyDmaTdSetConfiguration(PWMA_init_DMA_TD[2], 2, PWMA_init_DMA_TD[3], TD_AUTO_EXEC_NEXT);
  91:..\common\ud3core/DMA.c **** 	CyDmaTdSetConfiguration(PWMA_init_DMA_TD[3], 2, PWMA_init_DMA_TD[0], PWMA_init_DMA__TD_TERMOUT_EN)
  92:..\common\ud3core/DMA.c **** 	CyDmaTdSetAddress(PWMA_init_DMA_TD[0], LO16((uint32)&params.pwma_start_prd), LO16((uint32)PWMA_PER
 239              		.loc 1 92 0
 240 0146 754C     		ldr	r4, .L2+8
  90:..\common\ud3core/DMA.c **** 	CyDmaTdSetConfiguration(PWMA_init_DMA_TD[2], 2, PWMA_init_DMA_TD[3], TD_AUTO_EXEC_NEXT);
 241              		.loc 1 90 0
 242 0148 3246     		mov	r2, r6
 243 014a 2023     		movs	r3, #32
 244 014c 0221     		movs	r1, #2
 245 014e 3846     		mov	r0, r7
ARM GAS  C:\Users\chemi\AppData\Local\Temp\cco4J00m.s 			page 7


 246 0150 FFF7FEFF 		bl	CyDmaTdSetConfiguration
 247              	.LVL44:
  91:..\common\ud3core/DMA.c **** 	CyDmaTdSetAddress(PWMA_init_DMA_TD[0], LO16((uint32)&params.pwma_start_prd), LO16((uint32)PWMA_PER
 248              		.loc 1 91 0
 249 0154 0023     		movs	r3, #0
 250 0156 2A46     		mov	r2, r5
 251 0158 0221     		movs	r1, #2
 252 015a 3046     		mov	r0, r6
 253 015c FFF7FEFF 		bl	CyDmaTdSetConfiguration
 254              	.LVL45:
 255              		.loc 1 92 0
 256 0160 A1B2     		uxth	r1, r4
 257 0162 44F61072 		movw	r2, #20240
 258 0166 2846     		mov	r0, r5
 259 0168 FFF7FEFF 		bl	CyDmaTdSetAddress
 260              	.LVL46:
  93:..\common\ud3core/DMA.c **** 	CyDmaTdSetAddress(PWMA_init_DMA_TD[1], LO16((uint32)&params.pwma_start_cmp), LO16((uint32)PWMA_COM
 261              		.loc 1 93 0
 262 016c A11C     		adds	r1, r4, #2
 263 016e 44F61272 		movw	r2, #20242
 264 0172 89B2     		uxth	r1, r1
 265 0174 4046     		mov	r0, r8
 266 0176 FFF7FEFF 		bl	CyDmaTdSetAddress
 267              	.LVL47:
  94:..\common\ud3core/DMA.c **** 	CyDmaTdSetAddress(PWMA_init_DMA_TD[2], LO16((uint32)&params.pwmb_start_prd), LO16((uint32)PWMB_PER
 268              		.loc 1 94 0
 269 017a 211D     		adds	r1, r4, #4
 270 017c 44F61C72 		movw	r2, #20252
 271 0180 89B2     		uxth	r1, r1
 272 0182 3846     		mov	r0, r7
 273 0184 FFF7FEFF 		bl	CyDmaTdSetAddress
 274              	.LVL48:
  95:..\common\ud3core/DMA.c **** 	CyDmaTdSetAddress(PWMA_init_DMA_TD[3], LO16((uint32)&params.pwmb_start_cmp), LO16((uint32)PWMB_COM
 275              		.loc 1 95 0
 276 0188 A11D     		adds	r1, r4, #6
 277 018a 44F61E72 		movw	r2, #20254
 278 018e 89B2     		uxth	r1, r1
 279 0190 3046     		mov	r0, r6
 280 0192 FFF7FEFF 		bl	CyDmaTdSetAddress
 281              	.LVL49:
  96:..\common\ud3core/DMA.c **** 	CyDmaChSetInitialTd(PWMA_init_DMA_Chan, PWMA_init_DMA_TD[0]);
 282              		.loc 1 96 0
 283 0196 2946     		mov	r1, r5
 284 0198 4846     		mov	r0, r9
 285 019a FFF7FEFF 		bl	CyDmaChSetInitialTd
 286              	.LVL50:
  97:..\common\ud3core/DMA.c **** 	CyDmaChEnable(PWMA_init_DMA_Chan, 1);
 287              		.loc 1 97 0
 288 019e 0121     		movs	r1, #1
 289 01a0 4846     		mov	r0, r9
 290 01a2 FFF7FEFF 		bl	CyDmaChEnable
 291              	.LVL51:
  98:..\common\ud3core/DMA.c **** 
  99:..\common\ud3core/DMA.c **** 	/* Variable declarations for PSBINIT_DMA */
 100:..\common\ud3core/DMA.c **** 	/* Move these variable declarations to the top of the function */
 101:..\common\ud3core/DMA.c **** 	uint8 PSBINIT_DMA_Chan;
 102:..\common\ud3core/DMA.c **** 	uint8 PSBINIT_DMA_TD[2];
ARM GAS  C:\Users\chemi\AppData\Local\Temp\cco4J00m.s 			page 8


 103:..\common\ud3core/DMA.c **** 	PSBINIT_DMA_Chan = PSBINIT_DMA_DmaInitialize(PSBINIT_DMA_BYTES_PER_BURST, PSBINIT_DMA_REQUEST_PER_
 292              		.loc 1 103 0
 293 01a6 4FF48043 		mov	r3, #16384
 294 01aa 41F6FF72 		movw	r2, #8191
 295 01ae 0121     		movs	r1, #1
 296 01b0 0420     		movs	r0, #4
 297 01b2 FFF7FEFF 		bl	PSBINIT_DMA_DmaInitialize
 298              	.LVL52:
 299 01b6 0746     		mov	r7, r0
 300              	.LVL53:
 104:..\common\ud3core/DMA.c **** 												 HI16(PSBINIT_DMA_SRC_BASE), HI16(PSBINIT_DMA_DST_BASE));
 105:..\common\ud3core/DMA.c **** 	PSBINIT_DMA_TD[0] = CyDmaTdAllocate();
 301              		.loc 1 105 0
 302 01b8 FFF7FEFF 		bl	CyDmaTdAllocate
 303              	.LVL54:
 304 01bc 0546     		mov	r5, r0
 305              	.LVL55:
 106:..\common\ud3core/DMA.c **** 	PSBINIT_DMA_TD[1] = CyDmaTdAllocate();
 306              		.loc 1 106 0
 307 01be FFF7FEFF 		bl	CyDmaTdAllocate
 308              	.LVL56:
 309 01c2 0646     		mov	r6, r0
 310              	.LVL57:
 107:..\common\ud3core/DMA.c **** 	CyDmaTdSetConfiguration(PSBINIT_DMA_TD[0], 2, PSBINIT_DMA_TD[1], TD_AUTO_EXEC_NEXT);
 311              		.loc 1 107 0
 312 01c4 0246     		mov	r2, r0
 313 01c6 2023     		movs	r3, #32
 314 01c8 0221     		movs	r1, #2
 315 01ca 2846     		mov	r0, r5
 316              	.LVL58:
 317 01cc FFF7FEFF 		bl	CyDmaTdSetConfiguration
 318              	.LVL59:
 108:..\common\ud3core/DMA.c **** 	CyDmaTdSetConfiguration(PSBINIT_DMA_TD[1], 2, PSBINIT_DMA_TD[0], PSBINIT_DMA__TD_TERMOUT_EN);
 319              		.loc 1 108 0
 320 01d0 0023     		movs	r3, #0
 321 01d2 2A46     		mov	r2, r5
 322 01d4 0221     		movs	r1, #2
 323 01d6 3046     		mov	r0, r6
 324 01d8 FFF7FEFF 		bl	CyDmaTdSetConfiguration
 325              	.LVL60:
 109:..\common\ud3core/DMA.c **** 	CyDmaTdSetAddress(PSBINIT_DMA_TD[0], LO16((uint32)&params.pwm_top), LO16((uint32)PWMB_PERIOD_LSB_P
 326              		.loc 1 109 0
 327 01dc 04F10801 		add	r1, r4, #8
 110:..\common\ud3core/DMA.c **** 	CyDmaTdSetAddress(PSBINIT_DMA_TD[1], LO16((uint32)&params.pwmb_psb_val), LO16((uint32)PWMB_COMPARE
 328              		.loc 1 110 0
 329 01e0 0C34     		adds	r4, r4, #12
 330 01e2 A4B2     		uxth	r4, r4
 109:..\common\ud3core/DMA.c **** 	CyDmaTdSetAddress(PSBINIT_DMA_TD[0], LO16((uint32)&params.pwm_top), LO16((uint32)PWMB_PERIOD_LSB_P
 331              		.loc 1 109 0
 332 01e4 44F61C72 		movw	r2, #20252
 333 01e8 89B2     		uxth	r1, r1
 334 01ea 2846     		mov	r0, r5
 335 01ec FFF7FEFF 		bl	CyDmaTdSetAddress
 336              	.LVL61:
 337              		.loc 1 110 0
 338 01f0 44F61E72 		movw	r2, #20254
 339 01f4 2146     		mov	r1, r4
ARM GAS  C:\Users\chemi\AppData\Local\Temp\cco4J00m.s 			page 9


 340 01f6 3046     		mov	r0, r6
 341 01f8 FFF7FEFF 		bl	CyDmaTdSetAddress
 342              	.LVL62:
 111:..\common\ud3core/DMA.c **** 	CyDmaChSetInitialTd(PSBINIT_DMA_Chan, PSBINIT_DMA_TD[0]);
 343              		.loc 1 111 0
 344 01fc 2946     		mov	r1, r5
 345 01fe 3846     		mov	r0, r7
 346 0200 FFF7FEFF 		bl	CyDmaChSetInitialTd
 347              	.LVL63:
 112:..\common\ud3core/DMA.c **** 	CyDmaChEnable(PSBINIT_DMA_Chan, 1);
 348              		.loc 1 112 0
 349 0204 0121     		movs	r1, #1
 350 0206 3846     		mov	r0, r7
 351 0208 FFF7FEFF 		bl	CyDmaChEnable
 352              	.LVL64:
 113:..\common\ud3core/DMA.c **** 
 114:..\common\ud3core/DMA.c **** 	/* Variable declarations for PWMB_PSB_DMA */
 115:..\common\ud3core/DMA.c **** 	/* Move these variable declarations to the top of the function */
 116:..\common\ud3core/DMA.c **** 	uint8 PWMB_PSB_DMA_Chan;
 117:..\common\ud3core/DMA.c **** 	uint8 PWMB_PSB_DMA_TD[1];
 118:..\common\ud3core/DMA.c **** 	PWMB_PSB_DMA_Chan = PWMB_PSB_DMA_DmaInitialize(PWMB_PSB_DMA_BYTES_PER_BURST, PWMB_PSB_DMA_REQUEST_
 353              		.loc 1 118 0
 354 020c 4FF48043 		mov	r3, #16384
 355 0210 41F6FF72 		movw	r2, #8191
 356 0214 0121     		movs	r1, #1
 357 0216 0220     		movs	r0, #2
 358 0218 FFF7FEFF 		bl	PWMB_PSB_DMA_DmaInitialize
 359              	.LVL65:
 360 021c 0646     		mov	r6, r0
 361              	.LVL66:
 119:..\common\ud3core/DMA.c **** 												   HI16(PWMB_PSB_DMA_SRC_BASE), HI16(PWMB_PSB_DMA_DST_BASE));
 120:..\common\ud3core/DMA.c **** 	PWMB_PSB_DMA_TD[0] = CyDmaTdAllocate();
 362              		.loc 1 120 0
 363 021e FFF7FEFF 		bl	CyDmaTdAllocate
 364              	.LVL67:
 365 0222 0546     		mov	r5, r0
 366              	.LVL68:
 121:..\common\ud3core/DMA.c **** 	CyDmaTdSetConfiguration(PWMB_PSB_DMA_TD[0], 2, PWMB_PSB_DMA_TD[0], PWMB_PSB_DMA__TD_TERMOUT_EN); /
 367              		.loc 1 121 0
 368 0224 0423     		movs	r3, #4
 369 0226 0246     		mov	r2, r0
 370 0228 0221     		movs	r1, #2
 371 022a FFF7FEFF 		bl	CyDmaTdSetConfiguration
 372              	.LVL69:
 122:..\common\ud3core/DMA.c **** 	CyDmaTdSetAddress(PWMB_PSB_DMA_TD[0], LO16((uint32)&params.pwmb_psb_val), LO16((uint32)PWMB_COMPAR
 373              		.loc 1 122 0
 374 022e 44F61E72 		movw	r2, #20254
 375 0232 2146     		mov	r1, r4
 376 0234 2846     		mov	r0, r5
 377 0236 FFF7FEFF 		bl	CyDmaTdSetAddress
 378              	.LVL70:
 123:..\common\ud3core/DMA.c **** 	CyDmaChSetInitialTd(PWMB_PSB_DMA_Chan, PWMB_PSB_DMA_TD[0]);
 379              		.loc 1 123 0
 380 023a 2946     		mov	r1, r5
 381 023c 3046     		mov	r0, r6
 382 023e FFF7FEFF 		bl	CyDmaChSetInitialTd
 383              	.LVL71:
ARM GAS  C:\Users\chemi\AppData\Local\Temp\cco4J00m.s 			page 10


 124:..\common\ud3core/DMA.c **** 	CyDmaChEnable(PWMB_PSB_DMA_Chan, 1);
 384              		.loc 1 124 0
 385 0242 0121     		movs	r1, #1
 386 0244 3046     		mov	r0, r6
 387 0246 FFF7FEFF 		bl	CyDmaChEnable
 388              	.LVL72:
 125:..\common\ud3core/DMA.c **** 
 126:..\common\ud3core/DMA.c **** 	/* Variable declarations for QCW_CL_DMA */
 127:..\common\ud3core/DMA.c **** 	/* Move these variable declarations to the top of the function */
 128:..\common\ud3core/DMA.c **** 	uint8 QCW_CL_DMA_Chan;
 129:..\common\ud3core/DMA.c **** 	uint8 QCW_CL_DMA_TD[2];
 130:..\common\ud3core/DMA.c **** 	QCW_CL_DMA_Chan = QCW_CL_DMA_DmaInitialize(QCW_CL_DMA_BYTES_PER_BURST, QCW_CL_DMA_REQUEST_PER_BURS
 389              		.loc 1 130 0
 390 024a 4FF48043 		mov	r3, #16384
 391 024e 41F6FF72 		movw	r2, #8191
 392 0252 0121     		movs	r1, #1
 393 0254 0220     		movs	r0, #2
 394 0256 FFF7FEFF 		bl	QCW_CL_DMA_DmaInitialize
 395              	.LVL73:
 396 025a 0746     		mov	r7, r0
 397              	.LVL74:
 131:..\common\ud3core/DMA.c **** 											   HI16(QCW_CL_DMA_SRC_BASE), HI16(QCW_CL_DMA_DST_BASE));
 132:..\common\ud3core/DMA.c **** 	QCW_CL_DMA_TD[0] = CyDmaTdAllocate();
 398              		.loc 1 132 0
 399 025c FFF7FEFF 		bl	CyDmaTdAllocate
 400              	.LVL75:
 401 0260 0546     		mov	r5, r0
 402              	.LVL76:
 133:..\common\ud3core/DMA.c **** 	QCW_CL_DMA_TD[1] = CyDmaTdAllocate();
 403              		.loc 1 133 0
 404 0262 FFF7FEFF 		bl	CyDmaTdAllocate
 405              	.LVL77:
 406 0266 0646     		mov	r6, r0
 407              	.LVL78:
 134:..\common\ud3core/DMA.c **** 	CyDmaTdSetConfiguration(QCW_CL_DMA_TD[0], 1, QCW_CL_DMA_TD[1], TD_AUTO_EXEC_NEXT);
 135:..\common\ud3core/DMA.c **** 	CyDmaTdSetConfiguration(QCW_CL_DMA_TD[1], 1, QCW_CL_DMA_TD[0], 0);
 136:..\common\ud3core/DMA.c **** 	CyDmaTdSetAddress(QCW_CL_DMA_TD[0], LO16((uint32)&ct1_dac_val[2]), LO16((uint32)CT1_dac_Data_PTR))
 408              		.loc 1 136 0
 409 0268 2D4C     		ldr	r4, .L2+12
 134:..\common\ud3core/DMA.c **** 	CyDmaTdSetConfiguration(QCW_CL_DMA_TD[0], 1, QCW_CL_DMA_TD[1], TD_AUTO_EXEC_NEXT);
 410              		.loc 1 134 0
 411 026a 0246     		mov	r2, r0
 412 026c 2023     		movs	r3, #32
 413 026e 0121     		movs	r1, #1
 414 0270 2846     		mov	r0, r5
 415              	.LVL79:
 416 0272 FFF7FEFF 		bl	CyDmaTdSetConfiguration
 417              	.LVL80:
 418              		.loc 1 136 0
 419 0276 1FFA84F8 		uxth	r8, r4
 420              	.LVL81:
 135:..\common\ud3core/DMA.c **** 	CyDmaTdSetAddress(QCW_CL_DMA_TD[0], LO16((uint32)&ct1_dac_val[2]), LO16((uint32)CT1_dac_Data_PTR))
 421              		.loc 1 135 0
 422 027a 0023     		movs	r3, #0
 423 027c 2A46     		mov	r2, r5
 424 027e 0121     		movs	r1, #1
 425 0280 3046     		mov	r0, r6
ARM GAS  C:\Users\chemi\AppData\Local\Temp\cco4J00m.s 			page 11


 426 0282 FFF7FEFF 		bl	CyDmaTdSetConfiguration
 427              	.LVL82:
 428              		.loc 1 136 0
 429 0286 4146     		mov	r1, r8
 430 0288 4FF4B742 		mov	r2, #23424
 431 028c 2846     		mov	r0, r5
 432 028e FFF7FEFF 		bl	CyDmaTdSetAddress
 433              	.LVL83:
 137:..\common\ud3core/DMA.c **** 	CyDmaTdSetAddress(QCW_CL_DMA_TD[1], LO16((uint32)&ct1_dac_val[2]), LO16((uint32)CT1_dac_Data_PTR))
 434              		.loc 1 137 0
 435 0292 4FF4B742 		mov	r2, #23424
 436 0296 4146     		mov	r1, r8
 437 0298 3046     		mov	r0, r6
 438 029a FFF7FEFF 		bl	CyDmaTdSetAddress
 439              	.LVL84:
 138:..\common\ud3core/DMA.c **** 	CyDmaChSetInitialTd(QCW_CL_DMA_Chan, QCW_CL_DMA_TD[0]);
 440              		.loc 1 138 0
 441 029e 2946     		mov	r1, r5
 442 02a0 3846     		mov	r0, r7
 443 02a2 FFF7FEFF 		bl	CyDmaChSetInitialTd
 444              	.LVL85:
 139:..\common\ud3core/DMA.c **** 	CyDmaChEnable(QCW_CL_DMA_Chan, 1);
 445              		.loc 1 139 0
 446 02a6 0121     		movs	r1, #1
 447 02a8 3846     		mov	r0, r7
 448 02aa FFF7FEFF 		bl	CyDmaChEnable
 449              	.LVL86:
 140:..\common\ud3core/DMA.c **** 
 141:..\common\ud3core/DMA.c **** 	/* Variable declarations for TR1_CL_DMA */
 142:..\common\ud3core/DMA.c **** 	/* Move these variable declarations to the top of the function */
 143:..\common\ud3core/DMA.c **** 	uint8 TR1_CL_DMA_Chan;
 144:..\common\ud3core/DMA.c **** 	uint8 TR1_CL_DMA_TD[2];
 145:..\common\ud3core/DMA.c **** 	TR1_CL_DMA_Chan = TR1_CL_DMA_DmaInitialize(TR1_CL_DMA_BYTES_PER_BURST, TR1_CL_DMA_REQUEST_PER_BURS
 450              		.loc 1 145 0
 451 02ae 4FF48043 		mov	r3, #16384
 452 02b2 41F6FF72 		movw	r2, #8191
 453 02b6 0121     		movs	r1, #1
 454 02b8 0220     		movs	r0, #2
 455 02ba FFF7FEFF 		bl	TR1_CL_DMA_DmaInitialize
 456              	.LVL87:
 457 02be 0746     		mov	r7, r0
 458              	.LVL88:
 146:..\common\ud3core/DMA.c **** 											   HI16(TR1_CL_DMA_SRC_BASE), HI16(TR1_CL_DMA_DST_BASE));
 147:..\common\ud3core/DMA.c **** 	TR1_CL_DMA_TD[0] = CyDmaTdAllocate();
 459              		.loc 1 147 0
 460 02c0 FFF7FEFF 		bl	CyDmaTdAllocate
 461              	.LVL89:
 462 02c4 0546     		mov	r5, r0
 463              	.LVL90:
 148:..\common\ud3core/DMA.c **** 	TR1_CL_DMA_TD[1] = CyDmaTdAllocate();
 464              		.loc 1 148 0
 465 02c6 FFF7FEFF 		bl	CyDmaTdAllocate
 466              	.LVL91:
 467 02ca 0646     		mov	r6, r0
 468              	.LVL92:
 149:..\common\ud3core/DMA.c **** 	CyDmaTdSetConfiguration(TR1_CL_DMA_TD[0], 1, TR1_CL_DMA_TD[1], TD_AUTO_EXEC_NEXT);
 469              		.loc 1 149 0
ARM GAS  C:\Users\chemi\AppData\Local\Temp\cco4J00m.s 			page 12


 470 02cc 0246     		mov	r2, r0
 471 02ce 2023     		movs	r3, #32
 472 02d0 0121     		movs	r1, #1
 473 02d2 2846     		mov	r0, r5
 474              	.LVL93:
 150:..\common\ud3core/DMA.c **** 	CyDmaTdSetConfiguration(TR1_CL_DMA_TD[1], 1, TR1_CL_DMA_TD[0], 0);
 151:..\common\ud3core/DMA.c **** 	CyDmaTdSetAddress(TR1_CL_DMA_TD[0], LO16((uint32)&ct1_dac_val[0]), LO16((uint32)CT1_dac_Data_PTR))
 475              		.loc 1 151 0
 476 02d4 023C     		subs	r4, r4, #2
 149:..\common\ud3core/DMA.c **** 	CyDmaTdSetConfiguration(TR1_CL_DMA_TD[0], 1, TR1_CL_DMA_TD[1], TD_AUTO_EXEC_NEXT);
 477              		.loc 1 149 0
 478 02d6 FFF7FEFF 		bl	CyDmaTdSetConfiguration
 479              	.LVL94:
 480              		.loc 1 151 0
 481 02da A4B2     		uxth	r4, r4
 150:..\common\ud3core/DMA.c **** 	CyDmaTdSetConfiguration(TR1_CL_DMA_TD[1], 1, TR1_CL_DMA_TD[0], 0);
 482              		.loc 1 150 0
 483 02dc 0023     		movs	r3, #0
 484 02de 2A46     		mov	r2, r5
 485 02e0 0121     		movs	r1, #1
 486 02e2 3046     		mov	r0, r6
 487 02e4 FFF7FEFF 		bl	CyDmaTdSetConfiguration
 488              	.LVL95:
 489              		.loc 1 151 0
 490 02e8 2146     		mov	r1, r4
 491 02ea 4FF4B742 		mov	r2, #23424
 492 02ee 2846     		mov	r0, r5
 493 02f0 FFF7FEFF 		bl	CyDmaTdSetAddress
 494              	.LVL96:
 152:..\common\ud3core/DMA.c **** 	CyDmaTdSetAddress(TR1_CL_DMA_TD[1], LO16((uint32)&ct1_dac_val[0]), LO16((uint32)CT1_dac_Data_PTR))
 495              		.loc 1 152 0
 496 02f4 2146     		mov	r1, r4
 497 02f6 4FF4B742 		mov	r2, #23424
 498 02fa 3046     		mov	r0, r6
 499 02fc FFF7FEFF 		bl	CyDmaTdSetAddress
 500              	.LVL97:
 153:..\common\ud3core/DMA.c **** 	CyDmaChSetInitialTd(TR1_CL_DMA_Chan, TR1_CL_DMA_TD[0]);
 501              		.loc 1 153 0
 502 0300 2946     		mov	r1, r5
 503 0302 3846     		mov	r0, r7
 504 0304 FFF7FEFF 		bl	CyDmaChSetInitialTd
 505              	.LVL98:
 154:..\common\ud3core/DMA.c **** 	CyDmaChEnable(TR1_CL_DMA_Chan, 1);
 506              		.loc 1 154 0
 507 0308 3846     		mov	r0, r7
 155:..\common\ud3core/DMA.c ****     
 156:..\common\ud3core/DMA.c **** }
 508              		.loc 1 156 0
 509 030a BDE8F843 		pop	{r3, r4, r5, r6, r7, r8, r9, lr}
 510              		.cfi_restore 14
 511              		.cfi_restore 9
 512              		.cfi_restore 8
 513              		.cfi_restore 7
 514              		.cfi_restore 6
 515              		.cfi_restore 5
 516              		.cfi_restore 4
 517              		.cfi_restore 3
ARM GAS  C:\Users\chemi\AppData\Local\Temp\cco4J00m.s 			page 13


 518              		.cfi_def_cfa_offset 0
 519              	.LVL99:
 154:..\common\ud3core/DMA.c **** 	CyDmaChEnable(TR1_CL_DMA_Chan, 1);
 520              		.loc 1 154 0
 521 030e 0121     		movs	r1, #1
 522 0310 FFF7FEBF 		b	CyDmaChEnable
 523              	.LVL100:
 524              	.L3:
 525              		.align	2
 526              	.L2:
 527 0314 00000000 		.word	fb_filter_in
 528 0318 00000000 		.word	fb_filter_out
 529 031c 02000000 		.word	params+2
 530 0320 02000000 		.word	ct1_dac_val+2
 531              		.cfi_endproc
 532              	.LFE63:
 533              		.size	initialize_DMA, .-initialize_DMA
 534              		.comm	ct1_dac_val,3,1
 535              		.comm	params,26,2
 536              		.text
 537              	.Letext0:
 538              		.file 2 "c:\\program files (x86)\\cypress\\psoc creator\\4.4\\psoc creator\\import\\gnu\\arm\\5.4.
 539              		.file 3 "c:\\program files (x86)\\cypress\\psoc creator\\4.4\\psoc creator\\import\\gnu\\arm\\5.4.
 540              		.file 4 "Generated_Source\\PSoC5/cytypes.h"
 541              		.file 5 "..\\common\\ud3core\\ZCDtoPWM.h"
 542              		.file 6 "Generated_Source\\PSoC5/core_cm3.h"
 543              		.file 7 "Generated_Source\\PSoC5/FBC_to_ram_DMA_dma.h"
 544              		.file 8 "Generated_Source\\PSoC5/CYDMAC.H"
 545              		.file 9 "Generated_Source\\PSoC5/ram_to_filter_DMA_dma.h"
 546              		.file 10 "Generated_Source\\PSoC5/filter_to_fram_DMA_dma.h"
 547              		.file 11 "Generated_Source\\PSoC5/fram_to_PWMA_DMA_dma.h"
 548              		.file 12 "Generated_Source\\PSoC5/PWMA_init_DMA_dma.h"
 549              		.file 13 "Generated_Source\\PSoC5/PSBINIT_DMA_dma.h"
 550              		.file 14 "Generated_Source\\PSoC5/PWMB_PSB_DMA_dma.h"
 551              		.file 15 "Generated_Source\\PSoC5/QCW_CL_DMA_dma.h"
 552              		.file 16 "Generated_Source\\PSoC5/TR1_CL_DMA_dma.h"