ARM GAS  C:\Users\chemi\AppData\Local\Temp\cc4u2oUl.s 			page 1


   1              		.syntax unified
   2              		.cpu cortex-m3
   3              		.fpu softvfp
   4              		.eabi_attribute 20, 1
   5              		.eabi_attribute 21, 1
   6              		.eabi_attribute 23, 3
   7              		.eabi_attribute 24, 1
   8              		.eabi_attribute 25, 1
   9              		.eabi_attribute 26, 1
  10              		.eabi_attribute 30, 4
  11              		.eabi_attribute 34, 1
  12              		.eabi_attribute 18, 4
  13              		.thumb
  14              		.syntax unified
  15              		.file	"EEPROM_1.c"
  16              		.text
  17              	.Ltext0:
  18              		.cfi_sections	.debug_frame
  19              		.section	.text.EEPROM_1_Enable,"ax",%progbits
  20              		.align	1
  21              		.global	EEPROM_1_Enable
  22              		.thumb
  23              		.thumb_func
  24              		.type	EEPROM_1_Enable, %function
  25              	EEPROM_1_Enable:
  26              	.LFB0:
  27              		.file 1 "Generated_Source\\PSoC5\\EEPROM_1.c"
   1:Generated_Source\PSoC5/EEPROM_1.c **** /*******************************************************************************
   2:Generated_Source\PSoC5/EEPROM_1.c **** * File Name: EEPROM_1.c
   3:Generated_Source\PSoC5/EEPROM_1.c **** * Version 3.0
   4:Generated_Source\PSoC5/EEPROM_1.c **** *
   5:Generated_Source\PSoC5/EEPROM_1.c **** *  Description:
   6:Generated_Source\PSoC5/EEPROM_1.c **** *   Provides the source code to the API for the EEPROM component.
   7:Generated_Source\PSoC5/EEPROM_1.c **** *
   8:Generated_Source\PSoC5/EEPROM_1.c **** ********************************************************************************
   9:Generated_Source\PSoC5/EEPROM_1.c **** * Copyright 2008-2015, Cypress Semiconductor Corporation.  All rights reserved.
  10:Generated_Source\PSoC5/EEPROM_1.c **** * You may use this file only in accordance with the license, terms, conditions,
  11:Generated_Source\PSoC5/EEPROM_1.c **** * disclaimers, and limitations in the end user license agreement accompanying
  12:Generated_Source\PSoC5/EEPROM_1.c **** * the software package with which this file was provided.
  13:Generated_Source\PSoC5/EEPROM_1.c **** *******************************************************************************/
  14:Generated_Source\PSoC5/EEPROM_1.c **** 
  15:Generated_Source\PSoC5/EEPROM_1.c **** #include "EEPROM_1.h"
  16:Generated_Source\PSoC5/EEPROM_1.c **** 
  17:Generated_Source\PSoC5/EEPROM_1.c **** 
  18:Generated_Source\PSoC5/EEPROM_1.c **** /*******************************************************************************
  19:Generated_Source\PSoC5/EEPROM_1.c **** * Function Name: EEPROM_1_Enable
  20:Generated_Source\PSoC5/EEPROM_1.c **** ********************************************************************************
  21:Generated_Source\PSoC5/EEPROM_1.c **** *
  22:Generated_Source\PSoC5/EEPROM_1.c **** * Summary:
  23:Generated_Source\PSoC5/EEPROM_1.c **** *  Enable the EEPROM block. Also reads the temperature and stores it for
  24:Generated_Source\PSoC5/EEPROM_1.c **** *  future writes.
  25:Generated_Source\PSoC5/EEPROM_1.c **** *
  26:Generated_Source\PSoC5/EEPROM_1.c **** * Parameters:
  27:Generated_Source\PSoC5/EEPROM_1.c **** *  None
  28:Generated_Source\PSoC5/EEPROM_1.c **** *
  29:Generated_Source\PSoC5/EEPROM_1.c **** * Return:
  30:Generated_Source\PSoC5/EEPROM_1.c **** *  None
ARM GAS  C:\Users\chemi\AppData\Local\Temp\cc4u2oUl.s 			page 2


  31:Generated_Source\PSoC5/EEPROM_1.c **** *
  32:Generated_Source\PSoC5/EEPROM_1.c **** *******************************************************************************/
  33:Generated_Source\PSoC5/EEPROM_1.c **** void EEPROM_1_Enable(void) 
  34:Generated_Source\PSoC5/EEPROM_1.c **** {
  28              		.loc 1 34 0
  29              		.cfi_startproc
  30              		@ args = 0, pretend = 0, frame = 0
  31              		@ frame_needed = 0, uses_anonymous_args = 0
  32 0000 08B5     		push	{r3, lr}
  33              		.cfi_def_cfa_offset 8
  34              		.cfi_offset 3, -8
  35              		.cfi_offset 14, -4
  35:Generated_Source\PSoC5/EEPROM_1.c ****     /* Read temperature value */
  36:Generated_Source\PSoC5/EEPROM_1.c ****     (void)CySetTemp();
  36              		.loc 1 36 0
  37 0002 FFF7FEFF 		bl	CySetTemp
  38              	.LVL0:
  37:Generated_Source\PSoC5/EEPROM_1.c **** 
  38:Generated_Source\PSoC5/EEPROM_1.c ****     /* Start EEPROM block */
  39:Generated_Source\PSoC5/EEPROM_1.c ****     CyEEPROM_Start();
  40:Generated_Source\PSoC5/EEPROM_1.c **** }
  39              		.loc 1 40 0
  40 0006 BDE80840 		pop	{r3, lr}
  41              		.cfi_restore 14
  42              		.cfi_restore 3
  43              		.cfi_def_cfa_offset 0
  39:Generated_Source\PSoC5/EEPROM_1.c **** }
  44              		.loc 1 39 0
  45 000a FFF7FEBF 		b	CyEEPROM_Start
  46              	.LVL1:
  47              		.cfi_endproc
  48              	.LFE0:
  49              		.size	EEPROM_1_Enable, .-EEPROM_1_Enable
  50              		.section	.text.EEPROM_1_Start,"ax",%progbits
  51              		.align	1
  52              		.global	EEPROM_1_Start
  53              		.thumb
  54              		.thumb_func
  55              		.type	EEPROM_1_Start, %function
  56              	EEPROM_1_Start:
  57              	.LFB1:
  41:Generated_Source\PSoC5/EEPROM_1.c **** 
  42:Generated_Source\PSoC5/EEPROM_1.c **** 
  43:Generated_Source\PSoC5/EEPROM_1.c **** /*******************************************************************************
  44:Generated_Source\PSoC5/EEPROM_1.c **** * Function Name: EEPROM_1_Start
  45:Generated_Source\PSoC5/EEPROM_1.c **** ********************************************************************************
  46:Generated_Source\PSoC5/EEPROM_1.c **** *
  47:Generated_Source\PSoC5/EEPROM_1.c **** * Summary:
  48:Generated_Source\PSoC5/EEPROM_1.c **** *  Starts EEPROM.
  49:Generated_Source\PSoC5/EEPROM_1.c **** *
  50:Generated_Source\PSoC5/EEPROM_1.c **** * Parameters:
  51:Generated_Source\PSoC5/EEPROM_1.c **** *  None
  52:Generated_Source\PSoC5/EEPROM_1.c **** *
  53:Generated_Source\PSoC5/EEPROM_1.c **** * Return:
  54:Generated_Source\PSoC5/EEPROM_1.c **** *  None
  55:Generated_Source\PSoC5/EEPROM_1.c **** *
  56:Generated_Source\PSoC5/EEPROM_1.c **** *******************************************************************************/
ARM GAS  C:\Users\chemi\AppData\Local\Temp\cc4u2oUl.s 			page 3


  57:Generated_Source\PSoC5/EEPROM_1.c **** void EEPROM_1_Start(void) 
  58:Generated_Source\PSoC5/EEPROM_1.c **** {
  58              		.loc 1 58 0
  59              		.cfi_startproc
  60              		@ args = 0, pretend = 0, frame = 0
  61              		@ frame_needed = 0, uses_anonymous_args = 0
  62              		@ link register save eliminated.
  59:Generated_Source\PSoC5/EEPROM_1.c ****     EEPROM_1_Enable();
  63              		.loc 1 59 0
  64 0000 FFF7FEBF 		b	EEPROM_1_Enable
  65              	.LVL2:
  66              		.cfi_endproc
  67              	.LFE1:
  68              		.size	EEPROM_1_Start, .-EEPROM_1_Start
  69              		.section	.text.EEPROM_1_Stop,"ax",%progbits
  70              		.align	1
  71              		.global	EEPROM_1_Stop
  72              		.thumb
  73              		.thumb_func
  74              		.type	EEPROM_1_Stop, %function
  75              	EEPROM_1_Stop:
  76              	.LFB2:
  60:Generated_Source\PSoC5/EEPROM_1.c **** }
  61:Generated_Source\PSoC5/EEPROM_1.c **** 
  62:Generated_Source\PSoC5/EEPROM_1.c **** 
  63:Generated_Source\PSoC5/EEPROM_1.c **** /*******************************************************************************
  64:Generated_Source\PSoC5/EEPROM_1.c **** * Function Name: EEPROM_1_Stop
  65:Generated_Source\PSoC5/EEPROM_1.c **** ********************************************************************************
  66:Generated_Source\PSoC5/EEPROM_1.c **** *
  67:Generated_Source\PSoC5/EEPROM_1.c **** * Summary:
  68:Generated_Source\PSoC5/EEPROM_1.c **** *  Stops and powers down EEPROM.
  69:Generated_Source\PSoC5/EEPROM_1.c **** *
  70:Generated_Source\PSoC5/EEPROM_1.c **** * Parameters:
  71:Generated_Source\PSoC5/EEPROM_1.c **** *  None
  72:Generated_Source\PSoC5/EEPROM_1.c **** *
  73:Generated_Source\PSoC5/EEPROM_1.c **** * Return:
  74:Generated_Source\PSoC5/EEPROM_1.c **** *  None
  75:Generated_Source\PSoC5/EEPROM_1.c **** *
  76:Generated_Source\PSoC5/EEPROM_1.c **** *******************************************************************************/
  77:Generated_Source\PSoC5/EEPROM_1.c **** void EEPROM_1_Stop (void) 
  78:Generated_Source\PSoC5/EEPROM_1.c **** {
  77              		.loc 1 78 0
  78              		.cfi_startproc
  79              		@ args = 0, pretend = 0, frame = 0
  80              		@ frame_needed = 0, uses_anonymous_args = 0
  81              		@ link register save eliminated.
  79:Generated_Source\PSoC5/EEPROM_1.c ****     /* Stop and power down EEPROM block */
  80:Generated_Source\PSoC5/EEPROM_1.c ****     CyEEPROM_Stop();
  82              		.loc 1 80 0
  83 0000 FFF7FEBF 		b	CyEEPROM_Stop
  84              	.LVL3:
  85              		.cfi_endproc
  86              	.LFE2:
  87              		.size	EEPROM_1_Stop, .-EEPROM_1_Stop
  88              		.section	.text.EEPROM_1_WriteByte,"ax",%progbits
  89              		.align	1
  90              		.global	EEPROM_1_WriteByte
ARM GAS  C:\Users\chemi\AppData\Local\Temp\cc4u2oUl.s 			page 4


  91              		.thumb
  92              		.thumb_func
  93              		.type	EEPROM_1_WriteByte, %function
  94              	EEPROM_1_WriteByte:
  95              	.LFB3:
  81:Generated_Source\PSoC5/EEPROM_1.c **** }
  82:Generated_Source\PSoC5/EEPROM_1.c **** 
  83:Generated_Source\PSoC5/EEPROM_1.c **** 
  84:Generated_Source\PSoC5/EEPROM_1.c **** /*******************************************************************************
  85:Generated_Source\PSoC5/EEPROM_1.c **** * Function Name: EEPROM_1_WriteByte
  86:Generated_Source\PSoC5/EEPROM_1.c **** ********************************************************************************
  87:Generated_Source\PSoC5/EEPROM_1.c **** *
  88:Generated_Source\PSoC5/EEPROM_1.c **** * Summary:
  89:Generated_Source\PSoC5/EEPROM_1.c **** *  Writes a byte of data to the EEPROM. This function blocks until
  90:Generated_Source\PSoC5/EEPROM_1.c **** *  the function is complete. For a reliable write procedure to occur you should
  91:Generated_Source\PSoC5/EEPROM_1.c **** *  call EEPROM_1_UpdateTemperature() function if the temperature of the
  92:Generated_Source\PSoC5/EEPROM_1.c **** *  silicon has been changed for more than 10C since the component was started.
  93:Generated_Source\PSoC5/EEPROM_1.c **** *
  94:Generated_Source\PSoC5/EEPROM_1.c **** * Parameters:
  95:Generated_Source\PSoC5/EEPROM_1.c **** *  dataByte:  The byte of data to write to the EEPROM
  96:Generated_Source\PSoC5/EEPROM_1.c **** *  address:   The address of data to be written. The maximum address is dependent
  97:Generated_Source\PSoC5/EEPROM_1.c **** *             on the EEPROM size.
  98:Generated_Source\PSoC5/EEPROM_1.c **** *
  99:Generated_Source\PSoC5/EEPROM_1.c **** * Return:
 100:Generated_Source\PSoC5/EEPROM_1.c **** *  CYRET_SUCCESS, if the operation was successful.
 101:Generated_Source\PSoC5/EEPROM_1.c **** *  CYRET_BAD_PARAM, if the parameter sectorNumber is out of range.
 102:Generated_Source\PSoC5/EEPROM_1.c **** *  CYRET_LOCKED, if the SPC is being used.
 103:Generated_Source\PSoC5/EEPROM_1.c **** *  CYRET_UNKNOWN, if there was an SPC error.
 104:Generated_Source\PSoC5/EEPROM_1.c **** *
 105:Generated_Source\PSoC5/EEPROM_1.c **** *******************************************************************************/
 106:Generated_Source\PSoC5/EEPROM_1.c **** cystatus EEPROM_1_WriteByte(uint8 dataByte, uint16 address) 
 107:Generated_Source\PSoC5/EEPROM_1.c **** {
  96              		.loc 1 107 0
  97              		.cfi_startproc
  98              		@ args = 0, pretend = 0, frame = 8
  99              		@ frame_needed = 0, uses_anonymous_args = 0
 100              	.LVL4:
 101 0000 37B5     		push	{r0, r1, r2, r4, r5, lr}
 102              		.cfi_def_cfa_offset 24
 103              		.cfi_offset 4, -12
 104              		.cfi_offset 5, -8
 105              		.cfi_offset 14, -4
 106              		.loc 1 107 0
 107 0002 0C46     		mov	r4, r1
 108 0004 8DF80700 		strb	r0, [sp, #7]
 108:Generated_Source\PSoC5/EEPROM_1.c ****     cystatus status;
 109:Generated_Source\PSoC5/EEPROM_1.c ****     uint16 rowNumber;
 110:Generated_Source\PSoC5/EEPROM_1.c ****     uint16 byteNumber;
 111:Generated_Source\PSoC5/EEPROM_1.c ****     
 112:Generated_Source\PSoC5/EEPROM_1.c ****     CySpcStart();
 109              		.loc 1 112 0
 110 0008 FFF7FEFF 		bl	CySpcStart
 111              	.LVL5:
 113:Generated_Source\PSoC5/EEPROM_1.c **** 
 114:Generated_Source\PSoC5/EEPROM_1.c ****     if (address < CY_EEPROM_SIZE)
 112              		.loc 1 114 0
 113 000c B4F5006F 		cmp	r4, #2048
ARM GAS  C:\Users\chemi\AppData\Local\Temp\cc4u2oUl.s 			page 5


 114 0010 24D2     		bcs	.L13
 115              	.LVL6:
 115:Generated_Source\PSoC5/EEPROM_1.c ****     {
 116:Generated_Source\PSoC5/EEPROM_1.c ****         rowNumber = address/(uint16)CY_EEPROM_SIZEOF_ROW;
 117:Generated_Source\PSoC5/EEPROM_1.c ****         byteNumber = address - (rowNumber * ((uint16)CY_EEPROM_SIZEOF_ROW));
 118:Generated_Source\PSoC5/EEPROM_1.c ****         if(CYRET_SUCCESS == CySpcLock())
 116              		.loc 1 118 0
 117 0012 FFF7FEFF 		bl	CySpcLock
 118              	.LVL7:
 119 0016 18BB     		cbnz	r0, .L14
 119:Generated_Source\PSoC5/EEPROM_1.c ****         {
 120:Generated_Source\PSoC5/EEPROM_1.c ****             status = CySpcLoadMultiByte(CY_SPC_FIRST_EE_ARRAYID, byteNumber, &dataByte, \
 120              		.loc 1 120 0
 121 0018 04F00F01 		and	r1, r4, #15
 122 001c 0123     		movs	r3, #1
 123 001e 0DF10702 		add	r2, sp, #7
 124              	.LVL8:
 125 0022 4020     		movs	r0, #64
 126 0024 FFF7FEFF 		bl	CySpcLoadMultiByte
 127              	.LVL9:
 121:Generated_Source\PSoC5/EEPROM_1.c ****                                                                     EEPROM_1_SPC_BYTE_WRITE_SIZE);
 122:Generated_Source\PSoC5/EEPROM_1.c ****             if (CYRET_STARTED == status)
 128              		.loc 1 122 0
 129 0028 0728     		cmp	r0, #7
 120:Generated_Source\PSoC5/EEPROM_1.c ****                                                                     EEPROM_1_SPC_BYTE_WRITE_SIZE);
 130              		.loc 1 120 0
 131 002a 4FEA1415 		lsr	r5, r4, #4
 132 002e 0446     		mov	r4, r0
 133              	.LVL10:
 134              		.loc 1 122 0
 135 0030 0FD1     		bne	.L6
 123:Generated_Source\PSoC5/EEPROM_1.c ****             {
 124:Generated_Source\PSoC5/EEPROM_1.c ****                 /* Plan for failure */
 125:Generated_Source\PSoC5/EEPROM_1.c ****                 status = CYRET_UNKNOWN;
 126:Generated_Source\PSoC5/EEPROM_1.c **** 
 127:Generated_Source\PSoC5/EEPROM_1.c ****                 while(CY_SPC_BUSY)
 136              		.loc 1 127 0
 137 0032 194A     		ldr	r2, .L25
 138              	.L7:
 139              		.loc 1 127 0 is_stmt 0 discriminator 1
 140 0034 1378     		ldrb	r3, [r2]	@ zero_extendqisi2
 141 0036 184C     		ldr	r4, .L25
 142 0038 13F0020F 		tst	r3, #2
 143 003c FAD0     		beq	.L7
 128:Generated_Source\PSoC5/EEPROM_1.c ****                 {
 129:Generated_Source\PSoC5/EEPROM_1.c ****                     /* Wait until SPC becomes idle */
 130:Generated_Source\PSoC5/EEPROM_1.c ****                 }
 131:Generated_Source\PSoC5/EEPROM_1.c **** 
 132:Generated_Source\PSoC5/EEPROM_1.c ****                 if(CY_SPC_STATUS_SUCCESS == CY_SPC_READ_STATUS)
 144              		.loc 1 132 0 is_stmt 1
 145 003e 2378     		ldrb	r3, [r4]	@ zero_extendqisi2
 146 0040 9807     		lsls	r0, r3, #30
 147              	.LVL11:
 148 0042 02D4     		bmi	.L8
 149              	.L11:
 133:Generated_Source\PSoC5/EEPROM_1.c ****                 {
 134:Generated_Source\PSoC5/EEPROM_1.c ****                     status = CYRET_SUCCESS;
ARM GAS  C:\Users\chemi\AppData\Local\Temp\cc4u2oUl.s 			page 6


 135:Generated_Source\PSoC5/EEPROM_1.c ****                 }
 136:Generated_Source\PSoC5/EEPROM_1.c ****                 /* Command to erase and program the row. */
 137:Generated_Source\PSoC5/EEPROM_1.c ****                 if(CYRET_SUCCESS == status)
 138:Generated_Source\PSoC5/EEPROM_1.c ****                 {
 139:Generated_Source\PSoC5/EEPROM_1.c ****                     if(CySpcWriteRow(CY_SPC_FIRST_EE_ARRAYID, (uint16)rowNumber, dieTemperature[0u]
 140:Generated_Source\PSoC5/EEPROM_1.c ****                     dieTemperature[1u]) == CYRET_STARTED)
 141:Generated_Source\PSoC5/EEPROM_1.c ****                     {
 142:Generated_Source\PSoC5/EEPROM_1.c ****                         /* Plan for failure */
 143:Generated_Source\PSoC5/EEPROM_1.c ****                         status = CYRET_UNKNOWN;
 144:Generated_Source\PSoC5/EEPROM_1.c **** 
 145:Generated_Source\PSoC5/EEPROM_1.c ****                         while(CY_SPC_BUSY)
 146:Generated_Source\PSoC5/EEPROM_1.c ****                         {
 147:Generated_Source\PSoC5/EEPROM_1.c ****                             /* Wait until SPC becomes idle */
 148:Generated_Source\PSoC5/EEPROM_1.c ****                         }
 149:Generated_Source\PSoC5/EEPROM_1.c **** 
 150:Generated_Source\PSoC5/EEPROM_1.c ****                         /* SPC is idle now */
 151:Generated_Source\PSoC5/EEPROM_1.c ****                         if(CY_SPC_STATUS_SUCCESS == CY_SPC_READ_STATUS)
 152:Generated_Source\PSoC5/EEPROM_1.c ****                         {
 153:Generated_Source\PSoC5/EEPROM_1.c ****                             status = CYRET_SUCCESS;
 154:Generated_Source\PSoC5/EEPROM_1.c ****                         }
 155:Generated_Source\PSoC5/EEPROM_1.c ****                     }
 156:Generated_Source\PSoC5/EEPROM_1.c ****                     else
 157:Generated_Source\PSoC5/EEPROM_1.c ****                     {
 158:Generated_Source\PSoC5/EEPROM_1.c ****                         status = CYRET_UNKNOWN;
 159:Generated_Source\PSoC5/EEPROM_1.c ****                     }
 160:Generated_Source\PSoC5/EEPROM_1.c ****                 }
 161:Generated_Source\PSoC5/EEPROM_1.c ****                 else
 162:Generated_Source\PSoC5/EEPROM_1.c ****                 {
 163:Generated_Source\PSoC5/EEPROM_1.c ****                     status = CYRET_UNKNOWN;
 150              		.loc 1 163 0
 151 0044 4FF0FF34 		mov	r4, #-1
 152 0048 05E0     		b	.L9
 153              	.L8:
 132:Generated_Source\PSoC5/EEPROM_1.c ****                 {
 154              		.loc 1 132 0 discriminator 1
 155 004a 2378     		ldrb	r3, [r4]	@ zero_extendqisi2
 156 004c 9B08     		lsrs	r3, r3, #2
 157 004e 09D0     		beq	.L10
 158 0050 F8E7     		b	.L11
 159              	.LVL12:
 160              	.L6:
 164:Generated_Source\PSoC5/EEPROM_1.c ****                 }
 165:Generated_Source\PSoC5/EEPROM_1.c ****             }
 166:Generated_Source\PSoC5/EEPROM_1.c ****             else
 167:Generated_Source\PSoC5/EEPROM_1.c ****             {
 168:Generated_Source\PSoC5/EEPROM_1.c ****                 if (CYRET_BAD_PARAM != status)
 161              		.loc 1 168 0
 162 0052 0128     		cmp	r0, #1
 163 0054 F6D1     		bne	.L11
 164              	.LVL13:
 165              	.L9:
 169:Generated_Source\PSoC5/EEPROM_1.c ****                 {
 170:Generated_Source\PSoC5/EEPROM_1.c ****                     status = CYRET_UNKNOWN;
 171:Generated_Source\PSoC5/EEPROM_1.c ****                 }
 172:Generated_Source\PSoC5/EEPROM_1.c ****             }
 173:Generated_Source\PSoC5/EEPROM_1.c ****             CySpcUnlock();
 166              		.loc 1 173 0
ARM GAS  C:\Users\chemi\AppData\Local\Temp\cc4u2oUl.s 			page 7


 167 0056 FFF7FEFF 		bl	CySpcUnlock
 168              	.LVL14:
 169 005a 1AE0     		b	.L23
 170              	.LVL15:
 171              	.L13:
 174:Generated_Source\PSoC5/EEPROM_1.c ****         }
 175:Generated_Source\PSoC5/EEPROM_1.c ****         else
 176:Generated_Source\PSoC5/EEPROM_1.c ****         {
 177:Generated_Source\PSoC5/EEPROM_1.c ****             status = CYRET_LOCKED;
 178:Generated_Source\PSoC5/EEPROM_1.c ****         }
 179:Generated_Source\PSoC5/EEPROM_1.c ****     }
 180:Generated_Source\PSoC5/EEPROM_1.c ****     else
 181:Generated_Source\PSoC5/EEPROM_1.c ****     {
 182:Generated_Source\PSoC5/EEPROM_1.c ****         status = CYRET_BAD_PARAM;
 172              		.loc 1 182 0
 173 005c 0124     		movs	r4, #1
 174 005e 18E0     		b	.L23
 175              	.LVL16:
 176              	.L14:
 177:Generated_Source\PSoC5/EEPROM_1.c ****         }
 177              		.loc 1 177 0
 178 0060 0424     		movs	r4, #4
 179              	.LVL17:
 183:Generated_Source\PSoC5/EEPROM_1.c ****     }
 184:Generated_Source\PSoC5/EEPROM_1.c **** 
 185:Generated_Source\PSoC5/EEPROM_1.c **** 
 186:Generated_Source\PSoC5/EEPROM_1.c ****     return (status);
 180              		.loc 1 186 0
 181 0062 16E0     		b	.L23
 182              	.LVL18:
 183              	.L10:
 139:Generated_Source\PSoC5/EEPROM_1.c ****                     dieTemperature[1u]) == CYRET_STARTED)
 184              		.loc 1 139 0
 185 0064 0D4A     		ldr	r2, .L25+4
 186 0066 2946     		mov	r1, r5
 187 0068 5378     		ldrb	r3, [r2, #1]	@ zero_extendqisi2
 188 006a 4020     		movs	r0, #64
 189 006c 1278     		ldrb	r2, [r2]	@ zero_extendqisi2
 190 006e FFF7FEFF 		bl	CySpcWriteRow
 191              	.LVL19:
 192 0072 0728     		cmp	r0, #7
 193 0074 E6D1     		bne	.L11
 194              	.L12:
 145:Generated_Source\PSoC5/EEPROM_1.c ****                         {
 195              		.loc 1 145 0 discriminator 1
 196 0076 2278     		ldrb	r2, [r4]	@ zero_extendqisi2
 197 0078 074B     		ldr	r3, .L25
 198 007a 9107     		lsls	r1, r2, #30
 199 007c FBD5     		bpl	.L12
 151:Generated_Source\PSoC5/EEPROM_1.c ****                         {
 200              		.loc 1 151 0
 201 007e 1A78     		ldrb	r2, [r3]	@ zero_extendqisi2
 202 0080 9207     		lsls	r2, r2, #30
 203 0082 DFD5     		bpl	.L11
 151:Generated_Source\PSoC5/EEPROM_1.c ****                         {
 204              		.loc 1 151 0 is_stmt 0 discriminator 1
 205 0084 1B78     		ldrb	r3, [r3]	@ zero_extendqisi2
ARM GAS  C:\Users\chemi\AppData\Local\Temp\cc4u2oUl.s 			page 8


 206 0086 9B08     		lsrs	r3, r3, #2
 207 0088 14BF     		ite	ne
 208 008a 4FF0FF34 		movne	r4, #-1
 209 008e 0024     		moveq	r4, #0
 210 0090 E1E7     		b	.L9
 211              	.LVL20:
 212              	.L23:
 187:Generated_Source\PSoC5/EEPROM_1.c **** }
 213              		.loc 1 187 0 is_stmt 1
 214 0092 2046     		mov	r0, r4
 215 0094 03B0     		add	sp, sp, #12
 216              		.cfi_def_cfa_offset 12
 217              		@ sp needed
 218 0096 30BD     		pop	{r4, r5, pc}
 219              	.LVL21:
 220              	.L26:
 221              		.align	2
 222              	.L25:
 223 0098 22470040 		.word	1073760034
 224 009c 00000000 		.word	dieTemperature
 225              		.cfi_endproc
 226              	.LFE3:
 227              		.size	EEPROM_1_WriteByte, .-EEPROM_1_WriteByte
 228              		.section	.text.EEPROM_1_ReadByte,"ax",%progbits
 229              		.align	1
 230              		.global	EEPROM_1_ReadByte
 231              		.thumb
 232              		.thumb_func
 233              		.type	EEPROM_1_ReadByte, %function
 234              	EEPROM_1_ReadByte:
 235              	.LFB4:
 188:Generated_Source\PSoC5/EEPROM_1.c **** 
 189:Generated_Source\PSoC5/EEPROM_1.c **** 
 190:Generated_Source\PSoC5/EEPROM_1.c **** /*******************************************************************************
 191:Generated_Source\PSoC5/EEPROM_1.c **** * Function Name: EEPROM_1_ReadByte
 192:Generated_Source\PSoC5/EEPROM_1.c **** ********************************************************************************
 193:Generated_Source\PSoC5/EEPROM_1.c **** *
 194:Generated_Source\PSoC5/EEPROM_1.c **** * Summary:
 195:Generated_Source\PSoC5/EEPROM_1.c **** *  Reads and returns a byte of data from the on-chip EEPROM memory. Although
 196:Generated_Source\PSoC5/EEPROM_1.c **** *  the data is present in the CPU memory space, this function provides an
 197:Generated_Source\PSoC5/EEPROM_1.c **** *  intuitive user interface, addressing the EEPROM memory as a separate block with
 198:Generated_Source\PSoC5/EEPROM_1.c **** *  the first EERPOM byte address equal to 0x0000.
 199:Generated_Source\PSoC5/EEPROM_1.c **** *
 200:Generated_Source\PSoC5/EEPROM_1.c **** * Parameters:
 201:Generated_Source\PSoC5/EEPROM_1.c **** *  address:   The address of data to be read. The maximum address is limited by the
 202:Generated_Source\PSoC5/EEPROM_1.c **** *             size of the EEPROM array on a specific device.
 203:Generated_Source\PSoC5/EEPROM_1.c **** *
 204:Generated_Source\PSoC5/EEPROM_1.c **** * Return:
 205:Generated_Source\PSoC5/EEPROM_1.c **** *  Data located at an address.
 206:Generated_Source\PSoC5/EEPROM_1.c **** *
 207:Generated_Source\PSoC5/EEPROM_1.c **** *******************************************************************************/
 208:Generated_Source\PSoC5/EEPROM_1.c **** uint8 EEPROM_1_ReadByte(uint16 address) 
 209:Generated_Source\PSoC5/EEPROM_1.c **** {
 236              		.loc 1 209 0
 237              		.cfi_startproc
 238              		@ args = 0, pretend = 0, frame = 0
 239              		@ frame_needed = 0, uses_anonymous_args = 0
ARM GAS  C:\Users\chemi\AppData\Local\Temp\cc4u2oUl.s 			page 9


 240              	.LVL22:
 241 0000 38B5     		push	{r3, r4, r5, lr}
 242              		.cfi_def_cfa_offset 16
 243              		.cfi_offset 3, -16
 244              		.cfi_offset 4, -12
 245              		.cfi_offset 5, -8
 246              		.cfi_offset 14, -4
 247              		.loc 1 209 0
 248 0002 0446     		mov	r4, r0
 210:Generated_Source\PSoC5/EEPROM_1.c ****     uint8 retByte;
 211:Generated_Source\PSoC5/EEPROM_1.c ****     uint8 interruptState;
 212:Generated_Source\PSoC5/EEPROM_1.c **** 
 213:Generated_Source\PSoC5/EEPROM_1.c ****     interruptState = CyEnterCriticalSection();
 249              		.loc 1 213 0
 250 0004 FFF7FEFF 		bl	CyEnterCriticalSection
 251              	.LVL23:
 252 0008 0546     		mov	r5, r0
 253              	.LVL24:
 214:Generated_Source\PSoC5/EEPROM_1.c **** 
 215:Generated_Source\PSoC5/EEPROM_1.c ****     /* Request access to EEPROM for reading.
 216:Generated_Source\PSoC5/EEPROM_1.c ****     This is needed to reserve PHUB for read operation from EEPROM */
 217:Generated_Source\PSoC5/EEPROM_1.c ****     CyEEPROM_ReadReserve();
 254              		.loc 1 217 0
 255 000a FFF7FEFF 		bl	CyEEPROM_ReadReserve
 256              	.LVL25:
 218:Generated_Source\PSoC5/EEPROM_1.c ****     
 219:Generated_Source\PSoC5/EEPROM_1.c ****     retByte = *((reg8 *) (CYDEV_EE_BASE + address));
 257              		.loc 1 219 0
 258 000e 04F18043 		add	r3, r4, #1073741824
 259 0012 03F50043 		add	r3, r3, #32768
 260 0016 1C78     		ldrb	r4, [r3]	@ zero_extendqisi2
 220:Generated_Source\PSoC5/EEPROM_1.c **** 
 221:Generated_Source\PSoC5/EEPROM_1.c ****     /* Release EEPROM array */
 222:Generated_Source\PSoC5/EEPROM_1.c ****     CyEEPROM_ReadRelease();
 261              		.loc 1 222 0
 262 0018 FFF7FEFF 		bl	CyEEPROM_ReadRelease
 263              	.LVL26:
 219:Generated_Source\PSoC5/EEPROM_1.c **** 
 264              		.loc 1 219 0
 265 001c E4B2     		uxtb	r4, r4
 266              	.LVL27:
 223:Generated_Source\PSoC5/EEPROM_1.c ****     
 224:Generated_Source\PSoC5/EEPROM_1.c ****     CyExitCriticalSection(interruptState);
 267              		.loc 1 224 0
 268 001e 2846     		mov	r0, r5
 269 0020 FFF7FEFF 		bl	CyExitCriticalSection
 270              	.LVL28:
 225:Generated_Source\PSoC5/EEPROM_1.c **** 
 226:Generated_Source\PSoC5/EEPROM_1.c ****     return (retByte);
 227:Generated_Source\PSoC5/EEPROM_1.c **** }
 271              		.loc 1 227 0
 272 0024 2046     		mov	r0, r4
 273 0026 38BD     		pop	{r3, r4, r5, pc}
 274              		.cfi_endproc
 275              	.LFE4:
 276              		.size	EEPROM_1_ReadByte, .-EEPROM_1_ReadByte
 277              		.section	.text.EEPROM_1_UpdateTemperature,"ax",%progbits
ARM GAS  C:\Users\chemi\AppData\Local\Temp\cc4u2oUl.s 			page 10


 278              		.align	1
 279              		.global	EEPROM_1_UpdateTemperature
 280              		.thumb
 281              		.thumb_func
 282              		.type	EEPROM_1_UpdateTemperature, %function
 283              	EEPROM_1_UpdateTemperature:
 284              	.LFB5:
 228:Generated_Source\PSoC5/EEPROM_1.c **** 
 229:Generated_Source\PSoC5/EEPROM_1.c **** 
 230:Generated_Source\PSoC5/EEPROM_1.c **** /*******************************************************************************
 231:Generated_Source\PSoC5/EEPROM_1.c **** * Function Name: EEPROM_1_UpdateTemperature
 232:Generated_Source\PSoC5/EEPROM_1.c **** ********************************************************************************
 233:Generated_Source\PSoC5/EEPROM_1.c **** *
 234:Generated_Source\PSoC5/EEPROM_1.c **** * Summary:
 235:Generated_Source\PSoC5/EEPROM_1.c **** *  Updates and stores the temperature value. This function should be called
 236:Generated_Source\PSoC5/EEPROM_1.c **** *  before EEPROM writes if the temperature may have been changed by more than
 237:Generated_Source\PSoC5/EEPROM_1.c **** *  10 degrees Celsius.
 238:Generated_Source\PSoC5/EEPROM_1.c **** *
 239:Generated_Source\PSoC5/EEPROM_1.c **** * Parameters:
 240:Generated_Source\PSoC5/EEPROM_1.c **** *  None
 241:Generated_Source\PSoC5/EEPROM_1.c **** *
 242:Generated_Source\PSoC5/EEPROM_1.c **** * Return:
 243:Generated_Source\PSoC5/EEPROM_1.c **** *  Status of operation, 0 if operation complete, non-zero value if error
 244:Generated_Source\PSoC5/EEPROM_1.c **** *  was detected.
 245:Generated_Source\PSoC5/EEPROM_1.c **** *
 246:Generated_Source\PSoC5/EEPROM_1.c **** *******************************************************************************/
 247:Generated_Source\PSoC5/EEPROM_1.c **** uint8 EEPROM_1_UpdateTemperature(void) 
 248:Generated_Source\PSoC5/EEPROM_1.c **** {
 285              		.loc 1 248 0
 286              		.cfi_startproc
 287              		@ args = 0, pretend = 0, frame = 0
 288              		@ frame_needed = 0, uses_anonymous_args = 0
 289 0000 08B5     		push	{r3, lr}
 290              		.cfi_def_cfa_offset 8
 291              		.cfi_offset 3, -8
 292              		.cfi_offset 14, -4
 249:Generated_Source\PSoC5/EEPROM_1.c ****     return ((uint8)CySetTemp());
 293              		.loc 1 249 0
 294 0002 FFF7FEFF 		bl	CySetTemp
 295              	.LVL29:
 250:Generated_Source\PSoC5/EEPROM_1.c **** }
 296              		.loc 1 250 0
 297 0006 C0B2     		uxtb	r0, r0
 298 0008 08BD     		pop	{r3, pc}
 299              		.cfi_endproc
 300              	.LFE5:
 301              		.size	EEPROM_1_UpdateTemperature, .-EEPROM_1_UpdateTemperature
 302              		.section	.text.EEPROM_1_EraseSector,"ax",%progbits
 303              		.align	1
 304              		.global	EEPROM_1_EraseSector
 305              		.thumb
 306              		.thumb_func
 307              		.type	EEPROM_1_EraseSector, %function
 308              	EEPROM_1_EraseSector:
 309              	.LFB6:
 251:Generated_Source\PSoC5/EEPROM_1.c **** 
 252:Generated_Source\PSoC5/EEPROM_1.c **** 
ARM GAS  C:\Users\chemi\AppData\Local\Temp\cc4u2oUl.s 			page 11


 253:Generated_Source\PSoC5/EEPROM_1.c **** /*******************************************************************************
 254:Generated_Source\PSoC5/EEPROM_1.c **** * Function Name: EEPROM_1_EraseSector
 255:Generated_Source\PSoC5/EEPROM_1.c **** ********************************************************************************
 256:Generated_Source\PSoC5/EEPROM_1.c **** *
 257:Generated_Source\PSoC5/EEPROM_1.c **** * Summary:
 258:Generated_Source\PSoC5/EEPROM_1.c **** *  Erase an EEPROM sector (64 rows). This function blocks until the erase
 259:Generated_Source\PSoC5/EEPROM_1.c **** *  operation is complete. Using this API helps to erase the EEPROM sector at
 260:Generated_Source\PSoC5/EEPROM_1.c **** *  a time. This is faster than using individual writes but affects a cycle
 261:Generated_Source\PSoC5/EEPROM_1.c **** *  recourse of the whole EEPROM row.
 262:Generated_Source\PSoC5/EEPROM_1.c **** *
 263:Generated_Source\PSoC5/EEPROM_1.c **** * Parameters:
 264:Generated_Source\PSoC5/EEPROM_1.c **** *  sectorNumber:  The sector number to erase.
 265:Generated_Source\PSoC5/EEPROM_1.c **** *
 266:Generated_Source\PSoC5/EEPROM_1.c **** * Return:
 267:Generated_Source\PSoC5/EEPROM_1.c **** *  CYRET_SUCCESS, if the operation was successful.
 268:Generated_Source\PSoC5/EEPROM_1.c **** *  CYRET_BAD_PARAM, if the parameter sectorNumber is out of range.
 269:Generated_Source\PSoC5/EEPROM_1.c **** *  CYRET_LOCKED, if the SPC is being used.
 270:Generated_Source\PSoC5/EEPROM_1.c **** *  CYRET_UNKNOWN, if there was an SPC error.
 271:Generated_Source\PSoC5/EEPROM_1.c **** *
 272:Generated_Source\PSoC5/EEPROM_1.c **** *******************************************************************************/
 273:Generated_Source\PSoC5/EEPROM_1.c **** cystatus EEPROM_1_EraseSector(uint8 sectorNumber) 
 274:Generated_Source\PSoC5/EEPROM_1.c **** {
 310              		.loc 1 274 0
 311              		.cfi_startproc
 312              		@ args = 0, pretend = 0, frame = 0
 313              		@ frame_needed = 0, uses_anonymous_args = 0
 314              	.LVL30:
 315 0000 10B5     		push	{r4, lr}
 316              		.cfi_def_cfa_offset 8
 317              		.cfi_offset 4, -8
 318              		.cfi_offset 14, -4
 319              		.loc 1 274 0
 320 0002 0446     		mov	r4, r0
 275:Generated_Source\PSoC5/EEPROM_1.c ****     cystatus status;
 276:Generated_Source\PSoC5/EEPROM_1.c ****     
 277:Generated_Source\PSoC5/EEPROM_1.c ****     CySpcStart();
 321              		.loc 1 277 0
 322 0004 FFF7FEFF 		bl	CySpcStart
 323              	.LVL31:
 278:Generated_Source\PSoC5/EEPROM_1.c **** 
 279:Generated_Source\PSoC5/EEPROM_1.c ****     if(sectorNumber < (uint8) EEPROM_1_SECTORS_NUMBER)
 324              		.loc 1 279 0
 325 0008 012C     		cmp	r4, #1
 326 000a 1CD8     		bhi	.L33
 280:Generated_Source\PSoC5/EEPROM_1.c ****     {
 281:Generated_Source\PSoC5/EEPROM_1.c ****         /* See if we can get SPC. */
 282:Generated_Source\PSoC5/EEPROM_1.c ****         if(CySpcLock() == CYRET_SUCCESS)
 327              		.loc 1 282 0
 328 000c FFF7FEFF 		bl	CySpcLock
 329              	.LVL32:
 330 0010 D8B9     		cbnz	r0, .L34
 283:Generated_Source\PSoC5/EEPROM_1.c ****         {
 284:Generated_Source\PSoC5/EEPROM_1.c ****             if(CySpcEraseSector(CY_SPC_FIRST_EE_ARRAYID, sectorNumber) == CYRET_STARTED)
 331              		.loc 1 284 0
 332 0012 2146     		mov	r1, r4
 333 0014 4020     		movs	r0, #64
 334 0016 FFF7FEFF 		bl	CySpcEraseSector
ARM GAS  C:\Users\chemi\AppData\Local\Temp\cc4u2oUl.s 			page 12


 335              	.LVL33:
 336 001a 0728     		cmp	r0, #7
 337 001c 0ED1     		bne	.L36
 285:Generated_Source\PSoC5/EEPROM_1.c ****             {
 286:Generated_Source\PSoC5/EEPROM_1.c ****                 /* Plan for failure */
 287:Generated_Source\PSoC5/EEPROM_1.c ****                 status = CYRET_UNKNOWN;
 288:Generated_Source\PSoC5/EEPROM_1.c **** 
 289:Generated_Source\PSoC5/EEPROM_1.c ****                 while(CY_SPC_BUSY)
 338              		.loc 1 289 0
 339 001e 0C49     		ldr	r1, .L39
 340              	.L32:
 341              		.loc 1 289 0 is_stmt 0 discriminator 1
 342 0020 0A78     		ldrb	r2, [r1]	@ zero_extendqisi2
 343 0022 0B4B     		ldr	r3, .L39
 344 0024 9007     		lsls	r0, r2, #30
 345 0026 FBD5     		bpl	.L32
 290:Generated_Source\PSoC5/EEPROM_1.c ****                 {
 291:Generated_Source\PSoC5/EEPROM_1.c ****                     /* Wait until SPC becomes idle */
 292:Generated_Source\PSoC5/EEPROM_1.c ****                 }
 293:Generated_Source\PSoC5/EEPROM_1.c **** 
 294:Generated_Source\PSoC5/EEPROM_1.c ****                 /* SPC is idle now */
 295:Generated_Source\PSoC5/EEPROM_1.c ****                 if(CY_SPC_STATUS_SUCCESS == CY_SPC_READ_STATUS)
 346              		.loc 1 295 0 is_stmt 1
 347 0028 1A78     		ldrb	r2, [r3]	@ zero_extendqisi2
 348 002a 9207     		lsls	r2, r2, #30
 349 002c 06D5     		bpl	.L36
 350              		.loc 1 295 0 is_stmt 0 discriminator 1
 351 002e 1B78     		ldrb	r3, [r3]	@ zero_extendqisi2
 352 0030 9B08     		lsrs	r3, r3, #2
 353 0032 14BF     		ite	ne
 354 0034 4FF0FF34 		movne	r4, #-1
 355 0038 0024     		moveq	r4, #0
 356 003a 01E0     		b	.L31
 357              	.L36:
 296:Generated_Source\PSoC5/EEPROM_1.c ****                 {
 297:Generated_Source\PSoC5/EEPROM_1.c ****                     status = CYRET_SUCCESS;
 298:Generated_Source\PSoC5/EEPROM_1.c ****                 }
 299:Generated_Source\PSoC5/EEPROM_1.c ****             }
 300:Generated_Source\PSoC5/EEPROM_1.c ****             else
 301:Generated_Source\PSoC5/EEPROM_1.c ****             {
 302:Generated_Source\PSoC5/EEPROM_1.c ****                 status = CYRET_UNKNOWN;
 358              		.loc 1 302 0 is_stmt 1
 359 003c 4FF0FF34 		mov	r4, #-1
 360              	.L31:
 361              	.LVL34:
 303:Generated_Source\PSoC5/EEPROM_1.c ****             }
 304:Generated_Source\PSoC5/EEPROM_1.c **** 
 305:Generated_Source\PSoC5/EEPROM_1.c ****             /* Unlock SPC so that someone else can use it. */
 306:Generated_Source\PSoC5/EEPROM_1.c ****             CySpcUnlock();
 362              		.loc 1 306 0
 363 0040 FFF7FEFF 		bl	CySpcUnlock
 364              	.LVL35:
 365 0044 02E0     		b	.L30
 366              	.LVL36:
 367              	.L33:
 307:Generated_Source\PSoC5/EEPROM_1.c ****         }
 308:Generated_Source\PSoC5/EEPROM_1.c ****         else
ARM GAS  C:\Users\chemi\AppData\Local\Temp\cc4u2oUl.s 			page 13


 309:Generated_Source\PSoC5/EEPROM_1.c ****         {
 310:Generated_Source\PSoC5/EEPROM_1.c ****             status = CYRET_LOCKED;
 311:Generated_Source\PSoC5/EEPROM_1.c ****         }
 312:Generated_Source\PSoC5/EEPROM_1.c ****     }
 313:Generated_Source\PSoC5/EEPROM_1.c ****     else
 314:Generated_Source\PSoC5/EEPROM_1.c ****     {
 315:Generated_Source\PSoC5/EEPROM_1.c ****         status = CYRET_BAD_PARAM;
 368              		.loc 1 315 0
 369 0046 0124     		movs	r4, #1
 370 0048 00E0     		b	.L30
 371              	.L34:
 310:Generated_Source\PSoC5/EEPROM_1.c ****         }
 372              		.loc 1 310 0
 373 004a 0424     		movs	r4, #4
 374              	.L30:
 375              	.LVL37:
 316:Generated_Source\PSoC5/EEPROM_1.c ****     }
 317:Generated_Source\PSoC5/EEPROM_1.c **** 
 318:Generated_Source\PSoC5/EEPROM_1.c ****     return(status);
 319:Generated_Source\PSoC5/EEPROM_1.c **** }
 376              		.loc 1 319 0
 377 004c 2046     		mov	r0, r4
 378 004e 10BD     		pop	{r4, pc}
 379              	.LVL38:
 380              	.L40:
 381              		.align	2
 382              	.L39:
 383 0050 22470040 		.word	1073760034
 384              		.cfi_endproc
 385              	.LFE6:
 386              		.size	EEPROM_1_EraseSector, .-EEPROM_1_EraseSector
 387              		.section	.text.EEPROM_1_Write,"ax",%progbits
 388              		.align	1
 389              		.global	EEPROM_1_Write
 390              		.thumb
 391              		.thumb_func
 392              		.type	EEPROM_1_Write, %function
 393              	EEPROM_1_Write:
 394              	.LFB7:
 320:Generated_Source\PSoC5/EEPROM_1.c **** 
 321:Generated_Source\PSoC5/EEPROM_1.c **** 
 322:Generated_Source\PSoC5/EEPROM_1.c **** /*******************************************************************************
 323:Generated_Source\PSoC5/EEPROM_1.c **** * Function Name: EEPROM_1_Write
 324:Generated_Source\PSoC5/EEPROM_1.c **** ********************************************************************************
 325:Generated_Source\PSoC5/EEPROM_1.c **** *
 326:Generated_Source\PSoC5/EEPROM_1.c **** * Summary:
 327:Generated_Source\PSoC5/EEPROM_1.c **** *  Writes a row (16 bytes) of data to the EEPROM. This function blocks until
 328:Generated_Source\PSoC5/EEPROM_1.c **** *  the write operation is complete. Compared to functions that write one byte,
 329:Generated_Source\PSoC5/EEPROM_1.c **** *  this function allows writing a whole row (16 bytes) at a time. For
 330:Generated_Source\PSoC5/EEPROM_1.c **** *  a reliable write procedure to occur you should call the
 331:Generated_Source\PSoC5/EEPROM_1.c **** *  EEPROM_1_UpdateTemperature() function if the temperature of the
 332:Generated_Source\PSoC5/EEPROM_1.c **** *  silicon has changed for more than 10C since component was started.
 333:Generated_Source\PSoC5/EEPROM_1.c **** *
 334:Generated_Source\PSoC5/EEPROM_1.c **** * Parameters:
 335:Generated_Source\PSoC5/EEPROM_1.c **** *  rowData:    The address of the data to write to the EEPROM.
 336:Generated_Source\PSoC5/EEPROM_1.c **** *  rowNumber:  The row number to write.
 337:Generated_Source\PSoC5/EEPROM_1.c **** *
ARM GAS  C:\Users\chemi\AppData\Local\Temp\cc4u2oUl.s 			page 14


 338:Generated_Source\PSoC5/EEPROM_1.c **** * Return:
 339:Generated_Source\PSoC5/EEPROM_1.c **** *  CYRET_SUCCESS, if the operation was successful.
 340:Generated_Source\PSoC5/EEPROM_1.c **** *  CYRET_BAD_PARAM, if the parameter rowNumber is out of range.
 341:Generated_Source\PSoC5/EEPROM_1.c **** *  CYRET_LOCKED, if the SPC is being used.
 342:Generated_Source\PSoC5/EEPROM_1.c **** *  CYRET_UNKNOWN, if there was an SPC error.
 343:Generated_Source\PSoC5/EEPROM_1.c **** *
 344:Generated_Source\PSoC5/EEPROM_1.c **** *******************************************************************************/
 345:Generated_Source\PSoC5/EEPROM_1.c **** cystatus EEPROM_1_Write(const uint8 * rowData, uint8 rowNumber) 
 346:Generated_Source\PSoC5/EEPROM_1.c **** {
 395              		.loc 1 346 0
 396              		.cfi_startproc
 397              		@ args = 0, pretend = 0, frame = 0
 398              		@ frame_needed = 0, uses_anonymous_args = 0
 399              	.LVL39:
 400 0000 38B5     		push	{r3, r4, r5, lr}
 401              		.cfi_def_cfa_offset 16
 402              		.cfi_offset 3, -16
 403              		.cfi_offset 4, -12
 404              		.cfi_offset 5, -8
 405              		.cfi_offset 14, -4
 406              		.loc 1 346 0
 407 0002 0D46     		mov	r5, r1
 408 0004 0446     		mov	r4, r0
 347:Generated_Source\PSoC5/EEPROM_1.c ****     cystatus status;
 348:Generated_Source\PSoC5/EEPROM_1.c ****     
 349:Generated_Source\PSoC5/EEPROM_1.c ****     CySpcStart();
 409              		.loc 1 349 0
 410 0006 FFF7FEFF 		bl	CySpcStart
 411              	.LVL40:
 350:Generated_Source\PSoC5/EEPROM_1.c **** 
 351:Generated_Source\PSoC5/EEPROM_1.c ****     if(rowNumber < (uint8) CY_EEPROM_NUMBER_ROWS)
 412              		.loc 1 351 0
 413 000a 2B06     		lsls	r3, r5, #24
 414 000c 32D4     		bmi	.L48
 352:Generated_Source\PSoC5/EEPROM_1.c ****     {
 353:Generated_Source\PSoC5/EEPROM_1.c ****         /* See if we can get SPC. */
 354:Generated_Source\PSoC5/EEPROM_1.c ****         if(CySpcLock() == CYRET_SUCCESS)
 415              		.loc 1 354 0
 416 000e FFF7FEFF 		bl	CySpcLock
 417              	.LVL41:
 418 0012 0028     		cmp	r0, #0
 419 0014 30D1     		bne	.L49
 420              	.LVL42:
 355:Generated_Source\PSoC5/EEPROM_1.c ****         {
 356:Generated_Source\PSoC5/EEPROM_1.c ****             /* Plan for failure */
 357:Generated_Source\PSoC5/EEPROM_1.c ****             status = CYRET_UNKNOWN;
 358:Generated_Source\PSoC5/EEPROM_1.c **** 
 359:Generated_Source\PSoC5/EEPROM_1.c ****             /* Command to load a row of data */
 360:Generated_Source\PSoC5/EEPROM_1.c ****             if(CySpcLoadRow(CY_SPC_FIRST_EE_ARRAYID, rowData, CYDEV_EEPROM_ROW_SIZE) == CYRET_START
 421              		.loc 1 360 0
 422 0016 1022     		movs	r2, #16
 423 0018 2146     		mov	r1, r4
 424 001a 4020     		movs	r0, #64
 425 001c FFF7FEFF 		bl	CySpcLoadRow
 426              	.LVL43:
 427 0020 0728     		cmp	r0, #7
 428 0022 08D1     		bne	.L45
ARM GAS  C:\Users\chemi\AppData\Local\Temp\cc4u2oUl.s 			page 15


 361:Generated_Source\PSoC5/EEPROM_1.c ****             {
 362:Generated_Source\PSoC5/EEPROM_1.c ****                 while(CY_SPC_BUSY)
 429              		.loc 1 362 0
 430 0024 164A     		ldr	r2, .L64
 431              	.LVL44:
 432              	.L43:
 433              		.loc 1 362 0 is_stmt 0 discriminator 1
 434 0026 1378     		ldrb	r3, [r2]	@ zero_extendqisi2
 435 0028 154C     		ldr	r4, .L64
 436 002a 13F0020F 		tst	r3, #2
 437 002e FAD0     		beq	.L43
 363:Generated_Source\PSoC5/EEPROM_1.c ****                 {
 364:Generated_Source\PSoC5/EEPROM_1.c ****                     /* Wait until SPC becomes idle */
 365:Generated_Source\PSoC5/EEPROM_1.c ****                 }
 366:Generated_Source\PSoC5/EEPROM_1.c **** 
 367:Generated_Source\PSoC5/EEPROM_1.c ****                 /* SPC is idle now */
 368:Generated_Source\PSoC5/EEPROM_1.c ****                 if(CY_SPC_STATUS_SUCCESS == CY_SPC_READ_STATUS)
 438              		.loc 1 368 0 is_stmt 1
 439 0030 2378     		ldrb	r3, [r4]	@ zero_extendqisi2
 440 0032 9807     		lsls	r0, r3, #30
 441 0034 02D4     		bmi	.L63
 442              	.LVL45:
 443              	.L45:
 357:Generated_Source\PSoC5/EEPROM_1.c **** 
 444              		.loc 1 357 0
 445 0036 4FF0FF34 		mov	r4, #-1
 446 003a 18E0     		b	.L44
 447              	.LVL46:
 448              	.L63:
 449              		.loc 1 368 0 discriminator 1
 450 003c 2378     		ldrb	r3, [r4]	@ zero_extendqisi2
 451 003e 9B08     		lsrs	r3, r3, #2
 452 0040 F9D1     		bne	.L45
 453              	.LVL47:
 369:Generated_Source\PSoC5/EEPROM_1.c ****                 {
 370:Generated_Source\PSoC5/EEPROM_1.c ****                     status = CYRET_SUCCESS;
 371:Generated_Source\PSoC5/EEPROM_1.c ****                 }
 372:Generated_Source\PSoC5/EEPROM_1.c **** 
 373:Generated_Source\PSoC5/EEPROM_1.c ****                 /* Command to erase and program the row. */
 374:Generated_Source\PSoC5/EEPROM_1.c ****                 if(status == CYRET_SUCCESS)
 375:Generated_Source\PSoC5/EEPROM_1.c ****                 {
 376:Generated_Source\PSoC5/EEPROM_1.c ****                     if(CySpcWriteRow(CY_SPC_FIRST_EE_ARRAYID, (uint16)rowNumber, dieTemperature[0u]
 454              		.loc 1 376 0
 455 0042 104A     		ldr	r2, .L64+4
 456 0044 2946     		mov	r1, r5
 457 0046 5378     		ldrb	r3, [r2, #1]	@ zero_extendqisi2
 458 0048 4020     		movs	r0, #64
 459 004a 1278     		ldrb	r2, [r2]	@ zero_extendqisi2
 460 004c FFF7FEFF 		bl	CySpcWriteRow
 461              	.LVL48:
 462 0050 0728     		cmp	r0, #7
 463 0052 F0D1     		bne	.L45
 464              	.L47:
 377:Generated_Source\PSoC5/EEPROM_1.c ****                     dieTemperature[1u]) == CYRET_STARTED)
 378:Generated_Source\PSoC5/EEPROM_1.c ****                     {
 379:Generated_Source\PSoC5/EEPROM_1.c ****                         /* Plan for failure */
 380:Generated_Source\PSoC5/EEPROM_1.c ****                         status = CYRET_UNKNOWN;
ARM GAS  C:\Users\chemi\AppData\Local\Temp\cc4u2oUl.s 			page 16


 381:Generated_Source\PSoC5/EEPROM_1.c **** 
 382:Generated_Source\PSoC5/EEPROM_1.c ****                         while(CY_SPC_BUSY)
 465              		.loc 1 382 0 discriminator 1
 466 0054 2278     		ldrb	r2, [r4]	@ zero_extendqisi2
 467 0056 0A4B     		ldr	r3, .L64
 468 0058 9107     		lsls	r1, r2, #30
 469 005a FBD5     		bpl	.L47
 383:Generated_Source\PSoC5/EEPROM_1.c ****                         {
 384:Generated_Source\PSoC5/EEPROM_1.c ****                             /* Wait until SPC becomes idle */
 385:Generated_Source\PSoC5/EEPROM_1.c ****                         }
 386:Generated_Source\PSoC5/EEPROM_1.c **** 
 387:Generated_Source\PSoC5/EEPROM_1.c ****                         /* SPC is idle now */
 388:Generated_Source\PSoC5/EEPROM_1.c ****                         if(CY_SPC_STATUS_SUCCESS == CY_SPC_READ_STATUS)
 470              		.loc 1 388 0
 471 005c 1A78     		ldrb	r2, [r3]	@ zero_extendqisi2
 472 005e 9207     		lsls	r2, r2, #30
 473 0060 E9D5     		bpl	.L45
 474              		.loc 1 388 0 is_stmt 0 discriminator 1
 475 0062 1B78     		ldrb	r3, [r3]	@ zero_extendqisi2
 476 0064 9B08     		lsrs	r3, r3, #2
 477 0066 14BF     		ite	ne
 478 0068 4FF0FF34 		movne	r4, #-1
 479 006c 0024     		moveq	r4, #0
 480              	.LVL49:
 481              	.L44:
 389:Generated_Source\PSoC5/EEPROM_1.c ****                         {
 390:Generated_Source\PSoC5/EEPROM_1.c ****                             status = CYRET_SUCCESS;
 391:Generated_Source\PSoC5/EEPROM_1.c ****                         }
 392:Generated_Source\PSoC5/EEPROM_1.c ****                     }
 393:Generated_Source\PSoC5/EEPROM_1.c ****                     else
 394:Generated_Source\PSoC5/EEPROM_1.c ****                     {
 395:Generated_Source\PSoC5/EEPROM_1.c ****                         status = CYRET_UNKNOWN;
 396:Generated_Source\PSoC5/EEPROM_1.c ****                     }
 397:Generated_Source\PSoC5/EEPROM_1.c ****                 }
 398:Generated_Source\PSoC5/EEPROM_1.c ****                 else
 399:Generated_Source\PSoC5/EEPROM_1.c ****                 {
 400:Generated_Source\PSoC5/EEPROM_1.c ****                     status = CYRET_UNKNOWN;
 401:Generated_Source\PSoC5/EEPROM_1.c ****                 }
 402:Generated_Source\PSoC5/EEPROM_1.c ****             }
 403:Generated_Source\PSoC5/EEPROM_1.c **** 
 404:Generated_Source\PSoC5/EEPROM_1.c ****             /* Unlock SPC so that someone else can use it. */
 405:Generated_Source\PSoC5/EEPROM_1.c ****             CySpcUnlock();
 482              		.loc 1 405 0 is_stmt 1
 483 006e FFF7FEFF 		bl	CySpcUnlock
 484              	.LVL50:
 485 0072 02E0     		b	.L62
 486              	.LVL51:
 487              	.L48:
 406:Generated_Source\PSoC5/EEPROM_1.c ****         }
 407:Generated_Source\PSoC5/EEPROM_1.c ****         else
 408:Generated_Source\PSoC5/EEPROM_1.c ****         {
 409:Generated_Source\PSoC5/EEPROM_1.c ****             status = CYRET_LOCKED;
 410:Generated_Source\PSoC5/EEPROM_1.c ****         }
 411:Generated_Source\PSoC5/EEPROM_1.c ****     }
 412:Generated_Source\PSoC5/EEPROM_1.c ****     else
 413:Generated_Source\PSoC5/EEPROM_1.c ****     {
 414:Generated_Source\PSoC5/EEPROM_1.c ****         status = CYRET_BAD_PARAM;
ARM GAS  C:\Users\chemi\AppData\Local\Temp\cc4u2oUl.s 			page 17


 488              		.loc 1 414 0
 489 0074 0124     		movs	r4, #1
 490              	.LVL52:
 491 0076 00E0     		b	.L62
 492              	.LVL53:
 493              	.L49:
 409:Generated_Source\PSoC5/EEPROM_1.c ****         }
 494              		.loc 1 409 0
 495 0078 0424     		movs	r4, #4
 496              	.LVL54:
 497              	.L62:
 415:Generated_Source\PSoC5/EEPROM_1.c ****     }
 416:Generated_Source\PSoC5/EEPROM_1.c **** 
 417:Generated_Source\PSoC5/EEPROM_1.c ****     return(status);
 418:Generated_Source\PSoC5/EEPROM_1.c **** }
 498              		.loc 1 418 0
 499 007a 2046     		mov	r0, r4
 500 007c 38BD     		pop	{r3, r4, r5, pc}
 501              	.L65:
 502 007e 00BF     		.align	2
 503              	.L64:
 504 0080 22470040 		.word	1073760034
 505 0084 00000000 		.word	dieTemperature
 506              		.cfi_endproc
 507              	.LFE7:
 508              		.size	EEPROM_1_Write, .-EEPROM_1_Write
 509              		.section	.text.EEPROM_1_StartWrite,"ax",%progbits
 510              		.align	1
 511              		.global	EEPROM_1_StartWrite
 512              		.thumb
 513              		.thumb_func
 514              		.type	EEPROM_1_StartWrite, %function
 515              	EEPROM_1_StartWrite:
 516              	.LFB8:
 419:Generated_Source\PSoC5/EEPROM_1.c **** 
 420:Generated_Source\PSoC5/EEPROM_1.c **** 
 421:Generated_Source\PSoC5/EEPROM_1.c **** /*******************************************************************************
 422:Generated_Source\PSoC5/EEPROM_1.c **** * Function Name: EEPROM_1_StartWrite
 423:Generated_Source\PSoC5/EEPROM_1.c **** ********************************************************************************
 424:Generated_Source\PSoC5/EEPROM_1.c **** *
 425:Generated_Source\PSoC5/EEPROM_1.c **** * Summary:
 426:Generated_Source\PSoC5/EEPROM_1.c **** *  Starts a write of a row (16 bytes) of data to the EEPROM.
 427:Generated_Source\PSoC5/EEPROM_1.c **** *  This function does not block. The function returns once the SPC has begun
 428:Generated_Source\PSoC5/EEPROM_1.c **** *  writing the data. This function must be used in combination with
 429:Generated_Source\PSoC5/EEPROM_1.c **** *  EEPROM_1_Query(). EEPROM_1_Query() must be called
 430:Generated_Source\PSoC5/EEPROM_1.c **** *  until it returns a status other than CYRET_STARTED. That indicates that the
 431:Generated_Source\PSoC5/EEPROM_1.c **** *  write has completed. Until EEPROM_1_Query() detects that
 432:Generated_Source\PSoC5/EEPROM_1.c **** *  the write is complete, the SPC is marked as locked to prevent another
 433:Generated_Source\PSoC5/EEPROM_1.c **** *  SPC operation from being performed. For a reliable write procedure to occur
 434:Generated_Source\PSoC5/EEPROM_1.c **** *  you should call EEPROM_1_UpdateTemperature() API if the temperature
 435:Generated_Source\PSoC5/EEPROM_1.c **** *  of the silicon has changed for more than 10C since component was started.
 436:Generated_Source\PSoC5/EEPROM_1.c **** *
 437:Generated_Source\PSoC5/EEPROM_1.c **** * Parameters:
 438:Generated_Source\PSoC5/EEPROM_1.c **** *  rowData:    The address of the data to write to the EEPROM.
 439:Generated_Source\PSoC5/EEPROM_1.c **** *  rowNumber:  The row number to write.
 440:Generated_Source\PSoC5/EEPROM_1.c **** *
 441:Generated_Source\PSoC5/EEPROM_1.c **** * Return:
ARM GAS  C:\Users\chemi\AppData\Local\Temp\cc4u2oUl.s 			page 18


 442:Generated_Source\PSoC5/EEPROM_1.c **** *  CYRET_STARTED, if the SPC command to write was successfully started.
 443:Generated_Source\PSoC5/EEPROM_1.c **** *  CYRET_BAD_PARAM, if the parameter rowNumber is out of range.
 444:Generated_Source\PSoC5/EEPROM_1.c **** *  CYRET_LOCKED, if the SPC is being used.
 445:Generated_Source\PSoC5/EEPROM_1.c **** *  CYRET_UNKNOWN, if there was an SPC error.
 446:Generated_Source\PSoC5/EEPROM_1.c **** *
 447:Generated_Source\PSoC5/EEPROM_1.c **** * Side effects:
 448:Generated_Source\PSoC5/EEPROM_1.c **** *  After calling this API, the device should not be powered down, reset or switched
 449:Generated_Source\PSoC5/EEPROM_1.c **** *  to low power modes until EEPROM operation is complete. 
 450:Generated_Source\PSoC5/EEPROM_1.c **** *  Ignoring this recommendation may lead to data corruption or silicon
 451:Generated_Source\PSoC5/EEPROM_1.c **** *  unexpected behavior.
 452:Generated_Source\PSoC5/EEPROM_1.c **** *
 453:Generated_Source\PSoC5/EEPROM_1.c **** *******************************************************************************/
 454:Generated_Source\PSoC5/EEPROM_1.c **** cystatus EEPROM_1_StartWrite(const uint8 * rowData, uint8 rowNumber) \
 455:Generated_Source\PSoC5/EEPROM_1.c **** 
 456:Generated_Source\PSoC5/EEPROM_1.c **** {
 517              		.loc 1 456 0
 518              		.cfi_startproc
 519              		@ args = 0, pretend = 0, frame = 0
 520              		@ frame_needed = 0, uses_anonymous_args = 0
 521              	.LVL55:
 522 0000 38B5     		push	{r3, r4, r5, lr}
 523              		.cfi_def_cfa_offset 16
 524              		.cfi_offset 3, -16
 525              		.cfi_offset 4, -12
 526              		.cfi_offset 5, -8
 527              		.cfi_offset 14, -4
 528              		.loc 1 456 0
 529 0002 0C46     		mov	r4, r1
 530 0004 0546     		mov	r5, r0
 457:Generated_Source\PSoC5/EEPROM_1.c ****     cystatus status;
 458:Generated_Source\PSoC5/EEPROM_1.c ****     
 459:Generated_Source\PSoC5/EEPROM_1.c ****     CySpcStart();
 531              		.loc 1 459 0
 532 0006 FFF7FEFF 		bl	CySpcStart
 533              	.LVL56:
 460:Generated_Source\PSoC5/EEPROM_1.c **** 
 461:Generated_Source\PSoC5/EEPROM_1.c ****     if(rowNumber < (uint8) CY_EEPROM_NUMBER_ROWS)
 534              		.loc 1 461 0
 535 000a 2306     		lsls	r3, r4, #24
 536 000c 17D4     		bmi	.L71
 462:Generated_Source\PSoC5/EEPROM_1.c ****     {
 463:Generated_Source\PSoC5/EEPROM_1.c ****         /* See if we can get SPC. */
 464:Generated_Source\PSoC5/EEPROM_1.c ****         if(CySpcLock() == CYRET_SUCCESS)
 537              		.loc 1 464 0
 538 000e FFF7FEFF 		bl	CySpcLock
 539              	.LVL57:
 540 0012 B0B9     		cbnz	r0, .L72
 541              	.LVL58:
 465:Generated_Source\PSoC5/EEPROM_1.c ****         {
 466:Generated_Source\PSoC5/EEPROM_1.c ****             /* Plan for failure */
 467:Generated_Source\PSoC5/EEPROM_1.c ****             status = CYRET_UNKNOWN;
 468:Generated_Source\PSoC5/EEPROM_1.c **** 
 469:Generated_Source\PSoC5/EEPROM_1.c ****             /* Command to load a row of data */
 470:Generated_Source\PSoC5/EEPROM_1.c ****             if(CySpcLoadRow(CY_SPC_FIRST_EE_ARRAYID, rowData, CYDEV_EEPROM_ROW_SIZE) == CYRET_START
 542              		.loc 1 470 0
 543 0014 1022     		movs	r2, #16
 544 0016 2946     		mov	r1, r5
ARM GAS  C:\Users\chemi\AppData\Local\Temp\cc4u2oUl.s 			page 19


 545 0018 4020     		movs	r0, #64
 546 001a FFF7FEFF 		bl	CySpcLoadRow
 547              	.LVL59:
 548 001e 0728     		cmp	r0, #7
 549 0020 0AD1     		bne	.L68
 471:Generated_Source\PSoC5/EEPROM_1.c ****             {
 472:Generated_Source\PSoC5/EEPROM_1.c ****                 while(CY_SPC_BUSY)
 550              		.loc 1 472 0
 551 0022 0E49     		ldr	r1, .L80
 552              	.L69:
 553              		.loc 1 472 0 is_stmt 0 discriminator 1
 554 0024 0A78     		ldrb	r2, [r1]	@ zero_extendqisi2
 555 0026 0D4B     		ldr	r3, .L80
 556 0028 9007     		lsls	r0, r2, #30
 557 002a FBD5     		bpl	.L69
 473:Generated_Source\PSoC5/EEPROM_1.c ****                 {
 474:Generated_Source\PSoC5/EEPROM_1.c ****                     /* Wait until SPC becomes idle */
 475:Generated_Source\PSoC5/EEPROM_1.c ****                 }
 476:Generated_Source\PSoC5/EEPROM_1.c **** 
 477:Generated_Source\PSoC5/EEPROM_1.c ****                 /* SPC is idle now */
 478:Generated_Source\PSoC5/EEPROM_1.c ****                 if(CY_SPC_STATUS_SUCCESS == CY_SPC_READ_STATUS)
 558              		.loc 1 478 0 is_stmt 1
 559 002c 1A78     		ldrb	r2, [r3]	@ zero_extendqisi2
 560 002e 9207     		lsls	r2, r2, #30
 561 0030 02D5     		bpl	.L68
 562              		.loc 1 478 0 is_stmt 0 discriminator 1
 563 0032 1B78     		ldrb	r3, [r3]	@ zero_extendqisi2
 564 0034 9B08     		lsrs	r3, r3, #2
 565 0036 06D0     		beq	.L70
 566              	.LVL60:
 567              	.L68:
 479:Generated_Source\PSoC5/EEPROM_1.c ****                 {
 480:Generated_Source\PSoC5/EEPROM_1.c ****                     status = CYRET_SUCCESS;
 481:Generated_Source\PSoC5/EEPROM_1.c ****                 }
 482:Generated_Source\PSoC5/EEPROM_1.c **** 
 483:Generated_Source\PSoC5/EEPROM_1.c ****                 /* Command to erase and program the row. */
 484:Generated_Source\PSoC5/EEPROM_1.c ****                 if(status == CYRET_SUCCESS)
 485:Generated_Source\PSoC5/EEPROM_1.c ****                 {
 486:Generated_Source\PSoC5/EEPROM_1.c ****                     if(CySpcWriteRow(CY_SPC_FIRST_EE_ARRAYID, (uint16)rowNumber, dieTemperature[0u]
 487:Generated_Source\PSoC5/EEPROM_1.c ****                     dieTemperature[1u]) == CYRET_STARTED)
 488:Generated_Source\PSoC5/EEPROM_1.c ****                     {
 489:Generated_Source\PSoC5/EEPROM_1.c ****                         status = CYRET_STARTED;
 490:Generated_Source\PSoC5/EEPROM_1.c ****                     }
 491:Generated_Source\PSoC5/EEPROM_1.c ****                     else
 492:Generated_Source\PSoC5/EEPROM_1.c ****                     {
 493:Generated_Source\PSoC5/EEPROM_1.c ****                         status = CYRET_UNKNOWN;
 568              		.loc 1 493 0 is_stmt 1
 569 0038 4FF0FF30 		mov	r0, #-1
 570 003c 38BD     		pop	{r3, r4, r5, pc}
 571              	.LVL61:
 572              	.L71:
 494:Generated_Source\PSoC5/EEPROM_1.c ****                     }
 495:Generated_Source\PSoC5/EEPROM_1.c ****                 }
 496:Generated_Source\PSoC5/EEPROM_1.c ****                 else
 497:Generated_Source\PSoC5/EEPROM_1.c ****                 {
 498:Generated_Source\PSoC5/EEPROM_1.c ****                     status = CYRET_UNKNOWN;
 499:Generated_Source\PSoC5/EEPROM_1.c ****                 }
ARM GAS  C:\Users\chemi\AppData\Local\Temp\cc4u2oUl.s 			page 20


 500:Generated_Source\PSoC5/EEPROM_1.c ****             }
 501:Generated_Source\PSoC5/EEPROM_1.c ****         }
 502:Generated_Source\PSoC5/EEPROM_1.c ****         else
 503:Generated_Source\PSoC5/EEPROM_1.c ****         {
 504:Generated_Source\PSoC5/EEPROM_1.c ****             status = CYRET_LOCKED;
 505:Generated_Source\PSoC5/EEPROM_1.c ****         }
 506:Generated_Source\PSoC5/EEPROM_1.c ****     }
 507:Generated_Source\PSoC5/EEPROM_1.c ****     else
 508:Generated_Source\PSoC5/EEPROM_1.c ****     {
 509:Generated_Source\PSoC5/EEPROM_1.c ****         status = CYRET_BAD_PARAM;
 573              		.loc 1 509 0
 574 003e 0120     		movs	r0, #1
 575 0040 38BD     		pop	{r3, r4, r5, pc}
 576              	.LVL62:
 577              	.L72:
 504:Generated_Source\PSoC5/EEPROM_1.c ****         }
 578              		.loc 1 504 0
 579 0042 0420     		movs	r0, #4
 580 0044 38BD     		pop	{r3, r4, r5, pc}
 581              	.LVL63:
 582              	.L70:
 486:Generated_Source\PSoC5/EEPROM_1.c ****                     dieTemperature[1u]) == CYRET_STARTED)
 583              		.loc 1 486 0
 584 0046 064A     		ldr	r2, .L80+4
 585 0048 2146     		mov	r1, r4
 586 004a 5378     		ldrb	r3, [r2, #1]	@ zero_extendqisi2
 587 004c 4020     		movs	r0, #64
 588 004e 1278     		ldrb	r2, [r2]	@ zero_extendqisi2
 589 0050 FFF7FEFF 		bl	CySpcWriteRow
 590              	.LVL64:
 591 0054 0728     		cmp	r0, #7
 592 0056 EFD1     		bne	.L68
 510:Generated_Source\PSoC5/EEPROM_1.c ****     }
 511:Generated_Source\PSoC5/EEPROM_1.c **** 
 512:Generated_Source\PSoC5/EEPROM_1.c ****     return(status);
 513:Generated_Source\PSoC5/EEPROM_1.c **** }
 593              		.loc 1 513 0
 594 0058 38BD     		pop	{r3, r4, r5, pc}
 595              	.LVL65:
 596              	.L81:
 597 005a 00BF     		.align	2
 598              	.L80:
 599 005c 22470040 		.word	1073760034
 600 0060 00000000 		.word	dieTemperature
 601              		.cfi_endproc
 602              	.LFE8:
 603              		.size	EEPROM_1_StartWrite, .-EEPROM_1_StartWrite
 604              		.section	.text.EEPROM_1_StartErase,"ax",%progbits
 605              		.align	1
 606              		.global	EEPROM_1_StartErase
 607              		.thumb
 608              		.thumb_func
 609              		.type	EEPROM_1_StartErase, %function
 610              	EEPROM_1_StartErase:
 611              	.LFB9:
 514:Generated_Source\PSoC5/EEPROM_1.c **** 
 515:Generated_Source\PSoC5/EEPROM_1.c **** 
ARM GAS  C:\Users\chemi\AppData\Local\Temp\cc4u2oUl.s 			page 21


 516:Generated_Source\PSoC5/EEPROM_1.c **** /*******************************************************************************
 517:Generated_Source\PSoC5/EEPROM_1.c **** * Function Name: EEPROM_1_StartErase
 518:Generated_Source\PSoC5/EEPROM_1.c **** ********************************************************************************
 519:Generated_Source\PSoC5/EEPROM_1.c **** *
 520:Generated_Source\PSoC5/EEPROM_1.c **** * Summary:
 521:Generated_Source\PSoC5/EEPROM_1.c **** *  Starts the EEPROM sector erase. This function does not block.
 522:Generated_Source\PSoC5/EEPROM_1.c **** *  The function returns once the SPC has begun writing the data. This function
 523:Generated_Source\PSoC5/EEPROM_1.c **** *  must be used in combination with EEPROM_1_Query().
 524:Generated_Source\PSoC5/EEPROM_1.c **** *  EEPROM_1_Query() must be called until it returns a status
 525:Generated_Source\PSoC5/EEPROM_1.c **** *  other than CYRET_STARTED. That indicates the erase has been completed.
 526:Generated_Source\PSoC5/EEPROM_1.c **** *  Until EEPROM_1_Query() detects that the erase is
 527:Generated_Source\PSoC5/EEPROM_1.c **** *  complete, the SPC is marked as locked to prevent another SPC operation
 528:Generated_Source\PSoC5/EEPROM_1.c **** *  from being performed.
 529:Generated_Source\PSoC5/EEPROM_1.c **** *
 530:Generated_Source\PSoC5/EEPROM_1.c **** * Parameters:
 531:Generated_Source\PSoC5/EEPROM_1.c **** *  sectorNumber:  The sector number to erase.
 532:Generated_Source\PSoC5/EEPROM_1.c **** *
 533:Generated_Source\PSoC5/EEPROM_1.c **** * Return:
 534:Generated_Source\PSoC5/EEPROM_1.c **** *  CYRET_STARTED, if the SPC command to erase was successfully started.
 535:Generated_Source\PSoC5/EEPROM_1.c **** *  CYRET_BAD_PARAM, if the parameter sectorNumber is out of range.
 536:Generated_Source\PSoC5/EEPROM_1.c **** *  CYRET_LOCKED, if the SPC is being used.
 537:Generated_Source\PSoC5/EEPROM_1.c **** *  CYRET_UNKNOWN, if there was an SPC error.
 538:Generated_Source\PSoC5/EEPROM_1.c **** *
 539:Generated_Source\PSoC5/EEPROM_1.c **** * Side effects:
 540:Generated_Source\PSoC5/EEPROM_1.c **** *  After calling this API, the device should not be powered down, reset or switched
 541:Generated_Source\PSoC5/EEPROM_1.c **** *  to low power modes until EEPROM operation is complete.
 542:Generated_Source\PSoC5/EEPROM_1.c **** *  Ignoring this recommendation may lead to data corruption or silicon
 543:Generated_Source\PSoC5/EEPROM_1.c **** *  unexpected behavior.
 544:Generated_Source\PSoC5/EEPROM_1.c **** *
 545:Generated_Source\PSoC5/EEPROM_1.c **** *******************************************************************************/
 546:Generated_Source\PSoC5/EEPROM_1.c **** cystatus EEPROM_1_StartErase(uint8 sectorNumber) 
 547:Generated_Source\PSoC5/EEPROM_1.c **** {
 612              		.loc 1 547 0
 613              		.cfi_startproc
 614              		@ args = 0, pretend = 0, frame = 0
 615              		@ frame_needed = 0, uses_anonymous_args = 0
 616              	.LVL66:
 617 0000 10B5     		push	{r4, lr}
 618              		.cfi_def_cfa_offset 8
 619              		.cfi_offset 4, -8
 620              		.cfi_offset 14, -4
 621              		.loc 1 547 0
 622 0002 0446     		mov	r4, r0
 548:Generated_Source\PSoC5/EEPROM_1.c ****     cystatus status;
 549:Generated_Source\PSoC5/EEPROM_1.c ****     
 550:Generated_Source\PSoC5/EEPROM_1.c ****     CySpcStart();
 623              		.loc 1 550 0
 624 0004 FFF7FEFF 		bl	CySpcStart
 625              	.LVL67:
 551:Generated_Source\PSoC5/EEPROM_1.c **** 
 552:Generated_Source\PSoC5/EEPROM_1.c ****     if(sectorNumber < (uint8) CY_EEPROM_NUMBER_ARRAYS)
 626              		.loc 1 552 0
 627 0008 5CB9     		cbnz	r4, .L84
 553:Generated_Source\PSoC5/EEPROM_1.c ****     {
 554:Generated_Source\PSoC5/EEPROM_1.c ****         /* See if we can get SPC. */
 555:Generated_Source\PSoC5/EEPROM_1.c ****         if(CySpcLock() == CYRET_SUCCESS)
 628              		.loc 1 555 0
ARM GAS  C:\Users\chemi\AppData\Local\Temp\cc4u2oUl.s 			page 22


 629 000a FFF7FEFF 		bl	CySpcLock
 630              	.LVL68:
 631 000e 0146     		mov	r1, r0
 632 0010 48B9     		cbnz	r0, .L85
 633              	.LVL69:
 556:Generated_Source\PSoC5/EEPROM_1.c ****         {
 557:Generated_Source\PSoC5/EEPROM_1.c ****             /* Plan for failure */
 558:Generated_Source\PSoC5/EEPROM_1.c ****             status = CYRET_UNKNOWN;
 559:Generated_Source\PSoC5/EEPROM_1.c **** 
 560:Generated_Source\PSoC5/EEPROM_1.c ****             /* Command to load a row of data */
 561:Generated_Source\PSoC5/EEPROM_1.c ****             if(CySpcEraseSector(CY_SPC_FIRST_EE_ARRAYID, sectorNumber) == CYRET_STARTED)
 634              		.loc 1 561 0
 635 0012 4020     		movs	r0, #64
 636 0014 FFF7FEFF 		bl	CySpcEraseSector
 637              	.LVL70:
 638 0018 0738     		subs	r0, r0, #7
 639 001a 18BF     		it	ne
 640 001c 4FF0FF30 		movne	r0, #-1
 641 0020 10BD     		pop	{r4, pc}
 642              	.LVL71:
 643              	.L84:
 562:Generated_Source\PSoC5/EEPROM_1.c ****             {
 563:Generated_Source\PSoC5/EEPROM_1.c ****                 status = CYRET_SUCCESS;
 564:Generated_Source\PSoC5/EEPROM_1.c ****             }
 565:Generated_Source\PSoC5/EEPROM_1.c ****         }
 566:Generated_Source\PSoC5/EEPROM_1.c ****         else
 567:Generated_Source\PSoC5/EEPROM_1.c ****         {
 568:Generated_Source\PSoC5/EEPROM_1.c ****             status = CYRET_LOCKED;
 569:Generated_Source\PSoC5/EEPROM_1.c ****         }
 570:Generated_Source\PSoC5/EEPROM_1.c ****     }
 571:Generated_Source\PSoC5/EEPROM_1.c ****     else
 572:Generated_Source\PSoC5/EEPROM_1.c ****     {
 573:Generated_Source\PSoC5/EEPROM_1.c ****         status = CYRET_BAD_PARAM;
 644              		.loc 1 573 0
 645 0022 0120     		movs	r0, #1
 646 0024 10BD     		pop	{r4, pc}
 647              	.L85:
 568:Generated_Source\PSoC5/EEPROM_1.c ****         }
 648              		.loc 1 568 0
 649 0026 0420     		movs	r0, #4
 650              	.LVL72:
 574:Generated_Source\PSoC5/EEPROM_1.c ****     }
 575:Generated_Source\PSoC5/EEPROM_1.c **** 
 576:Generated_Source\PSoC5/EEPROM_1.c ****     return(status);
 577:Generated_Source\PSoC5/EEPROM_1.c **** }
 651              		.loc 1 577 0
 652 0028 10BD     		pop	{r4, pc}
 653              		.cfi_endproc
 654              	.LFE9:
 655              		.size	EEPROM_1_StartErase, .-EEPROM_1_StartErase
 656              		.section	.text.EEPROM_1_Query,"ax",%progbits
 657              		.align	1
 658              		.global	EEPROM_1_Query
 659              		.thumb
 660              		.thumb_func
 661              		.type	EEPROM_1_Query, %function
 662              	EEPROM_1_Query:
ARM GAS  C:\Users\chemi\AppData\Local\Temp\cc4u2oUl.s 			page 23


 663              	.LFB10:
 578:Generated_Source\PSoC5/EEPROM_1.c **** 
 579:Generated_Source\PSoC5/EEPROM_1.c **** 
 580:Generated_Source\PSoC5/EEPROM_1.c **** /*******************************************************************************
 581:Generated_Source\PSoC5/EEPROM_1.c **** * Function Name: EEPROM_1_Query
 582:Generated_Source\PSoC5/EEPROM_1.c **** ********************************************************************************
 583:Generated_Source\PSoC5/EEPROM_1.c **** *
 584:Generated_Source\PSoC5/EEPROM_1.c **** * Summary:
 585:Generated_Source\PSoC5/EEPROM_1.c **** *  Checks the status of an earlier call to EEPROM_1_StartWrite() or
 586:Generated_Source\PSoC5/EEPROM_1.c **** *  EEPROM_1_StartErase().
 587:Generated_Source\PSoC5/EEPROM_1.c **** *  This function must be called until it returns a value other than
 588:Generated_Source\PSoC5/EEPROM_1.c **** *  CYRET_STARTED. Once that occurs, the write or erase has been completed and
 589:Generated_Source\PSoC5/EEPROM_1.c **** *  the SPC is unlocked.
 590:Generated_Source\PSoC5/EEPROM_1.c **** *
 591:Generated_Source\PSoC5/EEPROM_1.c **** * Parameters:
 592:Generated_Source\PSoC5/EEPROM_1.c **** *  None
 593:Generated_Source\PSoC5/EEPROM_1.c **** *
 594:Generated_Source\PSoC5/EEPROM_1.c **** * Return:
 595:Generated_Source\PSoC5/EEPROM_1.c **** *  CYRET_STARTED, if the SPC command is still processing.
 596:Generated_Source\PSoC5/EEPROM_1.c **** *  CYRET_SUCCESS, if the operation was completed successfully.
 597:Generated_Source\PSoC5/EEPROM_1.c **** *  CYRET_UNKNOWN, if there was an SPC error.
 598:Generated_Source\PSoC5/EEPROM_1.c **** *
 599:Generated_Source\PSoC5/EEPROM_1.c **** *******************************************************************************/
 600:Generated_Source\PSoC5/EEPROM_1.c **** cystatus EEPROM_1_Query(void) 
 601:Generated_Source\PSoC5/EEPROM_1.c **** {
 664              		.loc 1 601 0
 665              		.cfi_startproc
 666              		@ args = 0, pretend = 0, frame = 0
 667              		@ frame_needed = 0, uses_anonymous_args = 0
 668 0000 10B5     		push	{r4, lr}
 669              		.cfi_def_cfa_offset 8
 670              		.cfi_offset 4, -8
 671              		.cfi_offset 14, -4
 602:Generated_Source\PSoC5/EEPROM_1.c ****     cystatus status;
 603:Generated_Source\PSoC5/EEPROM_1.c ****     
 604:Generated_Source\PSoC5/EEPROM_1.c ****     CySpcStart();
 672              		.loc 1 604 0
 673 0002 FFF7FEFF 		bl	CySpcStart
 674              	.LVL73:
 605:Generated_Source\PSoC5/EEPROM_1.c **** 
 606:Generated_Source\PSoC5/EEPROM_1.c ****     /* Check if SPC is idle */
 607:Generated_Source\PSoC5/EEPROM_1.c ****     if(CY_SPC_IDLE)
 675              		.loc 1 607 0
 676 0006 0B4B     		ldr	r3, .L91
 677 0008 1A78     		ldrb	r2, [r3]	@ zero_extendqisi2
 678 000a 9107     		lsls	r1, r2, #30
 679 000c 0ED5     		bpl	.L89
 608:Generated_Source\PSoC5/EEPROM_1.c ****     {
 609:Generated_Source\PSoC5/EEPROM_1.c ****         /* SPC is idle now */
 610:Generated_Source\PSoC5/EEPROM_1.c ****         if(CY_SPC_STATUS_SUCCESS == CY_SPC_READ_STATUS)
 680              		.loc 1 610 0
 681 000e 1A78     		ldrb	r2, [r3]	@ zero_extendqisi2
 682 0010 9207     		lsls	r2, r2, #30
 683 0012 06D5     		bpl	.L90
 684              		.loc 1 610 0 is_stmt 0 discriminator 1
 685 0014 1B78     		ldrb	r3, [r3]	@ zero_extendqisi2
 686 0016 9B08     		lsrs	r3, r3, #2
ARM GAS  C:\Users\chemi\AppData\Local\Temp\cc4u2oUl.s 			page 24


 687 0018 14BF     		ite	ne
 688 001a 4FF0FF34 		movne	r4, #-1
 689 001e 0024     		moveq	r4, #0
 690 0020 01E0     		b	.L88
 691              	.L90:
 611:Generated_Source\PSoC5/EEPROM_1.c ****         {
 612:Generated_Source\PSoC5/EEPROM_1.c ****             status = CYRET_SUCCESS;
 613:Generated_Source\PSoC5/EEPROM_1.c ****         }
 614:Generated_Source\PSoC5/EEPROM_1.c ****         else
 615:Generated_Source\PSoC5/EEPROM_1.c ****         {
 616:Generated_Source\PSoC5/EEPROM_1.c ****             status = CYRET_UNKNOWN;
 692              		.loc 1 616 0 is_stmt 1
 693 0022 4FF0FF34 		mov	r4, #-1
 694              	.L88:
 695              	.LVL74:
 617:Generated_Source\PSoC5/EEPROM_1.c ****         }
 618:Generated_Source\PSoC5/EEPROM_1.c **** 
 619:Generated_Source\PSoC5/EEPROM_1.c ****         /* Unlock SPC so that someone else can use it. */
 620:Generated_Source\PSoC5/EEPROM_1.c ****         CySpcUnlock();
 696              		.loc 1 620 0
 697 0026 FFF7FEFF 		bl	CySpcUnlock
 698              	.LVL75:
 699 002a 00E0     		b	.L87
 700              	.LVL76:
 701              	.L89:
 621:Generated_Source\PSoC5/EEPROM_1.c ****     }
 622:Generated_Source\PSoC5/EEPROM_1.c ****     else
 623:Generated_Source\PSoC5/EEPROM_1.c ****     {
 624:Generated_Source\PSoC5/EEPROM_1.c ****         status = CYRET_STARTED;
 702              		.loc 1 624 0
 703 002c 0724     		movs	r4, #7
 704              	.L87:
 705              	.LVL77:
 625:Generated_Source\PSoC5/EEPROM_1.c ****     }
 626:Generated_Source\PSoC5/EEPROM_1.c **** 
 627:Generated_Source\PSoC5/EEPROM_1.c ****     return(status);
 628:Generated_Source\PSoC5/EEPROM_1.c **** }
 706              		.loc 1 628 0
 707 002e 2046     		mov	r0, r4
 708 0030 10BD     		pop	{r4, pc}
 709              	.LVL78:
 710              	.L92:
 711 0032 00BF     		.align	2
 712              	.L91:
 713 0034 22470040 		.word	1073760034
 714              		.cfi_endproc
 715              	.LFE10:
 716              		.size	EEPROM_1_Query, .-EEPROM_1_Query
 717              		.section	.text.EEPROM_1_ByteWritePos,"ax",%progbits
 718              		.align	1
 719              		.global	EEPROM_1_ByteWritePos
 720              		.thumb
 721              		.thumb_func
 722              		.type	EEPROM_1_ByteWritePos, %function
 723              	EEPROM_1_ByteWritePos:
 724              	.LFB11:
 629:Generated_Source\PSoC5/EEPROM_1.c **** 
ARM GAS  C:\Users\chemi\AppData\Local\Temp\cc4u2oUl.s 			page 25


 630:Generated_Source\PSoC5/EEPROM_1.c **** 
 631:Generated_Source\PSoC5/EEPROM_1.c **** /*******************************************************************************
 632:Generated_Source\PSoC5/EEPROM_1.c **** * Function Name: EEPROM_1_ByteWritePos
 633:Generated_Source\PSoC5/EEPROM_1.c **** ********************************************************************************
 634:Generated_Source\PSoC5/EEPROM_1.c **** *
 635:Generated_Source\PSoC5/EEPROM_1.c **** * Summary:
 636:Generated_Source\PSoC5/EEPROM_1.c **** *  Writes a byte of data to the EEPROM. This is a blocking call. It will not
 637:Generated_Source\PSoC5/EEPROM_1.c **** *  return until the write operation succeeds or fails.
 638:Generated_Source\PSoC5/EEPROM_1.c **** *
 639:Generated_Source\PSoC5/EEPROM_1.c **** * Parameters:
 640:Generated_Source\PSoC5/EEPROM_1.c **** *  dataByte:   The byte of data to write to the EEPROM.
 641:Generated_Source\PSoC5/EEPROM_1.c **** *  rowNumber:  The EEPROM row number to program.
 642:Generated_Source\PSoC5/EEPROM_1.c **** *  byteNumber: The byte number within the row to program.
 643:Generated_Source\PSoC5/EEPROM_1.c **** *
 644:Generated_Source\PSoC5/EEPROM_1.c **** * Return:
 645:Generated_Source\PSoC5/EEPROM_1.c **** *  CYRET_SUCCESS, if the operation was successful.
 646:Generated_Source\PSoC5/EEPROM_1.c **** *  CYRET_BAD_PARAM, if the parameter rowNumber or byteNumber is out of range.
 647:Generated_Source\PSoC5/EEPROM_1.c **** *  CYRET_LOCKED, if the SPC is being used.
 648:Generated_Source\PSoC5/EEPROM_1.c **** *  CYRET_UNKNOWN, if there was an SPC error.
 649:Generated_Source\PSoC5/EEPROM_1.c **** *
 650:Generated_Source\PSoC5/EEPROM_1.c **** *******************************************************************************/
 651:Generated_Source\PSoC5/EEPROM_1.c **** cystatus EEPROM_1_ByteWritePos(uint8 dataByte, uint8 rowNumber, uint8 byteNumber) \
 652:Generated_Source\PSoC5/EEPROM_1.c **** 
 653:Generated_Source\PSoC5/EEPROM_1.c **** {
 725              		.loc 1 653 0
 726              		.cfi_startproc
 727              		@ args = 0, pretend = 0, frame = 8
 728              		@ frame_needed = 0, uses_anonymous_args = 0
 729              	.LVL79:
 730 0000 37B5     		push	{r0, r1, r2, r4, r5, lr}
 731              		.cfi_def_cfa_offset 24
 732              		.cfi_offset 4, -12
 733              		.cfi_offset 5, -8
 734              		.cfi_offset 14, -4
 735              		.loc 1 653 0
 736 0002 0D46     		mov	r5, r1
 737 0004 1446     		mov	r4, r2
 738 0006 8DF80700 		strb	r0, [sp, #7]
 654:Generated_Source\PSoC5/EEPROM_1.c ****     cystatus status;
 655:Generated_Source\PSoC5/EEPROM_1.c **** 
 656:Generated_Source\PSoC5/EEPROM_1.c ****     /* Start SPC */
 657:Generated_Source\PSoC5/EEPROM_1.c ****     CySpcStart();
 739              		.loc 1 657 0
 740 000a FFF7FEFF 		bl	CySpcStart
 741              	.LVL80:
 658:Generated_Source\PSoC5/EEPROM_1.c **** 
 659:Generated_Source\PSoC5/EEPROM_1.c ****     if((rowNumber < (uint8) CY_EEPROM_NUMBER_ROWS) && (byteNumber < (uint8) SIZEOF_EEPROM_ROW))
 742              		.loc 1 659 0
 743 000e 2B06     		lsls	r3, r5, #24
 744 0010 36D4     		bmi	.L101
 745              		.loc 1 659 0 is_stmt 0 discriminator 1
 746 0012 0F2C     		cmp	r4, #15
 747 0014 34D8     		bhi	.L101
 660:Generated_Source\PSoC5/EEPROM_1.c ****     {
 661:Generated_Source\PSoC5/EEPROM_1.c ****         /* See if we can get SPC. */
 662:Generated_Source\PSoC5/EEPROM_1.c ****         if(CySpcLock() == CYRET_SUCCESS)
 748              		.loc 1 662 0 is_stmt 1
ARM GAS  C:\Users\chemi\AppData\Local\Temp\cc4u2oUl.s 			page 26


 749 0016 FFF7FEFF 		bl	CySpcLock
 750              	.LVL81:
 751 001a 0028     		cmp	r0, #0
 752 001c 32D1     		bne	.L102
 753              	.LVL82:
 663:Generated_Source\PSoC5/EEPROM_1.c ****         {
 664:Generated_Source\PSoC5/EEPROM_1.c ****             /* Plan for failure */
 665:Generated_Source\PSoC5/EEPROM_1.c ****             status = CYRET_UNKNOWN;
 666:Generated_Source\PSoC5/EEPROM_1.c **** 
 667:Generated_Source\PSoC5/EEPROM_1.c ****             /* Command to load byte of data */
 668:Generated_Source\PSoC5/EEPROM_1.c ****             if(CySpcLoadMultiByte(CY_SPC_FIRST_EE_ARRAYID, (uint16)byteNumber, &dataByte,\
 754              		.loc 1 668 0
 755 001e 0123     		movs	r3, #1
 756 0020 0DF10702 		add	r2, sp, #7
 757              	.LVL83:
 758 0024 2146     		mov	r1, r4
 759 0026 4020     		movs	r0, #64
 760 0028 FFF7FEFF 		bl	CySpcLoadMultiByte
 761              	.LVL84:
 762 002c 0728     		cmp	r0, #7
 763 002e 08D1     		bne	.L97
 669:Generated_Source\PSoC5/EEPROM_1.c ****                                                                 EEPROM_1_SPC_BYTE_WRITE_SIZE) == CY
 670:Generated_Source\PSoC5/EEPROM_1.c ****             {
 671:Generated_Source\PSoC5/EEPROM_1.c ****                 while(CY_SPC_BUSY)
 764              		.loc 1 671 0
 765 0030 164A     		ldr	r2, .L117
 766              	.L95:
 767              		.loc 1 671 0 is_stmt 0 discriminator 1
 768 0032 1378     		ldrb	r3, [r2]	@ zero_extendqisi2
 769 0034 154C     		ldr	r4, .L117
 770 0036 13F0020F 		tst	r3, #2
 771 003a FAD0     		beq	.L95
 672:Generated_Source\PSoC5/EEPROM_1.c ****                 {
 673:Generated_Source\PSoC5/EEPROM_1.c ****                     /* Wait until SPC becomes idle */
 674:Generated_Source\PSoC5/EEPROM_1.c ****                 }
 675:Generated_Source\PSoC5/EEPROM_1.c **** 
 676:Generated_Source\PSoC5/EEPROM_1.c ****                 /* SPC is idle now */
 677:Generated_Source\PSoC5/EEPROM_1.c ****                 if(CY_SPC_STATUS_SUCCESS == CY_SPC_READ_STATUS)
 772              		.loc 1 677 0 is_stmt 1
 773 003c 2378     		ldrb	r3, [r4]	@ zero_extendqisi2
 774 003e 9807     		lsls	r0, r3, #30
 775 0040 02D4     		bmi	.L116
 776              	.LVL85:
 777              	.L97:
 665:Generated_Source\PSoC5/EEPROM_1.c **** 
 778              		.loc 1 665 0
 779 0042 4FF0FF34 		mov	r4, #-1
 780 0046 18E0     		b	.L96
 781              	.LVL86:
 782              	.L116:
 783              		.loc 1 677 0 discriminator 1
 784 0048 2378     		ldrb	r3, [r4]	@ zero_extendqisi2
 785 004a 9B08     		lsrs	r3, r3, #2
 786 004c F9D1     		bne	.L97
 787              	.LVL87:
 678:Generated_Source\PSoC5/EEPROM_1.c ****                 {
 679:Generated_Source\PSoC5/EEPROM_1.c ****                     status = CYRET_SUCCESS;
ARM GAS  C:\Users\chemi\AppData\Local\Temp\cc4u2oUl.s 			page 27


 680:Generated_Source\PSoC5/EEPROM_1.c ****                 }
 681:Generated_Source\PSoC5/EEPROM_1.c **** 
 682:Generated_Source\PSoC5/EEPROM_1.c ****                 /* Command to erase and program the row. */
 683:Generated_Source\PSoC5/EEPROM_1.c ****                 if(status == CYRET_SUCCESS)
 684:Generated_Source\PSoC5/EEPROM_1.c ****                 {
 685:Generated_Source\PSoC5/EEPROM_1.c ****                     if(CySpcWriteRow(CY_SPC_FIRST_EE_ARRAYID, (uint16)rowNumber, dieTemperature[0u]
 788              		.loc 1 685 0
 789 004e 104A     		ldr	r2, .L117+4
 790 0050 2946     		mov	r1, r5
 791 0052 5378     		ldrb	r3, [r2, #1]	@ zero_extendqisi2
 792 0054 4020     		movs	r0, #64
 793 0056 1278     		ldrb	r2, [r2]	@ zero_extendqisi2
 794 0058 FFF7FEFF 		bl	CySpcWriteRow
 795              	.LVL88:
 796 005c 0728     		cmp	r0, #7
 797 005e F0D1     		bne	.L97
 798              	.L99:
 686:Generated_Source\PSoC5/EEPROM_1.c ****                     dieTemperature[1u]) == CYRET_STARTED)
 687:Generated_Source\PSoC5/EEPROM_1.c ****                     {
 688:Generated_Source\PSoC5/EEPROM_1.c ****                         /* Plan for failure */
 689:Generated_Source\PSoC5/EEPROM_1.c ****                         status = CYRET_UNKNOWN;
 690:Generated_Source\PSoC5/EEPROM_1.c **** 
 691:Generated_Source\PSoC5/EEPROM_1.c ****                         while(CY_SPC_BUSY)
 799              		.loc 1 691 0 discriminator 1
 800 0060 2278     		ldrb	r2, [r4]	@ zero_extendqisi2
 801 0062 0A4B     		ldr	r3, .L117
 802 0064 9107     		lsls	r1, r2, #30
 803 0066 FBD5     		bpl	.L99
 692:Generated_Source\PSoC5/EEPROM_1.c ****                         {
 693:Generated_Source\PSoC5/EEPROM_1.c ****                             /* Wait until SPC becomes idle */
 694:Generated_Source\PSoC5/EEPROM_1.c ****                         }
 695:Generated_Source\PSoC5/EEPROM_1.c **** 
 696:Generated_Source\PSoC5/EEPROM_1.c ****                         /* SPC is idle now */
 697:Generated_Source\PSoC5/EEPROM_1.c ****                         if(CY_SPC_STATUS_SUCCESS == CY_SPC_READ_STATUS)
 804              		.loc 1 697 0
 805 0068 1A78     		ldrb	r2, [r3]	@ zero_extendqisi2
 806 006a 9207     		lsls	r2, r2, #30
 807 006c E9D5     		bpl	.L97
 808              		.loc 1 697 0 is_stmt 0 discriminator 1
 809 006e 1B78     		ldrb	r3, [r3]	@ zero_extendqisi2
 810 0070 9B08     		lsrs	r3, r3, #2
 811 0072 14BF     		ite	ne
 812 0074 4FF0FF34 		movne	r4, #-1
 813 0078 0024     		moveq	r4, #0
 814              	.LVL89:
 815              	.L96:
 698:Generated_Source\PSoC5/EEPROM_1.c ****                         {
 699:Generated_Source\PSoC5/EEPROM_1.c ****                             status = CYRET_SUCCESS;
 700:Generated_Source\PSoC5/EEPROM_1.c ****                         }
 701:Generated_Source\PSoC5/EEPROM_1.c ****                     }
 702:Generated_Source\PSoC5/EEPROM_1.c ****                     else
 703:Generated_Source\PSoC5/EEPROM_1.c ****                     {
 704:Generated_Source\PSoC5/EEPROM_1.c ****                         status = CYRET_UNKNOWN;
 705:Generated_Source\PSoC5/EEPROM_1.c ****                     }
 706:Generated_Source\PSoC5/EEPROM_1.c ****                 }
 707:Generated_Source\PSoC5/EEPROM_1.c ****                 else
 708:Generated_Source\PSoC5/EEPROM_1.c ****                 {
ARM GAS  C:\Users\chemi\AppData\Local\Temp\cc4u2oUl.s 			page 28


 709:Generated_Source\PSoC5/EEPROM_1.c ****                     status = CYRET_UNKNOWN;
 710:Generated_Source\PSoC5/EEPROM_1.c ****                 }
 711:Generated_Source\PSoC5/EEPROM_1.c ****             }
 712:Generated_Source\PSoC5/EEPROM_1.c **** 
 713:Generated_Source\PSoC5/EEPROM_1.c ****             /* Unlock SPC so that someone else can use it. */
 714:Generated_Source\PSoC5/EEPROM_1.c ****             CySpcUnlock();
 816              		.loc 1 714 0 is_stmt 1
 817 007a FFF7FEFF 		bl	CySpcUnlock
 818              	.LVL90:
 819 007e 02E0     		b	.L115
 820              	.LVL91:
 821              	.L101:
 715:Generated_Source\PSoC5/EEPROM_1.c ****         }
 716:Generated_Source\PSoC5/EEPROM_1.c ****         else
 717:Generated_Source\PSoC5/EEPROM_1.c ****         {
 718:Generated_Source\PSoC5/EEPROM_1.c ****             status = CYRET_LOCKED;
 719:Generated_Source\PSoC5/EEPROM_1.c ****         }
 720:Generated_Source\PSoC5/EEPROM_1.c ****     }
 721:Generated_Source\PSoC5/EEPROM_1.c ****     else
 722:Generated_Source\PSoC5/EEPROM_1.c ****     {
 723:Generated_Source\PSoC5/EEPROM_1.c ****         status = CYRET_BAD_PARAM;
 822              		.loc 1 723 0
 823 0080 0124     		movs	r4, #1
 824 0082 00E0     		b	.L115
 825              	.L102:
 718:Generated_Source\PSoC5/EEPROM_1.c ****         }
 826              		.loc 1 718 0
 827 0084 0424     		movs	r4, #4
 828              	.LVL92:
 829              	.L115:
 724:Generated_Source\PSoC5/EEPROM_1.c ****     }
 725:Generated_Source\PSoC5/EEPROM_1.c **** 
 726:Generated_Source\PSoC5/EEPROM_1.c ****     return(status);
 727:Generated_Source\PSoC5/EEPROM_1.c **** }
 830              		.loc 1 727 0
 831 0086 2046     		mov	r0, r4
 832 0088 03B0     		add	sp, sp, #12
 833              		.cfi_def_cfa_offset 12
 834              		@ sp needed
 835 008a 30BD     		pop	{r4, r5, pc}
 836              	.LVL93:
 837              	.L118:
 838              		.align	2
 839              	.L117:
 840 008c 22470040 		.word	1073760034
 841 0090 00000000 		.word	dieTemperature
 842              		.cfi_endproc
 843              	.LFE11:
 844              		.size	EEPROM_1_ByteWritePos, .-EEPROM_1_ByteWritePos
 845              		.text
 846              	.Letext0:
 847              		.file 2 "Generated_Source\\PSoC5\\cytypes.h"
 848              		.file 3 "Generated_Source\\PSoC5\\CyFlash.h"
 849              		.file 4 "Generated_Source\\PSoC5\\CySpc.h"
 850              		.file 5 "Generated_Source\\PSoC5\\CyLib.h"