ARM GAS  C:\Users\chemi\AppData\Local\Temp\ccze3wld.s 			page 1


   1              		.syntax unified
   2              		.cpu cortex-m3
   3              		.fpu softvfp
   4              		.eabi_attribute 20, 1
   5              		.eabi_attribute 21, 1
   6              		.eabi_attribute 23, 3
   7              		.eabi_attribute 24, 1
   8              		.eabi_attribute 25, 1
   9              		.eabi_attribute 26, 1
  10              		.eabi_attribute 30, 4
  11              		.eabi_attribute 34, 1
  12              		.eabi_attribute 18, 4
  13              		.thumb
  14              		.syntax unified
  15              		.file	"FastPID.c"
  16              		.text
  17              	.Ltext0:
  18              		.cfi_sections	.debug_frame
  19              		.section	.text.pid_set_cfg_err,"ax",%progbits
  20              		.align	1
  21              		.global	pid_set_cfg_err
  22              		.thumb
  23              		.thumb_func
  24              		.type	pid_set_cfg_err, %function
  25              	pid_set_cfg_err:
  26              	.LFB1:
  27              		.file 1 "..\\common\\ud3core\\helper\\FastPID.c"
   1:..\common\ud3core\helper/FastPID.c **** /**
   2:..\common\ud3core\helper/FastPID.c ****  * \file FastPID.c
   3:..\common\ud3core\helper/FastPID.c ****  *
   4:..\common\ud3core\helper/FastPID.c ****  * This is a port of Mike Matera's
   5:..\common\ud3core\helper/FastPID.c ****  * [FastPID](https://github.com/mike-matera/FastPID) code.  From Mike's
   6:..\common\ud3core\helper/FastPID.c ****  * `README`:
   7:..\common\ud3core\helper/FastPID.c ****  *
   8:..\common\ud3core\helper/FastPID.c ****  * > This PID controller is faster than alternatives for Arduino because it avoids
   9:..\common\ud3core\helper/FastPID.c ****  * > expensive floating point operations. The PID controller is configured with
  10:..\common\ud3core\helper/FastPID.c ****  * > floating point coefficients and translates them to fixed point internally. This
  11:..\common\ud3core\helper/FastPID.c ****  * > imposes limitations on the domain of the coefficients. Setting the I and D
  12:..\common\ud3core\helper/FastPID.c ****  * > terms to zero makes the controller run faster. The controller is configured to
  13:..\common\ud3core\helper/FastPID.c ****  * > run at a fixed frequency and calling code is responsible for running at that
  14:..\common\ud3core\helper/FastPID.c ****  * > frequency. The Ki and Kd parameters are scaled by the frequency to save time
  15:..\common\ud3core\helper/FastPID.c ****  * > during the step() operation.
  16:..\common\ud3core\helper/FastPID.c ****  *
  17:..\common\ud3core\helper/FastPID.c ****  * (See FastPID.h for function documentation.)
  18:..\common\ud3core\helper/FastPID.c ****  */
  19:..\common\ud3core\helper/FastPID.c **** 
  20:..\common\ud3core\helper/FastPID.c **** #include <stdint.h>
  21:..\common\ud3core\helper/FastPID.c **** #include <stdbool.h>
  22:..\common\ud3core\helper/FastPID.c **** 
  23:..\common\ud3core\helper/FastPID.c **** #include "FastPID.h"
  24:..\common\ud3core\helper/FastPID.c **** 
  25:..\common\ud3core\helper/FastPID.c **** void pid_new(FastPID *pid, float kp, float ki, float kd,
  26:..\common\ud3core\helper/FastPID.c ****         float hz, int bits, bool sign) {
  27:..\common\ud3core\helper/FastPID.c ****     pid_configure(pid, kp, ki, kd, hz, bits, sign);
  28:..\common\ud3core\helper/FastPID.c ****     pid_set_anti_windup(pid,-32768,32768);
  29:..\common\ud3core\helper/FastPID.c **** }
  30:..\common\ud3core\helper/FastPID.c **** 
ARM GAS  C:\Users\chemi\AppData\Local\Temp\ccze3wld.s 			page 2


  31:..\common\ud3core\helper/FastPID.c **** void pid_set_cfg_err(FastPID *pid) {
  28              		.loc 1 31 0
  29              		.cfi_startproc
  30              		@ args = 0, pretend = 0, frame = 0
  31              		@ frame_needed = 0, uses_anonymous_args = 0
  32              		@ link register save eliminated.
  33              	.LVL0:
  32:..\common\ud3core\helper/FastPID.c ****   pid->_cfg_err = true;
  34              		.loc 1 32 0
  35 0000 0123     		movs	r3, #1
  36 0002 80F82830 		strb	r3, [r0, #40]
  33:..\common\ud3core\helper/FastPID.c ****   pid->_p = pid->_i = pid->_d = 0;
  37              		.loc 1 33 0
  38 0006 0023     		movs	r3, #0
  39 0008 8360     		str	r3, [r0, #8]
  40 000a 4360     		str	r3, [r0, #4]
  41 000c 0360     		str	r3, [r0]
  42 000e 7047     		bx	lr
  43              		.cfi_endproc
  44              	.LFE1:
  45              		.size	pid_set_cfg_err, .-pid_set_cfg_err
  46              		.global	__aeabi_fcmpgt
  47              		.global	__aeabi_fcmplt
  48              		.global	__aeabi_fmul
  49              		.global	__aeabi_f2uiz
  50              		.global	__aeabi_fcmpeq
  51              		.section	.text.pid_float_to_param,"ax",%progbits
  52              		.align	1
  53              		.global	pid_float_to_param
  54              		.thumb
  55              		.thumb_func
  56              		.type	pid_float_to_param, %function
  57              	pid_float_to_param:
  58              	.LFB2:
  34:..\common\ud3core\helper/FastPID.c **** }
  35:..\common\ud3core\helper/FastPID.c **** 
  36:..\common\ud3core\helper/FastPID.c **** uint32_t pid_float_to_param(FastPID *pid, float in) {
  59              		.loc 1 36 0
  60              		.cfi_startproc
  61              		@ args = 0, pretend = 0, frame = 0
  62              		@ frame_needed = 0, uses_anonymous_args = 0
  63              	.LVL1:
  64 0000 70B5     		push	{r4, r5, r6, lr}
  65              		.cfi_def_cfa_offset 16
  66              		.cfi_offset 4, -16
  67              		.cfi_offset 5, -12
  68              		.cfi_offset 6, -8
  69              		.cfi_offset 14, -4
  70              		.loc 1 36 0
  71 0002 0E46     		mov	r6, r1
  72 0004 0546     		mov	r5, r0
  37:..\common\ud3core\helper/FastPID.c ****   if (in > PARAM_MAX || in < 0) {
  73              		.loc 1 37 0
  74 0006 1249     		ldr	r1, .L15
  75              	.LVL2:
  76 0008 3046     		mov	r0, r6
  77              	.LVL3:
ARM GAS  C:\Users\chemi\AppData\Local\Temp\ccze3wld.s 			page 3


  78 000a FFF7FEFF 		bl	__aeabi_fcmpgt
  79              	.LVL4:
  80 000e 20B9     		cbnz	r0, .L3
  81              		.loc 1 37 0 is_stmt 0 discriminator 1
  82 0010 0021     		movs	r1, #0
  83 0012 3046     		mov	r0, r6
  84 0014 FFF7FEFF 		bl	__aeabi_fcmplt
  85              	.LVL5:
  86 0018 20B1     		cbz	r0, .L11
  87              	.L3:
  88              	.LVL6:
  89              	.LBB24:
  90              	.LBB25:
  32:..\common\ud3core\helper/FastPID.c ****   pid->_p = pid->_i = pid->_d = 0;
  91              		.loc 1 32 0 is_stmt 1
  92 001a 0123     		movs	r3, #1
  93 001c 85F82830 		strb	r3, [r5, #40]
  33:..\common\ud3core\helper/FastPID.c **** }
  94              		.loc 1 33 0
  95 0020 0024     		movs	r4, #0
  96 0022 10E0     		b	.L13
  97              	.LVL7:
  98              	.L11:
  99              	.LBE25:
 100              	.LBE24:
  38:..\common\ud3core\helper/FastPID.c ****     pid_set_cfg_err(pid);
  39:..\common\ud3core\helper/FastPID.c ****     return 0;
  40:..\common\ud3core\helper/FastPID.c ****   }
  41:..\common\ud3core\helper/FastPID.c **** 
  42:..\common\ud3core\helper/FastPID.c ****   uint32_t param = in * PARAM_MULT;
 101              		.loc 1 42 0
 102 0024 4FF08741 		mov	r1, #1132462080
 103 0028 3046     		mov	r0, r6
 104 002a FFF7FEFF 		bl	__aeabi_fmul
 105              	.LVL8:
 106 002e FFF7FEFF 		bl	__aeabi_f2uiz
 107              	.LVL9:
  43:..\common\ud3core\helper/FastPID.c **** 
  44:..\common\ud3core\helper/FastPID.c ****   if (in != 0 && param == 0) {
 108              		.loc 1 44 0
 109 0032 0021     		movs	r1, #0
  42:..\common\ud3core\helper/FastPID.c **** 
 110              		.loc 1 42 0
 111 0034 0446     		mov	r4, r0
 112              	.LVL10:
 113              		.loc 1 44 0
 114 0036 3046     		mov	r0, r6
 115              	.LVL11:
 116 0038 FFF7FEFF 		bl	__aeabi_fcmpeq
 117              	.LVL12:
 118 003c 30B9     		cbnz	r0, .L9
 119              		.loc 1 44 0 is_stmt 0 discriminator 1
 120 003e 2CB9     		cbnz	r4, .L9
 121              	.LVL13:
 122              	.LBB26:
 123              	.LBB27:
 124              	.LBB28:
ARM GAS  C:\Users\chemi\AppData\Local\Temp\ccze3wld.s 			page 4


 125              	.LBB29:
  32:..\common\ud3core\helper/FastPID.c ****   pid->_p = pid->_i = pid->_d = 0;
 126              		.loc 1 32 0 is_stmt 1
 127 0040 0123     		movs	r3, #1
 128 0042 85F82830 		strb	r3, [r5, #40]
 129              	.LVL14:
 130              	.L13:
  33:..\common\ud3core\helper/FastPID.c **** }
 131              		.loc 1 33 0
 132 0046 AC60     		str	r4, [r5, #8]
 133 0048 6C60     		str	r4, [r5, #4]
 134 004a 2C60     		str	r4, [r5]
 135              	.L9:
 136              	.LBE29:
 137              	.LBE28:
 138              	.LBE27:
 139              	.LBE26:
 140 004c 2046     		mov	r0, r4
  45:..\common\ud3core\helper/FastPID.c ****     pid_set_cfg_err(pid);
  46:..\common\ud3core\helper/FastPID.c ****     return 0;
  47:..\common\ud3core\helper/FastPID.c ****   }
  48:..\common\ud3core\helper/FastPID.c ****   
  49:..\common\ud3core\helper/FastPID.c ****   return param;
  50:..\common\ud3core\helper/FastPID.c **** }
 141              		.loc 1 50 0
 142 004e 70BD     		pop	{r4, r5, r6, pc}
 143              	.LVL15:
 144              	.L16:
 145              		.align	2
 146              	.L15:
 147 0050 00007F43 		.word	1132396544
 148              		.cfi_endproc
 149              	.LFE2:
 150              		.size	pid_float_to_param, .-pid_float_to_param
 151              		.section	.text.pid_set_anti_windup,"ax",%progbits
 152              		.align	1
 153              		.global	pid_set_anti_windup
 154              		.thumb
 155              		.thumb_func
 156              		.type	pid_set_anti_windup, %function
 157              	pid_set_anti_windup:
 158              	.LFB3:
  51:..\common\ud3core\helper/FastPID.c **** 
  52:..\common\ud3core\helper/FastPID.c **** void pid_set_anti_windup(FastPID *pid, int32_t min, int32_t max){
 159              		.loc 1 52 0
 160              		.cfi_startproc
 161              		@ args = 0, pretend = 0, frame = 0
 162              		@ frame_needed = 0, uses_anonymous_args = 0
 163              		@ link register save eliminated.
 164              	.LVL16:
  53:..\common\ud3core\helper/FastPID.c ****     pid->_anti_wind_max = max * PARAM_MULT;   
 165              		.loc 1 53 0
 166 0000 1202     		lsls	r2, r2, #8
 167              	.LVL17:
  54:..\common\ud3core\helper/FastPID.c ****     pid->_anti_wind_min = min * PARAM_MULT;
 168              		.loc 1 54 0
 169 0002 0902     		lsls	r1, r1, #8
ARM GAS  C:\Users\chemi\AppData\Local\Temp\ccze3wld.s 			page 5


 170              	.LVL18:
  53:..\common\ud3core\helper/FastPID.c ****     pid->_anti_wind_max = max * PARAM_MULT;   
 171              		.loc 1 53 0
 172 0004 C260     		str	r2, [r0, #12]
 173              		.loc 1 54 0
 174 0006 0161     		str	r1, [r0, #16]
 175 0008 7047     		bx	lr
 176              		.cfi_endproc
 177              	.LFE3:
 178              		.size	pid_set_anti_windup, .-pid_set_anti_windup
 179              		.section	.text.pid_clear,"ax",%progbits
 180              		.align	1
 181              		.global	pid_clear
 182              		.thumb
 183              		.thumb_func
 184              		.type	pid_clear, %function
 185              	pid_clear:
 186              	.LFB4:
  55:..\common\ud3core\helper/FastPID.c **** }
  56:..\common\ud3core\helper/FastPID.c **** 
  57:..\common\ud3core\helper/FastPID.c **** void pid_clear(FastPID *pid) {
 187              		.loc 1 57 0
 188              		.cfi_startproc
 189              		@ args = 0, pretend = 0, frame = 0
 190              		@ frame_needed = 0, uses_anonymous_args = 0
 191              	.LVL19:
 192 0000 30B5     		push	{r4, r5, lr}
 193              		.cfi_def_cfa_offset 12
 194              		.cfi_offset 4, -12
 195              		.cfi_offset 5, -8
 196              		.cfi_offset 14, -4
  58:..\common\ud3core\helper/FastPID.c ****   pid->_last_sp = 0; 
 197              		.loc 1 58 0
 198 0002 0023     		movs	r3, #0
  59:..\common\ud3core\helper/FastPID.c ****   pid->_last_out = 0;
  60:..\common\ud3core\helper/FastPID.c ****   pid->_sum = 0; 
 199              		.loc 1 60 0
 200 0004 0024     		movs	r4, #0
 201 0006 0025     		movs	r5, #0
  58:..\common\ud3core\helper/FastPID.c ****   pid->_last_sp = 0; 
 202              		.loc 1 58 0
 203 0008 4385     		strh	r3, [r0, #42]	@ movhi
  59:..\common\ud3core\helper/FastPID.c ****   pid->_last_out = 0;
 204              		.loc 1 59 0
 205 000a 8385     		strh	r3, [r0, #44]	@ movhi
 206              		.loc 1 60 0
 207 000c C0E90C45 		strd	r4, [r0, #48]
  61:..\common\ud3core\helper/FastPID.c ****   pid->_last_err = 0;
 208              		.loc 1 61 0
 209 0010 8363     		str	r3, [r0, #56]
  62:..\common\ud3core\helper/FastPID.c ****   pid->_cfg_err = false;
 210              		.loc 1 62 0
 211 0012 80F82830 		strb	r3, [r0, #40]
 212 0016 30BD     		pop	{r4, r5, pc}
 213              		.cfi_endproc
 214              	.LFE4:
 215              		.size	pid_clear, .-pid_clear
ARM GAS  C:\Users\chemi\AppData\Local\Temp\ccze3wld.s 			page 6


 216              		.global	__aeabi_fdiv
 217              		.section	.text.pid_set_coefficients,"ax",%progbits
 218              		.align	1
 219              		.global	pid_set_coefficients
 220              		.thumb
 221              		.thumb_func
 222              		.type	pid_set_coefficients, %function
 223              	pid_set_coefficients:
 224              	.LFB5:
  63:..\common\ud3core\helper/FastPID.c **** } 
  64:..\common\ud3core\helper/FastPID.c **** 
  65:..\common\ud3core\helper/FastPID.c **** bool pid_set_coefficients(FastPID *pid, float kp, float ki, float kd, float hz) {
 225              		.loc 1 65 0
 226              		.cfi_startproc
 227              		@ args = 4, pretend = 0, frame = 0
 228              		@ frame_needed = 0, uses_anonymous_args = 0
 229              	.LVL20:
 230 0000 70B5     		push	{r4, r5, r6, lr}
 231              		.cfi_def_cfa_offset 16
 232              		.cfi_offset 4, -16
 233              		.cfi_offset 5, -12
 234              		.cfi_offset 6, -8
 235              		.cfi_offset 14, -4
 236              		.loc 1 65 0
 237 0002 0446     		mov	r4, r0
 238 0004 1646     		mov	r6, r2
 239 0006 1D46     		mov	r5, r3
  66:..\common\ud3core\helper/FastPID.c ****   pid->_p = pid_float_to_param(pid, kp);
 240              		.loc 1 66 0
 241 0008 FFF7FEFF 		bl	pid_float_to_param
 242              	.LVL21:
  67:..\common\ud3core\helper/FastPID.c ****   pid->_i = pid_float_to_param(pid, ki / hz);
 243              		.loc 1 67 0
 244 000c 0499     		ldr	r1, [sp, #16]	@ float
  66:..\common\ud3core\helper/FastPID.c ****   pid->_p = pid_float_to_param(pid, kp);
 245              		.loc 1 66 0
 246 000e 2060     		str	r0, [r4]
 247              		.loc 1 67 0
 248 0010 3046     		mov	r0, r6
 249 0012 FFF7FEFF 		bl	__aeabi_fdiv
 250              	.LVL22:
 251 0016 0146     		mov	r1, r0
 252 0018 2046     		mov	r0, r4
 253 001a FFF7FEFF 		bl	pid_float_to_param
 254              	.LVL23:
  68:..\common\ud3core\helper/FastPID.c ****   pid->_d = pid_float_to_param(pid, kd * hz);
 255              		.loc 1 68 0
 256 001e 2946     		mov	r1, r5
  67:..\common\ud3core\helper/FastPID.c ****   pid->_i = pid_float_to_param(pid, ki / hz);
 257              		.loc 1 67 0
 258 0020 6060     		str	r0, [r4, #4]
 259              		.loc 1 68 0
 260 0022 0498     		ldr	r0, [sp, #16]	@ float
 261 0024 FFF7FEFF 		bl	__aeabi_fmul
 262              	.LVL24:
 263 0028 0146     		mov	r1, r0
 264 002a 2046     		mov	r0, r4
ARM GAS  C:\Users\chemi\AppData\Local\Temp\ccze3wld.s 			page 7


 265 002c FFF7FEFF 		bl	pid_float_to_param
 266              	.LVL25:
 267 0030 A060     		str	r0, [r4, #8]
  69:..\common\ud3core\helper/FastPID.c ****   return ! pid->_cfg_err;
 268              		.loc 1 69 0
 269 0032 94F82800 		ldrb	r0, [r4, #40]	@ zero_extendqisi2
  70:..\common\ud3core\helper/FastPID.c **** }
 270              		.loc 1 70 0
 271 0036 80F00100 		eor	r0, r0, #1
 272 003a 70BD     		pop	{r4, r5, r6, pc}
 273              		.cfi_endproc
 274              	.LFE5:
 275              		.size	pid_set_coefficients, .-pid_set_coefficients
 276              		.global	__aeabi_llsr
 277              		.section	.text.pid_set_output,"ax",%progbits
 278              		.align	1
 279              		.global	pid_set_output
 280              		.thumb
 281              		.thumb_func
 282              		.type	pid_set_output, %function
 283              	pid_set_output:
 284              	.LFB6:
  71:..\common\ud3core\helper/FastPID.c **** 
  72:..\common\ud3core\helper/FastPID.c **** bool pid_set_output(FastPID *pid, int bits, bool sign) {
 285              		.loc 1 72 0
 286              		.cfi_startproc
 287              		@ args = 0, pretend = 0, frame = 0
 288              		@ frame_needed = 0, uses_anonymous_args = 0
 289              	.LVL26:
  73:..\common\ud3core\helper/FastPID.c ****   // Set output bits
  74:..\common\ud3core\helper/FastPID.c ****   if (bits > 16 || bits < 1) {
 290              		.loc 1 74 0
 291 0000 4B1E     		subs	r3, r1, #1
 292 0002 0F2B     		cmp	r3, #15
  72:..\common\ud3core\helper/FastPID.c ****   // Set output bits
 293              		.loc 1 72 0
 294 0004 70B5     		push	{r4, r5, r6, lr}
 295              		.cfi_def_cfa_offset 16
 296              		.cfi_offset 4, -16
 297              		.cfi_offset 5, -12
 298              		.cfi_offset 6, -8
 299              		.cfi_offset 14, -4
  72:..\common\ud3core\helper/FastPID.c ****   // Set output bits
 300              		.loc 1 72 0
 301 0006 0446     		mov	r4, r0
 302 0008 0D46     		mov	r5, r1
 303 000a 1646     		mov	r6, r2
 304              		.loc 1 74 0
 305 000c 07D9     		bls	.L21
 306              	.LVL27:
 307              	.LBB30:
 308              	.LBB31:
  32:..\common\ud3core\helper/FastPID.c ****   pid->_p = pid->_i = pid->_d = 0;
 309              		.loc 1 32 0
 310 000e 0123     		movs	r3, #1
 311 0010 80F82830 		strb	r3, [r0, #40]
  33:..\common\ud3core\helper/FastPID.c **** }
ARM GAS  C:\Users\chemi\AppData\Local\Temp\ccze3wld.s 			page 8


 312              		.loc 1 33 0
 313 0014 0023     		movs	r3, #0
 314 0016 8360     		str	r3, [r0, #8]
 315 0018 4360     		str	r3, [r0, #4]
 316 001a 0360     		str	r3, [r0]
 317 001c 28E0     		b	.L22
 318              	.LVL28:
 319              	.L21:
 320              	.LBE31:
 321              	.LBE30:
  75:..\common\ud3core\helper/FastPID.c ****     pid_set_cfg_err(pid);
  76:..\common\ud3core\helper/FastPID.c ****   }
  77:..\common\ud3core\helper/FastPID.c ****   else {
  78:..\common\ud3core\helper/FastPID.c ****     if (bits == 16) {
 322              		.loc 1 78 0
 323 001e 1029     		cmp	r1, #16
 324 0020 04D1     		bne	.L23
  79:..\common\ud3core\helper/FastPID.c ****       pid->_outmax = (0xFFFFULL >> (17 - bits)) * PARAM_MULT;
 325              		.loc 1 79 0
 326 0022 164A     		ldr	r2, .L26
 327              	.LVL29:
 328 0024 0023     		movs	r3, #0
 329 0026 C0E90623 		strd	r2, [r0, #24]
 330 002a 0CE0     		b	.L24
 331              	.LVL30:
 332              	.L23:
  80:..\common\ud3core\helper/FastPID.c ****     }
  81:..\common\ud3core\helper/FastPID.c ****     else{
  82:..\common\ud3core\helper/FastPID.c ****       pid->_outmax = (0xFFFFULL >> (16 - bits)) * PARAM_MULT;
 333              		.loc 1 82 0
 334 002c C1F11002 		rsb	r2, r1, #16
 335              	.LVL31:
 336 0030 4FF6FF70 		movw	r0, #65535
 337              	.LVL32:
 338 0034 0021     		movs	r1, #0
 339              	.LVL33:
 340 0036 FFF7FEFF 		bl	__aeabi_llsr
 341              	.LVL34:
 342 003a 0902     		lsls	r1, r1, #8
 343 003c 41EA1061 		orr	r1, r1, r0, lsr #24
 344 0040 0002     		lsls	r0, r0, #8
 345 0042 E161     		str	r1, [r4, #28]
 346 0044 A061     		str	r0, [r4, #24]
 347              	.L24:
  83:..\common\ud3core\helper/FastPID.c ****     }
  84:..\common\ud3core\helper/FastPID.c ****     if (sign) {
 348              		.loc 1 84 0
 349 0046 7EB1     		cbz	r6, .L25
  85:..\common\ud3core\helper/FastPID.c ****       pid->_outmin = -((0xFFFFULL >> (17 - bits)) + 1) * PARAM_MULT;
 350              		.loc 1 85 0
 351 0048 C5F11102 		rsb	r2, r5, #17
 352 004c 4FF6FF70 		movw	r0, #65535
 353 0050 0021     		movs	r1, #0
 354 0052 FFF7FEFF 		bl	__aeabi_llsr
 355              	.LVL35:
 356 0056 C943     		mvns	r1, r1
 357 0058 C043     		mvns	r0, r0
ARM GAS  C:\Users\chemi\AppData\Local\Temp\ccze3wld.s 			page 9


 358 005a 0B02     		lsls	r3, r1, #8
 359 005c 43EA1063 		orr	r3, r3, r0, lsr #24
 360 0060 0002     		lsls	r0, r0, #8
 361 0062 6362     		str	r3, [r4, #36]
 362 0064 2062     		str	r0, [r4, #32]
 363 0066 03E0     		b	.L22
 364              	.L25:
  86:..\common\ud3core\helper/FastPID.c ****     }
  87:..\common\ud3core\helper/FastPID.c ****     else {
  88:..\common\ud3core\helper/FastPID.c ****       pid->_outmin = 0;
 365              		.loc 1 88 0
 366 0068 0022     		movs	r2, #0
 367 006a 0023     		movs	r3, #0
 368 006c C4E90823 		strd	r2, [r4, #32]
 369              	.L22:
  89:..\common\ud3core\helper/FastPID.c ****     }
  90:..\common\ud3core\helper/FastPID.c ****   }
  91:..\common\ud3core\helper/FastPID.c ****   return ! pid->_cfg_err;
 370              		.loc 1 91 0
 371 0070 94F82800 		ldrb	r0, [r4, #40]	@ zero_extendqisi2
  92:..\common\ud3core\helper/FastPID.c **** }
 372              		.loc 1 92 0
 373 0074 80F00100 		eor	r0, r0, #1
 374 0078 70BD     		pop	{r4, r5, r6, pc}
 375              	.LVL36:
 376              	.L27:
 377 007a 00BF     		.align	2
 378              	.L26:
 379 007c 00FF7F00 		.word	8388352
 380              		.cfi_endproc
 381              	.LFE6:
 382              		.size	pid_set_output, .-pid_set_output
 383              		.section	.text.pid_set_limits,"ax",%progbits
 384              		.align	1
 385              		.global	pid_set_limits
 386              		.thumb
 387              		.thumb_func
 388              		.type	pid_set_limits, %function
 389              	pid_set_limits:
 390              	.LFB7:
  93:..\common\ud3core\helper/FastPID.c **** 
  94:..\common\ud3core\helper/FastPID.c **** bool pid_set_limits(FastPID *pid, int16_t min, int16_t max)
  95:..\common\ud3core\helper/FastPID.c **** {
 391              		.loc 1 95 0
 392              		.cfi_startproc
 393              		@ args = 0, pretend = 0, frame = 0
 394              		@ frame_needed = 0, uses_anonymous_args = 0
 395              	.LVL37:
  96:..\common\ud3core\helper/FastPID.c ****   if (min >= max) {
 396              		.loc 1 96 0
 397 0000 9142     		cmp	r1, r2
  95:..\common\ud3core\helper/FastPID.c ****   if (min >= max) {
 398              		.loc 1 95 0
 399 0002 30B5     		push	{r4, r5, lr}
 400              		.cfi_def_cfa_offset 12
 401              		.cfi_offset 4, -12
 402              		.cfi_offset 5, -8
ARM GAS  C:\Users\chemi\AppData\Local\Temp\ccze3wld.s 			page 10


 403              		.cfi_offset 14, -4
 404              		.loc 1 96 0
 405 0004 08DB     		blt	.L29
 406              	.LVL38:
 407              	.LBB32:
 408              	.LBB33:
  32:..\common\ud3core\helper/FastPID.c ****   pid->_p = pid->_i = pid->_d = 0;
 409              		.loc 1 32 0
 410 0006 0123     		movs	r3, #1
 411 0008 80F82830 		strb	r3, [r0, #40]
  33:..\common\ud3core\helper/FastPID.c **** }
 412              		.loc 1 33 0
 413 000c 0023     		movs	r3, #0
 414 000e 8360     		str	r3, [r0, #8]
 415 0010 4360     		str	r3, [r0, #4]
 416 0012 0360     		str	r3, [r0]
 417              	.LVL39:
 418              	.LBE33:
 419              	.LBE32:
  97:..\common\ud3core\helper/FastPID.c ****     pid_set_cfg_err(pid);
  98:..\common\ud3core\helper/FastPID.c ****     return ! pid->_cfg_err;
 420              		.loc 1 98 0
 421 0014 1846     		mov	r0, r3
 422              	.LVL40:
 423 0016 30BD     		pop	{r4, r5, pc}
 424              	.LVL41:
 425              	.L29:
  99:..\common\ud3core\helper/FastPID.c ****   }
 100:..\common\ud3core\helper/FastPID.c ****   pid->_outmin = (int64_t)(min) * PARAM_MULT;
 426              		.loc 1 100 0
 427 0018 CD17     		asrs	r5, r1, #31
 428 001a 2B02     		lsls	r3, r5, #8
 429 001c 43EA1163 		orr	r3, r3, r1, lsr #24
 101:..\common\ud3core\helper/FastPID.c ****   pid->_outmax = (int64_t)(max) * PARAM_MULT;
 430              		.loc 1 101 0
 431 0020 D517     		asrs	r5, r2, #31
 100:..\common\ud3core\helper/FastPID.c ****   pid->_outmax = (int64_t)(max) * PARAM_MULT;
 432              		.loc 1 100 0
 433 0022 4362     		str	r3, [r0, #36]
 434              		.loc 1 101 0
 435 0024 2B02     		lsls	r3, r5, #8
 436 0026 43EA1263 		orr	r3, r3, r2, lsr #24
 100:..\common\ud3core\helper/FastPID.c ****   pid->_outmax = (int64_t)(max) * PARAM_MULT;
 437              		.loc 1 100 0
 438 002a 0902     		lsls	r1, r1, #8
 439              	.LVL42:
 440              		.loc 1 101 0
 441 002c 1202     		lsls	r2, r2, #8
 442              	.LVL43:
 100:..\common\ud3core\helper/FastPID.c ****   pid->_outmax = (int64_t)(max) * PARAM_MULT;
 443              		.loc 1 100 0
 444 002e 0162     		str	r1, [r0, #32]
 445              		.loc 1 101 0
 446 0030 C361     		str	r3, [r0, #28]
 447 0032 8261     		str	r2, [r0, #24]
 102:..\common\ud3core\helper/FastPID.c ****   return ! pid->_cfg_err;
 448              		.loc 1 102 0
ARM GAS  C:\Users\chemi\AppData\Local\Temp\ccze3wld.s 			page 11


 449 0034 90F82800 		ldrb	r0, [r0, #40]	@ zero_extendqisi2
 450              	.LVL44:
 451 0038 80F00100 		eor	r0, r0, #1
 103:..\common\ud3core\helper/FastPID.c **** }
 452              		.loc 1 103 0
 453 003c 30BD     		pop	{r4, r5, pc}
 454              		.cfi_endproc
 455              	.LFE7:
 456              		.size	pid_set_limits, .-pid_set_limits
 457              		.section	.text.pid_configure,"ax",%progbits
 458              		.align	1
 459              		.global	pid_configure
 460              		.thumb
 461              		.thumb_func
 462              		.type	pid_configure, %function
 463              	pid_configure:
 464              	.LFB8:
 104:..\common\ud3core\helper/FastPID.c **** 
 105:..\common\ud3core\helper/FastPID.c **** bool pid_configure(FastPID *pid, float kp, float ki, float kd, float hz, int bits, bool sign) {
 465              		.loc 1 105 0
 466              		.cfi_startproc
 467              		@ args = 12, pretend = 0, frame = 0
 468              		@ frame_needed = 0, uses_anonymous_args = 0
 469              	.LVL45:
 470 0000 37B5     		push	{r0, r1, r2, r4, r5, lr}
 471              		.cfi_def_cfa_offset 24
 472              		.cfi_offset 4, -12
 473              		.cfi_offset 5, -8
 474              		.cfi_offset 14, -4
 475              		.loc 1 105 0
 476 0002 1D46     		mov	r5, r3
 477 0004 0446     		mov	r4, r0
 106:..\common\ud3core\helper/FastPID.c ****   pid_clear(pid);
 478              		.loc 1 106 0
 479 0006 FFF7FEFF 		bl	pid_clear
 480              	.LVL46:
 107:..\common\ud3core\helper/FastPID.c ****   pid_set_coefficients(pid, kp, ki, kd, hz);
 481              		.loc 1 107 0
 482 000a 069B     		ldr	r3, [sp, #24]	@ float
 483 000c 0093     		str	r3, [sp]	@ float
 484 000e 2B46     		mov	r3, r5
 485 0010 FFF7FEFF 		bl	pid_set_coefficients
 486              	.LVL47:
 108:..\common\ud3core\helper/FastPID.c ****   pid_set_output(pid, bits, sign);
 487              		.loc 1 108 0
 488 0014 9DF82020 		ldrb	r2, [sp, #32]	@ zero_extendqisi2
 489 0018 0799     		ldr	r1, [sp, #28]
 490 001a 2046     		mov	r0, r4
 491 001c FFF7FEFF 		bl	pid_set_output
 492              	.LVL48:
 109:..\common\ud3core\helper/FastPID.c ****   return ! pid->_cfg_err; 
 493              		.loc 1 109 0
 494 0020 94F82800 		ldrb	r0, [r4, #40]	@ zero_extendqisi2
 110:..\common\ud3core\helper/FastPID.c **** }
 495              		.loc 1 110 0
 496 0024 80F00100 		eor	r0, r0, #1
 497 0028 03B0     		add	sp, sp, #12
ARM GAS  C:\Users\chemi\AppData\Local\Temp\ccze3wld.s 			page 12


 498              		.cfi_def_cfa_offset 12
 499              		@ sp needed
 500 002a 30BD     		pop	{r4, r5, pc}
 501              		.cfi_endproc
 502              	.LFE8:
 503              		.size	pid_configure, .-pid_configure
 504              		.section	.text.pid_new,"ax",%progbits
 505              		.align	1
 506              		.global	pid_new
 507              		.thumb
 508              		.thumb_func
 509              		.type	pid_new, %function
 510              	pid_new:
 511              	.LFB0:
  26:..\common\ud3core\helper/FastPID.c ****     pid_configure(pid, kp, ki, kd, hz, bits, sign);
 512              		.loc 1 26 0
 513              		.cfi_startproc
 514              		@ args = 12, pretend = 0, frame = 0
 515              		@ frame_needed = 0, uses_anonymous_args = 0
 516              	.LVL49:
 517 0000 30B5     		push	{r4, r5, lr}
 518              		.cfi_def_cfa_offset 12
 519              		.cfi_offset 4, -12
 520              		.cfi_offset 5, -8
 521              		.cfi_offset 14, -4
 522 0002 85B0     		sub	sp, sp, #20
 523              		.cfi_def_cfa_offset 32
  27:..\common\ud3core\helper/FastPID.c ****     pid_set_anti_windup(pid,-32768,32768);
 524              		.loc 1 27 0
 525 0004 9DF82850 		ldrb	r5, [sp, #40]	@ zero_extendqisi2
  26:..\common\ud3core\helper/FastPID.c ****     pid_configure(pid, kp, ki, kd, hz, bits, sign);
 526              		.loc 1 26 0
 527 0008 0446     		mov	r4, r0
  27:..\common\ud3core\helper/FastPID.c ****     pid_set_anti_windup(pid,-32768,32768);
 528              		.loc 1 27 0
 529 000a 0295     		str	r5, [sp, #8]
 530 000c 099D     		ldr	r5, [sp, #36]
 531 000e 0195     		str	r5, [sp, #4]
 532 0010 089D     		ldr	r5, [sp, #32]	@ float
 533 0012 0095     		str	r5, [sp]	@ float
 534 0014 FFF7FEFF 		bl	pid_configure
 535              	.LVL50:
 536              	.LBB34:
 537              	.LBB35:
  53:..\common\ud3core\helper/FastPID.c ****     pid->_anti_wind_min = min * PARAM_MULT;
 538              		.loc 1 53 0
 539 0018 4FF40003 		mov	r3, #8388608
 540 001c E360     		str	r3, [r4, #12]
  54:..\common\ud3core\helper/FastPID.c **** }
 541              		.loc 1 54 0
 542 001e 03F17F43 		add	r3, r3, #-16777216
 543 0022 2361     		str	r3, [r4, #16]
 544              	.LVL51:
 545              	.LBE35:
 546              	.LBE34:
  29:..\common\ud3core\helper/FastPID.c **** 
 547              		.loc 1 29 0
ARM GAS  C:\Users\chemi\AppData\Local\Temp\ccze3wld.s 			page 13


 548 0024 05B0     		add	sp, sp, #20
 549              		.cfi_def_cfa_offset 12
 550              		@ sp needed
 551 0026 30BD     		pop	{r4, r5, pc}
 552              		.cfi_endproc
 553              	.LFE0:
 554              		.size	pid_new, .-pid_new
 555              		.section	.text.pid_step,"ax",%progbits
 556              		.align	1
 557              		.global	pid_step
 558              		.thumb
 559              		.thumb_func
 560              		.type	pid_step, %function
 561              	pid_step:
 562              	.LFB9:
 111:..\common\ud3core\helper/FastPID.c **** 
 112:..\common\ud3core\helper/FastPID.c **** int16_t pid_step(FastPID *pid, int16_t sp, int16_t fb) {
 563              		.loc 1 112 0
 564              		.cfi_startproc
 565              		@ args = 0, pretend = 0, frame = 0
 566              		@ frame_needed = 0, uses_anonymous_args = 0
 567              	.LVL52:
 568 0000 2DE9F043 		push	{r4, r5, r6, r7, r8, r9, lr}
 569              		.cfi_def_cfa_offset 28
 570              		.cfi_offset 4, -28
 571              		.cfi_offset 5, -24
 572              		.cfi_offset 6, -20
 573              		.cfi_offset 7, -16
 574              		.cfi_offset 8, -12
 575              		.cfi_offset 9, -8
 576              		.cfi_offset 14, -4
 113:..\common\ud3core\helper/FastPID.c **** 
 114:..\common\ud3core\helper/FastPID.c ****   // int16 + int16 = int17
 115:..\common\ud3core\helper/FastPID.c ****   int32_t err = (int32_t)(sp) - (int32_t)(fb);
 116:..\common\ud3core\helper/FastPID.c ****   int32_t P = 0, I = 0;
 117:..\common\ud3core\helper/FastPID.c ****   int32_t D = 0;
 118:..\common\ud3core\helper/FastPID.c **** 
 119:..\common\ud3core\helper/FastPID.c ****   if (pid->_p) {
 577              		.loc 1 119 0
 578 0004 0668     		ldr	r6, [r0]
 112:..\common\ud3core\helper/FastPID.c **** 
 579              		.loc 1 112 0
 580 0006 0346     		mov	r3, r0
 581 0008 0F46     		mov	r7, r1
 115:..\common\ud3core\helper/FastPID.c ****   int32_t P = 0, I = 0;
 582              		.loc 1 115 0
 583 000a 8A1A     		subs	r2, r1, r2
 584              	.LVL53:
 585              		.loc 1 119 0
 586 000c 06B1     		cbz	r6, .L34
 120:..\common\ud3core\helper/FastPID.c ****     // uint16 * int16 = int32
 121:..\common\ud3core\helper/FastPID.c ****     P = (int32_t)(pid->_p) * (int32_t)(err);
 587              		.loc 1 121 0
 588 000e 5643     		muls	r6, r2, r6
 589              	.LVL54:
 590              	.L34:
 122:..\common\ud3core\helper/FastPID.c ****   }
ARM GAS  C:\Users\chemi\AppData\Local\Temp\ccze3wld.s 			page 14


 123:..\common\ud3core\helper/FastPID.c **** 
 124:..\common\ud3core\helper/FastPID.c ****   if (pid->_i) {
 591              		.loc 1 124 0
 592 0010 5868     		ldr	r0, [r3, #4]
 593              	.LVL55:
 594 0012 F8B1     		cbz	r0, .L35
 125:..\common\ud3core\helper/FastPID.c ****     // int17 * int16 = int33
 126:..\common\ud3core\helper/FastPID.c ****     pid->_sum += (int64_t)(err) * (int64_t)(pid->_i);
 595              		.loc 1 126 0
 596 0014 A2FB0045 		umull	r4, r5, r2, r0
 597 0018 4FEAE279 		asr	r9, r2, #31
 598 001c 00FB0955 		mla	r5, r0, r9, r5
 599 0020 D3E90C01 		ldrd	r0, [r3, #48]
 600 0024 0019     		adds	r0, r0, r4
 127:..\common\ud3core\helper/FastPID.c **** 
 128:..\common\ud3core\helper/FastPID.c ****     // Limit sum to 32-bit signed value so that it saturates, never overflows.
 129:..\common\ud3core\helper/FastPID.c ****     if (pid->_sum > pid->_anti_wind_max)
 601              		.loc 1 129 0
 602 0026 DC68     		ldr	r4, [r3, #12]
 126:..\common\ud3core\helper/FastPID.c **** 
 603              		.loc 1 126 0
 604 0028 6941     		adcs	r1, r1, r5
 605              	.LVL56:
 606              		.loc 1 129 0
 607 002a E517     		asrs	r5, r4, #31
 608 002c 8442     		cmp	r4, r0
 609 002e 75EB010E 		sbcs	lr, r5, r1
 126:..\common\ud3core\helper/FastPID.c **** 
 610              		.loc 1 126 0
 611 0032 C3E90C01 		strd	r0, [r3, #48]
 612              		.loc 1 129 0
 613 0036 02DA     		bge	.L36
 130:..\common\ud3core\helper/FastPID.c ****       pid->_sum = pid->_anti_wind_max;
 614              		.loc 1 130 0
 615 0038 C3E90C45 		strd	r4, [r3, #48]
 616 003c 09E0     		b	.L37
 617              	.L36:
 131:..\common\ud3core\helper/FastPID.c ****     else if (pid->_sum < pid->_anti_wind_min)
 618              		.loc 1 131 0
 619 003e 1C69     		ldr	r4, [r3, #16]
 620 0040 4FEAE479 		asr	r9, r4, #31
 621 0044 A042     		cmp	r0, r4
 622 0046 71EB0901 		sbcs	r1, r1, r9
 623 004a A046     		mov	r8, r4
 624 004c 01DA     		bge	.L37
 132:..\common\ud3core\helper/FastPID.c ****       pid->_sum = pid->_anti_wind_min;
 625              		.loc 1 132 0
 626 004e C3E90C89 		strd	r8, [r3, #48]
 627              	.L37:
 133:..\common\ud3core\helper/FastPID.c **** 
 134:..\common\ud3core\helper/FastPID.c ****     // int32
 135:..\common\ud3core\helper/FastPID.c ****     I = pid->_sum;
 628              		.loc 1 135 0
 629 0052 186B     		ldr	r0, [r3, #48]
 630              	.LVL57:
 631              	.L35:
 136:..\common\ud3core\helper/FastPID.c ****   }
ARM GAS  C:\Users\chemi\AppData\Local\Temp\ccze3wld.s 			page 15


 137:..\common\ud3core\helper/FastPID.c **** 
 138:..\common\ud3core\helper/FastPID.c ****   if (pid->_d) {
 632              		.loc 1 138 0
 633 0054 D3F808E0 		ldr	lr, [r3, #8]
 634 0058 BEF1000F 		cmp	lr, #0
 635 005c 0BD0     		beq	.L38
 636              	.LBB36:
 139:..\common\ud3core\helper/FastPID.c ****     // (int17 - int16) - (int16 - int16) = int19
 140:..\common\ud3core\helper/FastPID.c ****     int32_t deriv = (err - pid->_last_err) - (int32_t)(sp - pid->_last_sp);
 637              		.loc 1 140 0
 638 005e 9C6B     		ldr	r4, [r3, #56]
 141:..\common\ud3core\helper/FastPID.c ****     pid->_last_sp = sp; 
 142:..\common\ud3core\helper/FastPID.c ****     pid->_last_err = err; 
 639              		.loc 1 142 0
 640 0060 9A63     		str	r2, [r3, #56]
 140:..\common\ud3core\helper/FastPID.c ****     pid->_last_sp = sp; 
 641              		.loc 1 140 0
 642 0062 111B     		subs	r1, r2, r4
 643 0064 B3F92A40 		ldrsh	r4, [r3, #42]
 141:..\common\ud3core\helper/FastPID.c ****     pid->_last_sp = sp; 
 644              		.loc 1 141 0
 645 0068 5F85     		strh	r7, [r3, #42]	@ movhi
 140:..\common\ud3core\helper/FastPID.c ****     pid->_last_sp = sp; 
 646              		.loc 1 140 0
 647 006a 3C1B     		subs	r4, r7, r4
 648 006c 0D1B     		subs	r5, r1, r4
 649              	.LVL58:
 143:..\common\ud3core\helper/FastPID.c **** 
 144:..\common\ud3core\helper/FastPID.c ****     // Limit the derivative to 16-bit signed value.
 145:..\common\ud3core\helper/FastPID.c ****     if (deriv > DERIV_MAX)
 146:..\common\ud3core\helper/FastPID.c ****       deriv = DERIV_MAX;
 147:..\common\ud3core\helper/FastPID.c ****     else if (deriv < DERIV_MIN)
 148:..\common\ud3core\helper/FastPID.c ****       deriv = DERIV_MIN;
 149:..\common\ud3core\helper/FastPID.c **** 
 150:..\common\ud3core\helper/FastPID.c ****     // int16 * int16 = int32
 151:..\common\ud3core\helper/FastPID.c ****     D = (int32_t)(pid->_d) * (int32_t)(deriv);
 650              		.loc 1 151 0
 651 006e 05F30F04 		ssat	r4, #16, r5
 652              	.LVL59:
 653 0072 0EFB04FE 		mul	lr, lr, r4
 654              	.LVL60:
 655              	.L38:
 656              	.LBE36:
 152:..\common\ud3core\helper/FastPID.c ****   }
 153:..\common\ud3core\helper/FastPID.c **** 
 154:..\common\ud3core\helper/FastPID.c ****   // int32 (P) + int32 (I) + int32 (D) = int34
 155:..\common\ud3core\helper/FastPID.c ****   int64_t out = (int64_t)(P) + (int64_t)(I) + (int64_t)(D);
 156:..\common\ud3core\helper/FastPID.c **** 
 157:..\common\ud3core\helper/FastPID.c ****   // Make the output saturate
 158:..\common\ud3core\helper/FastPID.c ****   if (out > pid->_outmax) 
 657              		.loc 1 158 0
 658 0076 D3E90645 		ldrd	r4, [r3, #24]
 155:..\common\ud3core\helper/FastPID.c **** 
 659              		.loc 1 155 0
 660 007a C117     		asrs	r1, r0, #31
 661 007c 8019     		adds	r0, r0, r6
 662              	.LVL61:
ARM GAS  C:\Users\chemi\AppData\Local\Temp\ccze3wld.s 			page 16


 663 007e 41EBE671 		adc	r1, r1, r6, asr #31
 664 0082 10EB0E00 		adds	r0, r0, lr
 665 0086 41EBEE71 		adc	r1, r1, lr, asr #31
 666              	.LVL62:
 667              		.loc 1 158 0
 668 008a 8442     		cmp	r4, r0
 669 008c 75EB0102 		sbcs	r2, r5, r1
 670              	.LVL63:
 671 0090 09DB     		blt	.L39
 159:..\common\ud3core\helper/FastPID.c ****     out = pid->_outmax;
 160:..\common\ud3core\helper/FastPID.c ****   else if (out < pid->_outmin) 
 672              		.loc 1 160 0
 673 0092 D3E90867 		ldrd	r6, [r3, #32]
 674              	.LVL64:
 675 0096 B042     		cmp	r0, r6
 676 0098 71EB0702 		sbcs	r2, r1, r7
 677 009c 0446     		mov	r4, r0
 678 009e 0D46     		mov	r5, r1
 679 00a0 BCBF     		itt	lt
 680 00a2 3446     		movlt	r4, r6
 681 00a4 3D46     		movlt	r5, r7
 682              	.L39:
 683              	.LVL65:
 161:..\common\ud3core\helper/FastPID.c ****     out = pid->_outmin;
 162:..\common\ud3core\helper/FastPID.c **** 
 163:..\common\ud3core\helper/FastPID.c ****   // Remove the integer scaling factor. 
 164:..\common\ud3core\helper/FastPID.c ****   int16_t rval = out >> PARAM_SHIFT;
 684              		.loc 1 164 0
 685 00a6 200A     		lsrs	r0, r4, #8
 686 00a8 40EA0560 		orr	r0, r0, r5, lsl #24
 687              	.LVL66:
 165:..\common\ud3core\helper/FastPID.c **** 
 166:..\common\ud3core\helper/FastPID.c ****   // Fair rounding.
 167:..\common\ud3core\helper/FastPID.c ****   if (out & (0x1ULL << (PARAM_SHIFT - 1))) {
 688              		.loc 1 167 0
 689 00ac 04F08004 		and	r4, r4, #128
 690              	.LVL67:
 691 00b0 0025     		movs	r5, #0
 692 00b2 54EA0502 		orrs	r2, r4, r5
 168:..\common\ud3core\helper/FastPID.c ****     rval++;
 693              		.loc 1 168 0
 694 00b6 18BF     		it	ne
 695 00b8 0130     		addne	r0, r0, #1
 696              	.LVL68:
 697 00ba 00B2     		sxth	r0, r0
 698              	.LVL69:
 169:..\common\ud3core\helper/FastPID.c ****   }
 170:..\common\ud3core\helper/FastPID.c **** 
 171:..\common\ud3core\helper/FastPID.c ****   pid->_last_out = rval;
 699              		.loc 1 171 0
 700 00bc 9885     		strh	r0, [r3, #44]	@ movhi
 172:..\common\ud3core\helper/FastPID.c ****   return rval;
 173:..\common\ud3core\helper/FastPID.c **** }
 701              		.loc 1 173 0
 702 00be BDE8F083 		pop	{r4, r5, r6, r7, r8, r9, pc}
 703              		.cfi_endproc
 704              	.LFE9:
ARM GAS  C:\Users\chemi\AppData\Local\Temp\ccze3wld.s 			page 17


 705              		.size	pid_step, .-pid_step
 706              		.section	.text.pid_err,"ax",%progbits
 707              		.align	1
 708              		.global	pid_err
 709              		.thumb
 710              		.thumb_func
 711              		.type	pid_err, %function
 712              	pid_err:
 713              	.LFB10:
 174:..\common\ud3core\helper/FastPID.c **** 
 175:..\common\ud3core\helper/FastPID.c **** bool pid_err(FastPID *pid) {
 714              		.loc 1 175 0
 715              		.cfi_startproc
 716              		@ args = 0, pretend = 0, frame = 0
 717              		@ frame_needed = 0, uses_anonymous_args = 0
 718              		@ link register save eliminated.
 719              	.LVL70:
 176:..\common\ud3core\helper/FastPID.c ****     return pid->_cfg_err;
 177:..\common\ud3core\helper/FastPID.c **** }
 720              		.loc 1 177 0
 721 0000 90F82800 		ldrb	r0, [r0, #40]	@ zero_extendqisi2
 722              	.LVL71:
 723 0004 7047     		bx	lr
 724              		.cfi_endproc
 725              	.LFE10:
 726              		.size	pid_err, .-pid_err
 727              		.text
 728              	.Letext0:
 729              		.file 2 "c:\\program files (x86)\\cypress\\psoc creator\\4.4\\psoc creator\\import\\gnu\\arm\\5.4.
 730              		.file 3 "c:\\program files (x86)\\cypress\\psoc creator\\4.4\\psoc creator\\import\\gnu\\arm\\5.4.
 731              		.file 4 "..\\common\\ud3core\\helper\\FastPID.h"