ARM GAS  C:\Users\chemi\AppData\Local\Temp\cc1JRpda.s 			page 1


   1              		.syntax unified
   2              		.cpu cortex-m3
   3              		.fpu softvfp
   4              		.eabi_attribute 20, 1
   5              		.eabi_attribute 21, 1
   6              		.eabi_attribute 23, 3
   7              		.eabi_attribute 24, 1
   8              		.eabi_attribute 25, 1
   9              		.eabi_attribute 26, 1
  10              		.eabi_attribute 30, 4
  11              		.eabi_attribute 34, 1
  12              		.eabi_attribute 18, 4
  13              		.thumb
  14              		.syntax unified
  15              		.file	"FB_Filter.c"
  16              		.text
  17              	.Ltext0:
  18              		.cfi_sections	.debug_frame
  19              		.section	.text.FB_Filter_Init,"ax",%progbits
  20              		.align	1
  21              		.global	FB_Filter_Init
  22              		.thumb
  23              		.thumb_func
  24              		.type	FB_Filter_Init, %function
  25              	FB_Filter_Init:
  26              	.LFB0:
  27              		.file 1 "Generated_Source\\PSoC5\\FB_Filter.c"
   1:Generated_Source\PSoC5/FB_Filter.c **** /*******************************************************************************
   2:Generated_Source\PSoC5/FB_Filter.c **** * File Name: FB_Filter.c
   3:Generated_Source\PSoC5/FB_Filter.c **** * Version 2.30
   4:Generated_Source\PSoC5/FB_Filter.c **** *
   5:Generated_Source\PSoC5/FB_Filter.c **** * Description:
   6:Generated_Source\PSoC5/FB_Filter.c **** *  This file provides the API source code for the FILT component.
   7:Generated_Source\PSoC5/FB_Filter.c **** *
   8:Generated_Source\PSoC5/FB_Filter.c **** * Note:
   9:Generated_Source\PSoC5/FB_Filter.c **** *  
  10:Generated_Source\PSoC5/FB_Filter.c **** *******************************************************************************
  11:Generated_Source\PSoC5/FB_Filter.c **** * Copyright 2008-2013, Cypress Semiconductor Corporation.  All rights reserved.
  12:Generated_Source\PSoC5/FB_Filter.c **** * You may use this file only in accordance with the license, terms, conditions, 
  13:Generated_Source\PSoC5/FB_Filter.c **** * disclaimers, and limitations in the end user license agreement accompanying 
  14:Generated_Source\PSoC5/FB_Filter.c **** * the software package with which this file was provided.
  15:Generated_Source\PSoC5/FB_Filter.c **** ********************************************************************************/
  16:Generated_Source\PSoC5/FB_Filter.c **** 
  17:Generated_Source\PSoC5/FB_Filter.c **** #include "FB_Filter_PVT.h"
  18:Generated_Source\PSoC5/FB_Filter.c **** 
  19:Generated_Source\PSoC5/FB_Filter.c **** 
  20:Generated_Source\PSoC5/FB_Filter.c **** /*******************************************************************************
  21:Generated_Source\PSoC5/FB_Filter.c **** * FILT component internal variables.
  22:Generated_Source\PSoC5/FB_Filter.c **** *******************************************************************************/
  23:Generated_Source\PSoC5/FB_Filter.c **** 
  24:Generated_Source\PSoC5/FB_Filter.c **** uint8 FB_Filter_initVar = 0x0u;
  25:Generated_Source\PSoC5/FB_Filter.c **** 
  26:Generated_Source\PSoC5/FB_Filter.c **** 
  27:Generated_Source\PSoC5/FB_Filter.c **** /*******************************************************************************
  28:Generated_Source\PSoC5/FB_Filter.c **** * Function Name: FB_Filter_Init
  29:Generated_Source\PSoC5/FB_Filter.c **** ********************************************************************************
  30:Generated_Source\PSoC5/FB_Filter.c **** *
ARM GAS  C:\Users\chemi\AppData\Local\Temp\cc1JRpda.s 			page 2


  31:Generated_Source\PSoC5/FB_Filter.c **** * Summary:
  32:Generated_Source\PSoC5/FB_Filter.c **** *  Initialize component's parameters to the parameters set by user in the 
  33:Generated_Source\PSoC5/FB_Filter.c **** *  customizer of the component placed onto schematic. Usually called in 
  34:Generated_Source\PSoC5/FB_Filter.c **** *  FB_Filter_Start().
  35:Generated_Source\PSoC5/FB_Filter.c **** *
  36:Generated_Source\PSoC5/FB_Filter.c **** * Parameters:  
  37:Generated_Source\PSoC5/FB_Filter.c **** *  void
  38:Generated_Source\PSoC5/FB_Filter.c **** *
  39:Generated_Source\PSoC5/FB_Filter.c **** * Return: 
  40:Generated_Source\PSoC5/FB_Filter.c **** *  void
  41:Generated_Source\PSoC5/FB_Filter.c **** *
  42:Generated_Source\PSoC5/FB_Filter.c **** *******************************************************************************/
  43:Generated_Source\PSoC5/FB_Filter.c **** void FB_Filter_Init(void) 
  44:Generated_Source\PSoC5/FB_Filter.c **** {
  28              		.loc 1 44 0
  29              		.cfi_startproc
  30              		@ args = 0, pretend = 0, frame = 0
  31              		@ frame_needed = 0, uses_anonymous_args = 0
  32 0000 70B5     		push	{r4, r5, r6, lr}
  33              		.cfi_def_cfa_offset 16
  34              		.cfi_offset 4, -16
  35              		.cfi_offset 5, -12
  36              		.cfi_offset 6, -8
  37              		.cfi_offset 14, -4
  45:Generated_Source\PSoC5/FB_Filter.c ****         /* Power on DFB before initializing the RAMs */
  46:Generated_Source\PSoC5/FB_Filter.c ****     FB_Filter_PM_ACT_CFG_REG |= FB_Filter_PM_ACT_MSK;
  38              		.loc 1 46 0
  39 0002 224A     		ldr	r2, .L5
  47:Generated_Source\PSoC5/FB_Filter.c **** 
  48:Generated_Source\PSoC5/FB_Filter.c ****     /* Turn off Run Bit */
  49:Generated_Source\PSoC5/FB_Filter.c ****     FB_Filter_CR_REG &= (uint8)~FB_Filter_RUN_MASK;
  50:Generated_Source\PSoC5/FB_Filter.c ****                 
  51:Generated_Source\PSoC5/FB_Filter.c ****     /* Enable the DFB RAMS */
  52:Generated_Source\PSoC5/FB_Filter.c ****     FB_Filter_RAM_EN_REG = FB_Filter_RAM_DIR_BUS;
  53:Generated_Source\PSoC5/FB_Filter.c ****         
  54:Generated_Source\PSoC5/FB_Filter.c ****     /* Put DFB RAM on the bus */
  55:Generated_Source\PSoC5/FB_Filter.c ****     FB_Filter_RAM_DIR_REG = FB_Filter_RAM_DIR_BUS;
  40              		.loc 1 55 0
  41 0004 224C     		ldr	r4, .L5+4
  46:Generated_Source\PSoC5/FB_Filter.c **** 
  42              		.loc 1 46 0
  43 0006 1378     		ldrb	r3, [r2]	@ zero_extendqisi2
  56:Generated_Source\PSoC5/FB_Filter.c ****         
  57:Generated_Source\PSoC5/FB_Filter.c ****     /* Write DFB RAMs */
  58:Generated_Source\PSoC5/FB_Filter.c ****     /* Control Store RAMs */
  59:Generated_Source\PSoC5/FB_Filter.c ****     (void)memcpy( FB_Filter_CSA_RAM,
  44              		.loc 1 59 0
  45 0008 2249     		ldr	r1, .L5+8
  46:Generated_Source\PSoC5/FB_Filter.c **** 
  46              		.loc 1 46 0
  47 000a 43F01003 		orr	r3, r3, #16
  48 000e 1370     		strb	r3, [r2]
  49:Generated_Source\PSoC5/FB_Filter.c ****                 
  49              		.loc 1 49 0
  50 0010 02F50342 		add	r2, r2, #33536
  51 0014 DA32     		adds	r2, r2, #218
  52 0016 1378     		ldrb	r3, [r2]	@ zero_extendqisi2
ARM GAS  C:\Users\chemi\AppData\Local\Temp\cc1JRpda.s 			page 3


  53              		.loc 1 59 0
  54 0018 1F48     		ldr	r0, .L5+12
  49:Generated_Source\PSoC5/FB_Filter.c ****                 
  55              		.loc 1 49 0
  56 001a 03F0FE03 		and	r3, r3, #254
  57 001e 1370     		strb	r3, [r2]
  52:Generated_Source\PSoC5/FB_Filter.c ****         
  58              		.loc 1 52 0
  59 0020 3F23     		movs	r3, #63
  60 0022 1372     		strb	r3, [r2, #8]
  55:Generated_Source\PSoC5/FB_Filter.c ****         
  61              		.loc 1 55 0
  62 0024 2370     		strb	r3, [r4]
  63              		.loc 1 59 0
  64 0026 4FF48072 		mov	r2, #256
  65 002a FFF7FEFF 		bl	memcpy
  66              	.LVL0:
  60:Generated_Source\PSoC5/FB_Filter.c ****         FB_Filter_control, FB_Filter_CSA_RAM_SIZE); 
  61:Generated_Source\PSoC5/FB_Filter.c ****     (void)memcpy(FB_Filter_CSB_RAM,
  67              		.loc 1 61 0
  68 002e 4FF48072 		mov	r2, #256
  69 0032 1849     		ldr	r1, .L5+8
  70 0034 1948     		ldr	r0, .L5+16
  71 0036 FFF7FEFF 		bl	memcpy
  72              	.LVL1:
  62:Generated_Source\PSoC5/FB_Filter.c ****         FB_Filter_control, FB_Filter_CSB_RAM_SIZE); 
  63:Generated_Source\PSoC5/FB_Filter.c ****     /* CFSM RAM */
  64:Generated_Source\PSoC5/FB_Filter.c ****     (void)memcpy(FB_Filter_CFSM_RAM,
  73              		.loc 1 64 0
  74 003a 4FF48072 		mov	r2, #256
  75 003e 1849     		ldr	r1, .L5+20
  76 0040 1848     		ldr	r0, .L5+24
  77 0042 FFF7FEFF 		bl	memcpy
  78              	.LVL2:
  65:Generated_Source\PSoC5/FB_Filter.c ****         FB_Filter_cfsm, FB_Filter_CFSM_RAM_SIZE); 
  66:Generated_Source\PSoC5/FB_Filter.c ****     /* Data RAMs */
  67:Generated_Source\PSoC5/FB_Filter.c ****     (void)memcpy(FB_Filter_DA_RAM,
  79              		.loc 1 67 0
  80 0046 4FF40072 		mov	r2, #512
  81 004a 1749     		ldr	r1, .L5+28
  82 004c 1748     		ldr	r0, .L5+32
  83 004e FFF7FEFF 		bl	memcpy
  84              	.LVL3:
  68:Generated_Source\PSoC5/FB_Filter.c ****         FB_Filter_data_a, FB_Filter_DA_RAM_SIZE); 
  69:Generated_Source\PSoC5/FB_Filter.c ****     (void)memcpy(FB_Filter_DB_RAM,
  85              		.loc 1 69 0
  86 0052 4FF40072 		mov	r2, #512
  87 0056 1649     		ldr	r1, .L5+36
  88 0058 1648     		ldr	r0, .L5+40
  89 005a FFF7FEFF 		bl	memcpy
  90              	.LVL4:
  70:Generated_Source\PSoC5/FB_Filter.c ****         FB_Filter_data_b, FB_Filter_DB_RAM_SIZE); 
  71:Generated_Source\PSoC5/FB_Filter.c ****     /* ACU RAM */
  72:Generated_Source\PSoC5/FB_Filter.c ****     (void)memcpy(FB_Filter_ACU_RAM,
  91              		.loc 1 72 0
  92 005e 164B     		ldr	r3, .L5+44
  93 0060 164D     		ldr	r5, .L5+48
ARM GAS  C:\Users\chemi\AppData\Local\Temp\cc1JRpda.s 			page 4


  94 0062 03F14006 		add	r6, r3, #64
  95              	.L2:
  96 0066 2A46     		mov	r2, r5
  97 0068 1868     		ldr	r0, [r3]	@ unaligned
  98 006a 5968     		ldr	r1, [r3, #4]	@ unaligned
  99 006c 0833     		adds	r3, r3, #8
 100 006e 03C2     		stmia	r2!, {r0, r1}
 101 0070 B342     		cmp	r3, r6
 102 0072 1546     		mov	r5, r2
 103 0074 F7D1     		bne	.L2
  73:Generated_Source\PSoC5/FB_Filter.c ****         FB_Filter_acu, FB_Filter_ACU_RAM_SIZE); 
  74:Generated_Source\PSoC5/FB_Filter.c **** 
  75:Generated_Source\PSoC5/FB_Filter.c ****     /* Take DFB RAM off the bus */
  76:Generated_Source\PSoC5/FB_Filter.c ****     FB_Filter_RAM_DIR_REG = FB_Filter_RAM_DIR_DFB;
 104              		.loc 1 76 0
 105 0076 0020     		movs	r0, #0
 106 0078 2070     		strb	r0, [r4]
  77:Generated_Source\PSoC5/FB_Filter.c **** 
  78:Generated_Source\PSoC5/FB_Filter.c ****     /* Set up interrupt and DMA events */
  79:Generated_Source\PSoC5/FB_Filter.c ****     FB_Filter_SetInterruptMode(FB_Filter_INIT_INTERRUPT_MODE);
 107              		.loc 1 79 0
 108 007a FFF7FEFF 		bl	FB_Filter_SetInterruptMode
 109              	.LVL5:
  80:Generated_Source\PSoC5/FB_Filter.c ****     FB_Filter_SetDMAMode(FB_Filter_INIT_DMA_MODE);
 110              		.loc 1 80 0
 111 007e 0120     		movs	r0, #1
 112 0080 FFF7FEFF 		bl	FB_Filter_SetDMAMode
 113              	.LVL6:
  81:Generated_Source\PSoC5/FB_Filter.c ****         
  82:Generated_Source\PSoC5/FB_Filter.c ****     /* Clear any pending interrupts */
  83:Generated_Source\PSoC5/FB_Filter.c ****     /* Bits [2..0] of this register are readonly. */
  84:Generated_Source\PSoC5/FB_Filter.c ****     FB_Filter_SR_REG = 0xf8u;   
 114              		.loc 1 84 0
 115 0084 0E4B     		ldr	r3, .L5+52
 116 0086 F822     		movs	r2, #248
 117 0088 1A70     		strb	r2, [r3]
 118 008a 70BD     		pop	{r4, r5, r6, pc}
 119              	.L6:
 120              		.align	2
 121              	.L5:
 122 008c A6430040 		.word	1073759142
 123 0090 8CC70040 		.word	1073792908
 124 0094 00000000 		.word	FB_Filter_control
 125 0098 00C40040 		.word	1073792000
 126 009c 00C50040 		.word	1073792256
 127 00a0 00000000 		.word	FB_Filter_cfsm
 128 00a4 00C60040 		.word	1073792512
 129 00a8 00000000 		.word	FB_Filter_data_a
 130 00ac 00C00040 		.word	1073790976
 131 00b0 00000000 		.word	FB_Filter_data_b
 132 00b4 00C20040 		.word	1073791488
 133 00b8 00000000 		.word	FB_Filter_acu
 134 00bc 00C70040 		.word	1073792768
 135 00c0 84C70040 		.word	1073792900
 136              		.cfi_endproc
 137              	.LFE0:
 138              		.size	FB_Filter_Init, .-FB_Filter_Init
ARM GAS  C:\Users\chemi\AppData\Local\Temp\cc1JRpda.s 			page 5


 139              		.section	.text.FB_Filter_Enable,"ax",%progbits
 140              		.align	1
 141              		.global	FB_Filter_Enable
 142              		.thumb
 143              		.thumb_func
 144              		.type	FB_Filter_Enable, %function
 145              	FB_Filter_Enable:
 146              	.LFB1:
  85:Generated_Source\PSoC5/FB_Filter.c **** }
  86:Generated_Source\PSoC5/FB_Filter.c **** 
  87:Generated_Source\PSoC5/FB_Filter.c **** 
  88:Generated_Source\PSoC5/FB_Filter.c **** /*******************************************************************************
  89:Generated_Source\PSoC5/FB_Filter.c **** * Function Name: FB_Filter_Enable
  90:Generated_Source\PSoC5/FB_Filter.c **** ********************************************************************************
  91:Generated_Source\PSoC5/FB_Filter.c **** *  
  92:Generated_Source\PSoC5/FB_Filter.c **** * Summary: 
  93:Generated_Source\PSoC5/FB_Filter.c **** *  Enables the DFB run bit.
  94:Generated_Source\PSoC5/FB_Filter.c **** *
  95:Generated_Source\PSoC5/FB_Filter.c **** * Parameters:  
  96:Generated_Source\PSoC5/FB_Filter.c **** *  void
  97:Generated_Source\PSoC5/FB_Filter.c **** *
  98:Generated_Source\PSoC5/FB_Filter.c **** * Return: 
  99:Generated_Source\PSoC5/FB_Filter.c **** *  void
 100:Generated_Source\PSoC5/FB_Filter.c **** *
 101:Generated_Source\PSoC5/FB_Filter.c **** *******************************************************************************/
 102:Generated_Source\PSoC5/FB_Filter.c **** void FB_Filter_Enable(void) 
 103:Generated_Source\PSoC5/FB_Filter.c **** {
 147              		.loc 1 103 0
 148              		.cfi_startproc
 149              		@ args = 0, pretend = 0, frame = 0
 150              		@ frame_needed = 0, uses_anonymous_args = 0
 151              		@ link register save eliminated.
 104:Generated_Source\PSoC5/FB_Filter.c ****     /* Power on DFB in Active mode */
 105:Generated_Source\PSoC5/FB_Filter.c ****     FB_Filter_PM_ACT_CFG_REG |= FB_Filter_PM_ACT_MSK;
 152              		.loc 1 105 0
 153 0000 084A     		ldr	r2, .L8
 154 0002 1378     		ldrb	r3, [r2]	@ zero_extendqisi2
 155 0004 43F01003 		orr	r3, r3, #16
 156 0008 1370     		strb	r3, [r2]
 106:Generated_Source\PSoC5/FB_Filter.c ****         
 107:Generated_Source\PSoC5/FB_Filter.c ****     /* Power on DFB in Alternative Active mode */
 108:Generated_Source\PSoC5/FB_Filter.c ****     FB_Filter_PM_STBY_CFG_REG |= FB_Filter_PM_STBY_MSK;
 157              		.loc 1 108 0
 158 000a 137C     		ldrb	r3, [r2, #16]	@ zero_extendqisi2
 159 000c 43F01003 		orr	r3, r3, #16
 160 0010 1374     		strb	r3, [r2, #16]
 109:Generated_Source\PSoC5/FB_Filter.c **** 
 110:Generated_Source\PSoC5/FB_Filter.c ****     /* Turn on Run Bit */
 111:Generated_Source\PSoC5/FB_Filter.c ****     FB_Filter_CR_REG |= FB_Filter_RUN_MASK;
 161              		.loc 1 111 0
 162 0012 02F50342 		add	r2, r2, #33536
 163 0016 DA32     		adds	r2, r2, #218
 164 0018 1378     		ldrb	r3, [r2]	@ zero_extendqisi2
 165 001a 43F00103 		orr	r3, r3, #1
 166 001e 1370     		strb	r3, [r2]
 167 0020 7047     		bx	lr
 168              	.L9:
ARM GAS  C:\Users\chemi\AppData\Local\Temp\cc1JRpda.s 			page 6


 169 0022 00BF     		.align	2
 170              	.L8:
 171 0024 A6430040 		.word	1073759142
 172              		.cfi_endproc
 173              	.LFE1:
 174              		.size	FB_Filter_Enable, .-FB_Filter_Enable
 175              		.section	.text.FB_Filter_Start,"ax",%progbits
 176              		.align	1
 177              		.global	FB_Filter_Start
 178              		.thumb
 179              		.thumb_func
 180              		.type	FB_Filter_Start, %function
 181              	FB_Filter_Start:
 182              	.LFB2:
 112:Generated_Source\PSoC5/FB_Filter.c **** }
 113:Generated_Source\PSoC5/FB_Filter.c **** 
 114:Generated_Source\PSoC5/FB_Filter.c **** 
 115:Generated_Source\PSoC5/FB_Filter.c **** /*******************************************************************************
 116:Generated_Source\PSoC5/FB_Filter.c **** * Function Name: FB_Filter_Start
 117:Generated_Source\PSoC5/FB_Filter.c **** ********************************************************************************
 118:Generated_Source\PSoC5/FB_Filter.c **** *
 119:Generated_Source\PSoC5/FB_Filter.c **** * Summary:
 120:Generated_Source\PSoC5/FB_Filter.c **** *  This method does the prep work necessary to setup DFB.  This includes loading 
 121:Generated_Source\PSoC5/FB_Filter.c **** *
 122:Generated_Source\PSoC5/FB_Filter.c **** * Parameters:  
 123:Generated_Source\PSoC5/FB_Filter.c **** *  void
 124:Generated_Source\PSoC5/FB_Filter.c **** * 
 125:Generated_Source\PSoC5/FB_Filter.c **** * Return: 
 126:Generated_Source\PSoC5/FB_Filter.c **** *  void
 127:Generated_Source\PSoC5/FB_Filter.c **** *
 128:Generated_Source\PSoC5/FB_Filter.c **** * Global variables:
 129:Generated_Source\PSoC5/FB_Filter.c **** *  FB_Filter_initVar:  Used to check the initial configuration,
 130:Generated_Source\PSoC5/FB_Filter.c **** *  modified when this function is called for the first time.
 131:Generated_Source\PSoC5/FB_Filter.c **** *
 132:Generated_Source\PSoC5/FB_Filter.c **** * Note: 
 133:Generated_Source\PSoC5/FB_Filter.c **** *  Use FB_Filter_InterruptConfig to control which events trigger 
 134:Generated_Source\PSoC5/FB_Filter.c **** *  interrupts in the DFB. 
 135:Generated_Source\PSoC5/FB_Filter.c **** *
 136:Generated_Source\PSoC5/FB_Filter.c **** *******************************************************************************/
 137:Generated_Source\PSoC5/FB_Filter.c **** void FB_Filter_Start(void) 
 138:Generated_Source\PSoC5/FB_Filter.c **** {
 183              		.loc 1 138 0
 184              		.cfi_startproc
 185              		@ args = 0, pretend = 0, frame = 0
 186              		@ frame_needed = 0, uses_anonymous_args = 0
 187 0000 10B5     		push	{r4, lr}
 188              		.cfi_def_cfa_offset 8
 189              		.cfi_offset 4, -8
 190              		.cfi_offset 14, -4
 139:Generated_Source\PSoC5/FB_Filter.c ****      /* If not Initialized then initialize all required hardware and software */
 140:Generated_Source\PSoC5/FB_Filter.c ****     if(FB_Filter_initVar == 0u)
 191              		.loc 1 140 0
 192 0002 054C     		ldr	r4, .L12
 193 0004 2378     		ldrb	r3, [r4]	@ zero_extendqisi2
 194 0006 1BB9     		cbnz	r3, .L11
 141:Generated_Source\PSoC5/FB_Filter.c ****     {
 142:Generated_Source\PSoC5/FB_Filter.c ****         FB_Filter_Init();
ARM GAS  C:\Users\chemi\AppData\Local\Temp\cc1JRpda.s 			page 7


 195              		.loc 1 142 0
 196 0008 FFF7FEFF 		bl	FB_Filter_Init
 197              	.LVL7:
 143:Generated_Source\PSoC5/FB_Filter.c ****         FB_Filter_initVar = 1u;
 198              		.loc 1 143 0
 199 000c 0123     		movs	r3, #1
 200 000e 2370     		strb	r3, [r4]
 201              	.L11:
 144:Generated_Source\PSoC5/FB_Filter.c ****     }
 145:Generated_Source\PSoC5/FB_Filter.c **** 
 146:Generated_Source\PSoC5/FB_Filter.c ****     /* Enable the DFB block */
 147:Generated_Source\PSoC5/FB_Filter.c ****     FB_Filter_Enable();
 148:Generated_Source\PSoC5/FB_Filter.c **** }
 202              		.loc 1 148 0
 203 0010 BDE81040 		pop	{r4, lr}
 204              		.cfi_restore 14
 205              		.cfi_restore 4
 206              		.cfi_def_cfa_offset 0
 147:Generated_Source\PSoC5/FB_Filter.c **** }
 207              		.loc 1 147 0
 208 0014 FFF7FEBF 		b	FB_Filter_Enable
 209              	.LVL8:
 210              	.L13:
 211              		.align	2
 212              	.L12:
 213 0018 00000000 		.word	.LANCHOR0
 214              		.cfi_endproc
 215              	.LFE2:
 216              		.size	FB_Filter_Start, .-FB_Filter_Start
 217              		.section	.text.FB_Filter_Stop,"ax",%progbits
 218              		.align	1
 219              		.global	FB_Filter_Stop
 220              		.thumb
 221              		.thumb_func
 222              		.type	FB_Filter_Stop, %function
 223              	FB_Filter_Stop:
 224              	.LFB3:
 149:Generated_Source\PSoC5/FB_Filter.c **** 
 150:Generated_Source\PSoC5/FB_Filter.c **** 
 151:Generated_Source\PSoC5/FB_Filter.c **** /*******************************************************************************
 152:Generated_Source\PSoC5/FB_Filter.c **** * Function Name: FB_Filter_Stop
 153:Generated_Source\PSoC5/FB_Filter.c **** ********************************************************************************
 154:Generated_Source\PSoC5/FB_Filter.c **** *
 155:Generated_Source\PSoC5/FB_Filter.c **** * Summary:
 156:Generated_Source\PSoC5/FB_Filter.c **** *  Turn off the run bit.  If DMA control is used to feed the channels, allow 
 157:Generated_Source\PSoC5/FB_Filter.c **** *  arguments to turn one of the TD channels off. 
 158:Generated_Source\PSoC5/FB_Filter.c **** *
 159:Generated_Source\PSoC5/FB_Filter.c **** * Parameters:  
 160:Generated_Source\PSoC5/FB_Filter.c **** *  void
 161:Generated_Source\PSoC5/FB_Filter.c **** *
 162:Generated_Source\PSoC5/FB_Filter.c **** * Return: 
 163:Generated_Source\PSoC5/FB_Filter.c **** *  void
 164:Generated_Source\PSoC5/FB_Filter.c **** *
 165:Generated_Source\PSoC5/FB_Filter.c **** *******************************************************************************/
 166:Generated_Source\PSoC5/FB_Filter.c **** void FB_Filter_Stop(void) 
 167:Generated_Source\PSoC5/FB_Filter.c **** {
 225              		.loc 1 167 0
ARM GAS  C:\Users\chemi\AppData\Local\Temp\cc1JRpda.s 			page 8


 226              		.cfi_startproc
 227              		@ args = 0, pretend = 0, frame = 0
 228              		@ frame_needed = 0, uses_anonymous_args = 0
 229              		@ link register save eliminated.
 168:Generated_Source\PSoC5/FB_Filter.c ****     FB_Filter_CR_REG &= (uint8)~(FB_Filter_RUN_MASK);
 230              		.loc 1 168 0
 231 0000 084A     		ldr	r2, .L15
 232 0002 1378     		ldrb	r3, [r2]	@ zero_extendqisi2
 233 0004 03F0FE03 		and	r3, r3, #254
 234 0008 1370     		strb	r3, [r2]
 169:Generated_Source\PSoC5/FB_Filter.c **** 
 170:Generated_Source\PSoC5/FB_Filter.c ****     /* Power off DFB in Active mode */
 171:Generated_Source\PSoC5/FB_Filter.c ****     FB_Filter_PM_ACT_CFG_REG &= (uint8)~FB_Filter_PM_ACT_MSK;
 235              		.loc 1 171 0
 236 000a A2F50342 		sub	r2, r2, #33536
 237 000e DA3A     		subs	r2, r2, #218
 238 0010 1378     		ldrb	r3, [r2]	@ zero_extendqisi2
 239 0012 03F0EF03 		and	r3, r3, #239
 240 0016 1370     		strb	r3, [r2]
 172:Generated_Source\PSoC5/FB_Filter.c ****     
 173:Generated_Source\PSoC5/FB_Filter.c ****     /* Power off DFB in Alternative Active mode */
 174:Generated_Source\PSoC5/FB_Filter.c ****     FB_Filter_PM_STBY_CFG_REG &= (uint8)~FB_Filter_PM_STBY_MSK;
 241              		.loc 1 174 0
 242 0018 137C     		ldrb	r3, [r2, #16]	@ zero_extendqisi2
 243 001a 03F0EF03 		and	r3, r3, #239
 244 001e 1374     		strb	r3, [r2, #16]
 245 0020 7047     		bx	lr
 246              	.L16:
 247 0022 00BF     		.align	2
 248              	.L15:
 249 0024 80C70040 		.word	1073792896
 250              		.cfi_endproc
 251              	.LFE3:
 252              		.size	FB_Filter_Stop, .-FB_Filter_Stop
 253              		.section	.text.FB_Filter_Read8,"ax",%progbits
 254              		.align	1
 255              		.global	FB_Filter_Read8
 256              		.thumb
 257              		.thumb_func
 258              		.type	FB_Filter_Read8, %function
 259              	FB_Filter_Read8:
 260              	.LFB4:
 175:Generated_Source\PSoC5/FB_Filter.c **** }
 176:Generated_Source\PSoC5/FB_Filter.c **** 
 177:Generated_Source\PSoC5/FB_Filter.c **** 
 178:Generated_Source\PSoC5/FB_Filter.c **** /*******************************************************************************
 179:Generated_Source\PSoC5/FB_Filter.c **** * Function Name: FB_Filter_Read8
 180:Generated_Source\PSoC5/FB_Filter.c **** ********************************************************************************
 181:Generated_Source\PSoC5/FB_Filter.c **** *
 182:Generated_Source\PSoC5/FB_Filter.c **** * Summary:
 183:Generated_Source\PSoC5/FB_Filter.c **** *  Get the value in one of the DFB Output Holding Registers 
 184:Generated_Source\PSoC5/FB_Filter.c **** *
 185:Generated_Source\PSoC5/FB_Filter.c **** * Parameters:  
 186:Generated_Source\PSoC5/FB_Filter.c **** *  channel:  FB_Filter_CHANNEL_A or FB_Filter_CHANNEL_B
 187:Generated_Source\PSoC5/FB_Filter.c **** *            
 188:Generated_Source\PSoC5/FB_Filter.c **** * Return: 
 189:Generated_Source\PSoC5/FB_Filter.c **** *  The most significant 8 bits of the current output value sitting in the 
ARM GAS  C:\Users\chemi\AppData\Local\Temp\cc1JRpda.s 			page 9


 190:Generated_Source\PSoC5/FB_Filter.c **** *  selected channel's holding register or 0x00 for invalid channel numbers.
 191:Generated_Source\PSoC5/FB_Filter.c **** *
 192:Generated_Source\PSoC5/FB_Filter.c **** *******************************************************************************/
 193:Generated_Source\PSoC5/FB_Filter.c **** uint8 FB_Filter_Read8(uint8 channel) 
 194:Generated_Source\PSoC5/FB_Filter.c **** {
 261              		.loc 1 194 0
 262              		.cfi_startproc
 263              		@ args = 0, pretend = 0, frame = 0
 264              		@ frame_needed = 0, uses_anonymous_args = 0
 265              		@ link register save eliminated.
 266              	.LVL9:
 195:Generated_Source\PSoC5/FB_Filter.c ****     uint8 value;
 196:Generated_Source\PSoC5/FB_Filter.c **** 
 197:Generated_Source\PSoC5/FB_Filter.c ****     if (channel == FB_Filter_CHANNEL_A)
 267              		.loc 1 197 0
 268 0000 08B9     		cbnz	r0, .L18
 198:Generated_Source\PSoC5/FB_Filter.c ****     {
 199:Generated_Source\PSoC5/FB_Filter.c ****         value = FB_Filter_HOLDAH_REG;
 269              		.loc 1 199 0
 270 0002 054B     		ldr	r3, .L22
 271 0004 02E0     		b	.L21
 272              	.L18:
 200:Generated_Source\PSoC5/FB_Filter.c ****     }
 201:Generated_Source\PSoC5/FB_Filter.c ****     else if (channel == FB_Filter_CHANNEL_B)
 273              		.loc 1 201 0
 274 0006 0128     		cmp	r0, #1
 275 0008 03D1     		bne	.L20
 202:Generated_Source\PSoC5/FB_Filter.c ****     {
 203:Generated_Source\PSoC5/FB_Filter.c ****         value = FB_Filter_HOLDBH_REG;
 276              		.loc 1 203 0
 277 000a 044B     		ldr	r3, .L22+4
 278              	.L21:
 279 000c 1878     		ldrb	r0, [r3]	@ zero_extendqisi2
 280              	.LVL10:
 281 000e C0B2     		uxtb	r0, r0
 282              	.LVL11:
 283 0010 7047     		bx	lr
 284              	.LVL12:
 285              	.L20:
 204:Generated_Source\PSoC5/FB_Filter.c ****     }
 205:Generated_Source\PSoC5/FB_Filter.c ****     else
 206:Generated_Source\PSoC5/FB_Filter.c ****     {
 207:Generated_Source\PSoC5/FB_Filter.c ****         value = 0x0u;
 286              		.loc 1 207 0
 287 0012 0020     		movs	r0, #0
 288              	.LVL13:
 208:Generated_Source\PSoC5/FB_Filter.c ****     }
 209:Generated_Source\PSoC5/FB_Filter.c ****     return value;
 210:Generated_Source\PSoC5/FB_Filter.c **** }
 289              		.loc 1 210 0
 290 0014 7047     		bx	lr
 291              	.L23:
 292 0016 00BF     		.align	2
 293              	.L22:
 294 0018 AAC70040 		.word	1073792938
 295 001c AEC70040 		.word	1073792942
 296              		.cfi_endproc
ARM GAS  C:\Users\chemi\AppData\Local\Temp\cc1JRpda.s 			page 10


 297              	.LFE4:
 298              		.size	FB_Filter_Read8, .-FB_Filter_Read8
 299              		.section	.text.FB_Filter_Read16,"ax",%progbits
 300              		.align	1
 301              		.global	FB_Filter_Read16
 302              		.thumb
 303              		.thumb_func
 304              		.type	FB_Filter_Read16, %function
 305              	FB_Filter_Read16:
 306              	.LFB5:
 211:Generated_Source\PSoC5/FB_Filter.c **** 
 212:Generated_Source\PSoC5/FB_Filter.c **** 
 213:Generated_Source\PSoC5/FB_Filter.c **** /*******************************************************************************
 214:Generated_Source\PSoC5/FB_Filter.c **** * Function Name: FB_Filter_Read16
 215:Generated_Source\PSoC5/FB_Filter.c **** ********************************************************************************
 216:Generated_Source\PSoC5/FB_Filter.c **** *
 217:Generated_Source\PSoC5/FB_Filter.c **** * Summary:
 218:Generated_Source\PSoC5/FB_Filter.c **** *  Get the value in one of the DFB Output Holding Registers 
 219:Generated_Source\PSoC5/FB_Filter.c **** *
 220:Generated_Source\PSoC5/FB_Filter.c **** * Parameters:  
 221:Generated_Source\PSoC5/FB_Filter.c **** *  channel:  FB_Filter_CHANNEL_A or FB_Filter_CHANNEL_B
 222:Generated_Source\PSoC5/FB_Filter.c **** *            
 223:Generated_Source\PSoC5/FB_Filter.c **** * Return: 
 224:Generated_Source\PSoC5/FB_Filter.c **** *  The most significant 16 bits of the current output value sitting in the 
 225:Generated_Source\PSoC5/FB_Filter.c **** *  selected channel's holding register or 0x0000 for invalid channel numbers
 226:Generated_Source\PSoC5/FB_Filter.c **** *
 227:Generated_Source\PSoC5/FB_Filter.c **** * Note:
 228:Generated_Source\PSoC5/FB_Filter.c **** *  Order of the read is important.  On the read of the high byte, the DFB clears
 229:Generated_Source\PSoC5/FB_Filter.c **** *  the data ready bit.
 230:Generated_Source\PSoC5/FB_Filter.c **** *
 231:Generated_Source\PSoC5/FB_Filter.c **** *******************************************************************************/
 232:Generated_Source\PSoC5/FB_Filter.c **** #if defined(__C51__) || defined(__CX51__) 
 233:Generated_Source\PSoC5/FB_Filter.c **** 
 234:Generated_Source\PSoC5/FB_Filter.c ****     uint16 FB_Filter_Read16(uint8 channel) 
 235:Generated_Source\PSoC5/FB_Filter.c ****     {
 236:Generated_Source\PSoC5/FB_Filter.c ****         uint16 val;
 237:Generated_Source\PSoC5/FB_Filter.c ****     
 238:Generated_Source\PSoC5/FB_Filter.c ****         if (channel == FB_Filter_CHANNEL_A)
 239:Generated_Source\PSoC5/FB_Filter.c ****         {        
 240:Generated_Source\PSoC5/FB_Filter.c ****             val = FB_Filter_HOLDAM_REG;
 241:Generated_Source\PSoC5/FB_Filter.c ****             val |= (uint16)(FB_Filter_HOLDAH_REG) << 8u;
 242:Generated_Source\PSoC5/FB_Filter.c ****         }
 243:Generated_Source\PSoC5/FB_Filter.c ****         else if (channel == FB_Filter_CHANNEL_B)
 244:Generated_Source\PSoC5/FB_Filter.c ****         {      
 245:Generated_Source\PSoC5/FB_Filter.c ****             val = FB_Filter_HOLDBM_REG;
 246:Generated_Source\PSoC5/FB_Filter.c ****             val |= (uint16)FB_Filter_HOLDBH_REG << 8u;
 247:Generated_Source\PSoC5/FB_Filter.c ****         }
 248:Generated_Source\PSoC5/FB_Filter.c ****         else
 249:Generated_Source\PSoC5/FB_Filter.c ****         {
 250:Generated_Source\PSoC5/FB_Filter.c ****             val = 0x0u;
 251:Generated_Source\PSoC5/FB_Filter.c ****         }
 252:Generated_Source\PSoC5/FB_Filter.c ****         return val;
 253:Generated_Source\PSoC5/FB_Filter.c ****     }
 254:Generated_Source\PSoC5/FB_Filter.c **** 
 255:Generated_Source\PSoC5/FB_Filter.c **** #else
 256:Generated_Source\PSoC5/FB_Filter.c **** 
 257:Generated_Source\PSoC5/FB_Filter.c ****     uint16 FB_Filter_Read16(uint8 channel) 
ARM GAS  C:\Users\chemi\AppData\Local\Temp\cc1JRpda.s 			page 11


 258:Generated_Source\PSoC5/FB_Filter.c ****     {
 307              		.loc 1 258 0
 308              		.cfi_startproc
 309              		@ args = 0, pretend = 0, frame = 0
 310              		@ frame_needed = 0, uses_anonymous_args = 0
 311              		@ link register save eliminated.
 312              	.LVL14:
 259:Generated_Source\PSoC5/FB_Filter.c ****         uint16 val;
 260:Generated_Source\PSoC5/FB_Filter.c **** 
 261:Generated_Source\PSoC5/FB_Filter.c ****         if (channel == FB_Filter_CHANNEL_A)
 313              		.loc 1 261 0
 314 0000 08B9     		cbnz	r0, .L25
 262:Generated_Source\PSoC5/FB_Filter.c ****         {        
 263:Generated_Source\PSoC5/FB_Filter.c ****             val = FB_Filter_HOLDA16_REG;
 315              		.loc 1 263 0
 316 0002 044B     		ldr	r3, .L29
 317 0004 02E0     		b	.L28
 318              	.L25:
 264:Generated_Source\PSoC5/FB_Filter.c ****         }
 265:Generated_Source\PSoC5/FB_Filter.c ****         else if (channel == FB_Filter_CHANNEL_B)
 319              		.loc 1 265 0
 320 0006 0128     		cmp	r0, #1
 321 0008 02D1     		bne	.L27
 266:Generated_Source\PSoC5/FB_Filter.c ****         {      
 267:Generated_Source\PSoC5/FB_Filter.c ****             val = FB_Filter_HOLDB16_REG;
 322              		.loc 1 267 0
 323 000a 034B     		ldr	r3, .L29+4
 324              	.L28:
 325 000c 1888     		ldrh	r0, [r3]	@ unaligned
 326              	.LVL15:
 327 000e 7047     		bx	lr
 328              	.LVL16:
 329              	.L27:
 268:Generated_Source\PSoC5/FB_Filter.c ****         }
 269:Generated_Source\PSoC5/FB_Filter.c ****         else
 270:Generated_Source\PSoC5/FB_Filter.c ****         {
 271:Generated_Source\PSoC5/FB_Filter.c ****             val = 0x0u;
 330              		.loc 1 271 0
 331 0010 0020     		movs	r0, #0
 332              	.LVL17:
 272:Generated_Source\PSoC5/FB_Filter.c ****         }
 273:Generated_Source\PSoC5/FB_Filter.c ****         return val;
 274:Generated_Source\PSoC5/FB_Filter.c ****     }
 333              		.loc 1 274 0
 334 0012 7047     		bx	lr
 335              	.L30:
 336              		.align	2
 337              	.L29:
 338 0014 A9C70040 		.word	1073792937
 339 0018 ADC70040 		.word	1073792941
 340              		.cfi_endproc
 341              	.LFE5:
 342              		.size	FB_Filter_Read16, .-FB_Filter_Read16
 343              		.section	.text.FB_Filter_Read24,"ax",%progbits
 344              		.align	1
 345              		.global	FB_Filter_Read24
 346              		.thumb
ARM GAS  C:\Users\chemi\AppData\Local\Temp\cc1JRpda.s 			page 12


 347              		.thumb_func
 348              		.type	FB_Filter_Read24, %function
 349              	FB_Filter_Read24:
 350              	.LFB6:
 275:Generated_Source\PSoC5/FB_Filter.c **** 
 276:Generated_Source\PSoC5/FB_Filter.c **** #endif /* defined(__C51__) || defined(__CX51__) */
 277:Generated_Source\PSoC5/FB_Filter.c **** 
 278:Generated_Source\PSoC5/FB_Filter.c **** 
 279:Generated_Source\PSoC5/FB_Filter.c **** /*******************************************************************************
 280:Generated_Source\PSoC5/FB_Filter.c **** * Function Name: FB_Filter_Read24
 281:Generated_Source\PSoC5/FB_Filter.c **** ********************************************************************************
 282:Generated_Source\PSoC5/FB_Filter.c **** *
 283:Generated_Source\PSoC5/FB_Filter.c **** * Summary:
 284:Generated_Source\PSoC5/FB_Filter.c **** *  Get the value in one of the DFB Output Holding Registers 
 285:Generated_Source\PSoC5/FB_Filter.c **** *
 286:Generated_Source\PSoC5/FB_Filter.c **** * Parameters:  
 287:Generated_Source\PSoC5/FB_Filter.c **** *  channel:  FB_Filter_CHANNEL_A or FB_Filter_CHANNEL_B
 288:Generated_Source\PSoC5/FB_Filter.c **** *            
 289:Generated_Source\PSoC5/FB_Filter.c **** * Return: 
 290:Generated_Source\PSoC5/FB_Filter.c **** *  The current 24-bit output value sitting in the selected channel's
 291:Generated_Source\PSoC5/FB_Filter.c **** *  holding register or 0x00000000 for invalid channel numbers
 292:Generated_Source\PSoC5/FB_Filter.c **** *
 293:Generated_Source\PSoC5/FB_Filter.c **** * Note:
 294:Generated_Source\PSoC5/FB_Filter.c **** *  Order of the read is important.  On the read of the high byte, the DFB clears
 295:Generated_Source\PSoC5/FB_Filter.c **** *  the data ready bit.
 296:Generated_Source\PSoC5/FB_Filter.c **** *
 297:Generated_Source\PSoC5/FB_Filter.c **** *******************************************************************************/
 298:Generated_Source\PSoC5/FB_Filter.c **** #if defined(__C51__) || defined(__CX51__)
 299:Generated_Source\PSoC5/FB_Filter.c **** 
 300:Generated_Source\PSoC5/FB_Filter.c ****     uint32 FB_Filter_Read24(uint8 channel) 
 301:Generated_Source\PSoC5/FB_Filter.c ****     {
 302:Generated_Source\PSoC5/FB_Filter.c ****         uint32 val;
 303:Generated_Source\PSoC5/FB_Filter.c ****     
 304:Generated_Source\PSoC5/FB_Filter.c ****         if (channel == FB_Filter_CHANNEL_A)
 305:Generated_Source\PSoC5/FB_Filter.c ****         {        
 306:Generated_Source\PSoC5/FB_Filter.c ****             val = FB_Filter_HOLDA_REG;
 307:Generated_Source\PSoC5/FB_Filter.c ****             val |= (uint32)(FB_Filter_HOLDAM_REG) << 8u;
 308:Generated_Source\PSoC5/FB_Filter.c ****             val |= (uint32)(FB_Filter_HOLDAH_REG) << 16u;
 309:Generated_Source\PSoC5/FB_Filter.c ****             
 310:Generated_Source\PSoC5/FB_Filter.c ****             /* SignExtend */
 311:Generated_Source\PSoC5/FB_Filter.c ****             if((val & FB_Filter_SIGN_BIT) == FB_Filter_SIGN_BIT)
 312:Generated_Source\PSoC5/FB_Filter.c ****             {    
 313:Generated_Source\PSoC5/FB_Filter.c **** 				val |= FB_Filter_SIGN_BYTE;
 314:Generated_Source\PSoC5/FB_Filter.c **** 			}
 315:Generated_Source\PSoC5/FB_Filter.c ****         }
 316:Generated_Source\PSoC5/FB_Filter.c ****         else if (channel == FB_Filter_CHANNEL_B)
 317:Generated_Source\PSoC5/FB_Filter.c ****         {      
 318:Generated_Source\PSoC5/FB_Filter.c ****             val = FB_Filter_HOLDB_REG;
 319:Generated_Source\PSoC5/FB_Filter.c ****             val |= (uint32)FB_Filter_HOLDBM_REG << 8u;
 320:Generated_Source\PSoC5/FB_Filter.c ****             val |= (uint32)FB_Filter_HOLDBH_REG << 16u;
 321:Generated_Source\PSoC5/FB_Filter.c ****             
 322:Generated_Source\PSoC5/FB_Filter.c ****             /* SignExtend */
 323:Generated_Source\PSoC5/FB_Filter.c ****             if((val & FB_Filter_SIGN_BIT) == FB_Filter_SIGN_BIT)
 324:Generated_Source\PSoC5/FB_Filter.c ****             {
 325:Generated_Source\PSoC5/FB_Filter.c **** 				val |= FB_Filter_SIGN_BYTE;
 326:Generated_Source\PSoC5/FB_Filter.c **** 			}
 327:Generated_Source\PSoC5/FB_Filter.c ****         }
ARM GAS  C:\Users\chemi\AppData\Local\Temp\cc1JRpda.s 			page 13


 328:Generated_Source\PSoC5/FB_Filter.c ****         else
 329:Generated_Source\PSoC5/FB_Filter.c ****         {
 330:Generated_Source\PSoC5/FB_Filter.c ****             val = 0x0u;
 331:Generated_Source\PSoC5/FB_Filter.c ****         }
 332:Generated_Source\PSoC5/FB_Filter.c ****         return val;
 333:Generated_Source\PSoC5/FB_Filter.c ****     }
 334:Generated_Source\PSoC5/FB_Filter.c **** 
 335:Generated_Source\PSoC5/FB_Filter.c **** #else
 336:Generated_Source\PSoC5/FB_Filter.c **** 
 337:Generated_Source\PSoC5/FB_Filter.c ****     uint32 FB_Filter_Read24(uint8 channel) 
 338:Generated_Source\PSoC5/FB_Filter.c ****     {
 351              		.loc 1 338 0
 352              		.cfi_startproc
 353              		@ args = 0, pretend = 0, frame = 0
 354              		@ frame_needed = 0, uses_anonymous_args = 0
 355              		@ link register save eliminated.
 356              	.LVL18:
 339:Generated_Source\PSoC5/FB_Filter.c ****         uint32 val;
 340:Generated_Source\PSoC5/FB_Filter.c ****          
 341:Generated_Source\PSoC5/FB_Filter.c ****         if (channel == FB_Filter_CHANNEL_A)
 357              		.loc 1 341 0
 358 0000 08B9     		cbnz	r0, .L32
 342:Generated_Source\PSoC5/FB_Filter.c ****         {        
 343:Generated_Source\PSoC5/FB_Filter.c ****             val = FB_Filter_HOLDA24_REG;
 359              		.loc 1 343 0
 360 0002 044B     		ldr	r3, .L36
 361 0004 02E0     		b	.L35
 362              	.L32:
 344:Generated_Source\PSoC5/FB_Filter.c ****         }
 345:Generated_Source\PSoC5/FB_Filter.c ****         else if (channel == FB_Filter_CHANNEL_B)
 363              		.loc 1 345 0
 364 0006 0128     		cmp	r0, #1
 365 0008 02D1     		bne	.L34
 346:Generated_Source\PSoC5/FB_Filter.c ****         {      
 347:Generated_Source\PSoC5/FB_Filter.c ****             val = FB_Filter_HOLDB24_REG;
 366              		.loc 1 347 0
 367 000a 034B     		ldr	r3, .L36+4
 368              	.L35:
 369 000c 1868     		ldr	r0, [r3]
 370              	.LVL19:
 371 000e 7047     		bx	lr
 372              	.LVL20:
 373              	.L34:
 348:Generated_Source\PSoC5/FB_Filter.c ****         }
 349:Generated_Source\PSoC5/FB_Filter.c ****         else
 350:Generated_Source\PSoC5/FB_Filter.c ****         {
 351:Generated_Source\PSoC5/FB_Filter.c ****             val = 0x0u;
 374              		.loc 1 351 0
 375 0010 0020     		movs	r0, #0
 376              	.LVL21:
 352:Generated_Source\PSoC5/FB_Filter.c ****         }
 353:Generated_Source\PSoC5/FB_Filter.c ****         return val;
 354:Generated_Source\PSoC5/FB_Filter.c ****     }
 377              		.loc 1 354 0
 378 0012 7047     		bx	lr
 379              	.L37:
 380              		.align	2
ARM GAS  C:\Users\chemi\AppData\Local\Temp\cc1JRpda.s 			page 14


 381              	.L36:
 382 0014 A8C70040 		.word	1073792936
 383 0018 ACC70040 		.word	1073792940
 384              		.cfi_endproc
 385              	.LFE6:
 386              		.size	FB_Filter_Read24, .-FB_Filter_Read24
 387              		.section	.text.FB_Filter_Write8,"ax",%progbits
 388              		.align	1
 389              		.global	FB_Filter_Write8
 390              		.thumb
 391              		.thumb_func
 392              		.type	FB_Filter_Write8, %function
 393              	FB_Filter_Write8:
 394              	.LFB7:
 355:Generated_Source\PSoC5/FB_Filter.c **** 
 356:Generated_Source\PSoC5/FB_Filter.c **** #endif /* defined(__C51__) || defined(__CX51__) */
 357:Generated_Source\PSoC5/FB_Filter.c **** 
 358:Generated_Source\PSoC5/FB_Filter.c **** 
 359:Generated_Source\PSoC5/FB_Filter.c **** /*******************************************************************************
 360:Generated_Source\PSoC5/FB_Filter.c **** * Function Name: FB_Filter_Write8
 361:Generated_Source\PSoC5/FB_Filter.c **** ********************************************************************************
 362:Generated_Source\PSoC5/FB_Filter.c **** *
 363:Generated_Source\PSoC5/FB_Filter.c **** * Summary:
 364:Generated_Source\PSoC5/FB_Filter.c **** *  Set the value in one of the DFB Input Staging Registers 
 365:Generated_Source\PSoC5/FB_Filter.c **** *
 366:Generated_Source\PSoC5/FB_Filter.c **** * Parameters:  
 367:Generated_Source\PSoC5/FB_Filter.c **** *  channel:  Use either FB_Filter_CHANNEL_A or 
 368:Generated_Source\PSoC5/FB_Filter.c **** *            FB_Filter_CHANNEL_B as arguments to the function.  
 369:Generated_Source\PSoC5/FB_Filter.c **** *  sample:   The 8-bit, right justified input sample. 
 370:Generated_Source\PSoC5/FB_Filter.c **** *
 371:Generated_Source\PSoC5/FB_Filter.c **** * Return: 
 372:Generated_Source\PSoC5/FB_Filter.c **** *  void
 373:Generated_Source\PSoC5/FB_Filter.c **** *
 374:Generated_Source\PSoC5/FB_Filter.c **** * Note:
 375:Generated_Source\PSoC5/FB_Filter.c **** *  Order of the write is important.  On the load of the high byte, the DFB sets
 376:Generated_Source\PSoC5/FB_Filter.c **** *  the input ready bit.
 377:Generated_Source\PSoC5/FB_Filter.c **** *
 378:Generated_Source\PSoC5/FB_Filter.c **** *******************************************************************************/
 379:Generated_Source\PSoC5/FB_Filter.c **** void FB_Filter_Write8(uint8 channel, uint8 sample) 
 380:Generated_Source\PSoC5/FB_Filter.c **** {
 395              		.loc 1 380 0
 396              		.cfi_startproc
 397              		@ args = 0, pretend = 0, frame = 0
 398              		@ frame_needed = 0, uses_anonymous_args = 0
 399              		@ link register save eliminated.
 400              	.LVL22:
 381:Generated_Source\PSoC5/FB_Filter.c ****     if (channel == FB_Filter_CHANNEL_A)
 401              		.loc 1 381 0
 402 0000 08B9     		cbnz	r0, .L39
 382:Generated_Source\PSoC5/FB_Filter.c ****     {
 383:Generated_Source\PSoC5/FB_Filter.c ****         FB_Filter_STAGEAH_REG = sample;
 403              		.loc 1 383 0
 404 0002 034B     		ldr	r3, .L42
 405 0004 02E0     		b	.L41
 406              	.L39:
 384:Generated_Source\PSoC5/FB_Filter.c ****     }
 385:Generated_Source\PSoC5/FB_Filter.c ****     else if (channel == FB_Filter_CHANNEL_B)
ARM GAS  C:\Users\chemi\AppData\Local\Temp\cc1JRpda.s 			page 15


 407              		.loc 1 385 0
 408 0006 0128     		cmp	r0, #1
 409 0008 01D1     		bne	.L38
 386:Generated_Source\PSoC5/FB_Filter.c ****     {
 387:Generated_Source\PSoC5/FB_Filter.c ****         FB_Filter_STAGEBH_REG = sample;
 410              		.loc 1 387 0
 411 000a 024B     		ldr	r3, .L42+4
 412              	.L41:
 413 000c 1970     		strb	r1, [r3]
 414              	.L38:
 415 000e 7047     		bx	lr
 416              	.L43:
 417              		.align	2
 418              	.L42:
 419 0010 A2C70040 		.word	1073792930
 420 0014 A6C70040 		.word	1073792934
 421              		.cfi_endproc
 422              	.LFE7:
 423              		.size	FB_Filter_Write8, .-FB_Filter_Write8
 424              		.section	.text.FB_Filter_Write16,"ax",%progbits
 425              		.align	1
 426              		.global	FB_Filter_Write16
 427              		.thumb
 428              		.thumb_func
 429              		.type	FB_Filter_Write16, %function
 430              	FB_Filter_Write16:
 431              	.LFB8:
 388:Generated_Source\PSoC5/FB_Filter.c ****     }
 389:Generated_Source\PSoC5/FB_Filter.c **** 	else
 390:Generated_Source\PSoC5/FB_Filter.c **** 	{
 391:Generated_Source\PSoC5/FB_Filter.c **** 		/* No value is loaded on bad channel input */
 392:Generated_Source\PSoC5/FB_Filter.c **** 	}
 393:Generated_Source\PSoC5/FB_Filter.c **** }
 394:Generated_Source\PSoC5/FB_Filter.c **** 
 395:Generated_Source\PSoC5/FB_Filter.c **** 
 396:Generated_Source\PSoC5/FB_Filter.c **** /*******************************************************************************
 397:Generated_Source\PSoC5/FB_Filter.c **** * Function Name: FB_Filter_Write16
 398:Generated_Source\PSoC5/FB_Filter.c **** ********************************************************************************
 399:Generated_Source\PSoC5/FB_Filter.c **** *
 400:Generated_Source\PSoC5/FB_Filter.c **** * Summary:
 401:Generated_Source\PSoC5/FB_Filter.c **** *  Set the value in one of the DFB Input Staging Registers 
 402:Generated_Source\PSoC5/FB_Filter.c **** *
 403:Generated_Source\PSoC5/FB_Filter.c **** * Parameters:  
 404:Generated_Source\PSoC5/FB_Filter.c **** *  channel:  Use either FB_Filter_CHANNEL_A or 
 405:Generated_Source\PSoC5/FB_Filter.c **** *            FB_Filter_CHANNEL_B as arguments to the function.  
 406:Generated_Source\PSoC5/FB_Filter.c **** *  sample:   The 16-bit, right justified input sample. 
 407:Generated_Source\PSoC5/FB_Filter.c **** *
 408:Generated_Source\PSoC5/FB_Filter.c **** * Return: 
 409:Generated_Source\PSoC5/FB_Filter.c **** *  void
 410:Generated_Source\PSoC5/FB_Filter.c **** *
 411:Generated_Source\PSoC5/FB_Filter.c **** * Note:
 412:Generated_Source\PSoC5/FB_Filter.c **** *  Order of the write is important.  On the load of the high byte, the DFB sets
 413:Generated_Source\PSoC5/FB_Filter.c **** *  the input ready bit.
 414:Generated_Source\PSoC5/FB_Filter.c **** *
 415:Generated_Source\PSoC5/FB_Filter.c **** *******************************************************************************/
 416:Generated_Source\PSoC5/FB_Filter.c **** #if defined(__C51__) || defined(__CX51__)
 417:Generated_Source\PSoC5/FB_Filter.c **** 
ARM GAS  C:\Users\chemi\AppData\Local\Temp\cc1JRpda.s 			page 16


 418:Generated_Source\PSoC5/FB_Filter.c ****     void FB_Filter_Write16(uint8 channel, uint16 sample) 
 419:Generated_Source\PSoC5/FB_Filter.c ****     {
 420:Generated_Source\PSoC5/FB_Filter.c ****         /* Write the STAGE MSB reg last as it signals a complete wrote to the 
 421:Generated_Source\PSoC5/FB_Filter.c ****            DFB.*/
 422:Generated_Source\PSoC5/FB_Filter.c ****         if (channel == FB_Filter_CHANNEL_A)
 423:Generated_Source\PSoC5/FB_Filter.c ****         {
 424:Generated_Source\PSoC5/FB_Filter.c ****             FB_Filter_STAGEAM_REG = (uint8)(sample);
 425:Generated_Source\PSoC5/FB_Filter.c ****             FB_Filter_STAGEAH_REG = (uint8)(sample >> 8u);
 426:Generated_Source\PSoC5/FB_Filter.c ****         }
 427:Generated_Source\PSoC5/FB_Filter.c ****         else if (channel == FB_Filter_CHANNEL_B)
 428:Generated_Source\PSoC5/FB_Filter.c ****         {
 429:Generated_Source\PSoC5/FB_Filter.c ****             FB_Filter_STAGEBM_REG = (uint8)(sample);
 430:Generated_Source\PSoC5/FB_Filter.c ****             FB_Filter_STAGEBH_REG = (uint8)(sample >> 8u);
 431:Generated_Source\PSoC5/FB_Filter.c ****         }
 432:Generated_Source\PSoC5/FB_Filter.c ****         else
 433:Generated_Source\PSoC5/FB_Filter.c **** 		{
 434:Generated_Source\PSoC5/FB_Filter.c **** 			/* No value is loaded on bad channel input */
 435:Generated_Source\PSoC5/FB_Filter.c **** 		}
 436:Generated_Source\PSoC5/FB_Filter.c ****     }
 437:Generated_Source\PSoC5/FB_Filter.c **** 
 438:Generated_Source\PSoC5/FB_Filter.c **** #else
 439:Generated_Source\PSoC5/FB_Filter.c **** 
 440:Generated_Source\PSoC5/FB_Filter.c ****     void FB_Filter_Write16(uint8 channel, uint16 sample) 
 441:Generated_Source\PSoC5/FB_Filter.c ****     {
 432              		.loc 1 441 0
 433              		.cfi_startproc
 434              		@ args = 0, pretend = 0, frame = 0
 435              		@ frame_needed = 0, uses_anonymous_args = 0
 436              		@ link register save eliminated.
 437              	.LVL23:
 442:Generated_Source\PSoC5/FB_Filter.c ****         if (channel == FB_Filter_CHANNEL_A)
 438              		.loc 1 442 0
 439 0000 08B9     		cbnz	r0, .L45
 443:Generated_Source\PSoC5/FB_Filter.c ****         {
 444:Generated_Source\PSoC5/FB_Filter.c ****             FB_Filter_STAGEA16_REG = sample;
 440              		.loc 1 444 0
 441 0002 034B     		ldr	r3, .L48
 442 0004 02E0     		b	.L47
 443              	.L45:
 445:Generated_Source\PSoC5/FB_Filter.c ****         }
 446:Generated_Source\PSoC5/FB_Filter.c ****         else if (channel == FB_Filter_CHANNEL_B)
 444              		.loc 1 446 0
 445 0006 0128     		cmp	r0, #1
 446 0008 01D1     		bne	.L44
 447:Generated_Source\PSoC5/FB_Filter.c ****         {
 448:Generated_Source\PSoC5/FB_Filter.c ****             FB_Filter_STAGEB16_REG = sample;
 447              		.loc 1 448 0
 448 000a 024B     		ldr	r3, .L48+4
 449              	.L47:
 450 000c 1980     		strh	r1, [r3]	@ unaligned
 451              	.L44:
 452 000e 7047     		bx	lr
 453              	.L49:
 454              		.align	2
 455              	.L48:
 456 0010 A1C70040 		.word	1073792929
 457 0014 A5C70040 		.word	1073792933
ARM GAS  C:\Users\chemi\AppData\Local\Temp\cc1JRpda.s 			page 17


 458              		.cfi_endproc
 459              	.LFE8:
 460              		.size	FB_Filter_Write16, .-FB_Filter_Write16
 461              		.section	.text.FB_Filter_Write24,"ax",%progbits
 462              		.align	1
 463              		.global	FB_Filter_Write24
 464              		.thumb
 465              		.thumb_func
 466              		.type	FB_Filter_Write24, %function
 467              	FB_Filter_Write24:
 468              	.LFB9:
 449:Generated_Source\PSoC5/FB_Filter.c ****         }
 450:Generated_Source\PSoC5/FB_Filter.c ****         else
 451:Generated_Source\PSoC5/FB_Filter.c **** 		{
 452:Generated_Source\PSoC5/FB_Filter.c **** 			/* No value is loaded on bad channel input */
 453:Generated_Source\PSoC5/FB_Filter.c **** 		}
 454:Generated_Source\PSoC5/FB_Filter.c ****     }
 455:Generated_Source\PSoC5/FB_Filter.c **** 
 456:Generated_Source\PSoC5/FB_Filter.c **** #endif /* defined(__C51__) || defined(__CX51__) */
 457:Generated_Source\PSoC5/FB_Filter.c **** 
 458:Generated_Source\PSoC5/FB_Filter.c **** 
 459:Generated_Source\PSoC5/FB_Filter.c **** /*******************************************************************************
 460:Generated_Source\PSoC5/FB_Filter.c **** * Function Name: FB_Filter_Write24
 461:Generated_Source\PSoC5/FB_Filter.c **** ********************************************************************************
 462:Generated_Source\PSoC5/FB_Filter.c **** *
 463:Generated_Source\PSoC5/FB_Filter.c **** * Summary:
 464:Generated_Source\PSoC5/FB_Filter.c **** *  Set the value in one of the DFB Input Staging Registers 
 465:Generated_Source\PSoC5/FB_Filter.c **** *
 466:Generated_Source\PSoC5/FB_Filter.c **** * Parameters:  
 467:Generated_Source\PSoC5/FB_Filter.c **** *  channel:  Use either FB_Filter_CHANNEL_A or 
 468:Generated_Source\PSoC5/FB_Filter.c **** *            FB_Filter_CHANNEL_B as arguments to the function.  
 469:Generated_Source\PSoC5/FB_Filter.c **** *  sample:   The 24-bit, right justified input sample inside of a uint32. 
 470:Generated_Source\PSoC5/FB_Filter.c **** *
 471:Generated_Source\PSoC5/FB_Filter.c **** * Return: 
 472:Generated_Source\PSoC5/FB_Filter.c **** *  void
 473:Generated_Source\PSoC5/FB_Filter.c **** *
 474:Generated_Source\PSoC5/FB_Filter.c **** * Note:
 475:Generated_Source\PSoC5/FB_Filter.c **** *  Order of the write is important.  On the load of the high byte, the DFB sets
 476:Generated_Source\PSoC5/FB_Filter.c **** *  the input ready bit.
 477:Generated_Source\PSoC5/FB_Filter.c **** *
 478:Generated_Source\PSoC5/FB_Filter.c **** *******************************************************************************/
 479:Generated_Source\PSoC5/FB_Filter.c **** #if defined(__C51__) || defined(__CX51__)
 480:Generated_Source\PSoC5/FB_Filter.c **** 
 481:Generated_Source\PSoC5/FB_Filter.c ****     void FB_Filter_Write24(uint8 channel, uint32 sample) 
 482:Generated_Source\PSoC5/FB_Filter.c ****     {
 483:Generated_Source\PSoC5/FB_Filter.c ****         /* Write the STAGE LSB reg last as it signals a complete wrote to 
 484:Generated_Source\PSoC5/FB_Filter.c ****            the DFB.*/
 485:Generated_Source\PSoC5/FB_Filter.c ****         if (channel == FB_Filter_CHANNEL_A)
 486:Generated_Source\PSoC5/FB_Filter.c ****         {
 487:Generated_Source\PSoC5/FB_Filter.c ****             FB_Filter_STAGEA_REG  = (uint8)(sample);
 488:Generated_Source\PSoC5/FB_Filter.c ****             FB_Filter_STAGEAM_REG = (uint8)(sample >> 8u);
 489:Generated_Source\PSoC5/FB_Filter.c ****             FB_Filter_STAGEAH_REG = (uint8)(sample >> 16u);
 490:Generated_Source\PSoC5/FB_Filter.c ****         }
 491:Generated_Source\PSoC5/FB_Filter.c ****         else if (channel == FB_Filter_CHANNEL_B)
 492:Generated_Source\PSoC5/FB_Filter.c ****         {
 493:Generated_Source\PSoC5/FB_Filter.c ****             FB_Filter_STAGEB_REG = (uint8)(sample);
 494:Generated_Source\PSoC5/FB_Filter.c ****             FB_Filter_STAGEBM_REG = (uint8)(sample >> 8u);
ARM GAS  C:\Users\chemi\AppData\Local\Temp\cc1JRpda.s 			page 18


 495:Generated_Source\PSoC5/FB_Filter.c ****             FB_Filter_STAGEBH_REG = (uint8)(sample >> 16u);
 496:Generated_Source\PSoC5/FB_Filter.c ****         }
 497:Generated_Source\PSoC5/FB_Filter.c ****         else
 498:Generated_Source\PSoC5/FB_Filter.c **** 		{
 499:Generated_Source\PSoC5/FB_Filter.c **** 			/* No value is loaded on bad channel input */
 500:Generated_Source\PSoC5/FB_Filter.c **** 		}
 501:Generated_Source\PSoC5/FB_Filter.c ****     }
 502:Generated_Source\PSoC5/FB_Filter.c **** 
 503:Generated_Source\PSoC5/FB_Filter.c **** #else
 504:Generated_Source\PSoC5/FB_Filter.c **** 
 505:Generated_Source\PSoC5/FB_Filter.c ****     void FB_Filter_Write24(uint8 channel, uint32 sample) 
 506:Generated_Source\PSoC5/FB_Filter.c ****     {
 469              		.loc 1 506 0
 470              		.cfi_startproc
 471              		@ args = 0, pretend = 0, frame = 0
 472              		@ frame_needed = 0, uses_anonymous_args = 0
 473              		@ link register save eliminated.
 474              	.LVL24:
 507:Generated_Source\PSoC5/FB_Filter.c ****         if (channel == FB_Filter_CHANNEL_A)
 475              		.loc 1 507 0
 476 0000 08B9     		cbnz	r0, .L51
 508:Generated_Source\PSoC5/FB_Filter.c ****         {
 509:Generated_Source\PSoC5/FB_Filter.c ****             FB_Filter_STAGEA24_REG = sample;
 477              		.loc 1 509 0
 478 0002 034B     		ldr	r3, .L54
 479 0004 02E0     		b	.L53
 480              	.L51:
 510:Generated_Source\PSoC5/FB_Filter.c ****         }
 511:Generated_Source\PSoC5/FB_Filter.c ****         else if (channel == FB_Filter_CHANNEL_B)
 481              		.loc 1 511 0
 482 0006 0128     		cmp	r0, #1
 483 0008 01D1     		bne	.L50
 512:Generated_Source\PSoC5/FB_Filter.c ****         {
 513:Generated_Source\PSoC5/FB_Filter.c ****             FB_Filter_STAGEB24_REG = sample;
 484              		.loc 1 513 0
 485 000a 024B     		ldr	r3, .L54+4
 486              	.L53:
 487 000c 1960     		str	r1, [r3]
 488              	.L50:
 489 000e 7047     		bx	lr
 490              	.L55:
 491              		.align	2
 492              	.L54:
 493 0010 A0C70040 		.word	1073792928
 494 0014 A4C70040 		.word	1073792932
 495              		.cfi_endproc
 496              	.LFE9:
 497              		.size	FB_Filter_Write24, .-FB_Filter_Write24
 498              		.section	.text.FB_Filter_SetCoherency,"ax",%progbits
 499              		.align	1
 500              		.global	FB_Filter_SetCoherency
 501              		.thumb
 502              		.thumb_func
 503              		.type	FB_Filter_SetCoherency, %function
 504              	FB_Filter_SetCoherency:
 505              	.LFB10:
 514:Generated_Source\PSoC5/FB_Filter.c ****         }
ARM GAS  C:\Users\chemi\AppData\Local\Temp\cc1JRpda.s 			page 19


 515:Generated_Source\PSoC5/FB_Filter.c ****         else
 516:Generated_Source\PSoC5/FB_Filter.c **** 		{
 517:Generated_Source\PSoC5/FB_Filter.c **** 			/* No value is loaded on bad channel input */
 518:Generated_Source\PSoC5/FB_Filter.c **** 		}
 519:Generated_Source\PSoC5/FB_Filter.c ****     }
 520:Generated_Source\PSoC5/FB_Filter.c **** 
 521:Generated_Source\PSoC5/FB_Filter.c **** #endif /* defined(__C51__) || defined(__CX51__) */
 522:Generated_Source\PSoC5/FB_Filter.c **** 
 523:Generated_Source\PSoC5/FB_Filter.c **** 
 524:Generated_Source\PSoC5/FB_Filter.c **** /*******************************************************************************
 525:Generated_Source\PSoC5/FB_Filter.c **** * Function Name: FB_Filter_SetCoherency
 526:Generated_Source\PSoC5/FB_Filter.c **** ********************************************************************************
 527:Generated_Source\PSoC5/FB_Filter.c **** *
 528:Generated_Source\PSoC5/FB_Filter.c **** * Summary:
 529:Generated_Source\PSoC5/FB_Filter.c **** *  Sets the DFB coherency register with the user provided input 
 530:Generated_Source\PSoC5/FB_Filter.c **** *
 531:Generated_Source\PSoC5/FB_Filter.c **** * Parameters:  
 532:Generated_Source\PSoC5/FB_Filter.c **** *  channel:  FB_Filter_CHANNEL_A or FB_Filter_CHANNEL_B
 533:Generated_Source\PSoC5/FB_Filter.c **** *  byteSelect:  High byte, Middle byte or Low byte as the key coherency byte.
 534:Generated_Source\PSoC5/FB_Filter.c **** *            
 535:Generated_Source\PSoC5/FB_Filter.c **** * Return: 
 536:Generated_Source\PSoC5/FB_Filter.c **** *  None.
 537:Generated_Source\PSoC5/FB_Filter.c **** *
 538:Generated_Source\PSoC5/FB_Filter.c **** *******************************************************************************/
 539:Generated_Source\PSoC5/FB_Filter.c **** void FB_Filter_SetCoherency(uint8 channel, uint8 byteSelect) 
 540:Generated_Source\PSoC5/FB_Filter.c **** {
 506              		.loc 1 540 0
 507              		.cfi_startproc
 508              		@ args = 0, pretend = 0, frame = 0
 509              		@ frame_needed = 0, uses_anonymous_args = 0
 510              		@ link register save eliminated.
 511              	.LVL25:
 541:Generated_Source\PSoC5/FB_Filter.c ****     if (channel == FB_Filter_CHANNEL_A)
 512              		.loc 1 541 0
 513 0000 58B9     		cbnz	r0, .L57
 542:Generated_Source\PSoC5/FB_Filter.c ****     {
 543:Generated_Source\PSoC5/FB_Filter.c ****         FB_Filter_COHER_REG &= 
 514              		.loc 1 543 0
 515 0002 0F4B     		ldr	r3, .L60
 516 0004 1A78     		ldrb	r2, [r3]	@ zero_extendqisi2
 517 0006 02F0CC02 		and	r2, r2, #204
 518 000a 1A70     		strb	r2, [r3]
 544:Generated_Source\PSoC5/FB_Filter.c ****                 (uint8)(~(uint8)(FB_Filter_STAGEA_COHER_MASK | FB_Filter_HOLDA_COHER_MASK));
 545:Generated_Source\PSoC5/FB_Filter.c ****         FB_Filter_COHER_REG |= byteSelect;
 519              		.loc 1 545 0
 520 000c 1A78     		ldrb	r2, [r3]	@ zero_extendqisi2
 521 000e 0A43     		orrs	r2, r2, r1
 522 0010 1A70     		strb	r2, [r3]
 546:Generated_Source\PSoC5/FB_Filter.c ****         FB_Filter_COHER_REG |= (uint8)((uint8)byteSelect << 4u);
 523              		.loc 1 546 0
 524 0012 1A78     		ldrb	r2, [r3]	@ zero_extendqisi2
 525 0014 42EA0111 		orr	r1, r2, r1, lsl #4
 526              	.LVL26:
 527 0018 0EE0     		b	.L59
 528              	.LVL27:
 529              	.L57:
 547:Generated_Source\PSoC5/FB_Filter.c ****     }
ARM GAS  C:\Users\chemi\AppData\Local\Temp\cc1JRpda.s 			page 20


 548:Generated_Source\PSoC5/FB_Filter.c ****     else if (channel == FB_Filter_CHANNEL_B)
 530              		.loc 1 548 0
 531 001a 0128     		cmp	r0, #1
 532 001c 0ED1     		bne	.L56
 549:Generated_Source\PSoC5/FB_Filter.c ****     {
 550:Generated_Source\PSoC5/FB_Filter.c ****         FB_Filter_COHER_REG &= 
 533              		.loc 1 550 0
 534 001e 084B     		ldr	r3, .L60
 535 0020 1A78     		ldrb	r2, [r3]	@ zero_extendqisi2
 536 0022 02F03302 		and	r2, r2, #51
 537 0026 1A70     		strb	r2, [r3]
 551:Generated_Source\PSoC5/FB_Filter.c ****                 (uint8)(~(uint8)(FB_Filter_STAGEB_COHER_MASK | FB_Filter_HOLDB_COHER_MASK));
 552:Generated_Source\PSoC5/FB_Filter.c ****         FB_Filter_COHER_REG |= (uint8)((uint8)byteSelect << 2u);
 538              		.loc 1 552 0
 539 0028 1A78     		ldrb	r2, [r3]	@ zero_extendqisi2
 540 002a 42EA8102 		orr	r2, r2, r1, lsl #2
 541 002e D2B2     		uxtb	r2, r2
 542 0030 1A70     		strb	r2, [r3]
 553:Generated_Source\PSoC5/FB_Filter.c ****         FB_Filter_COHER_REG |= (uint8)((uint8)byteSelect << 6u);
 543              		.loc 1 553 0
 544 0032 1A78     		ldrb	r2, [r3]	@ zero_extendqisi2
 545 0034 42EA8111 		orr	r1, r2, r1, lsl #6
 546              	.LVL28:
 547              	.L59:
 548 0038 C9B2     		uxtb	r1, r1
 549 003a 1970     		strb	r1, [r3]
 550              	.L56:
 551 003c 7047     		bx	lr
 552              	.L61:
 553 003e 00BF     		.align	2
 554              	.L60:
 555 0040 B0C70040 		.word	1073792944
 556              		.cfi_endproc
 557              	.LFE10:
 558              		.size	FB_Filter_SetCoherency, .-FB_Filter_SetCoherency
 559              		.section	.text.FB_Filter_SetCoherencyEx,"ax",%progbits
 560              		.align	1
 561              		.global	FB_Filter_SetCoherencyEx
 562              		.thumb
 563              		.thumb_func
 564              		.type	FB_Filter_SetCoherencyEx, %function
 565              	FB_Filter_SetCoherencyEx:
 566              	.LFB11:
 554:Generated_Source\PSoC5/FB_Filter.c ****     }
 555:Generated_Source\PSoC5/FB_Filter.c ****     else
 556:Generated_Source\PSoC5/FB_Filter.c ****     {
 557:Generated_Source\PSoC5/FB_Filter.c ****         /* Invalid channel value */
 558:Generated_Source\PSoC5/FB_Filter.c ****     }
 559:Generated_Source\PSoC5/FB_Filter.c **** }
 560:Generated_Source\PSoC5/FB_Filter.c **** 
 561:Generated_Source\PSoC5/FB_Filter.c **** 
 562:Generated_Source\PSoC5/FB_Filter.c **** /*******************************************************************************
 563:Generated_Source\PSoC5/FB_Filter.c **** * Function Name: FB_Filter_SetCoherencyEx
 564:Generated_Source\PSoC5/FB_Filter.c **** ********************************************************************************
 565:Generated_Source\PSoC5/FB_Filter.c **** * 
 566:Generated_Source\PSoC5/FB_Filter.c **** * Summary:
 567:Generated_Source\PSoC5/FB_Filter.c **** *  Configures the DFB coherency register for each of the staging and holding 
ARM GAS  C:\Users\chemi\AppData\Local\Temp\cc1JRpda.s 			page 21


 568:Generated_Source\PSoC5/FB_Filter.c **** *  registers. Allows multiple registers with the same configuration to be set 
 569:Generated_Source\PSoC5/FB_Filter.c **** *  at the same time. This API should be used when the coherency of the staging 
 570:Generated_Source\PSoC5/FB_Filter.c **** *  and holding register of a channel is different. 
 571:Generated_Source\PSoC5/FB_Filter.c **** *
 572:Generated_Source\PSoC5/FB_Filter.c **** * Parameters:  
 573:Generated_Source\PSoC5/FB_Filter.c **** *  regSelect: This parameter is used to specify the registers that will undergo
 574:Generated_Source\PSoC5/FB_Filter.c **** *             the change in coherency. These are maskable and multiple registers
 575:Generated_Source\PSoC5/FB_Filter.c **** *             with the same configuration can passed by performing an OR 
 576:Generated_Source\PSoC5/FB_Filter.c **** *             operation on the following definitions. 
 577:Generated_Source\PSoC5/FB_Filter.c **** *            FB_Filter_STAGEA_COHER, 
 578:Generated_Source\PSoC5/FB_Filter.c **** *            FB_Filter_STAGEB_COHER,
 579:Generated_Source\PSoC5/FB_Filter.c **** *            FB_Filter_HOLDA_COHER,
 580:Generated_Source\PSoC5/FB_Filter.c **** *            FB_Filter_HOLDB_COHER.
 581:Generated_Source\PSoC5/FB_Filter.c **** *  key: The key coherency byte that will be chosen for the register(s).
 582:Generated_Source\PSoC5/FB_Filter.c **** *       FB_Filter_KEY_LOW, 
 583:Generated_Source\PSoC5/FB_Filter.c **** *       FB_Filter_KEY_MID,
 584:Generated_Source\PSoC5/FB_Filter.c **** *       FB_Filter_KEY_HIGH.
 585:Generated_Source\PSoC5/FB_Filter.c **** *            
 586:Generated_Source\PSoC5/FB_Filter.c **** * Return: 
 587:Generated_Source\PSoC5/FB_Filter.c **** *  None.
 588:Generated_Source\PSoC5/FB_Filter.c **** *
 589:Generated_Source\PSoC5/FB_Filter.c **** *******************************************************************************/
 590:Generated_Source\PSoC5/FB_Filter.c **** void FB_Filter_SetCoherencyEx(uint8 regSelect, uint8 key) 
 591:Generated_Source\PSoC5/FB_Filter.c **** {
 567              		.loc 1 591 0
 568              		.cfi_startproc
 569              		@ args = 0, pretend = 0, frame = 0
 570              		@ frame_needed = 0, uses_anonymous_args = 0
 571              	.LVL29:
 572 0000 10B5     		push	{r4, lr}
 573              		.cfi_def_cfa_offset 8
 574              		.cfi_offset 4, -8
 575              		.cfi_offset 14, -4
 592:Generated_Source\PSoC5/FB_Filter.c ****     uint8 keyReg;
 593:Generated_Source\PSoC5/FB_Filter.c ****     
 594:Generated_Source\PSoC5/FB_Filter.c ****     keyReg = (uint8)(key << 2u) | key;
 595:Generated_Source\PSoC5/FB_Filter.c ****     keyReg |= (uint8)(keyReg << 4u);
 596:Generated_Source\PSoC5/FB_Filter.c ****     
 597:Generated_Source\PSoC5/FB_Filter.c ****     FB_Filter_COHER_REG &= (uint8)~regSelect;
 576              		.loc 1 597 0
 577 0002 084A     		ldr	r2, .L63
 594:Generated_Source\PSoC5/FB_Filter.c ****     keyReg |= (uint8)(keyReg << 4u);
 578              		.loc 1 594 0
 579 0004 41EA8101 		orr	r1, r1, r1, lsl #2
 580              	.LVL30:
 581              		.loc 1 597 0
 582 0008 1478     		ldrb	r4, [r2]	@ zero_extendqisi2
 594:Generated_Source\PSoC5/FB_Filter.c ****     keyReg |= (uint8)(keyReg << 4u);
 583              		.loc 1 594 0
 584 000a C9B2     		uxtb	r1, r1
 585              	.LVL31:
 586              		.loc 1 597 0
 587 000c 24EA0004 		bic	r4, r4, r0
 595:Generated_Source\PSoC5/FB_Filter.c ****     
 588              		.loc 1 595 0
 589 0010 0B01     		lsls	r3, r1, #4
 590              		.loc 1 597 0
ARM GAS  C:\Users\chemi\AppData\Local\Temp\cc1JRpda.s 			page 22


 591 0012 1470     		strb	r4, [r2]
 595:Generated_Source\PSoC5/FB_Filter.c ****     
 592              		.loc 1 595 0
 593 0014 DBB2     		uxtb	r3, r3
 594              	.LVL32:
 598:Generated_Source\PSoC5/FB_Filter.c ****     FB_Filter_COHER_REG |= keyReg & regSelect;
 595              		.loc 1 598 0
 596 0016 1478     		ldrb	r4, [r2]	@ zero_extendqisi2
 597 0018 1943     		orrs	r1, r1, r3
 598              	.LVL33:
 599 001a 0840     		ands	r0, r0, r1
 600              	.LVL34:
 601 001c 2043     		orrs	r0, r0, r4
 602 001e 1070     		strb	r0, [r2]
 603 0020 10BD     		pop	{r4, pc}
 604              	.L64:
 605 0022 00BF     		.align	2
 606              	.L63:
 607 0024 B0C70040 		.word	1073792944
 608              		.cfi_endproc
 609              	.LFE11:
 610              		.size	FB_Filter_SetCoherencyEx, .-FB_Filter_SetCoherencyEx
 611              		.section	.text.FB_Filter_SetDalign,"ax",%progbits
 612              		.align	1
 613              		.global	FB_Filter_SetDalign
 614              		.thumb
 615              		.thumb_func
 616              		.type	FB_Filter_SetDalign, %function
 617              	FB_Filter_SetDalign:
 618              	.LFB12:
 599:Generated_Source\PSoC5/FB_Filter.c **** }
 600:Generated_Source\PSoC5/FB_Filter.c **** 
 601:Generated_Source\PSoC5/FB_Filter.c **** 
 602:Generated_Source\PSoC5/FB_Filter.c **** /*******************************************************************************
 603:Generated_Source\PSoC5/FB_Filter.c **** * Function Name: FB_Filter_SetDalign
 604:Generated_Source\PSoC5/FB_Filter.c **** ********************************************************************************
 605:Generated_Source\PSoC5/FB_Filter.c **** * 
 606:Generated_Source\PSoC5/FB_Filter.c **** * Summary:
 607:Generated_Source\PSoC5/FB_Filter.c **** *  Configures the DFB dalign register for each of the staging and holding 
 608:Generated_Source\PSoC5/FB_Filter.c **** *  registers. Allows multiple registers with the same configuration to be set
 609:Generated_Source\PSoC5/FB_Filter.c **** *  at the same time. 
 610:Generated_Source\PSoC5/FB_Filter.c **** *
 611:Generated_Source\PSoC5/FB_Filter.c **** * Parameters:  
 612:Generated_Source\PSoC5/FB_Filter.c **** *  regSelect: This parameter is used to specify the registers that will undergo
 613:Generated_Source\PSoC5/FB_Filter.c **** *             the change in data alignment. These are maskable and multiple 
 614:Generated_Source\PSoC5/FB_Filter.c **** *             registers with the same configuration can passed by performing 
 615:Generated_Source\PSoC5/FB_Filter.c **** *             an OR operation on the following definitions.
 616:Generated_Source\PSoC5/FB_Filter.c **** *             FB_Filter_STAGEA_DALIGN, 
 617:Generated_Source\PSoC5/FB_Filter.c **** *             FB_Filter_STAGEB_DALIGN,
 618:Generated_Source\PSoC5/FB_Filter.c **** *             FB_Filter_HOLDA_DALIGN,
 619:Generated_Source\PSoC5/FB_Filter.c **** *             FB_Filter_HOLDB_DALIGN.
 620:Generated_Source\PSoC5/FB_Filter.c **** *  state: The state is use to either enable the data alignment bits for the 
 621:Generated_Source\PSoC5/FB_Filter.c **** *         corresponding registers or to disable them.
 622:Generated_Source\PSoC5/FB_Filter.c **** *         FB_Filter_ENABLED,
 623:Generated_Source\PSoC5/FB_Filter.c **** *         FB_Filter_DISABLED
 624:Generated_Source\PSoC5/FB_Filter.c **** *            
 625:Generated_Source\PSoC5/FB_Filter.c **** * Return: 
ARM GAS  C:\Users\chemi\AppData\Local\Temp\cc1JRpda.s 			page 23


 626:Generated_Source\PSoC5/FB_Filter.c **** *  None.
 627:Generated_Source\PSoC5/FB_Filter.c **** *
 628:Generated_Source\PSoC5/FB_Filter.c **** *******************************************************************************/
 629:Generated_Source\PSoC5/FB_Filter.c **** void FB_Filter_SetDalign(uint8 regSelect, uint8 state) 
 630:Generated_Source\PSoC5/FB_Filter.c **** {    
 619              		.loc 1 630 0
 620              		.cfi_startproc
 621              		@ args = 0, pretend = 0, frame = 0
 622              		@ frame_needed = 0, uses_anonymous_args = 0
 623              		@ link register save eliminated.
 624              	.LVL35:
 631:Generated_Source\PSoC5/FB_Filter.c ****     if (state == FB_Filter_ENABLED)
 625              		.loc 1 631 0
 626 0000 0129     		cmp	r1, #1
 627 0002 04D1     		bne	.L66
 632:Generated_Source\PSoC5/FB_Filter.c ****     {
 633:Generated_Source\PSoC5/FB_Filter.c ****         FB_Filter_DALIGN_REG |= regSelect;
 628              		.loc 1 633 0
 629 0004 054B     		ldr	r3, .L68
 630 0006 1A78     		ldrb	r2, [r3]	@ zero_extendqisi2
 631 0008 1043     		orrs	r0, r0, r2
 632              	.LVL36:
 633 000a 1870     		strb	r0, [r3]
 634 000c 7047     		bx	lr
 635              	.LVL37:
 636              	.L66:
 634:Generated_Source\PSoC5/FB_Filter.c ****     }
 635:Generated_Source\PSoC5/FB_Filter.c ****     else if (state == FB_Filter_DISABLED)
 637              		.loc 1 635 0
 638 000e 21B9     		cbnz	r1, .L65
 636:Generated_Source\PSoC5/FB_Filter.c ****     {
 637:Generated_Source\PSoC5/FB_Filter.c ****         FB_Filter_DALIGN_REG &= (uint8)(~regSelect);
 639              		.loc 1 637 0
 640 0010 024A     		ldr	r2, .L68
 641 0012 1378     		ldrb	r3, [r2]	@ zero_extendqisi2
 642 0014 23EA0000 		bic	r0, r3, r0
 643              	.LVL38:
 644 0018 1070     		strb	r0, [r2]
 645              	.L65:
 646 001a 7047     		bx	lr
 647              	.L69:
 648              		.align	2
 649              	.L68:
 650 001c B4C70040 		.word	1073792948
 651              		.cfi_endproc
 652              	.LFE12:
 653              		.size	FB_Filter_SetDalign, .-FB_Filter_SetDalign
 654              		.global	FB_Filter_initVar
 655              		.bss
 656              		.set	.LANCHOR0,. + 0
 657              		.type	FB_Filter_initVar, %object
 658              		.size	FB_Filter_initVar, 1
 659              	FB_Filter_initVar:
 660 0000 00       		.space	1
 661              		.text
 662              	.Letext0:
 663              		.file 2 "Generated_Source\\PSoC5\\cytypes.h"
ARM GAS  C:\Users\chemi\AppData\Local\Temp\cc1JRpda.s 			page 24


 664              		.file 3 "Generated_Source\\PSoC5\\FB_Filter_PVT.h"