ARM GAS  C:\Users\chemi\AppData\Local\Temp\ccMxhiSI.s 			page 1


   1              		.syntax unified
   2              		.cpu cortex-m3
   3              		.fpu softvfp
   4              		.eabi_attribute 20, 1
   5              		.eabi_attribute 21, 1
   6              		.eabi_attribute 23, 3
   7              		.eabi_attribute 24, 1
   8              		.eabi_attribute 25, 1
   9              		.eabi_attribute 26, 1
  10              		.eabi_attribute 30, 4
  11              		.eabi_attribute 34, 1
  12              		.eabi_attribute 18, 4
  13              		.thumb
  14              		.syntax unified
  15              		.file	"I2C_MASTER.c"
  16              		.text
  17              	.Ltext0:
  18              		.cfi_sections	.debug_frame
  19              		.section	.text.I2C_MasterWriteBuf,"ax",%progbits
  20              		.align	1
  21              		.global	I2C_MasterWriteBuf
  22              		.thumb
  23              		.thumb_func
  24              		.type	I2C_MasterWriteBuf, %function
  25              	I2C_MasterWriteBuf:
  26              	.LFB0:
  27              		.file 1 "Generated_Source\\PSoC5\\I2C_MASTER.c"
   1:Generated_Source\PSoC5/I2C_MASTER.c **** /*******************************************************************************
   2:Generated_Source\PSoC5/I2C_MASTER.c **** * File Name: I2C_MASTER.c
   3:Generated_Source\PSoC5/I2C_MASTER.c **** * Version 3.50
   4:Generated_Source\PSoC5/I2C_MASTER.c **** *
   5:Generated_Source\PSoC5/I2C_MASTER.c **** * Description:
   6:Generated_Source\PSoC5/I2C_MASTER.c **** *  This file provides the source code of APIs for the I2C component master mode.
   7:Generated_Source\PSoC5/I2C_MASTER.c **** *
   8:Generated_Source\PSoC5/I2C_MASTER.c **** *******************************************************************************
   9:Generated_Source\PSoC5/I2C_MASTER.c **** * Copyright 2012-2015, Cypress Semiconductor Corporation. All rights reserved.
  10:Generated_Source\PSoC5/I2C_MASTER.c **** * You may use this file only in accordance with the license, terms, conditions,
  11:Generated_Source\PSoC5/I2C_MASTER.c **** * disclaimers, and limitations in the end user license agreement accompanying
  12:Generated_Source\PSoC5/I2C_MASTER.c **** * the software package with which this file was provided.
  13:Generated_Source\PSoC5/I2C_MASTER.c **** *******************************************************************************/
  14:Generated_Source\PSoC5/I2C_MASTER.c **** 
  15:Generated_Source\PSoC5/I2C_MASTER.c **** #include "I2C_PVT.h"
  16:Generated_Source\PSoC5/I2C_MASTER.c **** 
  17:Generated_Source\PSoC5/I2C_MASTER.c **** #if(I2C_MODE_MASTER_ENABLED)
  18:Generated_Source\PSoC5/I2C_MASTER.c **** 
  19:Generated_Source\PSoC5/I2C_MASTER.c **** /**********************************
  20:Generated_Source\PSoC5/I2C_MASTER.c **** *      System variables
  21:Generated_Source\PSoC5/I2C_MASTER.c **** **********************************/
  22:Generated_Source\PSoC5/I2C_MASTER.c **** 
  23:Generated_Source\PSoC5/I2C_MASTER.c **** volatile uint8 I2C_mstrStatus;     /* Master Status byte  */
  24:Generated_Source\PSoC5/I2C_MASTER.c **** volatile uint8 I2C_mstrControl;    /* Master Control byte */
  25:Generated_Source\PSoC5/I2C_MASTER.c **** 
  26:Generated_Source\PSoC5/I2C_MASTER.c **** /* Transmit buffer variables */
  27:Generated_Source\PSoC5/I2C_MASTER.c **** volatile uint8 * I2C_mstrRdBufPtr;     /* Pointer to Master Read buffer */
  28:Generated_Source\PSoC5/I2C_MASTER.c **** volatile uint8   I2C_mstrRdBufSize;    /* Master Read buffer size       */
  29:Generated_Source\PSoC5/I2C_MASTER.c **** volatile uint8   I2C_mstrRdBufIndex;   /* Master Read buffer Index      */
  30:Generated_Source\PSoC5/I2C_MASTER.c **** 
ARM GAS  C:\Users\chemi\AppData\Local\Temp\ccMxhiSI.s 			page 2


  31:Generated_Source\PSoC5/I2C_MASTER.c **** /* Receive buffer variables */
  32:Generated_Source\PSoC5/I2C_MASTER.c **** volatile uint8 * I2C_mstrWrBufPtr;     /* Pointer to Master Write buffer */
  33:Generated_Source\PSoC5/I2C_MASTER.c **** volatile uint8   I2C_mstrWrBufSize;    /* Master Write buffer size       */
  34:Generated_Source\PSoC5/I2C_MASTER.c **** volatile uint8   I2C_mstrWrBufIndex;   /* Master Write buffer Index      */
  35:Generated_Source\PSoC5/I2C_MASTER.c **** 
  36:Generated_Source\PSoC5/I2C_MASTER.c **** 
  37:Generated_Source\PSoC5/I2C_MASTER.c **** /*******************************************************************************
  38:Generated_Source\PSoC5/I2C_MASTER.c **** * Function Name: I2C_MasterWriteBuf
  39:Generated_Source\PSoC5/I2C_MASTER.c **** ********************************************************************************
  40:Generated_Source\PSoC5/I2C_MASTER.c **** *
  41:Generated_Source\PSoC5/I2C_MASTER.c **** * Summary:
  42:Generated_Source\PSoC5/I2C_MASTER.c **** *  Automatically writes an entire buffer of data to a slave device. Once the
  43:Generated_Source\PSoC5/I2C_MASTER.c **** *  data transfer is initiated by this function, further data transfer is handled
  44:Generated_Source\PSoC5/I2C_MASTER.c **** *  by the included ISR in byte by byte mode.
  45:Generated_Source\PSoC5/I2C_MASTER.c **** *
  46:Generated_Source\PSoC5/I2C_MASTER.c **** * Parameters:
  47:Generated_Source\PSoC5/I2C_MASTER.c **** *  slaveAddr: 7-bit slave address.
  48:Generated_Source\PSoC5/I2C_MASTER.c **** *  xferData:  Pointer to buffer of data to be sent.
  49:Generated_Source\PSoC5/I2C_MASTER.c **** *  cnt:       Size of buffer to send.
  50:Generated_Source\PSoC5/I2C_MASTER.c **** *  mode:      Transfer mode defines: start or restart condition generation at
  51:Generated_Source\PSoC5/I2C_MASTER.c **** *             begin of the transfer and complete the transfer or halt before
  52:Generated_Source\PSoC5/I2C_MASTER.c **** *             generating a stop.
  53:Generated_Source\PSoC5/I2C_MASTER.c **** *
  54:Generated_Source\PSoC5/I2C_MASTER.c **** * Return:
  55:Generated_Source\PSoC5/I2C_MASTER.c **** *  Status error - Zero means no errors.
  56:Generated_Source\PSoC5/I2C_MASTER.c **** *
  57:Generated_Source\PSoC5/I2C_MASTER.c **** * Side Effects:
  58:Generated_Source\PSoC5/I2C_MASTER.c **** *  The included ISR will start a transfer after a start or restart condition is
  59:Generated_Source\PSoC5/I2C_MASTER.c **** *  generated.
  60:Generated_Source\PSoC5/I2C_MASTER.c **** *
  61:Generated_Source\PSoC5/I2C_MASTER.c **** * Global variables:
  62:Generated_Source\PSoC5/I2C_MASTER.c **** *  I2C_mstrStatus  - The global variable used to store a current
  63:Generated_Source\PSoC5/I2C_MASTER.c **** *                                 status of the I2C Master.
  64:Generated_Source\PSoC5/I2C_MASTER.c **** *  I2C_state       - The global variable used to store a current
  65:Generated_Source\PSoC5/I2C_MASTER.c **** *                                 state of the software FSM.
  66:Generated_Source\PSoC5/I2C_MASTER.c **** *  I2C_mstrControl - The global variable used to control the master
  67:Generated_Source\PSoC5/I2C_MASTER.c **** *                                 end of a transaction with or without Stop
  68:Generated_Source\PSoC5/I2C_MASTER.c **** *                                 generation.
  69:Generated_Source\PSoC5/I2C_MASTER.c **** *  I2C_mstrWrBufPtr - The global variable used to store a pointer
  70:Generated_Source\PSoC5/I2C_MASTER.c **** *                                  to the master write buffer.
  71:Generated_Source\PSoC5/I2C_MASTER.c **** *  I2C_mstrWrBufIndex - The global variable used to store current
  72:Generated_Source\PSoC5/I2C_MASTER.c **** *                                    index within the master write buffer.
  73:Generated_Source\PSoC5/I2C_MASTER.c **** *  I2C_mstrWrBufSize - The global variable used to store a master
  74:Generated_Source\PSoC5/I2C_MASTER.c **** *                                   write buffer size.
  75:Generated_Source\PSoC5/I2C_MASTER.c **** *
  76:Generated_Source\PSoC5/I2C_MASTER.c **** * Reentrant:
  77:Generated_Source\PSoC5/I2C_MASTER.c **** *  No
  78:Generated_Source\PSoC5/I2C_MASTER.c **** *
  79:Generated_Source\PSoC5/I2C_MASTER.c **** *******************************************************************************/
  80:Generated_Source\PSoC5/I2C_MASTER.c **** uint8 I2C_MasterWriteBuf(uint8 slaveAddress, uint8 * wrData, uint8 cnt, uint8 mode)
  81:Generated_Source\PSoC5/I2C_MASTER.c ****       
  82:Generated_Source\PSoC5/I2C_MASTER.c **** {
  28              		.loc 1 82 0
  29              		.cfi_startproc
  30              		@ args = 0, pretend = 0, frame = 0
  31              		@ frame_needed = 0, uses_anonymous_args = 0
  32              	.LVL0:
ARM GAS  C:\Users\chemi\AppData\Local\Temp\ccMxhiSI.s 			page 3


  33 0000 70B5     		push	{r4, r5, r6, lr}
  34              		.cfi_def_cfa_offset 16
  35              		.cfi_offset 4, -16
  36              		.cfi_offset 5, -12
  37              		.cfi_offset 6, -8
  38              		.cfi_offset 14, -4
  83:Generated_Source\PSoC5/I2C_MASTER.c ****     uint8 errStatus;
  84:Generated_Source\PSoC5/I2C_MASTER.c **** 
  85:Generated_Source\PSoC5/I2C_MASTER.c ****     errStatus = I2C_MSTR_NOT_READY;
  86:Generated_Source\PSoC5/I2C_MASTER.c **** 
  87:Generated_Source\PSoC5/I2C_MASTER.c ****     if(NULL != wrData)
  39              		.loc 1 87 0
  40 0002 B1B1     		cbz	r1, .L10
  88:Generated_Source\PSoC5/I2C_MASTER.c ****     {
  89:Generated_Source\PSoC5/I2C_MASTER.c ****         /* Check I2C state to allow transfer: valid states are IDLE or HALT */
  90:Generated_Source\PSoC5/I2C_MASTER.c ****         if(I2C_SM_IDLE == I2C_state)
  41              		.loc 1 90 0
  42 0004 1E4C     		ldr	r4, .L19
  43 0006 2578     		ldrb	r5, [r4]	@ zero_extendqisi2
  44 0008 102D     		cmp	r5, #16
  45 000a 05D1     		bne	.L3
  91:Generated_Source\PSoC5/I2C_MASTER.c ****         {
  92:Generated_Source\PSoC5/I2C_MASTER.c ****             /* Master is ready for transaction: check if bus is free */
  93:Generated_Source\PSoC5/I2C_MASTER.c ****             if(I2C_CHECK_BUS_FREE(I2C_MCSR_REG))
  46              		.loc 1 93 0
  47 000c 1D4D     		ldr	r5, .L19+4
  48 000e 2D78     		ldrb	r5, [r5]	@ zero_extendqisi2
  49 0010 2D07     		lsls	r5, r5, #28
  50 0012 10D5     		bpl	.L4
  94:Generated_Source\PSoC5/I2C_MASTER.c ****             {
  95:Generated_Source\PSoC5/I2C_MASTER.c ****                 errStatus = I2C_MSTR_NO_ERROR;
  96:Generated_Source\PSoC5/I2C_MASTER.c ****             }
  97:Generated_Source\PSoC5/I2C_MASTER.c ****             else
  98:Generated_Source\PSoC5/I2C_MASTER.c ****             {
  99:Generated_Source\PSoC5/I2C_MASTER.c ****                 errStatus = I2C_MSTR_BUS_BUSY;
  51              		.loc 1 99 0
  52 0014 0120     		movs	r0, #1
  53              	.LVL1:
  54 0016 70BD     		pop	{r4, r5, r6, pc}
  55              	.LVL2:
  56              	.L3:
 100:Generated_Source\PSoC5/I2C_MASTER.c ****             }
 101:Generated_Source\PSoC5/I2C_MASTER.c ****         }
 102:Generated_Source\PSoC5/I2C_MASTER.c ****         else if(I2C_SM_MSTR_HALT == I2C_state)
  57              		.loc 1 102 0
  58 0018 2578     		ldrb	r5, [r4]	@ zero_extendqisi2
  59 001a 602D     		cmp	r5, #96
  60 001c 09D1     		bne	.L10
  61              	.LVL3:
 103:Generated_Source\PSoC5/I2C_MASTER.c ****         {
 104:Generated_Source\PSoC5/I2C_MASTER.c ****             /* Master is ready and waiting for ReStart */
 105:Generated_Source\PSoC5/I2C_MASTER.c ****             errStatus = I2C_MSTR_NO_ERROR;
 106:Generated_Source\PSoC5/I2C_MASTER.c **** 
 107:Generated_Source\PSoC5/I2C_MASTER.c ****             I2C_ClearPendingInt();
  62              		.loc 1 107 0
  63 001e 1A4D     		ldr	r5, .L19+8
  64 0020 4FF40046 		mov	r6, #32768
ARM GAS  C:\Users\chemi\AppData\Local\Temp\ccMxhiSI.s 			page 4


  65 0024 2E60     		str	r6, [r5]
 108:Generated_Source\PSoC5/I2C_MASTER.c ****             I2C_mstrStatus &= (uint8) ~I2C_MSTAT_XFER_HALT;
  66              		.loc 1 108 0
  67 0026 194E     		ldr	r6, .L19+12
  68 0028 3578     		ldrb	r5, [r6]	@ zero_extendqisi2
  69 002a 05F0F705 		and	r5, r5, #247
  70 002e 3570     		strb	r5, [r6]
  71 0030 01E0     		b	.L4
  72              	.LVL4:
  73              	.L10:
  85:Generated_Source\PSoC5/I2C_MASTER.c **** 
  74              		.loc 1 85 0
  75 0032 0220     		movs	r0, #2
  76              	.LVL5:
 109:Generated_Source\PSoC5/I2C_MASTER.c ****         }
 110:Generated_Source\PSoC5/I2C_MASTER.c ****         else
 111:Generated_Source\PSoC5/I2C_MASTER.c ****         {
 112:Generated_Source\PSoC5/I2C_MASTER.c ****             /* errStatus = I2C_MSTR_NOT_READY was send before */
 113:Generated_Source\PSoC5/I2C_MASTER.c ****         }
 114:Generated_Source\PSoC5/I2C_MASTER.c **** 
 115:Generated_Source\PSoC5/I2C_MASTER.c ****         if(I2C_MSTR_NO_ERROR == errStatus)
 116:Generated_Source\PSoC5/I2C_MASTER.c ****         {
 117:Generated_Source\PSoC5/I2C_MASTER.c ****             /* Set state to start write transaction */
 118:Generated_Source\PSoC5/I2C_MASTER.c ****             I2C_state = I2C_SM_MSTR_WR_ADDR;
 119:Generated_Source\PSoC5/I2C_MASTER.c **** 
 120:Generated_Source\PSoC5/I2C_MASTER.c ****             /* Prepare write buffer */
 121:Generated_Source\PSoC5/I2C_MASTER.c ****             I2C_mstrWrBufIndex = 0u;
 122:Generated_Source\PSoC5/I2C_MASTER.c ****             I2C_mstrWrBufSize  = cnt;
 123:Generated_Source\PSoC5/I2C_MASTER.c ****             I2C_mstrWrBufPtr   = (volatile uint8 *) wrData;
 124:Generated_Source\PSoC5/I2C_MASTER.c **** 
 125:Generated_Source\PSoC5/I2C_MASTER.c ****             /* Set end of transaction flag: Stop or Halt (following ReStart) */
 126:Generated_Source\PSoC5/I2C_MASTER.c ****             I2C_mstrControl = mode;
 127:Generated_Source\PSoC5/I2C_MASTER.c **** 
 128:Generated_Source\PSoC5/I2C_MASTER.c ****             /* Clear write status history */
 129:Generated_Source\PSoC5/I2C_MASTER.c ****             I2C_mstrStatus &= (uint8) ~I2C_MSTAT_WR_CMPLT;
 130:Generated_Source\PSoC5/I2C_MASTER.c **** 
 131:Generated_Source\PSoC5/I2C_MASTER.c ****             /* Hardware actions: write address and generate Start or ReStart */
 132:Generated_Source\PSoC5/I2C_MASTER.c ****             I2C_DATA_REG = (uint8) (slaveAddress << I2C_SLAVE_ADDR_SHIFT);
 133:Generated_Source\PSoC5/I2C_MASTER.c **** 
 134:Generated_Source\PSoC5/I2C_MASTER.c ****             if(I2C_CHECK_RESTART(mode))
 135:Generated_Source\PSoC5/I2C_MASTER.c ****             {
 136:Generated_Source\PSoC5/I2C_MASTER.c ****                 I2C_GENERATE_RESTART;
 137:Generated_Source\PSoC5/I2C_MASTER.c ****             }
 138:Generated_Source\PSoC5/I2C_MASTER.c ****             else
 139:Generated_Source\PSoC5/I2C_MASTER.c ****             {
 140:Generated_Source\PSoC5/I2C_MASTER.c ****                 I2C_GENERATE_START;
 141:Generated_Source\PSoC5/I2C_MASTER.c ****             }
 142:Generated_Source\PSoC5/I2C_MASTER.c **** 
 143:Generated_Source\PSoC5/I2C_MASTER.c ****             /* Enable interrupt to complete transfer */
 144:Generated_Source\PSoC5/I2C_MASTER.c ****             I2C_EnableInt();
 145:Generated_Source\PSoC5/I2C_MASTER.c ****         }
 146:Generated_Source\PSoC5/I2C_MASTER.c ****     }
 147:Generated_Source\PSoC5/I2C_MASTER.c **** 
 148:Generated_Source\PSoC5/I2C_MASTER.c ****     return(errStatus);
  77              		.loc 1 148 0
  78 0034 70BD     		pop	{r4, r5, r6, pc}
  79              	.LVL6:
ARM GAS  C:\Users\chemi\AppData\Local\Temp\ccMxhiSI.s 			page 5


  80              	.L4:
 118:Generated_Source\PSoC5/I2C_MASTER.c **** 
  81              		.loc 1 118 0
  82 0036 4525     		movs	r5, #69
  83 0038 2570     		strb	r5, [r4]
 121:Generated_Source\PSoC5/I2C_MASTER.c ****             I2C_mstrWrBufSize  = cnt;
  84              		.loc 1 121 0
  85 003a 154C     		ldr	r4, .L19+16
  86 003c 0025     		movs	r5, #0
  87 003e 2570     		strb	r5, [r4]
 122:Generated_Source\PSoC5/I2C_MASTER.c ****             I2C_mstrWrBufPtr   = (volatile uint8 *) wrData;
  88              		.loc 1 122 0
  89 0040 144C     		ldr	r4, .L19+20
 132:Generated_Source\PSoC5/I2C_MASTER.c **** 
  90              		.loc 1 132 0
  91 0042 4000     		lsls	r0, r0, #1
  92              	.LVL7:
 122:Generated_Source\PSoC5/I2C_MASTER.c ****             I2C_mstrWrBufPtr   = (volatile uint8 *) wrData;
  93              		.loc 1 122 0
  94 0044 2270     		strb	r2, [r4]
 123:Generated_Source\PSoC5/I2C_MASTER.c **** 
  95              		.loc 1 123 0
  96 0046 144A     		ldr	r2, .L19+24
  97              	.LVL8:
 132:Generated_Source\PSoC5/I2C_MASTER.c **** 
  98              		.loc 1 132 0
  99 0048 C0B2     		uxtb	r0, r0
 123:Generated_Source\PSoC5/I2C_MASTER.c **** 
 100              		.loc 1 123 0
 101 004a 1160     		str	r1, [r2]
 126:Generated_Source\PSoC5/I2C_MASTER.c **** 
 102              		.loc 1 126 0
 103 004c 134A     		ldr	r2, .L19+28
 129:Generated_Source\PSoC5/I2C_MASTER.c **** 
 104              		.loc 1 129 0
 105 004e 0F49     		ldr	r1, .L19+12
 106              	.LVL9:
 126:Generated_Source\PSoC5/I2C_MASTER.c **** 
 107              		.loc 1 126 0
 108 0050 1370     		strb	r3, [r2]
 109              	.LVL10:
 129:Generated_Source\PSoC5/I2C_MASTER.c **** 
 110              		.loc 1 129 0
 111 0052 0A78     		ldrb	r2, [r1]	@ zero_extendqisi2
 134:Generated_Source\PSoC5/I2C_MASTER.c ****             {
 112              		.loc 1 134 0
 113 0054 13F0010F 		tst	r3, #1
 129:Generated_Source\PSoC5/I2C_MASTER.c **** 
 114              		.loc 1 129 0
 115 0058 02F0FD02 		and	r2, r2, #253
 116 005c 0A70     		strb	r2, [r1]
 132:Generated_Source\PSoC5/I2C_MASTER.c **** 
 117              		.loc 1 132 0
 118 005e 104A     		ldr	r2, .L19+32
 119 0060 084B     		ldr	r3, .L19+4
 120              	.LVL11:
 121 0062 1070     		strb	r0, [r2]
ARM GAS  C:\Users\chemi\AppData\Local\Temp\ccMxhiSI.s 			page 6


 122              	.LVL12:
 134:Generated_Source\PSoC5/I2C_MASTER.c ****             {
 123              		.loc 1 134 0
 124 0064 04D0     		beq	.L18
 136:Generated_Source\PSoC5/I2C_MASTER.c ****             }
 125              		.loc 1 136 0
 126 0066 1222     		movs	r2, #18
 127 0068 1A70     		strb	r2, [r3]
 128 006a 0422     		movs	r2, #4
 129 006c 0D4B     		ldr	r3, .L19+36
 130 006e 00E0     		b	.L16
 131              	.L18:
 140:Generated_Source\PSoC5/I2C_MASTER.c ****             }
 132              		.loc 1 140 0
 133 0070 0122     		movs	r2, #1
 134              	.L16:
 135 0072 1A70     		strb	r2, [r3]
 144:Generated_Source\PSoC5/I2C_MASTER.c ****         }
 136              		.loc 1 144 0
 137 0074 0C4B     		ldr	r3, .L19+40
 138 0076 4FF40042 		mov	r2, #32768
 139 007a 1A60     		str	r2, [r3]
 140 007c 0020     		movs	r0, #0
 141 007e 70BD     		pop	{r4, r5, r6, pc}
 142              	.L20:
 143              		.align	2
 144              	.L19:
 145 0080 00000000 		.word	I2C_state
 146 0084 D9490040 		.word	1073760729
 147 0088 80E200E0 		.word	-536812928
 148 008c 00000000 		.word	I2C_mstrStatus
 149 0090 00000000 		.word	I2C_mstrWrBufIndex
 150 0094 00000000 		.word	I2C_mstrWrBufSize
 151 0098 00000000 		.word	I2C_mstrWrBufPtr
 152 009c 00000000 		.word	I2C_mstrControl
 153 00a0 D8490040 		.word	1073760728
 154 00a4 D7490040 		.word	1073760727
 155 00a8 00E100E0 		.word	-536813312
 156              		.cfi_endproc
 157              	.LFE0:
 158              		.size	I2C_MasterWriteBuf, .-I2C_MasterWriteBuf
 159              		.section	.text.I2C_MasterReadBuf,"ax",%progbits
 160              		.align	1
 161              		.global	I2C_MasterReadBuf
 162              		.thumb
 163              		.thumb_func
 164              		.type	I2C_MasterReadBuf, %function
 165              	I2C_MasterReadBuf:
 166              	.LFB1:
 149:Generated_Source\PSoC5/I2C_MASTER.c **** }
 150:Generated_Source\PSoC5/I2C_MASTER.c **** 
 151:Generated_Source\PSoC5/I2C_MASTER.c **** 
 152:Generated_Source\PSoC5/I2C_MASTER.c **** /*******************************************************************************
 153:Generated_Source\PSoC5/I2C_MASTER.c **** * Function Name: I2C_MasterReadBuf
 154:Generated_Source\PSoC5/I2C_MASTER.c **** ********************************************************************************
 155:Generated_Source\PSoC5/I2C_MASTER.c **** *
 156:Generated_Source\PSoC5/I2C_MASTER.c **** * Summary:
ARM GAS  C:\Users\chemi\AppData\Local\Temp\ccMxhiSI.s 			page 7


 157:Generated_Source\PSoC5/I2C_MASTER.c **** *  Automatically writes an entire buffer of data to a slave device. Once the
 158:Generated_Source\PSoC5/I2C_MASTER.c **** *  data transfer is initiated by this function, further data transfer is handled
 159:Generated_Source\PSoC5/I2C_MASTER.c **** *  by the included ISR in byte by byte mode.
 160:Generated_Source\PSoC5/I2C_MASTER.c **** *
 161:Generated_Source\PSoC5/I2C_MASTER.c **** * Parameters:
 162:Generated_Source\PSoC5/I2C_MASTER.c **** *  slaveAddr: 7-bit slave address.
 163:Generated_Source\PSoC5/I2C_MASTER.c **** *  xferData:  Pointer to buffer where to put data from slave.
 164:Generated_Source\PSoC5/I2C_MASTER.c **** *  cnt:       Size of buffer to read.
 165:Generated_Source\PSoC5/I2C_MASTER.c **** *  mode:      Transfer mode defines: start or restart condition generation at
 166:Generated_Source\PSoC5/I2C_MASTER.c **** *             begin of the transfer and complete the transfer or halt before
 167:Generated_Source\PSoC5/I2C_MASTER.c **** *             generating a stop.
 168:Generated_Source\PSoC5/I2C_MASTER.c **** *
 169:Generated_Source\PSoC5/I2C_MASTER.c **** * Return:
 170:Generated_Source\PSoC5/I2C_MASTER.c **** *  Status error - Zero means no errors.
 171:Generated_Source\PSoC5/I2C_MASTER.c **** *
 172:Generated_Source\PSoC5/I2C_MASTER.c **** * Side Effects:
 173:Generated_Source\PSoC5/I2C_MASTER.c **** *  The included ISR will start a transfer after start or restart condition is
 174:Generated_Source\PSoC5/I2C_MASTER.c **** *  generated.
 175:Generated_Source\PSoC5/I2C_MASTER.c **** *
 176:Generated_Source\PSoC5/I2C_MASTER.c **** * Global variables:
 177:Generated_Source\PSoC5/I2C_MASTER.c **** *  I2C_mstrStatus  - The global variable used to store a current
 178:Generated_Source\PSoC5/I2C_MASTER.c **** *                                 status of the I2C Master.
 179:Generated_Source\PSoC5/I2C_MASTER.c **** *  I2C_state       - The global variable used to store a current
 180:Generated_Source\PSoC5/I2C_MASTER.c **** *                                 state of the software FSM.
 181:Generated_Source\PSoC5/I2C_MASTER.c **** *  I2C_mstrControl - The global variable used to control the master
 182:Generated_Source\PSoC5/I2C_MASTER.c **** *                                 end of a transaction with or without
 183:Generated_Source\PSoC5/I2C_MASTER.c **** *                                 Stop generation.
 184:Generated_Source\PSoC5/I2C_MASTER.c **** *  I2C_mstrRdBufPtr - The global variable used to store a pointer
 185:Generated_Source\PSoC5/I2C_MASTER.c **** *                                  to the master write buffer.
 186:Generated_Source\PSoC5/I2C_MASTER.c **** *  I2C_mstrRdBufIndex - The global variable  used to store a
 187:Generated_Source\PSoC5/I2C_MASTER.c **** *                                    current index within the master
 188:Generated_Source\PSoC5/I2C_MASTER.c **** *                                    write buffer.
 189:Generated_Source\PSoC5/I2C_MASTER.c **** *  I2C_mstrRdBufSize - The global variable used to store a master
 190:Generated_Source\PSoC5/I2C_MASTER.c **** *                                   write buffer size.
 191:Generated_Source\PSoC5/I2C_MASTER.c **** *
 192:Generated_Source\PSoC5/I2C_MASTER.c **** * Reentrant:
 193:Generated_Source\PSoC5/I2C_MASTER.c **** *  No.
 194:Generated_Source\PSoC5/I2C_MASTER.c **** *
 195:Generated_Source\PSoC5/I2C_MASTER.c **** *******************************************************************************/
 196:Generated_Source\PSoC5/I2C_MASTER.c **** uint8 I2C_MasterReadBuf(uint8 slaveAddress, uint8 * rdData, uint8 cnt, uint8 mode)
 197:Generated_Source\PSoC5/I2C_MASTER.c ****       
 198:Generated_Source\PSoC5/I2C_MASTER.c **** {
 167              		.loc 1 198 0
 168              		.cfi_startproc
 169              		@ args = 0, pretend = 0, frame = 0
 170              		@ frame_needed = 0, uses_anonymous_args = 0
 171              	.LVL13:
 172 0000 70B5     		push	{r4, r5, r6, lr}
 173              		.cfi_def_cfa_offset 16
 174              		.cfi_offset 4, -16
 175              		.cfi_offset 5, -12
 176              		.cfi_offset 6, -8
 177              		.cfi_offset 14, -4
 199:Generated_Source\PSoC5/I2C_MASTER.c ****     uint8 errStatus;
 200:Generated_Source\PSoC5/I2C_MASTER.c **** 
 201:Generated_Source\PSoC5/I2C_MASTER.c ****     errStatus = I2C_MSTR_NOT_READY;
 202:Generated_Source\PSoC5/I2C_MASTER.c **** 
ARM GAS  C:\Users\chemi\AppData\Local\Temp\ccMxhiSI.s 			page 8


 203:Generated_Source\PSoC5/I2C_MASTER.c ****     if(NULL != rdData)
 178              		.loc 1 203 0
 179 0002 B1B1     		cbz	r1, .L30
 204:Generated_Source\PSoC5/I2C_MASTER.c ****     {
 205:Generated_Source\PSoC5/I2C_MASTER.c ****         /* Check I2C state to allow transfer: valid states are IDLE or HALT */
 206:Generated_Source\PSoC5/I2C_MASTER.c ****         if(I2C_SM_IDLE == I2C_state)
 180              		.loc 1 206 0
 181 0004 1F4C     		ldr	r4, .L38
 182 0006 2578     		ldrb	r5, [r4]	@ zero_extendqisi2
 183 0008 102D     		cmp	r5, #16
 184 000a 05D1     		bne	.L23
 207:Generated_Source\PSoC5/I2C_MASTER.c ****         {
 208:Generated_Source\PSoC5/I2C_MASTER.c ****             /* Master is ready to transaction: check if bus is free */
 209:Generated_Source\PSoC5/I2C_MASTER.c ****             if(I2C_CHECK_BUS_FREE(I2C_MCSR_REG))
 185              		.loc 1 209 0
 186 000c 1E4D     		ldr	r5, .L38+4
 187 000e 2D78     		ldrb	r5, [r5]	@ zero_extendqisi2
 188 0010 2D07     		lsls	r5, r5, #28
 189 0012 10D5     		bpl	.L24
 210:Generated_Source\PSoC5/I2C_MASTER.c ****             {
 211:Generated_Source\PSoC5/I2C_MASTER.c ****                 errStatus = I2C_MSTR_NO_ERROR;
 212:Generated_Source\PSoC5/I2C_MASTER.c ****             }
 213:Generated_Source\PSoC5/I2C_MASTER.c ****             else
 214:Generated_Source\PSoC5/I2C_MASTER.c ****             {
 215:Generated_Source\PSoC5/I2C_MASTER.c ****                 errStatus = I2C_MSTR_BUS_BUSY;
 190              		.loc 1 215 0
 191 0014 0120     		movs	r0, #1
 192              	.LVL14:
 193 0016 70BD     		pop	{r4, r5, r6, pc}
 194              	.LVL15:
 195              	.L23:
 216:Generated_Source\PSoC5/I2C_MASTER.c ****             }
 217:Generated_Source\PSoC5/I2C_MASTER.c ****         }
 218:Generated_Source\PSoC5/I2C_MASTER.c ****         else if(I2C_SM_MSTR_HALT == I2C_state)
 196              		.loc 1 218 0
 197 0018 2578     		ldrb	r5, [r4]	@ zero_extendqisi2
 198 001a 602D     		cmp	r5, #96
 199 001c 09D1     		bne	.L30
 200              	.LVL16:
 219:Generated_Source\PSoC5/I2C_MASTER.c ****         {
 220:Generated_Source\PSoC5/I2C_MASTER.c ****             /* Master is ready and waiting for ReStart */
 221:Generated_Source\PSoC5/I2C_MASTER.c ****             errStatus = I2C_MSTR_NO_ERROR;
 222:Generated_Source\PSoC5/I2C_MASTER.c **** 
 223:Generated_Source\PSoC5/I2C_MASTER.c ****             I2C_ClearPendingInt();
 201              		.loc 1 223 0
 202 001e 1B4D     		ldr	r5, .L38+8
 203 0020 4FF40046 		mov	r6, #32768
 204 0024 2E60     		str	r6, [r5]
 224:Generated_Source\PSoC5/I2C_MASTER.c ****             I2C_mstrStatus &= (uint8) ~I2C_MSTAT_XFER_HALT;
 205              		.loc 1 224 0
 206 0026 1A4E     		ldr	r6, .L38+12
 207 0028 3578     		ldrb	r5, [r6]	@ zero_extendqisi2
 208 002a 05F0F705 		and	r5, r5, #247
 209 002e 3570     		strb	r5, [r6]
 210 0030 01E0     		b	.L24
 211              	.LVL17:
 212              	.L30:
ARM GAS  C:\Users\chemi\AppData\Local\Temp\ccMxhiSI.s 			page 9


 201:Generated_Source\PSoC5/I2C_MASTER.c **** 
 213              		.loc 1 201 0
 214 0032 0220     		movs	r0, #2
 215              	.LVL18:
 225:Generated_Source\PSoC5/I2C_MASTER.c ****         }
 226:Generated_Source\PSoC5/I2C_MASTER.c ****         else
 227:Generated_Source\PSoC5/I2C_MASTER.c ****         {
 228:Generated_Source\PSoC5/I2C_MASTER.c ****             /* errStatus = I2C_MSTR_NOT_READY was set before */
 229:Generated_Source\PSoC5/I2C_MASTER.c ****         }
 230:Generated_Source\PSoC5/I2C_MASTER.c **** 
 231:Generated_Source\PSoC5/I2C_MASTER.c ****         if(I2C_MSTR_NO_ERROR == errStatus)
 232:Generated_Source\PSoC5/I2C_MASTER.c ****         {
 233:Generated_Source\PSoC5/I2C_MASTER.c ****             /* Set state to start write transaction */
 234:Generated_Source\PSoC5/I2C_MASTER.c ****             I2C_state = I2C_SM_MSTR_RD_ADDR;
 235:Generated_Source\PSoC5/I2C_MASTER.c **** 
 236:Generated_Source\PSoC5/I2C_MASTER.c ****             /* Prepare read buffer */
 237:Generated_Source\PSoC5/I2C_MASTER.c ****             I2C_mstrRdBufIndex  = 0u;
 238:Generated_Source\PSoC5/I2C_MASTER.c ****             I2C_mstrRdBufSize   = cnt;
 239:Generated_Source\PSoC5/I2C_MASTER.c ****             I2C_mstrRdBufPtr    = (volatile uint8 *) rdData;
 240:Generated_Source\PSoC5/I2C_MASTER.c **** 
 241:Generated_Source\PSoC5/I2C_MASTER.c ****             /* Set end of transaction flag: Stop or Halt (following ReStart) */
 242:Generated_Source\PSoC5/I2C_MASTER.c ****             I2C_mstrControl = mode;
 243:Generated_Source\PSoC5/I2C_MASTER.c **** 
 244:Generated_Source\PSoC5/I2C_MASTER.c ****             /* Clear read status history */
 245:Generated_Source\PSoC5/I2C_MASTER.c ****             I2C_mstrStatus &= (uint8) ~I2C_MSTAT_RD_CMPLT;
 246:Generated_Source\PSoC5/I2C_MASTER.c **** 
 247:Generated_Source\PSoC5/I2C_MASTER.c ****             /* Hardware actions: write address and generate Start or ReStart */
 248:Generated_Source\PSoC5/I2C_MASTER.c ****             I2C_DATA_REG = ((uint8) (slaveAddress << I2C_SLAVE_ADDR_SHIFT) |
 249:Generated_Source\PSoC5/I2C_MASTER.c ****                                                   I2C_READ_FLAG);
 250:Generated_Source\PSoC5/I2C_MASTER.c **** 
 251:Generated_Source\PSoC5/I2C_MASTER.c ****             if(I2C_CHECK_RESTART(mode))
 252:Generated_Source\PSoC5/I2C_MASTER.c ****             {
 253:Generated_Source\PSoC5/I2C_MASTER.c ****                 I2C_GENERATE_RESTART;
 254:Generated_Source\PSoC5/I2C_MASTER.c ****             }
 255:Generated_Source\PSoC5/I2C_MASTER.c ****             else
 256:Generated_Source\PSoC5/I2C_MASTER.c ****             {
 257:Generated_Source\PSoC5/I2C_MASTER.c ****                 I2C_GENERATE_START;
 258:Generated_Source\PSoC5/I2C_MASTER.c ****             }
 259:Generated_Source\PSoC5/I2C_MASTER.c **** 
 260:Generated_Source\PSoC5/I2C_MASTER.c ****             /* Enable interrupt to complete transfer */
 261:Generated_Source\PSoC5/I2C_MASTER.c ****             I2C_EnableInt();
 262:Generated_Source\PSoC5/I2C_MASTER.c ****         }
 263:Generated_Source\PSoC5/I2C_MASTER.c ****     }
 264:Generated_Source\PSoC5/I2C_MASTER.c **** 
 265:Generated_Source\PSoC5/I2C_MASTER.c ****     return(errStatus);
 216              		.loc 1 265 0
 217 0034 70BD     		pop	{r4, r5, r6, pc}
 218              	.LVL19:
 219              	.L24:
 234:Generated_Source\PSoC5/I2C_MASTER.c **** 
 220              		.loc 1 234 0
 221 0036 4925     		movs	r5, #73
 222 0038 2570     		strb	r5, [r4]
 237:Generated_Source\PSoC5/I2C_MASTER.c ****             I2C_mstrRdBufSize   = cnt;
 223              		.loc 1 237 0
 224 003a 164C     		ldr	r4, .L38+16
 225 003c 0025     		movs	r5, #0
ARM GAS  C:\Users\chemi\AppData\Local\Temp\ccMxhiSI.s 			page 10


 226 003e 2570     		strb	r5, [r4]
 238:Generated_Source\PSoC5/I2C_MASTER.c ****             I2C_mstrRdBufPtr    = (volatile uint8 *) rdData;
 227              		.loc 1 238 0
 228 0040 154C     		ldr	r4, .L38+20
 248:Generated_Source\PSoC5/I2C_MASTER.c ****                                                   I2C_READ_FLAG);
 229              		.loc 1 248 0
 230 0042 4000     		lsls	r0, r0, #1
 231              	.LVL20:
 238:Generated_Source\PSoC5/I2C_MASTER.c ****             I2C_mstrRdBufPtr    = (volatile uint8 *) rdData;
 232              		.loc 1 238 0
 233 0044 2270     		strb	r2, [r4]
 239:Generated_Source\PSoC5/I2C_MASTER.c **** 
 234              		.loc 1 239 0
 235 0046 154A     		ldr	r2, .L38+24
 236              	.LVL21:
 248:Generated_Source\PSoC5/I2C_MASTER.c ****                                                   I2C_READ_FLAG);
 237              		.loc 1 248 0
 238 0048 40F00100 		orr	r0, r0, #1
 239:Generated_Source\PSoC5/I2C_MASTER.c **** 
 239              		.loc 1 239 0
 240 004c 1160     		str	r1, [r2]
 242:Generated_Source\PSoC5/I2C_MASTER.c **** 
 241              		.loc 1 242 0
 242 004e 144A     		ldr	r2, .L38+28
 245:Generated_Source\PSoC5/I2C_MASTER.c **** 
 243              		.loc 1 245 0
 244 0050 0F49     		ldr	r1, .L38+12
 245              	.LVL22:
 242:Generated_Source\PSoC5/I2C_MASTER.c **** 
 246              		.loc 1 242 0
 247 0052 1370     		strb	r3, [r2]
 248              	.LVL23:
 245:Generated_Source\PSoC5/I2C_MASTER.c **** 
 249              		.loc 1 245 0
 250 0054 0A78     		ldrb	r2, [r1]	@ zero_extendqisi2
 248:Generated_Source\PSoC5/I2C_MASTER.c ****                                                   I2C_READ_FLAG);
 251              		.loc 1 248 0
 252 0056 C0B2     		uxtb	r0, r0
 245:Generated_Source\PSoC5/I2C_MASTER.c **** 
 253              		.loc 1 245 0
 254 0058 02F0FE02 		and	r2, r2, #254
 255 005c 0A70     		strb	r2, [r1]
 248:Generated_Source\PSoC5/I2C_MASTER.c ****                                                   I2C_READ_FLAG);
 256              		.loc 1 248 0
 257 005e 114A     		ldr	r2, .L38+32
 251:Generated_Source\PSoC5/I2C_MASTER.c ****             {
 258              		.loc 1 251 0
 259 0060 13F0010F 		tst	r3, #1
 248:Generated_Source\PSoC5/I2C_MASTER.c ****                                                   I2C_READ_FLAG);
 260              		.loc 1 248 0
 261 0064 1070     		strb	r0, [r2]
 262              	.LVL24:
 263 0066 084B     		ldr	r3, .L38+4
 264              	.LVL25:
 251:Generated_Source\PSoC5/I2C_MASTER.c ****             {
 265              		.loc 1 251 0
 266 0068 04D0     		beq	.L37
ARM GAS  C:\Users\chemi\AppData\Local\Temp\ccMxhiSI.s 			page 11


 253:Generated_Source\PSoC5/I2C_MASTER.c ****             }
 267              		.loc 1 253 0
 268 006a 1222     		movs	r2, #18
 269 006c 1A70     		strb	r2, [r3]
 270 006e 0422     		movs	r2, #4
 271 0070 0D4B     		ldr	r3, .L38+36
 272 0072 00E0     		b	.L36
 273              	.L37:
 257:Generated_Source\PSoC5/I2C_MASTER.c ****             }
 274              		.loc 1 257 0
 275 0074 0122     		movs	r2, #1
 276              	.L36:
 277 0076 1A70     		strb	r2, [r3]
 261:Generated_Source\PSoC5/I2C_MASTER.c ****         }
 278              		.loc 1 261 0
 279 0078 0C4B     		ldr	r3, .L38+40
 280 007a 4FF40042 		mov	r2, #32768
 281 007e 1A60     		str	r2, [r3]
 282 0080 0020     		movs	r0, #0
 283 0082 70BD     		pop	{r4, r5, r6, pc}
 284              	.L39:
 285              		.align	2
 286              	.L38:
 287 0084 00000000 		.word	I2C_state
 288 0088 D9490040 		.word	1073760729
 289 008c 80E200E0 		.word	-536812928
 290 0090 00000000 		.word	I2C_mstrStatus
 291 0094 00000000 		.word	I2C_mstrRdBufIndex
 292 0098 00000000 		.word	I2C_mstrRdBufSize
 293 009c 00000000 		.word	I2C_mstrRdBufPtr
 294 00a0 00000000 		.word	I2C_mstrControl
 295 00a4 D8490040 		.word	1073760728
 296 00a8 D7490040 		.word	1073760727
 297 00ac 00E100E0 		.word	-536813312
 298              		.cfi_endproc
 299              	.LFE1:
 300              		.size	I2C_MasterReadBuf, .-I2C_MasterReadBuf
 301              		.section	.text.I2C_MasterSendStart,"ax",%progbits
 302              		.align	1
 303              		.global	I2C_MasterSendStart
 304              		.thumb
 305              		.thumb_func
 306              		.type	I2C_MasterSendStart, %function
 307              	I2C_MasterSendStart:
 308              	.LFB2:
 266:Generated_Source\PSoC5/I2C_MASTER.c **** }
 267:Generated_Source\PSoC5/I2C_MASTER.c **** 
 268:Generated_Source\PSoC5/I2C_MASTER.c **** 
 269:Generated_Source\PSoC5/I2C_MASTER.c **** /*******************************************************************************
 270:Generated_Source\PSoC5/I2C_MASTER.c **** * Function Name: I2C_MasterSendStart
 271:Generated_Source\PSoC5/I2C_MASTER.c **** ********************************************************************************
 272:Generated_Source\PSoC5/I2C_MASTER.c **** *
 273:Generated_Source\PSoC5/I2C_MASTER.c **** * Summary:
 274:Generated_Source\PSoC5/I2C_MASTER.c **** *  Generates Start condition and sends slave address with read/write bit.
 275:Generated_Source\PSoC5/I2C_MASTER.c **** *
 276:Generated_Source\PSoC5/I2C_MASTER.c **** * Parameters:
 277:Generated_Source\PSoC5/I2C_MASTER.c **** *  slaveAddress:  7-bit slave address.
ARM GAS  C:\Users\chemi\AppData\Local\Temp\ccMxhiSI.s 			page 12


 278:Generated_Source\PSoC5/I2C_MASTER.c **** *  R_nW:          Zero, send write command, non-zero send read command.
 279:Generated_Source\PSoC5/I2C_MASTER.c **** *
 280:Generated_Source\PSoC5/I2C_MASTER.c **** * Return:
 281:Generated_Source\PSoC5/I2C_MASTER.c **** *  Status error - Zero means no errors.
 282:Generated_Source\PSoC5/I2C_MASTER.c **** *
 283:Generated_Source\PSoC5/I2C_MASTER.c **** * Side Effects:
 284:Generated_Source\PSoC5/I2C_MASTER.c **** *  This function is entered without a "byte complete" bit set in the I2C_CSR
 285:Generated_Source\PSoC5/I2C_MASTER.c **** *  register. It does not exit until it is set.
 286:Generated_Source\PSoC5/I2C_MASTER.c **** *
 287:Generated_Source\PSoC5/I2C_MASTER.c **** * Global variables:
 288:Generated_Source\PSoC5/I2C_MASTER.c **** *  I2C_state - The global variable used to store a current state of
 289:Generated_Source\PSoC5/I2C_MASTER.c **** *                           the software FSM.
 290:Generated_Source\PSoC5/I2C_MASTER.c **** *
 291:Generated_Source\PSoC5/I2C_MASTER.c **** * Reentrant:
 292:Generated_Source\PSoC5/I2C_MASTER.c **** *  No.
 293:Generated_Source\PSoC5/I2C_MASTER.c **** *
 294:Generated_Source\PSoC5/I2C_MASTER.c **** *******************************************************************************/
 295:Generated_Source\PSoC5/I2C_MASTER.c **** uint8 I2C_MasterSendStart(uint8 slaveAddress, uint8 R_nW)
 296:Generated_Source\PSoC5/I2C_MASTER.c ****       
 297:Generated_Source\PSoC5/I2C_MASTER.c **** {
 309              		.loc 1 297 0
 310              		.cfi_startproc
 311              		@ args = 0, pretend = 0, frame = 0
 312              		@ frame_needed = 0, uses_anonymous_args = 0
 313              	.LVL26:
 314 0000 30B5     		push	{r4, r5, lr}
 315              		.cfi_def_cfa_offset 12
 316              		.cfi_offset 4, -12
 317              		.cfi_offset 5, -8
 318              		.cfi_offset 14, -4
 298:Generated_Source\PSoC5/I2C_MASTER.c ****     uint8 errStatus;
 299:Generated_Source\PSoC5/I2C_MASTER.c **** 
 300:Generated_Source\PSoC5/I2C_MASTER.c ****     errStatus = I2C_MSTR_NOT_READY;
 301:Generated_Source\PSoC5/I2C_MASTER.c **** 
 302:Generated_Source\PSoC5/I2C_MASTER.c ****     /* If IDLE, check if bus is free */
 303:Generated_Source\PSoC5/I2C_MASTER.c ****     if(I2C_SM_IDLE == I2C_state)
 319              		.loc 1 303 0
 320 0002 164B     		ldr	r3, .L51
 321 0004 1A78     		ldrb	r2, [r3]	@ zero_extendqisi2
 322 0006 102A     		cmp	r2, #16
 323 0008 22D1     		bne	.L45
 304:Generated_Source\PSoC5/I2C_MASTER.c ****     {
 305:Generated_Source\PSoC5/I2C_MASTER.c ****         /* If bus is free, generate Start condition */
 306:Generated_Source\PSoC5/I2C_MASTER.c ****         if(I2C_CHECK_BUS_FREE(I2C_MCSR_REG))
 324              		.loc 1 306 0
 325 000a 154A     		ldr	r2, .L51+4
 326 000c 1478     		ldrb	r4, [r2]	@ zero_extendqisi2
 327 000e 2407     		lsls	r4, r4, #28
 328 0010 20D4     		bmi	.L46
 307:Generated_Source\PSoC5/I2C_MASTER.c ****         {
 308:Generated_Source\PSoC5/I2C_MASTER.c ****             /* Disable interrupt for manual master operation */
 309:Generated_Source\PSoC5/I2C_MASTER.c ****             I2C_DisableInt();
 329              		.loc 1 309 0
 330 0012 144C     		ldr	r4, .L51+8
 331 0014 4FF40045 		mov	r5, #32768
 310:Generated_Source\PSoC5/I2C_MASTER.c **** 
 311:Generated_Source\PSoC5/I2C_MASTER.c ****             /* Set address and read/write flag */
ARM GAS  C:\Users\chemi\AppData\Local\Temp\ccMxhiSI.s 			page 13


 312:Generated_Source\PSoC5/I2C_MASTER.c ****             slaveAddress = (uint8) (slaveAddress << I2C_SLAVE_ADDR_SHIFT);
 332              		.loc 1 312 0
 333 0018 4000     		lsls	r0, r0, #1
 334              	.LVL27:
 309:Generated_Source\PSoC5/I2C_MASTER.c **** 
 335              		.loc 1 309 0
 336 001a 2560     		str	r5, [r4]
 337              		.loc 1 312 0
 338 001c C0B2     		uxtb	r0, r0
 339              	.LVL28:
 313:Generated_Source\PSoC5/I2C_MASTER.c ****             if(0u != R_nW)
 340              		.loc 1 313 0
 341 001e 19B1     		cbz	r1, .L42
 314:Generated_Source\PSoC5/I2C_MASTER.c ****             {
 315:Generated_Source\PSoC5/I2C_MASTER.c ****                 slaveAddress |= I2C_READ_FLAG;
 342              		.loc 1 315 0
 343 0020 40F00100 		orr	r0, r0, #1
 344              	.LVL29:
 316:Generated_Source\PSoC5/I2C_MASTER.c ****                 I2C_state = I2C_SM_MSTR_RD_ADDR;
 345              		.loc 1 316 0
 346 0024 4921     		movs	r1, #73
 347              	.LVL30:
 348 0026 00E0     		b	.L50
 349              	.LVL31:
 350              	.L42:
 317:Generated_Source\PSoC5/I2C_MASTER.c ****             }
 318:Generated_Source\PSoC5/I2C_MASTER.c ****             else
 319:Generated_Source\PSoC5/I2C_MASTER.c ****             {
 320:Generated_Source\PSoC5/I2C_MASTER.c ****                 I2C_state = I2C_SM_MSTR_WR_ADDR;
 351              		.loc 1 320 0
 352 0028 4521     		movs	r1, #69
 353              	.LVL32:
 354              	.L50:
 355 002a 1970     		strb	r1, [r3]
 321:Generated_Source\PSoC5/I2C_MASTER.c ****             }
 322:Generated_Source\PSoC5/I2C_MASTER.c **** 
 323:Generated_Source\PSoC5/I2C_MASTER.c ****             /* Hardware actions: write address and generate Start */
 324:Generated_Source\PSoC5/I2C_MASTER.c ****             I2C_DATA_REG = slaveAddress;
 356              		.loc 1 324 0
 357 002c 0E49     		ldr	r1, .L51+12
 358 002e 0870     		strb	r0, [r1]
 325:Generated_Source\PSoC5/I2C_MASTER.c ****             I2C_GENERATE_START_MANUAL;
 359              		.loc 1 325 0
 360 0030 0121     		movs	r1, #1
 361 0032 1170     		strb	r1, [r2]
 326:Generated_Source\PSoC5/I2C_MASTER.c **** 
 327:Generated_Source\PSoC5/I2C_MASTER.c ****             /* Wait until address is transferred */
 328:Generated_Source\PSoC5/I2C_MASTER.c ****             while(I2C_WAIT_BYTE_COMPLETE(I2C_CSR_REG))
 362              		.loc 1 328 0
 363 0034 0D49     		ldr	r1, .L51+16
 364              	.L44:
 365              		.loc 1 328 0 is_stmt 0 discriminator 1
 366 0036 0A78     		ldrb	r2, [r1]	@ zero_extendqisi2
 367 0038 D207     		lsls	r2, r2, #31
 368 003a FCD5     		bpl	.L44
 329:Generated_Source\PSoC5/I2C_MASTER.c ****             {
 330:Generated_Source\PSoC5/I2C_MASTER.c ****             }
ARM GAS  C:\Users\chemi\AppData\Local\Temp\ccMxhiSI.s 			page 14


 331:Generated_Source\PSoC5/I2C_MASTER.c **** 
 332:Generated_Source\PSoC5/I2C_MASTER.c ****         #if(I2C_MODE_MULTI_MASTER_SLAVE_ENABLED)
 333:Generated_Source\PSoC5/I2C_MASTER.c ****             if(I2C_CHECK_START_GEN(I2C_MCSR_REG))
 334:Generated_Source\PSoC5/I2C_MASTER.c ****             {
 335:Generated_Source\PSoC5/I2C_MASTER.c ****                 I2C_CLEAR_START_GEN;
 336:Generated_Source\PSoC5/I2C_MASTER.c **** 
 337:Generated_Source\PSoC5/I2C_MASTER.c ****                 /* Start condition was not generated: reset FSM to IDLE */
 338:Generated_Source\PSoC5/I2C_MASTER.c ****                 I2C_state = I2C_SM_IDLE;
 339:Generated_Source\PSoC5/I2C_MASTER.c ****                 errStatus = I2C_MSTR_ERR_ABORT_START_GEN;
 340:Generated_Source\PSoC5/I2C_MASTER.c ****             }
 341:Generated_Source\PSoC5/I2C_MASTER.c ****             else
 342:Generated_Source\PSoC5/I2C_MASTER.c ****         #endif /* (I2C_MODE_MULTI_MASTER_SLAVE_ENABLED) */
 343:Generated_Source\PSoC5/I2C_MASTER.c **** 
 344:Generated_Source\PSoC5/I2C_MASTER.c ****         #if(I2C_MODE_MULTI_MASTER_ENABLED)
 345:Generated_Source\PSoC5/I2C_MASTER.c ****             if(I2C_CHECK_LOST_ARB(I2C_CSR_REG))
 346:Generated_Source\PSoC5/I2C_MASTER.c ****             {
 347:Generated_Source\PSoC5/I2C_MASTER.c ****                 I2C_BUS_RELEASE_MANUAL;
 348:Generated_Source\PSoC5/I2C_MASTER.c **** 
 349:Generated_Source\PSoC5/I2C_MASTER.c ****                 /* Master lost arbitrage: reset FSM to IDLE */
 350:Generated_Source\PSoC5/I2C_MASTER.c ****                 I2C_state = I2C_SM_IDLE;
 351:Generated_Source\PSoC5/I2C_MASTER.c ****                 errStatus = I2C_MSTR_ERR_ARB_LOST;
 352:Generated_Source\PSoC5/I2C_MASTER.c ****             }
 353:Generated_Source\PSoC5/I2C_MASTER.c ****             else
 354:Generated_Source\PSoC5/I2C_MASTER.c ****         #endif /* (I2C_MODE_MULTI_MASTER_ENABLED) */
 355:Generated_Source\PSoC5/I2C_MASTER.c **** 
 356:Generated_Source\PSoC5/I2C_MASTER.c ****             if(I2C_CHECK_ADDR_NAK(I2C_CSR_REG))
 369              		.loc 1 356 0 is_stmt 1
 370 003c 0B4A     		ldr	r2, .L51+16
 371 003e 1278     		ldrb	r2, [r2]	@ zero_extendqisi2
 372 0040 02F00A02 		and	r2, r2, #10
 373 0044 0A2A     		cmp	r2, #10
 374 0046 07D1     		bne	.L47
 357:Generated_Source\PSoC5/I2C_MASTER.c ****             {
 358:Generated_Source\PSoC5/I2C_MASTER.c ****                 /* Address has been NACKed: reset FSM to IDLE */
 359:Generated_Source\PSoC5/I2C_MASTER.c ****                 I2C_state = I2C_SM_IDLE;
 375              		.loc 1 359 0
 376 0048 1022     		movs	r2, #16
 377 004a 1A70     		strb	r2, [r3]
 378              	.LVL33:
 360:Generated_Source\PSoC5/I2C_MASTER.c ****                 errStatus = I2C_MSTR_ERR_LB_NAK;
 379              		.loc 1 360 0
 380 004c 0320     		movs	r0, #3
 381              	.LVL34:
 382 004e 30BD     		pop	{r4, r5, pc}
 383              	.LVL35:
 384              	.L45:
 300:Generated_Source\PSoC5/I2C_MASTER.c **** 
 385              		.loc 1 300 0
 386 0050 0220     		movs	r0, #2
 387              	.LVL36:
 388 0052 30BD     		pop	{r4, r5, pc}
 389              	.LVL37:
 390              	.L46:
 361:Generated_Source\PSoC5/I2C_MASTER.c ****             }
 362:Generated_Source\PSoC5/I2C_MASTER.c ****             else
 363:Generated_Source\PSoC5/I2C_MASTER.c ****             {
 364:Generated_Source\PSoC5/I2C_MASTER.c ****                 /* Start was sent without errors */
ARM GAS  C:\Users\chemi\AppData\Local\Temp\ccMxhiSI.s 			page 15


 365:Generated_Source\PSoC5/I2C_MASTER.c ****                 errStatus = I2C_MSTR_NO_ERROR;
 366:Generated_Source\PSoC5/I2C_MASTER.c ****             }
 367:Generated_Source\PSoC5/I2C_MASTER.c ****         }
 368:Generated_Source\PSoC5/I2C_MASTER.c ****         else
 369:Generated_Source\PSoC5/I2C_MASTER.c ****         {
 370:Generated_Source\PSoC5/I2C_MASTER.c ****             errStatus = I2C_MSTR_BUS_BUSY;
 391              		.loc 1 370 0
 392 0054 0120     		movs	r0, #1
 393              	.LVL38:
 394 0056 30BD     		pop	{r4, r5, pc}
 395              	.LVL39:
 396              	.L47:
 365:Generated_Source\PSoC5/I2C_MASTER.c ****             }
 397              		.loc 1 365 0
 398 0058 0020     		movs	r0, #0
 399              	.LVL40:
 371:Generated_Source\PSoC5/I2C_MASTER.c ****         }
 372:Generated_Source\PSoC5/I2C_MASTER.c ****     }
 373:Generated_Source\PSoC5/I2C_MASTER.c **** 
 374:Generated_Source\PSoC5/I2C_MASTER.c ****     return(errStatus);
 375:Generated_Source\PSoC5/I2C_MASTER.c **** }
 400              		.loc 1 375 0
 401 005a 30BD     		pop	{r4, r5, pc}
 402              	.L52:
 403              		.align	2
 404              	.L51:
 405 005c 00000000 		.word	I2C_state
 406 0060 D9490040 		.word	1073760729
 407 0064 80E100E0 		.word	-536813184
 408 0068 D8490040 		.word	1073760728
 409 006c D7490040 		.word	1073760727
 410              		.cfi_endproc
 411              	.LFE2:
 412              		.size	I2C_MasterSendStart, .-I2C_MasterSendStart
 413              		.section	.text.I2C_MasterSendRestart,"ax",%progbits
 414              		.align	1
 415              		.global	I2C_MasterSendRestart
 416              		.thumb
 417              		.thumb_func
 418              		.type	I2C_MasterSendRestart, %function
 419              	I2C_MasterSendRestart:
 420              	.LFB3:
 376:Generated_Source\PSoC5/I2C_MASTER.c **** 
 377:Generated_Source\PSoC5/I2C_MASTER.c **** 
 378:Generated_Source\PSoC5/I2C_MASTER.c **** /*******************************************************************************
 379:Generated_Source\PSoC5/I2C_MASTER.c **** * Function Name: I2C_MasterSendRestart
 380:Generated_Source\PSoC5/I2C_MASTER.c **** ********************************************************************************
 381:Generated_Source\PSoC5/I2C_MASTER.c **** *
 382:Generated_Source\PSoC5/I2C_MASTER.c **** * Summary:
 383:Generated_Source\PSoC5/I2C_MASTER.c **** *  Generates ReStart condition and sends slave address with read/write bit.
 384:Generated_Source\PSoC5/I2C_MASTER.c **** *
 385:Generated_Source\PSoC5/I2C_MASTER.c **** * Parameters:
 386:Generated_Source\PSoC5/I2C_MASTER.c **** *  slaveAddress:  7-bit slave address.
 387:Generated_Source\PSoC5/I2C_MASTER.c **** *  R_nW:          Zero, send write command, non-zero send read command.
 388:Generated_Source\PSoC5/I2C_MASTER.c **** *
 389:Generated_Source\PSoC5/I2C_MASTER.c **** * Return:
 390:Generated_Source\PSoC5/I2C_MASTER.c **** *  Status error - Zero means no errors.
ARM GAS  C:\Users\chemi\AppData\Local\Temp\ccMxhiSI.s 			page 16


 391:Generated_Source\PSoC5/I2C_MASTER.c **** *
 392:Generated_Source\PSoC5/I2C_MASTER.c **** * Side Effects:
 393:Generated_Source\PSoC5/I2C_MASTER.c **** *  This function is entered without a "byte complete" bit set in the I2C_CSR
 394:Generated_Source\PSoC5/I2C_MASTER.c **** *  register. It does not exit until it is set.
 395:Generated_Source\PSoC5/I2C_MASTER.c **** *
 396:Generated_Source\PSoC5/I2C_MASTER.c **** * Global variables:
 397:Generated_Source\PSoC5/I2C_MASTER.c **** *  I2C_state - The global variable used to store a current state of
 398:Generated_Source\PSoC5/I2C_MASTER.c **** *                           the software FSM.
 399:Generated_Source\PSoC5/I2C_MASTER.c **** *
 400:Generated_Source\PSoC5/I2C_MASTER.c **** * Reentrant:
 401:Generated_Source\PSoC5/I2C_MASTER.c **** *  No.
 402:Generated_Source\PSoC5/I2C_MASTER.c **** *
 403:Generated_Source\PSoC5/I2C_MASTER.c **** *******************************************************************************/
 404:Generated_Source\PSoC5/I2C_MASTER.c **** uint8 I2C_MasterSendRestart(uint8 slaveAddress, uint8 R_nW)
 405:Generated_Source\PSoC5/I2C_MASTER.c ****       
 406:Generated_Source\PSoC5/I2C_MASTER.c **** {
 421              		.loc 1 406 0
 422              		.cfi_startproc
 423              		@ args = 0, pretend = 0, frame = 0
 424              		@ frame_needed = 0, uses_anonymous_args = 0
 425              		@ link register save eliminated.
 426              	.LVL41:
 407:Generated_Source\PSoC5/I2C_MASTER.c ****     uint8 errStatus;
 408:Generated_Source\PSoC5/I2C_MASTER.c **** 
 409:Generated_Source\PSoC5/I2C_MASTER.c ****     errStatus = I2C_MSTR_NOT_READY;
 410:Generated_Source\PSoC5/I2C_MASTER.c **** 
 411:Generated_Source\PSoC5/I2C_MASTER.c ****     /* Check if START condition was generated */
 412:Generated_Source\PSoC5/I2C_MASTER.c ****     if(I2C_CHECK_MASTER_MODE(I2C_MCSR_REG))
 427              		.loc 1 412 0
 428 0000 124B     		ldr	r3, .L63
 429 0002 1A78     		ldrb	r2, [r3]	@ zero_extendqisi2
 430 0004 5207     		lsls	r2, r2, #29
 431 0006 1DD5     		bpl	.L58
 413:Generated_Source\PSoC5/I2C_MASTER.c ****     {
 414:Generated_Source\PSoC5/I2C_MASTER.c ****         /* Set address and read/write flag */
 415:Generated_Source\PSoC5/I2C_MASTER.c ****         slaveAddress = (uint8) (slaveAddress << I2C_SLAVE_ADDR_SHIFT);
 432              		.loc 1 415 0
 433 0008 4000     		lsls	r0, r0, #1
 434              	.LVL42:
 435 000a C0B2     		uxtb	r0, r0
 436              	.LVL43:
 437 000c 104A     		ldr	r2, .L63+4
 416:Generated_Source\PSoC5/I2C_MASTER.c ****         if(0u != R_nW)
 438              		.loc 1 416 0
 439 000e 19B1     		cbz	r1, .L55
 417:Generated_Source\PSoC5/I2C_MASTER.c ****         {
 418:Generated_Source\PSoC5/I2C_MASTER.c ****             slaveAddress |= I2C_READ_FLAG;
 440              		.loc 1 418 0
 441 0010 40F00100 		orr	r0, r0, #1
 442              	.LVL44:
 419:Generated_Source\PSoC5/I2C_MASTER.c ****             I2C_state = I2C_SM_MSTR_RD_ADDR;
 443              		.loc 1 419 0
 444 0014 4921     		movs	r1, #73
 445              	.LVL45:
 446 0016 00E0     		b	.L62
 447              	.LVL46:
 448              	.L55:
ARM GAS  C:\Users\chemi\AppData\Local\Temp\ccMxhiSI.s 			page 17


 420:Generated_Source\PSoC5/I2C_MASTER.c ****         }
 421:Generated_Source\PSoC5/I2C_MASTER.c ****         else
 422:Generated_Source\PSoC5/I2C_MASTER.c ****         {
 423:Generated_Source\PSoC5/I2C_MASTER.c ****             I2C_state = I2C_SM_MSTR_WR_ADDR;
 449              		.loc 1 423 0
 450 0018 4521     		movs	r1, #69
 451              	.LVL47:
 452              	.L62:
 453 001a 1170     		strb	r1, [r2]
 424:Generated_Source\PSoC5/I2C_MASTER.c ****         }
 425:Generated_Source\PSoC5/I2C_MASTER.c **** 
 426:Generated_Source\PSoC5/I2C_MASTER.c ****         /* Hardware actions: write address and generate ReStart */
 427:Generated_Source\PSoC5/I2C_MASTER.c ****         I2C_DATA_REG = slaveAddress;
 454              		.loc 1 427 0
 455 001c 0D49     		ldr	r1, .L63+8
 456 001e 0870     		strb	r0, [r1]
 428:Generated_Source\PSoC5/I2C_MASTER.c ****         I2C_GENERATE_RESTART_MANUAL;
 457              		.loc 1 428 0
 458 0020 1221     		movs	r1, #18
 459 0022 1970     		strb	r1, [r3]
 460 0024 0C4B     		ldr	r3, .L63+12
 461 0026 0421     		movs	r1, #4
 462 0028 1970     		strb	r1, [r3]
 463              	.L57:
 429:Generated_Source\PSoC5/I2C_MASTER.c **** 
 430:Generated_Source\PSoC5/I2C_MASTER.c ****         /* Wait until address has been transferred */
 431:Generated_Source\PSoC5/I2C_MASTER.c ****         while(I2C_WAIT_BYTE_COMPLETE(I2C_CSR_REG))
 464              		.loc 1 431 0 discriminator 1
 465 002a 1978     		ldrb	r1, [r3]	@ zero_extendqisi2
 466 002c C907     		lsls	r1, r1, #31
 467 002e FCD5     		bpl	.L57
 432:Generated_Source\PSoC5/I2C_MASTER.c ****         {
 433:Generated_Source\PSoC5/I2C_MASTER.c ****         }
 434:Generated_Source\PSoC5/I2C_MASTER.c **** 
 435:Generated_Source\PSoC5/I2C_MASTER.c ****     #if(I2C_MODE_MULTI_MASTER_ENABLED)
 436:Generated_Source\PSoC5/I2C_MASTER.c ****         if(I2C_CHECK_LOST_ARB(I2C_CSR_REG))
 437:Generated_Source\PSoC5/I2C_MASTER.c ****         {
 438:Generated_Source\PSoC5/I2C_MASTER.c ****             I2C_BUS_RELEASE_MANUAL;
 439:Generated_Source\PSoC5/I2C_MASTER.c **** 
 440:Generated_Source\PSoC5/I2C_MASTER.c ****             /* Master lost arbitrage: reset FSM to IDLE */
 441:Generated_Source\PSoC5/I2C_MASTER.c ****             I2C_state = I2C_SM_IDLE;
 442:Generated_Source\PSoC5/I2C_MASTER.c ****             errStatus = I2C_MSTR_ERR_ARB_LOST;
 443:Generated_Source\PSoC5/I2C_MASTER.c ****         }
 444:Generated_Source\PSoC5/I2C_MASTER.c ****         else
 445:Generated_Source\PSoC5/I2C_MASTER.c ****     #endif /* (I2C_MODE_MULTI_MASTER_ENABLED) */
 446:Generated_Source\PSoC5/I2C_MASTER.c **** 
 447:Generated_Source\PSoC5/I2C_MASTER.c ****         if(I2C_CHECK_ADDR_NAK(I2C_CSR_REG))
 468              		.loc 1 447 0
 469 0030 094B     		ldr	r3, .L63+12
 470 0032 1B78     		ldrb	r3, [r3]	@ zero_extendqisi2
 471 0034 03F00A03 		and	r3, r3, #10
 472 0038 0A2B     		cmp	r3, #10
 473 003a 05D1     		bne	.L59
 448:Generated_Source\PSoC5/I2C_MASTER.c ****         {
 449:Generated_Source\PSoC5/I2C_MASTER.c ****             /* Address has been NACKed: reset FSM to IDLE */
 450:Generated_Source\PSoC5/I2C_MASTER.c ****             I2C_state = I2C_SM_IDLE;
 474              		.loc 1 450 0
ARM GAS  C:\Users\chemi\AppData\Local\Temp\ccMxhiSI.s 			page 18


 475 003c 1023     		movs	r3, #16
 476 003e 1370     		strb	r3, [r2]
 477              	.LVL48:
 451:Generated_Source\PSoC5/I2C_MASTER.c ****             errStatus = I2C_MSTR_ERR_LB_NAK;
 478              		.loc 1 451 0
 479 0040 0320     		movs	r0, #3
 480              	.LVL49:
 481 0042 7047     		bx	lr
 482              	.LVL50:
 483              	.L58:
 409:Generated_Source\PSoC5/I2C_MASTER.c **** 
 484              		.loc 1 409 0
 485 0044 0220     		movs	r0, #2
 486              	.LVL51:
 487 0046 7047     		bx	lr
 488              	.LVL52:
 489              	.L59:
 452:Generated_Source\PSoC5/I2C_MASTER.c ****         }
 453:Generated_Source\PSoC5/I2C_MASTER.c ****         else
 454:Generated_Source\PSoC5/I2C_MASTER.c ****         {
 455:Generated_Source\PSoC5/I2C_MASTER.c ****             /* ReStart was sent without errors */
 456:Generated_Source\PSoC5/I2C_MASTER.c ****             errStatus = I2C_MSTR_NO_ERROR;
 490              		.loc 1 456 0
 491 0048 0020     		movs	r0, #0
 492              	.LVL53:
 457:Generated_Source\PSoC5/I2C_MASTER.c ****         }
 458:Generated_Source\PSoC5/I2C_MASTER.c ****     }
 459:Generated_Source\PSoC5/I2C_MASTER.c **** 
 460:Generated_Source\PSoC5/I2C_MASTER.c ****     return(errStatus);
 461:Generated_Source\PSoC5/I2C_MASTER.c **** }
 493              		.loc 1 461 0
 494 004a 7047     		bx	lr
 495              	.L64:
 496              		.align	2
 497              	.L63:
 498 004c D9490040 		.word	1073760729
 499 0050 00000000 		.word	I2C_state
 500 0054 D8490040 		.word	1073760728
 501 0058 D7490040 		.word	1073760727
 502              		.cfi_endproc
 503              	.LFE3:
 504              		.size	I2C_MasterSendRestart, .-I2C_MasterSendRestart
 505              		.section	.text.I2C_MasterSendStop,"ax",%progbits
 506              		.align	1
 507              		.global	I2C_MasterSendStop
 508              		.thumb
 509              		.thumb_func
 510              		.type	I2C_MasterSendStop, %function
 511              	I2C_MasterSendStop:
 512              	.LFB4:
 462:Generated_Source\PSoC5/I2C_MASTER.c **** 
 463:Generated_Source\PSoC5/I2C_MASTER.c **** 
 464:Generated_Source\PSoC5/I2C_MASTER.c **** /*******************************************************************************
 465:Generated_Source\PSoC5/I2C_MASTER.c **** * Function Name: I2C_MasterSendStop
 466:Generated_Source\PSoC5/I2C_MASTER.c **** ********************************************************************************
 467:Generated_Source\PSoC5/I2C_MASTER.c **** *
 468:Generated_Source\PSoC5/I2C_MASTER.c **** * Summary:
ARM GAS  C:\Users\chemi\AppData\Local\Temp\ccMxhiSI.s 			page 19


 469:Generated_Source\PSoC5/I2C_MASTER.c **** *  Generates I2C Stop condition on bus. Function do nothing if Start or Restart
 470:Generated_Source\PSoC5/I2C_MASTER.c **** *  condition was failed before call this function.
 471:Generated_Source\PSoC5/I2C_MASTER.c **** *
 472:Generated_Source\PSoC5/I2C_MASTER.c **** * Parameters:
 473:Generated_Source\PSoC5/I2C_MASTER.c **** *  None.
 474:Generated_Source\PSoC5/I2C_MASTER.c **** *
 475:Generated_Source\PSoC5/I2C_MASTER.c **** * Return:
 476:Generated_Source\PSoC5/I2C_MASTER.c **** *  Status error - Zero means no errors.
 477:Generated_Source\PSoC5/I2C_MASTER.c **** *
 478:Generated_Source\PSoC5/I2C_MASTER.c **** * Side Effects:
 479:Generated_Source\PSoC5/I2C_MASTER.c **** *  Stop generation is required to complete the transaction.
 480:Generated_Source\PSoC5/I2C_MASTER.c **** *  This function does not wait until a Stop condition is generated.
 481:Generated_Source\PSoC5/I2C_MASTER.c **** *
 482:Generated_Source\PSoC5/I2C_MASTER.c **** * Global variables:
 483:Generated_Source\PSoC5/I2C_MASTER.c **** *  I2C_state - The global variable used to store a current state of
 484:Generated_Source\PSoC5/I2C_MASTER.c **** *                           the software FSM.
 485:Generated_Source\PSoC5/I2C_MASTER.c **** *
 486:Generated_Source\PSoC5/I2C_MASTER.c **** * Reentrant:
 487:Generated_Source\PSoC5/I2C_MASTER.c **** *  No.
 488:Generated_Source\PSoC5/I2C_MASTER.c **** *
 489:Generated_Source\PSoC5/I2C_MASTER.c **** *******************************************************************************/
 490:Generated_Source\PSoC5/I2C_MASTER.c **** uint8 I2C_MasterSendStop(void) 
 491:Generated_Source\PSoC5/I2C_MASTER.c **** {
 513              		.loc 1 491 0
 514              		.cfi_startproc
 515              		@ args = 0, pretend = 0, frame = 0
 516              		@ frame_needed = 0, uses_anonymous_args = 0
 517              		@ link register save eliminated.
 518              	.LVL54:
 492:Generated_Source\PSoC5/I2C_MASTER.c ****     uint8 errStatus;
 493:Generated_Source\PSoC5/I2C_MASTER.c **** 
 494:Generated_Source\PSoC5/I2C_MASTER.c ****     errStatus = I2C_MSTR_NOT_READY;
 495:Generated_Source\PSoC5/I2C_MASTER.c **** 
 496:Generated_Source\PSoC5/I2C_MASTER.c ****     /* Check if master is active on bus */
 497:Generated_Source\PSoC5/I2C_MASTER.c ****     if(I2C_CHECK_MASTER_MODE(I2C_MCSR_REG))
 519              		.loc 1 497 0
 520 0000 094B     		ldr	r3, .L71
 521 0002 1A78     		ldrb	r2, [r3]	@ zero_extendqisi2
 522 0004 5207     		lsls	r2, r2, #29
 523 0006 0CD5     		bpl	.L68
 498:Generated_Source\PSoC5/I2C_MASTER.c ****     {
 499:Generated_Source\PSoC5/I2C_MASTER.c ****         I2C_GENERATE_STOP_MANUAL;
 524              		.loc 1 499 0
 525 0008 1022     		movs	r2, #16
 526 000a 1A70     		strb	r2, [r3]
 527 000c 0421     		movs	r1, #4
 528 000e 023B     		subs	r3, r3, #2
 529 0010 1970     		strb	r1, [r3]
 500:Generated_Source\PSoC5/I2C_MASTER.c ****         I2C_state = I2C_SM_IDLE;
 530              		.loc 1 500 0
 531 0012 0649     		ldr	r1, .L71+4
 532 0014 0A70     		strb	r2, [r1]
 533              	.L67:
 501:Generated_Source\PSoC5/I2C_MASTER.c **** 
 502:Generated_Source\PSoC5/I2C_MASTER.c ****         /* Wait until stop has been generated */
 503:Generated_Source\PSoC5/I2C_MASTER.c ****         while(I2C_WAIT_STOP_COMPLETE(I2C_CSR_REG))
 534              		.loc 1 503 0 discriminator 1
ARM GAS  C:\Users\chemi\AppData\Local\Temp\ccMxhiSI.s 			page 20


 535 0016 1A78     		ldrb	r2, [r3]	@ zero_extendqisi2
 536 0018 12F0210F 		tst	r2, #33
 537 001c FBD0     		beq	.L67
 504:Generated_Source\PSoC5/I2C_MASTER.c ****         {
 505:Generated_Source\PSoC5/I2C_MASTER.c ****         }
 506:Generated_Source\PSoC5/I2C_MASTER.c **** 
 507:Generated_Source\PSoC5/I2C_MASTER.c ****         errStatus = I2C_MSTR_NO_ERROR;
 538              		.loc 1 507 0
 539 001e 0020     		movs	r0, #0
 540 0020 7047     		bx	lr
 541              	.L68:
 494:Generated_Source\PSoC5/I2C_MASTER.c **** 
 542              		.loc 1 494 0
 543 0022 0220     		movs	r0, #2
 544              	.LVL55:
 508:Generated_Source\PSoC5/I2C_MASTER.c **** 
 509:Generated_Source\PSoC5/I2C_MASTER.c ****     #if(I2C_MODE_MULTI_MASTER_ENABLED)
 510:Generated_Source\PSoC5/I2C_MASTER.c ****         if(I2C_CHECK_LOST_ARB(I2C_CSR_REG))
 511:Generated_Source\PSoC5/I2C_MASTER.c ****         {
 512:Generated_Source\PSoC5/I2C_MASTER.c ****             I2C_BUS_RELEASE_MANUAL;
 513:Generated_Source\PSoC5/I2C_MASTER.c **** 
 514:Generated_Source\PSoC5/I2C_MASTER.c ****             /* NACK was generated by instead Stop */
 515:Generated_Source\PSoC5/I2C_MASTER.c ****             errStatus = I2C_MSTR_ERR_ARB_LOST;
 516:Generated_Source\PSoC5/I2C_MASTER.c ****         }
 517:Generated_Source\PSoC5/I2C_MASTER.c ****     #endif /* (I2C_MODE_MULTI_MASTER_ENABLED) */
 518:Generated_Source\PSoC5/I2C_MASTER.c ****     }
 519:Generated_Source\PSoC5/I2C_MASTER.c **** 
 520:Generated_Source\PSoC5/I2C_MASTER.c ****     return(errStatus);
 521:Generated_Source\PSoC5/I2C_MASTER.c **** }
 545              		.loc 1 521 0
 546 0024 7047     		bx	lr
 547              	.L72:
 548 0026 00BF     		.align	2
 549              	.L71:
 550 0028 D9490040 		.word	1073760729
 551 002c 00000000 		.word	I2C_state
 552              		.cfi_endproc
 553              	.LFE4:
 554              		.size	I2C_MasterSendStop, .-I2C_MasterSendStop
 555              		.section	.text.I2C_MasterWriteByte,"ax",%progbits
 556              		.align	1
 557              		.global	I2C_MasterWriteByte
 558              		.thumb
 559              		.thumb_func
 560              		.type	I2C_MasterWriteByte, %function
 561              	I2C_MasterWriteByte:
 562              	.LFB5:
 522:Generated_Source\PSoC5/I2C_MASTER.c **** 
 523:Generated_Source\PSoC5/I2C_MASTER.c **** 
 524:Generated_Source\PSoC5/I2C_MASTER.c **** /*******************************************************************************
 525:Generated_Source\PSoC5/I2C_MASTER.c **** * Function Name: I2C_MasterWriteByte
 526:Generated_Source\PSoC5/I2C_MASTER.c **** ********************************************************************************
 527:Generated_Source\PSoC5/I2C_MASTER.c **** *
 528:Generated_Source\PSoC5/I2C_MASTER.c **** * Summary:
 529:Generated_Source\PSoC5/I2C_MASTER.c **** *  Sends one byte to a slave. A valid Start or ReStart condition must be
 530:Generated_Source\PSoC5/I2C_MASTER.c **** *  generated before this call this function. Function do nothing if Start or
 531:Generated_Source\PSoC5/I2C_MASTER.c **** *  Restart condition was failed before call this function.
ARM GAS  C:\Users\chemi\AppData\Local\Temp\ccMxhiSI.s 			page 21


 532:Generated_Source\PSoC5/I2C_MASTER.c **** *
 533:Generated_Source\PSoC5/I2C_MASTER.c **** * Parameters:
 534:Generated_Source\PSoC5/I2C_MASTER.c **** *  data:  The data byte to send to the slave.
 535:Generated_Source\PSoC5/I2C_MASTER.c **** *
 536:Generated_Source\PSoC5/I2C_MASTER.c **** * Return:
 537:Generated_Source\PSoC5/I2C_MASTER.c **** *  Status error - Zero means no errors.
 538:Generated_Source\PSoC5/I2C_MASTER.c **** *
 539:Generated_Source\PSoC5/I2C_MASTER.c **** * Side Effects:
 540:Generated_Source\PSoC5/I2C_MASTER.c **** *  This function is entered without a "byte complete" bit set in the I2C_CSR
 541:Generated_Source\PSoC5/I2C_MASTER.c **** *  register. It does not exit until it is set.
 542:Generated_Source\PSoC5/I2C_MASTER.c **** *
 543:Generated_Source\PSoC5/I2C_MASTER.c **** * Global variables:
 544:Generated_Source\PSoC5/I2C_MASTER.c **** *  I2C_state - The global variable used to store a current state of
 545:Generated_Source\PSoC5/I2C_MASTER.c **** *                           the software FSM.
 546:Generated_Source\PSoC5/I2C_MASTER.c **** *
 547:Generated_Source\PSoC5/I2C_MASTER.c **** *******************************************************************************/
 548:Generated_Source\PSoC5/I2C_MASTER.c **** uint8 I2C_MasterWriteByte(uint8 theByte) 
 549:Generated_Source\PSoC5/I2C_MASTER.c **** {
 563              		.loc 1 549 0
 564              		.cfi_startproc
 565              		@ args = 0, pretend = 0, frame = 0
 566              		@ frame_needed = 0, uses_anonymous_args = 0
 567              		@ link register save eliminated.
 568              	.LVL56:
 550:Generated_Source\PSoC5/I2C_MASTER.c ****     uint8 errStatus;
 551:Generated_Source\PSoC5/I2C_MASTER.c **** 
 552:Generated_Source\PSoC5/I2C_MASTER.c ****     errStatus = I2C_MSTR_NOT_READY;
 553:Generated_Source\PSoC5/I2C_MASTER.c **** 
 554:Generated_Source\PSoC5/I2C_MASTER.c ****     /* Check if START condition was generated */
 555:Generated_Source\PSoC5/I2C_MASTER.c ****     if(I2C_CHECK_MASTER_MODE(I2C_MCSR_REG))
 569              		.loc 1 555 0
 570 0000 0E4B     		ldr	r3, .L80
 571 0002 1B78     		ldrb	r3, [r3]	@ zero_extendqisi2
 572 0004 5B07     		lsls	r3, r3, #29
 573 0006 16D5     		bpl	.L77
 556:Generated_Source\PSoC5/I2C_MASTER.c ****     {
 557:Generated_Source\PSoC5/I2C_MASTER.c ****         I2C_DATA_REG = theByte;   /* Write DATA register */
 574              		.loc 1 557 0
 575 0008 0D4B     		ldr	r3, .L80+4
 558:Generated_Source\PSoC5/I2C_MASTER.c ****         I2C_TRANSMIT_DATA_MANUAL; /* Set transmit mode   */
 576              		.loc 1 558 0
 577 000a 0E4A     		ldr	r2, .L80+8
 557:Generated_Source\PSoC5/I2C_MASTER.c ****         I2C_TRANSMIT_DATA_MANUAL; /* Set transmit mode   */
 578              		.loc 1 557 0
 579 000c 1870     		strb	r0, [r3]
 580              		.loc 1 558 0
 581 000e 0423     		movs	r3, #4
 582 0010 1370     		strb	r3, [r2]
 559:Generated_Source\PSoC5/I2C_MASTER.c ****         I2C_state = I2C_SM_MSTR_WR_DATA;
 583              		.loc 1 559 0
 584 0012 0D4B     		ldr	r3, .L80+12
 585 0014 4621     		movs	r1, #70
 586 0016 1970     		strb	r1, [r3]
 587              	.L75:
 560:Generated_Source\PSoC5/I2C_MASTER.c **** 
 561:Generated_Source\PSoC5/I2C_MASTER.c ****         /* Wait until data byte has been transmitted */
 562:Generated_Source\PSoC5/I2C_MASTER.c ****         while(I2C_WAIT_BYTE_COMPLETE(I2C_CSR_REG))
ARM GAS  C:\Users\chemi\AppData\Local\Temp\ccMxhiSI.s 			page 22


 588              		.loc 1 562 0 discriminator 1
 589 0018 1178     		ldrb	r1, [r2]	@ zero_extendqisi2
 590 001a C907     		lsls	r1, r1, #31
 591 001c FCD5     		bpl	.L75
 563:Generated_Source\PSoC5/I2C_MASTER.c ****         {
 564:Generated_Source\PSoC5/I2C_MASTER.c ****         }
 565:Generated_Source\PSoC5/I2C_MASTER.c **** 
 566:Generated_Source\PSoC5/I2C_MASTER.c ****     #if(I2C_MODE_MULTI_MASTER_ENABLED)
 567:Generated_Source\PSoC5/I2C_MASTER.c ****         if(I2C_CHECK_LOST_ARB(I2C_CSR_REG))
 568:Generated_Source\PSoC5/I2C_MASTER.c ****         {
 569:Generated_Source\PSoC5/I2C_MASTER.c ****             I2C_BUS_RELEASE_MANUAL;
 570:Generated_Source\PSoC5/I2C_MASTER.c **** 
 571:Generated_Source\PSoC5/I2C_MASTER.c ****             /* Master lost arbitrage: reset FSM to IDLE */
 572:Generated_Source\PSoC5/I2C_MASTER.c ****             I2C_state = I2C_SM_IDLE;
 573:Generated_Source\PSoC5/I2C_MASTER.c ****             errStatus = I2C_MSTR_ERR_ARB_LOST;
 574:Generated_Source\PSoC5/I2C_MASTER.c ****         }
 575:Generated_Source\PSoC5/I2C_MASTER.c ****         /* Check LRB bit */
 576:Generated_Source\PSoC5/I2C_MASTER.c ****         else
 577:Generated_Source\PSoC5/I2C_MASTER.c ****     #endif /* (I2C_MODE_MULTI_MASTER_ENABLED) */
 578:Generated_Source\PSoC5/I2C_MASTER.c **** 
 579:Generated_Source\PSoC5/I2C_MASTER.c ****         if(I2C_CHECK_DATA_ACK(I2C_CSR_REG))
 592              		.loc 1 579 0
 593 001e 094A     		ldr	r2, .L80+8
 594 0020 6021     		movs	r1, #96
 595 0022 1278     		ldrb	r2, [r2]	@ zero_extendqisi2
 580:Generated_Source\PSoC5/I2C_MASTER.c ****         {
 581:Generated_Source\PSoC5/I2C_MASTER.c ****             I2C_state = I2C_SM_MSTR_HALT;
 596              		.loc 1 581 0
 597 0024 1970     		strb	r1, [r3]
 579:Generated_Source\PSoC5/I2C_MASTER.c ****         {
 598              		.loc 1 579 0
 599 0026 02F00202 		and	r2, r2, #2
 600 002a 02F0FF00 		and	r0, r2, #255
 601              	.LVL57:
 602 002e 02B9     		cbnz	r2, .L76
 603              	.LVL58:
 604 0030 7047     		bx	lr
 605              	.LVL59:
 606              	.L76:
 582:Generated_Source\PSoC5/I2C_MASTER.c ****             errStatus = I2C_MSTR_NO_ERROR;
 583:Generated_Source\PSoC5/I2C_MASTER.c ****         }
 584:Generated_Source\PSoC5/I2C_MASTER.c ****         else
 585:Generated_Source\PSoC5/I2C_MASTER.c ****         {
 586:Generated_Source\PSoC5/I2C_MASTER.c ****             I2C_state = I2C_SM_MSTR_HALT;
 587:Generated_Source\PSoC5/I2C_MASTER.c ****             errStatus = I2C_MSTR_ERR_LB_NAK;
 607              		.loc 1 587 0
 608 0032 0320     		movs	r0, #3
 609 0034 7047     		bx	lr
 610              	.LVL60:
 611              	.L77:
 552:Generated_Source\PSoC5/I2C_MASTER.c **** 
 612              		.loc 1 552 0
 613 0036 0220     		movs	r0, #2
 614              	.LVL61:
 588:Generated_Source\PSoC5/I2C_MASTER.c ****         }
 589:Generated_Source\PSoC5/I2C_MASTER.c ****     }
 590:Generated_Source\PSoC5/I2C_MASTER.c **** 
ARM GAS  C:\Users\chemi\AppData\Local\Temp\ccMxhiSI.s 			page 23


 591:Generated_Source\PSoC5/I2C_MASTER.c ****     return(errStatus);
 592:Generated_Source\PSoC5/I2C_MASTER.c **** }
 615              		.loc 1 592 0
 616 0038 7047     		bx	lr
 617              	.L81:
 618 003a 00BF     		.align	2
 619              	.L80:
 620 003c D9490040 		.word	1073760729
 621 0040 D8490040 		.word	1073760728
 622 0044 D7490040 		.word	1073760727
 623 0048 00000000 		.word	I2C_state
 624              		.cfi_endproc
 625              	.LFE5:
 626              		.size	I2C_MasterWriteByte, .-I2C_MasterWriteByte
 627              		.section	.text.I2C_MasterReadByte,"ax",%progbits
 628              		.align	1
 629              		.global	I2C_MasterReadByte
 630              		.thumb
 631              		.thumb_func
 632              		.type	I2C_MasterReadByte, %function
 633              	I2C_MasterReadByte:
 634              	.LFB6:
 593:Generated_Source\PSoC5/I2C_MASTER.c **** 
 594:Generated_Source\PSoC5/I2C_MASTER.c **** 
 595:Generated_Source\PSoC5/I2C_MASTER.c **** /*******************************************************************************
 596:Generated_Source\PSoC5/I2C_MASTER.c **** * Function Name: I2C_MasterReadByte
 597:Generated_Source\PSoC5/I2C_MASTER.c **** ********************************************************************************
 598:Generated_Source\PSoC5/I2C_MASTER.c **** *
 599:Generated_Source\PSoC5/I2C_MASTER.c **** * Summary:
 600:Generated_Source\PSoC5/I2C_MASTER.c **** *  Reads one byte from a slave and ACK or NACK the transfer. A valid Start or
 601:Generated_Source\PSoC5/I2C_MASTER.c **** *  ReStart condition must be generated before this call this function. Function
 602:Generated_Source\PSoC5/I2C_MASTER.c **** *  do nothing if Start or Restart condition was failed before call this
 603:Generated_Source\PSoC5/I2C_MASTER.c **** *  function.
 604:Generated_Source\PSoC5/I2C_MASTER.c **** *
 605:Generated_Source\PSoC5/I2C_MASTER.c **** * Parameters:
 606:Generated_Source\PSoC5/I2C_MASTER.c **** *  acknNack:  Zero, response with NACK, if non-zero response with ACK.
 607:Generated_Source\PSoC5/I2C_MASTER.c **** *
 608:Generated_Source\PSoC5/I2C_MASTER.c **** * Return:
 609:Generated_Source\PSoC5/I2C_MASTER.c **** *  Byte read from slave.
 610:Generated_Source\PSoC5/I2C_MASTER.c **** *
 611:Generated_Source\PSoC5/I2C_MASTER.c **** * Side Effects:
 612:Generated_Source\PSoC5/I2C_MASTER.c **** *  This function is entered without a "byte complete" bit set in the I2C_CSR
 613:Generated_Source\PSoC5/I2C_MASTER.c **** *  register. It does not exit until it is set.
 614:Generated_Source\PSoC5/I2C_MASTER.c **** *
 615:Generated_Source\PSoC5/I2C_MASTER.c **** * Global variables:
 616:Generated_Source\PSoC5/I2C_MASTER.c **** *  I2C_state - The global variable used to store a current
 617:Generated_Source\PSoC5/I2C_MASTER.c **** *                           state of the software FSM.
 618:Generated_Source\PSoC5/I2C_MASTER.c **** *
 619:Generated_Source\PSoC5/I2C_MASTER.c **** * Reentrant:
 620:Generated_Source\PSoC5/I2C_MASTER.c **** *  No.
 621:Generated_Source\PSoC5/I2C_MASTER.c **** *
 622:Generated_Source\PSoC5/I2C_MASTER.c **** *******************************************************************************/
 623:Generated_Source\PSoC5/I2C_MASTER.c **** uint8 I2C_MasterReadByte(uint8 acknNak) 
 624:Generated_Source\PSoC5/I2C_MASTER.c **** {
 635              		.loc 1 624 0
 636              		.cfi_startproc
 637              		@ args = 0, pretend = 0, frame = 0
ARM GAS  C:\Users\chemi\AppData\Local\Temp\ccMxhiSI.s 			page 24


 638              		@ frame_needed = 0, uses_anonymous_args = 0
 639              		@ link register save eliminated.
 640              	.LVL62:
 625:Generated_Source\PSoC5/I2C_MASTER.c ****     uint8 theByte;
 626:Generated_Source\PSoC5/I2C_MASTER.c **** 
 627:Generated_Source\PSoC5/I2C_MASTER.c ****     theByte = 0u;
 628:Generated_Source\PSoC5/I2C_MASTER.c **** 
 629:Generated_Source\PSoC5/I2C_MASTER.c ****     /* Check if START condition was generated */
 630:Generated_Source\PSoC5/I2C_MASTER.c ****     if(I2C_CHECK_MASTER_MODE(I2C_MCSR_REG))
 641              		.loc 1 630 0
 642 0000 104B     		ldr	r3, .L90
 624:Generated_Source\PSoC5/I2C_MASTER.c ****     uint8 theByte;
 643              		.loc 1 624 0
 644 0002 0146     		mov	r1, r0
 645              		.loc 1 630 0
 646 0004 1A78     		ldrb	r2, [r3]	@ zero_extendqisi2
 647 0006 02F00402 		and	r2, r2, #4
 648 000a 02F0FF03 		and	r3, r2, #255
 649 000e B2B1     		cbz	r2, .L87
 631:Generated_Source\PSoC5/I2C_MASTER.c ****     {
 632:Generated_Source\PSoC5/I2C_MASTER.c ****         /* When address phase needs to release bus and receive byte,
 633:Generated_Source\PSoC5/I2C_MASTER.c ****         * then decide ACK or NACK
 634:Generated_Source\PSoC5/I2C_MASTER.c ****         */
 635:Generated_Source\PSoC5/I2C_MASTER.c ****         if(I2C_SM_MSTR_RD_ADDR == I2C_state)
 650              		.loc 1 635 0
 651 0010 0D4A     		ldr	r2, .L90+4
 652 0012 1378     		ldrb	r3, [r2]	@ zero_extendqisi2
 653 0014 492B     		cmp	r3, #73
 654 0016 0D4B     		ldr	r3, .L90+8
 636:Generated_Source\PSoC5/I2C_MASTER.c ****         {
 637:Generated_Source\PSoC5/I2C_MASTER.c ****             I2C_READY_TO_READ_MANUAL;
 655              		.loc 1 637 0
 656 0018 01BF     		itttt	eq
 657 001a 0020     		moveq	r0, #0
 658              	.LVL63:
 659 001c 1870     		strbeq	r0, [r3]
 638:Generated_Source\PSoC5/I2C_MASTER.c ****             I2C_state = I2C_SM_MSTR_RD_DATA;
 660              		.loc 1 638 0
 661 001e 4A20     		moveq	r0, #74
 662 0020 1070     		strbeq	r0, [r2]
 663              	.L85:
 639:Generated_Source\PSoC5/I2C_MASTER.c ****         }
 640:Generated_Source\PSoC5/I2C_MASTER.c **** 
 641:Generated_Source\PSoC5/I2C_MASTER.c ****         /* Wait until data byte has been received */
 642:Generated_Source\PSoC5/I2C_MASTER.c ****         while(I2C_WAIT_BYTE_COMPLETE(I2C_CSR_REG))
 664              		.loc 1 642 0 discriminator 1
 665 0022 1878     		ldrb	r0, [r3]	@ zero_extendqisi2
 666 0024 C007     		lsls	r0, r0, #31
 667 0026 FCD5     		bpl	.L85
 643:Generated_Source\PSoC5/I2C_MASTER.c ****         {
 644:Generated_Source\PSoC5/I2C_MASTER.c ****         }
 645:Generated_Source\PSoC5/I2C_MASTER.c **** 
 646:Generated_Source\PSoC5/I2C_MASTER.c ****         theByte = I2C_DATA_REG;
 668              		.loc 1 646 0
 669 0028 094B     		ldr	r3, .L90+12
 670 002a 1B78     		ldrb	r3, [r3]	@ zero_extendqisi2
 671 002c D8B2     		uxtb	r0, r3
ARM GAS  C:\Users\chemi\AppData\Local\Temp\ccMxhiSI.s 			page 25


 672              	.LVL64:
 647:Generated_Source\PSoC5/I2C_MASTER.c **** 
 648:Generated_Source\PSoC5/I2C_MASTER.c ****         /* Command ACK to receive next byte and continue transfer.
 649:Generated_Source\PSoC5/I2C_MASTER.c ****         *  Do nothing for NACK. The NACK will be generated by
 650:Generated_Source\PSoC5/I2C_MASTER.c ****         *  Stop or ReStart routine.
 651:Generated_Source\PSoC5/I2C_MASTER.c ****         */
 652:Generated_Source\PSoC5/I2C_MASTER.c ****         if(acknNak != 0u) /* Generate ACK */
 673              		.loc 1 652 0
 674 002e 19B1     		cbz	r1, .L86
 653:Generated_Source\PSoC5/I2C_MASTER.c ****         {
 654:Generated_Source\PSoC5/I2C_MASTER.c ****             I2C_ACK_AND_RECEIVE_MANUAL;
 675              		.loc 1 654 0
 676 0030 064B     		ldr	r3, .L90+8
 677 0032 1022     		movs	r2, #16
 678 0034 1A70     		strb	r2, [r3]
 679 0036 7047     		bx	lr
 680              	.L86:
 655:Generated_Source\PSoC5/I2C_MASTER.c ****         }
 656:Generated_Source\PSoC5/I2C_MASTER.c ****         else              /* Do nothing for the follwong NACK */
 657:Generated_Source\PSoC5/I2C_MASTER.c ****         {
 658:Generated_Source\PSoC5/I2C_MASTER.c ****             I2C_state = I2C_SM_MSTR_HALT;
 681              		.loc 1 658 0
 682 0038 6023     		movs	r3, #96
 683 003a 1370     		strb	r3, [r2]
 684 003c 7047     		bx	lr
 685              	.LVL65:
 686              	.L87:
 627:Generated_Source\PSoC5/I2C_MASTER.c **** 
 687              		.loc 1 627 0
 688 003e 1846     		mov	r0, r3
 689              	.LVL66:
 659:Generated_Source\PSoC5/I2C_MASTER.c ****         }
 660:Generated_Source\PSoC5/I2C_MASTER.c ****     }
 661:Generated_Source\PSoC5/I2C_MASTER.c **** 
 662:Generated_Source\PSoC5/I2C_MASTER.c ****     return(theByte);
 663:Generated_Source\PSoC5/I2C_MASTER.c **** }
 690              		.loc 1 663 0
 691 0040 7047     		bx	lr
 692              	.L91:
 693 0042 00BF     		.align	2
 694              	.L90:
 695 0044 D9490040 		.word	1073760729
 696 0048 00000000 		.word	I2C_state
 697 004c D7490040 		.word	1073760727
 698 0050 D8490040 		.word	1073760728
 699              		.cfi_endproc
 700              	.LFE6:
 701              		.size	I2C_MasterReadByte, .-I2C_MasterReadByte
 702              		.section	.text.I2C_MasterStatus,"ax",%progbits
 703              		.align	1
 704              		.global	I2C_MasterStatus
 705              		.thumb
 706              		.thumb_func
 707              		.type	I2C_MasterStatus, %function
 708              	I2C_MasterStatus:
 709              	.LFB7:
 664:Generated_Source\PSoC5/I2C_MASTER.c **** 
ARM GAS  C:\Users\chemi\AppData\Local\Temp\ccMxhiSI.s 			page 26


 665:Generated_Source\PSoC5/I2C_MASTER.c **** 
 666:Generated_Source\PSoC5/I2C_MASTER.c **** /*******************************************************************************
 667:Generated_Source\PSoC5/I2C_MASTER.c **** * Function Name: I2C_MasterStatus
 668:Generated_Source\PSoC5/I2C_MASTER.c **** ********************************************************************************
 669:Generated_Source\PSoC5/I2C_MASTER.c **** *
 670:Generated_Source\PSoC5/I2C_MASTER.c **** * Summary:
 671:Generated_Source\PSoC5/I2C_MASTER.c **** *  Returns the master's communication status.
 672:Generated_Source\PSoC5/I2C_MASTER.c **** *
 673:Generated_Source\PSoC5/I2C_MASTER.c **** * Parameters:
 674:Generated_Source\PSoC5/I2C_MASTER.c **** *  None.
 675:Generated_Source\PSoC5/I2C_MASTER.c **** *
 676:Generated_Source\PSoC5/I2C_MASTER.c **** * Return:
 677:Generated_Source\PSoC5/I2C_MASTER.c **** *  Current status of I2C master.
 678:Generated_Source\PSoC5/I2C_MASTER.c **** *
 679:Generated_Source\PSoC5/I2C_MASTER.c **** * Global variables:
 680:Generated_Source\PSoC5/I2C_MASTER.c **** *  I2C_mstrStatus - The global variable used to store a current
 681:Generated_Source\PSoC5/I2C_MASTER.c **** *                                status of the I2C Master.
 682:Generated_Source\PSoC5/I2C_MASTER.c **** *
 683:Generated_Source\PSoC5/I2C_MASTER.c **** *******************************************************************************/
 684:Generated_Source\PSoC5/I2C_MASTER.c **** uint8 I2C_MasterStatus(void) 
 685:Generated_Source\PSoC5/I2C_MASTER.c **** {
 710              		.loc 1 685 0
 711              		.cfi_startproc
 712              		@ args = 0, pretend = 0, frame = 0
 713              		@ frame_needed = 0, uses_anonymous_args = 0
 714              		@ link register save eliminated.
 686:Generated_Source\PSoC5/I2C_MASTER.c ****     uint8 status;
 687:Generated_Source\PSoC5/I2C_MASTER.c **** 
 688:Generated_Source\PSoC5/I2C_MASTER.c ****     I2C_DisableInt(); /* Lock from interrupt */
 715              		.loc 1 688 0
 716 0000 074A     		ldr	r2, .L97
 717 0002 4FF40043 		mov	r3, #32768
 718 0006 1360     		str	r3, [r2]
 689:Generated_Source\PSoC5/I2C_MASTER.c **** 
 690:Generated_Source\PSoC5/I2C_MASTER.c ****     /* Read master status */
 691:Generated_Source\PSoC5/I2C_MASTER.c ****     status = I2C_mstrStatus;
 719              		.loc 1 691 0
 720 0008 064A     		ldr	r2, .L97+4
 721 000a 1078     		ldrb	r0, [r2]	@ zero_extendqisi2
 692:Generated_Source\PSoC5/I2C_MASTER.c **** 
 693:Generated_Source\PSoC5/I2C_MASTER.c ****     if (I2C_CHECK_SM_MASTER)
 722              		.loc 1 693 0
 723 000c 064A     		ldr	r2, .L97+8
 691:Generated_Source\PSoC5/I2C_MASTER.c **** 
 724              		.loc 1 691 0
 725 000e C0B2     		uxtb	r0, r0
 726              	.LVL67:
 727              		.loc 1 693 0
 728 0010 1278     		ldrb	r2, [r2]	@ zero_extendqisi2
 729 0012 5206     		lsls	r2, r2, #25
 694:Generated_Source\PSoC5/I2C_MASTER.c ****     {
 695:Generated_Source\PSoC5/I2C_MASTER.c ****         /* Set transfer in progress flag in status */
 696:Generated_Source\PSoC5/I2C_MASTER.c ****         status |= I2C_MSTAT_XFER_INP;
 697:Generated_Source\PSoC5/I2C_MASTER.c ****     }
 698:Generated_Source\PSoC5/I2C_MASTER.c **** 
 699:Generated_Source\PSoC5/I2C_MASTER.c ****     I2C_EnableInt(); /* Release lock */
 730              		.loc 1 699 0
ARM GAS  C:\Users\chemi\AppData\Local\Temp\ccMxhiSI.s 			page 27


 731 0014 054A     		ldr	r2, .L97+12
 696:Generated_Source\PSoC5/I2C_MASTER.c ****     }
 732              		.loc 1 696 0
 733 0016 48BF     		it	mi
 734 0018 40F00400 		orrmi	r0, r0, #4
 735              	.LVL68:
 736              		.loc 1 699 0
 737 001c 1360     		str	r3, [r2]
 700:Generated_Source\PSoC5/I2C_MASTER.c **** 
 701:Generated_Source\PSoC5/I2C_MASTER.c ****     return (status);
 702:Generated_Source\PSoC5/I2C_MASTER.c **** }
 738              		.loc 1 702 0
 739 001e 7047     		bx	lr
 740              	.L98:
 741              		.align	2
 742              	.L97:
 743 0020 80E100E0 		.word	-536813184
 744 0024 00000000 		.word	I2C_mstrStatus
 745 0028 00000000 		.word	I2C_state
 746 002c 00E100E0 		.word	-536813312
 747              		.cfi_endproc
 748              	.LFE7:
 749              		.size	I2C_MasterStatus, .-I2C_MasterStatus
 750              		.section	.text.I2C_MasterClearStatus,"ax",%progbits
 751              		.align	1
 752              		.global	I2C_MasterClearStatus
 753              		.thumb
 754              		.thumb_func
 755              		.type	I2C_MasterClearStatus, %function
 756              	I2C_MasterClearStatus:
 757              	.LFB8:
 703:Generated_Source\PSoC5/I2C_MASTER.c **** 
 704:Generated_Source\PSoC5/I2C_MASTER.c **** 
 705:Generated_Source\PSoC5/I2C_MASTER.c **** /*******************************************************************************
 706:Generated_Source\PSoC5/I2C_MASTER.c **** * Function Name: I2C_MasterClearStatus
 707:Generated_Source\PSoC5/I2C_MASTER.c **** ********************************************************************************
 708:Generated_Source\PSoC5/I2C_MASTER.c **** *
 709:Generated_Source\PSoC5/I2C_MASTER.c **** * Summary:
 710:Generated_Source\PSoC5/I2C_MASTER.c **** *  Clears all status flags and returns the master status.
 711:Generated_Source\PSoC5/I2C_MASTER.c **** *
 712:Generated_Source\PSoC5/I2C_MASTER.c **** * Parameters:
 713:Generated_Source\PSoC5/I2C_MASTER.c **** *  None.
 714:Generated_Source\PSoC5/I2C_MASTER.c **** *
 715:Generated_Source\PSoC5/I2C_MASTER.c **** * Return:
 716:Generated_Source\PSoC5/I2C_MASTER.c **** *  Current status of I2C master.
 717:Generated_Source\PSoC5/I2C_MASTER.c **** *
 718:Generated_Source\PSoC5/I2C_MASTER.c **** * Global variables:
 719:Generated_Source\PSoC5/I2C_MASTER.c **** *  I2C_mstrStatus - The global variable used to store a current
 720:Generated_Source\PSoC5/I2C_MASTER.c **** *                                status of the I2C Master.
 721:Generated_Source\PSoC5/I2C_MASTER.c **** *
 722:Generated_Source\PSoC5/I2C_MASTER.c **** * Reentrant:
 723:Generated_Source\PSoC5/I2C_MASTER.c **** *  No.
 724:Generated_Source\PSoC5/I2C_MASTER.c **** *
 725:Generated_Source\PSoC5/I2C_MASTER.c **** *******************************************************************************/
 726:Generated_Source\PSoC5/I2C_MASTER.c **** uint8 I2C_MasterClearStatus(void) 
 727:Generated_Source\PSoC5/I2C_MASTER.c **** {
 758              		.loc 1 727 0
ARM GAS  C:\Users\chemi\AppData\Local\Temp\ccMxhiSI.s 			page 28


 759              		.cfi_startproc
 760              		@ args = 0, pretend = 0, frame = 0
 761              		@ frame_needed = 0, uses_anonymous_args = 0
 762              		@ link register save eliminated.
 728:Generated_Source\PSoC5/I2C_MASTER.c ****     uint8 status;
 729:Generated_Source\PSoC5/I2C_MASTER.c **** 
 730:Generated_Source\PSoC5/I2C_MASTER.c ****     I2C_DisableInt(); /* Lock from interrupt */
 763              		.loc 1 730 0
 764 0000 054A     		ldr	r2, .L100
 765 0002 4FF40043 		mov	r3, #32768
 766 0006 1360     		str	r3, [r2]
 731:Generated_Source\PSoC5/I2C_MASTER.c **** 
 732:Generated_Source\PSoC5/I2C_MASTER.c ****     /* Read and clear master status */
 733:Generated_Source\PSoC5/I2C_MASTER.c ****     status = I2C_mstrStatus;
 767              		.loc 1 733 0
 768 0008 044A     		ldr	r2, .L100+4
 734:Generated_Source\PSoC5/I2C_MASTER.c ****     I2C_mstrStatus = I2C_MSTAT_CLEAR;
 769              		.loc 1 734 0
 770 000a 0021     		movs	r1, #0
 733:Generated_Source\PSoC5/I2C_MASTER.c ****     I2C_mstrStatus = I2C_MSTAT_CLEAR;
 771              		.loc 1 733 0
 772 000c 1078     		ldrb	r0, [r2]	@ zero_extendqisi2
 773              	.LVL69:
 774              		.loc 1 734 0
 775 000e 1170     		strb	r1, [r2]
 735:Generated_Source\PSoC5/I2C_MASTER.c **** 
 736:Generated_Source\PSoC5/I2C_MASTER.c ****     I2C_EnableInt(); /* Release lock */
 776              		.loc 1 736 0
 777 0010 034A     		ldr	r2, .L100+8
 778 0012 1360     		str	r3, [r2]
 737:Generated_Source\PSoC5/I2C_MASTER.c **** 
 738:Generated_Source\PSoC5/I2C_MASTER.c ****     return (status);
 739:Generated_Source\PSoC5/I2C_MASTER.c **** }
 779              		.loc 1 739 0
 780 0014 7047     		bx	lr
 781              	.L101:
 782 0016 00BF     		.align	2
 783              	.L100:
 784 0018 80E100E0 		.word	-536813184
 785 001c 00000000 		.word	I2C_mstrStatus
 786 0020 00E100E0 		.word	-536813312
 787              		.cfi_endproc
 788              	.LFE8:
 789              		.size	I2C_MasterClearStatus, .-I2C_MasterClearStatus
 790              		.section	.text.I2C_MasterGetReadBufSize,"ax",%progbits
 791              		.align	1
 792              		.global	I2C_MasterGetReadBufSize
 793              		.thumb
 794              		.thumb_func
 795              		.type	I2C_MasterGetReadBufSize, %function
 796              	I2C_MasterGetReadBufSize:
 797              	.LFB9:
 740:Generated_Source\PSoC5/I2C_MASTER.c **** 
 741:Generated_Source\PSoC5/I2C_MASTER.c **** 
 742:Generated_Source\PSoC5/I2C_MASTER.c **** /*******************************************************************************
 743:Generated_Source\PSoC5/I2C_MASTER.c **** * Function Name: I2C_MasterGetReadBufSize
 744:Generated_Source\PSoC5/I2C_MASTER.c **** ********************************************************************************
ARM GAS  C:\Users\chemi\AppData\Local\Temp\ccMxhiSI.s 			page 29


 745:Generated_Source\PSoC5/I2C_MASTER.c **** *
 746:Generated_Source\PSoC5/I2C_MASTER.c **** * Summary:
 747:Generated_Source\PSoC5/I2C_MASTER.c **** *  Returns the amount of bytes that has been transferred with an
 748:Generated_Source\PSoC5/I2C_MASTER.c **** *  I2C_MasterReadBuf command.
 749:Generated_Source\PSoC5/I2C_MASTER.c **** *
 750:Generated_Source\PSoC5/I2C_MASTER.c **** * Parameters:
 751:Generated_Source\PSoC5/I2C_MASTER.c **** *  None.
 752:Generated_Source\PSoC5/I2C_MASTER.c **** *
 753:Generated_Source\PSoC5/I2C_MASTER.c **** * Return:
 754:Generated_Source\PSoC5/I2C_MASTER.c **** *  Byte count of transfer. If the transfer is not yet complete, it will return
 755:Generated_Source\PSoC5/I2C_MASTER.c **** *  the byte count transferred so far.
 756:Generated_Source\PSoC5/I2C_MASTER.c **** *
 757:Generated_Source\PSoC5/I2C_MASTER.c **** * Global variables:
 758:Generated_Source\PSoC5/I2C_MASTER.c **** *  I2C_mstrRdBufIndex - The global variable stores current index
 759:Generated_Source\PSoC5/I2C_MASTER.c **** *                                    within the master read buffer.
 760:Generated_Source\PSoC5/I2C_MASTER.c **** *
 761:Generated_Source\PSoC5/I2C_MASTER.c **** *******************************************************************************/
 762:Generated_Source\PSoC5/I2C_MASTER.c **** uint8 I2C_MasterGetReadBufSize(void) 
 763:Generated_Source\PSoC5/I2C_MASTER.c **** {
 798              		.loc 1 763 0
 799              		.cfi_startproc
 800              		@ args = 0, pretend = 0, frame = 0
 801              		@ frame_needed = 0, uses_anonymous_args = 0
 802              		@ link register save eliminated.
 764:Generated_Source\PSoC5/I2C_MASTER.c ****     return (I2C_mstrRdBufIndex);
 803              		.loc 1 764 0
 804 0000 014B     		ldr	r3, .L103
 805 0002 1878     		ldrb	r0, [r3]	@ zero_extendqisi2
 765:Generated_Source\PSoC5/I2C_MASTER.c **** }
 806              		.loc 1 765 0
 807 0004 7047     		bx	lr
 808              	.L104:
 809 0006 00BF     		.align	2
 810              	.L103:
 811 0008 00000000 		.word	I2C_mstrRdBufIndex
 812              		.cfi_endproc
 813              	.LFE9:
 814              		.size	I2C_MasterGetReadBufSize, .-I2C_MasterGetReadBufSize
 815              		.section	.text.I2C_MasterGetWriteBufSize,"ax",%progbits
 816              		.align	1
 817              		.global	I2C_MasterGetWriteBufSize
 818              		.thumb
 819              		.thumb_func
 820              		.type	I2C_MasterGetWriteBufSize, %function
 821              	I2C_MasterGetWriteBufSize:
 822              	.LFB10:
 766:Generated_Source\PSoC5/I2C_MASTER.c **** 
 767:Generated_Source\PSoC5/I2C_MASTER.c **** 
 768:Generated_Source\PSoC5/I2C_MASTER.c **** /*******************************************************************************
 769:Generated_Source\PSoC5/I2C_MASTER.c **** * Function Name: I2C_MasterGetWriteBufSize
 770:Generated_Source\PSoC5/I2C_MASTER.c **** ********************************************************************************
 771:Generated_Source\PSoC5/I2C_MASTER.c **** *
 772:Generated_Source\PSoC5/I2C_MASTER.c **** * Summary:
 773:Generated_Source\PSoC5/I2C_MASTER.c **** *  Returns the amount of bytes that has been transferred with an
 774:Generated_Source\PSoC5/I2C_MASTER.c **** *  I2C_MasterWriteBuf command.
 775:Generated_Source\PSoC5/I2C_MASTER.c **** *
 776:Generated_Source\PSoC5/I2C_MASTER.c **** * Parameters:
ARM GAS  C:\Users\chemi\AppData\Local\Temp\ccMxhiSI.s 			page 30


 777:Generated_Source\PSoC5/I2C_MASTER.c **** *  None.
 778:Generated_Source\PSoC5/I2C_MASTER.c **** *
 779:Generated_Source\PSoC5/I2C_MASTER.c **** * Return:
 780:Generated_Source\PSoC5/I2C_MASTER.c **** *  Byte count of transfer. If the transfer is not yet complete, it will return
 781:Generated_Source\PSoC5/I2C_MASTER.c **** *  the byte count transferred so far.
 782:Generated_Source\PSoC5/I2C_MASTER.c **** *
 783:Generated_Source\PSoC5/I2C_MASTER.c **** * Global variables:
 784:Generated_Source\PSoC5/I2C_MASTER.c **** *  I2C_mstrWrBufIndex -  The global variable used to stores current
 785:Generated_Source\PSoC5/I2C_MASTER.c **** *                                     index within master write buffer.
 786:Generated_Source\PSoC5/I2C_MASTER.c **** *
 787:Generated_Source\PSoC5/I2C_MASTER.c **** *******************************************************************************/
 788:Generated_Source\PSoC5/I2C_MASTER.c **** uint8 I2C_MasterGetWriteBufSize(void) 
 789:Generated_Source\PSoC5/I2C_MASTER.c **** {
 823              		.loc 1 789 0
 824              		.cfi_startproc
 825              		@ args = 0, pretend = 0, frame = 0
 826              		@ frame_needed = 0, uses_anonymous_args = 0
 827              		@ link register save eliminated.
 790:Generated_Source\PSoC5/I2C_MASTER.c ****     return (I2C_mstrWrBufIndex);
 828              		.loc 1 790 0
 829 0000 014B     		ldr	r3, .L106
 830 0002 1878     		ldrb	r0, [r3]	@ zero_extendqisi2
 791:Generated_Source\PSoC5/I2C_MASTER.c **** }
 831              		.loc 1 791 0
 832 0004 7047     		bx	lr
 833              	.L107:
 834 0006 00BF     		.align	2
 835              	.L106:
 836 0008 00000000 		.word	I2C_mstrWrBufIndex
 837              		.cfi_endproc
 838              	.LFE10:
 839              		.size	I2C_MasterGetWriteBufSize, .-I2C_MasterGetWriteBufSize
 840              		.section	.text.I2C_MasterClearReadBuf,"ax",%progbits
 841              		.align	1
 842              		.global	I2C_MasterClearReadBuf
 843              		.thumb
 844              		.thumb_func
 845              		.type	I2C_MasterClearReadBuf, %function
 846              	I2C_MasterClearReadBuf:
 847              	.LFB11:
 792:Generated_Source\PSoC5/I2C_MASTER.c **** 
 793:Generated_Source\PSoC5/I2C_MASTER.c **** 
 794:Generated_Source\PSoC5/I2C_MASTER.c **** /*******************************************************************************
 795:Generated_Source\PSoC5/I2C_MASTER.c **** * Function Name: I2C_MasterClearReadBuf
 796:Generated_Source\PSoC5/I2C_MASTER.c **** ********************************************************************************
 797:Generated_Source\PSoC5/I2C_MASTER.c **** *
 798:Generated_Source\PSoC5/I2C_MASTER.c **** * Summary:
 799:Generated_Source\PSoC5/I2C_MASTER.c **** *  Resets the read buffer pointer back to the first byte in the buffer.
 800:Generated_Source\PSoC5/I2C_MASTER.c **** *
 801:Generated_Source\PSoC5/I2C_MASTER.c **** * Parameters:
 802:Generated_Source\PSoC5/I2C_MASTER.c **** *  None.
 803:Generated_Source\PSoC5/I2C_MASTER.c **** *
 804:Generated_Source\PSoC5/I2C_MASTER.c **** * Return:
 805:Generated_Source\PSoC5/I2C_MASTER.c **** *  None.
 806:Generated_Source\PSoC5/I2C_MASTER.c **** *
 807:Generated_Source\PSoC5/I2C_MASTER.c **** * Global variables:
 808:Generated_Source\PSoC5/I2C_MASTER.c **** *  I2C_mstrRdBufIndex - The global variable used to stores current
ARM GAS  C:\Users\chemi\AppData\Local\Temp\ccMxhiSI.s 			page 31


 809:Generated_Source\PSoC5/I2C_MASTER.c **** *                                    index within master read buffer.
 810:Generated_Source\PSoC5/I2C_MASTER.c **** *  I2C_mstrStatus - The global variable used to store a current
 811:Generated_Source\PSoC5/I2C_MASTER.c **** *                                status of the I2C Master.
 812:Generated_Source\PSoC5/I2C_MASTER.c **** *
 813:Generated_Source\PSoC5/I2C_MASTER.c **** * Reentrant:
 814:Generated_Source\PSoC5/I2C_MASTER.c **** *  No.
 815:Generated_Source\PSoC5/I2C_MASTER.c **** *
 816:Generated_Source\PSoC5/I2C_MASTER.c **** *******************************************************************************/
 817:Generated_Source\PSoC5/I2C_MASTER.c **** void I2C_MasterClearReadBuf(void) 
 818:Generated_Source\PSoC5/I2C_MASTER.c **** {
 848              		.loc 1 818 0
 849              		.cfi_startproc
 850              		@ args = 0, pretend = 0, frame = 0
 851              		@ frame_needed = 0, uses_anonymous_args = 0
 852              		@ link register save eliminated.
 819:Generated_Source\PSoC5/I2C_MASTER.c ****     I2C_DisableInt(); /* Lock from interrupt */
 853              		.loc 1 819 0
 854 0000 074B     		ldr	r3, .L109
 855 0002 4FF40042 		mov	r2, #32768
 856 0006 1A60     		str	r2, [r3]
 820:Generated_Source\PSoC5/I2C_MASTER.c **** 
 821:Generated_Source\PSoC5/I2C_MASTER.c ****     I2C_mstrRdBufIndex = 0u;
 857              		.loc 1 821 0
 858 0008 064B     		ldr	r3, .L109+4
 859 000a 0021     		movs	r1, #0
 860 000c 1970     		strb	r1, [r3]
 822:Generated_Source\PSoC5/I2C_MASTER.c ****     I2C_mstrStatus    &= (uint8) ~I2C_MSTAT_RD_CMPLT;
 861              		.loc 1 822 0
 862 000e 0649     		ldr	r1, .L109+8
 863 0010 0B78     		ldrb	r3, [r1]	@ zero_extendqisi2
 864 0012 03F0FE03 		and	r3, r3, #254
 865 0016 0B70     		strb	r3, [r1]
 823:Generated_Source\PSoC5/I2C_MASTER.c **** 
 824:Generated_Source\PSoC5/I2C_MASTER.c ****     I2C_EnableInt(); /* Release lock */
 866              		.loc 1 824 0
 867 0018 044B     		ldr	r3, .L109+12
 868 001a 1A60     		str	r2, [r3]
 869 001c 7047     		bx	lr
 870              	.L110:
 871 001e 00BF     		.align	2
 872              	.L109:
 873 0020 80E100E0 		.word	-536813184
 874 0024 00000000 		.word	I2C_mstrRdBufIndex
 875 0028 00000000 		.word	I2C_mstrStatus
 876 002c 00E100E0 		.word	-536813312
 877              		.cfi_endproc
 878              	.LFE11:
 879              		.size	I2C_MasterClearReadBuf, .-I2C_MasterClearReadBuf
 880              		.section	.text.I2C_MasterClearWriteBuf,"ax",%progbits
 881              		.align	1
 882              		.global	I2C_MasterClearWriteBuf
 883              		.thumb
 884              		.thumb_func
 885              		.type	I2C_MasterClearWriteBuf, %function
 886              	I2C_MasterClearWriteBuf:
 887              	.LFB12:
 825:Generated_Source\PSoC5/I2C_MASTER.c **** }
ARM GAS  C:\Users\chemi\AppData\Local\Temp\ccMxhiSI.s 			page 32


 826:Generated_Source\PSoC5/I2C_MASTER.c **** 
 827:Generated_Source\PSoC5/I2C_MASTER.c **** 
 828:Generated_Source\PSoC5/I2C_MASTER.c **** /*******************************************************************************
 829:Generated_Source\PSoC5/I2C_MASTER.c **** * Function Name: I2C_MasterClearWriteBuf
 830:Generated_Source\PSoC5/I2C_MASTER.c **** ********************************************************************************
 831:Generated_Source\PSoC5/I2C_MASTER.c **** *
 832:Generated_Source\PSoC5/I2C_MASTER.c **** * Summary:
 833:Generated_Source\PSoC5/I2C_MASTER.c **** *  Resets the write buffer pointer back to the first byte in the buffer.
 834:Generated_Source\PSoC5/I2C_MASTER.c **** *
 835:Generated_Source\PSoC5/I2C_MASTER.c **** * Parameters:
 836:Generated_Source\PSoC5/I2C_MASTER.c **** *  None.
 837:Generated_Source\PSoC5/I2C_MASTER.c **** *
 838:Generated_Source\PSoC5/I2C_MASTER.c **** * Return:
 839:Generated_Source\PSoC5/I2C_MASTER.c **** *  None.
 840:Generated_Source\PSoC5/I2C_MASTER.c **** *
 841:Generated_Source\PSoC5/I2C_MASTER.c **** * Global variables:
 842:Generated_Source\PSoC5/I2C_MASTER.c **** *  I2C_mstrRdBufIndex - The global variable used to stote current
 843:Generated_Source\PSoC5/I2C_MASTER.c **** *                                    index within master read buffer.
 844:Generated_Source\PSoC5/I2C_MASTER.c **** *  I2C_mstrStatus - The global variable used to store a current
 845:Generated_Source\PSoC5/I2C_MASTER.c **** *                                status of the I2C Master.
 846:Generated_Source\PSoC5/I2C_MASTER.c **** *
 847:Generated_Source\PSoC5/I2C_MASTER.c **** * Reentrant:
 848:Generated_Source\PSoC5/I2C_MASTER.c **** *  No.
 849:Generated_Source\PSoC5/I2C_MASTER.c **** *
 850:Generated_Source\PSoC5/I2C_MASTER.c **** *******************************************************************************/
 851:Generated_Source\PSoC5/I2C_MASTER.c **** void I2C_MasterClearWriteBuf(void) 
 852:Generated_Source\PSoC5/I2C_MASTER.c **** {
 888              		.loc 1 852 0
 889              		.cfi_startproc
 890              		@ args = 0, pretend = 0, frame = 0
 891              		@ frame_needed = 0, uses_anonymous_args = 0
 892              		@ link register save eliminated.
 853:Generated_Source\PSoC5/I2C_MASTER.c ****     I2C_DisableInt(); /* Lock from interrupt */
 893              		.loc 1 853 0
 894 0000 074B     		ldr	r3, .L112
 895 0002 4FF40042 		mov	r2, #32768
 896 0006 1A60     		str	r2, [r3]
 854:Generated_Source\PSoC5/I2C_MASTER.c **** 
 855:Generated_Source\PSoC5/I2C_MASTER.c ****     I2C_mstrWrBufIndex = 0u;
 897              		.loc 1 855 0
 898 0008 064B     		ldr	r3, .L112+4
 899 000a 0021     		movs	r1, #0
 900 000c 1970     		strb	r1, [r3]
 856:Generated_Source\PSoC5/I2C_MASTER.c ****     I2C_mstrStatus    &= (uint8) ~I2C_MSTAT_WR_CMPLT;
 901              		.loc 1 856 0
 902 000e 0649     		ldr	r1, .L112+8
 903 0010 0B78     		ldrb	r3, [r1]	@ zero_extendqisi2
 904 0012 03F0FD03 		and	r3, r3, #253
 905 0016 0B70     		strb	r3, [r1]
 857:Generated_Source\PSoC5/I2C_MASTER.c **** 
 858:Generated_Source\PSoC5/I2C_MASTER.c ****     I2C_EnableInt(); /* Release lock */
 906              		.loc 1 858 0
 907 0018 044B     		ldr	r3, .L112+12
 908 001a 1A60     		str	r2, [r3]
 909 001c 7047     		bx	lr
 910              	.L113:
 911 001e 00BF     		.align	2
ARM GAS  C:\Users\chemi\AppData\Local\Temp\ccMxhiSI.s 			page 33


 912              	.L112:
 913 0020 80E100E0 		.word	-536813184
 914 0024 00000000 		.word	I2C_mstrWrBufIndex
 915 0028 00000000 		.word	I2C_mstrStatus
 916 002c 00E100E0 		.word	-536813312
 917              		.cfi_endproc
 918              	.LFE12:
 919              		.size	I2C_MasterClearWriteBuf, .-I2C_MasterClearWriteBuf
 920              		.comm	I2C_mstrWrBufIndex,1,1
 921              		.comm	I2C_mstrWrBufSize,1,1
 922              		.comm	I2C_mstrWrBufPtr,4,4
 923              		.comm	I2C_mstrRdBufIndex,1,1
 924              		.comm	I2C_mstrRdBufSize,1,1
 925              		.comm	I2C_mstrRdBufPtr,4,4
 926              		.comm	I2C_mstrControl,1,1
 927              		.comm	I2C_mstrStatus,1,1
 928              		.text
 929              	.Letext0:
 930              		.file 2 "Generated_Source\\PSoC5\\cytypes.h"
 931              		.file 3 "Generated_Source\\PSoC5\\I2C_PVT.h"