ARM GAS  C:\Users\chemi\AppData\Local\Temp\ccLFLt0b.s 			page 1


   1              		.syntax unified
   2              		.cpu cortex-m3
   3              		.fpu softvfp
   4              		.eabi_attribute 20, 1
   5              		.eabi_attribute 21, 1
   6              		.eabi_attribute 23, 3
   7              		.eabi_attribute 24, 1
   8              		.eabi_attribute 25, 1
   9              		.eabi_attribute 26, 1
  10              		.eabi_attribute 30, 4
  11              		.eabi_attribute 34, 1
  12              		.eabi_attribute 18, 4
  13              		.thumb
  14              		.syntax unified
  15              		.file	"i2c_helper.c"
  16              		.text
  17              	.Ltext0:
  18              		.cfi_sections	.debug_frame
  19              		.section	.text.I2C_Write,"ax",%progbits
  20              		.align	1
  21              		.global	I2C_Write
  22              		.thumb
  23              		.thumb_func
  24              		.type	I2C_Write, %function
  25              	I2C_Write:
  26              	.LFB68:
  27              		.file 1 "..\\common\\ud3core\\helper\\i2c_helper.c"
   1:..\common\ud3core\helper/i2c_helper.c **** /*
   2:..\common\ud3core\helper/i2c_helper.c ****  * UD3
   3:..\common\ud3core\helper/i2c_helper.c ****  *
   4:..\common\ud3core\helper/i2c_helper.c ****  * Copyright (c) 2018 Jens Kerrinnes
   5:..\common\ud3core\helper/i2c_helper.c ****  * Copyright (c) 2015 Steve Ward
   6:..\common\ud3core\helper/i2c_helper.c ****  *
   7:..\common\ud3core\helper/i2c_helper.c ****  * Permission is hereby granted, free of charge, to any person obtaining a copy of
   8:..\common\ud3core\helper/i2c_helper.c ****  * this software and associated documentation files (the "Software"), to deal in
   9:..\common\ud3core\helper/i2c_helper.c ****  * the Software without restriction, including without limitation the rights to
  10:..\common\ud3core\helper/i2c_helper.c ****  * use, copy, modify, merge, publish, distribute, sublicense, and/or sell copies of
  11:..\common\ud3core\helper/i2c_helper.c ****  * the Software, and to permit persons to whom the Software is furnished to do so,
  12:..\common\ud3core\helper/i2c_helper.c ****  * subject to the following conditions:
  13:..\common\ud3core\helper/i2c_helper.c ****  *
  14:..\common\ud3core\helper/i2c_helper.c ****  * The above copyright notice and this permission notice shall be included in all
  15:..\common\ud3core\helper/i2c_helper.c ****  * copies or substantial portions of the Software.
  16:..\common\ud3core\helper/i2c_helper.c ****  *
  17:..\common\ud3core\helper/i2c_helper.c ****  * THE SOFTWARE IS PROVIDED "AS IS", WITHOUT WARRANTY OF ANY KIND, EXPRESS OR
  18:..\common\ud3core\helper/i2c_helper.c ****  * IMPLIED, INCLUDING BUT NOT LIMITED TO THE WARRANTIES OF MERCHANTABILITY, FITNESS
  19:..\common\ud3core\helper/i2c_helper.c ****  * FOR A PARTICULAR PURPOSE AND NONINFRINGEMENT. IN NO EVENT SHALL THE AUTHORS OR
  20:..\common\ud3core\helper/i2c_helper.c ****  * COPYRIGHT HOLDERS BE LIABLE FOR ANY CLAIM, DAMAGES OR OTHER LIABILITY, WHETHER
  21:..\common\ud3core\helper/i2c_helper.c ****  * IN AN ACTION OF CONTRACT, TORT OR OTHERWISE, ARISING FROM, OUT OF OR IN
  22:..\common\ud3core\helper/i2c_helper.c ****  * CONNECTION WITH THE SOFTWARE OR THE USE OR OTHER DEALINGS IN THE SOFTWARE.
  23:..\common\ud3core\helper/i2c_helper.c **** */
  24:..\common\ud3core\helper/i2c_helper.c **** 
  25:..\common\ud3core\helper/i2c_helper.c **** #include "i2c_helper.h"
  26:..\common\ud3core\helper/i2c_helper.c **** #include <device.h>
  27:..\common\ud3core\helper/i2c_helper.c **** #include "FreeRTOS.h"
  28:..\common\ud3core\helper/i2c_helper.c **** #include "task.h"
  29:..\common\ud3core\helper/i2c_helper.c **** 
  30:..\common\ud3core\helper/i2c_helper.c **** void I2C_Write(uint8_t address, uint8_t registerAddress, uint8_t data){
ARM GAS  C:\Users\chemi\AppData\Local\Temp\ccLFLt0b.s 			page 2


  28              		.loc 1 30 0
  29              		.cfi_startproc
  30              		@ args = 0, pretend = 0, frame = 0
  31              		@ frame_needed = 0, uses_anonymous_args = 0
  32              	.LVL0:
  33 0000 38B5     		push	{r3, r4, r5, lr}
  34              		.cfi_def_cfa_offset 16
  35              		.cfi_offset 3, -16
  36              		.cfi_offset 4, -12
  37              		.cfi_offset 5, -8
  38              		.cfi_offset 14, -4
  39              		.loc 1 30 0
  40 0002 0D46     		mov	r5, r1
  41 0004 1446     		mov	r4, r2
  31:..\common\ud3core\helper/i2c_helper.c ****     I2C_MasterSendStart(address,I2C_WRITE_XFER_MODE);
  42              		.loc 1 31 0
  43 0006 0021     		movs	r1, #0
  44              	.LVL1:
  45 0008 FFF7FEFF 		bl	I2C_MasterSendStart
  46              	.LVL2:
  32:..\common\ud3core\helper/i2c_helper.c ****     I2C_MasterWriteByte(registerAddress);
  47              		.loc 1 32 0
  48 000c 2846     		mov	r0, r5
  49 000e FFF7FEFF 		bl	I2C_MasterWriteByte
  50              	.LVL3:
  33:..\common\ud3core\helper/i2c_helper.c ****     I2C_MasterWriteByte(data);
  51              		.loc 1 33 0
  52 0012 2046     		mov	r0, r4
  53 0014 FFF7FEFF 		bl	I2C_MasterWriteByte
  54              	.LVL4:
  34:..\common\ud3core\helper/i2c_helper.c ****     I2C_MasterSendStop();
  35:..\common\ud3core\helper/i2c_helper.c ****     
  36:..\common\ud3core\helper/i2c_helper.c **** }
  55              		.loc 1 36 0
  56 0018 BDE83840 		pop	{r3, r4, r5, lr}
  57              		.cfi_restore 14
  58              		.cfi_restore 5
  59              		.cfi_restore 4
  60              		.cfi_restore 3
  61              		.cfi_def_cfa_offset 0
  34:..\common\ud3core\helper/i2c_helper.c ****     I2C_MasterSendStop();
  62              		.loc 1 34 0
  63 001c FFF7FEBF 		b	I2C_MasterSendStop
  64              	.LVL5:
  65              		.cfi_endproc
  66              	.LFE68:
  67              		.size	I2C_Write, .-I2C_Write
  68              		.section	.text.I2C_Read,"ax",%progbits
  69              		.align	1
  70              		.global	I2C_Read
  71              		.thumb
  72              		.thumb_func
  73              		.type	I2C_Read, %function
  74              	I2C_Read:
  75              	.LFB69:
  37:..\common\ud3core\helper/i2c_helper.c **** 
  38:..\common\ud3core\helper/i2c_helper.c **** uint8_t I2C_Read(uint8_t address, uint8_t registerAddress){
ARM GAS  C:\Users\chemi\AppData\Local\Temp\ccLFLt0b.s 			page 3


  76              		.loc 1 38 0
  77              		.cfi_startproc
  78              		@ args = 0, pretend = 0, frame = 0
  79              		@ frame_needed = 0, uses_anonymous_args = 0
  80              	.LVL6:
  81 0000 38B5     		push	{r3, r4, r5, lr}
  82              		.cfi_def_cfa_offset 16
  83              		.cfi_offset 3, -16
  84              		.cfi_offset 4, -12
  85              		.cfi_offset 5, -8
  86              		.cfi_offset 14, -4
  87              		.loc 1 38 0
  88 0002 0D46     		mov	r5, r1
  89 0004 0446     		mov	r4, r0
  39:..\common\ud3core\helper/i2c_helper.c ****     uint8_t ret;
  40:..\common\ud3core\helper/i2c_helper.c ****     I2C_MasterSendStart(address,I2C_WRITE_XFER_MODE);
  90              		.loc 1 40 0
  91 0006 0021     		movs	r1, #0
  92              	.LVL7:
  93 0008 FFF7FEFF 		bl	I2C_MasterSendStart
  94              	.LVL8:
  41:..\common\ud3core\helper/i2c_helper.c ****     I2C_MasterWriteByte(registerAddress);
  95              		.loc 1 41 0
  96 000c 2846     		mov	r0, r5
  97 000e FFF7FEFF 		bl	I2C_MasterWriteByte
  98              	.LVL9:
  42:..\common\ud3core\helper/i2c_helper.c ****     I2C_MasterSendRestart(address,I2C_READ_XFER_MODE);
  99              		.loc 1 42 0
 100 0012 0121     		movs	r1, #1
 101 0014 2046     		mov	r0, r4
 102 0016 FFF7FEFF 		bl	I2C_MasterSendRestart
 103              	.LVL10:
  43:..\common\ud3core\helper/i2c_helper.c ****     ret = I2C_MasterReadByte(I2C_NAK_DATA);
 104              		.loc 1 43 0
 105 001a 0020     		movs	r0, #0
 106 001c FFF7FEFF 		bl	I2C_MasterReadByte
 107              	.LVL11:
 108 0020 0446     		mov	r4, r0
 109              	.LVL12:
  44:..\common\ud3core\helper/i2c_helper.c ****     I2C_MasterSendStop();
 110              		.loc 1 44 0
 111 0022 FFF7FEFF 		bl	I2C_MasterSendStop
 112              	.LVL13:
  45:..\common\ud3core\helper/i2c_helper.c ****     return ret; 
  46:..\common\ud3core\helper/i2c_helper.c **** }
 113              		.loc 1 46 0
 114 0026 2046     		mov	r0, r4
 115 0028 38BD     		pop	{r3, r4, r5, pc}
 116              		.cfi_endproc
 117              	.LFE69:
 118              		.size	I2C_Read, .-I2C_Read
 119              		.section	.text.I2C_Write_Blk,"ax",%progbits
 120              		.align	1
 121              		.global	I2C_Write_Blk
 122              		.thumb
 123              		.thumb_func
 124              		.type	I2C_Write_Blk, %function
ARM GAS  C:\Users\chemi\AppData\Local\Temp\ccLFLt0b.s 			page 4


 125              	I2C_Write_Blk:
 126              	.LFB70:
  47:..\common\ud3core\helper/i2c_helper.c **** 
  48:..\common\ud3core\helper/i2c_helper.c **** void I2C_Write_Blk(uint8_t address, uint8_t * buffer, uint8_t cnt){
 127              		.loc 1 48 0
 128              		.cfi_startproc
 129              		@ args = 0, pretend = 0, frame = 0
 130              		@ frame_needed = 0, uses_anonymous_args = 0
 131              	.LVL14:
 132 0000 70B5     		push	{r4, r5, r6, lr}
 133              		.cfi_def_cfa_offset 16
 134              		.cfi_offset 4, -16
 135              		.cfi_offset 5, -12
 136              		.cfi_offset 6, -8
 137              		.cfi_offset 14, -4
 138              		.loc 1 48 0
 139 0002 0446     		mov	r4, r0
 140 0004 0D46     		mov	r5, r1
 141 0006 1646     		mov	r6, r2
  49:..\common\ud3core\helper/i2c_helper.c ****     I2C_MasterClearStatus();
 142              		.loc 1 49 0
 143 0008 FFF7FEFF 		bl	I2C_MasterClearStatus
 144              	.LVL15:
  50:..\common\ud3core\helper/i2c_helper.c ****     I2C_MasterWriteBuf(address,buffer,cnt,I2C_MODE_COMPLETE_XFER);
 145              		.loc 1 50 0
 146 000c 0023     		movs	r3, #0
 147 000e 3246     		mov	r2, r6
 148 0010 2946     		mov	r1, r5
 149 0012 2046     		mov	r0, r4
 150 0014 FFF7FEFF 		bl	I2C_MasterWriteBuf
 151              	.LVL16:
 152              	.L4:
  51:..\common\ud3core\helper/i2c_helper.c ****     while(!(I2C_MasterStatus() & I2C_MSTAT_WR_CMPLT)){
 153              		.loc 1 51 0
 154 0018 FFF7FEFF 		bl	I2C_MasterStatus
 155              	.LVL17:
 156 001c 8307     		lsls	r3, r0, #30
 157 001e 03D4     		bmi	.L7
  52:..\common\ud3core\helper/i2c_helper.c ****         vTaskDelay(1);   
 158              		.loc 1 52 0
 159 0020 0120     		movs	r0, #1
 160 0022 FFF7FEFF 		bl	vTaskDelay
 161              	.LVL18:
 162 0026 F7E7     		b	.L4
 163              	.L7:
  53:..\common\ud3core\helper/i2c_helper.c ****     }
  54:..\common\ud3core\helper/i2c_helper.c **** }
 164              		.loc 1 54 0
 165 0028 70BD     		pop	{r4, r5, r6, pc}
 166              		.cfi_endproc
 167              	.LFE70:
 168              		.size	I2C_Write_Blk, .-I2C_Write_Blk
 169              		.section	.text.I2C_Write_nBlk,"ax",%progbits
 170              		.align	1
 171              		.global	I2C_Write_nBlk
 172              		.thumb
 173              		.thumb_func
ARM GAS  C:\Users\chemi\AppData\Local\Temp\ccLFLt0b.s 			page 5


 174              		.type	I2C_Write_nBlk, %function
 175              	I2C_Write_nBlk:
 176              	.LFB71:
  55:..\common\ud3core\helper/i2c_helper.c **** 
  56:..\common\ud3core\helper/i2c_helper.c **** void I2C_Write_nBlk(uint8_t address, uint8_t * buffer, uint8_t cnt){
 177              		.loc 1 56 0
 178              		.cfi_startproc
 179              		@ args = 0, pretend = 0, frame = 0
 180              		@ frame_needed = 0, uses_anonymous_args = 0
 181              	.LVL19:
 182 0000 70B5     		push	{r4, r5, r6, lr}
 183              		.cfi_def_cfa_offset 16
 184              		.cfi_offset 4, -16
 185              		.cfi_offset 5, -12
 186              		.cfi_offset 6, -8
 187              		.cfi_offset 14, -4
 188              		.loc 1 56 0
 189 0002 0446     		mov	r4, r0
 190 0004 0D46     		mov	r5, r1
 191 0006 1646     		mov	r6, r2
  57:..\common\ud3core\helper/i2c_helper.c ****     I2C_MasterClearStatus();
 192              		.loc 1 57 0
 193 0008 FFF7FEFF 		bl	I2C_MasterClearStatus
 194              	.LVL20:
  58:..\common\ud3core\helper/i2c_helper.c ****     I2C_MasterWriteBuf(address,buffer,cnt,I2C_MODE_COMPLETE_XFER);
 195              		.loc 1 58 0
 196 000c 3246     		mov	r2, r6
 197 000e 2946     		mov	r1, r5
 198 0010 2046     		mov	r0, r4
  59:..\common\ud3core\helper/i2c_helper.c **** }...
 199              		.loc 1 59 0
 200 0012 BDE87040 		pop	{r4, r5, r6, lr}
 201              		.cfi_restore 14
 202              		.cfi_restore 6
 203              		.cfi_restore 5
 204              		.cfi_restore 4
 205              		.cfi_def_cfa_offset 0
 206              	.LVL21:
  58:..\common\ud3core\helper/i2c_helper.c ****     I2C_MasterWriteBuf(address,buffer,cnt,I2C_MODE_COMPLETE_XFER);
 207              		.loc 1 58 0
 208 0016 0023     		movs	r3, #0
 209 0018 FFF7FEBF 		b	I2C_MasterWriteBuf
 210              	.LVL22:
 211              		.cfi_endproc
 212              	.LFE71:
 213              		.size	I2C_Write_nBlk, .-I2C_Write_nBlk
 214              		.text
 215              	.Letext0:
 216              		.file 2 "c:\\program files (x86)\\cypress\\psoc creator\\4.4\\psoc creator\\import\\gnu\\arm\\5.4.
 217              		.file 3 "c:\\program files (x86)\\cypress\\psoc creator\\4.4\\psoc creator\\import\\gnu\\arm\\5.4.
 218              		.file 4 "Generated_Source\\PSoC5/I2C.h"
 219              		.file 5 "..\\common\\rtos\\include/task.h"
 220              		.file 6 "Generated_Source\\PSoC5/core_cm3.h"