ARM GAS  C:\Users\chemi\AppData\Local\Temp\ccYwbN9C.s 			page 1


   1              		.syntax unified
   2              		.cpu cortex-m3
   3              		.fpu softvfp
   4              		.eabi_attribute 20, 1
   5              		.eabi_attribute 21, 1
   6              		.eabi_attribute 23, 3
   7              		.eabi_attribute 24, 1
   8              		.eabi_attribute 25, 1
   9              		.eabi_attribute 26, 1
  10              		.eabi_attribute 30, 4
  11              		.eabi_attribute 34, 1
  12              		.eabi_attribute 18, 4
  13              		.thumb
  14              		.syntax unified
  15              		.file	"interrupter1_PM.c"
  16              		.text
  17              	.Ltext0:
  18              		.cfi_sections	.debug_frame
  19              		.section	.text.interrupter1_SaveConfig,"ax",%progbits
  20              		.align	1
  21              		.global	interrupter1_SaveConfig
  22              		.thumb
  23              		.thumb_func
  24              		.type	interrupter1_SaveConfig, %function
  25              	interrupter1_SaveConfig:
  26              	.LFB0:
  27              		.file 1 "Generated_Source\\PSoC5\\interrupter1_PM.c"
   1:Generated_Source\PSoC5/interrupter1_PM.c **** /*******************************************************************************
   2:Generated_Source\PSoC5/interrupter1_PM.c **** * File Name: interrupter1_PM.c
   3:Generated_Source\PSoC5/interrupter1_PM.c **** * Version 3.30
   4:Generated_Source\PSoC5/interrupter1_PM.c **** *
   5:Generated_Source\PSoC5/interrupter1_PM.c **** * Description:
   6:Generated_Source\PSoC5/interrupter1_PM.c **** *  This file provides the power management source code to API for the
   7:Generated_Source\PSoC5/interrupter1_PM.c **** *  PWM.
   8:Generated_Source\PSoC5/interrupter1_PM.c **** *
   9:Generated_Source\PSoC5/interrupter1_PM.c **** * Note:
  10:Generated_Source\PSoC5/interrupter1_PM.c **** *
  11:Generated_Source\PSoC5/interrupter1_PM.c **** ********************************************************************************
  12:Generated_Source\PSoC5/interrupter1_PM.c **** * Copyright 2008-2014, Cypress Semiconductor Corporation.  All rights reserved.
  13:Generated_Source\PSoC5/interrupter1_PM.c **** * You may use this file only in accordance with the license, terms, conditions,
  14:Generated_Source\PSoC5/interrupter1_PM.c **** * disclaimers, and limitations in the end user license agreement accompanying
  15:Generated_Source\PSoC5/interrupter1_PM.c **** * the software package with which this file was provided.
  16:Generated_Source\PSoC5/interrupter1_PM.c **** *******************************************************************************/
  17:Generated_Source\PSoC5/interrupter1_PM.c **** 
  18:Generated_Source\PSoC5/interrupter1_PM.c **** #include "interrupter1.h"
  19:Generated_Source\PSoC5/interrupter1_PM.c **** 
  20:Generated_Source\PSoC5/interrupter1_PM.c **** static interrupter1_backupStruct interrupter1_backup;
  21:Generated_Source\PSoC5/interrupter1_PM.c **** 
  22:Generated_Source\PSoC5/interrupter1_PM.c **** 
  23:Generated_Source\PSoC5/interrupter1_PM.c **** /*******************************************************************************
  24:Generated_Source\PSoC5/interrupter1_PM.c **** * Function Name: interrupter1_SaveConfig
  25:Generated_Source\PSoC5/interrupter1_PM.c **** ********************************************************************************
  26:Generated_Source\PSoC5/interrupter1_PM.c **** *
  27:Generated_Source\PSoC5/interrupter1_PM.c **** * Summary:
  28:Generated_Source\PSoC5/interrupter1_PM.c **** *  Saves the current user configuration of the component.
  29:Generated_Source\PSoC5/interrupter1_PM.c **** *
  30:Generated_Source\PSoC5/interrupter1_PM.c **** * Parameters:
ARM GAS  C:\Users\chemi\AppData\Local\Temp\ccYwbN9C.s 			page 2


  31:Generated_Source\PSoC5/interrupter1_PM.c **** *  None
  32:Generated_Source\PSoC5/interrupter1_PM.c **** *
  33:Generated_Source\PSoC5/interrupter1_PM.c **** * Return:
  34:Generated_Source\PSoC5/interrupter1_PM.c **** *  None
  35:Generated_Source\PSoC5/interrupter1_PM.c **** *
  36:Generated_Source\PSoC5/interrupter1_PM.c **** * Global variables:
  37:Generated_Source\PSoC5/interrupter1_PM.c **** *  interrupter1_backup:  Variables of this global structure are modified to
  38:Generated_Source\PSoC5/interrupter1_PM.c **** *  store the values of non retention configuration registers when Sleep() API is
  39:Generated_Source\PSoC5/interrupter1_PM.c **** *  called.
  40:Generated_Source\PSoC5/interrupter1_PM.c **** *
  41:Generated_Source\PSoC5/interrupter1_PM.c **** *******************************************************************************/
  42:Generated_Source\PSoC5/interrupter1_PM.c **** void interrupter1_SaveConfig(void) 
  43:Generated_Source\PSoC5/interrupter1_PM.c **** {
  28              		.loc 1 43 0
  29              		.cfi_startproc
  30              		@ args = 0, pretend = 0, frame = 0
  31              		@ frame_needed = 0, uses_anonymous_args = 0
  32 0000 10B5     		push	{r4, lr}
  33              		.cfi_def_cfa_offset 8
  34              		.cfi_offset 4, -8
  35              		.cfi_offset 14, -4
  44:Generated_Source\PSoC5/interrupter1_PM.c **** 
  45:Generated_Source\PSoC5/interrupter1_PM.c ****     #if(!interrupter1_UsingFixedFunction)
  46:Generated_Source\PSoC5/interrupter1_PM.c ****         #if(!interrupter1_PWMModeIsCenterAligned)
  47:Generated_Source\PSoC5/interrupter1_PM.c ****             interrupter1_backup.PWMPeriod = interrupter1_ReadPeriod();
  36              		.loc 1 47 0
  37 0002 FFF7FEFF 		bl	interrupter1_ReadPeriod
  38              	.LVL0:
  39 0006 044C     		ldr	r4, .L2
  40 0008 A080     		strh	r0, [r4, #4]	@ movhi
  48:Generated_Source\PSoC5/interrupter1_PM.c ****         #endif /* (!interrupter1_PWMModeIsCenterAligned) */
  49:Generated_Source\PSoC5/interrupter1_PM.c ****         interrupter1_backup.PWMUdb = interrupter1_ReadCounter();
  41              		.loc 1 49 0
  42 000a FFF7FEFF 		bl	interrupter1_ReadCounter
  43              	.LVL1:
  44 000e 6080     		strh	r0, [r4, #2]	@ movhi
  50:Generated_Source\PSoC5/interrupter1_PM.c ****         #if (interrupter1_UseStatus)
  51:Generated_Source\PSoC5/interrupter1_PM.c ****             interrupter1_backup.InterruptMaskValue = interrupter1_STATUS_MASK;
  52:Generated_Source\PSoC5/interrupter1_PM.c ****         #endif /* (interrupter1_UseStatus) */
  53:Generated_Source\PSoC5/interrupter1_PM.c **** 
  54:Generated_Source\PSoC5/interrupter1_PM.c ****         #if(interrupter1_DeadBandMode == interrupter1__B_PWM__DBM_256_CLOCKS || \
  55:Generated_Source\PSoC5/interrupter1_PM.c ****             interrupter1_DeadBandMode == interrupter1__B_PWM__DBM_2_4_CLOCKS)
  56:Generated_Source\PSoC5/interrupter1_PM.c ****             interrupter1_backup.PWMdeadBandValue = interrupter1_ReadDeadTime();
  57:Generated_Source\PSoC5/interrupter1_PM.c ****         #endif /*  deadband count is either 2-4 clocks or 256 clocks */
  58:Generated_Source\PSoC5/interrupter1_PM.c **** 
  59:Generated_Source\PSoC5/interrupter1_PM.c ****         #if(interrupter1_KillModeMinTime)
  60:Generated_Source\PSoC5/interrupter1_PM.c ****              interrupter1_backup.PWMKillCounterPeriod = interrupter1_ReadKillTime();
  61:Generated_Source\PSoC5/interrupter1_PM.c ****         #endif /* (interrupter1_KillModeMinTime) */
  62:Generated_Source\PSoC5/interrupter1_PM.c **** 
  63:Generated_Source\PSoC5/interrupter1_PM.c ****         #if(interrupter1_UseControl)
  64:Generated_Source\PSoC5/interrupter1_PM.c ****             interrupter1_backup.PWMControlRegister = interrupter1_ReadControlRegister();
  45              		.loc 1 64 0
  46 0010 FFF7FEFF 		bl	interrupter1_ReadControlRegister
  47              	.LVL2:
  48 0014 A071     		strb	r0, [r4, #6]
  49 0016 10BD     		pop	{r4, pc}
  50              	.L3:
ARM GAS  C:\Users\chemi\AppData\Local\Temp\ccYwbN9C.s 			page 3


  51              		.align	2
  52              	.L2:
  53 0018 00000000 		.word	.LANCHOR0
  54              		.cfi_endproc
  55              	.LFE0:
  56              		.size	interrupter1_SaveConfig, .-interrupter1_SaveConfig
  57              		.section	.text.interrupter1_RestoreConfig,"ax",%progbits
  58              		.align	1
  59              		.global	interrupter1_RestoreConfig
  60              		.thumb
  61              		.thumb_func
  62              		.type	interrupter1_RestoreConfig, %function
  63              	interrupter1_RestoreConfig:
  64              	.LFB1:
  65:Generated_Source\PSoC5/interrupter1_PM.c ****         #endif /* (interrupter1_UseControl) */
  66:Generated_Source\PSoC5/interrupter1_PM.c ****     #endif  /* (!interrupter1_UsingFixedFunction) */
  67:Generated_Source\PSoC5/interrupter1_PM.c **** }
  68:Generated_Source\PSoC5/interrupter1_PM.c **** 
  69:Generated_Source\PSoC5/interrupter1_PM.c **** 
  70:Generated_Source\PSoC5/interrupter1_PM.c **** /*******************************************************************************
  71:Generated_Source\PSoC5/interrupter1_PM.c **** * Function Name: interrupter1_RestoreConfig
  72:Generated_Source\PSoC5/interrupter1_PM.c **** ********************************************************************************
  73:Generated_Source\PSoC5/interrupter1_PM.c **** *
  74:Generated_Source\PSoC5/interrupter1_PM.c **** * Summary:
  75:Generated_Source\PSoC5/interrupter1_PM.c **** *  Restores the current user configuration of the component.
  76:Generated_Source\PSoC5/interrupter1_PM.c **** *
  77:Generated_Source\PSoC5/interrupter1_PM.c **** * Parameters:
  78:Generated_Source\PSoC5/interrupter1_PM.c **** *  None
  79:Generated_Source\PSoC5/interrupter1_PM.c **** *
  80:Generated_Source\PSoC5/interrupter1_PM.c **** * Return:
  81:Generated_Source\PSoC5/interrupter1_PM.c **** *  None
  82:Generated_Source\PSoC5/interrupter1_PM.c **** *
  83:Generated_Source\PSoC5/interrupter1_PM.c **** * Global variables:
  84:Generated_Source\PSoC5/interrupter1_PM.c **** *  interrupter1_backup:  Variables of this global structure are used to
  85:Generated_Source\PSoC5/interrupter1_PM.c **** *  restore the values of non retention registers on wakeup from sleep mode.
  86:Generated_Source\PSoC5/interrupter1_PM.c **** *
  87:Generated_Source\PSoC5/interrupter1_PM.c **** *******************************************************************************/
  88:Generated_Source\PSoC5/interrupter1_PM.c **** void interrupter1_RestoreConfig(void) 
  89:Generated_Source\PSoC5/interrupter1_PM.c **** {
  65              		.loc 1 89 0
  66              		.cfi_startproc
  67              		@ args = 0, pretend = 0, frame = 0
  68              		@ frame_needed = 0, uses_anonymous_args = 0
  69 0000 10B5     		push	{r4, lr}
  70              		.cfi_def_cfa_offset 8
  71              		.cfi_offset 4, -8
  72              		.cfi_offset 14, -4
  90:Generated_Source\PSoC5/interrupter1_PM.c ****         #if(!interrupter1_UsingFixedFunction)
  91:Generated_Source\PSoC5/interrupter1_PM.c ****             #if(!interrupter1_PWMModeIsCenterAligned)
  92:Generated_Source\PSoC5/interrupter1_PM.c ****                 interrupter1_WritePeriod(interrupter1_backup.PWMPeriod);
  73              		.loc 1 92 0
  74 0002 064C     		ldr	r4, .L5
  75 0004 A088     		ldrh	r0, [r4, #4]
  76 0006 FFF7FEFF 		bl	interrupter1_WritePeriod
  77              	.LVL3:
  93:Generated_Source\PSoC5/interrupter1_PM.c ****             #endif /* (!interrupter1_PWMModeIsCenterAligned) */
  94:Generated_Source\PSoC5/interrupter1_PM.c **** 
ARM GAS  C:\Users\chemi\AppData\Local\Temp\ccYwbN9C.s 			page 4


  95:Generated_Source\PSoC5/interrupter1_PM.c ****             interrupter1_WriteCounter(interrupter1_backup.PWMUdb);
  78              		.loc 1 95 0
  79 000a 6088     		ldrh	r0, [r4, #2]
  80 000c FFF7FEFF 		bl	interrupter1_WriteCounter
  81              	.LVL4:
  96:Generated_Source\PSoC5/interrupter1_PM.c **** 
  97:Generated_Source\PSoC5/interrupter1_PM.c ****             #if (interrupter1_UseStatus)
  98:Generated_Source\PSoC5/interrupter1_PM.c ****                 interrupter1_STATUS_MASK = interrupter1_backup.InterruptMaskValue;
  99:Generated_Source\PSoC5/interrupter1_PM.c ****             #endif /* (interrupter1_UseStatus) */
 100:Generated_Source\PSoC5/interrupter1_PM.c **** 
 101:Generated_Source\PSoC5/interrupter1_PM.c ****             #if(interrupter1_DeadBandMode == interrupter1__B_PWM__DBM_256_CLOCKS || \
 102:Generated_Source\PSoC5/interrupter1_PM.c ****                 interrupter1_DeadBandMode == interrupter1__B_PWM__DBM_2_4_CLOCKS)
 103:Generated_Source\PSoC5/interrupter1_PM.c ****                 interrupter1_WriteDeadTime(interrupter1_backup.PWMdeadBandValue);
 104:Generated_Source\PSoC5/interrupter1_PM.c ****             #endif /* deadband count is either 2-4 clocks or 256 clocks */
 105:Generated_Source\PSoC5/interrupter1_PM.c **** 
 106:Generated_Source\PSoC5/interrupter1_PM.c ****             #if(interrupter1_KillModeMinTime)
 107:Generated_Source\PSoC5/interrupter1_PM.c ****                 interrupter1_WriteKillTime(interrupter1_backup.PWMKillCounterPeriod);
 108:Generated_Source\PSoC5/interrupter1_PM.c ****             #endif /* (interrupter1_KillModeMinTime) */
 109:Generated_Source\PSoC5/interrupter1_PM.c **** 
 110:Generated_Source\PSoC5/interrupter1_PM.c ****             #if(interrupter1_UseControl)
 111:Generated_Source\PSoC5/interrupter1_PM.c ****                 interrupter1_WriteControlRegister(interrupter1_backup.PWMControlRegister);
  82              		.loc 1 111 0
  83 0010 A079     		ldrb	r0, [r4, #6]	@ zero_extendqisi2
 112:Generated_Source\PSoC5/interrupter1_PM.c ****             #endif /* (interrupter1_UseControl) */
 113:Generated_Source\PSoC5/interrupter1_PM.c ****         #endif  /* (!interrupter1_UsingFixedFunction) */
 114:Generated_Source\PSoC5/interrupter1_PM.c ****     }
  84              		.loc 1 114 0
  85 0012 BDE81040 		pop	{r4, lr}
  86              		.cfi_restore 14
  87              		.cfi_restore 4
  88              		.cfi_def_cfa_offset 0
 111:Generated_Source\PSoC5/interrupter1_PM.c ****             #endif /* (interrupter1_UseControl) */
  89              		.loc 1 111 0
  90 0016 FFF7FEBF 		b	interrupter1_WriteControlRegister
  91              	.LVL5:
  92              	.L6:
  93 001a 00BF     		.align	2
  94              	.L5:
  95 001c 00000000 		.word	.LANCHOR0
  96              		.cfi_endproc
  97              	.LFE1:
  98              		.size	interrupter1_RestoreConfig, .-interrupter1_RestoreConfig
  99              		.section	.text.interrupter1_Sleep,"ax",%progbits
 100              		.align	1
 101              		.global	interrupter1_Sleep
 102              		.thumb
 103              		.thumb_func
 104              		.type	interrupter1_Sleep, %function
 105              	interrupter1_Sleep:
 106              	.LFB2:
 115:Generated_Source\PSoC5/interrupter1_PM.c **** 
 116:Generated_Source\PSoC5/interrupter1_PM.c **** 
 117:Generated_Source\PSoC5/interrupter1_PM.c **** /*******************************************************************************
 118:Generated_Source\PSoC5/interrupter1_PM.c **** * Function Name: interrupter1_Sleep
 119:Generated_Source\PSoC5/interrupter1_PM.c **** ********************************************************************************
 120:Generated_Source\PSoC5/interrupter1_PM.c **** *
 121:Generated_Source\PSoC5/interrupter1_PM.c **** * Summary:
ARM GAS  C:\Users\chemi\AppData\Local\Temp\ccYwbN9C.s 			page 5


 122:Generated_Source\PSoC5/interrupter1_PM.c **** *  Disables block's operation and saves the user configuration. Should be called
 123:Generated_Source\PSoC5/interrupter1_PM.c **** *  just prior to entering sleep.
 124:Generated_Source\PSoC5/interrupter1_PM.c **** *
 125:Generated_Source\PSoC5/interrupter1_PM.c **** * Parameters:
 126:Generated_Source\PSoC5/interrupter1_PM.c **** *  None
 127:Generated_Source\PSoC5/interrupter1_PM.c **** *
 128:Generated_Source\PSoC5/interrupter1_PM.c **** * Return:
 129:Generated_Source\PSoC5/interrupter1_PM.c **** *  None
 130:Generated_Source\PSoC5/interrupter1_PM.c **** *
 131:Generated_Source\PSoC5/interrupter1_PM.c **** * Global variables:
 132:Generated_Source\PSoC5/interrupter1_PM.c **** *  interrupter1_backup.PWMEnableState:  Is modified depending on the enable
 133:Generated_Source\PSoC5/interrupter1_PM.c **** *  state of the block before entering sleep mode.
 134:Generated_Source\PSoC5/interrupter1_PM.c **** *
 135:Generated_Source\PSoC5/interrupter1_PM.c **** *******************************************************************************/
 136:Generated_Source\PSoC5/interrupter1_PM.c **** void interrupter1_Sleep(void) 
 137:Generated_Source\PSoC5/interrupter1_PM.c **** {
 107              		.loc 1 137 0
 108              		.cfi_startproc
 109              		@ args = 0, pretend = 0, frame = 0
 110              		@ frame_needed = 0, uses_anonymous_args = 0
 111 0000 08B5     		push	{r3, lr}
 112              		.cfi_def_cfa_offset 8
 113              		.cfi_offset 3, -8
 114              		.cfi_offset 14, -4
 138:Generated_Source\PSoC5/interrupter1_PM.c ****     #if(interrupter1_UseControl)
 139:Generated_Source\PSoC5/interrupter1_PM.c ****         if(interrupter1_CTRL_ENABLE == (interrupter1_CONTROL & interrupter1_CTRL_ENABLE))
 115              		.loc 1 139 0
 116 0002 074B     		ldr	r3, .L11
 117 0004 1B78     		ldrb	r3, [r3]	@ zero_extendqisi2
 118 0006 13F0800F 		tst	r3, #128
 119 000a 064B     		ldr	r3, .L11+4
 140:Generated_Source\PSoC5/interrupter1_PM.c ****         {
 141:Generated_Source\PSoC5/interrupter1_PM.c ****             /*Component is enabled */
 142:Generated_Source\PSoC5/interrupter1_PM.c ****             interrupter1_backup.PWMEnableState = 1u;
 120              		.loc 1 142 0
 121 000c 14BF     		ite	ne
 122 000e 0122     		movne	r2, #1
 143:Generated_Source\PSoC5/interrupter1_PM.c ****         }
 144:Generated_Source\PSoC5/interrupter1_PM.c ****         else
 145:Generated_Source\PSoC5/interrupter1_PM.c ****         {
 146:Generated_Source\PSoC5/interrupter1_PM.c ****             /* Component is disabled */
 147:Generated_Source\PSoC5/interrupter1_PM.c ****             interrupter1_backup.PWMEnableState = 0u;
 123              		.loc 1 147 0
 124 0010 0022     		moveq	r2, #0
 125 0012 1A70     		strb	r2, [r3]
 148:Generated_Source\PSoC5/interrupter1_PM.c ****         }
 149:Generated_Source\PSoC5/interrupter1_PM.c ****     #endif /* (interrupter1_UseControl) */
 150:Generated_Source\PSoC5/interrupter1_PM.c **** 
 151:Generated_Source\PSoC5/interrupter1_PM.c ****     /* Stop component */
 152:Generated_Source\PSoC5/interrupter1_PM.c ****     interrupter1_Stop();
 126              		.loc 1 152 0
 127 0014 FFF7FEFF 		bl	interrupter1_Stop
 128              	.LVL6:
 153:Generated_Source\PSoC5/interrupter1_PM.c **** 
 154:Generated_Source\PSoC5/interrupter1_PM.c ****     /* Save registers configuration */
 155:Generated_Source\PSoC5/interrupter1_PM.c ****     interrupter1_SaveConfig();
 156:Generated_Source\PSoC5/interrupter1_PM.c **** }
ARM GAS  C:\Users\chemi\AppData\Local\Temp\ccYwbN9C.s 			page 6


 129              		.loc 1 156 0
 130 0018 BDE80840 		pop	{r3, lr}
 131              		.cfi_restore 14
 132              		.cfi_restore 3
 133              		.cfi_def_cfa_offset 0
 155:Generated_Source\PSoC5/interrupter1_PM.c **** }
 134              		.loc 1 155 0
 135 001c FFF7FEBF 		b	interrupter1_SaveConfig
 136              	.LVL7:
 137              	.L12:
 138              		.align	2
 139              	.L11:
 140 0020 70640040 		.word	1073767536
 141 0024 00000000 		.word	.LANCHOR0
 142              		.cfi_endproc
 143              	.LFE2:
 144              		.size	interrupter1_Sleep, .-interrupter1_Sleep
 145              		.section	.text.interrupter1_Wakeup,"ax",%progbits
 146              		.align	1
 147              		.global	interrupter1_Wakeup
 148              		.thumb
 149              		.thumb_func
 150              		.type	interrupter1_Wakeup, %function
 151              	interrupter1_Wakeup:
 152              	.LFB3:
 157:Generated_Source\PSoC5/interrupter1_PM.c **** 
 158:Generated_Source\PSoC5/interrupter1_PM.c **** 
 159:Generated_Source\PSoC5/interrupter1_PM.c **** /*******************************************************************************
 160:Generated_Source\PSoC5/interrupter1_PM.c **** * Function Name: interrupter1_Wakeup
 161:Generated_Source\PSoC5/interrupter1_PM.c **** ********************************************************************************
 162:Generated_Source\PSoC5/interrupter1_PM.c **** *
 163:Generated_Source\PSoC5/interrupter1_PM.c **** * Summary:
 164:Generated_Source\PSoC5/interrupter1_PM.c **** *  Restores and enables the user configuration. Should be called just after
 165:Generated_Source\PSoC5/interrupter1_PM.c **** *  awaking from sleep.
 166:Generated_Source\PSoC5/interrupter1_PM.c **** *
 167:Generated_Source\PSoC5/interrupter1_PM.c **** * Parameters:
 168:Generated_Source\PSoC5/interrupter1_PM.c **** *  None
 169:Generated_Source\PSoC5/interrupter1_PM.c **** *
 170:Generated_Source\PSoC5/interrupter1_PM.c **** * Return:
 171:Generated_Source\PSoC5/interrupter1_PM.c **** *  None
 172:Generated_Source\PSoC5/interrupter1_PM.c **** *
 173:Generated_Source\PSoC5/interrupter1_PM.c **** * Global variables:
 174:Generated_Source\PSoC5/interrupter1_PM.c **** *  interrupter1_backup.pwmEnable:  Is used to restore the enable state of
 175:Generated_Source\PSoC5/interrupter1_PM.c **** *  block on wakeup from sleep mode.
 176:Generated_Source\PSoC5/interrupter1_PM.c **** *
 177:Generated_Source\PSoC5/interrupter1_PM.c **** *******************************************************************************/
 178:Generated_Source\PSoC5/interrupter1_PM.c **** void interrupter1_Wakeup(void) 
 179:Generated_Source\PSoC5/interrupter1_PM.c **** {
 153              		.loc 1 179 0
 154              		.cfi_startproc
 155              		@ args = 0, pretend = 0, frame = 0
 156              		@ frame_needed = 0, uses_anonymous_args = 0
 157 0000 08B5     		push	{r3, lr}
 158              		.cfi_def_cfa_offset 8
 159              		.cfi_offset 3, -8
 160              		.cfi_offset 14, -4
 180:Generated_Source\PSoC5/interrupter1_PM.c ****      /* Restore registers values */
ARM GAS  C:\Users\chemi\AppData\Local\Temp\ccYwbN9C.s 			page 7


 181:Generated_Source\PSoC5/interrupter1_PM.c ****     interrupter1_RestoreConfig();
 161              		.loc 1 181 0
 162 0002 FFF7FEFF 		bl	interrupter1_RestoreConfig
 163              	.LVL8:
 182:Generated_Source\PSoC5/interrupter1_PM.c **** 
 183:Generated_Source\PSoC5/interrupter1_PM.c ****     if(interrupter1_backup.PWMEnableState != 0u)
 164              		.loc 1 183 0
 165 0006 044B     		ldr	r3, .L16
 166 0008 1B78     		ldrb	r3, [r3]	@ zero_extendqisi2
 167 000a 1BB1     		cbz	r3, .L13
 184:Generated_Source\PSoC5/interrupter1_PM.c ****     {
 185:Generated_Source\PSoC5/interrupter1_PM.c ****         /* Enable component's operation */
 186:Generated_Source\PSoC5/interrupter1_PM.c ****         interrupter1_Enable();
 187:Generated_Source\PSoC5/interrupter1_PM.c ****     } /* Do nothing if component's block was disabled before */
 188:Generated_Source\PSoC5/interrupter1_PM.c **** 
 189:Generated_Source\PSoC5/interrupter1_PM.c **** }
 168              		.loc 1 189 0
 169 000c BDE80840 		pop	{r3, lr}
 170              		.cfi_remember_state
 171              		.cfi_restore 14
 172              		.cfi_restore 3
 173              		.cfi_def_cfa_offset 0
 186:Generated_Source\PSoC5/interrupter1_PM.c ****     } /* Do nothing if component's block was disabled before */
 174              		.loc 1 186 0
 175 0010 FFF7FEBF 		b	interrupter1_Enable
 176              	.LVL9:
 177              	.L13:
 178              		.cfi_restore_state
 179 0014 08BD     		pop	{r3, pc}
 180              	.L17:
 181 0016 00BF     		.align	2
 182              	.L16:
 183 0018 00000000 		.word	.LANCHOR0
 184              		.cfi_endproc
 185              	.LFE3:
 186              		.size	interrupter1_Wakeup, .-interrupter1_Wakeup
 187              		.bss
 188              		.align	1
 189              		.set	.LANCHOR0,. + 0
 190              		.type	interrupter1_backup, %object
 191              		.size	interrupter1_backup, 8
 192              	interrupter1_backup:
 193 0000 00000000 		.space	8
 193      00000000 
 194              		.text
 195              	.Letext0:
 196              		.file 2 "Generated_Source\\PSoC5\\cytypes.h"
 197              		.file 3 "Generated_Source\\PSoC5\\interrupter1.h"