ARM GAS  C:\Users\chemi\AppData\Local\Temp\ccCrVjov.s 			page 1


   1              		.syntax unified
   2              		.cpu cortex-m3
   3              		.fpu softvfp
   4              		.eabi_attribute 20, 1
   5              		.eabi_attribute 21, 1
   6              		.eabi_attribute 23, 3
   7              		.eabi_attribute 24, 1
   8              		.eabi_attribute 25, 1
   9              		.eabi_attribute 26, 1
  10              		.eabi_attribute 30, 4
  11              		.eabi_attribute 34, 1
  12              		.eabi_attribute 18, 4
  13              		.thumb
  14              		.syntax unified
  15              		.file	"interrupter.c"
  16              		.text
  17              	.Ltext0:
  18              		.cfi_sections	.debug_frame
  19              		.section	.text.interrupter_unkill,"ax",%progbits
  20              		.align	1
  21              		.global	interrupter_unkill
  22              		.thumb
  23              		.thumb_func
  24              		.type	interrupter_unkill, %function
  25              	interrupter_unkill:
  26              	.LFB69:
  27              		.file 1 "..\\common\\ud3core\\interrupter.c"
   1:..\common\ud3core/interrupter.c ****  /*
   2:..\common\ud3core/interrupter.c ****  * UD3
   3:..\common\ud3core/interrupter.c ****  *
   4:..\common\ud3core/interrupter.c ****  * Copyright (c) 2018 Jens Kerrinnes
   5:..\common\ud3core/interrupter.c ****  * Copyright (c) 2015 Steve Ward
   6:..\common\ud3core/interrupter.c ****  *
   7:..\common\ud3core/interrupter.c ****  * Permission is hereby granted, free of charge, to any person obtaining a copy of
   8:..\common\ud3core/interrupter.c ****  * this software and associated documentation files (the "Software"), to deal in
   9:..\common\ud3core/interrupter.c ****  * the Software without restriction, including without limitation the rights to
  10:..\common\ud3core/interrupter.c ****  * use, copy, modify, merge, publish, distribute, sublicense, and/or sell copies of
  11:..\common\ud3core/interrupter.c ****  * the Software, and to permit persons to whom the Software is furnished to do so,
  12:..\common\ud3core/interrupter.c ****  * subject to the following conditions:
  13:..\common\ud3core/interrupter.c ****  *
  14:..\common\ud3core/interrupter.c ****  * The above copyright notice and this permission notice shall be included in all
  15:..\common\ud3core/interrupter.c ****  * copies or substantial portions of the Software.
  16:..\common\ud3core/interrupter.c ****  *
  17:..\common\ud3core/interrupter.c ****  * THE SOFTWARE IS PROVIDED "AS IS", WITHOUT WARRANTY OF ANY KIND, EXPRESS OR
  18:..\common\ud3core/interrupter.c ****  * IMPLIED, INCLUDING BUT NOT LIMITED TO THE WARRANTIES OF MERCHANTABILITY, FITNESS
  19:..\common\ud3core/interrupter.c ****  * FOR A PARTICULAR PURPOSE AND NONINFRINGEMENT. IN NO EVENT SHALL THE AUTHORS OR
  20:..\common\ud3core/interrupter.c ****  * COPYRIGHT HOLDERS BE LIABLE FOR ANY CLAIM, DAMAGES OR OTHER LIABILITY, WHETHER
  21:..\common\ud3core/interrupter.c ****  * IN AN ACTION OF CONTRACT, TORT OR OTHERWISE, ARISING FROM, OUT OF OR IN
  22:..\common\ud3core/interrupter.c ****  * CONNECTION WITH THE SOFTWARE OR THE USE OR OTHER DEALINGS IN THE SOFTWARE.
  23:..\common\ud3core/interrupter.c **** */
  24:..\common\ud3core/interrupter.c **** 
  25:..\common\ud3core/interrupter.c **** #include "interrupter.h"
  26:..\common\ud3core/interrupter.c **** #include "hardware.h"
  27:..\common\ud3core/interrupter.c **** #include "ZCDtoPWM.h"
  28:..\common\ud3core/interrupter.c **** #include "autotune.h"
  29:..\common\ud3core/interrupter.c **** #include "SignalGenerator.h"
  30:..\common\ud3core/interrupter.c **** #include "DutyCompressor.h"
ARM GAS  C:\Users\chemi\AppData\Local\Temp\ccCrVjov.s 			page 2


  31:..\common\ud3core/interrupter.c **** #include "cli_common.h"
  32:..\common\ud3core/interrupter.c **** #include "qcw.h"
  33:..\common\ud3core/interrupter.c **** #include "tasks/tsk_fault.h"
  34:..\common\ud3core/interrupter.c **** #include "tasks/tsk_midi.h"
  35:..\common\ud3core/interrupter.c **** #include "VMSWrapper.h"
  36:..\common\ud3core/interrupter.c **** #include "SidProcessor.h"
  37:..\common\ud3core/interrupter.c **** #include "MidiProcessor.h"
  38:..\common\ud3core/interrupter.c **** #include "NoteMapper.h"
  39:..\common\ud3core/interrupter.c **** 
  40:..\common\ud3core/interrupter.c **** #include <device.h>
  41:..\common\ud3core/interrupter.c **** #include <math.h>
  42:..\common\ud3core/interrupter.c **** 
  43:..\common\ud3core/interrupter.c **** uint16_t int1_prd, int1_cmp;
  44:..\common\ud3core/interrupter.c **** 
  45:..\common\ud3core/interrupter.c **** void interrupter_kill(void){
  46:..\common\ud3core/interrupter.c ****     sysfault.interlock = 1;
  47:..\common\ud3core/interrupter.c ****     SigGen_killAudio();
  48:..\common\ud3core/interrupter.c ****     param.pw=0;
  49:..\common\ud3core/interrupter.c ****     interrupter_updateTR();
  50:..\common\ud3core/interrupter.c **** }
  51:..\common\ud3core/interrupter.c **** 
  52:..\common\ud3core/interrupter.c **** void interrupter_unkill(void){
  28              		.loc 1 52 0
  29              		.cfi_startproc
  30              		@ args = 0, pretend = 0, frame = 0
  31              		@ frame_needed = 0, uses_anonymous_args = 0
  32              		@ link register save eliminated.
  53:..\common\ud3core/interrupter.c ****     sysfault.interlock=0;
  33              		.loc 1 53 0
  34 0000 014B     		ldr	r3, .L2
  35 0002 0022     		movs	r2, #0
  36 0004 1A72     		strb	r2, [r3, #8]
  37 0006 7047     		bx	lr
  38              	.L3:
  39              		.align	2
  40              	.L2:
  41 0008 00000000 		.word	sysfault
  42              		.cfi_endproc
  43              	.LFE69:
  44              		.size	interrupter_unkill, .-interrupter_unkill
  45              		.section	.text.interrupter_oneshot,"ax",%progbits
  46              		.align	1
  47              		.global	interrupter_oneshot
  48              		.thumb
  49              		.thumb_func
  50              		.type	interrupter_oneshot, %function
  51              	interrupter_oneshot:
  52              	.LFB74:
  54:..\common\ud3core/interrupter.c **** }
  55:..\common\ud3core/interrupter.c **** 
  56:..\common\ud3core/interrupter.c **** uint8 int1_dma_Chan;
  57:..\common\ud3core/interrupter.c **** 
  58:..\common\ud3core/interrupter.c **** #define N_TD 4
  59:..\common\ud3core/interrupter.c **** uint8 ch_dma_Chan[N_CHANNEL];
  60:..\common\ud3core/interrupter.c **** uint8_t ch_dma_TD[N_CHANNEL][N_TD];
  61:..\common\ud3core/interrupter.c **** 
  62:..\common\ud3core/interrupter.c **** #define MODULATION_CUR_BYTES 1
ARM GAS  C:\Users\chemi\AppData\Local\Temp\ccCrVjov.s 			page 3


  63:..\common\ud3core/interrupter.c **** #define MODULATION_PW_BYTES  8
  64:..\common\ud3core/interrupter.c **** #define MODULATION_REQUEST_PER_BURST  1
  65:..\common\ud3core/interrupter.c **** 
  66:..\common\ud3core/interrupter.c **** // Adds an alarm with the specified message to the alarm queue and stops the UD3
  67:..\common\ud3core/interrupter.c **** // TODO: Make this a global function so it can be used everywhere resources and memory are allocate
  68:..\common\ud3core/interrupter.c **** void critical_error(const char *message, int32_t val) {
  69:..\common\ud3core/interrupter.c ****     alarm_push(ALM_PRIO_CRITICAL, message, val);
  70:..\common\ud3core/interrupter.c ****     interrupter_kill();
  71:..\common\ud3core/interrupter.c **** }
  72:..\common\ud3core/interrupter.c **** 
  73:..\common\ud3core/interrupter.c **** // One-time initialization of the interrupter components (called once at system startup)
  74:..\common\ud3core/interrupter.c **** void initialize_interrupter(void) {
  75:..\common\ud3core/interrupter.c ****     //initialize both signal generator and duty compressor
  76:..\common\ud3core/interrupter.c ****     SigGen_init();
  77:..\common\ud3core/interrupter.c ****     Comp_init();
  78:..\common\ud3core/interrupter.c ****     
  79:..\common\ud3core/interrupter.c ****     Opamp_2_Start();
  80:..\common\ud3core/interrupter.c **** 
  81:..\common\ud3core/interrupter.c **** 	//initialize the PWM generators for safe PW and PRD
  82:..\common\ud3core/interrupter.c **** 	int1_prd = 65000;   // An arbitrary large number to count down from
  83:..\common\ud3core/interrupter.c **** 	int1_cmp = 64999;
  84:..\common\ud3core/interrupter.c ****     
  85:..\common\ud3core/interrupter.c **** 	interrupter1_WritePeriod(int1_prd);
  86:..\common\ud3core/interrupter.c **** 	interrupter1_WriteCompare1(int1_cmp);      // pwm1 will be true for one clock, then false.  int1_p
  87:..\common\ud3core/interrupter.c ****   	interrupter1_WriteCompare2(int1_prd);      // pwm2 will be false for one clock then true.  This 
  88:..\common\ud3core/interrupter.c **** 
  89:..\common\ud3core/interrupter.c **** 	//Start up timers
  90:..\common\ud3core/interrupter.c **** 	interrupter1_Start();
  91:..\common\ud3core/interrupter.c ****     
  92:..\common\ud3core/interrupter.c **** 	// Variable declarations for int1_dma.  This transfers int1_prd and int1_cmp to the interrupter1 c
  93:..\common\ud3core/interrupter.c **** 	uint8_t int1_dma_TD[4];
  94:..\common\ud3core/interrupter.c **** 	int1_dma_Chan = int1_dma_DmaInitialize(int1_dma_BYTES_PER_BURST, int1_dma_REQUEST_PER_BURST,
  95:..\common\ud3core/interrupter.c **** 										   HI16(int1_dma_SRC_BASE), HI16(int1_dma_DST_BASE));
  96:..\common\ud3core/interrupter.c ****     
  97:..\common\ud3core/interrupter.c ****     for(int i=0; i<4; ++i){
  98:..\common\ud3core/interrupter.c ****     	int1_dma_TD[i] = CyDmaTdAllocate();
  99:..\common\ud3core/interrupter.c ****         if(int1_dma_TD[i] == DMA_INVALID_TD)
 100:..\common\ud3core/interrupter.c ****             critical_error("CyDmaTdAllocate failure INT", i);
 101:..\common\ud3core/interrupter.c ****     }
 102:..\common\ud3core/interrupter.c ****     
 103:..\common\ud3core/interrupter.c **** 	CyDmaTdSetConfiguration(int1_dma_TD[0], 2, int1_dma_TD[1], int1_dma__TD_TERMOUT_EN | TD_AUTO_EXEC_
 104:..\common\ud3core/interrupter.c **** 	CyDmaTdSetConfiguration(int1_dma_TD[1], 2, int1_dma_TD[2], int1_dma__TD_TERMOUT_EN | TD_AUTO_EXEC_
 105:..\common\ud3core/interrupter.c **** 	CyDmaTdSetConfiguration(int1_dma_TD[2], 2, int1_dma_TD[3], int1_dma__TD_TERMOUT_EN | TD_AUTO_EXEC_
 106:..\common\ud3core/interrupter.c **** 	CyDmaTdSetConfiguration(int1_dma_TD[3], 2, int1_dma_TD[0], int1_dma__TD_TERMOUT_EN);
 107:..\common\ud3core/interrupter.c ****     
 108:..\common\ud3core/interrupter.c **** 	CyDmaTdSetAddress(int1_dma_TD[0], LO16((uint32)&int1_prd), LO16((uint32)interrupter1_PERIOD_LSB_PT
 109:..\common\ud3core/interrupter.c **** 	CyDmaTdSetAddress(int1_dma_TD[1], LO16((uint32)&int1_cmp), LO16((uint32)interrupter1_COMPARE1_LSB_
 110:..\common\ud3core/interrupter.c **** 	CyDmaTdSetAddress(int1_dma_TD[2], LO16((uint32)&int1_prd), LO16((uint32)interrupter1_COMPARE2_LSB_
 111:..\common\ud3core/interrupter.c **** 	CyDmaTdSetAddress(int1_dma_TD[3], LO16((uint32)&int1_prd), LO16((uint32)interrupter1_COUNTER_LSB_P
 112:..\common\ud3core/interrupter.c **** 	CyDmaChSetInitialTd(int1_dma_Chan, int1_dma_TD[0]);
 113:..\common\ud3core/interrupter.c ****     
 114:..\common\ud3core/interrupter.c ****     CyDmaChEnable(int1_dma_Chan, 1);
 115:..\common\ud3core/interrupter.c ****     
 116:..\common\ud3core/interrupter.c ****     configure_interrupter();
 117:..\common\ud3core/interrupter.c **** }
 118:..\common\ud3core/interrupter.c **** 
 119:..\common\ud3core/interrupter.c **** void interrupter_init_safe(){
ARM GAS  C:\Users\chemi\AppData\Local\Temp\ccCrVjov.s 			page 4


 120:..\common\ud3core/interrupter.c ****         // Safe defaults in case anything fails.
 121:..\common\ud3core/interrupter.c ****     interrupter_kill();
 122:..\common\ud3core/interrupter.c ****    
 123:..\common\ud3core/interrupter.c ****   	int1_prd = 65000;
 124:..\common\ud3core/interrupter.c **** 	int1_cmp = 64999;
 125:..\common\ud3core/interrupter.c **** 
 126:..\common\ud3core/interrupter.c ****   	//initialize the PWM generators for safe PW and PRD
 127:..\common\ud3core/interrupter.c **** 	interrupter1_WritePeriod(int1_prd);
 128:..\common\ud3core/interrupter.c **** 	interrupter1_WriteCompare1(int1_cmp);      // pwm1 will be true for one clock, then false.  int1_p
 129:..\common\ud3core/interrupter.c ****   	interrupter1_WriteCompare2(int1_prd);      // pwm2 will be false for one clock then true
 130:..\common\ud3core/interrupter.c ****   
 131:..\common\ud3core/interrupter.c **** }
 132:..\common\ud3core/interrupter.c **** 
 133:..\common\ud3core/interrupter.c **** // Called whenever an interrupter-related param is changed or eeprom is loaded.
 134:..\common\ud3core/interrupter.c **** void configure_interrupter()
 135:..\common\ud3core/interrupter.c **** {
 136:..\common\ud3core/interrupter.c **** 
 137:..\common\ud3core/interrupter.c ****     //Init interrupter to some safe values
 138:..\common\ud3core/interrupter.c ****     interrupter_init_safe();
 139:..\common\ud3core/interrupter.c **** 
 140:..\common\ud3core/interrupter.c ****     // The minimum interrupter period for transient mode in clock ticks (which are equal to microse
 141:..\common\ud3core/interrupter.c **** 	params.min_tr_prd = INTERRUPTER_CLK_FREQ / configuration.max_tr_prf;
 142:..\common\ud3core/interrupter.c ****     
 143:..\common\ud3core/interrupter.c ****     // Disable interrupter
 144:..\common\ud3core/interrupter.c ****     interrupter.mode = INTR_MODE_OFF;
 145:..\common\ud3core/interrupter.c **** }
 146:..\common\ud3core/interrupter.c **** 
 147:..\common\ud3core/interrupter.c **** void interrupter_oneshot(uint32_t pw, uint32_t vol) {
  53              		.loc 1 147 0
  54              		.cfi_startproc
  55              		@ args = 0, pretend = 0, frame = 0
  56              		@ frame_needed = 0, uses_anonymous_args = 0
  57              	.LVL0:
  58 0000 70B5     		push	{r4, r5, r6, lr}
  59              		.cfi_def_cfa_offset 16
  60              		.cfi_offset 4, -16
  61              		.cfi_offset 5, -12
  62              		.cfi_offset 6, -8
  63              		.cfi_offset 14, -4
  64              		.loc 1 147 0
  65 0002 0546     		mov	r5, r0
  66 0004 0C46     		mov	r4, r1
 148:..\common\ud3core/interrupter.c ****     if(tsk_fault_is_fault() || configuration.ext_interrupter) return;
  67              		.loc 1 148 0
  68 0006 FFF7FEFF 		bl	tsk_fault_is_fault
  69              	.LVL1:
  70 000a 0028     		cmp	r0, #0
  71 000c 2AD1     		bne	.L4
  72              		.loc 1 148 0 is_stmt 0 discriminator 1
  73 000e 164B     		ldr	r3, .L9
  74 0010 93F85B20 		ldrb	r2, [r3, #91]	@ zero_extendqisi2
  75 0014 1E46     		mov	r6, r3
  76 0016 2ABB     		cbnz	r2, .L4
 149:..\common\ud3core/interrupter.c ****     
 150:..\common\ud3core/interrupter.c **** 	if (vol < MAX_VOL) {
  77              		.loc 1 150 0 is_stmt 1
  78 0018 47F6FE73 		movw	r3, #32766
ARM GAS  C:\Users\chemi\AppData\Local\Temp\ccCrVjov.s 			page 5


  79 001c 9C42     		cmp	r4, r3
  80 001e 134A     		ldr	r2, .L9+4
  81 0020 1348     		ldr	r0, .L9+8
  82 0022 09D8     		bhi	.L6
 151:..\common\ud3core/interrupter.c **** 		ct1_dac_val[0] = params.min_tr_cl_dac_val + ((vol * params.diff_tr_cl_dac_val) >> 15);
  83              		.loc 1 151 0
  84 0024 137D     		ldrb	r3, [r2, #20]	@ zero_extendqisi2
  85 0026 517D     		ldrb	r1, [r2, #21]	@ zero_extendqisi2
  86 0028 6143     		muls	r1, r4, r1
  87 002a 03EBD131 		add	r1, r3, r1, lsr #15
 152:..\common\ud3core/interrupter.c ****         if(ct1_dac_val[0] > params.max_tr_cl_dac_val) ct1_dac_val[0] = params.max_tr_cl_dac_val;
  88              		.loc 1 152 0
  89 002e 1378     		ldrb	r3, [r2]	@ zero_extendqisi2
 151:..\common\ud3core/interrupter.c **** 		ct1_dac_val[0] = params.min_tr_cl_dac_val + ((vol * params.diff_tr_cl_dac_val) >> 15);
  90              		.loc 1 151 0
  91 0030 C9B2     		uxtb	r1, r1
  92              		.loc 1 152 0
  93 0032 9942     		cmp	r1, r3
 151:..\common\ud3core/interrupter.c **** 		ct1_dac_val[0] = params.min_tr_cl_dac_val + ((vol * params.diff_tr_cl_dac_val) >> 15);
  94              		.loc 1 151 0
  95 0034 0170     		strb	r1, [r0]
  96              		.loc 1 152 0
  97 0036 01D9     		bls	.L7
  98              	.L6:
 153:..\common\ud3core/interrupter.c **** 	} else {
 154:..\common\ud3core/interrupter.c **** 		ct1_dac_val[0] = params.max_tr_cl_dac_val;
  99              		.loc 1 154 0
 100 0038 1378     		ldrb	r3, [r2]	@ zero_extendqisi2
 101 003a 0370     		strb	r3, [r0]
 102              	.L7:
 155:..\common\ud3core/interrupter.c **** 	}
 156:..\common\ud3core/interrupter.c **** 	uint16_t prd;
 157:..\common\ud3core/interrupter.c **** 	if (pw > configuration.max_tr_pw) {
 158:..\common\ud3core/interrupter.c **** 		pw = configuration.max_tr_pw;
 159:..\common\ud3core/interrupter.c **** 	}
 160:..\common\ud3core/interrupter.c ****     prd = param.offtime + pw;
 103              		.loc 1 160 0
 104 003c 0D4B     		ldr	r3, .L9+12
 157:..\common\ud3core/interrupter.c **** 		pw = configuration.max_tr_pw;
 105              		.loc 1 157 0
 106 003e B088     		ldrh	r0, [r6, #4]
 107              	.LVL2:
 108 0040 DB89     		ldrh	r3, [r3, #14]
 109 0042 033B     		subs	r3, r3, #3
 110 0044 9BB2     		uxth	r3, r3
 111              	.LVL3:
 161:..\common\ud3core/interrupter.c **** 	/* Update Interrupter PWMs with new period/pw */
 162:..\common\ud3core/interrupter.c **** 	CyGlobalIntDisable;
 112              		.loc 1 162 0
 113              		.syntax unified
 114              	@ 162 "..\common\ud3core\interrupter.c" 1
 115 0046 72B6     		CPSID   i
 116              	@ 0 "" 2
 163:..\common\ud3core/interrupter.c **** 	int1_prd = prd - 3;
 117              		.loc 1 163 0
 118              		.thumb
 119              		.syntax unified
ARM GAS  C:\Users\chemi\AppData\Local\Temp\ccCrVjov.s 			page 6


 120 0048 A842     		cmp	r0, r5
 121 004a 94BF     		ite	ls
 122 004c 1818     		addls	r0, r3, r0
 123 004e 5819     		addhi	r0, r3, r5
 124              	.LVL4:
 125 0050 094A     		ldr	r2, .L9+16
 126 0052 1080     		strh	r0, [r2]	@ movhi
 164:..\common\ud3core/interrupter.c **** 	int1_cmp = prd - pw - 3;
 127              		.loc 1 164 0
 128 0054 094A     		ldr	r2, .L9+20
 129 0056 1380     		strh	r3, [r2]	@ movhi
 165:..\common\ud3core/interrupter.c **** 	interrupter1_control_Control = INT_ENA;
 130              		.loc 1 165 0
 131 0058 094B     		ldr	r3, .L9+24
 132 005a 0122     		movs	r2, #1
 133 005c 1A70     		strb	r2, [r3]
 166:..\common\ud3core/interrupter.c **** 	interrupter1_control_Control = INT_KILL_ALL;
 134              		.loc 1 166 0
 135 005e 0022     		movs	r2, #0
 136 0060 1A70     		strb	r2, [r3]
 167:..\common\ud3core/interrupter.c ****     CyGlobalIntEnable;
 137              		.loc 1 167 0
 138              		.syntax unified
 139              	@ 167 "..\common\ud3core\interrupter.c" 1
 140 0062 62B6     		CPSIE   i
 141              	@ 0 "" 2
 142              	.LVL5:
 143              		.thumb
 144              		.syntax unified
 145              	.L4:
 146 0064 70BD     		pop	{r4, r5, r6, pc}
 147              	.LVL6:
 148              	.L10:
 149 0066 00BF     		.align	2
 150              	.L9:
 151 0068 00000000 		.word	configuration
 152 006c 00000000 		.word	params
 153 0070 00000000 		.word	ct1_dac_val
 154 0074 00000000 		.word	param
 155 0078 00000000 		.word	int1_prd
 156 007c 00000000 		.word	int1_cmp
 157 0080 7D640040 		.word	1073767549
 158              		.cfi_endproc
 159              	.LFE74:
 160              		.size	interrupter_oneshot, .-interrupter_oneshot
 161              		.section	.text.interrupter_oneshotRaw,"ax",%progbits
 162              		.align	1
 163              		.global	interrupter_oneshotRaw
 164              		.thumb
 165              		.thumb_func
 166              		.type	interrupter_oneshotRaw, %function
 167              	interrupter_oneshotRaw:
 168              	.LFB75:
 168:..\common\ud3core/interrupter.c **** }
 169:..\common\ud3core/interrupter.c **** 
 170:..\common\ud3core/interrupter.c **** void interrupter_oneshotRaw(uint32_t pw_us, uint32_t dacValue_counts) {
 169              		.loc 1 170 0
ARM GAS  C:\Users\chemi\AppData\Local\Temp\ccCrVjov.s 			page 7


 170              		.cfi_startproc
 171              		@ args = 0, pretend = 0, frame = 0
 172              		@ frame_needed = 0, uses_anonymous_args = 0
 173              	.LVL7:
 174 0000 38B5     		push	{r3, r4, r5, lr}
 175              		.cfi_def_cfa_offset 16
 176              		.cfi_offset 3, -16
 177              		.cfi_offset 4, -12
 178              		.cfi_offset 5, -8
 179              		.cfi_offset 14, -4
 180              		.loc 1 170 0
 181 0002 0546     		mov	r5, r0
 182 0004 0C46     		mov	r4, r1
 171:..\common\ud3core/interrupter.c ****     //is sysfault triggered?
 172:..\common\ud3core/interrupter.c ****     if(tsk_fault_is_fault() || configuration.ext_interrupter) return;
 183              		.loc 1 172 0
 184 0006 FFF7FEFF 		bl	tsk_fault_is_fault
 185              	.LVL8:
 186 000a 00BB     		cbnz	r0, .L11
 187              		.loc 1 172 0 is_stmt 0 discriminator 1
 188 000c 104B     		ldr	r3, .L14
 189 000e 93F85B20 		ldrb	r2, [r3, #91]	@ zero_extendqisi2
 190 0012 E2B9     		cbnz	r2, .L11
 173:..\common\ud3core/interrupter.c ****     
 174:..\common\ud3core/interrupter.c ****     //is the output already on?
 175:..\common\ud3core/interrupter.c ****     //TODO add this check either in hardware or software
 176:..\common\ud3core/interrupter.c ****         
 177:..\common\ud3core/interrupter.c ****     //is the set current still valid?
 178:..\common\ud3core/interrupter.c **** 	if (dacValue_counts > params.max_tr_cl_dac_val) {
 191              		.loc 1 178 0 is_stmt 1
 192 0014 0F4A     		ldr	r2, .L14+4
 179:..\common\ud3core/interrupter.c **** 		dacValue_counts = params.max_tr_cl_dac_val;
 180:..\common\ud3core/interrupter.c **** 	}
 181:..\common\ud3core/interrupter.c ****     
 182:..\common\ud3core/interrupter.c ****     //update dac value
 183:..\common\ud3core/interrupter.c ****     ct1_dac_val[0] = dacValue_counts;
 184:..\common\ud3core/interrupter.c ****     
 185:..\common\ud3core/interrupter.c ****     //is the period still valid?
 186:..\common\ud3core/interrupter.c **** 	if (pw_us > configuration.max_tr_pw) {
 193              		.loc 1 186 0
 194 0016 9888     		ldrh	r0, [r3, #4]
 178:..\common\ud3core/interrupter.c **** 		dacValue_counts = params.max_tr_cl_dac_val;
 195              		.loc 1 178 0
 196 0018 1178     		ldrb	r1, [r2]	@ zero_extendqisi2
 187:..\common\ud3core/interrupter.c **** 		pw_us = configuration.max_tr_pw;
 188:..\common\ud3core/interrupter.c **** 	}
 189:..\common\ud3core/interrupter.c ****     
 190:..\common\ud3core/interrupter.c ****     //compute period and compare register values
 191:..\common\ud3core/interrupter.c **** 	uint16_t prd = param.offtime + pw_us;
 197              		.loc 1 191 0
 198 001a 0F4B     		ldr	r3, .L14+8
 178:..\common\ud3core/interrupter.c **** 		dacValue_counts = params.max_tr_cl_dac_val;
 199              		.loc 1 178 0
 200 001c A142     		cmp	r1, r4
 179:..\common\ud3core/interrupter.c **** 	}
 201              		.loc 1 179 0
 202 001e 38BF     		it	cc
ARM GAS  C:\Users\chemi\AppData\Local\Temp\ccCrVjov.s 			page 8


 203 0020 1478     		ldrbcc	r4, [r2]	@ zero_extendqisi2
 204              	.LVL9:
 205 0022 DB89     		ldrh	r3, [r3, #14]
 183:..\common\ud3core/interrupter.c ****     
 206              		.loc 1 183 0
 207 0024 0D4A     		ldr	r2, .L14+12
 179:..\common\ud3core/interrupter.c **** 	}
 208              		.loc 1 179 0
 209 0026 38BF     		it	cc
 210 0028 E4B2     		uxtbcc	r4, r4
 211              	.LVL10:
 212 002a 033B     		subs	r3, r3, #3
 183:..\common\ud3core/interrupter.c ****     
 213              		.loc 1 183 0
 214 002c 1470     		strb	r4, [r2]
 215 002e 9BB2     		uxth	r3, r3
 216              	.LVL11:
 192:..\common\ud3core/interrupter.c ****     
 193:..\common\ud3core/interrupter.c **** 	CyGlobalIntDisable;
 217              		.loc 1 193 0
 218              		.syntax unified
 219              	@ 193 "..\common\ud3core\interrupter.c" 1
 220 0030 72B6     		CPSID   i
 221              	@ 0 "" 2
 194:..\common\ud3core/interrupter.c ****     
 195:..\common\ud3core/interrupter.c ****     //update int timer value
 196:..\common\ud3core/interrupter.c **** 	int1_prd = prd - 3;
 222              		.loc 1 196 0
 223              		.thumb
 224              		.syntax unified
 225 0032 A842     		cmp	r0, r5
 226 0034 94BF     		ite	ls
 227 0036 1818     		addls	r0, r3, r0
 228 0038 5819     		addhi	r0, r3, r5
 229              	.LVL12:
 230 003a 094A     		ldr	r2, .L14+16
 231 003c 1080     		strh	r0, [r2]	@ movhi
 197:..\common\ud3core/interrupter.c **** 	int1_cmp = prd - pw_us - 3;
 232              		.loc 1 197 0
 233 003e 094A     		ldr	r2, .L14+20
 234 0040 1380     		strh	r3, [r2]	@ movhi
 198:..\common\ud3core/interrupter.c ****     
 199:..\common\ud3core/interrupter.c ****     //trigger pulse
 200:..\common\ud3core/interrupter.c **** 	interrupter1_control_Control = INT_ENA;
 235              		.loc 1 200 0
 236 0042 094B     		ldr	r3, .L14+24
 237 0044 0122     		movs	r2, #1
 238 0046 1A70     		strb	r2, [r3]
 201:..\common\ud3core/interrupter.c **** 	interrupter1_control_Control = INT_KILL_ALL;
 239              		.loc 1 201 0
 240 0048 0022     		movs	r2, #0
 241 004a 1A70     		strb	r2, [r3]
 202:..\common\ud3core/interrupter.c ****     CyGlobalIntEnable;
 242              		.loc 1 202 0
 243              		.syntax unified
 244              	@ 202 "..\common\ud3core\interrupter.c" 1
 245 004c 62B6     		CPSIE   i
ARM GAS  C:\Users\chemi\AppData\Local\Temp\ccCrVjov.s 			page 9


 246              	@ 0 "" 2
 247              	.LVL13:
 248              		.thumb
 249              		.syntax unified
 250              	.L11:
 251 004e 38BD     		pop	{r3, r4, r5, pc}
 252              	.LVL14:
 253              	.L15:
 254              		.align	2
 255              	.L14:
 256 0050 00000000 		.word	configuration
 257 0054 00000000 		.word	params
 258 0058 00000000 		.word	param
 259 005c 00000000 		.word	ct1_dac_val
 260 0060 00000000 		.word	int1_prd
 261 0064 00000000 		.word	int1_cmp
 262 0068 7D640040 		.word	1073767549
 263              		.cfi_endproc
 264              	.LFE75:
 265              		.size	interrupter_oneshotRaw, .-interrupter_oneshotRaw
 266              		.section	.text.interrupter_update_ext,"ax",%progbits
 267              		.align	1
 268              		.global	interrupter_update_ext
 269              		.thumb
 270              		.thumb_func
 271              		.type	interrupter_update_ext, %function
 272              	interrupter_update_ext:
 273              	.LFB76:
 203:..\common\ud3core/interrupter.c **** }
 204:..\common\ud3core/interrupter.c **** 
 205:..\common\ud3core/interrupter.c **** 
 206:..\common\ud3core/interrupter.c **** void interrupter_update_ext() {
 274              		.loc 1 206 0
 275              		.cfi_startproc
 276              		@ args = 0, pretend = 0, frame = 0
 277              		@ frame_needed = 0, uses_anonymous_args = 0
 278              		@ link register save eliminated.
 207:..\common\ud3core/interrupter.c **** 
 208:..\common\ud3core/interrupter.c **** 	ct1_dac_val[0] = params.max_tr_cl_dac_val;
 279              		.loc 1 208 0
 280 0000 0F4B     		ldr	r3, .L22
 281 0002 1A78     		ldrb	r2, [r3]	@ zero_extendqisi2
 282 0004 0F4B     		ldr	r3, .L22+4
 283 0006 1A70     		strb	r2, [r3]
 284              	.LVL15:
 209:..\common\ud3core/interrupter.c ****     
 210:..\common\ud3core/interrupter.c ****     //set the pulsewidth timer to the maximum the coil can do
 211:..\common\ud3core/interrupter.c ****     uint32_t pw = configuration.max_tr_pw;
 212:..\common\ud3core/interrupter.c ****     
 213:..\common\ud3core/interrupter.c ****     //TODO is this actually necessary? We would only be enforcing this offtime when the interrupter
 214:..\common\ud3core/interrupter.c ****     uint16_t prd = param.offtime + pw;
 285              		.loc 1 214 0
 286 0008 0F4B     		ldr	r3, .L22+8
 287 000a DA89     		ldrh	r2, [r3, #14]
 288              	.LVL16:
 215:..\common\ud3core/interrupter.c ****     
 216:..\common\ud3core/interrupter.c **** 	/* Update Interrupter PWMs with new period/pw */
ARM GAS  C:\Users\chemi\AppData\Local\Temp\ccCrVjov.s 			page 10


 217:..\common\ud3core/interrupter.c **** 	CyGlobalIntDisable;
 289              		.loc 1 217 0
 290              		.syntax unified
 291              	@ 217 "..\common\ud3core\interrupter.c" 1
 292 000c 72B6     		CPSID   i
 293              	@ 0 "" 2
 211:..\common\ud3core/interrupter.c ****     
 294              		.loc 1 211 0
 295              		.thumb
 296              		.syntax unified
 297 000e 0F49     		ldr	r1, .L22+12
 218:..\common\ud3core/interrupter.c **** 	int1_prd = prd - 3;
 298              		.loc 1 218 0
 299 0010 0F48     		ldr	r0, .L22+16
 300 0012 8B88     		ldrh	r3, [r1, #4]
 301 0014 1344     		add	r3, r3, r2
 302 0016 033B     		subs	r3, r3, #3
 303 0018 0380     		strh	r3, [r0]	@ movhi
 219:..\common\ud3core/interrupter.c **** 	int1_cmp = prd - pw - 3;
 304              		.loc 1 219 0
 305 001a 0E4B     		ldr	r3, .L22+20
 306 001c 033A     		subs	r2, r2, #3
 307              	.LVL17:
 308 001e 1A80     		strh	r2, [r3]	@ movhi
 220:..\common\ud3core/interrupter.c ****     
 221:..\common\ud3core/interrupter.c ****     switch(configuration.ext_interrupter){
 309              		.loc 1 221 0
 310 0020 91F85B30 		ldrb	r3, [r1, #91]	@ zero_extendqisi2
 311 0024 012B     		cmp	r3, #1
 312 0026 06D0     		beq	.L18
 313 0028 03D3     		bcc	.L19
 314 002a 022B     		cmp	r3, #2
 315 002c 06D1     		bne	.L17
 222:..\common\ud3core/interrupter.c ****         case 0:
 223:..\common\ud3core/interrupter.c ****             interrupter1_control_Control = INT_KILL_ALL;
 224:..\common\ud3core/interrupter.c ****         break;
 225:..\common\ud3core/interrupter.c ****         case 1:
 226:..\common\ud3core/interrupter.c ****             interrupter1_control_Control = INT_EXT_ENA;
 227:..\common\ud3core/interrupter.c ****         break;
 228:..\common\ud3core/interrupter.c ****         case 2:
 229:..\common\ud3core/interrupter.c ****             interrupter1_control_Control = INT_EXT_ENA | INT_EXT_INV;
 316              		.loc 1 229 0
 317 002e 0C22     		movs	r2, #12
 318              	.LVL18:
 319 0030 02E0     		b	.L21
 320              	.L19:
 223:..\common\ud3core/interrupter.c ****         break;
 321              		.loc 1 223 0
 322 0032 0022     		movs	r2, #0
 323 0034 00E0     		b	.L21
 324              	.L18:
 226:..\common\ud3core/interrupter.c ****         break;
 325              		.loc 1 226 0
 326 0036 0422     		movs	r2, #4
 327              	.L21:
 328              		.loc 1 229 0
 329 0038 074B     		ldr	r3, .L22+24
ARM GAS  C:\Users\chemi\AppData\Local\Temp\ccCrVjov.s 			page 11


 330 003a 1A70     		strb	r2, [r3]
 331              	.L17:
 230:..\common\ud3core/interrupter.c ****         break;
 231:..\common\ud3core/interrupter.c ****     }
 232:..\common\ud3core/interrupter.c ****   
 233:..\common\ud3core/interrupter.c ****     CyGlobalIntEnable;
 332              		.loc 1 233 0
 333              		.syntax unified
 334              	@ 233 "..\common\ud3core\interrupter.c" 1
 335 003c 62B6     		CPSIE   i
 336              	@ 0 "" 2
 337              		.thumb
 338              		.syntax unified
 339 003e 7047     		bx	lr
 340              	.L23:
 341              		.align	2
 342              	.L22:
 343 0040 00000000 		.word	params
 344 0044 00000000 		.word	ct1_dac_val
 345 0048 00000000 		.word	param
 346 004c 00000000 		.word	configuration
 347 0050 00000000 		.word	int1_prd
 348 0054 00000000 		.word	int1_cmp
 349 0058 7D640040 		.word	1073767549
 350              		.cfi_endproc
 351              	.LFE76:
 352              		.size	interrupter_update_ext, .-interrupter_update_ext
 353              		.section	.text.callback_ext_interrupter,"ax",%progbits
 354              		.align	1
 355              		.global	callback_ext_interrupter
 356              		.thumb
 357              		.thumb_func
 358              		.type	callback_ext_interrupter, %function
 359              	callback_ext_interrupter:
 360              	.LFB77:
 234:..\common\ud3core/interrupter.c **** }
 235:..\common\ud3core/interrupter.c **** 
 236:..\common\ud3core/interrupter.c **** uint8_t callback_ext_interrupter(parameter_entry * params, uint8_t index, TERMINAL_HANDLE * handle)
 361              		.loc 1 236 0
 362              		.cfi_startproc
 363              		@ args = 0, pretend = 0, frame = 0
 364              		@ frame_needed = 0, uses_anonymous_args = 0
 365              	.LVL19:
 366 0000 38B5     		push	{r3, r4, r5, lr}
 367              		.cfi_def_cfa_offset 16
 368              		.cfi_offset 3, -16
 369              		.cfi_offset 4, -12
 370              		.cfi_offset 5, -8
 371              		.cfi_offset 14, -4
 237:..\common\ud3core/interrupter.c ****     if(configuration.ext_interrupter){
 372              		.loc 1 237 0
 373 0002 0B4B     		ldr	r3, .L27
 374 0004 93F85B40 		ldrb	r4, [r3, #91]	@ zero_extendqisi2
 375 0008 3CB1     		cbz	r4, .L25
 238:..\common\ud3core/interrupter.c ****         alarm_push(ALM_PRIO_WARN, "INT: External interrupter active", configuration.ext_interrupter
 376              		.loc 1 238 0
 377 000a 2246     		mov	r2, r4
ARM GAS  C:\Users\chemi\AppData\Local\Temp\ccCrVjov.s 			page 12


 378              	.LVL20:
 379 000c 0949     		ldr	r1, .L27+4
 380              	.LVL21:
 381 000e 0120     		movs	r0, #1
 382              	.LVL22:
 383 0010 FFF7FEFF 		bl	alarm_push
 384              	.LVL23:
 239:..\common\ud3core/interrupter.c ****         interrupter_update_ext();
 385              		.loc 1 239 0
 386 0014 FFF7FEFF 		bl	interrupter_update_ext
 387              	.LVL24:
 388 0018 08E0     		b	.L26
 389              	.LVL25:
 390              	.L25:
 391              	.LBB2:
 240:..\common\ud3core/interrupter.c ****     }else{
 241:..\common\ud3core/interrupter.c ****         uint8 sfflag = system_fault_Read();
 392              		.loc 1 241 0
 393 001a FFF7FEFF 		bl	system_fault_Read
 394              	.LVL26:
 395 001e 0546     		mov	r5, r0
 396              	.LVL27:
 242:..\common\ud3core/interrupter.c ****         sysflt_set(pdFALSE); //halt tesla coil operation during updates!
 397              		.loc 1 242 0
 398 0020 2046     		mov	r0, r4
 399 0022 FFF7FEFF 		bl	sysflt_set
 400              	.LVL28:
 243:..\common\ud3core/interrupter.c ****         interrupter1_control_Control = INT_KILL_ALL;
 401              		.loc 1 243 0
 402 0026 044B     		ldr	r3, .L27+8
 403 0028 1C70     		strb	r4, [r3]
 244:..\common\ud3core/interrupter.c ****         system_fault_Control = sfflag;
 404              		.loc 1 244 0
 405 002a 5D70     		strb	r5, [r3, #1]
 406              	.LVL29:
 407              	.L26:
 408              	.LBE2:
 245:..\common\ud3core/interrupter.c ****     }
 246:..\common\ud3core/interrupter.c ****     return pdPASS;
 247:..\common\ud3core/interrupter.c **** }
 409              		.loc 1 247 0
 410 002c 0120     		movs	r0, #1
 411 002e 38BD     		pop	{r3, r4, r5, pc}
 412              	.L28:
 413              		.align	2
 414              	.L27:
 415 0030 00000000 		.word	configuration
 416 0034 00000000 		.word	.LC0
 417 0038 7D640040 		.word	1073767549
 418              		.cfi_endproc
 419              	.LFE77:
 420              		.size	callback_ext_interrupter, .-callback_ext_interrupter
 421              		.section	.text.callback_interrupter_mod,"ax",%progbits
 422              		.align	1
 423              		.global	callback_interrupter_mod
 424              		.thumb
 425              		.thumb_func
ARM GAS  C:\Users\chemi\AppData\Local\Temp\ccCrVjov.s 			page 13


 426              		.type	callback_interrupter_mod, %function
 427              	callback_interrupter_mod:
 428              	.LFB78:
 248:..\common\ud3core/interrupter.c **** 
 249:..\common\ud3core/interrupter.c **** uint8_t callback_interrupter_mod(parameter_entry * params, uint8_t index, TERMINAL_HANDLE * handle)
 429              		.loc 1 249 0
 430              		.cfi_startproc
 431              		@ args = 0, pretend = 0, frame = 0
 432              		@ frame_needed = 0, uses_anonymous_args = 0
 433              		@ link register save eliminated.
 434              	.LVL30:
 250:..\common\ud3core/interrupter.c ****     //modulation change no longer supported!
 251:..\common\ud3core/interrupter.c ****     
 252:..\common\ud3core/interrupter.c ****     return pdPASS;
 253:..\common\ud3core/interrupter.c **** }
 435              		.loc 1 253 0
 436 0000 0120     		movs	r0, #1
 437              	.LVL31:
 438 0002 7047     		bx	lr
 439              		.cfi_endproc
 440              	.LFE78:
 441              		.size	callback_interrupter_mod, .-callback_interrupter_mod
 442              		.section	.text.interrupter_updateTR,"ax",%progbits
 443              		.align	1
 444              		.global	interrupter_updateTR
 445              		.thumb
 446              		.thumb_func
 447              		.type	interrupter_updateTR, %function
 448              	interrupter_updateTR:
 449              	.LFB79:
 254:..\common\ud3core/interrupter.c **** 
 255:..\common\ud3core/interrupter.c **** void interrupter_updateTR() {
 450              		.loc 1 255 0
 451              		.cfi_startproc
 452              		@ args = 0, pretend = 0, frame = 0
 453              		@ frame_needed = 0, uses_anonymous_args = 0
 454 0000 37B5     		push	{r0, r1, r2, r4, r5, lr}
 455              		.cfi_def_cfa_offset 24
 456              		.cfi_offset 4, -12
 457              		.cfi_offset 5, -8
 458              		.cfi_offset 14, -4
 256:..\common\ud3core/interrupter.c ****     //are we in tr mode?
 257:..\common\ud3core/interrupter.c ****     if(param.synth != SYNTH_TR) return;
 459              		.loc 1 257 0
 460 0002 0E48     		ldr	r0, .L37
 461 0004 90F82030 		ldrb	r3, [r0, #32]	@ zero_extendqisi2
 462 0008 032B     		cmp	r3, #3
 463 000a 14D1     		bne	.L30
 464              	.LBB5:
 465              	.LBB6:
 258:..\common\ud3core/interrupter.c ****     
 259:..\common\ud3core/interrupter.c ****     //interrupter no longer generates pulses itself, thats all done by siggen. So instead of updati
 260:..\common\ud3core/interrupter.c ****     if(param.pwd == 0) return;
 466              		.loc 1 260 0
 467 000c 4288     		ldrh	r2, [r0, #2]
 468 000e 92B1     		cbz	r2, .L30
 261:..\common\ud3core/interrupter.c ****     int32_t frequency_dHz = 10000000 / param.pwd;
ARM GAS  C:\Users\chemi\AppData\Local\Temp\ccCrVjov.s 			page 14


 469              		.loc 1 261 0
 470 0010 0B4B     		ldr	r3, .L37+4
 262:..\common\ud3core/interrupter.c ****     SigGen_setVoiceTR(1, param.pw, MAX_VOL, frequency_dHz, param.burst_on * 1000, (param.burst_on =
 471              		.loc 1 262 0
 472 0012 4FF47A74 		mov	r4, #1000
 261:..\common\ud3core/interrupter.c ****     int32_t frequency_dHz = 10000000 / param.pwd;
 473              		.loc 1 261 0
 474 0016 93FBF2F3 		sdiv	r3, r3, r2
 475              	.LVL32:
 476              		.loc 1 262 0
 477 001a 828B     		ldrh	r2, [r0, #28]
 478 001c 0188     		ldrh	r1, [r0]
 479 001e 04FB02F5 		mul	r5, r4, r2
 480 0022 0AB1     		cbz	r2, .L32
 481 0024 C28B     		ldrh	r2, [r0, #30]
 482 0026 6243     		muls	r2, r4, r2
 483              	.L32:
 484 0028 0192     		str	r2, [sp, #4]
 485 002a 0095     		str	r5, [sp]
 486 002c 47F6FF72 		movw	r2, #32767
 487 0030 0120     		movs	r0, #1
 488 0032 FFF7FEFF 		bl	SigGen_setVoiceTR
 489              	.LVL33:
 490              	.L30:
 491              	.LBE6:
 492              	.LBE5:
 263:..\common\ud3core/interrupter.c **** }
 493              		.loc 1 263 0
 494 0036 03B0     		add	sp, sp, #12
 495              		.cfi_def_cfa_offset 12
 496              		@ sp needed
 497 0038 30BD     		pop	{r4, r5, pc}
 498              	.L38:
 499 003a 00BF     		.align	2
 500              	.L37:
 501 003c 00000000 		.word	param
 502 0040 80969800 		.word	10000000
 503              		.cfi_endproc
 504              	.LFE79:
 505              		.size	interrupter_updateTR, .-interrupter_updateTR
 506              		.section	.text.interrupter_kill,"ax",%progbits
 507              		.align	1
 508              		.global	interrupter_kill
 509              		.thumb
 510              		.thumb_func
 511              		.type	interrupter_kill, %function
 512              	interrupter_kill:
 513              	.LFB68:
  45:..\common\ud3core/interrupter.c ****     sysfault.interlock = 1;
 514              		.loc 1 45 0
 515              		.cfi_startproc
 516              		@ args = 0, pretend = 0, frame = 0
 517              		@ frame_needed = 0, uses_anonymous_args = 0
 518 0000 08B5     		push	{r3, lr}
 519              		.cfi_def_cfa_offset 8
 520              		.cfi_offset 3, -8
 521              		.cfi_offset 14, -4
ARM GAS  C:\Users\chemi\AppData\Local\Temp\ccCrVjov.s 			page 15


  46:..\common\ud3core/interrupter.c ****     SigGen_killAudio();
 522              		.loc 1 46 0
 523 0002 064B     		ldr	r3, .L40
 524 0004 0122     		movs	r2, #1
 525 0006 1A72     		strb	r2, [r3, #8]
  47:..\common\ud3core/interrupter.c ****     param.pw=0;
 526              		.loc 1 47 0
 527 0008 FFF7FEFF 		bl	SigGen_killAudio
 528              	.LVL34:
  48:..\common\ud3core/interrupter.c ****     interrupter_updateTR();
 529              		.loc 1 48 0
 530 000c 044B     		ldr	r3, .L40+4
 531 000e 0022     		movs	r2, #0
 532 0010 1A80     		strh	r2, [r3]	@ movhi
  50:..\common\ud3core/interrupter.c **** 
 533              		.loc 1 50 0
 534 0012 BDE80840 		pop	{r3, lr}
 535              		.cfi_restore 14
 536              		.cfi_restore 3
 537              		.cfi_def_cfa_offset 0
  49:..\common\ud3core/interrupter.c **** }
 538              		.loc 1 49 0
 539 0016 FFF7FEBF 		b	interrupter_updateTR
 540              	.LVL35:
 541              	.L41:
 542 001a 00BF     		.align	2
 543              	.L40:
 544 001c 00000000 		.word	sysfault
 545 0020 00000000 		.word	param
 546              		.cfi_endproc
 547              	.LFE68:
 548              		.size	interrupter_kill, .-interrupter_kill
 549              		.section	.text.critical_error,"ax",%progbits
 550              		.align	1
 551              		.global	critical_error
 552              		.thumb
 553              		.thumb_func
 554              		.type	critical_error, %function
 555              	critical_error:
 556              	.LFB70:
  68:..\common\ud3core/interrupter.c ****     alarm_push(ALM_PRIO_CRITICAL, message, val);
 557              		.loc 1 68 0
 558              		.cfi_startproc
 559              		@ args = 0, pretend = 0, frame = 0
 560              		@ frame_needed = 0, uses_anonymous_args = 0
 561              	.LVL36:
 562 0000 08B5     		push	{r3, lr}
 563              		.cfi_def_cfa_offset 8
 564              		.cfi_offset 3, -8
 565              		.cfi_offset 14, -4
  69:..\common\ud3core/interrupter.c ****     interrupter_kill();
 566              		.loc 1 69 0
 567 0002 0A46     		mov	r2, r1
 568 0004 0146     		mov	r1, r0
 569              	.LVL37:
 570 0006 0320     		movs	r0, #3
 571              	.LVL38:
ARM GAS  C:\Users\chemi\AppData\Local\Temp\ccCrVjov.s 			page 16


 572 0008 FFF7FEFF 		bl	alarm_push
 573              	.LVL39:
  71:..\common\ud3core/interrupter.c **** 
 574              		.loc 1 71 0
 575 000c BDE80840 		pop	{r3, lr}
 576              		.cfi_restore 14
 577              		.cfi_restore 3
 578              		.cfi_def_cfa_offset 0
  70:..\common\ud3core/interrupter.c **** }
 579              		.loc 1 70 0
 580 0010 FFF7FEBF 		b	interrupter_kill
 581              	.LVL40:
 582              		.cfi_endproc
 583              	.LFE70:
 584              		.size	critical_error, .-critical_error
 585              		.section	.text.interrupter_init_safe,"ax",%progbits
 586              		.align	1
 587              		.global	interrupter_init_safe
 588              		.thumb
 589              		.thumb_func
 590              		.type	interrupter_init_safe, %function
 591              	interrupter_init_safe:
 592              	.LFB72:
 119:..\common\ud3core/interrupter.c ****         // Safe defaults in case anything fails.
 593              		.loc 1 119 0
 594              		.cfi_startproc
 595              		@ args = 0, pretend = 0, frame = 0
 596              		@ frame_needed = 0, uses_anonymous_args = 0
 597 0000 38B5     		push	{r3, r4, r5, lr}
 598              		.cfi_def_cfa_offset 16
 599              		.cfi_offset 3, -16
 600              		.cfi_offset 4, -12
 601              		.cfi_offset 5, -8
 602              		.cfi_offset 14, -4
 121:..\common\ud3core/interrupter.c ****    
 603              		.loc 1 121 0
 604 0002 FFF7FEFF 		bl	interrupter_kill
 605              	.LVL41:
 124:..\common\ud3core/interrupter.c **** 
 606              		.loc 1 124 0
 607 0006 4FF6E753 		movw	r3, #64999
 123:..\common\ud3core/interrupter.c **** 	int1_cmp = 64999;
 608              		.loc 1 123 0
 609 000a 4FF6E850 		movw	r0, #65000
 610 000e 074C     		ldr	r4, .L44
 124:..\common\ud3core/interrupter.c **** 
 611              		.loc 1 124 0
 612 0010 074D     		ldr	r5, .L44+4
 123:..\common\ud3core/interrupter.c **** 	int1_cmp = 64999;
 613              		.loc 1 123 0
 614 0012 2080     		strh	r0, [r4]	@ movhi
 124:..\common\ud3core/interrupter.c **** 
 615              		.loc 1 124 0
 616 0014 2B80     		strh	r3, [r5]	@ movhi
 127:..\common\ud3core/interrupter.c **** 	interrupter1_WriteCompare1(int1_cmp);      // pwm1 will be true for one clock, then false.  int1_p
 617              		.loc 1 127 0
 618 0016 FFF7FEFF 		bl	interrupter1_WritePeriod
ARM GAS  C:\Users\chemi\AppData\Local\Temp\ccCrVjov.s 			page 17


 619              	.LVL42:
 128:..\common\ud3core/interrupter.c ****   	interrupter1_WriteCompare2(int1_prd);      // pwm2 will be false for one clock then true
 620              		.loc 1 128 0
 621 001a 2888     		ldrh	r0, [r5]
 622 001c FFF7FEFF 		bl	interrupter1_WriteCompare1
 623              	.LVL43:
 129:..\common\ud3core/interrupter.c ****   
 624              		.loc 1 129 0
 625 0020 2088     		ldrh	r0, [r4]
 131:..\common\ud3core/interrupter.c **** 
 626              		.loc 1 131 0
 627 0022 BDE83840 		pop	{r3, r4, r5, lr}
 628              		.cfi_restore 14
 629              		.cfi_restore 5
 630              		.cfi_restore 4
 631              		.cfi_restore 3
 632              		.cfi_def_cfa_offset 0
 129:..\common\ud3core/interrupter.c ****   
 633              		.loc 1 129 0
 634 0026 FFF7FEBF 		b	interrupter1_WriteCompare2
 635              	.LVL44:
 636              	.L45:
 637 002a 00BF     		.align	2
 638              	.L44:
 639 002c 00000000 		.word	int1_prd
 640 0030 00000000 		.word	int1_cmp
 641              		.cfi_endproc
 642              	.LFE72:
 643              		.size	interrupter_init_safe, .-interrupter_init_safe
 644              		.section	.text.configure_interrupter,"ax",%progbits
 645              		.align	1
 646              		.global	configure_interrupter
 647              		.thumb
 648              		.thumb_func
 649              		.type	configure_interrupter, %function
 650              	configure_interrupter:
 651              	.LFB73:
 135:..\common\ud3core/interrupter.c **** 
 652              		.loc 1 135 0
 653              		.cfi_startproc
 654              		@ args = 0, pretend = 0, frame = 0
 655              		@ frame_needed = 0, uses_anonymous_args = 0
 656 0000 08B5     		push	{r3, lr}
 657              		.cfi_def_cfa_offset 8
 658              		.cfi_offset 3, -8
 659              		.cfi_offset 14, -4
 138:..\common\ud3core/interrupter.c **** 
 660              		.loc 1 138 0
 661 0002 FFF7FEFF 		bl	interrupter_init_safe
 662              	.LVL45:
 141:..\common\ud3core/interrupter.c ****     
 663              		.loc 1 141 0
 664 0006 064B     		ldr	r3, .L47
 665 0008 DA88     		ldrh	r2, [r3, #6]
 666 000a 064B     		ldr	r3, .L47+4
 667 000c 93FBF2F3 		sdiv	r3, r3, r2
 668 0010 054A     		ldr	r2, .L47+8
ARM GAS  C:\Users\chemi\AppData\Local\Temp\ccCrVjov.s 			page 18


 669 0012 9BB2     		uxth	r3, r3
 670 0014 5382     		strh	r3, [r2, #18]	@ movhi
 144:..\common\ud3core/interrupter.c **** }
 671              		.loc 1 144 0
 672 0016 054B     		ldr	r3, .L47+12
 673 0018 0022     		movs	r2, #0
 674 001a 1A71     		strb	r2, [r3, #4]
 675 001c 08BD     		pop	{r3, pc}
 676              	.L48:
 677 001e 00BF     		.align	2
 678              	.L47:
 679 0020 00000000 		.word	configuration
 680 0024 40420F00 		.word	1000000
 681 0028 00000000 		.word	params
 682 002c 00000000 		.word	interrupter
 683              		.cfi_endproc
 684              	.LFE73:
 685              		.size	configure_interrupter, .-configure_interrupter
 686              		.section	.text.initialize_interrupter,"ax",%progbits
 687              		.align	1
 688              		.global	initialize_interrupter
 689              		.thumb
 690              		.thumb_func
 691              		.type	initialize_interrupter, %function
 692              	initialize_interrupter:
 693              	.LFB71:
  74:..\common\ud3core/interrupter.c ****     //initialize both signal generator and duty compressor
 694              		.loc 1 74 0
 695              		.cfi_startproc
 696              		@ args = 0, pretend = 0, frame = 8
 697              		@ frame_needed = 0, uses_anonymous_args = 0
 698 0000 2DE9F347 		push	{r0, r1, r4, r5, r6, r7, r8, r9, r10, lr}
 699              		.cfi_def_cfa_offset 40
 700              		.cfi_offset 4, -32
 701              		.cfi_offset 5, -28
 702              		.cfi_offset 6, -24
 703              		.cfi_offset 7, -20
 704              		.cfi_offset 8, -16
 705              		.cfi_offset 9, -12
 706              		.cfi_offset 10, -8
 707              		.cfi_offset 14, -4
  76:..\common\ud3core/interrupter.c ****     Comp_init();
 708              		.loc 1 76 0
 709 0004 FFF7FEFF 		bl	SigGen_init
 710              	.LVL46:
  77:..\common\ud3core/interrupter.c ****     
 711              		.loc 1 77 0
 712 0008 FFF7FEFF 		bl	Comp_init
 713              	.LVL47:
  79:..\common\ud3core/interrupter.c **** 
 714              		.loc 1 79 0
 715 000c FFF7FEFF 		bl	Opamp_2_Start
 716              	.LVL48:
  83:..\common\ud3core/interrupter.c ****     
 717              		.loc 1 83 0
 718 0010 4FF6E753 		movw	r3, #64999
  82:..\common\ud3core/interrupter.c **** 	int1_cmp = 64999;
ARM GAS  C:\Users\chemi\AppData\Local\Temp\ccCrVjov.s 			page 19


 719              		.loc 1 82 0
 720 0014 4FF6E850 		movw	r0, #65000
 721 0018 354C     		ldr	r4, .L53
  83:..\common\ud3core/interrupter.c ****     
 722              		.loc 1 83 0
 723 001a 364E     		ldr	r6, .L53+4
  82:..\common\ud3core/interrupter.c **** 	int1_cmp = 64999;
 724              		.loc 1 82 0
 725 001c 2080     		strh	r0, [r4]	@ movhi
  83:..\common\ud3core/interrupter.c ****     
 726              		.loc 1 83 0
 727 001e 3380     		strh	r3, [r6]	@ movhi
  85:..\common\ud3core/interrupter.c **** 	interrupter1_WriteCompare1(int1_cmp);      // pwm1 will be true for one clock, then false.  int1_p
 728              		.loc 1 85 0
 729 0020 FFF7FEFF 		bl	interrupter1_WritePeriod
 730              	.LVL49:
  86:..\common\ud3core/interrupter.c ****   	interrupter1_WriteCompare2(int1_prd);      // pwm2 will be false for one clock then true.  This 
 731              		.loc 1 86 0
 732 0024 3088     		ldrh	r0, [r6]
 733 0026 FFF7FEFF 		bl	interrupter1_WriteCompare1
 734              	.LVL50:
  87:..\common\ud3core/interrupter.c **** 
 735              		.loc 1 87 0
 736 002a 2088     		ldrh	r0, [r4]
 737 002c FFF7FEFF 		bl	interrupter1_WriteCompare2
 738              	.LVL51:
  90:..\common\ud3core/interrupter.c ****     
 739              		.loc 1 90 0
 740 0030 FFF7FEFF 		bl	interrupter1_Start
 741              	.LVL52:
  94:..\common\ud3core/interrupter.c **** 										   HI16(int1_dma_SRC_BASE), HI16(int1_dma_DST_BASE));
 742              		.loc 1 94 0
 743 0034 4FF48043 		mov	r3, #16384
 744 0038 41F6FF72 		movw	r2, #8191
 745 003c 0121     		movs	r1, #1
 746 003e 0820     		movs	r0, #8
 747 0040 FFF7FEFF 		bl	int1_dma_DmaInitialize
 748              	.LVL53:
 749 0044 2C4D     		ldr	r5, .L53+8
 750              	.LBB7:
  97:..\common\ud3core/interrupter.c ****     	int1_dma_TD[i] = CyDmaTdAllocate();
 751              		.loc 1 97 0
 752 0046 0027     		movs	r7, #0
 753              	.LBE7:
  94:..\common\ud3core/interrupter.c **** 										   HI16(int1_dma_SRC_BASE), HI16(int1_dma_DST_BASE));
 754              		.loc 1 94 0
 755 0048 2870     		strb	r0, [r5]
 756              	.LVL54:
 757              	.L51:
 758              	.LBB8:
  98:..\common\ud3core/interrupter.c ****         if(int1_dma_TD[i] == DMA_INVALID_TD)
 759              		.loc 1 98 0
 760 004a FFF7FEFF 		bl	CyDmaTdAllocate
 761              	.LVL55:
 762 004e 01AB     		add	r3, sp, #4
  99:..\common\ud3core/interrupter.c ****             critical_error("CyDmaTdAllocate failure INT", i);
 763              		.loc 1 99 0
ARM GAS  C:\Users\chemi\AppData\Local\Temp\ccCrVjov.s 			page 20


 764 0050 FF28     		cmp	r0, #255
  98:..\common\ud3core/interrupter.c ****         if(int1_dma_TD[i] == DMA_INVALID_TD)
 765              		.loc 1 98 0
 766 0052 F854     		strb	r0, [r7, r3]
  99:..\common\ud3core/interrupter.c ****             critical_error("CyDmaTdAllocate failure INT", i);
 767              		.loc 1 99 0
 768 0054 03D1     		bne	.L50
 100:..\common\ud3core/interrupter.c ****     }
 769              		.loc 1 100 0
 770 0056 3946     		mov	r1, r7
 771 0058 2848     		ldr	r0, .L53+12
 772 005a FFF7FEFF 		bl	critical_error
 773              	.LVL56:
 774              	.L50:
  97:..\common\ud3core/interrupter.c ****     	int1_dma_TD[i] = CyDmaTdAllocate();
 775              		.loc 1 97 0 discriminator 2
 776 005e 0137     		adds	r7, r7, #1
 777              	.LVL57:
 778 0060 042F     		cmp	r7, #4
 779 0062 F2D1     		bne	.L51
 780              	.LBE8:
 103:..\common\ud3core/interrupter.c **** 	CyDmaTdSetConfiguration(int1_dma_TD[1], 2, int1_dma_TD[2], int1_dma__TD_TERMOUT_EN | TD_AUTO_EXEC_
 781              		.loc 1 103 0
 782 0064 9DF80470 		ldrb	r7, [sp, #4]	@ zero_extendqisi2
 783              	.LVL58:
 784 0068 9DF805A0 		ldrb	r10, [sp, #5]	@ zero_extendqisi2
 785 006c 2023     		movs	r3, #32
 786 006e 5246     		mov	r2, r10
 787 0070 0221     		movs	r1, #2
 788 0072 3846     		mov	r0, r7
 789 0074 FFF7FEFF 		bl	CyDmaTdSetConfiguration
 790              	.LVL59:
 104:..\common\ud3core/interrupter.c **** 	CyDmaTdSetConfiguration(int1_dma_TD[2], 2, int1_dma_TD[3], int1_dma__TD_TERMOUT_EN | TD_AUTO_EXEC_
 791              		.loc 1 104 0
 792 0078 9DF80690 		ldrb	r9, [sp, #6]	@ zero_extendqisi2
 793 007c 2023     		movs	r3, #32
 794 007e 4A46     		mov	r2, r9
 795 0080 0221     		movs	r1, #2
 796 0082 5046     		mov	r0, r10
 797 0084 FFF7FEFF 		bl	CyDmaTdSetConfiguration
 798              	.LVL60:
 105:..\common\ud3core/interrupter.c **** 	CyDmaTdSetConfiguration(int1_dma_TD[3], 2, int1_dma_TD[0], int1_dma__TD_TERMOUT_EN);
 799              		.loc 1 105 0
 800 0088 9DF80780 		ldrb	r8, [sp, #7]	@ zero_extendqisi2
 801 008c 2023     		movs	r3, #32
 802 008e 4246     		mov	r2, r8
 803 0090 0221     		movs	r1, #2
 804 0092 4846     		mov	r0, r9
 805 0094 FFF7FEFF 		bl	CyDmaTdSetConfiguration
 806              	.LVL61:
 108:..\common\ud3core/interrupter.c **** 	CyDmaTdSetAddress(int1_dma_TD[1], LO16((uint32)&int1_cmp), LO16((uint32)interrupter1_COMPARE1_LSB_
 807              		.loc 1 108 0
 808 0098 A4B2     		uxth	r4, r4
 106:..\common\ud3core/interrupter.c ****     
 809              		.loc 1 106 0
 810 009a 0023     		movs	r3, #0
 811 009c 3A46     		mov	r2, r7
ARM GAS  C:\Users\chemi\AppData\Local\Temp\ccCrVjov.s 			page 21


 812 009e 0221     		movs	r1, #2
 813 00a0 4046     		mov	r0, r8
 814 00a2 FFF7FEFF 		bl	CyDmaTdSetConfiguration
 815              	.LVL62:
 108:..\common\ud3core/interrupter.c **** 	CyDmaTdSetAddress(int1_dma_TD[1], LO16((uint32)&int1_cmp), LO16((uint32)interrupter1_COMPARE1_LSB_
 816              		.loc 1 108 0
 817 00a6 2146     		mov	r1, r4
 818 00a8 46F69802 		movw	r2, #26776
 819 00ac 3846     		mov	r0, r7
 820 00ae FFF7FEFF 		bl	CyDmaTdSetAddress
 821              	.LVL63:
 109:..\common\ud3core/interrupter.c **** 	CyDmaTdSetAddress(int1_dma_TD[2], LO16((uint32)&int1_prd), LO16((uint32)interrupter1_COMPARE2_LSB_
 822              		.loc 1 109 0
 823 00b2 B1B2     		uxth	r1, r6
 824 00b4 46F65802 		movw	r2, #26712
 825 00b8 5046     		mov	r0, r10
 826 00ba FFF7FEFF 		bl	CyDmaTdSetAddress
 827              	.LVL64:
 110:..\common\ud3core/interrupter.c **** 	CyDmaTdSetAddress(int1_dma_TD[3], LO16((uint32)&int1_prd), LO16((uint32)interrupter1_COUNTER_LSB_P
 828              		.loc 1 110 0
 829 00be 2146     		mov	r1, r4
 830 00c0 46F67802 		movw	r2, #26744
 831 00c4 4846     		mov	r0, r9
 832 00c6 FFF7FEFF 		bl	CyDmaTdSetAddress
 833              	.LVL65:
 111:..\common\ud3core/interrupter.c **** 	CyDmaChSetInitialTd(int1_dma_Chan, int1_dma_TD[0]);
 834              		.loc 1 111 0
 835 00ca 46F61802 		movw	r2, #26648
 836 00ce 2146     		mov	r1, r4
 837 00d0 4046     		mov	r0, r8
 838 00d2 FFF7FEFF 		bl	CyDmaTdSetAddress
 839              	.LVL66:
 112:..\common\ud3core/interrupter.c ****     
 840              		.loc 1 112 0
 841 00d6 3946     		mov	r1, r7
 842 00d8 2878     		ldrb	r0, [r5]	@ zero_extendqisi2
 843 00da FFF7FEFF 		bl	CyDmaChSetInitialTd
 844              	.LVL67:
 114:..\common\ud3core/interrupter.c ****     
 845              		.loc 1 114 0
 846 00de 0121     		movs	r1, #1
 847 00e0 2878     		ldrb	r0, [r5]	@ zero_extendqisi2
 848 00e2 FFF7FEFF 		bl	CyDmaChEnable
 849              	.LVL68:
 117:..\common\ud3core/interrupter.c **** 
 850              		.loc 1 117 0
 851 00e6 02B0     		add	sp, sp, #8
 852              		.cfi_def_cfa_offset 32
 853              		@ sp needed
 854 00e8 BDE8F047 		pop	{r4, r5, r6, r7, r8, r9, r10, lr}
 855              		.cfi_restore 14
 856              		.cfi_restore 10
 857              		.cfi_restore 9
 858              		.cfi_restore 8
 859              		.cfi_restore 7
 860              		.cfi_restore 6
 861              		.cfi_restore 5
ARM GAS  C:\Users\chemi\AppData\Local\Temp\ccCrVjov.s 			page 22


 862              		.cfi_restore 4
 863              		.cfi_def_cfa_offset 0
 116:..\common\ud3core/interrupter.c **** }
 864              		.loc 1 116 0
 865 00ec FFF7FEBF 		b	configure_interrupter
 866              	.LVL69:
 867              	.L54:
 868              		.align	2
 869              	.L53:
 870 00f0 00000000 		.word	int1_prd
 871 00f4 00000000 		.word	int1_cmp
 872 00f8 00000000 		.word	int1_dma_Chan
 873 00fc 21000000 		.word	.LC1
 874              		.cfi_endproc
 875              	.LFE71:
 876              		.size	initialize_interrupter, .-initialize_interrupter
 877              		.section	.text.callback_SynthFunction,"ax",%progbits
 878              		.align	1
 879              		.global	callback_SynthFunction
 880              		.thumb
 881              		.thumb_func
 882              		.type	callback_SynthFunction, %function
 883              	callback_SynthFunction:
 884              	.LFB80:
 264:..\common\ud3core/interrupter.c **** 
 265:..\common\ud3core/interrupter.c **** //synth parameter was changed => update siggen mode
 266:..\common\ud3core/interrupter.c **** uint8_t callback_SynthFunction(parameter_entry * params, uint8_t index, TERMINAL_HANDLE * handle){
 885              		.loc 1 266 0
 886              		.cfi_startproc
 887              		@ args = 0, pretend = 0, frame = 0
 888              		@ frame_needed = 0, uses_anonymous_args = 0
 889              	.LVL70:
 890 0000 08B5     		push	{r3, lr}
 891              		.cfi_def_cfa_offset 8
 892              		.cfi_offset 3, -8
 893              		.cfi_offset 14, -4
 267:..\common\ud3core/interrupter.c ****     //this also needs to reset both vms and sid
 268:..\common\ud3core/interrupter.c ****     SidProcessor_resetSid();
 894              		.loc 1 268 0
 895 0002 FFF7FEFF 		bl	SidProcessor_resetSid
 896              	.LVL71:
 269:..\common\ud3core/interrupter.c ****     MidiProcessor_resetMidi();
 897              		.loc 1 269 0
 898 0006 FFF7FEFF 		bl	MidiProcessor_resetMidi
 899              	.LVL72:
 270:..\common\ud3core/interrupter.c ****     SigGen_switchSynthMode(param.synth);
 900              		.loc 1 270 0
 901 000a 034B     		ldr	r3, .L56
 902 000c 93F82000 		ldrb	r0, [r3, #32]	@ zero_extendqisi2
 903 0010 FFF7FEFF 		bl	SigGen_switchSynthMode
 904              	.LVL73:
 271:..\common\ud3core/interrupter.c ****     return 1;
 272:..\common\ud3core/interrupter.c **** }
 905              		.loc 1 272 0
 906 0014 0120     		movs	r0, #1
 907 0016 08BD     		pop	{r3, pc}
 908              	.L57:
ARM GAS  C:\Users\chemi\AppData\Local\Temp\ccCrVjov.s 			page 23


 909              		.align	2
 910              	.L56:
 911 0018 00000000 		.word	param
 912              		.cfi_endproc
 913              	.LFE80:
 914              		.size	callback_SynthFunction, .-callback_SynthFunction
 915              		.section	.text.callback_PWFunction,"ax",%progbits
 916              		.align	1
 917              		.global	callback_PWFunction
 918              		.thumb
 919              		.thumb_func
 920              		.type	callback_PWFunction, %function
 921              	callback_PWFunction:
 922              	.LFB81:
 273:..\common\ud3core/interrupter.c **** 
 274:..\common\ud3core/interrupter.c **** /*****************************************************************************
 275:..\common\ud3core/interrupter.c **** * Callback if a transient mode parameter is changed
 276:..\common\ud3core/interrupter.c **** * Updates the interrupter hardware
 277:..\common\ud3core/interrupter.c **** ******************************************************************************/
 278:..\common\ud3core/interrupter.c **** uint8_t callback_PWFunction(parameter_entry * params, uint8_t index, TERMINAL_HANDLE * handle) {
 923              		.loc 1 278 0
 924              		.cfi_startproc
 925              		@ args = 0, pretend = 0, frame = 0
 926              		@ frame_needed = 0, uses_anonymous_args = 0
 927              	.LVL74:
 928 0000 08B5     		push	{r3, lr}
 929              		.cfi_def_cfa_offset 8
 930              		.cfi_offset 3, -8
 931              		.cfi_offset 14, -4
 279:..\common\ud3core/interrupter.c ****     
 280:..\common\ud3core/interrupter.c ****    if(configuration.ext_interrupter){
 932              		.loc 1 280 0
 933 0002 0A4B     		ldr	r3, .L62
 934 0004 93F85B30 		ldrb	r3, [r3, #91]	@ zero_extendqisi2
 935 0008 13B1     		cbz	r3, .L59
 281:..\common\ud3core/interrupter.c ****         interrupter_update_ext();
 936              		.loc 1 281 0
 937 000a FFF7FEFF 		bl	interrupter_update_ext
 938              	.LVL75:
 939 000e 0BE0     		b	.L60
 940              	.LVL76:
 941              	.L59:
 282:..\common\ud3core/interrupter.c ****     }else if(param.synth == SYNTH_TR){
 942              		.loc 1 282 0
 943 0010 074B     		ldr	r3, .L62+4
 944 0012 93F82030 		ldrb	r3, [r3, #32]	@ zero_extendqisi2
 945 0016 032B     		cmp	r3, #3
 946 0018 02D1     		bne	.L61
 283:..\common\ud3core/interrupter.c ****         interrupter_updateTR();
 947              		.loc 1 283 0
 948 001a FFF7FEFF 		bl	interrupter_updateTR
 949              	.LVL77:
 950 001e 03E0     		b	.L60
 951              	.LVL78:
 952              	.L61:
 284:..\common\ud3core/interrupter.c ****     }else if(param.synth == SYNTH_MIDI){
 953              		.loc 1 284 0
ARM GAS  C:\Users\chemi\AppData\Local\Temp\ccCrVjov.s 			page 24


 954 0020 012B     		cmp	r3, #1
 955 0022 01D1     		bne	.L60
 285:..\common\ud3core/interrupter.c ****         VMSW_pulseWidthChangeHandler();
 956              		.loc 1 285 0
 957 0024 FFF7FEFF 		bl	VMSW_pulseWidthChangeHandler
 958              	.LVL79:
 959              	.L60:
 286:..\common\ud3core/interrupter.c ****     }
 287:..\common\ud3core/interrupter.c **** 
 288:..\common\ud3core/interrupter.c **** 	return pdPASS;
 289:..\common\ud3core/interrupter.c **** }
 960              		.loc 1 289 0
 961 0028 0120     		movs	r0, #1
 962 002a 08BD     		pop	{r3, pc}
 963              	.L63:
 964              		.align	2
 965              	.L62:
 966 002c 00000000 		.word	configuration
 967 0030 00000000 		.word	param
 968              		.cfi_endproc
 969              	.LFE81:
 970              		.size	callback_PWFunction, .-callback_PWFunction
 971              		.section	.text.callback_VolFunction,"ax",%progbits
 972              		.align	1
 973              		.global	callback_VolFunction
 974              		.thumb
 975              		.thumb_func
 976              		.type	callback_VolFunction, %function
 977              	callback_VolFunction:
 978              	.LFB82:
 290:..\common\ud3core/interrupter.c **** 
 291:..\common\ud3core/interrupter.c **** /*****************************************************************************
 292:..\common\ud3core/interrupter.c **** * Callback if a transient mode parameter is changed (percent ontime)
 293:..\common\ud3core/interrupter.c **** * Updates the interrupter hardware
 294:..\common\ud3core/interrupter.c **** ******************************************************************************/
 295:..\common\ud3core/interrupter.c **** uint8_t callback_VolFunction(parameter_entry * params, uint8_t index, TERMINAL_HANDLE * handle) {
 979              		.loc 1 295 0
 980              		.cfi_startproc
 981              		@ args = 0, pretend = 0, frame = 0
 982              		@ frame_needed = 0, uses_anonymous_args = 0
 983              	.LVL80:
 984 0000 08B5     		push	{r3, lr}
 985              		.cfi_def_cfa_offset 8
 986              		.cfi_offset 3, -8
 987              		.cfi_offset 14, -4
 296:..\common\ud3core/interrupter.c ****     SigGen_setMasterVol(param.vol);
 988              		.loc 1 296 0
 989 0002 034B     		ldr	r3, .L65
 990 0004 9888     		ldrh	r0, [r3, #4]
 991              	.LVL81:
 992 0006 FFF7FEFF 		bl	SigGen_setMasterVol
 993              	.LVL82:
 297:..\common\ud3core/interrupter.c **** 	return pdPASS;
 298:..\common\ud3core/interrupter.c **** }
 994              		.loc 1 298 0
 995 000a 0120     		movs	r0, #1
 996 000c 08BD     		pop	{r3, pc}
ARM GAS  C:\Users\chemi\AppData\Local\Temp\ccCrVjov.s 			page 25


 997              	.L66:
 998 000e 00BF     		.align	2
 999              	.L65:
 1000 0010 00000000 		.word	param
 1001              		.cfi_endproc
 1002              	.LFE82:
 1003              		.size	callback_VolFunction, .-callback_VolFunction
 1004              		.section	.text.callback_BurstFunction,"ax",%progbits
 1005              		.align	1
 1006              		.global	callback_BurstFunction
 1007              		.thumb
 1008              		.thumb_func
 1009              		.type	callback_BurstFunction, %function
 1010              	callback_BurstFunction:
 1011              	.LFB83:
 299:..\common\ud3core/interrupter.c **** 
 300:..\common\ud3core/interrupter.c **** /*****************************************************************************
 301:..\common\ud3core/interrupter.c **** * Callback if a burst mode parameter is changed
 302:..\common\ud3core/interrupter.c **** ******************************************************************************/
 303:..\common\ud3core/interrupter.c **** uint8_t callback_BurstFunction(parameter_entry * params, uint8_t index, TERMINAL_HANDLE * handle) {
 1012              		.loc 1 303 0
 1013              		.cfi_startproc
 1014              		@ args = 0, pretend = 0, frame = 0
 1015              		@ frame_needed = 0, uses_anonymous_args = 0
 1016              	.LVL83:
 1017 0000 08B5     		push	{r3, lr}
 1018              		.cfi_def_cfa_offset 8
 1019              		.cfi_offset 3, -8
 1020              		.cfi_offset 14, -4
 304:..\common\ud3core/interrupter.c ****     interrupter_updateTR();
 1021              		.loc 1 304 0
 1022 0002 FFF7FEFF 		bl	interrupter_updateTR
 1023              	.LVL84:
 305:..\common\ud3core/interrupter.c **** 	return pdPASS;
 306:..\common\ud3core/interrupter.c **** }
 1024              		.loc 1 306 0
 1025 0006 0120     		movs	r0, #1
 1026 0008 08BD     		pop	{r3, pc}
 1027              		.cfi_endproc
 1028              	.LFE83:
 1029              		.size	callback_BurstFunction, .-callback_BurstFunction
 1030              		.section	.text.CMD_tr,"ax",%progbits
 1031              		.align	1
 1032              		.global	CMD_tr
 1033              		.thumb
 1034              		.thumb_func
 1035              		.type	CMD_tr, %function
 1036              	CMD_tr:
 1037              	.LFB84:
 307:..\common\ud3core/interrupter.c **** 
 308:..\common\ud3core/interrupter.c **** 
 309:..\common\ud3core/interrupter.c **** /*****************************************************************************
 310:..\common\ud3core/interrupter.c **** * starts or stops the transient mode (classic mode)
 311:..\common\ud3core/interrupter.c **** * also spawns a timer for the burst mode.
 312:..\common\ud3core/interrupter.c **** ******************************************************************************/
 313:..\common\ud3core/interrupter.c **** uint8_t CMD_tr(TERMINAL_HANDLE * handle, uint8_t argCount, char ** args) {
 1038              		.loc 1 313 0
ARM GAS  C:\Users\chemi\AppData\Local\Temp\ccCrVjov.s 			page 26


 1039              		.cfi_startproc
 1040              		@ args = 0, pretend = 0, frame = 0
 1041              		@ frame_needed = 0, uses_anonymous_args = 0
 1042              	.LVL85:
 1043 0000 38B5     		push	{r3, r4, r5, lr}
 1044              		.cfi_def_cfa_offset 16
 1045              		.cfi_offset 3, -16
 1046              		.cfi_offset 4, -12
 1047              		.cfi_offset 5, -8
 1048              		.cfi_offset 14, -4
 1049              		.loc 1 313 0
 1050 0002 0446     		mov	r4, r0
 314:..\common\ud3core/interrupter.c ****     
 315:..\common\ud3core/interrupter.c ****     if(argCount==0 || strcmp(args[0], "-?") == 0){
 1051              		.loc 1 315 0
 1052 0004 29B1     		cbz	r1, .L69
 1053              		.loc 1 315 0 is_stmt 0 discriminator 1
 1054 0006 1568     		ldr	r5, [r2]
 1055 0008 1349     		ldr	r1, .L77
 1056              	.LVL86:
 1057 000a 2846     		mov	r0, r5
 1058              	.LVL87:
 1059 000c FFF7FEFF 		bl	strcmp
 1060              	.LVL88:
 1061 0010 10B9     		cbnz	r0, .L70
 1062              	.L69:
 316:..\common\ud3core/interrupter.c ****         ttprintf("Transient [start/stop]");
 1063              		.loc 1 316 0 is_stmt 1
 1064 0012 636A     		ldr	r3, [r4, #36]
 1065 0014 1149     		ldr	r1, .L77+4
 1066 0016 1BE0     		b	.L76
 1067              	.L70:
 317:..\common\ud3core/interrupter.c ****         return TERM_CMD_EXIT_SUCCESS;
 318:..\common\ud3core/interrupter.c ****     }
 319:..\common\ud3core/interrupter.c ****     
 320:..\common\ud3core/interrupter.c ****     if(strcmp(args[0], "start") == 0){
 1068              		.loc 1 320 0
 1069 0018 1149     		ldr	r1, .L77+8
 1070 001a 2846     		mov	r0, r5
 1071 001c FFF7FEFF 		bl	strcmp
 1072              	.LVL89:
 1073 0020 50B9     		cbnz	r0, .L72
 321:..\common\ud3core/interrupter.c ****         //switch synth to tr mode
 322:..\common\ud3core/interrupter.c ****         param.synth = SYNTH_TR;
 1074              		.loc 1 322 0
 1075 0022 104B     		ldr	r3, .L77+12
 1076 0024 0320     		movs	r0, #3
 1077 0026 83F82000 		strb	r0, [r3, #32]
 323:..\common\ud3core/interrupter.c ****         SigGen_switchSynthMode(param.synth);
 1078              		.loc 1 323 0
 1079 002a FFF7FEFF 		bl	SigGen_switchSynthMode
 1080              	.LVL90:
 324:..\common\ud3core/interrupter.c ****         
 325:..\common\ud3core/interrupter.c ****         interrupter_updateTR();
 1081              		.loc 1 325 0
 1082 002e FFF7FEFF 		bl	interrupter_updateTR
 1083              	.LVL91:
ARM GAS  C:\Users\chemi\AppData\Local\Temp\ccCrVjov.s 			page 27


 326:..\common\ud3core/interrupter.c ****         
 327:..\common\ud3core/interrupter.c **** 		ttprintf("Transient Enabled\r\n");
 1084              		.loc 1 327 0
 1085 0032 636A     		ldr	r3, [r4, #36]
 1086 0034 0C49     		ldr	r1, .L77+16
 1087 0036 0BE0     		b	.L76
 1088              	.L72:
 328:..\common\ud3core/interrupter.c ****        
 329:..\common\ud3core/interrupter.c ****     }else if(strcmp(args[0], "stop") == 0){
 1089              		.loc 1 329 0
 1090 0038 0C49     		ldr	r1, .L77+20
 1091 003a 2846     		mov	r0, r5
 1092 003c FFF7FEFF 		bl	strcmp
 1093              	.LVL92:
 1094 0040 40B9     		cbnz	r0, .L71
 330:..\common\ud3core/interrupter.c ****         //switch synth off
 331:..\common\ud3core/interrupter.c ****         param.synth = SYNTH_OFF;
 1095              		.loc 1 331 0
 1096 0042 084B     		ldr	r3, .L77+12
 1097 0044 83F82000 		strb	r0, [r3, #32]
 332:..\common\ud3core/interrupter.c ****         SigGen_switchSynthMode(param.synth);
 1098              		.loc 1 332 0
 1099 0048 FFF7FEFF 		bl	SigGen_switchSynthMode
 1100              	.LVL93:
 333:..\common\ud3core/interrupter.c ****         
 334:..\common\ud3core/interrupter.c ****         ttprintf("Transient Disabled\r\n");    
 1101              		.loc 1 334 0
 1102 004c 636A     		ldr	r3, [r4, #36]
 1103 004e 0849     		ldr	r1, .L77+24
 1104              	.L76:
 1105 0050 6068     		ldr	r0, [r4, #4]
 1106 0052 9847     		blx	r3
 1107              	.LVL94:
 1108              	.L71:
 335:..\common\ud3core/interrupter.c ****  
 336:..\common\ud3core/interrupter.c **** 	}
 337:..\common\ud3core/interrupter.c ****     return TERM_CMD_EXIT_SUCCESS;
 338:..\common\ud3core/interrupter.c **** }
 1109              		.loc 1 338 0
 1110 0054 FF20     		movs	r0, #255
 1111 0056 38BD     		pop	{r3, r4, r5, pc}
 1112              	.LVL95:
 1113              	.L78:
 1114              		.align	2
 1115              	.L77:
 1116 0058 3D000000 		.word	.LC2
 1117 005c 40000000 		.word	.LC3
 1118 0060 57000000 		.word	.LC4
 1119 0064 00000000 		.word	param
 1120 0068 5D000000 		.word	.LC5
 1121 006c 71000000 		.word	.LC6
 1122 0070 76000000 		.word	.LC7
 1123              		.cfi_endproc
 1124              	.LFE84:
 1125              		.size	CMD_tr, .-CMD_tr
 1126              		.section	.text.Synthmon_printMIDI,"ax",%progbits
 1127              		.align	1
ARM GAS  C:\Users\chemi\AppData\Local\Temp\ccCrVjov.s 			page 28


 1128              		.global	Synthmon_printMIDI
 1129              		.thumb
 1130              		.thumb_func
 1131              		.type	Synthmon_printMIDI, %function
 1132              	Synthmon_printMIDI:
 1133              	.LFB85:
 339:..\common\ud3core/interrupter.c **** 
 340:..\common\ud3core/interrupter.c **** 
 341:..\common\ud3core/interrupter.c **** 
 342:..\common\ud3core/interrupter.c **** void Synthmon_printMIDI(TERMINAL_HANDLE * handle){
 1134              		.loc 1 342 0
 1135              		.cfi_startproc
 1136              		@ args = 0, pretend = 0, frame = 0
 1137              		@ frame_needed = 0, uses_anonymous_args = 0
 1138              	.LVL96:
 1139 0000 2DE9FF41 		push	{r0, r1, r2, r3, r4, r5, r6, r7, r8, lr}
 1140              		.cfi_def_cfa_offset 40
 1141              		.cfi_offset 4, -24
 1142              		.cfi_offset 5, -20
 1143              		.cfi_offset 6, -16
 1144              		.cfi_offset 7, -12
 1145              		.cfi_offset 8, -8
 1146              		.cfi_offset 14, -4
 1147              		.loc 1 342 0
 1148 0004 0446     		mov	r4, r0
 1149 0006 0026     		movs	r6, #0
 1150              	.LVL97:
 1151              	.L81:
 1152              	.LBB9:
 1153              	.LBB10:
 343:..\common\ud3core/interrupter.c ****     uint32_t freq=0;
 344:..\common\ud3core/interrupter.c **** 
 345:..\common\ud3core/interrupter.c ****     //print what the voices are doing
 346:..\common\ud3core/interrupter.c ****     for(uint8_t i=0;i<SIGGEN_VOICECOUNT;i++){
 347:..\common\ud3core/interrupter.c ****         VMS_VoiceData_t * cvData = &(VMSW_getVoiceData()[i]);
 1154              		.loc 1 347 0
 1155 0008 FFF7FEFF 		bl	VMSW_getVoiceData
 1156              	.LVL98:
 1157 000c 7C25     		movs	r5, #124
 1158 000e 05FB0605 		mla	r5, r5, r6, r0
 1159              	.LVL99:
 348:..\common\ud3core/interrupter.c ****         
 349:..\common\ud3core/interrupter.c ****         ttprintnlf("Voice %d: \r\n", i);
 1160              		.loc 1 349 0
 1161 0012 0022     		movs	r2, #0
 1162 0014 1121     		movs	r1, #17
 1163 0016 2046     		mov	r0, r4
 1164 0018 FFF7FEFF 		bl	TERM_sendVT100Code
 1165              	.LVL100:
 1166 001c 636A     		ldr	r3, [r4, #36]
 1167 001e 3246     		mov	r2, r6
 1168 0020 5949     		ldr	r1, .L97
 1169 0022 6068     		ldr	r0, [r4, #4]
 1170 0024 9847     		blx	r3
 1171              	.LVL101:
 350:..\common\ud3core/interrupter.c ****         ttprintnlf("\tNote %02d from Ch %02d at Volume %04x %s\r\n", cvData->sourceNote, cvData->so
 1172              		.loc 1 350 0
ARM GAS  C:\Users\chemi\AppData\Local\Temp\ccCrVjov.s 			page 29


 1173 0026 0022     		movs	r2, #0
 1174 0028 1121     		movs	r1, #17
 1175 002a 2046     		mov	r0, r4
 1176 002c FFF7FEFF 		bl	TERM_sendVT100Code
 1177              	.LVL102:
 1178 0030 DFF880E1 		ldr	lr, .L97+44
 1179 0034 E96C     		ldr	r1, [r5, #76]
 1180 0036 5548     		ldr	r0, .L97+4
 1181 0038 6F6D     		ldr	r7, [r5, #84]
 1182 003a 0029     		cmp	r1, #0
 1183 003c 14BF     		ite	ne
 1184 003e 0146     		movne	r1, r0
 1185 0040 7146     		moveq	r1, lr
 1186 0042 95F86030 		ldrb	r3, [r5, #96]	@ zero_extendqisi2
 1187 0046 95F86120 		ldrb	r2, [r5, #97]	@ zero_extendqisi2
 1188 004a 6068     		ldr	r0, [r4, #4]
 1189 004c 0191     		str	r1, [sp, #4]
 1190 004e 0097     		str	r7, [sp]
 1191 0050 4F49     		ldr	r1, .L97+8
 1192 0052 676A     		ldr	r7, [r4, #36]
 1193 0054 B847     		blx	r7
 1194              	.LVL103:
 351:..\common\ud3core/interrupter.c ****         ttprintnlf("\tFreq=%05ddHz PW=%05dus curVOL=%04x HPV=%d noise=%d\r\n", cvData->freqCurrent,
 1195              		.loc 1 351 0
 1196 0056 0022     		movs	r2, #0
 1197 0058 1121     		movs	r1, #17
 1198 005a 2046     		mov	r0, r4
 1199 005c FFF7FEFF 		bl	TERM_sendVT100Code
 1200              	.LVL104:
 1201 0060 EB6A     		ldr	r3, [r5, #44]
 1202 0062 676A     		ldr	r7, [r4, #36]
 1203 0064 0293     		str	r3, [sp, #8]
 1204 0066 6B6B     		ldr	r3, [r5, #52]
 1205 0068 4A49     		ldr	r1, .L97+12
 1206 006a 0193     		str	r3, [sp, #4]
 1207 006c 2B6A     		ldr	r3, [r5, #32]
 1208 006e 6068     		ldr	r0, [r4, #4]
 1209 0070 0093     		str	r3, [sp]
 1210 0072 6B69     		ldr	r3, [r5, #20]
 1211 0074 6A68     		ldr	r2, [r5, #4]
 1212 0076 0136     		adds	r6, r6, #1
 1213              	.LVL105:
 1214 0078 B847     		blx	r7
 1215              	.LVL106:
 1216              	.LBE10:
 346:..\common\ud3core/interrupter.c ****         VMS_VoiceData_t * cvData = &(VMSW_getVoiceData()[i]);
 1217              		.loc 1 346 0
 1218 007a 062E     		cmp	r6, #6
 1219 007c C4D1     		bne	.L81
 1220              	.LBE9:
 352:..\common\ud3core/interrupter.c ****     }
 353:..\common\ud3core/interrupter.c ****     
 354:..\common\ud3core/interrupter.c ****     ttprintnlf("Maps: \r\n");
 1221              		.loc 1 354 0
 1222 007e 0022     		movs	r2, #0
 1223 0080 1121     		movs	r1, #17
 1224 0082 2046     		mov	r0, r4
ARM GAS  C:\Users\chemi\AppData\Local\Temp\ccCrVjov.s 			page 30


 1225 0084 FFF7FEFF 		bl	TERM_sendVT100Code
 1226              	.LVL107:
 1227 0088 636A     		ldr	r3, [r4, #36]
 1228 008a 4349     		ldr	r1, .L97+16
 1229 008c 6068     		ldr	r0, [r4, #4]
 1230 008e 9847     		blx	r3
 1231              	.LVL108:
 1232 0090 0125     		movs	r5, #1
 1233              	.LVL109:
 1234 0092 0226     		movs	r6, #2
 1235 0094 4FF00008 		mov	r8, #0
 1236              	.LVL110:
 1237              	.L90:
 1238              	.LBB11:
 1239              	.LBB12:
 355:..\common\ud3core/interrupter.c ****         
 356:..\common\ud3core/interrupter.c ****     //print map names
 357:..\common\ud3core/interrupter.c ****     for(uint8_t i=0;i<MIDI_CHANNELCOUNT;i++){
 358:..\common\ud3core/interrupter.c ****         const char * name = Mapper_getProgrammName(i);
 1240              		.loc 1 358 0
 1241 0098 4046     		mov	r0, r8
 1242 009a FFF7FEFF 		bl	Mapper_getProgrammName
 1243              	.LVL111:
 359:..\common\ud3core/interrupter.c ****         
 360:..\common\ud3core/interrupter.c ****         if(name != NULL){
 1244              		.loc 1 360 0
 1245 009e 0746     		mov	r7, r0
 1246 00a0 50B1     		cbz	r0, .L82
 361:..\common\ud3core/interrupter.c ****             ttprintnlf("[%d]=\"% 20s\" ", i, name);
 1247              		.loc 1 361 0
 1248 00a2 0022     		movs	r2, #0
 1249 00a4 1121     		movs	r1, #17
 1250 00a6 2046     		mov	r0, r4
 1251              	.LVL112:
 1252 00a8 FFF7FEFF 		bl	TERM_sendVT100Code
 1253              	.LVL113:
 1254 00ac 3B46     		mov	r3, r7
 1255 00ae 4246     		mov	r2, r8
 1256 00b0 3A49     		ldr	r1, .L97+20
 1257 00b2 6068     		ldr	r0, [r4, #4]
 1258 00b4 676A     		ldr	r7, [r4, #36]
 1259              	.LVL114:
 1260 00b6 09E0     		b	.L94
 1261              	.LVL115:
 1262              	.L82:
 362:..\common\ud3core/interrupter.c ****         }else{
 363:..\common\ud3core/interrupter.c ****             ttprintnlf("[%d]= % 20s  ", i, "NO MAP LOADED");
 1263              		.loc 1 363 0
 1264 00b8 0246     		mov	r2, r0
 1265 00ba 1121     		movs	r1, #17
 1266 00bc 2046     		mov	r0, r4
 1267              	.LVL116:
 1268 00be FFF7FEFF 		bl	TERM_sendVT100Code
 1269              	.LVL117:
 1270 00c2 4246     		mov	r2, r8
 1271 00c4 676A     		ldr	r7, [r4, #36]
 1272              	.LVL118:
ARM GAS  C:\Users\chemi\AppData\Local\Temp\ccCrVjov.s 			page 31


 1273 00c6 364B     		ldr	r3, .L97+24
 1274 00c8 3649     		ldr	r1, .L97+28
 1275 00ca 6068     		ldr	r0, [r4, #4]
 1276              	.L94:
 1277 00cc B847     		blx	r7
 1278              	.LVL119:
 364:..\common\ud3core/interrupter.c ****         }
 365:..\common\ud3core/interrupter.c ****         
 366:..\common\ud3core/interrupter.c ****         i++;
 367:..\common\ud3core/interrupter.c ****         
 368:..\common\ud3core/interrupter.c ****         if(i < MIDI_CHANNELCOUNT){
 1279              		.loc 1 368 0
 1280 00ce 102D     		cmp	r5, #16
 1281 00d0 1BD0     		beq	.L84
 369:..\common\ud3core/interrupter.c ****             name = Mapper_getProgrammName(i);
 1282              		.loc 1 369 0
 1283 00d2 2846     		mov	r0, r5
 1284 00d4 FFF7FEFF 		bl	Mapper_getProgrammName
 1285              	.LVL120:
 370:..\common\ud3core/interrupter.c ****         
 371:..\common\ud3core/interrupter.c ****             if(name != NULL){
 1286              		.loc 1 371 0
 1287 00d8 0746     		mov	r7, r0
 1288 00da 50B1     		cbz	r0, .L85
 372:..\common\ud3core/interrupter.c ****                 ttprintnlf("[%d]=\"% 20s\" ", i, name);
 1289              		.loc 1 372 0
 1290 00dc 0022     		movs	r2, #0
 1291 00de 1121     		movs	r1, #17
 1292 00e0 2046     		mov	r0, r4
 1293              	.LVL121:
 1294 00e2 FFF7FEFF 		bl	TERM_sendVT100Code
 1295              	.LVL122:
 1296 00e6 3B46     		mov	r3, r7
 1297 00e8 2A46     		mov	r2, r5
 1298 00ea 2C49     		ldr	r1, .L97+20
 1299 00ec 6068     		ldr	r0, [r4, #4]
 1300 00ee 676A     		ldr	r7, [r4, #36]
 1301              	.LVL123:
 1302 00f0 09E0     		b	.L95
 1303              	.LVL124:
 1304              	.L85:
 373:..\common\ud3core/interrupter.c ****             }else{
 374:..\common\ud3core/interrupter.c ****                 ttprintnlf("[%d]= % 20s  ", i, "NO MAP LOADED");
 1305              		.loc 1 374 0
 1306 00f2 0246     		mov	r2, r0
 1307 00f4 1121     		movs	r1, #17
 1308 00f6 2046     		mov	r0, r4
 1309              	.LVL125:
 1310 00f8 FFF7FEFF 		bl	TERM_sendVT100Code
 1311              	.LVL126:
 1312 00fc 2A46     		mov	r2, r5
 1313 00fe 676A     		ldr	r7, [r4, #36]
 1314              	.LVL127:
 1315 0100 274B     		ldr	r3, .L97+24
 1316 0102 2849     		ldr	r1, .L97+28
 1317 0104 6068     		ldr	r0, [r4, #4]
 1318              	.L95:
ARM GAS  C:\Users\chemi\AppData\Local\Temp\ccCrVjov.s 			page 32


 1319 0106 B847     		blx	r7
 1320              	.LVL128:
 1321 0108 09E0     		b	.L86
 1322              	.L84:
 375:..\common\ud3core/interrupter.c ****             }
 376:..\common\ud3core/interrupter.c ****         }else{
 377:..\common\ud3core/interrupter.c ****             ttprintnlf("\r\n", i);
 1323              		.loc 1 377 0
 1324 010a 0022     		movs	r2, #0
 1325 010c 1121     		movs	r1, #17
 1326 010e 2046     		mov	r0, r4
 1327 0110 FFF7FEFF 		bl	TERM_sendVT100Code
 1328              	.LVL129:
 1329 0114 636A     		ldr	r3, [r4, #36]
 1330 0116 2A46     		mov	r2, r5
 1331 0118 2349     		ldr	r1, .L97+32
 1332 011a 6068     		ldr	r0, [r4, #4]
 1333 011c 9847     		blx	r3
 1334              	.LVL130:
 1335              	.L86:
 378:..\common\ud3core/interrupter.c ****         }
 379:..\common\ud3core/interrupter.c ****         
 380:..\common\ud3core/interrupter.c ****         i++;
 381:..\common\ud3core/interrupter.c ****         
 382:..\common\ud3core/interrupter.c ****         if(i < MIDI_CHANNELCOUNT){
 1336              		.loc 1 382 0
 1337 011e 0F2E     		cmp	r6, #15
 1338 0120 1BD8     		bhi	.L87
 383:..\common\ud3core/interrupter.c ****             name = Mapper_getProgrammName(i);
 1339              		.loc 1 383 0
 1340 0122 3046     		mov	r0, r6
 1341 0124 FFF7FEFF 		bl	Mapper_getProgrammName
 1342              	.LVL131:
 384:..\common\ud3core/interrupter.c ****         
 385:..\common\ud3core/interrupter.c ****             if(name != NULL){
 1343              		.loc 1 385 0
 1344 0128 0746     		mov	r7, r0
 1345 012a 50B1     		cbz	r0, .L88
 386:..\common\ud3core/interrupter.c ****                 ttprintnlf("[%d]=\"% 20s\"\r\n", i, name);
 1346              		.loc 1 386 0
 1347 012c 0022     		movs	r2, #0
 1348 012e 1121     		movs	r1, #17
 1349 0130 2046     		mov	r0, r4
 1350              	.LVL132:
 1351 0132 FFF7FEFF 		bl	TERM_sendVT100Code
 1352              	.LVL133:
 1353 0136 3B46     		mov	r3, r7
 1354 0138 3246     		mov	r2, r6
 1355 013a 1C49     		ldr	r1, .L97+36
 1356 013c 6068     		ldr	r0, [r4, #4]
 1357 013e 676A     		ldr	r7, [r4, #36]
 1358              	.LVL134:
 1359 0140 09E0     		b	.L96
 1360              	.LVL135:
 1361              	.L88:
 387:..\common\ud3core/interrupter.c ****             }else{
 388:..\common\ud3core/interrupter.c ****                 ttprintnlf("[%d]= % 20s  \r\n", i, "NO MAP LOADED");
ARM GAS  C:\Users\chemi\AppData\Local\Temp\ccCrVjov.s 			page 33


 1362              		.loc 1 388 0
 1363 0142 0246     		mov	r2, r0
 1364 0144 1121     		movs	r1, #17
 1365 0146 2046     		mov	r0, r4
 1366              	.LVL136:
 1367 0148 FFF7FEFF 		bl	TERM_sendVT100Code
 1368              	.LVL137:
 1369 014c 3246     		mov	r2, r6
 1370 014e 676A     		ldr	r7, [r4, #36]
 1371              	.LVL138:
 1372 0150 134B     		ldr	r3, .L97+24
 1373 0152 1749     		ldr	r1, .L97+40
 1374 0154 6068     		ldr	r0, [r4, #4]
 1375              	.L96:
 1376 0156 B847     		blx	r7
 1377              	.LVL139:
 1378 0158 09E0     		b	.L89
 1379              	.L87:
 389:..\common\ud3core/interrupter.c ****             }
 390:..\common\ud3core/interrupter.c ****         }else{
 391:..\common\ud3core/interrupter.c ****             ttprintnlf("\r\n", i);
 1380              		.loc 1 391 0
 1381 015a 0022     		movs	r2, #0
 1382 015c 1121     		movs	r1, #17
 1383 015e 2046     		mov	r0, r4
 1384 0160 FFF7FEFF 		bl	TERM_sendVT100Code
 1385              	.LVL140:
 1386 0164 636A     		ldr	r3, [r4, #36]
 1387 0166 3246     		mov	r2, r6
 1388 0168 0F49     		ldr	r1, .L97+32
 1389 016a 6068     		ldr	r0, [r4, #4]
 1390 016c 9847     		blx	r3
 1391              	.LVL141:
 1392              	.L89:
 1393 016e 08F10308 		add	r8, r8, #3
 1394              	.LVL142:
 1395              	.LBE12:
 357:..\common\ud3core/interrupter.c ****         const char * name = Mapper_getProgrammName(i);
 1396              		.loc 1 357 0 discriminator 2
 1397 0172 B8F1120F 		cmp	r8, #18
 1398 0176 06F10306 		add	r6, r6, #3
 1399 017a 05F10305 		add	r5, r5, #3
 1400 017e 8BD1     		bne	.L90
 1401              	.LBE11:
 392:..\common\ud3core/interrupter.c ****         }
 393:..\common\ud3core/interrupter.c ****     }
 394:..\common\ud3core/interrupter.c **** }
 1402              		.loc 1 394 0
 1403 0180 04B0     		add	sp, sp, #16
 1404              		.cfi_def_cfa_offset 24
 1405              		@ sp needed
 1406 0182 BDE8F081 		pop	{r4, r5, r6, r7, r8, pc}
 1407              	.LVL143:
 1408              	.L98:
 1409 0186 00BF     		.align	2
 1410              	.L97:
 1411 0188 92000000 		.word	.LC10
ARM GAS  C:\Users\chemi\AppData\Local\Temp\ccCrVjov.s 			page 34


 1412 018c 8B000000 		.word	.LC8
 1413 0190 9F000000 		.word	.LC11
 1414 0194 CB000000 		.word	.LC12
 1415 0198 01010000 		.word	.LC13
 1416 019c 0A010000 		.word	.LC14
 1417 01a0 18010000 		.word	.LC15
 1418 01a4 26010000 		.word	.LC16
 1419 01a8 34010000 		.word	.LC17
 1420 01ac 37010000 		.word	.LC18
 1421 01b0 46010000 		.word	.LC19
 1422 01b4 8E000000 		.word	.LC9
 1423              		.cfi_endproc
 1424              	.LFE85:
 1425              		.size	Synthmon_printMIDI, .-Synthmon_printMIDI
 1426              		.section	.text.Synthmon_printSID,"ax",%progbits
 1427              		.align	1
 1428              		.global	Synthmon_printSID
 1429              		.thumb
 1430              		.thumb_func
 1431              		.type	Synthmon_printSID, %function
 1432              	Synthmon_printSID:
 1433              	.LFB86:
 395:..\common\ud3core/interrupter.c **** 
 396:..\common\ud3core/interrupter.c **** void Synthmon_printSID(TERMINAL_HANDLE * handle){
 1434              		.loc 1 396 0
 1435              		.cfi_startproc
 1436              		@ args = 0, pretend = 0, frame = 8
 1437              		@ frame_needed = 0, uses_anonymous_args = 0
 1438              	.LVL144:
 1439 0000 2DE9F04F 		push	{r4, r5, r6, r7, r8, r9, r10, fp, lr}
 1440              		.cfi_def_cfa_offset 36
 1441              		.cfi_offset 4, -36
 1442              		.cfi_offset 5, -32
 1443              		.cfi_offset 6, -28
 1444              		.cfi_offset 7, -24
 1445              		.cfi_offset 8, -20
 1446              		.cfi_offset 9, -16
 1447              		.cfi_offset 10, -12
 1448              		.cfi_offset 11, -8
 1449              		.cfi_offset 14, -4
 1450 0004 0446     		mov	r4, r0
 1451 0006 85B0     		sub	sp, sp, #20
 1452              		.cfi_def_cfa_offset 56
 1453              		.loc 1 396 0
 1454 0008 0025     		movs	r5, #0
 1455              	.LVL145:
 1456              	.L100:
 1457              	.LBB13:
 1458              	.LBB14:
 397:..\common\ud3core/interrupter.c ****     
 398:..\common\ud3core/interrupter.c ****     for(uint8_t i=0;i<N_SIDCHANNEL;i++){
 399:..\common\ud3core/interrupter.c ****         SIDChannelData_t * chData = &(SID_getChannelData()[i]);
 1459              		.loc 1 399 0 discriminator 3
 1460 000a FFF7FEFF 		bl	SID_getChannelData
 1461              	.LVL146:
 1462 000e 2426     		movs	r6, #36
 1463 0010 6E43     		muls	r6, r5, r6
ARM GAS  C:\Users\chemi\AppData\Local\Temp\ccCrVjov.s 			page 35


 1464 0012 8046     		mov	r8, r0
 1465 0014 8719     		adds	r7, r0, r6
 1466              	.LVL147:
 400:..\common\ud3core/interrupter.c ****         
 401:..\common\ud3core/interrupter.c ****         ttprintnlf("Channel %d: \r\n", i);
 1467              		.loc 1 401 0 discriminator 3
 1468 0016 0022     		movs	r2, #0
 1469 0018 1121     		movs	r1, #17
 1470 001a 2046     		mov	r0, r4
 1471 001c FFF7FEFF 		bl	TERM_sendVT100Code
 1472              	.LVL148:
 1473 0020 636A     		ldr	r3, [r4, #36]
 1474 0022 2A46     		mov	r2, r5
 1475 0024 1649     		ldr	r1, .L102
 1476 0026 6068     		ldr	r0, [r4, #4]
 1477 0028 9847     		blx	r3
 1478              	.LVL149:
 402:..\common\ud3core/interrupter.c ****         ttprintnlf("\tFreq=%05ddHz curVOL=%04x WAVE=%s\r\n", chData->frequency_dHz, chData->current
 1479              		.loc 1 402 0 discriminator 3
 1480 002a 0022     		movs	r2, #0
 1481 002c 1121     		movs	r1, #17
 1482 002e 2046     		mov	r0, r4
 1483 0030 FFF7FEFF 		bl	TERM_sendVT100Code
 1484              	.LVL150:
 1485 0034 3B6A     		ldr	r3, [r7, #32]
 1486 0036 3846     		mov	r0, r7
 1487 0038 D7F810B0 		ldr	fp, [r7, #16]
 1488 003c D4F82490 		ldr	r9, [r4, #36]
 1489 0040 D4F804A0 		ldr	r10, [r4, #4]
 1490 0044 0393     		str	r3, [sp, #12]
 1491 0046 FFF7FEFF 		bl	SID_getWaveName
 1492              	.LVL151:
 1493 004a 039B     		ldr	r3, [sp, #12]
 1494 004c 0090     		str	r0, [sp]
 1495 004e 5A46     		mov	r2, fp
 1496 0050 0C49     		ldr	r1, .L102+4
 1497 0052 5046     		mov	r0, r10
 1498 0054 C847     		blx	r9
 1499              	.LVL152:
 403:..\common\ud3core/interrupter.c ****         ttprintnlf("\tADSR state=%d masterVolume=%d\r\n", chData->adsrState, SID_filterData.channel
 1500              		.loc 1 403 0 discriminator 3
 1501 0056 0022     		movs	r2, #0
 1502 0058 1121     		movs	r1, #17
 1503 005a 2046     		mov	r0, r4
 1504 005c FFF7FEFF 		bl	TERM_sendVT100Code
 1505              	.LVL153:
 1506 0060 094B     		ldr	r3, .L102+8
 1507 0062 676A     		ldr	r7, [r4, #36]
 1508              	.LVL154:
 1509 0064 53F82530 		ldr	r3, [r3, r5, lsl #2]
 1510 0068 18F80620 		ldrb	r2, [r8, r6]	@ zero_extendqisi2
 1511 006c 0749     		ldr	r1, .L102+12
 1512 006e 6068     		ldr	r0, [r4, #4]
 1513 0070 0135     		adds	r5, r5, #1
 1514              	.LVL155:
 1515 0072 B847     		blx	r7
 1516              	.LVL156:
ARM GAS  C:\Users\chemi\AppData\Local\Temp\ccCrVjov.s 			page 36


 1517              	.LBE14:
 398:..\common\ud3core/interrupter.c ****         SIDChannelData_t * chData = &(SID_getChannelData()[i]);
 1518              		.loc 1 398 0 discriminator 3
 1519 0074 032D     		cmp	r5, #3
 1520 0076 C8D1     		bne	.L100
 1521              	.LBE13:
 404:..\common\ud3core/interrupter.c ****     }
 405:..\common\ud3core/interrupter.c **** }
 1522              		.loc 1 405 0
 1523 0078 05B0     		add	sp, sp, #20
 1524              		.cfi_def_cfa_offset 36
 1525              		@ sp needed
 1526 007a BDE8F08F 		pop	{r4, r5, r6, r7, r8, r9, r10, fp, pc}
 1527              	.LVL157:
 1528              	.L103:
 1529 007e 00BF     		.align	2
 1530              	.L102:
 1531 0080 56010000 		.word	.LC20
 1532 0084 65010000 		.word	.LC21
 1533 0088 00000000 		.word	SID_filterData
 1534 008c 89010000 		.word	.LC22
 1535              		.cfi_endproc
 1536              	.LFE86:
 1537              		.size	Synthmon_printSID, .-Synthmon_printSID
 1538              		.section	.text.CMD_SynthMon,"ax",%progbits
 1539              		.align	1
 1540              		.global	CMD_SynthMon
 1541              		.thumb
 1542              		.thumb_func
 1543              		.type	CMD_SynthMon, %function
 1544              	CMD_SynthMon:
 1545              	.LFB87:
 406:..\common\ud3core/interrupter.c **** 
 407:..\common\ud3core/interrupter.c **** uint8_t CMD_SynthMon(TERMINAL_HANDLE * handle, uint8_t argCount, char ** args){
 1546              		.loc 1 407 0
 1547              		.cfi_startproc
 1548              		@ args = 0, pretend = 0, frame = 0
 1549              		@ frame_needed = 0, uses_anonymous_args = 0
 1550              	.LVL158:
 1551 0000 2DE9F843 		push	{r3, r4, r5, r6, r7, r8, r9, lr}
 1552              		.cfi_def_cfa_offset 32
 1553              		.cfi_offset 3, -32
 1554              		.cfi_offset 4, -28
 1555              		.cfi_offset 5, -24
 1556              		.cfi_offset 6, -20
 1557              		.cfi_offset 7, -16
 1558              		.cfi_offset 8, -12
 1559              		.cfi_offset 9, -8
 1560              		.cfi_offset 14, -4
 1561              		.loc 1 407 0
 1562 0004 0446     		mov	r4, r0
 408:..\common\ud3core/interrupter.c ****     TERM_sendVT100Code(handle, _VT100_CURSOR_DISABLE,0);
 1563              		.loc 1 408 0
 1564 0006 0022     		movs	r2, #0
 1565              	.LVL159:
 1566 0008 1921     		movs	r1, #25
 1567              	.LVL160:
ARM GAS  C:\Users\chemi\AppData\Local\Temp\ccCrVjov.s 			page 37


 409:..\common\ud3core/interrupter.c ****     TERM_sendVT100Code(handle, _VT100_CLS,0);
 410:..\common\ud3core/interrupter.c ****     
 411:..\common\ud3core/interrupter.c ****             
 412:..\common\ud3core/interrupter.c ****     while(Term_check_break(handle,100)){
 413:..\common\ud3core/interrupter.c ****         ttprintnlf("Synthesizer status:    [CTRL+C] for quit\r\n\n");
 414:..\common\ud3core/interrupter.c ****         
 415:..\common\ud3core/interrupter.c ****         if(param.synth == SYNTH_SID || param.synth == SYNTH_SID_QCW){
 1568              		.loc 1 415 0
 1569 000a 344E     		ldr	r6, .L120
 408:..\common\ud3core/interrupter.c ****     TERM_sendVT100Code(handle, _VT100_CURSOR_DISABLE,0);
 1570              		.loc 1 408 0
 1571 000c FFF7FEFF 		bl	TERM_sendVT100Code
 1572              	.LVL161:
 409:..\common\ud3core/interrupter.c ****     TERM_sendVT100Code(handle, _VT100_CLS,0);
 1573              		.loc 1 409 0
 1574 0010 0022     		movs	r2, #0
 1575 0012 1B21     		movs	r1, #27
 1576 0014 2046     		mov	r0, r4
 1577 0016 FFF7FEFF 		bl	TERM_sendVT100Code
 1578              	.LVL162:
 1579 001a 3746     		mov	r7, r6
 1580              	.L105:
 412:..\common\ud3core/interrupter.c ****         ttprintnlf("Synthesizer status:    [CTRL+C] for quit\r\n\n");
 1581              		.loc 1 412 0
 1582 001c 6421     		movs	r1, #100
 1583 001e 2046     		mov	r0, r4
 1584 0020 FFF7FEFF 		bl	Term_check_break
 1585              	.LVL163:
 1586 0024 0546     		mov	r5, r0
 1587 0026 0028     		cmp	r0, #0
 1588 0028 4AD0     		beq	.L119
 413:..\common\ud3core/interrupter.c ****         
 1589              		.loc 1 413 0
 1590 002a 0022     		movs	r2, #0
 1591 002c 1121     		movs	r1, #17
 1592 002e 2046     		mov	r0, r4
 1593 0030 FFF7FEFF 		bl	TERM_sendVT100Code
 1594              	.LVL164:
 1595 0034 636A     		ldr	r3, [r4, #36]
 1596 0036 2A49     		ldr	r1, .L120+4
 1597 0038 6068     		ldr	r0, [r4, #4]
 1598 003a 9847     		blx	r3
 1599              	.LVL165:
 1600              		.loc 1 415 0
 1601 003c 96F82030 		ldrb	r3, [r6, #32]	@ zero_extendqisi2
 1602 0040 022B     		cmp	r3, #2
 1603 0042 01D0     		beq	.L106
 1604              		.loc 1 415 0 is_stmt 0 discriminator 1
 1605 0044 052B     		cmp	r3, #5
 1606 0046 03D1     		bne	.L107
 1607              	.L106:
 416:..\common\ud3core/interrupter.c ****             Synthmon_printSID(handle);
 1608              		.loc 1 416 0 is_stmt 1
 1609 0048 2046     		mov	r0, r4
 1610 004a FFF7FEFF 		bl	Synthmon_printSID
 1611              	.LVL166:
 1612 004e 06E0     		b	.L108
ARM GAS  C:\Users\chemi\AppData\Local\Temp\ccCrVjov.s 			page 38


 1613              	.L107:
 417:..\common\ud3core/interrupter.c ****         
 418:..\common\ud3core/interrupter.c ****         }else if(param.synth == SYNTH_MIDI || param.synth == SYNTH_MIDI_QCW){ 
 1614              		.loc 1 418 0
 1615 0050 012B     		cmp	r3, #1
 1616 0052 01D0     		beq	.L109
 1617              		.loc 1 418 0 is_stmt 0 discriminator 1
 1618 0054 042B     		cmp	r3, #4
 1619 0056 02D1     		bne	.L108
 1620              	.L109:
 419:..\common\ud3core/interrupter.c ****             Synthmon_printMIDI(handle);
 1621              		.loc 1 419 0 is_stmt 1
 1622 0058 2046     		mov	r0, r4
 1623 005a FFF7FEFF 		bl	Synthmon_printMIDI
 1624              	.LVL167:
 1625              	.L108:
 420:..\common\ud3core/interrupter.c ****             
 421:..\common\ud3core/interrupter.c ****         }
 422:..\common\ud3core/interrupter.c ****         
 423:..\common\ud3core/interrupter.c ****         if(param.synth == 0){
 1626              		.loc 1 423 0
 1627 005e 97F82020 		ldrb	r2, [r7, #32]	@ zero_extendqisi2
 1628 0062 42B9     		cbnz	r2, .L110
 424:..\common\ud3core/interrupter.c ****             ttprintnlf("\r\nNo synthesizer active\r\n");   
 1629              		.loc 1 424 0
 1630 0064 2046     		mov	r0, r4
 1631 0066 1121     		movs	r1, #17
 1632 0068 FFF7FEFF 		bl	TERM_sendVT100Code
 1633              	.LVL168:
 1634 006c 636A     		ldr	r3, [r4, #36]
 1635 006e 1D49     		ldr	r1, .L120+8
 1636 0070 6068     		ldr	r0, [r4, #4]
 1637 0072 9847     		blx	r3
 1638              	.LVL169:
 1639 0074 1AE0     		b	.L111
 1640              	.L110:
 425:..\common\ud3core/interrupter.c ****         }else{
 426:..\common\ud3core/interrupter.c ****             //if any synth is active print compressor state
 427:..\common\ud3core/interrupter.c ****             ttprintnlf("\r\n\nCompressor state:\r\n");
 1641              		.loc 1 427 0
 1642 0076 0022     		movs	r2, #0
 1643 0078 1121     		movs	r1, #17
 1644 007a 2046     		mov	r0, r4
 1645 007c FFF7FEFF 		bl	TERM_sendVT100Code
 1646              	.LVL170:
 1647 0080 636A     		ldr	r3, [r4, #36]
 1648 0082 1949     		ldr	r1, .L120+12
 1649 0084 6068     		ldr	r0, [r4, #4]
 1650 0086 9847     		blx	r3
 1651              	.LVL171:
 428:..\common\ud3core/interrupter.c ****             ttprintnlf("\tstate=%01d volume=%04x\r\n", Comp_getState(), Comp_getGain());
 1652              		.loc 1 428 0
 1653 0088 0022     		movs	r2, #0
 1654 008a 1121     		movs	r1, #17
 1655 008c 2046     		mov	r0, r4
 1656 008e FFF7FEFF 		bl	TERM_sendVT100Code
 1657              	.LVL172:
ARM GAS  C:\Users\chemi\AppData\Local\Temp\ccCrVjov.s 			page 39


 1658 0092 D4F80480 		ldr	r8, [r4, #4]
 1659 0096 656A     		ldr	r5, [r4, #36]
 1660 0098 FFF7FEFF 		bl	Comp_getState
 1661              	.LVL173:
 1662 009c 8146     		mov	r9, r0
 1663 009e FFF7FEFF 		bl	Comp_getGain
 1664              	.LVL174:
 1665 00a2 4A46     		mov	r2, r9
 1666 00a4 0346     		mov	r3, r0
 1667 00a6 1149     		ldr	r1, .L120+16
 1668 00a8 4046     		mov	r0, r8
 1669 00aa A847     		blx	r5
 1670              	.LVL175:
 1671              	.L111:
 429:..\common\ud3core/interrupter.c ****         }
 430:..\common\ud3core/interrupter.c ****             
 431:..\common\ud3core/interrupter.c ****         //reset cursor
 432:..\common\ud3core/interrupter.c ****         TERM_sendVT100Code(handle, _VT100_CURSOR_POS1, 0);
 1672              		.loc 1 432 0
 1673 00ac 0022     		movs	r2, #0
 1674 00ae 2046     		mov	r0, r4
 1675 00b0 1146     		mov	r1, r2
 1676 00b2 FFF7FEFF 		bl	TERM_sendVT100Code
 1677              	.LVL176:
 433:..\common\ud3core/interrupter.c ****         
 434:..\common\ud3core/interrupter.c ****         vTaskDelay(pdMS_TO_TICKS(1000));
 1678              		.loc 1 434 0
 1679 00b6 4FF47A70 		mov	r0, #1000
 1680 00ba FFF7FEFF 		bl	vTaskDelay
 1681              	.LVL177:
 1682 00be ADE7     		b	.L105
 1683              	.L119:
 435:..\common\ud3core/interrupter.c ****     }
 436:..\common\ud3core/interrupter.c ****     
 437:..\common\ud3core/interrupter.c ****     TERM_sendVT100Code(handle, _VT100_CURSOR_ENABLE,0);
 1684              		.loc 1 437 0
 1685 00c0 0246     		mov	r2, r0
 1686 00c2 1821     		movs	r1, #24
 1687 00c4 2046     		mov	r0, r4
 1688 00c6 FFF7FEFF 		bl	TERM_sendVT100Code
 1689              	.LVL178:
 438:..\common\ud3core/interrupter.c ****     TERM_sendVT100Code(handle, _VT100_CLS,0);
 1690              		.loc 1 438 0
 1691 00ca 2046     		mov	r0, r4
 1692 00cc 2A46     		mov	r2, r5
 1693 00ce 1B21     		movs	r1, #27
 1694 00d0 FFF7FEFF 		bl	TERM_sendVT100Code
 1695              	.LVL179:
 439:..\common\ud3core/interrupter.c ****     
 440:..\common\ud3core/interrupter.c ****     return TERM_CMD_EXIT_SUCCESS;
 441:..\common\ud3core/interrupter.c **** }
 1696              		.loc 1 441 0
 1697 00d4 FF20     		movs	r0, #255
 1698 00d6 BDE8F883 		pop	{r3, r4, r5, r6, r7, r8, r9, pc}
 1699              	.LVL180:
 1700              	.L121:
 1701 00da 00BF     		.align	2
ARM GAS  C:\Users\chemi\AppData\Local\Temp\ccCrVjov.s 			page 40


 1702              	.L120:
 1703 00dc 00000000 		.word	param
 1704 00e0 AA010000 		.word	.LC23
 1705 00e4 D6010000 		.word	.LC24
 1706 00e8 F0010000 		.word	.LC25
 1707 00ec 07020000 		.word	.LC26
 1708              		.cfi_endproc
 1709              	.LFE87:
 1710              		.size	CMD_SynthMon, .-CMD_SynthMon
 1711              		.comm	ch_dma_TD,16,1
 1712              		.comm	ch_dma_Chan,4,1
 1713              		.comm	int1_dma_Chan,1,1
 1714              		.comm	int1_cmp,2,2
 1715              		.comm	int1_prd,2,2
 1716              		.comm	ramp,406,2
 1717              		.comm	ct1_dac_val,3,1
 1718              		.comm	params,26,2
 1719              		.comm	interrupter,12,4
 1720              		.section	.rodata.str1.1,"aMS",%progbits,1
 1721              	.LC0:
 1722 0000 494E543A 		.ascii	"INT: External interrupter active\000"
 1722      20457874 
 1722      65726E61 
 1722      6C20696E 
 1722      74657272 
 1723              	.LC1:
 1724 0021 4379446D 		.ascii	"CyDmaTdAllocate failure INT\000"
 1724      61546441 
 1724      6C6C6F63 
 1724      61746520 
 1724      6661696C 
 1725              	.LC2:
 1726 003d 2D3F00   		.ascii	"-?\000"
 1727              	.LC3:
 1728 0040 5472616E 		.ascii	"Transient [start/stop]\000"
 1728      7369656E 
 1728      74205B73 
 1728      74617274 
 1728      2F73746F 
 1729              	.LC4:
 1730 0057 73746172 		.ascii	"start\000"
 1730      7400
 1731              	.LC5:
 1732 005d 5472616E 		.ascii	"Transient Enabled\015\012\000"
 1732      7369656E 
 1732      7420456E 
 1732      61626C65 
 1732      640D0A00 
 1733              	.LC6:
 1734 0071 73746F70 		.ascii	"stop\000"
 1734      00
 1735              	.LC7:
 1736 0076 5472616E 		.ascii	"Transient Disabled\015\012\000"
 1736      7369656E 
 1736      74204469 
 1736      7361626C 
 1736      65640D0A 
ARM GAS  C:\Users\chemi\AppData\Local\Temp\ccCrVjov.s 			page 41


 1737              	.LC8:
 1738 008b 4F4E00   		.ascii	"ON\000"
 1739              	.LC9:
 1740 008e 4F464600 		.ascii	"OFF\000"
 1741              	.LC10:
 1742 0092 566F6963 		.ascii	"Voice %d: \015\012\000"
 1742      65202564 
 1742      3A200D0A 
 1742      00
 1743              	.LC11:
 1744 009f 094E6F74 		.ascii	"\011Note %02d from Ch %02d at Volume %04x %s\015\012"
 1744      65202530 
 1744      32642066 
 1744      726F6D20 
 1744      43682025 
 1745 00ca 00       		.ascii	"\000"
 1746              	.LC12:
 1747 00cb 09467265 		.ascii	"\011Freq=%05ddHz PW=%05dus curVOL=%04x HPV=%d noise"
 1747      713D2530 
 1747      35646448 
 1747      7A205057 
 1747      3D253035 
 1748 00fb 3D25640D 		.ascii	"=%d\015\012\000"
 1748      0A00
 1749              	.LC13:
 1750 0101 4D617073 		.ascii	"Maps: \015\012\000"
 1750      3A200D0A 
 1750      00
 1751              	.LC14:
 1752 010a 5B25645D 		.ascii	"[%d]=\"% 20s\" \000"
 1752      3D222520 
 1752      32307322 
 1752      2000
 1753              	.LC15:
 1754 0118 4E4F204D 		.ascii	"NO MAP LOADED\000"
 1754      4150204C 
 1754      4F414445 
 1754      4400
 1755              	.LC16:
 1756 0126 5B25645D 		.ascii	"[%d]= % 20s  \000"
 1756      3D202520 
 1756      32307320 
 1756      2000
 1757              	.LC17:
 1758 0134 0D0A00   		.ascii	"\015\012\000"
 1759              	.LC18:
 1760 0137 5B25645D 		.ascii	"[%d]=\"% 20s\"\015\012\000"
 1760      3D222520 
 1760      32307322 
 1760      0D0A00
 1761              	.LC19:
 1762 0146 5B25645D 		.ascii	"[%d]= % 20s  \015\012\000"
 1762      3D202520 
 1762      32307320 
 1762      200D0A00 
 1763              	.LC20:
 1764 0156 4368616E 		.ascii	"Channel %d: \015\012\000"
ARM GAS  C:\Users\chemi\AppData\Local\Temp\ccCrVjov.s 			page 42


 1764      6E656C20 
 1764      25643A20 
 1764      0D0A00
 1765              	.LC21:
 1766 0165 09467265 		.ascii	"\011Freq=%05ddHz curVOL=%04x WAVE=%s\015\012\000"
 1766      713D2530 
 1766      35646448 
 1766      7A206375 
 1766      72564F4C 
 1767              	.LC22:
 1768 0189 09414453 		.ascii	"\011ADSR state=%d masterVolume=%d\015\012\000"
 1768      52207374 
 1768      6174653D 
 1768      2564206D 
 1768      61737465 
 1769              	.LC23:
 1770 01aa 53796E74 		.ascii	"Synthesizer status:    [CTRL+C] for quit\015\012\012"
 1770      68657369 
 1770      7A657220 
 1770      73746174 
 1770      75733A20 
 1771 01d5 00       		.ascii	"\000"
 1772              	.LC24:
 1773 01d6 0D0A4E6F 		.ascii	"\015\012No synthesizer active\015\012\000"
 1773      2073796E 
 1773      74686573 
 1773      697A6572 
 1773      20616374 
 1774              	.LC25:
 1775 01f0 0D0A0A43 		.ascii	"\015\012\012Compressor state:\015\012\000"
 1775      6F6D7072 
 1775      6573736F 
 1775      72207374 
 1775      6174653A 
 1776              	.LC26:
 1777 0207 09737461 		.ascii	"\011state=%01d volume=%04x\015\012\000"
 1777      74653D25 
 1777      30316420 
 1777      766F6C75 
 1777      6D653D25 
 1778              		.text
 1779              	.Letext0:
 1780              		.file 2 "c:\\program files (x86)\\cypress\\psoc creator\\4.4\\psoc creator\\import\\gnu\\arm\\5.4.
 1781              		.file 3 "c:\\program files (x86)\\cypress\\psoc creator\\4.4\\psoc creator\\import\\gnu\\arm\\5.4.
 1782              		.file 4 "Generated_Source\\PSoC5/cytypes.h"
 1783              		.file 5 "..\\common\\rtos\\portable\\GCC\\ARM_CM3/portmacro.h"
 1784              		.file 6 "..\\common\\rtos\\include/task.h"
 1785              		.file 7 "..\\common\\rtos\\include/stream_buffer.h"
 1786              		.file 8 "..\\common\\tterm/TTerm.h"
 1787              		.file 9 "..\\common\\ud3core\\cli_basic.h"
 1788              		.file 10 "..\\common\\rtos\\include/timers.h"
 1789              		.file 11 "..\\common\\ud3core\\interrupter.h"
 1790              		.file 12 "..\\common\\ud3core\\ZCDtoPWM.h"
 1791              		.file 13 "..\\common\\ud3core\\SignalGenerator.h"
 1792              		.file 14 "..\\common\\ud3core\\cli_common.h"
 1793              		.file 15 "..\\common\\ud3core\\qcw.h"
 1794              		.file 16 "..\\common\\ud3core\\tasks/tsk_fault.h"
ARM GAS  C:\Users\chemi\AppData\Local\Temp\ccCrVjov.s 			page 43


 1795              		.file 17 "..\\common\\vms/VMS.h"
 1796              		.file 18 "..\\common\\ud3core/tasks/tsk_sid.h"
 1797              		.file 19 "Generated_Source\\PSoC5/core_cm3.h"
 1798              		.file 20 "Generated_Source\\PSoC5/system_fault.h"
 1799              		.file 21 "..\\common\\ud3core/alarmevent.h"
 1800              		.file 22 "Generated_Source\\PSoC5/interrupter1.h"
 1801              		.file 23 "Generated_Source\\PSoC5/CYDMAC.H"
 1802              		.file 24 "..\\common\\vms/DutyCompressor.h"
 1803              		.file 25 "Generated_Source\\PSoC5/Opamp_2.h"
 1804              		.file 26 "Generated_Source\\PSoC5/int1_dma_dma.h"
 1805              		.file 27 "..\\common\\vms/SidProcessor.h"
 1806              		.file 28 "..\\common\\vms/MidiProcessor.h"
 1807              		.file 29 "..\\common\\vms/VMSWrapper.h"
 1808              		.file 30 "c:\\program files (x86)\\cypress\\psoc creator\\4.4\\psoc creator\\import\\gnu\\arm\\5.4
 1809              		.file 31 "..\\common\\vms/NoteMapper.h"