ARM GAS  C:\Users\chemi\AppData\Local\Temp\ccezsgPw.s 			page 1


   1              		.syntax unified
   2              		.cpu cortex-m3
   3              		.fpu softvfp
   4              		.eabi_attribute 20, 1
   5              		.eabi_attribute 21, 1
   6              		.eabi_attribute 23, 3
   7              		.eabi_attribute 24, 1
   8              		.eabi_attribute 25, 1
   9              		.eabi_attribute 26, 1
  10              		.eabi_attribute 30, 4
  11              		.eabi_attribute 34, 1
  12              		.eabi_attribute 18, 4
  13              		.thumb
  14              		.syntax unified
  15              		.file	"interrupter1.c"
  16              		.text
  17              	.Ltext0:
  18              		.cfi_sections	.debug_frame
  19              		.section	.text.interrupter1_Init,"ax",%progbits
  20              		.align	1
  21              		.global	interrupter1_Init
  22              		.thumb
  23              		.thumb_func
  24              		.type	interrupter1_Init, %function
  25              	interrupter1_Init:
  26              	.LFB1:
  27              		.file 1 "Generated_Source\\PSoC5\\interrupter1.c"
   1:Generated_Source\PSoC5/interrupter1.c **** /*******************************************************************************
   2:Generated_Source\PSoC5/interrupter1.c **** * File Name: interrupter1.c
   3:Generated_Source\PSoC5/interrupter1.c **** * Version 3.30
   4:Generated_Source\PSoC5/interrupter1.c **** *
   5:Generated_Source\PSoC5/interrupter1.c **** * Description:
   6:Generated_Source\PSoC5/interrupter1.c **** *  The PWM User Module consist of an 8 or 16-bit counter with two 8 or 16-bit
   7:Generated_Source\PSoC5/interrupter1.c **** *  comparitors. Each instance of this user module is capable of generating
   8:Generated_Source\PSoC5/interrupter1.c **** *  two PWM outputs with the same period. The pulse width is selectable between
   9:Generated_Source\PSoC5/interrupter1.c **** *  1 and 255/65535. The period is selectable between 2 and 255/65536 clocks.
  10:Generated_Source\PSoC5/interrupter1.c **** *  The compare value output may be configured to be active when the present
  11:Generated_Source\PSoC5/interrupter1.c **** *  counter is less than or less than/equal to the compare value.
  12:Generated_Source\PSoC5/interrupter1.c **** *  A terminal count output is also provided. It generates a pulse one clock
  13:Generated_Source\PSoC5/interrupter1.c **** *  width wide when the counter is equal to zero.
  14:Generated_Source\PSoC5/interrupter1.c **** *
  15:Generated_Source\PSoC5/interrupter1.c **** * Note:
  16:Generated_Source\PSoC5/interrupter1.c **** *
  17:Generated_Source\PSoC5/interrupter1.c **** *******************************************************************************
  18:Generated_Source\PSoC5/interrupter1.c **** * Copyright 2008-2014, Cypress Semiconductor Corporation.  All rights reserved.
  19:Generated_Source\PSoC5/interrupter1.c **** * You may use this file only in accordance with the license, terms, conditions,
  20:Generated_Source\PSoC5/interrupter1.c **** * disclaimers, and limitations in the end user license agreement accompanying
  21:Generated_Source\PSoC5/interrupter1.c **** * the software package with which this file was provided.
  22:Generated_Source\PSoC5/interrupter1.c **** ********************************************************************************/
  23:Generated_Source\PSoC5/interrupter1.c **** 
  24:Generated_Source\PSoC5/interrupter1.c **** #include "interrupter1.h"
  25:Generated_Source\PSoC5/interrupter1.c **** 
  26:Generated_Source\PSoC5/interrupter1.c **** /* Error message for removed <resource> through optimization */
  27:Generated_Source\PSoC5/interrupter1.c **** #ifdef interrupter1_PWMUDB_genblk1_ctrlreg__REMOVED
  28:Generated_Source\PSoC5/interrupter1.c ****     #error PWM_v3_30 detected with a constant 0 for the enable or \
  29:Generated_Source\PSoC5/interrupter1.c ****          constant 1 for reset. This will prevent the component from operating.
  30:Generated_Source\PSoC5/interrupter1.c **** #endif /* interrupter1_PWMUDB_genblk1_ctrlreg__REMOVED */
ARM GAS  C:\Users\chemi\AppData\Local\Temp\ccezsgPw.s 			page 2


  31:Generated_Source\PSoC5/interrupter1.c **** 
  32:Generated_Source\PSoC5/interrupter1.c **** uint8 interrupter1_initVar = 0u;
  33:Generated_Source\PSoC5/interrupter1.c **** 
  34:Generated_Source\PSoC5/interrupter1.c **** 
  35:Generated_Source\PSoC5/interrupter1.c **** /*******************************************************************************
  36:Generated_Source\PSoC5/interrupter1.c **** * Function Name: interrupter1_Start
  37:Generated_Source\PSoC5/interrupter1.c **** ********************************************************************************
  38:Generated_Source\PSoC5/interrupter1.c **** *
  39:Generated_Source\PSoC5/interrupter1.c **** * Summary:
  40:Generated_Source\PSoC5/interrupter1.c **** *  The start function initializes the pwm with the default values, the
  41:Generated_Source\PSoC5/interrupter1.c **** *  enables the counter to begin counting.  It does not enable interrupts,
  42:Generated_Source\PSoC5/interrupter1.c **** *  the EnableInt command should be called if interrupt generation is required.
  43:Generated_Source\PSoC5/interrupter1.c **** *
  44:Generated_Source\PSoC5/interrupter1.c **** * Parameters:
  45:Generated_Source\PSoC5/interrupter1.c **** *  None
  46:Generated_Source\PSoC5/interrupter1.c **** *
  47:Generated_Source\PSoC5/interrupter1.c **** * Return:
  48:Generated_Source\PSoC5/interrupter1.c **** *  None
  49:Generated_Source\PSoC5/interrupter1.c **** *
  50:Generated_Source\PSoC5/interrupter1.c **** * Global variables:
  51:Generated_Source\PSoC5/interrupter1.c **** *  interrupter1_initVar: Is modified when this function is called for the
  52:Generated_Source\PSoC5/interrupter1.c **** *   first time. Is used to ensure that initialization happens only once.
  53:Generated_Source\PSoC5/interrupter1.c **** *
  54:Generated_Source\PSoC5/interrupter1.c **** *******************************************************************************/
  55:Generated_Source\PSoC5/interrupter1.c **** void interrupter1_Start(void) 
  56:Generated_Source\PSoC5/interrupter1.c **** {
  57:Generated_Source\PSoC5/interrupter1.c ****     /* If not Initialized then initialize all required hardware and software */
  58:Generated_Source\PSoC5/interrupter1.c ****     if(interrupter1_initVar == 0u)
  59:Generated_Source\PSoC5/interrupter1.c ****     {
  60:Generated_Source\PSoC5/interrupter1.c ****         interrupter1_Init();
  61:Generated_Source\PSoC5/interrupter1.c ****         interrupter1_initVar = 1u;
  62:Generated_Source\PSoC5/interrupter1.c ****     }
  63:Generated_Source\PSoC5/interrupter1.c ****     interrupter1_Enable();
  64:Generated_Source\PSoC5/interrupter1.c **** 
  65:Generated_Source\PSoC5/interrupter1.c **** }
  66:Generated_Source\PSoC5/interrupter1.c **** 
  67:Generated_Source\PSoC5/interrupter1.c **** 
  68:Generated_Source\PSoC5/interrupter1.c **** /*******************************************************************************
  69:Generated_Source\PSoC5/interrupter1.c **** * Function Name: interrupter1_Init
  70:Generated_Source\PSoC5/interrupter1.c **** ********************************************************************************
  71:Generated_Source\PSoC5/interrupter1.c **** *
  72:Generated_Source\PSoC5/interrupter1.c **** * Summary:
  73:Generated_Source\PSoC5/interrupter1.c **** *  Initialize component's parameters to the parameters set by user in the
  74:Generated_Source\PSoC5/interrupter1.c **** *  customizer of the component placed onto schematic. Usually called in
  75:Generated_Source\PSoC5/interrupter1.c **** *  interrupter1_Start().
  76:Generated_Source\PSoC5/interrupter1.c **** *
  77:Generated_Source\PSoC5/interrupter1.c **** * Parameters:
  78:Generated_Source\PSoC5/interrupter1.c **** *  None
  79:Generated_Source\PSoC5/interrupter1.c **** *
  80:Generated_Source\PSoC5/interrupter1.c **** * Return:
  81:Generated_Source\PSoC5/interrupter1.c **** *  None
  82:Generated_Source\PSoC5/interrupter1.c **** *
  83:Generated_Source\PSoC5/interrupter1.c **** *******************************************************************************/
  84:Generated_Source\PSoC5/interrupter1.c **** void interrupter1_Init(void) 
  85:Generated_Source\PSoC5/interrupter1.c **** {
  28              		.loc 1 85 0
  29              		.cfi_startproc
ARM GAS  C:\Users\chemi\AppData\Local\Temp\ccezsgPw.s 			page 3


  30              		@ args = 0, pretend = 0, frame = 0
  31              		@ frame_needed = 0, uses_anonymous_args = 0
  32              		@ link register save eliminated.
  86:Generated_Source\PSoC5/interrupter1.c ****     #if (interrupter1_UsingFixedFunction || interrupter1_UseControl)
  87:Generated_Source\PSoC5/interrupter1.c ****         uint8 ctrl;
  88:Generated_Source\PSoC5/interrupter1.c ****     #endif /* (interrupter1_UsingFixedFunction || interrupter1_UseControl) */
  89:Generated_Source\PSoC5/interrupter1.c **** 
  90:Generated_Source\PSoC5/interrupter1.c ****     #if(!interrupter1_UsingFixedFunction)
  91:Generated_Source\PSoC5/interrupter1.c ****         #if(interrupter1_UseStatus)
  92:Generated_Source\PSoC5/interrupter1.c ****             /* Interrupt State Backup for Critical Region*/
  93:Generated_Source\PSoC5/interrupter1.c ****             uint8 interrupter1_interruptState;
  94:Generated_Source\PSoC5/interrupter1.c ****         #endif /* (interrupter1_UseStatus) */
  95:Generated_Source\PSoC5/interrupter1.c ****     #endif /* (!interrupter1_UsingFixedFunction) */
  96:Generated_Source\PSoC5/interrupter1.c **** 
  97:Generated_Source\PSoC5/interrupter1.c ****     #if (interrupter1_UsingFixedFunction)
  98:Generated_Source\PSoC5/interrupter1.c ****         /* You are allowed to write the compare value (FF only) */
  99:Generated_Source\PSoC5/interrupter1.c ****         interrupter1_CONTROL |= interrupter1_CFG0_MODE;
 100:Generated_Source\PSoC5/interrupter1.c ****         #if (interrupter1_DeadBand2_4)
 101:Generated_Source\PSoC5/interrupter1.c ****             interrupter1_CONTROL |= interrupter1_CFG0_DB;
 102:Generated_Source\PSoC5/interrupter1.c ****         #endif /* (interrupter1_DeadBand2_4) */
 103:Generated_Source\PSoC5/interrupter1.c **** 
 104:Generated_Source\PSoC5/interrupter1.c ****         ctrl = interrupter1_CONTROL3 & ((uint8 )(~interrupter1_CTRL_CMPMODE1_MASK));
 105:Generated_Source\PSoC5/interrupter1.c ****         interrupter1_CONTROL3 = ctrl | interrupter1_DEFAULT_COMPARE1_MODE;
 106:Generated_Source\PSoC5/interrupter1.c **** 
 107:Generated_Source\PSoC5/interrupter1.c ****          /* Clear and Set SYNCTC and SYNCCMP bits of RT1 register */
 108:Generated_Source\PSoC5/interrupter1.c ****         interrupter1_RT1 &= ((uint8)(~interrupter1_RT1_MASK));
 109:Generated_Source\PSoC5/interrupter1.c ****         interrupter1_RT1 |= interrupter1_SYNC;
 110:Generated_Source\PSoC5/interrupter1.c **** 
 111:Generated_Source\PSoC5/interrupter1.c ****         /*Enable DSI Sync all all inputs of the PWM*/
 112:Generated_Source\PSoC5/interrupter1.c ****         interrupter1_RT1 &= ((uint8)(~interrupter1_SYNCDSI_MASK));
 113:Generated_Source\PSoC5/interrupter1.c ****         interrupter1_RT1 |= interrupter1_SYNCDSI_EN;
 114:Generated_Source\PSoC5/interrupter1.c **** 
 115:Generated_Source\PSoC5/interrupter1.c ****     #elif (interrupter1_UseControl)
 116:Generated_Source\PSoC5/interrupter1.c ****         /* Set the default compare mode defined in the parameter */
 117:Generated_Source\PSoC5/interrupter1.c ****         ctrl = interrupter1_CONTROL & ((uint8)(~interrupter1_CTRL_CMPMODE2_MASK)) &
  33              		.loc 1 117 0
  34 0000 0E4A     		ldr	r2, .L2
  35 0002 1378     		ldrb	r3, [r2]	@ zero_extendqisi2
  36              	.LVL0:
 118:Generated_Source\PSoC5/interrupter1.c ****                 ((uint8)(~interrupter1_CTRL_CMPMODE1_MASK));
 119:Generated_Source\PSoC5/interrupter1.c ****         interrupter1_CONTROL = ctrl | interrupter1_DEFAULT_COMPARE2_MODE |
  37              		.loc 1 119 0
  38 0004 03F0C003 		and	r3, r3, #192
  39              	.LVL1:
  40 0008 43F00B03 		orr	r3, r3, #11
  41 000c 1370     		strb	r3, [r2]
 120:Generated_Source\PSoC5/interrupter1.c ****                                    interrupter1_DEFAULT_COMPARE1_MODE;
 121:Generated_Source\PSoC5/interrupter1.c ****     #endif /* (interrupter1_UsingFixedFunction) */
 122:Generated_Source\PSoC5/interrupter1.c **** 
 123:Generated_Source\PSoC5/interrupter1.c ****     #if (!interrupter1_UsingFixedFunction)
 124:Generated_Source\PSoC5/interrupter1.c ****         #if (interrupter1_Resolution == 8)
 125:Generated_Source\PSoC5/interrupter1.c ****             /* Set FIFO 0 to 1 byte register for period*/
 126:Generated_Source\PSoC5/interrupter1.c ****             interrupter1_AUX_CONTROLDP0 |= (interrupter1_AUX_CTRL_FIFO0_CLR);
 127:Generated_Source\PSoC5/interrupter1.c ****         #else /* (interrupter1_Resolution == 16)*/
 128:Generated_Source\PSoC5/interrupter1.c ****             /* Set FIFO 0 to 1 byte register for period */
 129:Generated_Source\PSoC5/interrupter1.c ****             interrupter1_AUX_CONTROLDP0 |= (interrupter1_AUX_CTRL_FIFO0_CLR);
  42              		.loc 1 129 0
ARM GAS  C:\Users\chemi\AppData\Local\Temp\ccezsgPw.s 			page 4


  43 000e 92F82C30 		ldrb	r3, [r2, #44]	@ zero_extendqisi2
  44 0012 43F00103 		orr	r3, r3, #1
  45 0016 82F82C30 		strb	r3, [r2, #44]
 130:Generated_Source\PSoC5/interrupter1.c ****             interrupter1_AUX_CONTROLDP1 |= (interrupter1_AUX_CTRL_FIFO0_CLR);
  46              		.loc 1 130 0
  47 001a 92F82D30 		ldrb	r3, [r2, #45]	@ zero_extendqisi2
  48 001e 43F00103 		orr	r3, r3, #1
  49 0022 82F82D30 		strb	r3, [r2, #45]
  50              	.LVL2:
  51              	.LBB10:
  52              	.LBB11:
 131:Generated_Source\PSoC5/interrupter1.c ****         #endif /* (interrupter1_Resolution == 8) */
 132:Generated_Source\PSoC5/interrupter1.c **** 
 133:Generated_Source\PSoC5/interrupter1.c ****         interrupter1_WriteCounter(interrupter1_INIT_PERIOD_VALUE);
 134:Generated_Source\PSoC5/interrupter1.c ****     #endif /* (!interrupter1_UsingFixedFunction) */
 135:Generated_Source\PSoC5/interrupter1.c **** 
 136:Generated_Source\PSoC5/interrupter1.c ****     interrupter1_WritePeriod(interrupter1_INIT_PERIOD_VALUE);
 137:Generated_Source\PSoC5/interrupter1.c **** 
 138:Generated_Source\PSoC5/interrupter1.c ****         #if (interrupter1_UseOneCompareMode)
 139:Generated_Source\PSoC5/interrupter1.c ****             interrupter1_WriteCompare(interrupter1_INIT_COMPARE_VALUE1);
 140:Generated_Source\PSoC5/interrupter1.c ****         #else
 141:Generated_Source\PSoC5/interrupter1.c ****             interrupter1_WriteCompare1(interrupter1_INIT_COMPARE_VALUE1);
 142:Generated_Source\PSoC5/interrupter1.c ****             interrupter1_WriteCompare2(interrupter1_INIT_COMPARE_VALUE2);
 143:Generated_Source\PSoC5/interrupter1.c ****         #endif /* (interrupter1_UseOneCompareMode) */
 144:Generated_Source\PSoC5/interrupter1.c **** 
 145:Generated_Source\PSoC5/interrupter1.c ****         #if (interrupter1_KillModeMinTime)
 146:Generated_Source\PSoC5/interrupter1.c ****             interrupter1_WriteKillTime(interrupter1_MinimumKillTime);
 147:Generated_Source\PSoC5/interrupter1.c ****         #endif /* (interrupter1_KillModeMinTime) */
 148:Generated_Source\PSoC5/interrupter1.c **** 
 149:Generated_Source\PSoC5/interrupter1.c ****         #if (interrupter1_DeadBandUsed)
 150:Generated_Source\PSoC5/interrupter1.c ****             interrupter1_WriteDeadTime(interrupter1_INIT_DEAD_TIME);
 151:Generated_Source\PSoC5/interrupter1.c ****         #endif /* (interrupter1_DeadBandUsed) */
 152:Generated_Source\PSoC5/interrupter1.c **** 
 153:Generated_Source\PSoC5/interrupter1.c ****     #if (interrupter1_UseStatus || interrupter1_UsingFixedFunction)
 154:Generated_Source\PSoC5/interrupter1.c ****         interrupter1_SetInterruptMode(interrupter1_INIT_INTERRUPTS_MODE);
 155:Generated_Source\PSoC5/interrupter1.c ****     #endif /* (interrupter1_UseStatus || interrupter1_UsingFixedFunction) */
 156:Generated_Source\PSoC5/interrupter1.c **** 
 157:Generated_Source\PSoC5/interrupter1.c ****     #if (interrupter1_UsingFixedFunction)
 158:Generated_Source\PSoC5/interrupter1.c ****         /* Globally Enable the Fixed Function Block chosen */
 159:Generated_Source\PSoC5/interrupter1.c ****         interrupter1_GLOBAL_ENABLE |= interrupter1_BLOCK_EN_MASK;
 160:Generated_Source\PSoC5/interrupter1.c ****         /* Set the Interrupt source to come from the status register */
 161:Generated_Source\PSoC5/interrupter1.c ****         interrupter1_CONTROL2 |= interrupter1_CTRL2_IRQ_SEL;
 162:Generated_Source\PSoC5/interrupter1.c ****     #else
 163:Generated_Source\PSoC5/interrupter1.c ****         #if(interrupter1_UseStatus)
 164:Generated_Source\PSoC5/interrupter1.c **** 
 165:Generated_Source\PSoC5/interrupter1.c ****             /* CyEnterCriticalRegion and CyExitCriticalRegion are used to mark following region cri
 166:Generated_Source\PSoC5/interrupter1.c ****             /* Enter Critical Region*/
 167:Generated_Source\PSoC5/interrupter1.c ****             interrupter1_interruptState = CyEnterCriticalSection();
 168:Generated_Source\PSoC5/interrupter1.c ****             /* Use the interrupt output of the status register for IRQ output */
 169:Generated_Source\PSoC5/interrupter1.c ****             interrupter1_STATUS_AUX_CTRL |= interrupter1_STATUS_ACTL_INT_EN_MASK;
 170:Generated_Source\PSoC5/interrupter1.c **** 
 171:Generated_Source\PSoC5/interrupter1.c ****              /* Exit Critical Region*/
 172:Generated_Source\PSoC5/interrupter1.c ****             CyExitCriticalSection(interrupter1_interruptState);
 173:Generated_Source\PSoC5/interrupter1.c **** 
 174:Generated_Source\PSoC5/interrupter1.c ****             /* Clear the FIFO to enable the interrupter1_STATUS_FIFOFULL
 175:Generated_Source\PSoC5/interrupter1.c ****                    bit to be set on FIFO full. */
 176:Generated_Source\PSoC5/interrupter1.c ****             interrupter1_ClearFIFO();
ARM GAS  C:\Users\chemi\AppData\Local\Temp\ccezsgPw.s 			page 5


 177:Generated_Source\PSoC5/interrupter1.c ****         #endif /* (interrupter1_UseStatus) */
 178:Generated_Source\PSoC5/interrupter1.c ****     #endif /* (interrupter1_UsingFixedFunction) */
 179:Generated_Source\PSoC5/interrupter1.c **** }
 180:Generated_Source\PSoC5/interrupter1.c **** 
 181:Generated_Source\PSoC5/interrupter1.c **** 
 182:Generated_Source\PSoC5/interrupter1.c **** /*******************************************************************************
 183:Generated_Source\PSoC5/interrupter1.c **** * Function Name: interrupter1_Enable
 184:Generated_Source\PSoC5/interrupter1.c **** ********************************************************************************
 185:Generated_Source\PSoC5/interrupter1.c **** *
 186:Generated_Source\PSoC5/interrupter1.c **** * Summary:
 187:Generated_Source\PSoC5/interrupter1.c **** *  Enables the PWM block operation
 188:Generated_Source\PSoC5/interrupter1.c **** *
 189:Generated_Source\PSoC5/interrupter1.c **** * Parameters:
 190:Generated_Source\PSoC5/interrupter1.c **** *  None
 191:Generated_Source\PSoC5/interrupter1.c **** *
 192:Generated_Source\PSoC5/interrupter1.c **** * Return:
 193:Generated_Source\PSoC5/interrupter1.c **** *  None
 194:Generated_Source\PSoC5/interrupter1.c **** *
 195:Generated_Source\PSoC5/interrupter1.c **** * Side Effects:
 196:Generated_Source\PSoC5/interrupter1.c **** *  This works only if software enable mode is chosen
 197:Generated_Source\PSoC5/interrupter1.c **** *
 198:Generated_Source\PSoC5/interrupter1.c **** *******************************************************************************/
 199:Generated_Source\PSoC5/interrupter1.c **** void interrupter1_Enable(void) 
 200:Generated_Source\PSoC5/interrupter1.c **** {
 201:Generated_Source\PSoC5/interrupter1.c ****     /* Globally Enable the Fixed Function Block chosen */
 202:Generated_Source\PSoC5/interrupter1.c ****     #if (interrupter1_UsingFixedFunction)
 203:Generated_Source\PSoC5/interrupter1.c ****         interrupter1_GLOBAL_ENABLE |= interrupter1_BLOCK_EN_MASK;
 204:Generated_Source\PSoC5/interrupter1.c ****         interrupter1_GLOBAL_STBY_ENABLE |= interrupter1_BLOCK_STBY_EN_MASK;
 205:Generated_Source\PSoC5/interrupter1.c ****     #endif /* (interrupter1_UsingFixedFunction) */
 206:Generated_Source\PSoC5/interrupter1.c **** 
 207:Generated_Source\PSoC5/interrupter1.c ****     /* Enable the PWM from the control register  */
 208:Generated_Source\PSoC5/interrupter1.c ****     #if (interrupter1_UseControl || interrupter1_UsingFixedFunction)
 209:Generated_Source\PSoC5/interrupter1.c ****         interrupter1_CONTROL |= interrupter1_CTRL_ENABLE;
 210:Generated_Source\PSoC5/interrupter1.c ****     #endif /* (interrupter1_UseControl || interrupter1_UsingFixedFunction) */
 211:Generated_Source\PSoC5/interrupter1.c **** }
 212:Generated_Source\PSoC5/interrupter1.c **** 
 213:Generated_Source\PSoC5/interrupter1.c **** 
 214:Generated_Source\PSoC5/interrupter1.c **** /*******************************************************************************
 215:Generated_Source\PSoC5/interrupter1.c **** * Function Name: interrupter1_Stop
 216:Generated_Source\PSoC5/interrupter1.c **** ********************************************************************************
 217:Generated_Source\PSoC5/interrupter1.c **** *
 218:Generated_Source\PSoC5/interrupter1.c **** * Summary:
 219:Generated_Source\PSoC5/interrupter1.c **** *  The stop function halts the PWM, but does not change any modes or disable
 220:Generated_Source\PSoC5/interrupter1.c **** *  interrupts.
 221:Generated_Source\PSoC5/interrupter1.c **** *
 222:Generated_Source\PSoC5/interrupter1.c **** * Parameters:
 223:Generated_Source\PSoC5/interrupter1.c **** *  None
 224:Generated_Source\PSoC5/interrupter1.c **** *
 225:Generated_Source\PSoC5/interrupter1.c **** * Return:
 226:Generated_Source\PSoC5/interrupter1.c **** *  None
 227:Generated_Source\PSoC5/interrupter1.c **** *
 228:Generated_Source\PSoC5/interrupter1.c **** * Side Effects:
 229:Generated_Source\PSoC5/interrupter1.c **** *  If the Enable mode is set to Hardware only then this function
 230:Generated_Source\PSoC5/interrupter1.c **** *  has no effect on the operation of the PWM
 231:Generated_Source\PSoC5/interrupter1.c **** *
 232:Generated_Source\PSoC5/interrupter1.c **** *******************************************************************************/
 233:Generated_Source\PSoC5/interrupter1.c **** void interrupter1_Stop(void) 
ARM GAS  C:\Users\chemi\AppData\Local\Temp\ccezsgPw.s 			page 6


 234:Generated_Source\PSoC5/interrupter1.c **** {
 235:Generated_Source\PSoC5/interrupter1.c ****     #if (interrupter1_UseControl || interrupter1_UsingFixedFunction)
 236:Generated_Source\PSoC5/interrupter1.c ****         interrupter1_CONTROL &= ((uint8)(~interrupter1_CTRL_ENABLE));
 237:Generated_Source\PSoC5/interrupter1.c ****     #endif /* (interrupter1_UseControl || interrupter1_UsingFixedFunction) */
 238:Generated_Source\PSoC5/interrupter1.c **** 
 239:Generated_Source\PSoC5/interrupter1.c ****     /* Globally disable the Fixed Function Block chosen */
 240:Generated_Source\PSoC5/interrupter1.c ****     #if (interrupter1_UsingFixedFunction)
 241:Generated_Source\PSoC5/interrupter1.c ****         interrupter1_GLOBAL_ENABLE &= ((uint8)(~interrupter1_BLOCK_EN_MASK));
 242:Generated_Source\PSoC5/interrupter1.c ****         interrupter1_GLOBAL_STBY_ENABLE &= ((uint8)(~interrupter1_BLOCK_STBY_EN_MASK));
 243:Generated_Source\PSoC5/interrupter1.c ****     #endif /* (interrupter1_UsingFixedFunction) */
 244:Generated_Source\PSoC5/interrupter1.c **** }
 245:Generated_Source\PSoC5/interrupter1.c **** 
 246:Generated_Source\PSoC5/interrupter1.c **** #if (interrupter1_UseOneCompareMode)
 247:Generated_Source\PSoC5/interrupter1.c ****     #if (interrupter1_CompareMode1SW)
 248:Generated_Source\PSoC5/interrupter1.c **** 
 249:Generated_Source\PSoC5/interrupter1.c **** 
 250:Generated_Source\PSoC5/interrupter1.c ****         /*******************************************************************************
 251:Generated_Source\PSoC5/interrupter1.c ****         * Function Name: interrupter1_SetCompareMode
 252:Generated_Source\PSoC5/interrupter1.c ****         ********************************************************************************
 253:Generated_Source\PSoC5/interrupter1.c ****         *
 254:Generated_Source\PSoC5/interrupter1.c ****         * Summary:
 255:Generated_Source\PSoC5/interrupter1.c ****         *  This function writes the Compare Mode for the pwm output when in Dither mode,
 256:Generated_Source\PSoC5/interrupter1.c ****         *  Center Align Mode or One Output Mode.
 257:Generated_Source\PSoC5/interrupter1.c ****         *
 258:Generated_Source\PSoC5/interrupter1.c ****         * Parameters:
 259:Generated_Source\PSoC5/interrupter1.c ****         *  comparemode:  The new compare mode for the PWM output. Use the compare types
 260:Generated_Source\PSoC5/interrupter1.c ****         *                defined in the H file as input arguments.
 261:Generated_Source\PSoC5/interrupter1.c ****         *
 262:Generated_Source\PSoC5/interrupter1.c ****         * Return:
 263:Generated_Source\PSoC5/interrupter1.c ****         *  None
 264:Generated_Source\PSoC5/interrupter1.c ****         *
 265:Generated_Source\PSoC5/interrupter1.c ****         *******************************************************************************/
 266:Generated_Source\PSoC5/interrupter1.c ****         void interrupter1_SetCompareMode(uint8 comparemode) 
 267:Generated_Source\PSoC5/interrupter1.c ****         {
 268:Generated_Source\PSoC5/interrupter1.c ****             #if(interrupter1_UsingFixedFunction)
 269:Generated_Source\PSoC5/interrupter1.c **** 
 270:Generated_Source\PSoC5/interrupter1.c ****                 #if(0 != interrupter1_CTRL_CMPMODE1_SHIFT)
 271:Generated_Source\PSoC5/interrupter1.c ****                     uint8 comparemodemasked = ((uint8)((uint8)comparemode << interrupter1_CTRL_CMPM
 272:Generated_Source\PSoC5/interrupter1.c ****                 #else
 273:Generated_Source\PSoC5/interrupter1.c ****                     uint8 comparemodemasked = comparemode;
 274:Generated_Source\PSoC5/interrupter1.c ****                 #endif /* (0 != interrupter1_CTRL_CMPMODE1_SHIFT) */
 275:Generated_Source\PSoC5/interrupter1.c **** 
 276:Generated_Source\PSoC5/interrupter1.c ****                 interrupter1_CONTROL3 &= ((uint8)(~interrupter1_CTRL_CMPMODE1_MASK)); /*Clear Exist
 277:Generated_Source\PSoC5/interrupter1.c ****                 interrupter1_CONTROL3 |= comparemodemasked;
 278:Generated_Source\PSoC5/interrupter1.c **** 
 279:Generated_Source\PSoC5/interrupter1.c ****             #elif (interrupter1_UseControl)
 280:Generated_Source\PSoC5/interrupter1.c **** 
 281:Generated_Source\PSoC5/interrupter1.c ****                 #if(0 != interrupter1_CTRL_CMPMODE1_SHIFT)
 282:Generated_Source\PSoC5/interrupter1.c ****                     uint8 comparemode1masked = ((uint8)((uint8)comparemode << interrupter1_CTRL_CMP
 283:Generated_Source\PSoC5/interrupter1.c ****                                                 interrupter1_CTRL_CMPMODE1_MASK;
 284:Generated_Source\PSoC5/interrupter1.c ****                 #else
 285:Generated_Source\PSoC5/interrupter1.c ****                     uint8 comparemode1masked = comparemode & interrupter1_CTRL_CMPMODE1_MASK;
 286:Generated_Source\PSoC5/interrupter1.c ****                 #endif /* (0 != interrupter1_CTRL_CMPMODE1_SHIFT) */
 287:Generated_Source\PSoC5/interrupter1.c **** 
 288:Generated_Source\PSoC5/interrupter1.c ****                 #if(0 != interrupter1_CTRL_CMPMODE2_SHIFT)
 289:Generated_Source\PSoC5/interrupter1.c ****                     uint8 comparemode2masked = ((uint8)((uint8)comparemode << interrupter1_CTRL_CMP
 290:Generated_Source\PSoC5/interrupter1.c ****                                                interrupter1_CTRL_CMPMODE2_MASK;
ARM GAS  C:\Users\chemi\AppData\Local\Temp\ccezsgPw.s 			page 7


 291:Generated_Source\PSoC5/interrupter1.c ****                 #else
 292:Generated_Source\PSoC5/interrupter1.c ****                     uint8 comparemode2masked = comparemode & interrupter1_CTRL_CMPMODE2_MASK;
 293:Generated_Source\PSoC5/interrupter1.c ****                 #endif /* (0 != interrupter1_CTRL_CMPMODE2_SHIFT) */
 294:Generated_Source\PSoC5/interrupter1.c **** 
 295:Generated_Source\PSoC5/interrupter1.c ****                 /*Clear existing mode */
 296:Generated_Source\PSoC5/interrupter1.c ****                 interrupter1_CONTROL &= ((uint8)(~(interrupter1_CTRL_CMPMODE1_MASK |
 297:Generated_Source\PSoC5/interrupter1.c ****                                             interrupter1_CTRL_CMPMODE2_MASK)));
 298:Generated_Source\PSoC5/interrupter1.c ****                 interrupter1_CONTROL |= (comparemode1masked | comparemode2masked);
 299:Generated_Source\PSoC5/interrupter1.c **** 
 300:Generated_Source\PSoC5/interrupter1.c ****             #else
 301:Generated_Source\PSoC5/interrupter1.c ****                 uint8 temp = comparemode;
 302:Generated_Source\PSoC5/interrupter1.c ****             #endif /* (interrupter1_UsingFixedFunction) */
 303:Generated_Source\PSoC5/interrupter1.c ****         }
 304:Generated_Source\PSoC5/interrupter1.c ****     #endif /* interrupter1_CompareMode1SW */
 305:Generated_Source\PSoC5/interrupter1.c **** 
 306:Generated_Source\PSoC5/interrupter1.c **** #else /* UseOneCompareMode */
 307:Generated_Source\PSoC5/interrupter1.c **** 
 308:Generated_Source\PSoC5/interrupter1.c ****     #if (interrupter1_CompareMode1SW)
 309:Generated_Source\PSoC5/interrupter1.c **** 
 310:Generated_Source\PSoC5/interrupter1.c **** 
 311:Generated_Source\PSoC5/interrupter1.c ****         /*******************************************************************************
 312:Generated_Source\PSoC5/interrupter1.c ****         * Function Name: interrupter1_SetCompareMode1
 313:Generated_Source\PSoC5/interrupter1.c ****         ********************************************************************************
 314:Generated_Source\PSoC5/interrupter1.c ****         *
 315:Generated_Source\PSoC5/interrupter1.c ****         * Summary:
 316:Generated_Source\PSoC5/interrupter1.c ****         *  This function writes the Compare Mode for the pwm or pwm1 output
 317:Generated_Source\PSoC5/interrupter1.c ****         *
 318:Generated_Source\PSoC5/interrupter1.c ****         * Parameters:
 319:Generated_Source\PSoC5/interrupter1.c ****         *  comparemode:  The new compare mode for the PWM output. Use the compare types
 320:Generated_Source\PSoC5/interrupter1.c ****         *                defined in the H file as input arguments.
 321:Generated_Source\PSoC5/interrupter1.c ****         *
 322:Generated_Source\PSoC5/interrupter1.c ****         * Return:
 323:Generated_Source\PSoC5/interrupter1.c ****         *  None
 324:Generated_Source\PSoC5/interrupter1.c ****         *
 325:Generated_Source\PSoC5/interrupter1.c ****         *******************************************************************************/
 326:Generated_Source\PSoC5/interrupter1.c ****         void interrupter1_SetCompareMode1(uint8 comparemode) 
 327:Generated_Source\PSoC5/interrupter1.c ****         {
 328:Generated_Source\PSoC5/interrupter1.c ****             #if(0 != interrupter1_CTRL_CMPMODE1_SHIFT)
 329:Generated_Source\PSoC5/interrupter1.c ****                 uint8 comparemodemasked = ((uint8)((uint8)comparemode << interrupter1_CTRL_CMPMODE1
 330:Generated_Source\PSoC5/interrupter1.c ****                                            interrupter1_CTRL_CMPMODE1_MASK;
 331:Generated_Source\PSoC5/interrupter1.c ****             #else
 332:Generated_Source\PSoC5/interrupter1.c ****                 uint8 comparemodemasked = comparemode & interrupter1_CTRL_CMPMODE1_MASK;
 333:Generated_Source\PSoC5/interrupter1.c ****             #endif /* (0 != interrupter1_CTRL_CMPMODE1_SHIFT) */
 334:Generated_Source\PSoC5/interrupter1.c **** 
 335:Generated_Source\PSoC5/interrupter1.c ****             #if (interrupter1_UseControl)
 336:Generated_Source\PSoC5/interrupter1.c ****                 interrupter1_CONTROL &= ((uint8)(~interrupter1_CTRL_CMPMODE1_MASK)); /*Clear existi
 337:Generated_Source\PSoC5/interrupter1.c ****                 interrupter1_CONTROL |= comparemodemasked;
 338:Generated_Source\PSoC5/interrupter1.c ****             #endif /* (interrupter1_UseControl) */
 339:Generated_Source\PSoC5/interrupter1.c ****         }
 340:Generated_Source\PSoC5/interrupter1.c ****     #endif /* interrupter1_CompareMode1SW */
 341:Generated_Source\PSoC5/interrupter1.c **** 
 342:Generated_Source\PSoC5/interrupter1.c **** #if (interrupter1_CompareMode2SW)
 343:Generated_Source\PSoC5/interrupter1.c **** 
 344:Generated_Source\PSoC5/interrupter1.c **** 
 345:Generated_Source\PSoC5/interrupter1.c ****     /*******************************************************************************
 346:Generated_Source\PSoC5/interrupter1.c ****     * Function Name: interrupter1_SetCompareMode2
 347:Generated_Source\PSoC5/interrupter1.c ****     ********************************************************************************
ARM GAS  C:\Users\chemi\AppData\Local\Temp\ccezsgPw.s 			page 8


 348:Generated_Source\PSoC5/interrupter1.c ****     *
 349:Generated_Source\PSoC5/interrupter1.c ****     * Summary:
 350:Generated_Source\PSoC5/interrupter1.c ****     *  This function writes the Compare Mode for the pwm or pwm2 output
 351:Generated_Source\PSoC5/interrupter1.c ****     *
 352:Generated_Source\PSoC5/interrupter1.c ****     * Parameters:
 353:Generated_Source\PSoC5/interrupter1.c ****     *  comparemode:  The new compare mode for the PWM output. Use the compare types
 354:Generated_Source\PSoC5/interrupter1.c ****     *                defined in the H file as input arguments.
 355:Generated_Source\PSoC5/interrupter1.c ****     *
 356:Generated_Source\PSoC5/interrupter1.c ****     * Return:
 357:Generated_Source\PSoC5/interrupter1.c ****     *  None
 358:Generated_Source\PSoC5/interrupter1.c ****     *
 359:Generated_Source\PSoC5/interrupter1.c ****     *******************************************************************************/
 360:Generated_Source\PSoC5/interrupter1.c ****     void interrupter1_SetCompareMode2(uint8 comparemode) 
 361:Generated_Source\PSoC5/interrupter1.c ****     {
 362:Generated_Source\PSoC5/interrupter1.c **** 
 363:Generated_Source\PSoC5/interrupter1.c ****         #if(0 != interrupter1_CTRL_CMPMODE2_SHIFT)
 364:Generated_Source\PSoC5/interrupter1.c ****             uint8 comparemodemasked = ((uint8)((uint8)comparemode << interrupter1_CTRL_CMPMODE2_SHI
 365:Generated_Source\PSoC5/interrupter1.c ****                                                  interrupter1_CTRL_CMPMODE2_MASK;
 366:Generated_Source\PSoC5/interrupter1.c ****         #else
 367:Generated_Source\PSoC5/interrupter1.c ****             uint8 comparemodemasked = comparemode & interrupter1_CTRL_CMPMODE2_MASK;
 368:Generated_Source\PSoC5/interrupter1.c ****         #endif /* (0 != interrupter1_CTRL_CMPMODE2_SHIFT) */
 369:Generated_Source\PSoC5/interrupter1.c **** 
 370:Generated_Source\PSoC5/interrupter1.c ****         #if (interrupter1_UseControl)
 371:Generated_Source\PSoC5/interrupter1.c ****             interrupter1_CONTROL &= ((uint8)(~interrupter1_CTRL_CMPMODE2_MASK)); /*Clear existing m
 372:Generated_Source\PSoC5/interrupter1.c ****             interrupter1_CONTROL |= comparemodemasked;
 373:Generated_Source\PSoC5/interrupter1.c ****         #endif /* (interrupter1_UseControl) */
 374:Generated_Source\PSoC5/interrupter1.c ****     }
 375:Generated_Source\PSoC5/interrupter1.c ****     #endif /*interrupter1_CompareMode2SW */
 376:Generated_Source\PSoC5/interrupter1.c **** 
 377:Generated_Source\PSoC5/interrupter1.c **** #endif /* UseOneCompareMode */
 378:Generated_Source\PSoC5/interrupter1.c **** 
 379:Generated_Source\PSoC5/interrupter1.c **** 
 380:Generated_Source\PSoC5/interrupter1.c **** #if (!interrupter1_UsingFixedFunction)
 381:Generated_Source\PSoC5/interrupter1.c **** 
 382:Generated_Source\PSoC5/interrupter1.c **** 
 383:Generated_Source\PSoC5/interrupter1.c ****     /*******************************************************************************
 384:Generated_Source\PSoC5/interrupter1.c ****     * Function Name: interrupter1_WriteCounter
 385:Generated_Source\PSoC5/interrupter1.c ****     ********************************************************************************
 386:Generated_Source\PSoC5/interrupter1.c ****     *
 387:Generated_Source\PSoC5/interrupter1.c ****     * Summary:
 388:Generated_Source\PSoC5/interrupter1.c ****     *  Writes a new counter value directly to the counter register. This will be
 389:Generated_Source\PSoC5/interrupter1.c ****     *  implemented for that currently running period and only that period. This API
 390:Generated_Source\PSoC5/interrupter1.c ****     *  is valid only for UDB implementation and not available for fixed function
 391:Generated_Source\PSoC5/interrupter1.c ****     *  PWM implementation.
 392:Generated_Source\PSoC5/interrupter1.c ****     *
 393:Generated_Source\PSoC5/interrupter1.c ****     * Parameters:
 394:Generated_Source\PSoC5/interrupter1.c ****     *  counter:  The period new period counter value.
 395:Generated_Source\PSoC5/interrupter1.c ****     *
 396:Generated_Source\PSoC5/interrupter1.c ****     * Return:
 397:Generated_Source\PSoC5/interrupter1.c ****     *  None
 398:Generated_Source\PSoC5/interrupter1.c ****     *
 399:Generated_Source\PSoC5/interrupter1.c ****     * Side Effects:
 400:Generated_Source\PSoC5/interrupter1.c ****     *  The PWM Period will be reloaded when a counter value will be a zero
 401:Generated_Source\PSoC5/interrupter1.c ****     *
 402:Generated_Source\PSoC5/interrupter1.c ****     *******************************************************************************/
 403:Generated_Source\PSoC5/interrupter1.c ****     void interrupter1_WriteCounter(uint16 counter) \
 404:Generated_Source\PSoC5/interrupter1.c ****                                        
ARM GAS  C:\Users\chemi\AppData\Local\Temp\ccezsgPw.s 			page 9


 405:Generated_Source\PSoC5/interrupter1.c ****     {
 406:Generated_Source\PSoC5/interrupter1.c ****         CY_SET_REG16(interrupter1_COUNTER_LSB_PTR, counter);
  53              		.loc 1 406 0
  54 0026 4FF6E853 		movw	r3, #65000
  55 002a A2F8A833 		strh	r3, [r2, #936]	@ movhi
  56              	.LVL3:
  57              	.LBE11:
  58              	.LBE10:
  59              	.LBB12:
  60              	.LBB13:
 407:Generated_Source\PSoC5/interrupter1.c ****     }
 408:Generated_Source\PSoC5/interrupter1.c **** 
 409:Generated_Source\PSoC5/interrupter1.c **** 
 410:Generated_Source\PSoC5/interrupter1.c ****     /*******************************************************************************
 411:Generated_Source\PSoC5/interrupter1.c ****     * Function Name: interrupter1_ReadCounter
 412:Generated_Source\PSoC5/interrupter1.c ****     ********************************************************************************
 413:Generated_Source\PSoC5/interrupter1.c ****     *
 414:Generated_Source\PSoC5/interrupter1.c ****     * Summary:
 415:Generated_Source\PSoC5/interrupter1.c ****     *  This function returns the current value of the counter.  It doesn't matter
 416:Generated_Source\PSoC5/interrupter1.c ****     *  if the counter is enabled or running.
 417:Generated_Source\PSoC5/interrupter1.c ****     *
 418:Generated_Source\PSoC5/interrupter1.c ****     * Parameters:
 419:Generated_Source\PSoC5/interrupter1.c ****     *  None
 420:Generated_Source\PSoC5/interrupter1.c ****     *
 421:Generated_Source\PSoC5/interrupter1.c ****     * Return:
 422:Generated_Source\PSoC5/interrupter1.c ****     *  The current value of the counter.
 423:Generated_Source\PSoC5/interrupter1.c ****     *
 424:Generated_Source\PSoC5/interrupter1.c ****     *******************************************************************************/
 425:Generated_Source\PSoC5/interrupter1.c ****     uint16 interrupter1_ReadCounter(void) 
 426:Generated_Source\PSoC5/interrupter1.c ****     {
 427:Generated_Source\PSoC5/interrupter1.c ****         /* Force capture by reading Accumulator */
 428:Generated_Source\PSoC5/interrupter1.c ****         /* Must first do a software capture to be able to read the counter */
 429:Generated_Source\PSoC5/interrupter1.c ****         /* It is up to the user code to make sure there isn't already captured data in the FIFO */
 430:Generated_Source\PSoC5/interrupter1.c ****           (void)CY_GET_REG8(interrupter1_COUNTERCAP_LSB_PTR_8BIT);
 431:Generated_Source\PSoC5/interrupter1.c **** 
 432:Generated_Source\PSoC5/interrupter1.c ****         /* Read the data from the FIFO */
 433:Generated_Source\PSoC5/interrupter1.c ****         return (CY_GET_REG16(interrupter1_CAPTURE_LSB_PTR));
 434:Generated_Source\PSoC5/interrupter1.c ****     }
 435:Generated_Source\PSoC5/interrupter1.c **** 
 436:Generated_Source\PSoC5/interrupter1.c ****     #if (interrupter1_UseStatus)
 437:Generated_Source\PSoC5/interrupter1.c **** 
 438:Generated_Source\PSoC5/interrupter1.c **** 
 439:Generated_Source\PSoC5/interrupter1.c ****         /*******************************************************************************
 440:Generated_Source\PSoC5/interrupter1.c ****         * Function Name: interrupter1_ClearFIFO
 441:Generated_Source\PSoC5/interrupter1.c ****         ********************************************************************************
 442:Generated_Source\PSoC5/interrupter1.c ****         *
 443:Generated_Source\PSoC5/interrupter1.c ****         * Summary:
 444:Generated_Source\PSoC5/interrupter1.c ****         *  This function clears all capture data from the capture FIFO
 445:Generated_Source\PSoC5/interrupter1.c ****         *
 446:Generated_Source\PSoC5/interrupter1.c ****         * Parameters:
 447:Generated_Source\PSoC5/interrupter1.c ****         *  None
 448:Generated_Source\PSoC5/interrupter1.c ****         *
 449:Generated_Source\PSoC5/interrupter1.c ****         * Return:
 450:Generated_Source\PSoC5/interrupter1.c ****         *  None
 451:Generated_Source\PSoC5/interrupter1.c ****         *
 452:Generated_Source\PSoC5/interrupter1.c ****         *******************************************************************************/
 453:Generated_Source\PSoC5/interrupter1.c ****         void interrupter1_ClearFIFO(void) 
ARM GAS  C:\Users\chemi\AppData\Local\Temp\ccezsgPw.s 			page 10


 454:Generated_Source\PSoC5/interrupter1.c ****         {
 455:Generated_Source\PSoC5/interrupter1.c ****             while(0u != (interrupter1_ReadStatusRegister() & interrupter1_STATUS_FIFONEMPTY))
 456:Generated_Source\PSoC5/interrupter1.c ****             {
 457:Generated_Source\PSoC5/interrupter1.c ****                 (void)interrupter1_ReadCapture();
 458:Generated_Source\PSoC5/interrupter1.c ****             }
 459:Generated_Source\PSoC5/interrupter1.c ****         }
 460:Generated_Source\PSoC5/interrupter1.c **** 
 461:Generated_Source\PSoC5/interrupter1.c ****     #endif /* interrupter1_UseStatus */
 462:Generated_Source\PSoC5/interrupter1.c **** 
 463:Generated_Source\PSoC5/interrupter1.c **** #endif /* !interrupter1_UsingFixedFunction */
 464:Generated_Source\PSoC5/interrupter1.c **** 
 465:Generated_Source\PSoC5/interrupter1.c **** 
 466:Generated_Source\PSoC5/interrupter1.c **** /*******************************************************************************
 467:Generated_Source\PSoC5/interrupter1.c **** * Function Name: interrupter1_WritePeriod
 468:Generated_Source\PSoC5/interrupter1.c **** ********************************************************************************
 469:Generated_Source\PSoC5/interrupter1.c **** *
 470:Generated_Source\PSoC5/interrupter1.c **** * Summary:
 471:Generated_Source\PSoC5/interrupter1.c **** *  This function is used to change the period of the counter.  The new period
 472:Generated_Source\PSoC5/interrupter1.c **** *  will be loaded the next time terminal count is detected.
 473:Generated_Source\PSoC5/interrupter1.c **** *
 474:Generated_Source\PSoC5/interrupter1.c **** * Parameters:
 475:Generated_Source\PSoC5/interrupter1.c **** *  period:  Period value. May be between 1 and (2^Resolution)-1.  A value of 0
 476:Generated_Source\PSoC5/interrupter1.c **** *           will result in the counter remaining at zero.
 477:Generated_Source\PSoC5/interrupter1.c **** *
 478:Generated_Source\PSoC5/interrupter1.c **** * Return:
 479:Generated_Source\PSoC5/interrupter1.c **** *  None
 480:Generated_Source\PSoC5/interrupter1.c **** *
 481:Generated_Source\PSoC5/interrupter1.c **** *******************************************************************************/
 482:Generated_Source\PSoC5/interrupter1.c **** void interrupter1_WritePeriod(uint16 period) 
 483:Generated_Source\PSoC5/interrupter1.c **** {
 484:Generated_Source\PSoC5/interrupter1.c ****     #if(interrupter1_UsingFixedFunction)
 485:Generated_Source\PSoC5/interrupter1.c ****         CY_SET_REG16(interrupter1_PERIOD_LSB_PTR, (uint16)period);
 486:Generated_Source\PSoC5/interrupter1.c ****     #else
 487:Generated_Source\PSoC5/interrupter1.c ****         CY_SET_REG16(interrupter1_PERIOD_LSB_PTR, period);
  61              		.loc 1 487 0
  62 002e A2F82834 		strh	r3, [r2, #1064]	@ movhi
  63              	.LVL4:
  64              	.LBE13:
  65              	.LBE12:
  66              	.LBB14:
  67              	.LBB15:
 488:Generated_Source\PSoC5/interrupter1.c ****     #endif /* (interrupter1_UsingFixedFunction) */
 489:Generated_Source\PSoC5/interrupter1.c **** }
 490:Generated_Source\PSoC5/interrupter1.c **** 
 491:Generated_Source\PSoC5/interrupter1.c **** #if (interrupter1_UseOneCompareMode)
 492:Generated_Source\PSoC5/interrupter1.c **** 
 493:Generated_Source\PSoC5/interrupter1.c **** 
 494:Generated_Source\PSoC5/interrupter1.c ****     /*******************************************************************************
 495:Generated_Source\PSoC5/interrupter1.c ****     * Function Name: interrupter1_WriteCompare
 496:Generated_Source\PSoC5/interrupter1.c ****     ********************************************************************************
 497:Generated_Source\PSoC5/interrupter1.c ****     *
 498:Generated_Source\PSoC5/interrupter1.c ****     * Summary:
 499:Generated_Source\PSoC5/interrupter1.c ****     *  This funtion is used to change the compare1 value when the PWM is in Dither
 500:Generated_Source\PSoC5/interrupter1.c ****     *  mode. The compare output will reflect the new value on the next UDB clock.
 501:Generated_Source\PSoC5/interrupter1.c ****     *  The compare output will be driven high when the present counter value is
 502:Generated_Source\PSoC5/interrupter1.c ****     *  compared to the compare value based on the compare mode defined in
 503:Generated_Source\PSoC5/interrupter1.c ****     *  Dither Mode.
ARM GAS  C:\Users\chemi\AppData\Local\Temp\ccezsgPw.s 			page 11


 504:Generated_Source\PSoC5/interrupter1.c ****     *
 505:Generated_Source\PSoC5/interrupter1.c ****     * Parameters:
 506:Generated_Source\PSoC5/interrupter1.c ****     *  compare:  New compare value.
 507:Generated_Source\PSoC5/interrupter1.c ****     *
 508:Generated_Source\PSoC5/interrupter1.c ****     * Return:
 509:Generated_Source\PSoC5/interrupter1.c ****     *  None
 510:Generated_Source\PSoC5/interrupter1.c ****     *
 511:Generated_Source\PSoC5/interrupter1.c ****     * Side Effects:
 512:Generated_Source\PSoC5/interrupter1.c ****     *  This function is only available if the PWM mode parameter is set to
 513:Generated_Source\PSoC5/interrupter1.c ****     *  Dither Mode, Center Aligned Mode or One Output Mode
 514:Generated_Source\PSoC5/interrupter1.c ****     *
 515:Generated_Source\PSoC5/interrupter1.c ****     *******************************************************************************/
 516:Generated_Source\PSoC5/interrupter1.c ****     void interrupter1_WriteCompare(uint16 compare) \
 517:Generated_Source\PSoC5/interrupter1.c ****                                        
 518:Generated_Source\PSoC5/interrupter1.c ****     {
 519:Generated_Source\PSoC5/interrupter1.c ****         #if(interrupter1_UsingFixedFunction)
 520:Generated_Source\PSoC5/interrupter1.c ****             CY_SET_REG16(interrupter1_COMPARE1_LSB_PTR, (uint16)compare);
 521:Generated_Source\PSoC5/interrupter1.c ****         #else
 522:Generated_Source\PSoC5/interrupter1.c ****             CY_SET_REG16(interrupter1_COMPARE1_LSB_PTR, compare);
 523:Generated_Source\PSoC5/interrupter1.c ****         #endif /* (interrupter1_UsingFixedFunction) */
 524:Generated_Source\PSoC5/interrupter1.c **** 
 525:Generated_Source\PSoC5/interrupter1.c ****         #if (interrupter1_PWMMode == interrupter1__B_PWM__DITHER)
 526:Generated_Source\PSoC5/interrupter1.c ****             #if(interrupter1_UsingFixedFunction)
 527:Generated_Source\PSoC5/interrupter1.c ****                 CY_SET_REG16(interrupter1_COMPARE2_LSB_PTR, (uint16)(compare + 1u));
 528:Generated_Source\PSoC5/interrupter1.c ****             #else
 529:Generated_Source\PSoC5/interrupter1.c ****                 CY_SET_REG16(interrupter1_COMPARE2_LSB_PTR, (compare + 1u));
 530:Generated_Source\PSoC5/interrupter1.c ****             #endif /* (interrupter1_UsingFixedFunction) */
 531:Generated_Source\PSoC5/interrupter1.c ****         #endif /* (interrupter1_PWMMode == interrupter1__B_PWM__DITHER) */
 532:Generated_Source\PSoC5/interrupter1.c ****     }
 533:Generated_Source\PSoC5/interrupter1.c **** 
 534:Generated_Source\PSoC5/interrupter1.c **** 
 535:Generated_Source\PSoC5/interrupter1.c **** #else
 536:Generated_Source\PSoC5/interrupter1.c **** 
 537:Generated_Source\PSoC5/interrupter1.c **** 
 538:Generated_Source\PSoC5/interrupter1.c ****     /*******************************************************************************
 539:Generated_Source\PSoC5/interrupter1.c ****     * Function Name: interrupter1_WriteCompare1
 540:Generated_Source\PSoC5/interrupter1.c ****     ********************************************************************************
 541:Generated_Source\PSoC5/interrupter1.c ****     *
 542:Generated_Source\PSoC5/interrupter1.c ****     * Summary:
 543:Generated_Source\PSoC5/interrupter1.c ****     *  This funtion is used to change the compare1 value.  The compare output will
 544:Generated_Source\PSoC5/interrupter1.c ****     *  reflect the new value on the next UDB clock.  The compare output will be
 545:Generated_Source\PSoC5/interrupter1.c ****     *  driven high when the present counter value is less than or less than or
 546:Generated_Source\PSoC5/interrupter1.c ****     *  equal to the compare register, depending on the mode.
 547:Generated_Source\PSoC5/interrupter1.c ****     *
 548:Generated_Source\PSoC5/interrupter1.c ****     * Parameters:
 549:Generated_Source\PSoC5/interrupter1.c ****     *  compare:  New compare value.
 550:Generated_Source\PSoC5/interrupter1.c ****     *
 551:Generated_Source\PSoC5/interrupter1.c ****     * Return:
 552:Generated_Source\PSoC5/interrupter1.c ****     *  None
 553:Generated_Source\PSoC5/interrupter1.c ****     *
 554:Generated_Source\PSoC5/interrupter1.c ****     *******************************************************************************/
 555:Generated_Source\PSoC5/interrupter1.c ****     void interrupter1_WriteCompare1(uint16 compare) \
 556:Generated_Source\PSoC5/interrupter1.c ****                                         
 557:Generated_Source\PSoC5/interrupter1.c ****     {
 558:Generated_Source\PSoC5/interrupter1.c ****         #if(interrupter1_UsingFixedFunction)
 559:Generated_Source\PSoC5/interrupter1.c ****             CY_SET_REG16(interrupter1_COMPARE1_LSB_PTR, (uint16)compare);
 560:Generated_Source\PSoC5/interrupter1.c ****         #else
ARM GAS  C:\Users\chemi\AppData\Local\Temp\ccezsgPw.s 			page 12


 561:Generated_Source\PSoC5/interrupter1.c ****             CY_SET_REG16(interrupter1_COMPARE1_LSB_PTR, compare);
  68              		.loc 1 561 0
  69 0032 A2F8E833 		strh	r3, [r2, #1000]	@ movhi
  70              	.LVL5:
  71              	.LBE15:
  72              	.LBE14:
  73              	.LBB16:
  74              	.LBB17:
 562:Generated_Source\PSoC5/interrupter1.c ****         #endif /* (interrupter1_UsingFixedFunction) */
 563:Generated_Source\PSoC5/interrupter1.c ****     }
 564:Generated_Source\PSoC5/interrupter1.c **** 
 565:Generated_Source\PSoC5/interrupter1.c **** 
 566:Generated_Source\PSoC5/interrupter1.c ****     /*******************************************************************************
 567:Generated_Source\PSoC5/interrupter1.c ****     * Function Name: interrupter1_WriteCompare2
 568:Generated_Source\PSoC5/interrupter1.c ****     ********************************************************************************
 569:Generated_Source\PSoC5/interrupter1.c ****     *
 570:Generated_Source\PSoC5/interrupter1.c ****     * Summary:
 571:Generated_Source\PSoC5/interrupter1.c ****     *  This funtion is used to change the compare value, for compare1 output.
 572:Generated_Source\PSoC5/interrupter1.c ****     *  The compare output will reflect the new value on the next UDB clock.
 573:Generated_Source\PSoC5/interrupter1.c ****     *  The compare output will be driven high when the present counter value is
 574:Generated_Source\PSoC5/interrupter1.c ****     *  less than or less than or equal to the compare register, depending on the
 575:Generated_Source\PSoC5/interrupter1.c ****     *  mode.
 576:Generated_Source\PSoC5/interrupter1.c ****     *
 577:Generated_Source\PSoC5/interrupter1.c ****     * Parameters:
 578:Generated_Source\PSoC5/interrupter1.c ****     *  compare:  New compare value.
 579:Generated_Source\PSoC5/interrupter1.c ****     *
 580:Generated_Source\PSoC5/interrupter1.c ****     * Return:
 581:Generated_Source\PSoC5/interrupter1.c ****     *  None
 582:Generated_Source\PSoC5/interrupter1.c ****     *
 583:Generated_Source\PSoC5/interrupter1.c ****     *******************************************************************************/
 584:Generated_Source\PSoC5/interrupter1.c ****     void interrupter1_WriteCompare2(uint16 compare) \
 585:Generated_Source\PSoC5/interrupter1.c ****                                         
 586:Generated_Source\PSoC5/interrupter1.c ****     {
 587:Generated_Source\PSoC5/interrupter1.c ****         #if(interrupter1_UsingFixedFunction)
 588:Generated_Source\PSoC5/interrupter1.c ****             CY_SET_REG16(interrupter1_COMPARE2_LSB_PTR, compare);
 589:Generated_Source\PSoC5/interrupter1.c ****         #else
 590:Generated_Source\PSoC5/interrupter1.c ****             CY_SET_REG16(interrupter1_COMPARE2_LSB_PTR, compare);
  75              		.loc 1 590 0
  76 0036 A2F80834 		strh	r3, [r2, #1032]	@ movhi
  77              	.LVL6:
  78 003a 7047     		bx	lr
  79              	.L3:
  80              		.align	2
  81              	.L2:
  82 003c 70640040 		.word	1073767536
  83              	.LBE17:
  84              	.LBE16:
  85              		.cfi_endproc
  86              	.LFE1:
  87              		.size	interrupter1_Init, .-interrupter1_Init
  88              		.section	.text.interrupter1_Enable,"ax",%progbits
  89              		.align	1
  90              		.global	interrupter1_Enable
  91              		.thumb
  92              		.thumb_func
  93              		.type	interrupter1_Enable, %function
  94              	interrupter1_Enable:
ARM GAS  C:\Users\chemi\AppData\Local\Temp\ccezsgPw.s 			page 13


  95              	.LFB2:
 200:Generated_Source\PSoC5/interrupter1.c ****     /* Globally Enable the Fixed Function Block chosen */
  96              		.loc 1 200 0
  97              		.cfi_startproc
  98              		@ args = 0, pretend = 0, frame = 0
  99              		@ frame_needed = 0, uses_anonymous_args = 0
 100              		@ link register save eliminated.
 209:Generated_Source\PSoC5/interrupter1.c ****     #endif /* (interrupter1_UseControl || interrupter1_UsingFixedFunction) */
 101              		.loc 1 209 0
 102 0000 024A     		ldr	r2, .L5
 103 0002 1378     		ldrb	r3, [r2]	@ zero_extendqisi2
 104 0004 43F08003 		orr	r3, r3, #128
 105 0008 1370     		strb	r3, [r2]
 106 000a 7047     		bx	lr
 107              	.L6:
 108              		.align	2
 109              	.L5:
 110 000c 70640040 		.word	1073767536
 111              		.cfi_endproc
 112              	.LFE2:
 113              		.size	interrupter1_Enable, .-interrupter1_Enable
 114              		.section	.text.interrupter1_Start,"ax",%progbits
 115              		.align	1
 116              		.global	interrupter1_Start
 117              		.thumb
 118              		.thumb_func
 119              		.type	interrupter1_Start, %function
 120              	interrupter1_Start:
 121              	.LFB0:
  56:Generated_Source\PSoC5/interrupter1.c ****     /* If not Initialized then initialize all required hardware and software */
 122              		.loc 1 56 0
 123              		.cfi_startproc
 124              		@ args = 0, pretend = 0, frame = 0
 125              		@ frame_needed = 0, uses_anonymous_args = 0
 126 0000 08B5     		push	{r3, lr}
 127              		.cfi_def_cfa_offset 8
 128              		.cfi_offset 3, -8
 129              		.cfi_offset 14, -4
  58:Generated_Source\PSoC5/interrupter1.c ****     {
 130              		.loc 1 58 0
 131 0002 0549     		ldr	r1, .L10
 132 0004 0B78     		ldrb	r3, [r1]	@ zero_extendqisi2
 133 0006 1BB9     		cbnz	r3, .L8
  60:Generated_Source\PSoC5/interrupter1.c ****         interrupter1_initVar = 1u;
 134              		.loc 1 60 0
 135 0008 FFF7FEFF 		bl	interrupter1_Init
 136              	.LVL7:
  61:Generated_Source\PSoC5/interrupter1.c ****     }
 137              		.loc 1 61 0
 138 000c 0123     		movs	r3, #1
 139 000e 0B70     		strb	r3, [r1]
 140              	.L8:
  65:Generated_Source\PSoC5/interrupter1.c **** 
 141              		.loc 1 65 0
 142 0010 BDE80840 		pop	{r3, lr}
 143              		.cfi_restore 14
 144              		.cfi_restore 3
ARM GAS  C:\Users\chemi\AppData\Local\Temp\ccezsgPw.s 			page 14


 145              		.cfi_def_cfa_offset 0
  63:Generated_Source\PSoC5/interrupter1.c **** 
 146              		.loc 1 63 0
 147 0014 FFF7FEBF 		b	interrupter1_Enable
 148              	.LVL8:
 149              	.L11:
 150              		.align	2
 151              	.L10:
 152 0018 00000000 		.word	.LANCHOR0
 153              		.cfi_endproc
 154              	.LFE0:
 155              		.size	interrupter1_Start, .-interrupter1_Start
 156              		.section	.text.interrupter1_Stop,"ax",%progbits
 157              		.align	1
 158              		.global	interrupter1_Stop
 159              		.thumb
 160              		.thumb_func
 161              		.type	interrupter1_Stop, %function
 162              	interrupter1_Stop:
 163              	.LFB3:
 234:Generated_Source\PSoC5/interrupter1.c ****     #if (interrupter1_UseControl || interrupter1_UsingFixedFunction)
 164              		.loc 1 234 0
 165              		.cfi_startproc
 166              		@ args = 0, pretend = 0, frame = 0
 167              		@ frame_needed = 0, uses_anonymous_args = 0
 168              		@ link register save eliminated.
 236:Generated_Source\PSoC5/interrupter1.c ****     #endif /* (interrupter1_UseControl || interrupter1_UsingFixedFunction) */
 169              		.loc 1 236 0
 170 0000 024A     		ldr	r2, .L13
 171 0002 1378     		ldrb	r3, [r2]	@ zero_extendqisi2
 172 0004 03F07F03 		and	r3, r3, #127
 173 0008 1370     		strb	r3, [r2]
 174 000a 7047     		bx	lr
 175              	.L14:
 176              		.align	2
 177              	.L13:
 178 000c 70640040 		.word	1073767536
 179              		.cfi_endproc
 180              	.LFE3:
 181              		.size	interrupter1_Stop, .-interrupter1_Stop
 182              		.section	.text.interrupter1_WriteCounter,"ax",%progbits
 183              		.align	1
 184              		.global	interrupter1_WriteCounter
 185              		.thumb
 186              		.thumb_func
 187              		.type	interrupter1_WriteCounter, %function
 188              	interrupter1_WriteCounter:
 189              	.LFB4:
 405:Generated_Source\PSoC5/interrupter1.c ****         CY_SET_REG16(interrupter1_COUNTER_LSB_PTR, counter);
 190              		.loc 1 405 0
 191              		.cfi_startproc
 192              		@ args = 0, pretend = 0, frame = 0
 193              		@ frame_needed = 0, uses_anonymous_args = 0
 194              		@ link register save eliminated.
 195              	.LVL9:
 406:Generated_Source\PSoC5/interrupter1.c ****     }
 196              		.loc 1 406 0
ARM GAS  C:\Users\chemi\AppData\Local\Temp\ccezsgPw.s 			page 15


 197 0000 014B     		ldr	r3, .L16
 198 0002 1880     		strh	r0, [r3]	@ movhi
 199 0004 7047     		bx	lr
 200              	.L17:
 201 0006 00BF     		.align	2
 202              	.L16:
 203 0008 18680040 		.word	1073768472
 204              		.cfi_endproc
 205              	.LFE4:
 206              		.size	interrupter1_WriteCounter, .-interrupter1_WriteCounter
 207              		.section	.text.interrupter1_ReadCounter,"ax",%progbits
 208              		.align	1
 209              		.global	interrupter1_ReadCounter
 210              		.thumb
 211              		.thumb_func
 212              		.type	interrupter1_ReadCounter, %function
 213              	interrupter1_ReadCounter:
 214              	.LFB5:
 426:Generated_Source\PSoC5/interrupter1.c ****         /* Force capture by reading Accumulator */
 215              		.loc 1 426 0
 216              		.cfi_startproc
 217              		@ args = 0, pretend = 0, frame = 0
 218              		@ frame_needed = 0, uses_anonymous_args = 0
 219              		@ link register save eliminated.
 430:Generated_Source\PSoC5/interrupter1.c **** 
 220              		.loc 1 430 0
 221 0000 024B     		ldr	r3, .L19
 222 0002 1B78     		ldrb	r3, [r3]	@ zero_extendqisi2
 433:Generated_Source\PSoC5/interrupter1.c ****     }
 223              		.loc 1 433 0
 224 0004 024B     		ldr	r3, .L19+4
 225 0006 1888     		ldrh	r0, [r3]
 434:Generated_Source\PSoC5/interrupter1.c **** 
 226              		.loc 1 434 0
 227 0008 80B2     		uxth	r0, r0
 228 000a 7047     		bx	lr
 229              	.L20:
 230              		.align	2
 231              	.L19:
 232 000c 1C640040 		.word	1073767452
 233 0010 B8680040 		.word	1073768632
 234              		.cfi_endproc
 235              	.LFE5:
 236              		.size	interrupter1_ReadCounter, .-interrupter1_ReadCounter
 237              		.section	.text.interrupter1_WritePeriod,"ax",%progbits
 238              		.align	1
 239              		.global	interrupter1_WritePeriod
 240              		.thumb
 241              		.thumb_func
 242              		.type	interrupter1_WritePeriod, %function
 243              	interrupter1_WritePeriod:
 244              	.LFB6:
 483:Generated_Source\PSoC5/interrupter1.c ****     #if(interrupter1_UsingFixedFunction)
 245              		.loc 1 483 0
 246              		.cfi_startproc
 247              		@ args = 0, pretend = 0, frame = 0
 248              		@ frame_needed = 0, uses_anonymous_args = 0
ARM GAS  C:\Users\chemi\AppData\Local\Temp\ccezsgPw.s 			page 16


 249              		@ link register save eliminated.
 250              	.LVL10:
 487:Generated_Source\PSoC5/interrupter1.c ****     #endif /* (interrupter1_UsingFixedFunction) */
 251              		.loc 1 487 0
 252 0000 014B     		ldr	r3, .L22
 253 0002 1880     		strh	r0, [r3]	@ movhi
 254 0004 7047     		bx	lr
 255              	.L23:
 256 0006 00BF     		.align	2
 257              	.L22:
 258 0008 98680040 		.word	1073768600
 259              		.cfi_endproc
 260              	.LFE6:
 261              		.size	interrupter1_WritePeriod, .-interrupter1_WritePeriod
 262              		.section	.text.interrupter1_WriteCompare1,"ax",%progbits
 263              		.align	1
 264              		.global	interrupter1_WriteCompare1
 265              		.thumb
 266              		.thumb_func
 267              		.type	interrupter1_WriteCompare1, %function
 268              	interrupter1_WriteCompare1:
 269              	.LFB7:
 557:Generated_Source\PSoC5/interrupter1.c ****         #if(interrupter1_UsingFixedFunction)
 270              		.loc 1 557 0
 271              		.cfi_startproc
 272              		@ args = 0, pretend = 0, frame = 0
 273              		@ frame_needed = 0, uses_anonymous_args = 0
 274              		@ link register save eliminated.
 275              	.LVL11:
 561:Generated_Source\PSoC5/interrupter1.c ****         #endif /* (interrupter1_UsingFixedFunction) */
 276              		.loc 1 561 0
 277 0000 014B     		ldr	r3, .L25
 278 0002 1880     		strh	r0, [r3]	@ movhi
 279 0004 7047     		bx	lr
 280              	.L26:
 281 0006 00BF     		.align	2
 282              	.L25:
 283 0008 58680040 		.word	1073768536
 284              		.cfi_endproc
 285              	.LFE7:
 286              		.size	interrupter1_WriteCompare1, .-interrupter1_WriteCompare1
 287              		.section	.text.interrupter1_WriteCompare2,"ax",%progbits
 288              		.align	1
 289              		.global	interrupter1_WriteCompare2
 290              		.thumb
 291              		.thumb_func
 292              		.type	interrupter1_WriteCompare2, %function
 293              	interrupter1_WriteCompare2:
 294              	.LFB8:
 586:Generated_Source\PSoC5/interrupter1.c ****         #if(interrupter1_UsingFixedFunction)
 295              		.loc 1 586 0
 296              		.cfi_startproc
 297              		@ args = 0, pretend = 0, frame = 0
 298              		@ frame_needed = 0, uses_anonymous_args = 0
 299              		@ link register save eliminated.
 300              	.LVL12:
 301              		.loc 1 590 0
ARM GAS  C:\Users\chemi\AppData\Local\Temp\ccezsgPw.s 			page 17


 302 0000 014B     		ldr	r3, .L28
 303 0002 1880     		strh	r0, [r3]	@ movhi
 304 0004 7047     		bx	lr
 305              	.L29:
 306 0006 00BF     		.align	2
 307              	.L28:
 308 0008 78680040 		.word	1073768568
 309              		.cfi_endproc
 310              	.LFE8:
 311              		.size	interrupter1_WriteCompare2, .-interrupter1_WriteCompare2
 312              		.section	.text.interrupter1_ReadControlRegister,"ax",%progbits
 313              		.align	1
 314              		.global	interrupter1_ReadControlRegister
 315              		.thumb
 316              		.thumb_func
 317              		.type	interrupter1_ReadControlRegister, %function
 318              	interrupter1_ReadControlRegister:
 319              	.LFB9:
 591:Generated_Source\PSoC5/interrupter1.c ****         #endif /* (interrupter1_UsingFixedFunction) */
 592:Generated_Source\PSoC5/interrupter1.c ****     }
 593:Generated_Source\PSoC5/interrupter1.c **** #endif /* UseOneCompareMode */
 594:Generated_Source\PSoC5/interrupter1.c **** 
 595:Generated_Source\PSoC5/interrupter1.c **** #if (interrupter1_DeadBandUsed)
 596:Generated_Source\PSoC5/interrupter1.c **** 
 597:Generated_Source\PSoC5/interrupter1.c **** 
 598:Generated_Source\PSoC5/interrupter1.c ****     /*******************************************************************************
 599:Generated_Source\PSoC5/interrupter1.c ****     * Function Name: interrupter1_WriteDeadTime
 600:Generated_Source\PSoC5/interrupter1.c ****     ********************************************************************************
 601:Generated_Source\PSoC5/interrupter1.c ****     *
 602:Generated_Source\PSoC5/interrupter1.c ****     * Summary:
 603:Generated_Source\PSoC5/interrupter1.c ****     *  This function writes the dead-band counts to the corresponding register
 604:Generated_Source\PSoC5/interrupter1.c ****     *
 605:Generated_Source\PSoC5/interrupter1.c ****     * Parameters:
 606:Generated_Source\PSoC5/interrupter1.c ****     *  deadtime:  Number of counts for dead time
 607:Generated_Source\PSoC5/interrupter1.c ****     *
 608:Generated_Source\PSoC5/interrupter1.c ****     * Return:
 609:Generated_Source\PSoC5/interrupter1.c ****     *  None
 610:Generated_Source\PSoC5/interrupter1.c ****     *
 611:Generated_Source\PSoC5/interrupter1.c ****     *******************************************************************************/
 612:Generated_Source\PSoC5/interrupter1.c ****     void interrupter1_WriteDeadTime(uint8 deadtime) 
 613:Generated_Source\PSoC5/interrupter1.c ****     {
 614:Generated_Source\PSoC5/interrupter1.c ****         /* If using the Dead Band 1-255 mode then just write the register */
 615:Generated_Source\PSoC5/interrupter1.c ****         #if(!interrupter1_DeadBand2_4)
 616:Generated_Source\PSoC5/interrupter1.c ****             CY_SET_REG8(interrupter1_DEADBAND_COUNT_PTR, deadtime);
 617:Generated_Source\PSoC5/interrupter1.c ****         #else
 618:Generated_Source\PSoC5/interrupter1.c ****             /* Otherwise the data has to be masked and offset */
 619:Generated_Source\PSoC5/interrupter1.c ****             /* Clear existing data */
 620:Generated_Source\PSoC5/interrupter1.c ****             interrupter1_DEADBAND_COUNT &= ((uint8)(~interrupter1_DEADBAND_COUNT_MASK));
 621:Generated_Source\PSoC5/interrupter1.c **** 
 622:Generated_Source\PSoC5/interrupter1.c ****             /* Set new dead time */
 623:Generated_Source\PSoC5/interrupter1.c ****             #if(interrupter1_DEADBAND_COUNT_SHIFT)
 624:Generated_Source\PSoC5/interrupter1.c ****                 interrupter1_DEADBAND_COUNT |= ((uint8)((uint8)deadtime << interrupter1_DEADBAND_CO
 625:Generated_Source\PSoC5/interrupter1.c ****                                                     interrupter1_DEADBAND_COUNT_MASK;
 626:Generated_Source\PSoC5/interrupter1.c ****             #else
 627:Generated_Source\PSoC5/interrupter1.c ****                 interrupter1_DEADBAND_COUNT |= deadtime & interrupter1_DEADBAND_COUNT_MASK;
 628:Generated_Source\PSoC5/interrupter1.c ****             #endif /* (interrupter1_DEADBAND_COUNT_SHIFT) */
 629:Generated_Source\PSoC5/interrupter1.c **** 
ARM GAS  C:\Users\chemi\AppData\Local\Temp\ccezsgPw.s 			page 18


 630:Generated_Source\PSoC5/interrupter1.c ****         #endif /* (!interrupter1_DeadBand2_4) */
 631:Generated_Source\PSoC5/interrupter1.c ****     }
 632:Generated_Source\PSoC5/interrupter1.c **** 
 633:Generated_Source\PSoC5/interrupter1.c **** 
 634:Generated_Source\PSoC5/interrupter1.c ****     /*******************************************************************************
 635:Generated_Source\PSoC5/interrupter1.c ****     * Function Name: interrupter1_ReadDeadTime
 636:Generated_Source\PSoC5/interrupter1.c ****     ********************************************************************************
 637:Generated_Source\PSoC5/interrupter1.c ****     *
 638:Generated_Source\PSoC5/interrupter1.c ****     * Summary:
 639:Generated_Source\PSoC5/interrupter1.c ****     *  This function reads the dead-band counts from the corresponding register
 640:Generated_Source\PSoC5/interrupter1.c ****     *
 641:Generated_Source\PSoC5/interrupter1.c ****     * Parameters:
 642:Generated_Source\PSoC5/interrupter1.c ****     *  None
 643:Generated_Source\PSoC5/interrupter1.c ****     *
 644:Generated_Source\PSoC5/interrupter1.c ****     * Return:
 645:Generated_Source\PSoC5/interrupter1.c ****     *  Dead Band Counts
 646:Generated_Source\PSoC5/interrupter1.c ****     *
 647:Generated_Source\PSoC5/interrupter1.c ****     *******************************************************************************/
 648:Generated_Source\PSoC5/interrupter1.c ****     uint8 interrupter1_ReadDeadTime(void) 
 649:Generated_Source\PSoC5/interrupter1.c ****     {
 650:Generated_Source\PSoC5/interrupter1.c ****         /* If using the Dead Band 1-255 mode then just read the register */
 651:Generated_Source\PSoC5/interrupter1.c ****         #if(!interrupter1_DeadBand2_4)
 652:Generated_Source\PSoC5/interrupter1.c ****             return (CY_GET_REG8(interrupter1_DEADBAND_COUNT_PTR));
 653:Generated_Source\PSoC5/interrupter1.c ****         #else
 654:Generated_Source\PSoC5/interrupter1.c **** 
 655:Generated_Source\PSoC5/interrupter1.c ****             /* Otherwise the data has to be masked and offset */
 656:Generated_Source\PSoC5/interrupter1.c ****             #if(interrupter1_DEADBAND_COUNT_SHIFT)
 657:Generated_Source\PSoC5/interrupter1.c ****                 return ((uint8)(((uint8)(interrupter1_DEADBAND_COUNT & interrupter1_DEADBAND_COUNT_
 658:Generated_Source\PSoC5/interrupter1.c ****                                                                            interrupter1_DEADBAND_CO
 659:Generated_Source\PSoC5/interrupter1.c ****             #else
 660:Generated_Source\PSoC5/interrupter1.c ****                 return (interrupter1_DEADBAND_COUNT & interrupter1_DEADBAND_COUNT_MASK);
 661:Generated_Source\PSoC5/interrupter1.c ****             #endif /* (interrupter1_DEADBAND_COUNT_SHIFT) */
 662:Generated_Source\PSoC5/interrupter1.c ****         #endif /* (!interrupter1_DeadBand2_4) */
 663:Generated_Source\PSoC5/interrupter1.c ****     }
 664:Generated_Source\PSoC5/interrupter1.c **** #endif /* DeadBandUsed */
 665:Generated_Source\PSoC5/interrupter1.c **** 
 666:Generated_Source\PSoC5/interrupter1.c **** #if (interrupter1_UseStatus || interrupter1_UsingFixedFunction)
 667:Generated_Source\PSoC5/interrupter1.c **** 
 668:Generated_Source\PSoC5/interrupter1.c **** 
 669:Generated_Source\PSoC5/interrupter1.c ****     /*******************************************************************************
 670:Generated_Source\PSoC5/interrupter1.c ****     * Function Name: interrupter1_SetInterruptMode
 671:Generated_Source\PSoC5/interrupter1.c ****     ********************************************************************************
 672:Generated_Source\PSoC5/interrupter1.c ****     *
 673:Generated_Source\PSoC5/interrupter1.c ****     * Summary:
 674:Generated_Source\PSoC5/interrupter1.c ****     *  This function configures the interrupts mask control of theinterrupt
 675:Generated_Source\PSoC5/interrupter1.c ****     *  source status register.
 676:Generated_Source\PSoC5/interrupter1.c ****     *
 677:Generated_Source\PSoC5/interrupter1.c ****     * Parameters:
 678:Generated_Source\PSoC5/interrupter1.c ****     *  uint8 interruptMode: Bit field containing the interrupt sources enabled
 679:Generated_Source\PSoC5/interrupter1.c ****     *
 680:Generated_Source\PSoC5/interrupter1.c ****     * Return:
 681:Generated_Source\PSoC5/interrupter1.c ****     *  None
 682:Generated_Source\PSoC5/interrupter1.c ****     *
 683:Generated_Source\PSoC5/interrupter1.c ****     *******************************************************************************/
 684:Generated_Source\PSoC5/interrupter1.c ****     void interrupter1_SetInterruptMode(uint8 interruptMode) 
 685:Generated_Source\PSoC5/interrupter1.c ****     {
 686:Generated_Source\PSoC5/interrupter1.c ****         CY_SET_REG8(interrupter1_STATUS_MASK_PTR, interruptMode);
ARM GAS  C:\Users\chemi\AppData\Local\Temp\ccezsgPw.s 			page 19


 687:Generated_Source\PSoC5/interrupter1.c ****     }
 688:Generated_Source\PSoC5/interrupter1.c **** 
 689:Generated_Source\PSoC5/interrupter1.c **** 
 690:Generated_Source\PSoC5/interrupter1.c ****     /*******************************************************************************
 691:Generated_Source\PSoC5/interrupter1.c ****     * Function Name: interrupter1_ReadStatusRegister
 692:Generated_Source\PSoC5/interrupter1.c ****     ********************************************************************************
 693:Generated_Source\PSoC5/interrupter1.c ****     *
 694:Generated_Source\PSoC5/interrupter1.c ****     * Summary:
 695:Generated_Source\PSoC5/interrupter1.c ****     *  This function returns the current state of the status register.
 696:Generated_Source\PSoC5/interrupter1.c ****     *
 697:Generated_Source\PSoC5/interrupter1.c ****     * Parameters:
 698:Generated_Source\PSoC5/interrupter1.c ****     *  None
 699:Generated_Source\PSoC5/interrupter1.c ****     *
 700:Generated_Source\PSoC5/interrupter1.c ****     * Return:
 701:Generated_Source\PSoC5/interrupter1.c ****     *  uint8 : Current status register value. The status register bits are:
 702:Generated_Source\PSoC5/interrupter1.c ****     *  [7:6] : Unused(0)
 703:Generated_Source\PSoC5/interrupter1.c ****     *  [5]   : Kill event output
 704:Generated_Source\PSoC5/interrupter1.c ****     *  [4]   : FIFO not empty
 705:Generated_Source\PSoC5/interrupter1.c ****     *  [3]   : FIFO full
 706:Generated_Source\PSoC5/interrupter1.c ****     *  [2]   : Terminal count
 707:Generated_Source\PSoC5/interrupter1.c ****     *  [1]   : Compare output 2
 708:Generated_Source\PSoC5/interrupter1.c ****     *  [0]   : Compare output 1
 709:Generated_Source\PSoC5/interrupter1.c ****     *
 710:Generated_Source\PSoC5/interrupter1.c ****     *******************************************************************************/
 711:Generated_Source\PSoC5/interrupter1.c ****     uint8 interrupter1_ReadStatusRegister(void) 
 712:Generated_Source\PSoC5/interrupter1.c ****     {
 713:Generated_Source\PSoC5/interrupter1.c ****         return (CY_GET_REG8(interrupter1_STATUS_PTR));
 714:Generated_Source\PSoC5/interrupter1.c ****     }
 715:Generated_Source\PSoC5/interrupter1.c **** 
 716:Generated_Source\PSoC5/interrupter1.c **** #endif /* (interrupter1_UseStatus || interrupter1_UsingFixedFunction) */
 717:Generated_Source\PSoC5/interrupter1.c **** 
 718:Generated_Source\PSoC5/interrupter1.c **** 
 719:Generated_Source\PSoC5/interrupter1.c **** #if (interrupter1_UseControl)
 720:Generated_Source\PSoC5/interrupter1.c **** 
 721:Generated_Source\PSoC5/interrupter1.c **** 
 722:Generated_Source\PSoC5/interrupter1.c ****     /*******************************************************************************
 723:Generated_Source\PSoC5/interrupter1.c ****     * Function Name: interrupter1_ReadControlRegister
 724:Generated_Source\PSoC5/interrupter1.c ****     ********************************************************************************
 725:Generated_Source\PSoC5/interrupter1.c ****     *
 726:Generated_Source\PSoC5/interrupter1.c ****     * Summary:
 727:Generated_Source\PSoC5/interrupter1.c ****     *  Returns the current state of the control register. This API is available
 728:Generated_Source\PSoC5/interrupter1.c ****     *  only if the control register is not removed.
 729:Generated_Source\PSoC5/interrupter1.c ****     *
 730:Generated_Source\PSoC5/interrupter1.c ****     * Parameters:
 731:Generated_Source\PSoC5/interrupter1.c ****     *  None
 732:Generated_Source\PSoC5/interrupter1.c ****     *
 733:Generated_Source\PSoC5/interrupter1.c ****     * Return:
 734:Generated_Source\PSoC5/interrupter1.c ****     *  uint8 : Current control register value
 735:Generated_Source\PSoC5/interrupter1.c ****     *
 736:Generated_Source\PSoC5/interrupter1.c ****     *******************************************************************************/
 737:Generated_Source\PSoC5/interrupter1.c ****     uint8 interrupter1_ReadControlRegister(void) 
 738:Generated_Source\PSoC5/interrupter1.c ****     {
 320              		.loc 1 738 0
 321              		.cfi_startproc
 322              		@ args = 0, pretend = 0, frame = 0
 323              		@ frame_needed = 0, uses_anonymous_args = 0
 324              		@ link register save eliminated.
ARM GAS  C:\Users\chemi\AppData\Local\Temp\ccezsgPw.s 			page 20


 739:Generated_Source\PSoC5/interrupter1.c ****         uint8 result;
 740:Generated_Source\PSoC5/interrupter1.c **** 
 741:Generated_Source\PSoC5/interrupter1.c ****         result = CY_GET_REG8(interrupter1_CONTROL_PTR);
 325              		.loc 1 741 0
 326 0000 014B     		ldr	r3, .L31
 327 0002 1878     		ldrb	r0, [r3]	@ zero_extendqisi2
 328              	.LVL13:
 742:Generated_Source\PSoC5/interrupter1.c ****         return (result);
 743:Generated_Source\PSoC5/interrupter1.c ****     }
 329              		.loc 1 743 0
 330 0004 7047     		bx	lr
 331              	.L32:
 332 0006 00BF     		.align	2
 333              	.L31:
 334 0008 70640040 		.word	1073767536
 335              		.cfi_endproc
 336              	.LFE9:
 337              		.size	interrupter1_ReadControlRegister, .-interrupter1_ReadControlRegister
 338              		.section	.text.interrupter1_WriteControlRegister,"ax",%progbits
 339              		.align	1
 340              		.global	interrupter1_WriteControlRegister
 341              		.thumb
 342              		.thumb_func
 343              		.type	interrupter1_WriteControlRegister, %function
 344              	interrupter1_WriteControlRegister:
 345              	.LFB10:
 744:Generated_Source\PSoC5/interrupter1.c **** 
 745:Generated_Source\PSoC5/interrupter1.c **** 
 746:Generated_Source\PSoC5/interrupter1.c ****     /*******************************************************************************
 747:Generated_Source\PSoC5/interrupter1.c ****     * Function Name: interrupter1_WriteControlRegister
 748:Generated_Source\PSoC5/interrupter1.c ****     ********************************************************************************
 749:Generated_Source\PSoC5/interrupter1.c ****     *
 750:Generated_Source\PSoC5/interrupter1.c ****     * Summary:
 751:Generated_Source\PSoC5/interrupter1.c ****     *  Sets the bit field of the control register. This API is available only if
 752:Generated_Source\PSoC5/interrupter1.c ****     *  the control register is not removed.
 753:Generated_Source\PSoC5/interrupter1.c ****     *
 754:Generated_Source\PSoC5/interrupter1.c ****     * Parameters:
 755:Generated_Source\PSoC5/interrupter1.c ****     *  uint8 control: Control register bit field, The status register bits are:
 756:Generated_Source\PSoC5/interrupter1.c ****     *  [7]   : PWM Enable
 757:Generated_Source\PSoC5/interrupter1.c ****     *  [6]   : Reset
 758:Generated_Source\PSoC5/interrupter1.c ****     *  [5:3] : Compare Mode2
 759:Generated_Source\PSoC5/interrupter1.c ****     *  [2:0] : Compare Mode2
 760:Generated_Source\PSoC5/interrupter1.c ****     *
 761:Generated_Source\PSoC5/interrupter1.c ****     * Return:
 762:Generated_Source\PSoC5/interrupter1.c ****     *  None
 763:Generated_Source\PSoC5/interrupter1.c ****     *
 764:Generated_Source\PSoC5/interrupter1.c ****     *******************************************************************************/
 765:Generated_Source\PSoC5/interrupter1.c ****     void interrupter1_WriteControlRegister(uint8 control) 
 766:Generated_Source\PSoC5/interrupter1.c ****     {
 346              		.loc 1 766 0
 347              		.cfi_startproc
 348              		@ args = 0, pretend = 0, frame = 0
 349              		@ frame_needed = 0, uses_anonymous_args = 0
 350              		@ link register save eliminated.
 351              	.LVL14:
 767:Generated_Source\PSoC5/interrupter1.c ****         CY_SET_REG8(interrupter1_CONTROL_PTR, control);
 352              		.loc 1 767 0
ARM GAS  C:\Users\chemi\AppData\Local\Temp\ccezsgPw.s 			page 21


 353 0000 014B     		ldr	r3, .L34
 354 0002 1870     		strb	r0, [r3]
 355 0004 7047     		bx	lr
 356              	.L35:
 357 0006 00BF     		.align	2
 358              	.L34:
 359 0008 70640040 		.word	1073767536
 360              		.cfi_endproc
 361              	.LFE10:
 362              		.size	interrupter1_WriteControlRegister, .-interrupter1_WriteControlRegister
 363              		.section	.text.interrupter1_ReadCapture,"ax",%progbits
 364              		.align	1
 365              		.global	interrupter1_ReadCapture
 366              		.thumb
 367              		.thumb_func
 368              		.type	interrupter1_ReadCapture, %function
 369              	interrupter1_ReadCapture:
 370              	.LFB11:
 768:Generated_Source\PSoC5/interrupter1.c ****     }
 769:Generated_Source\PSoC5/interrupter1.c **** 
 770:Generated_Source\PSoC5/interrupter1.c **** #endif /* (interrupter1_UseControl) */
 771:Generated_Source\PSoC5/interrupter1.c **** 
 772:Generated_Source\PSoC5/interrupter1.c **** 
 773:Generated_Source\PSoC5/interrupter1.c **** #if (!interrupter1_UsingFixedFunction)
 774:Generated_Source\PSoC5/interrupter1.c **** 
 775:Generated_Source\PSoC5/interrupter1.c **** 
 776:Generated_Source\PSoC5/interrupter1.c ****     /*******************************************************************************
 777:Generated_Source\PSoC5/interrupter1.c ****     * Function Name: interrupter1_ReadCapture
 778:Generated_Source\PSoC5/interrupter1.c ****     ********************************************************************************
 779:Generated_Source\PSoC5/interrupter1.c ****     *
 780:Generated_Source\PSoC5/interrupter1.c ****     * Summary:
 781:Generated_Source\PSoC5/interrupter1.c ****     *  Reads the capture value from the capture FIFO.
 782:Generated_Source\PSoC5/interrupter1.c ****     *
 783:Generated_Source\PSoC5/interrupter1.c ****     * Parameters:
 784:Generated_Source\PSoC5/interrupter1.c ****     *  None
 785:Generated_Source\PSoC5/interrupter1.c ****     *
 786:Generated_Source\PSoC5/interrupter1.c ****     * Return:
 787:Generated_Source\PSoC5/interrupter1.c ****     *  uint8/uint16: The current capture value
 788:Generated_Source\PSoC5/interrupter1.c ****     *
 789:Generated_Source\PSoC5/interrupter1.c ****     *******************************************************************************/
 790:Generated_Source\PSoC5/interrupter1.c ****     uint16 interrupter1_ReadCapture(void) 
 791:Generated_Source\PSoC5/interrupter1.c ****     {
 371              		.loc 1 791 0
 372              		.cfi_startproc
 373              		@ args = 0, pretend = 0, frame = 0
 374              		@ frame_needed = 0, uses_anonymous_args = 0
 375              		@ link register save eliminated.
 792:Generated_Source\PSoC5/interrupter1.c ****         return (CY_GET_REG16(interrupter1_CAPTURE_LSB_PTR));
 376              		.loc 1 792 0
 377 0000 014B     		ldr	r3, .L37
 378 0002 1888     		ldrh	r0, [r3]
 793:Generated_Source\PSoC5/interrupter1.c ****     }
 379              		.loc 1 793 0
 380 0004 80B2     		uxth	r0, r0
 381 0006 7047     		bx	lr
 382              	.L38:
 383              		.align	2
ARM GAS  C:\Users\chemi\AppData\Local\Temp\ccezsgPw.s 			page 22


 384              	.L37:
 385 0008 B8680040 		.word	1073768632
 386              		.cfi_endproc
 387              	.LFE11:
 388              		.size	interrupter1_ReadCapture, .-interrupter1_ReadCapture
 389              		.section	.text.interrupter1_ReadCompare1,"ax",%progbits
 390              		.align	1
 391              		.global	interrupter1_ReadCompare1
 392              		.thumb
 393              		.thumb_func
 394              		.type	interrupter1_ReadCompare1, %function
 395              	interrupter1_ReadCompare1:
 396              	.LFB12:
 794:Generated_Source\PSoC5/interrupter1.c **** 
 795:Generated_Source\PSoC5/interrupter1.c **** #endif /* (!interrupter1_UsingFixedFunction) */
 796:Generated_Source\PSoC5/interrupter1.c **** 
 797:Generated_Source\PSoC5/interrupter1.c **** 
 798:Generated_Source\PSoC5/interrupter1.c **** #if (interrupter1_UseOneCompareMode)
 799:Generated_Source\PSoC5/interrupter1.c **** 
 800:Generated_Source\PSoC5/interrupter1.c **** 
 801:Generated_Source\PSoC5/interrupter1.c ****     /*******************************************************************************
 802:Generated_Source\PSoC5/interrupter1.c ****     * Function Name: interrupter1_ReadCompare
 803:Generated_Source\PSoC5/interrupter1.c ****     ********************************************************************************
 804:Generated_Source\PSoC5/interrupter1.c ****     *
 805:Generated_Source\PSoC5/interrupter1.c ****     * Summary:
 806:Generated_Source\PSoC5/interrupter1.c ****     *  Reads the compare value for the compare output when the PWM Mode parameter is
 807:Generated_Source\PSoC5/interrupter1.c ****     *  set to Dither mode, Center Aligned mode, or One Output mode.
 808:Generated_Source\PSoC5/interrupter1.c ****     *
 809:Generated_Source\PSoC5/interrupter1.c ****     * Parameters:
 810:Generated_Source\PSoC5/interrupter1.c ****     *  None
 811:Generated_Source\PSoC5/interrupter1.c ****     *
 812:Generated_Source\PSoC5/interrupter1.c ****     * Return:
 813:Generated_Source\PSoC5/interrupter1.c ****     *  uint8/uint16: Current compare value
 814:Generated_Source\PSoC5/interrupter1.c ****     *
 815:Generated_Source\PSoC5/interrupter1.c ****     *******************************************************************************/
 816:Generated_Source\PSoC5/interrupter1.c ****     uint16 interrupter1_ReadCompare(void) 
 817:Generated_Source\PSoC5/interrupter1.c ****     {
 818:Generated_Source\PSoC5/interrupter1.c ****         #if(interrupter1_UsingFixedFunction)
 819:Generated_Source\PSoC5/interrupter1.c ****             return ((uint16)CY_GET_REG16(interrupter1_COMPARE1_LSB_PTR));
 820:Generated_Source\PSoC5/interrupter1.c ****         #else
 821:Generated_Source\PSoC5/interrupter1.c ****             return (CY_GET_REG16(interrupter1_COMPARE1_LSB_PTR));
 822:Generated_Source\PSoC5/interrupter1.c ****         #endif /* (interrupter1_UsingFixedFunction) */
 823:Generated_Source\PSoC5/interrupter1.c ****     }
 824:Generated_Source\PSoC5/interrupter1.c **** 
 825:Generated_Source\PSoC5/interrupter1.c **** #else
 826:Generated_Source\PSoC5/interrupter1.c **** 
 827:Generated_Source\PSoC5/interrupter1.c **** 
 828:Generated_Source\PSoC5/interrupter1.c ****     /*******************************************************************************
 829:Generated_Source\PSoC5/interrupter1.c ****     * Function Name: interrupter1_ReadCompare1
 830:Generated_Source\PSoC5/interrupter1.c ****     ********************************************************************************
 831:Generated_Source\PSoC5/interrupter1.c ****     *
 832:Generated_Source\PSoC5/interrupter1.c ****     * Summary:
 833:Generated_Source\PSoC5/interrupter1.c ****     *  Reads the compare value for the compare1 output.
 834:Generated_Source\PSoC5/interrupter1.c ****     *
 835:Generated_Source\PSoC5/interrupter1.c ****     * Parameters:
 836:Generated_Source\PSoC5/interrupter1.c ****     *  None
 837:Generated_Source\PSoC5/interrupter1.c ****     *
ARM GAS  C:\Users\chemi\AppData\Local\Temp\ccezsgPw.s 			page 23


 838:Generated_Source\PSoC5/interrupter1.c ****     * Return:
 839:Generated_Source\PSoC5/interrupter1.c ****     *  uint8/uint16: Current compare value.
 840:Generated_Source\PSoC5/interrupter1.c ****     *
 841:Generated_Source\PSoC5/interrupter1.c ****     *******************************************************************************/
 842:Generated_Source\PSoC5/interrupter1.c ****     uint16 interrupter1_ReadCompare1(void) 
 843:Generated_Source\PSoC5/interrupter1.c ****     {
 397              		.loc 1 843 0
 398              		.cfi_startproc
 399              		@ args = 0, pretend = 0, frame = 0
 400              		@ frame_needed = 0, uses_anonymous_args = 0
 401              		@ link register save eliminated.
 844:Generated_Source\PSoC5/interrupter1.c ****         return (CY_GET_REG16(interrupter1_COMPARE1_LSB_PTR));
 402              		.loc 1 844 0
 403 0000 014B     		ldr	r3, .L40
 404 0002 1888     		ldrh	r0, [r3]
 845:Generated_Source\PSoC5/interrupter1.c ****     }
 405              		.loc 1 845 0
 406 0004 80B2     		uxth	r0, r0
 407 0006 7047     		bx	lr
 408              	.L41:
 409              		.align	2
 410              	.L40:
 411 0008 58680040 		.word	1073768536
 412              		.cfi_endproc
 413              	.LFE12:
 414              		.size	interrupter1_ReadCompare1, .-interrupter1_ReadCompare1
 415              		.section	.text.interrupter1_ReadCompare2,"ax",%progbits
 416              		.align	1
 417              		.global	interrupter1_ReadCompare2
 418              		.thumb
 419              		.thumb_func
 420              		.type	interrupter1_ReadCompare2, %function
 421              	interrupter1_ReadCompare2:
 422              	.LFB13:
 846:Generated_Source\PSoC5/interrupter1.c **** 
 847:Generated_Source\PSoC5/interrupter1.c **** 
 848:Generated_Source\PSoC5/interrupter1.c ****     /*******************************************************************************
 849:Generated_Source\PSoC5/interrupter1.c ****     * Function Name: interrupter1_ReadCompare2
 850:Generated_Source\PSoC5/interrupter1.c ****     ********************************************************************************
 851:Generated_Source\PSoC5/interrupter1.c ****     *
 852:Generated_Source\PSoC5/interrupter1.c ****     * Summary:
 853:Generated_Source\PSoC5/interrupter1.c ****     *  Reads the compare value for the compare2 output.
 854:Generated_Source\PSoC5/interrupter1.c ****     *
 855:Generated_Source\PSoC5/interrupter1.c ****     * Parameters:
 856:Generated_Source\PSoC5/interrupter1.c ****     *  None
 857:Generated_Source\PSoC5/interrupter1.c ****     *
 858:Generated_Source\PSoC5/interrupter1.c ****     * Return:
 859:Generated_Source\PSoC5/interrupter1.c ****     *  uint8/uint16: Current compare value.
 860:Generated_Source\PSoC5/interrupter1.c ****     *
 861:Generated_Source\PSoC5/interrupter1.c ****     *******************************************************************************/
 862:Generated_Source\PSoC5/interrupter1.c ****     uint16 interrupter1_ReadCompare2(void) 
 863:Generated_Source\PSoC5/interrupter1.c ****     {
 423              		.loc 1 863 0
 424              		.cfi_startproc
 425              		@ args = 0, pretend = 0, frame = 0
 426              		@ frame_needed = 0, uses_anonymous_args = 0
 427              		@ link register save eliminated.
ARM GAS  C:\Users\chemi\AppData\Local\Temp\ccezsgPw.s 			page 24


 864:Generated_Source\PSoC5/interrupter1.c ****         return (CY_GET_REG16(interrupter1_COMPARE2_LSB_PTR));
 428              		.loc 1 864 0
 429 0000 014B     		ldr	r3, .L43
 430 0002 1888     		ldrh	r0, [r3]
 865:Generated_Source\PSoC5/interrupter1.c ****     }
 431              		.loc 1 865 0
 432 0004 80B2     		uxth	r0, r0
 433 0006 7047     		bx	lr
 434              	.L44:
 435              		.align	2
 436              	.L43:
 437 0008 78680040 		.word	1073768568
 438              		.cfi_endproc
 439              	.LFE13:
 440              		.size	interrupter1_ReadCompare2, .-interrupter1_ReadCompare2
 441              		.section	.text.interrupter1_ReadPeriod,"ax",%progbits
 442              		.align	1
 443              		.global	interrupter1_ReadPeriod
 444              		.thumb
 445              		.thumb_func
 446              		.type	interrupter1_ReadPeriod, %function
 447              	interrupter1_ReadPeriod:
 448              	.LFB14:
 866:Generated_Source\PSoC5/interrupter1.c **** 
 867:Generated_Source\PSoC5/interrupter1.c **** #endif /* (interrupter1_UseOneCompareMode) */
 868:Generated_Source\PSoC5/interrupter1.c **** 
 869:Generated_Source\PSoC5/interrupter1.c **** 
 870:Generated_Source\PSoC5/interrupter1.c **** /*******************************************************************************
 871:Generated_Source\PSoC5/interrupter1.c **** * Function Name: interrupter1_ReadPeriod
 872:Generated_Source\PSoC5/interrupter1.c **** ********************************************************************************
 873:Generated_Source\PSoC5/interrupter1.c **** *
 874:Generated_Source\PSoC5/interrupter1.c **** * Summary:
 875:Generated_Source\PSoC5/interrupter1.c **** *  Reads the period value used by the PWM hardware.
 876:Generated_Source\PSoC5/interrupter1.c **** *
 877:Generated_Source\PSoC5/interrupter1.c **** * Parameters:
 878:Generated_Source\PSoC5/interrupter1.c **** *  None
 879:Generated_Source\PSoC5/interrupter1.c **** *
 880:Generated_Source\PSoC5/interrupter1.c **** * Return:
 881:Generated_Source\PSoC5/interrupter1.c **** *  uint8/16: Period value
 882:Generated_Source\PSoC5/interrupter1.c **** *
 883:Generated_Source\PSoC5/interrupter1.c **** *******************************************************************************/
 884:Generated_Source\PSoC5/interrupter1.c **** uint16 interrupter1_ReadPeriod(void) 
 885:Generated_Source\PSoC5/interrupter1.c **** {
 449              		.loc 1 885 0
 450              		.cfi_startproc
 451              		@ args = 0, pretend = 0, frame = 0
 452              		@ frame_needed = 0, uses_anonymous_args = 0
 453              		@ link register save eliminated.
 886:Generated_Source\PSoC5/interrupter1.c ****     #if(interrupter1_UsingFixedFunction)
 887:Generated_Source\PSoC5/interrupter1.c ****         return ((uint16)CY_GET_REG16(interrupter1_PERIOD_LSB_PTR));
 888:Generated_Source\PSoC5/interrupter1.c ****     #else
 889:Generated_Source\PSoC5/interrupter1.c ****         return (CY_GET_REG16(interrupter1_PERIOD_LSB_PTR));
 454              		.loc 1 889 0
 455 0000 014B     		ldr	r3, .L46
 456 0002 1888     		ldrh	r0, [r3]
 890:Generated_Source\PSoC5/interrupter1.c ****     #endif /* (interrupter1_UsingFixedFunction) */
 891:Generated_Source\PSoC5/interrupter1.c **** }
ARM GAS  C:\Users\chemi\AppData\Local\Temp\ccezsgPw.s 			page 25


 457              		.loc 1 891 0
 458 0004 80B2     		uxth	r0, r0
 459 0006 7047     		bx	lr
 460              	.L47:
 461              		.align	2
 462              	.L46:
 463 0008 98680040 		.word	1073768600
 464              		.cfi_endproc
 465              	.LFE14:
 466              		.size	interrupter1_ReadPeriod, .-interrupter1_ReadPeriod
 467              		.global	interrupter1_initVar
 468              		.bss
 469              		.set	.LANCHOR0,. + 0
 470              		.type	interrupter1_initVar, %object
 471              		.size	interrupter1_initVar, 1
 472              	interrupter1_initVar:
 473 0000 00       		.space	1
 474              		.text
 475              	.Letext0:
 476              		.file 2 "Generated_Source\\PSoC5\\cytypes.h"