ARM GAS  C:\Users\chemi\AppData\Local\Temp\ccrRi8y8.s 			page 1


   1              		.syntax unified
   2              		.cpu cortex-m3
   3              		.fpu softvfp
   4              		.eabi_attribute 20, 1
   5              		.eabi_attribute 21, 1
   6              		.eabi_attribute 23, 3
   7              		.eabi_attribute 24, 1
   8              		.eabi_attribute 25, 1
   9              		.eabi_attribute 26, 1
  10              		.eabi_attribute 30, 4
  11              		.eabi_attribute 34, 1
  12              		.eabi_attribute 18, 4
  13              		.thumb
  14              		.syntax unified
  15              		.file	"interrupterIRQ.c"
  16              		.text
  17              	.Ltext0:
  18              		.cfi_sections	.debug_frame
  19              		.section	.text.interrupterIRQ_Interrupt,"ax",%progbits
  20              		.align	1
  21              		.global	interrupterIRQ_Interrupt
  22              		.thumb
  23              		.thumb_func
  24              		.type	interrupterIRQ_Interrupt, %function
  25              	interrupterIRQ_Interrupt:
  26              	.LFB3:
  27              		.file 1 "Generated_Source\\PSoC5\\interrupterIRQ.c"
   1:Generated_Source\PSoC5/interrupterIRQ.c **** /*******************************************************************************
   2:Generated_Source\PSoC5/interrupterIRQ.c **** * File Name: interrupterIRQ.c  
   3:Generated_Source\PSoC5/interrupterIRQ.c **** * Version 1.71
   4:Generated_Source\PSoC5/interrupterIRQ.c **** *
   5:Generated_Source\PSoC5/interrupterIRQ.c **** *  Description:
   6:Generated_Source\PSoC5/interrupterIRQ.c **** *   API for controlling the state of an interrupt.
   7:Generated_Source\PSoC5/interrupterIRQ.c **** *
   8:Generated_Source\PSoC5/interrupterIRQ.c **** *
   9:Generated_Source\PSoC5/interrupterIRQ.c **** *  Note:
  10:Generated_Source\PSoC5/interrupterIRQ.c **** *
  11:Generated_Source\PSoC5/interrupterIRQ.c **** ********************************************************************************
  12:Generated_Source\PSoC5/interrupterIRQ.c **** * Copyright 2008-2015, Cypress Semiconductor Corporation.  All rights reserved.
  13:Generated_Source\PSoC5/interrupterIRQ.c **** * You may use this file only in accordance with the license, terms, conditions, 
  14:Generated_Source\PSoC5/interrupterIRQ.c **** * disclaimers, and limitations in the end user license agreement accompanying 
  15:Generated_Source\PSoC5/interrupterIRQ.c **** * the software package with which this file was provided.
  16:Generated_Source\PSoC5/interrupterIRQ.c **** *******************************************************************************/
  17:Generated_Source\PSoC5/interrupterIRQ.c **** 
  18:Generated_Source\PSoC5/interrupterIRQ.c **** 
  19:Generated_Source\PSoC5/interrupterIRQ.c **** #include <cydevice_trm.h>
  20:Generated_Source\PSoC5/interrupterIRQ.c **** #include <CyLib.h>
  21:Generated_Source\PSoC5/interrupterIRQ.c **** #include <interrupterIRQ.h>
  22:Generated_Source\PSoC5/interrupterIRQ.c **** 
  23:Generated_Source\PSoC5/interrupterIRQ.c **** 
  24:Generated_Source\PSoC5/interrupterIRQ.c **** #if !defined(interrupterIRQ__REMOVED) /* Check for removal by optimization */
  25:Generated_Source\PSoC5/interrupterIRQ.c **** 
  26:Generated_Source\PSoC5/interrupterIRQ.c **** /*******************************************************************************
  27:Generated_Source\PSoC5/interrupterIRQ.c **** *  Place your includes, defines and code here 
  28:Generated_Source\PSoC5/interrupterIRQ.c **** ********************************************************************************/
  29:Generated_Source\PSoC5/interrupterIRQ.c **** /* `#START interrupterIRQ_intc` */
  30:Generated_Source\PSoC5/interrupterIRQ.c **** 
ARM GAS  C:\Users\chemi\AppData\Local\Temp\ccrRi8y8.s 			page 2


  31:Generated_Source\PSoC5/interrupterIRQ.c **** /* `#END` */
  32:Generated_Source\PSoC5/interrupterIRQ.c **** 
  33:Generated_Source\PSoC5/interrupterIRQ.c **** #ifndef CYINT_IRQ_BASE
  34:Generated_Source\PSoC5/interrupterIRQ.c **** #define CYINT_IRQ_BASE      16
  35:Generated_Source\PSoC5/interrupterIRQ.c **** #endif /* CYINT_IRQ_BASE */
  36:Generated_Source\PSoC5/interrupterIRQ.c **** #ifndef CYINT_VECT_TABLE
  37:Generated_Source\PSoC5/interrupterIRQ.c **** #define CYINT_VECT_TABLE    ((cyisraddress **) CYREG_NVIC_VECT_OFFSET)
  38:Generated_Source\PSoC5/interrupterIRQ.c **** #endif /* CYINT_VECT_TABLE */
  39:Generated_Source\PSoC5/interrupterIRQ.c **** 
  40:Generated_Source\PSoC5/interrupterIRQ.c **** /* Declared in startup, used to set unused interrupts to. */
  41:Generated_Source\PSoC5/interrupterIRQ.c **** CY_ISR_PROTO(IntDefaultHandler);
  42:Generated_Source\PSoC5/interrupterIRQ.c **** 
  43:Generated_Source\PSoC5/interrupterIRQ.c **** 
  44:Generated_Source\PSoC5/interrupterIRQ.c **** /*******************************************************************************
  45:Generated_Source\PSoC5/interrupterIRQ.c **** * Function Name: interrupterIRQ_Start
  46:Generated_Source\PSoC5/interrupterIRQ.c **** ********************************************************************************
  47:Generated_Source\PSoC5/interrupterIRQ.c **** *
  48:Generated_Source\PSoC5/interrupterIRQ.c **** * Summary:
  49:Generated_Source\PSoC5/interrupterIRQ.c **** *  Set up the interrupt and enable it. This function disables the interrupt, 
  50:Generated_Source\PSoC5/interrupterIRQ.c **** *  sets the default interrupt vector, sets the priority from the value in the
  51:Generated_Source\PSoC5/interrupterIRQ.c **** *  Design Wide Resources Interrupt Editor, then enables the interrupt to the 
  52:Generated_Source\PSoC5/interrupterIRQ.c **** *  interrupt controller.
  53:Generated_Source\PSoC5/interrupterIRQ.c **** *
  54:Generated_Source\PSoC5/interrupterIRQ.c **** * Parameters:  
  55:Generated_Source\PSoC5/interrupterIRQ.c **** *   None
  56:Generated_Source\PSoC5/interrupterIRQ.c **** *
  57:Generated_Source\PSoC5/interrupterIRQ.c **** * Return:
  58:Generated_Source\PSoC5/interrupterIRQ.c **** *   None
  59:Generated_Source\PSoC5/interrupterIRQ.c **** *
  60:Generated_Source\PSoC5/interrupterIRQ.c **** *******************************************************************************/
  61:Generated_Source\PSoC5/interrupterIRQ.c **** void interrupterIRQ_Start(void)
  62:Generated_Source\PSoC5/interrupterIRQ.c **** {
  63:Generated_Source\PSoC5/interrupterIRQ.c ****     /* For all we know the interrupt is active. */
  64:Generated_Source\PSoC5/interrupterIRQ.c ****     interrupterIRQ_Disable();
  65:Generated_Source\PSoC5/interrupterIRQ.c **** 
  66:Generated_Source\PSoC5/interrupterIRQ.c ****     /* Set the ISR to point to the interrupterIRQ Interrupt. */
  67:Generated_Source\PSoC5/interrupterIRQ.c ****     interrupterIRQ_SetVector(&interrupterIRQ_Interrupt);
  68:Generated_Source\PSoC5/interrupterIRQ.c **** 
  69:Generated_Source\PSoC5/interrupterIRQ.c ****     /* Set the priority. */
  70:Generated_Source\PSoC5/interrupterIRQ.c ****     interrupterIRQ_SetPriority((uint8)interrupterIRQ_INTC_PRIOR_NUMBER);
  71:Generated_Source\PSoC5/interrupterIRQ.c **** 
  72:Generated_Source\PSoC5/interrupterIRQ.c ****     /* Enable it. */
  73:Generated_Source\PSoC5/interrupterIRQ.c ****     interrupterIRQ_Enable();
  74:Generated_Source\PSoC5/interrupterIRQ.c **** }
  75:Generated_Source\PSoC5/interrupterIRQ.c **** 
  76:Generated_Source\PSoC5/interrupterIRQ.c **** 
  77:Generated_Source\PSoC5/interrupterIRQ.c **** /*******************************************************************************
  78:Generated_Source\PSoC5/interrupterIRQ.c **** * Function Name: interrupterIRQ_StartEx
  79:Generated_Source\PSoC5/interrupterIRQ.c **** ********************************************************************************
  80:Generated_Source\PSoC5/interrupterIRQ.c **** *
  81:Generated_Source\PSoC5/interrupterIRQ.c **** * Summary:
  82:Generated_Source\PSoC5/interrupterIRQ.c **** *  Sets up the interrupt and enables it. This function disables the interrupt,
  83:Generated_Source\PSoC5/interrupterIRQ.c **** *  sets the interrupt vector based on the address passed in, sets the priority 
  84:Generated_Source\PSoC5/interrupterIRQ.c **** *  from the value in the Design Wide Resources Interrupt Editor, then enables 
  85:Generated_Source\PSoC5/interrupterIRQ.c **** *  the interrupt to the interrupt controller.
  86:Generated_Source\PSoC5/interrupterIRQ.c **** *  
  87:Generated_Source\PSoC5/interrupterIRQ.c **** *  When defining ISR functions, the CY_ISR and CY_ISR_PROTO macros should be 
ARM GAS  C:\Users\chemi\AppData\Local\Temp\ccrRi8y8.s 			page 3


  88:Generated_Source\PSoC5/interrupterIRQ.c **** *  used to provide consistent definition across compilers:
  89:Generated_Source\PSoC5/interrupterIRQ.c **** *  
  90:Generated_Source\PSoC5/interrupterIRQ.c **** *  Function definition example:
  91:Generated_Source\PSoC5/interrupterIRQ.c **** *   CY_ISR(MyISR)
  92:Generated_Source\PSoC5/interrupterIRQ.c **** *   {
  93:Generated_Source\PSoC5/interrupterIRQ.c **** *   }
  94:Generated_Source\PSoC5/interrupterIRQ.c **** *   Function prototype example:
  95:Generated_Source\PSoC5/interrupterIRQ.c **** *   CY_ISR_PROTO(MyISR);
  96:Generated_Source\PSoC5/interrupterIRQ.c **** *
  97:Generated_Source\PSoC5/interrupterIRQ.c **** * Parameters:  
  98:Generated_Source\PSoC5/interrupterIRQ.c **** *   address: Address of the ISR to set in the interrupt vector table.
  99:Generated_Source\PSoC5/interrupterIRQ.c **** *
 100:Generated_Source\PSoC5/interrupterIRQ.c **** * Return:
 101:Generated_Source\PSoC5/interrupterIRQ.c **** *   None
 102:Generated_Source\PSoC5/interrupterIRQ.c **** *
 103:Generated_Source\PSoC5/interrupterIRQ.c **** *******************************************************************************/
 104:Generated_Source\PSoC5/interrupterIRQ.c **** void interrupterIRQ_StartEx(cyisraddress address)
 105:Generated_Source\PSoC5/interrupterIRQ.c **** {
 106:Generated_Source\PSoC5/interrupterIRQ.c ****     /* For all we know the interrupt is active. */
 107:Generated_Source\PSoC5/interrupterIRQ.c ****     interrupterIRQ_Disable();
 108:Generated_Source\PSoC5/interrupterIRQ.c **** 
 109:Generated_Source\PSoC5/interrupterIRQ.c ****     /* Set the ISR to point to the interrupterIRQ Interrupt. */
 110:Generated_Source\PSoC5/interrupterIRQ.c ****     interrupterIRQ_SetVector(address);
 111:Generated_Source\PSoC5/interrupterIRQ.c **** 
 112:Generated_Source\PSoC5/interrupterIRQ.c ****     /* Set the priority. */
 113:Generated_Source\PSoC5/interrupterIRQ.c ****     interrupterIRQ_SetPriority((uint8)interrupterIRQ_INTC_PRIOR_NUMBER);
 114:Generated_Source\PSoC5/interrupterIRQ.c **** 
 115:Generated_Source\PSoC5/interrupterIRQ.c ****     /* Enable it. */
 116:Generated_Source\PSoC5/interrupterIRQ.c ****     interrupterIRQ_Enable();
 117:Generated_Source\PSoC5/interrupterIRQ.c **** }
 118:Generated_Source\PSoC5/interrupterIRQ.c **** 
 119:Generated_Source\PSoC5/interrupterIRQ.c **** 
 120:Generated_Source\PSoC5/interrupterIRQ.c **** /*******************************************************************************
 121:Generated_Source\PSoC5/interrupterIRQ.c **** * Function Name: interrupterIRQ_Stop
 122:Generated_Source\PSoC5/interrupterIRQ.c **** ********************************************************************************
 123:Generated_Source\PSoC5/interrupterIRQ.c **** *
 124:Generated_Source\PSoC5/interrupterIRQ.c **** * Summary:
 125:Generated_Source\PSoC5/interrupterIRQ.c **** *   Disables and removes the interrupt.
 126:Generated_Source\PSoC5/interrupterIRQ.c **** *
 127:Generated_Source\PSoC5/interrupterIRQ.c **** * Parameters:  
 128:Generated_Source\PSoC5/interrupterIRQ.c **** *   None
 129:Generated_Source\PSoC5/interrupterIRQ.c **** *
 130:Generated_Source\PSoC5/interrupterIRQ.c **** * Return:
 131:Generated_Source\PSoC5/interrupterIRQ.c **** *   None
 132:Generated_Source\PSoC5/interrupterIRQ.c **** *
 133:Generated_Source\PSoC5/interrupterIRQ.c **** *******************************************************************************/
 134:Generated_Source\PSoC5/interrupterIRQ.c **** void interrupterIRQ_Stop(void)
 135:Generated_Source\PSoC5/interrupterIRQ.c **** {
 136:Generated_Source\PSoC5/interrupterIRQ.c ****     /* Disable this interrupt. */
 137:Generated_Source\PSoC5/interrupterIRQ.c ****     interrupterIRQ_Disable();
 138:Generated_Source\PSoC5/interrupterIRQ.c **** 
 139:Generated_Source\PSoC5/interrupterIRQ.c ****     /* Set the ISR to point to the passive one. */
 140:Generated_Source\PSoC5/interrupterIRQ.c ****     interrupterIRQ_SetVector(&IntDefaultHandler);
 141:Generated_Source\PSoC5/interrupterIRQ.c **** }
 142:Generated_Source\PSoC5/interrupterIRQ.c **** 
 143:Generated_Source\PSoC5/interrupterIRQ.c **** 
 144:Generated_Source\PSoC5/interrupterIRQ.c **** /*******************************************************************************
ARM GAS  C:\Users\chemi\AppData\Local\Temp\ccrRi8y8.s 			page 4


 145:Generated_Source\PSoC5/interrupterIRQ.c **** * Function Name: interrupterIRQ_Interrupt
 146:Generated_Source\PSoC5/interrupterIRQ.c **** ********************************************************************************
 147:Generated_Source\PSoC5/interrupterIRQ.c **** *
 148:Generated_Source\PSoC5/interrupterIRQ.c **** * Summary:
 149:Generated_Source\PSoC5/interrupterIRQ.c **** *   The default Interrupt Service Routine for interrupterIRQ.
 150:Generated_Source\PSoC5/interrupterIRQ.c **** *
 151:Generated_Source\PSoC5/interrupterIRQ.c **** *   Add custom code between the coments to keep the next version of this file
 152:Generated_Source\PSoC5/interrupterIRQ.c **** *   from over writting your code.
 153:Generated_Source\PSoC5/interrupterIRQ.c **** *
 154:Generated_Source\PSoC5/interrupterIRQ.c **** * Parameters:  
 155:Generated_Source\PSoC5/interrupterIRQ.c **** *
 156:Generated_Source\PSoC5/interrupterIRQ.c **** * Return:
 157:Generated_Source\PSoC5/interrupterIRQ.c **** *   None
 158:Generated_Source\PSoC5/interrupterIRQ.c **** *
 159:Generated_Source\PSoC5/interrupterIRQ.c **** *******************************************************************************/
 160:Generated_Source\PSoC5/interrupterIRQ.c **** CY_ISR(interrupterIRQ_Interrupt)
 161:Generated_Source\PSoC5/interrupterIRQ.c **** {
  28              		.loc 1 161 0
  29              		.cfi_startproc
  30              		@ args = 0, pretend = 0, frame = 0
  31              		@ frame_needed = 0, uses_anonymous_args = 0
  32              		@ link register save eliminated.
  33 0000 7047     		bx	lr
  34              		.cfi_endproc
  35              	.LFE3:
  36              		.size	interrupterIRQ_Interrupt, .-interrupterIRQ_Interrupt
  37              		.section	.text.interrupterIRQ_Start,"ax",%progbits
  38              		.align	1
  39              		.global	interrupterIRQ_Start
  40              		.thumb
  41              		.thumb_func
  42              		.type	interrupterIRQ_Start, %function
  43              	interrupterIRQ_Start:
  44              	.LFB0:
  62:Generated_Source\PSoC5/interrupterIRQ.c ****     /* For all we know the interrupt is active. */
  45              		.loc 1 62 0
  46              		.cfi_startproc
  47              		@ args = 0, pretend = 0, frame = 0
  48              		@ frame_needed = 0, uses_anonymous_args = 0
  49              		@ link register save eliminated.
  50              	.LBB22:
  51              	.LBB23:
 162:Generated_Source\PSoC5/interrupterIRQ.c ****     #ifdef interrupterIRQ_INTERRUPT_INTERRUPT_CALLBACK
 163:Generated_Source\PSoC5/interrupterIRQ.c ****         interrupterIRQ_Interrupt_InterruptCallback();
 164:Generated_Source\PSoC5/interrupterIRQ.c ****     #endif /* interrupterIRQ_INTERRUPT_INTERRUPT_CALLBACK */ 
 165:Generated_Source\PSoC5/interrupterIRQ.c **** 
 166:Generated_Source\PSoC5/interrupterIRQ.c ****     /*  Place your Interrupt code here. */
 167:Generated_Source\PSoC5/interrupterIRQ.c ****     /* `#START interrupterIRQ_Interrupt` */
 168:Generated_Source\PSoC5/interrupterIRQ.c **** 
 169:Generated_Source\PSoC5/interrupterIRQ.c ****     /* `#END` */
 170:Generated_Source\PSoC5/interrupterIRQ.c **** }
 171:Generated_Source\PSoC5/interrupterIRQ.c **** 
 172:Generated_Source\PSoC5/interrupterIRQ.c **** 
 173:Generated_Source\PSoC5/interrupterIRQ.c **** /*******************************************************************************
 174:Generated_Source\PSoC5/interrupterIRQ.c **** * Function Name: interrupterIRQ_SetVector
 175:Generated_Source\PSoC5/interrupterIRQ.c **** ********************************************************************************
 176:Generated_Source\PSoC5/interrupterIRQ.c **** *
ARM GAS  C:\Users\chemi\AppData\Local\Temp\ccrRi8y8.s 			page 5


 177:Generated_Source\PSoC5/interrupterIRQ.c **** * Summary:
 178:Generated_Source\PSoC5/interrupterIRQ.c **** *   Change the ISR vector for the Interrupt. Note calling interrupterIRQ_Start
 179:Generated_Source\PSoC5/interrupterIRQ.c **** *   will override any effect this method would have had. To set the vector 
 180:Generated_Source\PSoC5/interrupterIRQ.c **** *   before the component has been started use interrupterIRQ_StartEx instead.
 181:Generated_Source\PSoC5/interrupterIRQ.c **** * 
 182:Generated_Source\PSoC5/interrupterIRQ.c **** *   When defining ISR functions, the CY_ISR and CY_ISR_PROTO macros should be 
 183:Generated_Source\PSoC5/interrupterIRQ.c **** *   used to provide consistent definition across compilers:
 184:Generated_Source\PSoC5/interrupterIRQ.c **** *
 185:Generated_Source\PSoC5/interrupterIRQ.c **** *   Function definition example:
 186:Generated_Source\PSoC5/interrupterIRQ.c **** *   CY_ISR(MyISR)
 187:Generated_Source\PSoC5/interrupterIRQ.c **** *   {
 188:Generated_Source\PSoC5/interrupterIRQ.c **** *   }
 189:Generated_Source\PSoC5/interrupterIRQ.c **** *
 190:Generated_Source\PSoC5/interrupterIRQ.c **** *   Function prototype example:
 191:Generated_Source\PSoC5/interrupterIRQ.c **** *     CY_ISR_PROTO(MyISR);
 192:Generated_Source\PSoC5/interrupterIRQ.c **** *
 193:Generated_Source\PSoC5/interrupterIRQ.c **** * Parameters:
 194:Generated_Source\PSoC5/interrupterIRQ.c **** *   address: Address of the ISR to set in the interrupt vector table.
 195:Generated_Source\PSoC5/interrupterIRQ.c **** *
 196:Generated_Source\PSoC5/interrupterIRQ.c **** * Return:
 197:Generated_Source\PSoC5/interrupterIRQ.c **** *   None
 198:Generated_Source\PSoC5/interrupterIRQ.c **** *
 199:Generated_Source\PSoC5/interrupterIRQ.c **** *******************************************************************************/
 200:Generated_Source\PSoC5/interrupterIRQ.c **** void interrupterIRQ_SetVector(cyisraddress address)
 201:Generated_Source\PSoC5/interrupterIRQ.c **** {
 202:Generated_Source\PSoC5/interrupterIRQ.c ****     cyisraddress * ramVectorTable;
 203:Generated_Source\PSoC5/interrupterIRQ.c **** 
 204:Generated_Source\PSoC5/interrupterIRQ.c ****     ramVectorTable = (cyisraddress *) *CYINT_VECT_TABLE;
 205:Generated_Source\PSoC5/interrupterIRQ.c **** 
 206:Generated_Source\PSoC5/interrupterIRQ.c ****     ramVectorTable[CYINT_IRQ_BASE + (uint32)interrupterIRQ__INTC_NUMBER] = address;
 207:Generated_Source\PSoC5/interrupterIRQ.c **** }
 208:Generated_Source\PSoC5/interrupterIRQ.c **** 
 209:Generated_Source\PSoC5/interrupterIRQ.c **** 
 210:Generated_Source\PSoC5/interrupterIRQ.c **** /*******************************************************************************
 211:Generated_Source\PSoC5/interrupterIRQ.c **** * Function Name: interrupterIRQ_GetVector
 212:Generated_Source\PSoC5/interrupterIRQ.c **** ********************************************************************************
 213:Generated_Source\PSoC5/interrupterIRQ.c **** *
 214:Generated_Source\PSoC5/interrupterIRQ.c **** * Summary:
 215:Generated_Source\PSoC5/interrupterIRQ.c **** *   Gets the "address" of the current ISR vector for the Interrupt.
 216:Generated_Source\PSoC5/interrupterIRQ.c **** *
 217:Generated_Source\PSoC5/interrupterIRQ.c **** * Parameters:
 218:Generated_Source\PSoC5/interrupterIRQ.c **** *   None
 219:Generated_Source\PSoC5/interrupterIRQ.c **** *
 220:Generated_Source\PSoC5/interrupterIRQ.c **** * Return:
 221:Generated_Source\PSoC5/interrupterIRQ.c **** *   Address of the ISR in the interrupt vector table.
 222:Generated_Source\PSoC5/interrupterIRQ.c **** *
 223:Generated_Source\PSoC5/interrupterIRQ.c **** *******************************************************************************/
 224:Generated_Source\PSoC5/interrupterIRQ.c **** cyisraddress interrupterIRQ_GetVector(void)
 225:Generated_Source\PSoC5/interrupterIRQ.c **** {
 226:Generated_Source\PSoC5/interrupterIRQ.c ****     cyisraddress * ramVectorTable;
 227:Generated_Source\PSoC5/interrupterIRQ.c **** 
 228:Generated_Source\PSoC5/interrupterIRQ.c ****     ramVectorTable = (cyisraddress *) *CYINT_VECT_TABLE;
 229:Generated_Source\PSoC5/interrupterIRQ.c **** 
 230:Generated_Source\PSoC5/interrupterIRQ.c ****     return ramVectorTable[CYINT_IRQ_BASE + (uint32)interrupterIRQ__INTC_NUMBER];
 231:Generated_Source\PSoC5/interrupterIRQ.c **** }
 232:Generated_Source\PSoC5/interrupterIRQ.c **** 
 233:Generated_Source\PSoC5/interrupterIRQ.c **** 
ARM GAS  C:\Users\chemi\AppData\Local\Temp\ccrRi8y8.s 			page 6


 234:Generated_Source\PSoC5/interrupterIRQ.c **** /*******************************************************************************
 235:Generated_Source\PSoC5/interrupterIRQ.c **** * Function Name: interrupterIRQ_SetPriority
 236:Generated_Source\PSoC5/interrupterIRQ.c **** ********************************************************************************
 237:Generated_Source\PSoC5/interrupterIRQ.c **** *
 238:Generated_Source\PSoC5/interrupterIRQ.c **** * Summary:
 239:Generated_Source\PSoC5/interrupterIRQ.c **** *   Sets the Priority of the Interrupt. 
 240:Generated_Source\PSoC5/interrupterIRQ.c **** *
 241:Generated_Source\PSoC5/interrupterIRQ.c **** *   Note calling interrupterIRQ_Start or interrupterIRQ_StartEx will 
 242:Generated_Source\PSoC5/interrupterIRQ.c **** *   override any effect this API would have had. This API should only be called
 243:Generated_Source\PSoC5/interrupterIRQ.c **** *   after interrupterIRQ_Start or interrupterIRQ_StartEx has been called. 
 244:Generated_Source\PSoC5/interrupterIRQ.c **** *   To set the initial priority for the component, use the Design-Wide Resources
 245:Generated_Source\PSoC5/interrupterIRQ.c **** *   Interrupt Editor.
 246:Generated_Source\PSoC5/interrupterIRQ.c **** *
 247:Generated_Source\PSoC5/interrupterIRQ.c **** *   Note This API has no effect on Non-maskable interrupt NMI).
 248:Generated_Source\PSoC5/interrupterIRQ.c **** *
 249:Generated_Source\PSoC5/interrupterIRQ.c **** * Parameters:
 250:Generated_Source\PSoC5/interrupterIRQ.c **** *   priority: Priority of the interrupt, 0 being the highest priority
 251:Generated_Source\PSoC5/interrupterIRQ.c **** *             PSoC 3 and PSoC 5LP: Priority is from 0 to 7.
 252:Generated_Source\PSoC5/interrupterIRQ.c **** *             PSoC 4: Priority is from 0 to 3.
 253:Generated_Source\PSoC5/interrupterIRQ.c **** *
 254:Generated_Source\PSoC5/interrupterIRQ.c **** * Return:
 255:Generated_Source\PSoC5/interrupterIRQ.c **** *   None
 256:Generated_Source\PSoC5/interrupterIRQ.c **** *
 257:Generated_Source\PSoC5/interrupterIRQ.c **** *******************************************************************************/
 258:Generated_Source\PSoC5/interrupterIRQ.c **** void interrupterIRQ_SetPriority(uint8 priority)
 259:Generated_Source\PSoC5/interrupterIRQ.c **** {
 260:Generated_Source\PSoC5/interrupterIRQ.c ****     *interrupterIRQ_INTC_PRIOR = priority << 5;
 261:Generated_Source\PSoC5/interrupterIRQ.c **** }
 262:Generated_Source\PSoC5/interrupterIRQ.c **** 
 263:Generated_Source\PSoC5/interrupterIRQ.c **** 
 264:Generated_Source\PSoC5/interrupterIRQ.c **** /*******************************************************************************
 265:Generated_Source\PSoC5/interrupterIRQ.c **** * Function Name: interrupterIRQ_GetPriority
 266:Generated_Source\PSoC5/interrupterIRQ.c **** ********************************************************************************
 267:Generated_Source\PSoC5/interrupterIRQ.c **** *
 268:Generated_Source\PSoC5/interrupterIRQ.c **** * Summary:
 269:Generated_Source\PSoC5/interrupterIRQ.c **** *   Gets the Priority of the Interrupt.
 270:Generated_Source\PSoC5/interrupterIRQ.c **** *
 271:Generated_Source\PSoC5/interrupterIRQ.c **** * Parameters:
 272:Generated_Source\PSoC5/interrupterIRQ.c **** *   None
 273:Generated_Source\PSoC5/interrupterIRQ.c **** *
 274:Generated_Source\PSoC5/interrupterIRQ.c **** * Return:
 275:Generated_Source\PSoC5/interrupterIRQ.c **** *   Priority of the interrupt, 0 being the highest priority
 276:Generated_Source\PSoC5/interrupterIRQ.c **** *    PSoC 3 and PSoC 5LP: Priority is from 0 to 7.
 277:Generated_Source\PSoC5/interrupterIRQ.c **** *    PSoC 4: Priority is from 0 to 3.
 278:Generated_Source\PSoC5/interrupterIRQ.c **** *
 279:Generated_Source\PSoC5/interrupterIRQ.c **** *******************************************************************************/
 280:Generated_Source\PSoC5/interrupterIRQ.c **** uint8 interrupterIRQ_GetPriority(void)
 281:Generated_Source\PSoC5/interrupterIRQ.c **** {
 282:Generated_Source\PSoC5/interrupterIRQ.c ****     uint8 priority;
 283:Generated_Source\PSoC5/interrupterIRQ.c **** 
 284:Generated_Source\PSoC5/interrupterIRQ.c **** 
 285:Generated_Source\PSoC5/interrupterIRQ.c ****     priority = *interrupterIRQ_INTC_PRIOR >> 5;
 286:Generated_Source\PSoC5/interrupterIRQ.c **** 
 287:Generated_Source\PSoC5/interrupterIRQ.c ****     return priority;
 288:Generated_Source\PSoC5/interrupterIRQ.c **** }
 289:Generated_Source\PSoC5/interrupterIRQ.c **** 
 290:Generated_Source\PSoC5/interrupterIRQ.c **** 
ARM GAS  C:\Users\chemi\AppData\Local\Temp\ccrRi8y8.s 			page 7


 291:Generated_Source\PSoC5/interrupterIRQ.c **** /*******************************************************************************
 292:Generated_Source\PSoC5/interrupterIRQ.c **** * Function Name: interrupterIRQ_Enable
 293:Generated_Source\PSoC5/interrupterIRQ.c **** ********************************************************************************
 294:Generated_Source\PSoC5/interrupterIRQ.c **** *
 295:Generated_Source\PSoC5/interrupterIRQ.c **** * Summary:
 296:Generated_Source\PSoC5/interrupterIRQ.c **** *   Enables the interrupt to the interrupt controller. Do not call this function
 297:Generated_Source\PSoC5/interrupterIRQ.c **** *   unless ISR_Start() has been called or the functionality of the ISR_Start() 
 298:Generated_Source\PSoC5/interrupterIRQ.c **** *   function, which sets the vector and the priority, has been called.
 299:Generated_Source\PSoC5/interrupterIRQ.c **** *
 300:Generated_Source\PSoC5/interrupterIRQ.c **** * Parameters:
 301:Generated_Source\PSoC5/interrupterIRQ.c **** *   None
 302:Generated_Source\PSoC5/interrupterIRQ.c **** *
 303:Generated_Source\PSoC5/interrupterIRQ.c **** * Return:
 304:Generated_Source\PSoC5/interrupterIRQ.c **** *   None
 305:Generated_Source\PSoC5/interrupterIRQ.c **** *
 306:Generated_Source\PSoC5/interrupterIRQ.c **** *******************************************************************************/
 307:Generated_Source\PSoC5/interrupterIRQ.c **** void interrupterIRQ_Enable(void)
 308:Generated_Source\PSoC5/interrupterIRQ.c **** {
 309:Generated_Source\PSoC5/interrupterIRQ.c ****     /* Enable the general interrupt. */
 310:Generated_Source\PSoC5/interrupterIRQ.c ****     *interrupterIRQ_INTC_SET_EN = interrupterIRQ__INTC_MASK;
 311:Generated_Source\PSoC5/interrupterIRQ.c **** }
 312:Generated_Source\PSoC5/interrupterIRQ.c **** 
 313:Generated_Source\PSoC5/interrupterIRQ.c **** 
 314:Generated_Source\PSoC5/interrupterIRQ.c **** /*******************************************************************************
 315:Generated_Source\PSoC5/interrupterIRQ.c **** * Function Name: interrupterIRQ_GetState
 316:Generated_Source\PSoC5/interrupterIRQ.c **** ********************************************************************************
 317:Generated_Source\PSoC5/interrupterIRQ.c **** *
 318:Generated_Source\PSoC5/interrupterIRQ.c **** * Summary:
 319:Generated_Source\PSoC5/interrupterIRQ.c **** *   Gets the state (enabled, disabled) of the Interrupt.
 320:Generated_Source\PSoC5/interrupterIRQ.c **** *
 321:Generated_Source\PSoC5/interrupterIRQ.c **** * Parameters:
 322:Generated_Source\PSoC5/interrupterIRQ.c **** *   None
 323:Generated_Source\PSoC5/interrupterIRQ.c **** *
 324:Generated_Source\PSoC5/interrupterIRQ.c **** * Return:
 325:Generated_Source\PSoC5/interrupterIRQ.c **** *   1 if enabled, 0 if disabled.
 326:Generated_Source\PSoC5/interrupterIRQ.c **** *
 327:Generated_Source\PSoC5/interrupterIRQ.c **** *******************************************************************************/
 328:Generated_Source\PSoC5/interrupterIRQ.c **** uint8 interrupterIRQ_GetState(void)
 329:Generated_Source\PSoC5/interrupterIRQ.c **** {
 330:Generated_Source\PSoC5/interrupterIRQ.c ****     /* Get the state of the general interrupt. */
 331:Generated_Source\PSoC5/interrupterIRQ.c ****     return ((*interrupterIRQ_INTC_SET_EN & (uint32)interrupterIRQ__INTC_MASK) != 0u) ? 1u:0u;
 332:Generated_Source\PSoC5/interrupterIRQ.c **** }
 333:Generated_Source\PSoC5/interrupterIRQ.c **** 
 334:Generated_Source\PSoC5/interrupterIRQ.c **** 
 335:Generated_Source\PSoC5/interrupterIRQ.c **** /*******************************************************************************
 336:Generated_Source\PSoC5/interrupterIRQ.c **** * Function Name: interrupterIRQ_Disable
 337:Generated_Source\PSoC5/interrupterIRQ.c **** ********************************************************************************
 338:Generated_Source\PSoC5/interrupterIRQ.c **** *
 339:Generated_Source\PSoC5/interrupterIRQ.c **** * Summary:
 340:Generated_Source\PSoC5/interrupterIRQ.c **** *   Disables the Interrupt in the interrupt controller.
 341:Generated_Source\PSoC5/interrupterIRQ.c **** *
 342:Generated_Source\PSoC5/interrupterIRQ.c **** * Parameters:
 343:Generated_Source\PSoC5/interrupterIRQ.c **** *   None
 344:Generated_Source\PSoC5/interrupterIRQ.c **** *
 345:Generated_Source\PSoC5/interrupterIRQ.c **** * Return:
 346:Generated_Source\PSoC5/interrupterIRQ.c **** *   None
 347:Generated_Source\PSoC5/interrupterIRQ.c **** *
ARM GAS  C:\Users\chemi\AppData\Local\Temp\ccrRi8y8.s 			page 8


 348:Generated_Source\PSoC5/interrupterIRQ.c **** *******************************************************************************/
 349:Generated_Source\PSoC5/interrupterIRQ.c **** void interrupterIRQ_Disable(void)
 350:Generated_Source\PSoC5/interrupterIRQ.c **** {
 351:Generated_Source\PSoC5/interrupterIRQ.c ****     /* Disable the general interrupt. */
 352:Generated_Source\PSoC5/interrupterIRQ.c ****     *interrupterIRQ_INTC_CLR_EN = interrupterIRQ__INTC_MASK;
  52              		.loc 1 352 0
  53 0000 084A     		ldr	r2, .L3
  54 0002 4FF40073 		mov	r3, #512
  55 0006 1360     		str	r3, [r2]
  56              	.LVL0:
  57              	.LBE23:
  58              	.LBE22:
  59              	.LBB24:
  60              	.LBB25:
 204:Generated_Source\PSoC5/interrupterIRQ.c **** 
  61              		.loc 1 204 0
  62 0008 02F68832 		addw	r2, r2, #2952
  63 000c 1268     		ldr	r2, [r2]
  64              	.LVL1:
 206:Generated_Source\PSoC5/interrupterIRQ.c **** }
  65              		.loc 1 206 0
  66 000e 0649     		ldr	r1, .L3+4
  67 0010 5166     		str	r1, [r2, #100]
  68              	.LVL2:
  69              	.LBE25:
  70              	.LBE24:
  71              	.LBB26:
  72              	.LBB27:
 260:Generated_Source\PSoC5/interrupterIRQ.c **** }
  73              		.loc 1 260 0
  74 0012 064A     		ldr	r2, .L3+8
  75 0014 E021     		movs	r1, #224
  76 0016 1170     		strb	r1, [r2]
  77              	.LVL3:
  78              	.LBE27:
  79              	.LBE26:
  80              	.LBB28:
  81              	.LBB29:
 310:Generated_Source\PSoC5/interrupterIRQ.c **** }
  82              		.loc 1 310 0
  83 0018 6FF44271 		mvn	r1, #776
  84 001c 0A44     		add	r2, r2, r1
  85 001e 1360     		str	r3, [r2]
  86 0020 7047     		bx	lr
  87              	.L4:
  88 0022 00BF     		.align	2
  89              	.L3:
  90 0024 80E100E0 		.word	-536813184
  91 0028 00000000 		.word	interrupterIRQ_Interrupt
  92 002c 09E400E0 		.word	-536812535
  93              	.LBE29:
  94              	.LBE28:
  95              		.cfi_endproc
  96              	.LFE0:
  97              		.size	interrupterIRQ_Start, .-interrupterIRQ_Start
  98              		.section	.text.interrupterIRQ_StartEx,"ax",%progbits
  99              		.align	1
ARM GAS  C:\Users\chemi\AppData\Local\Temp\ccrRi8y8.s 			page 9


 100              		.global	interrupterIRQ_StartEx
 101              		.thumb
 102              		.thumb_func
 103              		.type	interrupterIRQ_StartEx, %function
 104              	interrupterIRQ_StartEx:
 105              	.LFB1:
 105:Generated_Source\PSoC5/interrupterIRQ.c ****     /* For all we know the interrupt is active. */
 106              		.loc 1 105 0
 107              		.cfi_startproc
 108              		@ args = 0, pretend = 0, frame = 0
 109              		@ frame_needed = 0, uses_anonymous_args = 0
 110              		@ link register save eliminated.
 111              	.LVL4:
 112              	.LBB30:
 113              	.LBB31:
 114              		.loc 1 352 0
 115 0000 074A     		ldr	r2, .L6
 116 0002 4FF40073 		mov	r3, #512
 117 0006 1360     		str	r3, [r2]
 118              	.LVL5:
 119              	.LBE31:
 120              	.LBE30:
 121              	.LBB32:
 122              	.LBB33:
 204:Generated_Source\PSoC5/interrupterIRQ.c **** 
 123              		.loc 1 204 0
 124 0008 02F68832 		addw	r2, r2, #2952
 125 000c 1268     		ldr	r2, [r2]
 126              	.LVL6:
 127              	.LBE33:
 128              	.LBE32:
 129              	.LBB35:
 130              	.LBB36:
 260:Generated_Source\PSoC5/interrupterIRQ.c **** }
 131              		.loc 1 260 0
 132 000e E021     		movs	r1, #224
 133              	.LBE36:
 134              	.LBE35:
 135              	.LBB38:
 136              	.LBB34:
 206:Generated_Source\PSoC5/interrupterIRQ.c **** }
 137              		.loc 1 206 0
 138 0010 5066     		str	r0, [r2, #100]
 139              	.LVL7:
 140              	.LBE34:
 141              	.LBE38:
 142              	.LBB39:
 143              	.LBB37:
 260:Generated_Source\PSoC5/interrupterIRQ.c **** }
 144              		.loc 1 260 0
 145 0012 044A     		ldr	r2, .L6+4
 146 0014 1170     		strb	r1, [r2]
 147              	.LVL8:
 148              	.LBE37:
 149              	.LBE39:
 150              	.LBB40:
 151              	.LBB41:
ARM GAS  C:\Users\chemi\AppData\Local\Temp\ccrRi8y8.s 			page 10


 310:Generated_Source\PSoC5/interrupterIRQ.c **** }
 152              		.loc 1 310 0
 153 0016 6FF44271 		mvn	r1, #776
 154 001a 0A44     		add	r2, r2, r1
 155 001c 1360     		str	r3, [r2]
 156 001e 7047     		bx	lr
 157              	.L7:
 158              		.align	2
 159              	.L6:
 160 0020 80E100E0 		.word	-536813184
 161 0024 09E400E0 		.word	-536812535
 162              	.LBE41:
 163              	.LBE40:
 164              		.cfi_endproc
 165              	.LFE1:
 166              		.size	interrupterIRQ_StartEx, .-interrupterIRQ_StartEx
 167              		.section	.text.interrupterIRQ_Stop,"ax",%progbits
 168              		.align	1
 169              		.global	interrupterIRQ_Stop
 170              		.thumb
 171              		.thumb_func
 172              		.type	interrupterIRQ_Stop, %function
 173              	interrupterIRQ_Stop:
 174              	.LFB2:
 135:Generated_Source\PSoC5/interrupterIRQ.c ****     /* Disable this interrupt. */
 175              		.loc 1 135 0
 176              		.cfi_startproc
 177              		@ args = 0, pretend = 0, frame = 0
 178              		@ frame_needed = 0, uses_anonymous_args = 0
 179              		@ link register save eliminated.
 180              	.LBB42:
 181              	.LBB43:
 182              		.loc 1 352 0
 183 0000 044B     		ldr	r3, .L9
 184 0002 4FF40072 		mov	r2, #512
 185 0006 1A60     		str	r2, [r3]
 186              	.LVL9:
 187              	.LBE43:
 188              	.LBE42:
 189              	.LBB44:
 190              	.LBB45:
 204:Generated_Source\PSoC5/interrupterIRQ.c **** 
 191              		.loc 1 204 0
 192 0008 03F68833 		addw	r3, r3, #2952
 193 000c 1B68     		ldr	r3, [r3]
 194              	.LVL10:
 206:Generated_Source\PSoC5/interrupterIRQ.c **** }
 195              		.loc 1 206 0
 196 000e 024A     		ldr	r2, .L9+4
 197 0010 5A66     		str	r2, [r3, #100]
 198              	.LVL11:
 199 0012 7047     		bx	lr
 200              	.L10:
 201              		.align	2
 202              	.L9:
 203 0014 80E100E0 		.word	-536813184
 204 0018 00000000 		.word	IntDefaultHandler
ARM GAS  C:\Users\chemi\AppData\Local\Temp\ccrRi8y8.s 			page 11


 205              	.LBE45:
 206              	.LBE44:
 207              		.cfi_endproc
 208              	.LFE2:
 209              		.size	interrupterIRQ_Stop, .-interrupterIRQ_Stop
 210              		.section	.text.interrupterIRQ_SetVector,"ax",%progbits
 211              		.align	1
 212              		.global	interrupterIRQ_SetVector
 213              		.thumb
 214              		.thumb_func
 215              		.type	interrupterIRQ_SetVector, %function
 216              	interrupterIRQ_SetVector:
 217              	.LFB4:
 201:Generated_Source\PSoC5/interrupterIRQ.c ****     cyisraddress * ramVectorTable;
 218              		.loc 1 201 0
 219              		.cfi_startproc
 220              		@ args = 0, pretend = 0, frame = 0
 221              		@ frame_needed = 0, uses_anonymous_args = 0
 222              		@ link register save eliminated.
 223              	.LVL12:
 204:Generated_Source\PSoC5/interrupterIRQ.c **** 
 224              		.loc 1 204 0
 225 0000 014B     		ldr	r3, .L12
 226 0002 1B68     		ldr	r3, [r3]
 227              	.LVL13:
 206:Generated_Source\PSoC5/interrupterIRQ.c **** }
 228              		.loc 1 206 0
 229 0004 5866     		str	r0, [r3, #100]
 230 0006 7047     		bx	lr
 231              	.L13:
 232              		.align	2
 233              	.L12:
 234 0008 08ED00E0 		.word	-536810232
 235              		.cfi_endproc
 236              	.LFE4:
 237              		.size	interrupterIRQ_SetVector, .-interrupterIRQ_SetVector
 238              		.section	.text.interrupterIRQ_GetVector,"ax",%progbits
 239              		.align	1
 240              		.global	interrupterIRQ_GetVector
 241              		.thumb
 242              		.thumb_func
 243              		.type	interrupterIRQ_GetVector, %function
 244              	interrupterIRQ_GetVector:
 245              	.LFB5:
 225:Generated_Source\PSoC5/interrupterIRQ.c ****     cyisraddress * ramVectorTable;
 246              		.loc 1 225 0
 247              		.cfi_startproc
 248              		@ args = 0, pretend = 0, frame = 0
 249              		@ frame_needed = 0, uses_anonymous_args = 0
 250              		@ link register save eliminated.
 251              	.LVL14:
 228:Generated_Source\PSoC5/interrupterIRQ.c **** 
 252              		.loc 1 228 0
 253 0000 014B     		ldr	r3, .L15
 254              	.LVL15:
 230:Generated_Source\PSoC5/interrupterIRQ.c **** }
 255              		.loc 1 230 0
ARM GAS  C:\Users\chemi\AppData\Local\Temp\ccrRi8y8.s 			page 12


 256 0002 1B68     		ldr	r3, [r3]
 257              	.LVL16:
 231:Generated_Source\PSoC5/interrupterIRQ.c **** 
 258              		.loc 1 231 0
 259 0004 586E     		ldr	r0, [r3, #100]
 260 0006 7047     		bx	lr
 261              	.L16:
 262              		.align	2
 263              	.L15:
 264 0008 08ED00E0 		.word	-536810232
 265              		.cfi_endproc
 266              	.LFE5:
 267              		.size	interrupterIRQ_GetVector, .-interrupterIRQ_GetVector
 268              		.section	.text.interrupterIRQ_SetPriority,"ax",%progbits
 269              		.align	1
 270              		.global	interrupterIRQ_SetPriority
 271              		.thumb
 272              		.thumb_func
 273              		.type	interrupterIRQ_SetPriority, %function
 274              	interrupterIRQ_SetPriority:
 275              	.LFB6:
 259:Generated_Source\PSoC5/interrupterIRQ.c ****     *interrupterIRQ_INTC_PRIOR = priority << 5;
 276              		.loc 1 259 0
 277              		.cfi_startproc
 278              		@ args = 0, pretend = 0, frame = 0
 279              		@ frame_needed = 0, uses_anonymous_args = 0
 280              		@ link register save eliminated.
 281              	.LVL17:
 260:Generated_Source\PSoC5/interrupterIRQ.c **** }
 282              		.loc 1 260 0
 283 0000 4001     		lsls	r0, r0, #5
 284              	.LVL18:
 285 0002 024B     		ldr	r3, .L18
 286 0004 C0B2     		uxtb	r0, r0
 287 0006 1870     		strb	r0, [r3]
 288 0008 7047     		bx	lr
 289              	.L19:
 290 000a 00BF     		.align	2
 291              	.L18:
 292 000c 09E400E0 		.word	-536812535
 293              		.cfi_endproc
 294              	.LFE6:
 295              		.size	interrupterIRQ_SetPriority, .-interrupterIRQ_SetPriority
 296              		.section	.text.interrupterIRQ_GetPriority,"ax",%progbits
 297              		.align	1
 298              		.global	interrupterIRQ_GetPriority
 299              		.thumb
 300              		.thumb_func
 301              		.type	interrupterIRQ_GetPriority, %function
 302              	interrupterIRQ_GetPriority:
 303              	.LFB7:
 281:Generated_Source\PSoC5/interrupterIRQ.c ****     uint8 priority;
 304              		.loc 1 281 0
 305              		.cfi_startproc
 306              		@ args = 0, pretend = 0, frame = 0
 307              		@ frame_needed = 0, uses_anonymous_args = 0
 308              		@ link register save eliminated.
ARM GAS  C:\Users\chemi\AppData\Local\Temp\ccrRi8y8.s 			page 13


 285:Generated_Source\PSoC5/interrupterIRQ.c **** 
 309              		.loc 1 285 0
 310 0000 014B     		ldr	r3, .L21
 311 0002 1878     		ldrb	r0, [r3]	@ zero_extendqisi2
 312              	.LVL19:
 288:Generated_Source\PSoC5/interrupterIRQ.c **** 
 313              		.loc 1 288 0
 314 0004 4009     		lsrs	r0, r0, #5
 315              	.LVL20:
 316 0006 7047     		bx	lr
 317              	.L22:
 318              		.align	2
 319              	.L21:
 320 0008 09E400E0 		.word	-536812535
 321              		.cfi_endproc
 322              	.LFE7:
 323              		.size	interrupterIRQ_GetPriority, .-interrupterIRQ_GetPriority
 324              		.section	.text.interrupterIRQ_Enable,"ax",%progbits
 325              		.align	1
 326              		.global	interrupterIRQ_Enable
 327              		.thumb
 328              		.thumb_func
 329              		.type	interrupterIRQ_Enable, %function
 330              	interrupterIRQ_Enable:
 331              	.LFB8:
 308:Generated_Source\PSoC5/interrupterIRQ.c ****     /* Enable the general interrupt. */
 332              		.loc 1 308 0
 333              		.cfi_startproc
 334              		@ args = 0, pretend = 0, frame = 0
 335              		@ frame_needed = 0, uses_anonymous_args = 0
 336              		@ link register save eliminated.
 310:Generated_Source\PSoC5/interrupterIRQ.c **** }
 337              		.loc 1 310 0
 338 0000 024B     		ldr	r3, .L24
 339 0002 4FF40072 		mov	r2, #512
 340 0006 1A60     		str	r2, [r3]
 341 0008 7047     		bx	lr
 342              	.L25:
 343 000a 00BF     		.align	2
 344              	.L24:
 345 000c 00E100E0 		.word	-536813312
 346              		.cfi_endproc
 347              	.LFE8:
 348              		.size	interrupterIRQ_Enable, .-interrupterIRQ_Enable
 349              		.section	.text.interrupterIRQ_GetState,"ax",%progbits
 350              		.align	1
 351              		.global	interrupterIRQ_GetState
 352              		.thumb
 353              		.thumb_func
 354              		.type	interrupterIRQ_GetState, %function
 355              	interrupterIRQ_GetState:
 356              	.LFB9:
 329:Generated_Source\PSoC5/interrupterIRQ.c ****     /* Get the state of the general interrupt. */
 357              		.loc 1 329 0
 358              		.cfi_startproc
 359              		@ args = 0, pretend = 0, frame = 0
 360              		@ frame_needed = 0, uses_anonymous_args = 0
ARM GAS  C:\Users\chemi\AppData\Local\Temp\ccrRi8y8.s 			page 14


 361              		@ link register save eliminated.
 331:Generated_Source\PSoC5/interrupterIRQ.c **** }
 362              		.loc 1 331 0
 363 0000 024B     		ldr	r3, .L27
 364 0002 1868     		ldr	r0, [r3]
 332:Generated_Source\PSoC5/interrupterIRQ.c **** 
 365              		.loc 1 332 0
 366 0004 C0F34020 		ubfx	r0, r0, #9, #1
 367 0008 7047     		bx	lr
 368              	.L28:
 369 000a 00BF     		.align	2
 370              	.L27:
 371 000c 00E100E0 		.word	-536813312
 372              		.cfi_endproc
 373              	.LFE9:
 374              		.size	interrupterIRQ_GetState, .-interrupterIRQ_GetState
 375              		.section	.text.interrupterIRQ_Disable,"ax",%progbits
 376              		.align	1
 377              		.global	interrupterIRQ_Disable
 378              		.thumb
 379              		.thumb_func
 380              		.type	interrupterIRQ_Disable, %function
 381              	interrupterIRQ_Disable:
 382              	.LFB10:
 350:Generated_Source\PSoC5/interrupterIRQ.c ****     /* Disable the general interrupt. */
 383              		.loc 1 350 0
 384              		.cfi_startproc
 385              		@ args = 0, pretend = 0, frame = 0
 386              		@ frame_needed = 0, uses_anonymous_args = 0
 387              		@ link register save eliminated.
 388              		.loc 1 352 0
 389 0000 024B     		ldr	r3, .L30
 390 0002 4FF40072 		mov	r2, #512
 391 0006 1A60     		str	r2, [r3]
 392 0008 7047     		bx	lr
 393              	.L31:
 394 000a 00BF     		.align	2
 395              	.L30:
 396 000c 80E100E0 		.word	-536813184
 397              		.cfi_endproc
 398              	.LFE10:
 399              		.size	interrupterIRQ_Disable, .-interrupterIRQ_Disable
 400              		.section	.text.interrupterIRQ_SetPending,"ax",%progbits
 401              		.align	1
 402              		.global	interrupterIRQ_SetPending
 403              		.thumb
 404              		.thumb_func
 405              		.type	interrupterIRQ_SetPending, %function
 406              	interrupterIRQ_SetPending:
 407              	.LFB11:
 353:Generated_Source\PSoC5/interrupterIRQ.c **** }
 354:Generated_Source\PSoC5/interrupterIRQ.c **** 
 355:Generated_Source\PSoC5/interrupterIRQ.c **** 
 356:Generated_Source\PSoC5/interrupterIRQ.c **** /*******************************************************************************
 357:Generated_Source\PSoC5/interrupterIRQ.c **** * Function Name: interrupterIRQ_SetPending
 358:Generated_Source\PSoC5/interrupterIRQ.c **** ********************************************************************************
 359:Generated_Source\PSoC5/interrupterIRQ.c **** *
ARM GAS  C:\Users\chemi\AppData\Local\Temp\ccrRi8y8.s 			page 15


 360:Generated_Source\PSoC5/interrupterIRQ.c **** * Summary:
 361:Generated_Source\PSoC5/interrupterIRQ.c **** *   Causes the Interrupt to enter the pending state, a software method of
 362:Generated_Source\PSoC5/interrupterIRQ.c **** *   generating the interrupt.
 363:Generated_Source\PSoC5/interrupterIRQ.c **** *
 364:Generated_Source\PSoC5/interrupterIRQ.c **** * Parameters:
 365:Generated_Source\PSoC5/interrupterIRQ.c **** *   None
 366:Generated_Source\PSoC5/interrupterIRQ.c **** *
 367:Generated_Source\PSoC5/interrupterIRQ.c **** * Return:
 368:Generated_Source\PSoC5/interrupterIRQ.c **** *   None
 369:Generated_Source\PSoC5/interrupterIRQ.c **** *
 370:Generated_Source\PSoC5/interrupterIRQ.c **** * Side Effects:
 371:Generated_Source\PSoC5/interrupterIRQ.c **** *   If interrupts are enabled and the interrupt is set up properly, the ISR is
 372:Generated_Source\PSoC5/interrupterIRQ.c **** *   entered (depending on the priority of this interrupt and other pending 
 373:Generated_Source\PSoC5/interrupterIRQ.c **** *   interrupts).
 374:Generated_Source\PSoC5/interrupterIRQ.c **** *
 375:Generated_Source\PSoC5/interrupterIRQ.c **** *******************************************************************************/
 376:Generated_Source\PSoC5/interrupterIRQ.c **** void interrupterIRQ_SetPending(void)
 377:Generated_Source\PSoC5/interrupterIRQ.c **** {
 408              		.loc 1 377 0
 409              		.cfi_startproc
 410              		@ args = 0, pretend = 0, frame = 0
 411              		@ frame_needed = 0, uses_anonymous_args = 0
 412              		@ link register save eliminated.
 378:Generated_Source\PSoC5/interrupterIRQ.c ****     *interrupterIRQ_INTC_SET_PD = interrupterIRQ__INTC_MASK;
 413              		.loc 1 378 0
 414 0000 024B     		ldr	r3, .L33
 415 0002 4FF40072 		mov	r2, #512
 416 0006 1A60     		str	r2, [r3]
 417 0008 7047     		bx	lr
 418              	.L34:
 419 000a 00BF     		.align	2
 420              	.L33:
 421 000c 00E200E0 		.word	-536813056
 422              		.cfi_endproc
 423              	.LFE11:
 424              		.size	interrupterIRQ_SetPending, .-interrupterIRQ_SetPending
 425              		.section	.text.interrupterIRQ_ClearPending,"ax",%progbits
 426              		.align	1
 427              		.global	interrupterIRQ_ClearPending
 428              		.thumb
 429              		.thumb_func
 430              		.type	interrupterIRQ_ClearPending, %function
 431              	interrupterIRQ_ClearPending:
 432              	.LFB12:
 379:Generated_Source\PSoC5/interrupterIRQ.c **** }
 380:Generated_Source\PSoC5/interrupterIRQ.c **** 
 381:Generated_Source\PSoC5/interrupterIRQ.c **** 
 382:Generated_Source\PSoC5/interrupterIRQ.c **** /*******************************************************************************
 383:Generated_Source\PSoC5/interrupterIRQ.c **** * Function Name: interrupterIRQ_ClearPending
 384:Generated_Source\PSoC5/interrupterIRQ.c **** ********************************************************************************
 385:Generated_Source\PSoC5/interrupterIRQ.c **** *
 386:Generated_Source\PSoC5/interrupterIRQ.c **** * Summary:
 387:Generated_Source\PSoC5/interrupterIRQ.c **** *   Clears a pending interrupt in the interrupt controller.
 388:Generated_Source\PSoC5/interrupterIRQ.c **** *
 389:Generated_Source\PSoC5/interrupterIRQ.c **** *   Note Some interrupt sources are clear-on-read and require the block 
 390:Generated_Source\PSoC5/interrupterIRQ.c **** *   interrupt/status register to be read/cleared with the appropriate block API 
 391:Generated_Source\PSoC5/interrupterIRQ.c **** *   (GPIO, UART, and so on). Otherwise the ISR will continue to remain in 
ARM GAS  C:\Users\chemi\AppData\Local\Temp\ccrRi8y8.s 			page 16


 392:Generated_Source\PSoC5/interrupterIRQ.c **** *   pending state even though the interrupt itself is cleared using this API.
 393:Generated_Source\PSoC5/interrupterIRQ.c **** *
 394:Generated_Source\PSoC5/interrupterIRQ.c **** * Parameters:
 395:Generated_Source\PSoC5/interrupterIRQ.c **** *   None
 396:Generated_Source\PSoC5/interrupterIRQ.c **** *
 397:Generated_Source\PSoC5/interrupterIRQ.c **** * Return:
 398:Generated_Source\PSoC5/interrupterIRQ.c **** *   None
 399:Generated_Source\PSoC5/interrupterIRQ.c **** *
 400:Generated_Source\PSoC5/interrupterIRQ.c **** *******************************************************************************/
 401:Generated_Source\PSoC5/interrupterIRQ.c **** void interrupterIRQ_ClearPending(void)
 402:Generated_Source\PSoC5/interrupterIRQ.c **** {
 433              		.loc 1 402 0
 434              		.cfi_startproc
 435              		@ args = 0, pretend = 0, frame = 0
 436              		@ frame_needed = 0, uses_anonymous_args = 0
 437              		@ link register save eliminated.
 403:Generated_Source\PSoC5/interrupterIRQ.c ****     *interrupterIRQ_INTC_CLR_PD = interrupterIRQ__INTC_MASK;
 438              		.loc 1 403 0
 439 0000 024B     		ldr	r3, .L36
 440 0002 4FF40072 		mov	r2, #512
 441 0006 1A60     		str	r2, [r3]
 442 0008 7047     		bx	lr
 443              	.L37:
 444 000a 00BF     		.align	2
 445              	.L36:
 446 000c 80E200E0 		.word	-536812928
 447              		.cfi_endproc
 448              	.LFE12:
 449              		.size	interrupterIRQ_ClearPending, .-interrupterIRQ_ClearPending
 450              		.text
 451              	.Letext0:
 452              		.file 2 "Generated_Source\\PSoC5/cytypes.h"