ARM GAS  C:\Users\chemi\AppData\Local\Temp\cc0JW5r7.s 			page 1


   1              		.syntax unified
   2              		.cpu cortex-m3
   3              		.fpu softvfp
   4              		.eabi_attribute 20, 1
   5              		.eabi_attribute 21, 1
   6              		.eabi_attribute 23, 3
   7              		.eabi_attribute 24, 1
   8              		.eabi_attribute 25, 1
   9              		.eabi_attribute 26, 1
  10              		.eabi_attribute 30, 4
  11              		.eabi_attribute 34, 1
  12              		.eabi_attribute 18, 4
  13              		.thumb
  14              		.syntax unified
  15              		.file	"list.c"
  16              		.text
  17              	.Ltext0:
  18              		.cfi_sections	.debug_frame
  19              		.section	.text.vListInitialise,"ax",%progbits
  20              		.align	1
  21              		.global	vListInitialise
  22              		.thumb
  23              		.thumb_func
  24              		.type	vListInitialise, %function
  25              	vListInitialise:
  26              	.LFB68:
  27              		.file 1 "..\\common\\rtos\\list.c"
   1:..\common\rtos/list.c **** /*
   2:..\common\rtos/list.c ****  * FreeRTOS Kernel V10.4.1
   3:..\common\rtos/list.c ****  * Copyright (C) 2020 Amazon.com, Inc. or its affiliates.  All Rights Reserved.
   4:..\common\rtos/list.c ****  *
   5:..\common\rtos/list.c ****  * Permission is hereby granted, free of charge, to any person obtaining a copy of
   6:..\common\rtos/list.c ****  * this software and associated documentation files (the "Software"), to deal in
   7:..\common\rtos/list.c ****  * the Software without restriction, including without limitation the rights to
   8:..\common\rtos/list.c ****  * use, copy, modify, merge, publish, distribute, sublicense, and/or sell copies of
   9:..\common\rtos/list.c ****  * the Software, and to permit persons to whom the Software is furnished to do so,
  10:..\common\rtos/list.c ****  * subject to the following conditions:
  11:..\common\rtos/list.c ****  *
  12:..\common\rtos/list.c ****  * The above copyright notice and this permission notice shall be included in all
  13:..\common\rtos/list.c ****  * copies or substantial portions of the Software.
  14:..\common\rtos/list.c ****  *
  15:..\common\rtos/list.c ****  * THE SOFTWARE IS PROVIDED "AS IS", WITHOUT WARRANTY OF ANY KIND, EXPRESS OR
  16:..\common\rtos/list.c ****  * IMPLIED, INCLUDING BUT NOT LIMITED TO THE WARRANTIES OF MERCHANTABILITY, FITNESS
  17:..\common\rtos/list.c ****  * FOR A PARTICULAR PURPOSE AND NONINFRINGEMENT. IN NO EVENT SHALL THE AUTHORS OR
  18:..\common\rtos/list.c ****  * COPYRIGHT HOLDERS BE LIABLE FOR ANY CLAIM, DAMAGES OR OTHER LIABILITY, WHETHER
  19:..\common\rtos/list.c ****  * IN AN ACTION OF CONTRACT, TORT OR OTHERWISE, ARISING FROM, OUT OF OR IN
  20:..\common\rtos/list.c ****  * CONNECTION WITH THE SOFTWARE OR THE USE OR OTHER DEALINGS IN THE SOFTWARE.
  21:..\common\rtos/list.c ****  *
  22:..\common\rtos/list.c ****  * https://www.FreeRTOS.org
  23:..\common\rtos/list.c ****  * https://github.com/FreeRTOS
  24:..\common\rtos/list.c ****  *
  25:..\common\rtos/list.c ****  */
  26:..\common\rtos/list.c **** 
  27:..\common\rtos/list.c **** 
  28:..\common\rtos/list.c **** #include <stdlib.h>
  29:..\common\rtos/list.c **** 
  30:..\common\rtos/list.c **** /* Defining MPU_WRAPPERS_INCLUDED_FROM_API_FILE prevents task.h from redefining
ARM GAS  C:\Users\chemi\AppData\Local\Temp\cc0JW5r7.s 			page 2


  31:..\common\rtos/list.c ****  * all the API functions to use the MPU wrappers.  That should only be done when
  32:..\common\rtos/list.c ****  * task.h is included from an application file. */
  33:..\common\rtos/list.c **** #define MPU_WRAPPERS_INCLUDED_FROM_API_FILE
  34:..\common\rtos/list.c **** 
  35:..\common\rtos/list.c **** #include "FreeRTOS.h"
  36:..\common\rtos/list.c **** #include "list.h"
  37:..\common\rtos/list.c **** 
  38:..\common\rtos/list.c **** /* Lint e9021, e961 and e750 are suppressed as a MISRA exception justified
  39:..\common\rtos/list.c ****  * because the MPU ports require MPU_WRAPPERS_INCLUDED_FROM_API_FILE to be
  40:..\common\rtos/list.c ****  * defined for the header files above, but not in this file, in order to
  41:..\common\rtos/list.c ****  * generate the correct privileged Vs unprivileged linkage and placement. */
  42:..\common\rtos/list.c **** #undef MPU_WRAPPERS_INCLUDED_FROM_API_FILE /*lint !e961 !e750 !e9021. */
  43:..\common\rtos/list.c **** 
  44:..\common\rtos/list.c **** /*-----------------------------------------------------------
  45:..\common\rtos/list.c **** * PUBLIC LIST API documented in list.h
  46:..\common\rtos/list.c **** *----------------------------------------------------------*/
  47:..\common\rtos/list.c **** 
  48:..\common\rtos/list.c **** void vListInitialise( List_t * const pxList )
  49:..\common\rtos/list.c **** {
  28              		.loc 1 49 0
  29              		.cfi_startproc
  30              		@ args = 0, pretend = 0, frame = 0
  31              		@ frame_needed = 0, uses_anonymous_args = 0
  32              		@ link register save eliminated.
  33              	.LVL0:
  50:..\common\rtos/list.c ****     /* The list structure contains a list item which is used to mark the
  51:..\common\rtos/list.c ****      * end of the list.  To initialise the list the list end is inserted
  52:..\common\rtos/list.c ****      * as the only list entry. */
  53:..\common\rtos/list.c ****     pxList->pxIndex = ( ListItem_t * ) &( pxList->xListEnd ); /*lint !e826 !e740 !e9087 The mini li
  34              		.loc 1 53 0
  35 0000 00F10803 		add	r3, r0, #8
  36 0004 4360     		str	r3, [r0, #4]
  54:..\common\rtos/list.c **** 
  55:..\common\rtos/list.c ****     /* The list end value is the highest possible value in the list to
  56:..\common\rtos/list.c ****      * ensure it remains at the end of the list. */
  57:..\common\rtos/list.c ****     pxList->xListEnd.xItemValue = portMAX_DELAY;
  37              		.loc 1 57 0
  38 0006 4FF0FF32 		mov	r2, #-1
  58:..\common\rtos/list.c **** 
  59:..\common\rtos/list.c ****     /* The list end next and previous pointers point to itself so we know
  60:..\common\rtos/list.c ****      * when the list is empty. */
  61:..\common\rtos/list.c ****     pxList->xListEnd.pxNext = ( ListItem_t * ) &( pxList->xListEnd );     /*lint !e826 !e740 !e9087
  39              		.loc 1 61 0
  40 000a C360     		str	r3, [r0, #12]
  62:..\common\rtos/list.c ****     pxList->xListEnd.pxPrevious = ( ListItem_t * ) &( pxList->xListEnd ); /*lint !e826 !e740 !e9087
  41              		.loc 1 62 0
  42 000c 0361     		str	r3, [r0, #16]
  63:..\common\rtos/list.c **** 
  64:..\common\rtos/list.c ****     pxList->uxNumberOfItems = ( UBaseType_t ) 0U;
  43              		.loc 1 64 0
  44 000e 0023     		movs	r3, #0
  57:..\common\rtos/list.c **** 
  45              		.loc 1 57 0
  46 0010 8260     		str	r2, [r0, #8]
  47              		.loc 1 64 0
  48 0012 0360     		str	r3, [r0]
  49 0014 7047     		bx	lr
ARM GAS  C:\Users\chemi\AppData\Local\Temp\cc0JW5r7.s 			page 3


  50              		.cfi_endproc
  51              	.LFE68:
  52              		.size	vListInitialise, .-vListInitialise
  53              		.section	.text.vListInitialiseItem,"ax",%progbits
  54              		.align	1
  55              		.global	vListInitialiseItem
  56              		.thumb
  57              		.thumb_func
  58              		.type	vListInitialiseItem, %function
  59              	vListInitialiseItem:
  60              	.LFB69:
  65:..\common\rtos/list.c **** 
  66:..\common\rtos/list.c ****     /* Write known values into the list if
  67:..\common\rtos/list.c ****      * configUSE_LIST_DATA_INTEGRITY_CHECK_BYTES is set to 1. */
  68:..\common\rtos/list.c ****     listSET_LIST_INTEGRITY_CHECK_1_VALUE( pxList );
  69:..\common\rtos/list.c ****     listSET_LIST_INTEGRITY_CHECK_2_VALUE( pxList );
  70:..\common\rtos/list.c **** }
  71:..\common\rtos/list.c **** /*-----------------------------------------------------------*/
  72:..\common\rtos/list.c **** 
  73:..\common\rtos/list.c **** void vListInitialiseItem( ListItem_t * const pxItem )
  74:..\common\rtos/list.c **** {
  61              		.loc 1 74 0
  62              		.cfi_startproc
  63              		@ args = 0, pretend = 0, frame = 0
  64              		@ frame_needed = 0, uses_anonymous_args = 0
  65              		@ link register save eliminated.
  66              	.LVL1:
  75:..\common\rtos/list.c ****     /* Make sure the list item is not recorded as being on a list. */
  76:..\common\rtos/list.c ****     pxItem->pxContainer = NULL;
  67              		.loc 1 76 0
  68 0000 0023     		movs	r3, #0
  69 0002 0361     		str	r3, [r0, #16]
  70 0004 7047     		bx	lr
  71              		.cfi_endproc
  72              	.LFE69:
  73              		.size	vListInitialiseItem, .-vListInitialiseItem
  74              		.section	.text.vListInsertEnd,"ax",%progbits
  75              		.align	1
  76              		.global	vListInsertEnd
  77              		.thumb
  78              		.thumb_func
  79              		.type	vListInsertEnd, %function
  80              	vListInsertEnd:
  81              	.LFB70:
  77:..\common\rtos/list.c **** 
  78:..\common\rtos/list.c ****     /* Write known values into the list item if
  79:..\common\rtos/list.c ****      * configUSE_LIST_DATA_INTEGRITY_CHECK_BYTES is set to 1. */
  80:..\common\rtos/list.c ****     listSET_FIRST_LIST_ITEM_INTEGRITY_CHECK_VALUE( pxItem );
  81:..\common\rtos/list.c ****     listSET_SECOND_LIST_ITEM_INTEGRITY_CHECK_VALUE( pxItem );
  82:..\common\rtos/list.c **** }
  83:..\common\rtos/list.c **** /*-----------------------------------------------------------*/
  84:..\common\rtos/list.c **** 
  85:..\common\rtos/list.c **** void vListInsertEnd( List_t * const pxList,
  86:..\common\rtos/list.c ****                      ListItem_t * const pxNewListItem )
  87:..\common\rtos/list.c **** {
  82              		.loc 1 87 0
  83              		.cfi_startproc
ARM GAS  C:\Users\chemi\AppData\Local\Temp\cc0JW5r7.s 			page 4


  84              		@ args = 0, pretend = 0, frame = 0
  85              		@ frame_needed = 0, uses_anonymous_args = 0
  86              		@ link register save eliminated.
  87              	.LVL2:
  88:..\common\rtos/list.c ****     ListItem_t * const pxIndex = pxList->pxIndex;
  88              		.loc 1 88 0
  89 0000 4368     		ldr	r3, [r0, #4]
  90              	.LVL3:
  89:..\common\rtos/list.c **** 
  90:..\common\rtos/list.c ****     /* Only effective when configASSERT() is also defined, these tests may catch
  91:..\common\rtos/list.c ****      * the list data structures being overwritten in memory.  They will not catch
  92:..\common\rtos/list.c ****      * data errors caused by incorrect configuration or use of FreeRTOS. */
  93:..\common\rtos/list.c ****     listTEST_LIST_INTEGRITY( pxList );
  94:..\common\rtos/list.c ****     listTEST_LIST_ITEM_INTEGRITY( pxNewListItem );
  95:..\common\rtos/list.c **** 
  96:..\common\rtos/list.c ****     /* Insert a new list item into pxList, but rather than sort the list,
  97:..\common\rtos/list.c ****      * makes the new list item the last item to be removed by a call to
  98:..\common\rtos/list.c ****      * listGET_OWNER_OF_NEXT_ENTRY(). */
  99:..\common\rtos/list.c ****     pxNewListItem->pxNext = pxIndex;
 100:..\common\rtos/list.c ****     pxNewListItem->pxPrevious = pxIndex->pxPrevious;
  91              		.loc 1 100 0
  92 0002 9A68     		ldr	r2, [r3, #8]
  99:..\common\rtos/list.c ****     pxNewListItem->pxPrevious = pxIndex->pxPrevious;
  93              		.loc 1 99 0
  94 0004 4B60     		str	r3, [r1, #4]
  95              		.loc 1 100 0
  96 0006 8A60     		str	r2, [r1, #8]
 101:..\common\rtos/list.c **** 
 102:..\common\rtos/list.c ****     /* Only used during decision coverage testing. */
 103:..\common\rtos/list.c ****     mtCOVERAGE_TEST_DELAY();
 104:..\common\rtos/list.c **** 
 105:..\common\rtos/list.c ****     pxIndex->pxPrevious->pxNext = pxNewListItem;
  97              		.loc 1 105 0
  98 0008 9A68     		ldr	r2, [r3, #8]
  99 000a 5160     		str	r1, [r2, #4]
 106:..\common\rtos/list.c ****     pxIndex->pxPrevious = pxNewListItem;
 100              		.loc 1 106 0
 101 000c 9960     		str	r1, [r3, #8]
 107:..\common\rtos/list.c **** 
 108:..\common\rtos/list.c ****     /* Remember which list the item is in. */
 109:..\common\rtos/list.c ****     pxNewListItem->pxContainer = pxList;
 110:..\common\rtos/list.c **** 
 111:..\common\rtos/list.c ****     ( pxList->uxNumberOfItems )++;
 102              		.loc 1 111 0
 103 000e 0368     		ldr	r3, [r0]
 104              	.LVL4:
 109:..\common\rtos/list.c **** 
 105              		.loc 1 109 0
 106 0010 0861     		str	r0, [r1, #16]
 107              		.loc 1 111 0
 108 0012 0133     		adds	r3, r3, #1
 109 0014 0360     		str	r3, [r0]
 110 0016 7047     		bx	lr
 111              		.cfi_endproc
 112              	.LFE70:
 113              		.size	vListInsertEnd, .-vListInsertEnd
 114              		.section	.text.vListInsert,"ax",%progbits
ARM GAS  C:\Users\chemi\AppData\Local\Temp\cc0JW5r7.s 			page 5


 115              		.align	1
 116              		.global	vListInsert
 117              		.thumb
 118              		.thumb_func
 119              		.type	vListInsert, %function
 120              	vListInsert:
 121              	.LFB71:
 112:..\common\rtos/list.c **** }
 113:..\common\rtos/list.c **** /*-----------------------------------------------------------*/
 114:..\common\rtos/list.c **** 
 115:..\common\rtos/list.c **** void vListInsert( List_t * const pxList,
 116:..\common\rtos/list.c ****                   ListItem_t * const pxNewListItem )
 117:..\common\rtos/list.c **** {
 122              		.loc 1 117 0
 123              		.cfi_startproc
 124              		@ args = 0, pretend = 0, frame = 0
 125              		@ frame_needed = 0, uses_anonymous_args = 0
 126              	.LVL5:
 118:..\common\rtos/list.c ****     ListItem_t * pxIterator;
 119:..\common\rtos/list.c ****     const TickType_t xValueOfInsertion = pxNewListItem->xItemValue;
 127              		.loc 1 119 0
 128 0000 0A68     		ldr	r2, [r1]
 129              	.LVL6:
 117:..\common\rtos/list.c ****     ListItem_t * pxIterator;
 130              		.loc 1 117 0
 131 0002 30B5     		push	{r4, r5, lr}
 132              		.cfi_def_cfa_offset 12
 133              		.cfi_offset 4, -12
 134              		.cfi_offset 5, -8
 135              		.cfi_offset 14, -4
 120:..\common\rtos/list.c **** 
 121:..\common\rtos/list.c ****     /* Only effective when configASSERT() is also defined, these tests may catch
 122:..\common\rtos/list.c ****      * the list data structures being overwritten in memory.  They will not catch
 123:..\common\rtos/list.c ****      * data errors caused by incorrect configuration or use of FreeRTOS. */
 124:..\common\rtos/list.c ****     listTEST_LIST_INTEGRITY( pxList );
 125:..\common\rtos/list.c ****     listTEST_LIST_ITEM_INTEGRITY( pxNewListItem );
 126:..\common\rtos/list.c **** 
 127:..\common\rtos/list.c ****     /* Insert the new list item into the list, sorted in xItemValue order.
 128:..\common\rtos/list.c ****      *
 129:..\common\rtos/list.c ****      * If the list already contains a list item with the same item value then the
 130:..\common\rtos/list.c ****      * new list item should be placed after it.  This ensures that TCBs which are
 131:..\common\rtos/list.c ****      * stored in ready lists (all of which have the same xItemValue value) get a
 132:..\common\rtos/list.c ****      * share of the CPU.  However, if the xItemValue is the same as the back marker
 133:..\common\rtos/list.c ****      * the iteration loop below will not end.  Therefore the value is checked
 134:..\common\rtos/list.c ****      * first, and the algorithm slightly modified if necessary. */
 135:..\common\rtos/list.c ****     if( xValueOfInsertion == portMAX_DELAY )
 136              		.loc 1 135 0
 137 0004 531C     		adds	r3, r2, #1
 138 0006 01D1     		bne	.L5
 136:..\common\rtos/list.c ****     {
 137:..\common\rtos/list.c ****         pxIterator = pxList->xListEnd.pxPrevious;
 139              		.loc 1 137 0
 140 0008 0369     		ldr	r3, [r0, #16]
 141              	.LVL7:
 142 000a 07E0     		b	.L6
 143              	.LVL8:
 144              	.L5:
ARM GAS  C:\Users\chemi\AppData\Local\Temp\cc0JW5r7.s 			page 6


 138:..\common\rtos/list.c ****     }
 139:..\common\rtos/list.c ****     else
 140:..\common\rtos/list.c ****     {
 141:..\common\rtos/list.c ****         /* *** NOTE ***********************************************************
 142:..\common\rtos/list.c ****         *  If you find your application is crashing here then likely causes are
 143:..\common\rtos/list.c ****         *  listed below.  In addition see https://www.FreeRTOS.org/FAQHelp.html for
 144:..\common\rtos/list.c ****         *  more tips, and ensure configASSERT() is defined!
 145:..\common\rtos/list.c ****         *  https://www.FreeRTOS.org/a00110.html#configASSERT
 146:..\common\rtos/list.c ****         *
 147:..\common\rtos/list.c ****         *   1) Stack overflow -
 148:..\common\rtos/list.c ****         *      see https://www.FreeRTOS.org/Stacks-and-stack-overflow-checking.html
 149:..\common\rtos/list.c ****         *   2) Incorrect interrupt priority assignment, especially on Cortex-M
 150:..\common\rtos/list.c ****         *      parts where numerically high priority values denote low actual
 151:..\common\rtos/list.c ****         *      interrupt priorities, which can seem counter intuitive.  See
 152:..\common\rtos/list.c ****         *      https://www.FreeRTOS.org/RTOS-Cortex-M3-M4.html and the definition
 153:..\common\rtos/list.c ****         *      of configMAX_SYSCALL_INTERRUPT_PRIORITY on
 154:..\common\rtos/list.c ****         *      https://www.FreeRTOS.org/a00110.html
 155:..\common\rtos/list.c ****         *   3) Calling an API function from within a critical section or when
 156:..\common\rtos/list.c ****         *      the scheduler is suspended, or calling an API function that does
 157:..\common\rtos/list.c ****         *      not end in "FromISR" from an interrupt.
 158:..\common\rtos/list.c ****         *   4) Using a queue or semaphore before it has been initialised or
 159:..\common\rtos/list.c ****         *      before the scheduler has been started (are interrupts firing
 160:..\common\rtos/list.c ****         *      before vTaskStartScheduler() has been called?).
 161:..\common\rtos/list.c ****         **********************************************************************/
 162:..\common\rtos/list.c **** 
 163:..\common\rtos/list.c ****         for( pxIterator = ( ListItem_t * ) &( pxList->xListEnd ); pxIterator->pxNext->xItemValue <=
 145              		.loc 1 163 0
 146 000c 00F10803 		add	r3, r0, #8
 147              	.LVL9:
 148              	.L7:
 149              		.loc 1 163 0 is_stmt 0 discriminator 1
 150 0010 5C68     		ldr	r4, [r3, #4]
 151 0012 2568     		ldr	r5, [r4]
 152 0014 AA42     		cmp	r2, r5
 153 0016 01D3     		bcc	.L6
 154 0018 2346     		mov	r3, r4
 155              	.LVL10:
 156 001a F9E7     		b	.L7
 157              	.LVL11:
 158              	.L6:
 164:..\common\rtos/list.c ****         {
 165:..\common\rtos/list.c ****             /* There is nothing to do here, just iterating to the wanted
 166:..\common\rtos/list.c ****              * insertion position. */
 167:..\common\rtos/list.c ****         }
 168:..\common\rtos/list.c ****     }
 169:..\common\rtos/list.c **** 
 170:..\common\rtos/list.c ****     pxNewListItem->pxNext = pxIterator->pxNext;
 159              		.loc 1 170 0 is_stmt 1
 160 001c 5A68     		ldr	r2, [r3, #4]
 161              	.LVL12:
 162 001e 4A60     		str	r2, [r1, #4]
 171:..\common\rtos/list.c ****     pxNewListItem->pxNext->pxPrevious = pxNewListItem;
 163              		.loc 1 171 0
 164 0020 9160     		str	r1, [r2, #8]
 172:..\common\rtos/list.c ****     pxNewListItem->pxPrevious = pxIterator;
 165              		.loc 1 172 0
 166 0022 8B60     		str	r3, [r1, #8]
ARM GAS  C:\Users\chemi\AppData\Local\Temp\cc0JW5r7.s 			page 7


 173:..\common\rtos/list.c ****     pxIterator->pxNext = pxNewListItem;
 167              		.loc 1 173 0
 168 0024 5960     		str	r1, [r3, #4]
 174:..\common\rtos/list.c **** 
 175:..\common\rtos/list.c ****     /* Remember which list the item is in.  This allows fast removal of the
 176:..\common\rtos/list.c ****      * item later. */
 177:..\common\rtos/list.c ****     pxNewListItem->pxContainer = pxList;
 178:..\common\rtos/list.c **** 
 179:..\common\rtos/list.c ****     ( pxList->uxNumberOfItems )++;
 169              		.loc 1 179 0
 170 0026 0368     		ldr	r3, [r0]
 171              	.LVL13:
 177:..\common\rtos/list.c **** 
 172              		.loc 1 177 0
 173 0028 0861     		str	r0, [r1, #16]
 174              		.loc 1 179 0
 175 002a 0133     		adds	r3, r3, #1
 176 002c 0360     		str	r3, [r0]
 177 002e 30BD     		pop	{r4, r5, pc}
 178              		.cfi_endproc
 179              	.LFE71:
 180              		.size	vListInsert, .-vListInsert
 181              		.section	.text.uxListRemove,"ax",%progbits
 182              		.align	1
 183              		.global	uxListRemove
 184              		.thumb
 185              		.thumb_func
 186              		.type	uxListRemove, %function
 187              	uxListRemove:
 188              	.LFB72:
 180:..\common\rtos/list.c **** }
 181:..\common\rtos/list.c **** /*-----------------------------------------------------------*/
 182:..\common\rtos/list.c **** 
 183:..\common\rtos/list.c **** UBaseType_t uxListRemove( ListItem_t * const pxItemToRemove )
 184:..\common\rtos/list.c **** {
 189              		.loc 1 184 0
 190              		.cfi_startproc
 191              		@ args = 0, pretend = 0, frame = 0
 192              		@ frame_needed = 0, uses_anonymous_args = 0
 193              		@ link register save eliminated.
 194              	.LVL14:
 185:..\common\rtos/list.c **** /* The list item knows which list it is in.  Obtain the list from the list
 186:..\common\rtos/list.c ****  * item. */
 187:..\common\rtos/list.c ****     List_t * const pxList = pxItemToRemove->pxContainer;
 188:..\common\rtos/list.c **** 
 189:..\common\rtos/list.c ****     pxItemToRemove->pxNext->pxPrevious = pxItemToRemove->pxPrevious;
 195              		.loc 1 189 0
 196 0000 4168     		ldr	r1, [r0, #4]
 197 0002 8268     		ldr	r2, [r0, #8]
 187:..\common\rtos/list.c **** 
 198              		.loc 1 187 0
 199 0004 0369     		ldr	r3, [r0, #16]
 200              	.LVL15:
 201              		.loc 1 189 0
 202 0006 8A60     		str	r2, [r1, #8]
 190:..\common\rtos/list.c ****     pxItemToRemove->pxPrevious->pxNext = pxItemToRemove->pxNext;
 203              		.loc 1 190 0
ARM GAS  C:\Users\chemi\AppData\Local\Temp\cc0JW5r7.s 			page 8


 204 0008 8268     		ldr	r2, [r0, #8]
 205 000a 5160     		str	r1, [r2, #4]
 191:..\common\rtos/list.c **** 
 192:..\common\rtos/list.c ****     /* Only used during decision coverage testing. */
 193:..\common\rtos/list.c ****     mtCOVERAGE_TEST_DELAY();
 194:..\common\rtos/list.c **** 
 195:..\common\rtos/list.c ****     /* Make sure the index is left pointing to a valid item. */
 196:..\common\rtos/list.c ****     if( pxList->pxIndex == pxItemToRemove )
 206              		.loc 1 196 0
 207 000c 5968     		ldr	r1, [r3, #4]
 208 000e 8842     		cmp	r0, r1
 197:..\common\rtos/list.c ****     {
 198:..\common\rtos/list.c ****         pxList->pxIndex = pxItemToRemove->pxPrevious;
 209              		.loc 1 198 0
 210 0010 08BF     		it	eq
 211 0012 5A60     		streq	r2, [r3, #4]
 199:..\common\rtos/list.c ****     }
 200:..\common\rtos/list.c ****     else
 201:..\common\rtos/list.c ****     {
 202:..\common\rtos/list.c ****         mtCOVERAGE_TEST_MARKER();
 203:..\common\rtos/list.c ****     }
 204:..\common\rtos/list.c **** 
 205:..\common\rtos/list.c ****     pxItemToRemove->pxContainer = NULL;
 212              		.loc 1 205 0
 213 0014 0022     		movs	r2, #0
 214 0016 0261     		str	r2, [r0, #16]
 206:..\common\rtos/list.c ****     ( pxList->uxNumberOfItems )--;
 215              		.loc 1 206 0
 216 0018 1A68     		ldr	r2, [r3]
 217 001a 013A     		subs	r2, r2, #1
 218 001c 1A60     		str	r2, [r3]
 207:..\common\rtos/list.c **** 
 208:..\common\rtos/list.c ****     return pxList->uxNumberOfItems;
 219              		.loc 1 208 0
 220 001e 1868     		ldr	r0, [r3]
 221              	.LVL16:
 209:..\common\rtos/list.c **** }
 222              		.loc 1 209 0
 223 0020 7047     		bx	lr
 224              		.cfi_endproc
 225              	.LFE72:
 226              		.size	uxListRemove, .-uxListRemove
 227              		.text
 228              	.Letext0:
 229              		.file 2 "c:\\program files (x86)\\cypress\\psoc creator\\4.4\\psoc creator\\import\\gnu\\arm\\5.4.
 230              		.file 3 "c:\\program files (x86)\\cypress\\psoc creator\\4.4\\psoc creator\\import\\gnu\\arm\\5.4.
 231              		.file 4 "..\\common\\rtos\\portable\\GCC\\ARM_CM3/portmacro.h"
 232              		.file 5 "..\\common\\rtos\\include/list.h"
 233              		.file 6 "Generated_Source\\PSoC5/core_cm3.h"