ARM GAS  C:\Users\chemi\AppData\Local\Temp\cc4ivwWc.s 			page 1


   1              		.syntax unified
   2              		.cpu cortex-m3
   3              		.fpu softvfp
   4              		.eabi_attribute 20, 1
   5              		.eabi_attribute 21, 1
   6              		.eabi_attribute 23, 3
   7              		.eabi_attribute 24, 1
   8              		.eabi_attribute 25, 1
   9              		.eabi_attribute 26, 1
  10              		.eabi_attribute 30, 4
  11              		.eabi_attribute 34, 1
  12              		.eabi_attribute 18, 4
  13              		.thumb
  14              		.syntax unified
  15              		.file	"MidiFilter.c"
  16              		.text
  17              	.Ltext0:
  18              		.cfi_sections	.debug_frame
  19              		.section	.text.MidiFilter_create,"ax",%progbits
  20              		.align	1
  21              		.global	MidiFilter_create
  22              		.thumb
  23              		.thumb_func
  24              		.type	MidiFilter_create, %function
  25              	MidiFilter_create:
  26              	.LFB68:
  27              		.file 1 "..\\common\\vms\\MidiFilter.c"
   1:..\common\vms/MidiFilter.c **** /*
   2:..\common\vms/MidiFilter.c ****  * File:   MidiFilter.c
   3:..\common\vms/MidiFilter.c ****  * Author: Thorb
   4:..\common\vms/MidiFilter.c ****  *
   5:..\common\vms/MidiFilter.c ****  * Created on 12 September 2023, 23:15
   6:..\common\vms/MidiFilter.c ****  */
   7:..\common\vms/MidiFilter.c **** 
   8:..\common\vms/MidiFilter.c **** #include "NoteMapper.h"
   9:..\common\vms/MidiFilter.c **** #include "MidiFilter.h"
  10:..\common\vms/MidiFilter.c **** #include "TTerm.h"
  11:..\common\vms/MidiFilter.c **** #include "tasks/tsk_cli.h"
  12:..\common\vms/MidiFilter.c **** 
  13:..\common\vms/MidiFilter.c **** /* 
  14:..\common\vms/MidiFilter.c ****  * filter options:
  15:..\common\vms/MidiFilter.c ****  * 
  16:..\common\vms/MidiFilter.c ****  * - per channel mute
  17:..\common\vms/MidiFilter.c ****  * - delay
  18:..\common\vms/MidiFilter.c ****  * 
  19:..\common\vms/MidiFilter.c ****  */
  20:..\common\vms/MidiFilter.c **** 
  21:..\common\vms/MidiFilter.c **** MidiFilterHandle_t * MidiFilter_create(uint32_t output) {
  28              		.loc 1 21 0
  29              		.cfi_startproc
  30              		@ args = 0, pretend = 0, frame = 0
  31              		@ frame_needed = 0, uses_anonymous_args = 0
  32              	.LVL0:
  33 0000 10B5     		push	{r4, lr}
  34              		.cfi_def_cfa_offset 8
  35              		.cfi_offset 4, -8
  36              		.cfi_offset 14, -4
ARM GAS  C:\Users\chemi\AppData\Local\Temp\cc4ivwWc.s 			page 2


  37              		.loc 1 21 0
  38 0002 0446     		mov	r4, r0
  22:..\common\vms/MidiFilter.c ****     MidiFilterHandle_t * ret = pvPortMalloc(sizeof(MidiFilterHandle_t));
  39              		.loc 1 22 0
  40 0004 0420     		movs	r0, #4
  41              	.LVL1:
  42 0006 FFF7FEFF 		bl	pvPortMalloc
  43              	.LVL2:
  23:..\common\vms/MidiFilter.c ****     
  24:..\common\vms/MidiFilter.c ****     ret->targetOutput = output;
  44              		.loc 1 24 0
  45 000a 0460     		str	r4, [r0]
  25:..\common\vms/MidiFilter.c ****     
  26:..\common\vms/MidiFilter.c ****     return ret;
  27:..\common\vms/MidiFilter.c **** }
  46              		.loc 1 27 0
  47 000c 10BD     		pop	{r4, pc}
  48              		.cfi_endproc
  49              	.LFE68:
  50              		.size	MidiFilter_create, .-MidiFilter_create
  51              		.section	.text.MidiFilter_eventHandler,"ax",%progbits
  52              		.align	1
  53              		.global	MidiFilter_eventHandler
  54              		.thumb
  55              		.thumb_func
  56              		.type	MidiFilter_eventHandler, %function
  57              	MidiFilter_eventHandler:
  58              	.LFB69:
  28:..\common\vms/MidiFilter.c **** 
  29:..\common\vms/MidiFilter.c **** void MidiFilter_eventHandler(MidiFilterHandle_t * handle, MidiEventType_t evt, uint32_t channel, ui
  59              		.loc 1 29 0
  60              		.cfi_startproc
  61              		@ args = 8, pretend = 0, frame = 0
  62              		@ frame_needed = 0, uses_anonymous_args = 0
  63              		@ link register save eliminated.
  64              	.LVL3:
  65 0000 70B4     		push	{r4, r5, r6}
  66              		.cfi_def_cfa_offset 12
  67              		.cfi_offset 4, -12
  68              		.cfi_offset 5, -8
  69              		.cfi_offset 6, -4
  70              		.loc 1 29 0
  71 0002 0C46     		mov	r4, r1
  30:..\common\vms/MidiFilter.c ****     switch(evt) {
  72              		.loc 1 30 0
  73 0004 012C     		cmp	r4, #1
  29:..\common\vms/MidiFilter.c ****     switch(evt) {
  74              		.loc 1 29 0
  75 0006 1946     		mov	r1, r3
  76              	.LVL4:
  77 0008 039D     		ldr	r5, [sp, #12]
  78 000a 049B     		ldr	r3, [sp, #16]
  79              	.LVL5:
  80              		.loc 1 30 0
  81 000c 05D0     		beq	.L4
  82 000e 022C     		cmp	r4, #2
  83 0010 0AD1     		bne	.L8
ARM GAS  C:\Users\chemi\AppData\Local\Temp\cc4ivwWc.s 			page 3


  31:..\common\vms/MidiFilter.c ****         case MIDI_EVT_NOTEON:
  32:..\common\vms/MidiFilter.c ****             Mapper_noteOnEventHandler(handle->targetOutput, param1, param2, channel, auxParam);
  33:..\common\vms/MidiFilter.c ****             break;
  34:..\common\vms/MidiFilter.c ****             
  35:..\common\vms/MidiFilter.c ****         case MIDI_EVT_NOTEOFF:
  36:..\common\vms/MidiFilter.c ****             Mapper_noteOffEventHandler(handle->targetOutput, param1, channel);
  37:..\common\vms/MidiFilter.c ****             break;
  38:..\common\vms/MidiFilter.c ****         case MIDI_EVT_NULL:
  39:..\common\vms/MidiFilter.c ****             break;
  40:..\common\vms/MidiFilter.c ****     }
  41:..\common\vms/MidiFilter.c **** 
  42:..\common\vms/MidiFilter.c **** }
  84              		.loc 1 42 0
  85 0012 70BC     		pop	{r4, r5, r6}
  86              		.cfi_remember_state
  87              		.cfi_restore 6
  88              		.cfi_restore 5
  89              		.cfi_restore 4
  90              		.cfi_def_cfa_offset 0
  91              	.LVL6:
  36:..\common\vms/MidiFilter.c ****             break;
  92              		.loc 1 36 0
  93 0014 0068     		ldr	r0, [r0]
  94              	.LVL7:
  95 0016 FFF7FEBF 		b	Mapper_noteOffEventHandler
  96              	.LVL8:
  97              	.L4:
  98              		.cfi_restore_state
  32:..\common\vms/MidiFilter.c ****             break;
  99              		.loc 1 32 0
 100 001a 0393     		str	r3, [sp, #12]
 101              	.LVL9:
 102 001c 0068     		ldr	r0, [r0]
 103              	.LVL10:
 104 001e 1346     		mov	r3, r2
 105 0020 2A46     		mov	r2, r5
 106              	.LVL11:
 107              		.loc 1 42 0
 108 0022 70BC     		pop	{r4, r5, r6}
 109              		.cfi_remember_state
 110              		.cfi_restore 6
 111              		.cfi_restore 5
 112              		.cfi_restore 4
 113              		.cfi_def_cfa_offset 0
 114              	.LVL12:
  32:..\common\vms/MidiFilter.c ****             break;
 115              		.loc 1 32 0
 116 0024 FFF7FEBF 		b	Mapper_noteOnEventHandler
 117              	.LVL13:
 118              	.L8:
 119              		.cfi_restore_state
 120              		.loc 1 42 0
 121 0028 70BC     		pop	{r4, r5, r6}
 122              		.cfi_restore 6
 123              		.cfi_restore 5
 124              		.cfi_restore 4
 125              		.cfi_def_cfa_offset 0
ARM GAS  C:\Users\chemi\AppData\Local\Temp\cc4ivwWc.s 			page 4


 126              	.LVL14:
 127 002a 7047     		bx	lr
 128              		.cfi_endproc
 129              	.LFE69:
 130              		.size	MidiFilter_eventHandler, .-MidiFilter_eventHandler
 131              		.text
 132              	.Letext0:
 133              		.file 2 "c:\\program files (x86)\\cypress\\psoc creator\\4.4\\psoc creator\\import\\gnu\\arm\\5.4.
 134              		.file 3 "c:\\program files (x86)\\cypress\\psoc creator\\4.4\\psoc creator\\import\\gnu\\arm\\5.4.
 135              		.file 4 "..\\common\\vms\\MidiFilter.h"
 136              		.file 5 "..\\common\\rtos\\include/portable.h"
 137              		.file 6 "..\\common\\vms\\NoteMapper.h"
 138              		.file 7 "Generated_Source\\PSoC5/core_cm3.h"