ARM GAS  C:\Users\chemi\AppData\Local\Temp\ccW46XLm.s 			page 1


   1              		.syntax unified
   2              		.cpu cortex-m3
   3              		.fpu softvfp
   4              		.eabi_attribute 20, 1
   5              		.eabi_attribute 21, 1
   6              		.eabi_attribute 23, 3
   7              		.eabi_attribute 24, 1
   8              		.eabi_attribute 25, 1
   9              		.eabi_attribute 26, 1
  10              		.eabi_attribute 30, 4
  11              		.eabi_attribute 34, 1
  12              		.eabi_attribute 18, 4
  13              		.thumb
  14              		.syntax unified
  15              		.file	"MidiProcessor.c"
  16              		.text
  17              	.Ltext0:
  18              		.cfi_sections	.debug_frame
  19              		.section	.text.resetChannelData,"ax",%progbits
  20              		.align	1
  21              		.thumb
  22              		.thumb_func
  23              		.type	resetChannelData, %function
  24              	resetChannelData:
  25              	.LFB77:
  26              		.file 1 "..\\common\\vms\\MidiProcessor.c"
   1:..\common\vms/MidiProcessor.c ****  /*
   2:..\common\vms/MidiProcessor.c ****  * File:   midiProcessor.c
   3:..\common\vms/MidiProcessor.c ****  * Author: Thorb
   4:..\common\vms/MidiProcessor.c ****  *
   5:..\common\vms/MidiProcessor.c ****  * Created on 10 January 2023, 23:16
   6:..\common\vms/MidiProcessor.c ****  */
   7:..\common\vms/MidiProcessor.c **** 
   8:..\common\vms/MidiProcessor.c **** #include <math.h>
   9:..\common\vms/MidiProcessor.c **** 
  10:..\common\vms/MidiProcessor.c **** #include "MidiProcessor.h"
  11:..\common\vms/MidiProcessor.c **** #include "SignalGenerator.h"
  12:..\common\vms/MidiProcessor.c **** #include "VMS.h"
  13:..\common\vms/MidiProcessor.c **** #include "VMSWrapper.h"
  14:..\common\vms/MidiProcessor.c **** #include "MidiFilter.h"
  15:..\common\vms/MidiProcessor.c **** #include "NoteMapper.h"
  16:..\common\vms/MidiProcessor.c **** 
  17:..\common\vms/MidiProcessor.c **** #define MIDIPROC_CH_CURR_RPN(CHANNEL) (((channelDescriptors[CHANNEL].parameters[MIDI_CC_RPN_MSB] <<
  18:..\common\vms/MidiProcessor.c **** #define MIDIPROC_CH_CURR_DATA(CHANNEL) (((channelDescriptors[CHANNEL].parameters[MIDI_CC_DATA_COARS
  19:..\common\vms/MidiProcessor.c **** 
  20:..\common\vms/MidiProcessor.c **** //Note frequency lookup table
  21:..\common\vms/MidiProcessor.c **** static const uint32_t Midi_NoteFreq_dHz[] = {82, 87, 92, 97, 103, 109, 116, 122, 130, 138, 146, 154
  22:..\common\vms/MidiProcessor.c **** 
  23:..\common\vms/MidiProcessor.c **** static MidiChannelDescriptor_t * channelDescriptors;
  24:..\common\vms/MidiProcessor.c **** 
  25:..\common\vms/MidiProcessor.c **** static void MidiProcessor_DataHandler(uint32_t channel, uint32_t parameter);
  26:..\common\vms/MidiProcessor.c **** static void MidiProcessor_updateStereoVolume(uint32_t channel);
  27:..\common\vms/MidiProcessor.c **** static void resetChannelData(uint32_t channel);
  28:..\common\vms/MidiProcessor.c **** static MidiFilterHandle_t * filters[SIGGEN_OUTPUTCOUNT];
  29:..\common\vms/MidiProcessor.c **** 
  30:..\common\vms/MidiProcessor.c **** void MidiProcessor_init(){
  31:..\common\vms/MidiProcessor.c ****     //TODO add stereo parameters to the UD3
ARM GAS  C:\Users\chemi\AppData\Local\Temp\ccW46XLm.s 			page 2


  32:..\common\vms/MidiProcessor.c ****     
  33:..\common\vms/MidiProcessor.c ****     //initialize midi filters
  34:..\common\vms/MidiProcessor.c ****     for(uint32_t i = 0; i < SIGGEN_OUTPUTCOUNT; i++){
  35:..\common\vms/MidiProcessor.c ****         filters[i] = MidiFilter_create(i);
  36:..\common\vms/MidiProcessor.c ****     }
  37:..\common\vms/MidiProcessor.c ****     
  38:..\common\vms/MidiProcessor.c ****     channelDescriptors = pvPortMalloc(sizeof(MidiChannelDescriptor_t)*MIDI_CHANNELCOUNT);
  39:..\common\vms/MidiProcessor.c ****     for(uint32_t i = 0; i < MIDI_CHANNELCOUNT; i++){
  40:..\common\vms/MidiProcessor.c ****         resetChannelData(i);
  41:..\common\vms/MidiProcessor.c ****     }
  42:..\common\vms/MidiProcessor.c **** }
  43:..\common\vms/MidiProcessor.c **** 
  44:..\common\vms/MidiProcessor.c **** uint32_t MidiProcessor_noteToFrequency_dHz(uint32_t note){
  45:..\common\vms/MidiProcessor.c ****     return Midi_NoteFreq_dHz[note];
  46:..\common\vms/MidiProcessor.c **** }
  47:..\common\vms/MidiProcessor.c **** 
  48:..\common\vms/MidiProcessor.c **** uint32_t MidiProcessor_getLastFrequency(uint32_t channel){
  49:..\common\vms/MidiProcessor.c ****     return channelDescriptors[channel].lastFrequency;
  50:..\common\vms/MidiProcessor.c **** }
  51:..\common\vms/MidiProcessor.c **** 
  52:..\common\vms/MidiProcessor.c **** void MidiProcessor_setLastFrequency(uint32_t channel, uint32_t frequency){
  53:..\common\vms/MidiProcessor.c ****     channelDescriptors[channel].lastFrequency = frequency;
  54:..\common\vms/MidiProcessor.c **** }
  55:..\common\vms/MidiProcessor.c **** 
  56:..\common\vms/MidiProcessor.c **** uint32_t MidiProcessor_getBendFactor(uint32_t channel){
  57:..\common\vms/MidiProcessor.c ****     return channelDescriptors[channel].bendFactor;
  58:..\common\vms/MidiProcessor.c **** }
  59:..\common\vms/MidiProcessor.c **** 
  60:..\common\vms/MidiProcessor.c **** uint32_t MidiProcessor_getDamperVolume(uint32_t channel){
  61:..\common\vms/MidiProcessor.c ****     return channelDescriptors[channel].parameters[MIDI_CC_DAMPER_PEDAL] ? 0xd3 : MIDI_VOLUME_MAX;
  62:..\common\vms/MidiProcessor.c **** }
  63:..\common\vms/MidiProcessor.c **** 
  64:..\common\vms/MidiProcessor.c **** uint32_t MidiProcessor_getVolume(uint32_t channel){
  65:..\common\vms/MidiProcessor.c ****     return channelDescriptors[channel].parameters[MIDI_CC_VOLUME];
  66:..\common\vms/MidiProcessor.c **** }
  67:..\common\vms/MidiProcessor.c **** 
  68:..\common\vms/MidiProcessor.c **** uint32_t MidiProcessor_getStereoVolume(uint32_t channel){
  69:..\common\vms/MidiProcessor.c ****     return channelDescriptors[channel].stereoVolume;
  70:..\common\vms/MidiProcessor.c **** }
  71:..\common\vms/MidiProcessor.c **** 
  72:..\common\vms/MidiProcessor.c **** uint32_t MidiProcessor_getCCValue(uint32_t channel, uint32_t id){
  73:..\common\vms/MidiProcessor.c ****     return channelDescriptors[channel].parameters[id];
  74:..\common\vms/MidiProcessor.c **** }
  75:..\common\vms/MidiProcessor.c **** 
  76:..\common\vms/MidiProcessor.c **** static void resetChannelData(uint32_t channel){
  27              		.loc 1 76 0
  28              		.cfi_startproc
  29              		@ args = 0, pretend = 0, frame = 0
  30              		@ frame_needed = 0, uses_anonymous_args = 0
  31              	.LVL0:
  77:..\common\vms/MidiProcessor.c ****             
  78:..\common\vms/MidiProcessor.c ****     //we also want to reset other dynamic values incase they got messed up and the user hit stop be
  79:..\common\vms/MidiProcessor.c ****     channelDescriptors[channel].bendRange = 2.0;
  32              		.loc 1 79 0
  33 0000 0D4B     		ldr	r3, .L2
  76:..\common\vms/MidiProcessor.c ****             
  34              		.loc 1 76 0
ARM GAS  C:\Users\chemi\AppData\Local\Temp\ccW46XLm.s 			page 3


  35 0002 10B5     		push	{r4, lr}
  36              		.cfi_def_cfa_offset 8
  37              		.cfi_offset 4, -8
  38              		.cfi_offset 14, -4
  39              		.loc 1 79 0
  40 0004 1C68     		ldr	r4, [r3]
  41 0006 9823     		movs	r3, #152
  42 0008 03FB0044 		mla	r4, r3, r0, r4
  43 000c 4FF08043 		mov	r3, #1073741824
  44 0010 C4F88830 		str	r3, [r4, #136]	@ float
  80:..\common\vms/MidiProcessor.c ****     memset(channelDescriptors[channel].parameters, 0, 128);
  45              		.loc 1 80 0
  46 0014 8022     		movs	r2, #128
  47 0016 0021     		movs	r1, #0
  48 0018 2046     		mov	r0, r4
  49              	.LVL1:
  50 001a FFF7FEFF 		bl	memset
  51              	.LVL2:
  81:..\common\vms/MidiProcessor.c ****     channelDescriptors[channel].parameters[MIDI_CC_VOLUME] = MIDI_VOLUME_MAX;
  52              		.loc 1 81 0
  53 001e 7F23     		movs	r3, #127
  82:..\common\vms/MidiProcessor.c **** 
  83:..\common\vms/MidiProcessor.c ****     channelDescriptors[channel].bendFactor = 1<<13;
  54              		.loc 1 83 0
  55 0020 4FF40052 		mov	r2, #8192
  56 0024 C4F88020 		str	r2, [r4, #128]
  81:..\common\vms/MidiProcessor.c ****     channelDescriptors[channel].parameters[MIDI_CC_VOLUME] = MIDI_VOLUME_MAX;
  57              		.loc 1 81 0
  58 0028 E371     		strb	r3, [r4, #7]
  84:..\common\vms/MidiProcessor.c ****     channelDescriptors[channel].bendRangeRaw = 0;
  59              		.loc 1 84 0
  60 002a 0022     		movs	r2, #0
  61 002c A4F88420 		strh	r2, [r4, #132]	@ movhi
  85:..\common\vms/MidiProcessor.c ****     channelDescriptors[channel].bendRange = 2.0;
  86:..\common\vms/MidiProcessor.c **** 
  87:..\common\vms/MidiProcessor.c ****     channelDescriptors[channel].stereoVolume = MIDI_VOLUME_MAX;
  62              		.loc 1 87 0
  63 0030 C4F89030 		str	r3, [r4, #144]
  64 0034 10BD     		pop	{r4, pc}
  65              	.L3:
  66 0036 00BF     		.align	2
  67              	.L2:
  68 0038 00000000 		.word	.LANCHOR0
  69              		.cfi_endproc
  70              	.LFE77:
  71              		.size	resetChannelData, .-resetChannelData
  72              		.section	.text.MidiProcessor_init,"ax",%progbits
  73              		.align	1
  74              		.global	MidiProcessor_init
  75              		.thumb
  76              		.thumb_func
  77              		.type	MidiProcessor_init, %function
  78              	MidiProcessor_init:
  79              	.LFB68:
  30:..\common\vms/MidiProcessor.c ****     //TODO add stereo parameters to the UD3
  80              		.loc 1 30 0
  81              		.cfi_startproc
ARM GAS  C:\Users\chemi\AppData\Local\Temp\ccW46XLm.s 			page 4


  82              		@ args = 0, pretend = 0, frame = 0
  83              		@ frame_needed = 0, uses_anonymous_args = 0
  84              	.LVL3:
  85 0000 10B5     		push	{r4, lr}
  86              		.cfi_def_cfa_offset 8
  87              		.cfi_offset 4, -8
  88              		.cfi_offset 14, -4
  89              	.LBB2:
  35:..\common\vms/MidiProcessor.c ****     }
  90              		.loc 1 35 0
  91 0002 0020     		movs	r0, #0
  92 0004 FFF7FEFF 		bl	MidiFilter_create
  93              	.LVL4:
  94 0008 074C     		ldr	r4, .L8
  95 000a 6060     		str	r0, [r4, #4]
  96              	.LVL5:
  97              	.LBE2:
  38:..\common\vms/MidiProcessor.c ****     for(uint32_t i = 0; i < MIDI_CHANNELCOUNT; i++){
  98              		.loc 1 38 0
  99 000c 4FF41860 		mov	r0, #2432
 100 0010 FFF7FEFF 		bl	pvPortMalloc
 101              	.LVL6:
 102 0014 2060     		str	r0, [r4]
 103              	.LVL7:
 104              	.LBB3:
  39:..\common\vms/MidiProcessor.c ****         resetChannelData(i);
 105              		.loc 1 39 0
 106 0016 0024     		movs	r4, #0
 107              	.LVL8:
 108              	.L5:
  40:..\common\vms/MidiProcessor.c ****     }
 109              		.loc 1 40 0 discriminator 3
 110 0018 2046     		mov	r0, r4
  39:..\common\vms/MidiProcessor.c ****         resetChannelData(i);
 111              		.loc 1 39 0 discriminator 3
 112 001a 0134     		adds	r4, r4, #1
 113              	.LVL9:
  40:..\common\vms/MidiProcessor.c ****     }
 114              		.loc 1 40 0 discriminator 3
 115 001c FFF7FEFF 		bl	resetChannelData
 116              	.LVL10:
  39:..\common\vms/MidiProcessor.c ****         resetChannelData(i);
 117              		.loc 1 39 0 discriminator 3
 118 0020 102C     		cmp	r4, #16
 119 0022 F9D1     		bne	.L5
 120              	.LBE3:
  42:..\common\vms/MidiProcessor.c **** 
 121              		.loc 1 42 0
 122 0024 10BD     		pop	{r4, pc}
 123              	.LVL11:
 124              	.L9:
 125 0026 00BF     		.align	2
 126              	.L8:
 127 0028 00000000 		.word	.LANCHOR0
 128              		.cfi_endproc
 129              	.LFE68:
 130              		.size	MidiProcessor_init, .-MidiProcessor_init
ARM GAS  C:\Users\chemi\AppData\Local\Temp\ccW46XLm.s 			page 5


 131              		.section	.text.MidiProcessor_noteToFrequency_dHz,"ax",%progbits
 132              		.align	1
 133              		.global	MidiProcessor_noteToFrequency_dHz
 134              		.thumb
 135              		.thumb_func
 136              		.type	MidiProcessor_noteToFrequency_dHz, %function
 137              	MidiProcessor_noteToFrequency_dHz:
 138              	.LFB69:
  44:..\common\vms/MidiProcessor.c ****     return Midi_NoteFreq_dHz[note];
 139              		.loc 1 44 0
 140              		.cfi_startproc
 141              		@ args = 0, pretend = 0, frame = 0
 142              		@ frame_needed = 0, uses_anonymous_args = 0
 143              		@ link register save eliminated.
 144              	.LVL12:
  46:..\common\vms/MidiProcessor.c **** 
 145              		.loc 1 46 0
 146 0000 014B     		ldr	r3, .L11
 147 0002 53F82000 		ldr	r0, [r3, r0, lsl #2]
 148              	.LVL13:
 149 0006 7047     		bx	lr
 150              	.L12:
 151              		.align	2
 152              	.L11:
 153 0008 00000000 		.word	.LANCHOR1
 154              		.cfi_endproc
 155              	.LFE69:
 156              		.size	MidiProcessor_noteToFrequency_dHz, .-MidiProcessor_noteToFrequency_dHz
 157              		.section	.text.MidiProcessor_getLastFrequency,"ax",%progbits
 158              		.align	1
 159              		.global	MidiProcessor_getLastFrequency
 160              		.thumb
 161              		.thumb_func
 162              		.type	MidiProcessor_getLastFrequency, %function
 163              	MidiProcessor_getLastFrequency:
 164              	.LFB70:
  48:..\common\vms/MidiProcessor.c ****     return channelDescriptors[channel].lastFrequency;
 165              		.loc 1 48 0
 166              		.cfi_startproc
 167              		@ args = 0, pretend = 0, frame = 0
 168              		@ frame_needed = 0, uses_anonymous_args = 0
 169              		@ link register save eliminated.
 170              	.LVL14:
  49:..\common\vms/MidiProcessor.c **** }
 171              		.loc 1 49 0
 172 0000 034B     		ldr	r3, .L14
 173 0002 1A68     		ldr	r2, [r3]
 174 0004 9823     		movs	r3, #152
 175 0006 03FB0020 		mla	r0, r3, r0, r2
 176              	.LVL15:
  50:..\common\vms/MidiProcessor.c **** 
 177              		.loc 1 50 0
 178 000a D0F88C00 		ldr	r0, [r0, #140]
 179 000e 7047     		bx	lr
 180              	.L15:
 181              		.align	2
 182              	.L14:
ARM GAS  C:\Users\chemi\AppData\Local\Temp\ccW46XLm.s 			page 6


 183 0010 00000000 		.word	.LANCHOR0
 184              		.cfi_endproc
 185              	.LFE70:
 186              		.size	MidiProcessor_getLastFrequency, .-MidiProcessor_getLastFrequency
 187              		.section	.text.MidiProcessor_setLastFrequency,"ax",%progbits
 188              		.align	1
 189              		.global	MidiProcessor_setLastFrequency
 190              		.thumb
 191              		.thumb_func
 192              		.type	MidiProcessor_setLastFrequency, %function
 193              	MidiProcessor_setLastFrequency:
 194              	.LFB71:
  52:..\common\vms/MidiProcessor.c ****     channelDescriptors[channel].lastFrequency = frequency;
 195              		.loc 1 52 0
 196              		.cfi_startproc
 197              		@ args = 0, pretend = 0, frame = 0
 198              		@ frame_needed = 0, uses_anonymous_args = 0
 199              		@ link register save eliminated.
 200              	.LVL16:
  53:..\common\vms/MidiProcessor.c **** }
 201              		.loc 1 53 0
 202 0000 034B     		ldr	r3, .L17
 203 0002 1A68     		ldr	r2, [r3]
 204 0004 9823     		movs	r3, #152
 205 0006 03FB0020 		mla	r0, r3, r0, r2
 206              	.LVL17:
 207 000a C0F88C10 		str	r1, [r0, #140]
 208 000e 7047     		bx	lr
 209              	.L18:
 210              		.align	2
 211              	.L17:
 212 0010 00000000 		.word	.LANCHOR0
 213              		.cfi_endproc
 214              	.LFE71:
 215              		.size	MidiProcessor_setLastFrequency, .-MidiProcessor_setLastFrequency
 216              		.section	.text.MidiProcessor_getBendFactor,"ax",%progbits
 217              		.align	1
 218              		.global	MidiProcessor_getBendFactor
 219              		.thumb
 220              		.thumb_func
 221              		.type	MidiProcessor_getBendFactor, %function
 222              	MidiProcessor_getBendFactor:
 223              	.LFB72:
  56:..\common\vms/MidiProcessor.c ****     return channelDescriptors[channel].bendFactor;
 224              		.loc 1 56 0
 225              		.cfi_startproc
 226              		@ args = 0, pretend = 0, frame = 0
 227              		@ frame_needed = 0, uses_anonymous_args = 0
 228              		@ link register save eliminated.
 229              	.LVL18:
  57:..\common\vms/MidiProcessor.c **** }
 230              		.loc 1 57 0
 231 0000 034B     		ldr	r3, .L20
 232 0002 1A68     		ldr	r2, [r3]
 233 0004 9823     		movs	r3, #152
 234 0006 03FB0020 		mla	r0, r3, r0, r2
 235              	.LVL19:
ARM GAS  C:\Users\chemi\AppData\Local\Temp\ccW46XLm.s 			page 7


  58:..\common\vms/MidiProcessor.c **** 
 236              		.loc 1 58 0
 237 000a D0F88000 		ldr	r0, [r0, #128]
 238 000e 7047     		bx	lr
 239              	.L21:
 240              		.align	2
 241              	.L20:
 242 0010 00000000 		.word	.LANCHOR0
 243              		.cfi_endproc
 244              	.LFE72:
 245              		.size	MidiProcessor_getBendFactor, .-MidiProcessor_getBendFactor
 246              		.section	.text.MidiProcessor_getDamperVolume,"ax",%progbits
 247              		.align	1
 248              		.global	MidiProcessor_getDamperVolume
 249              		.thumb
 250              		.thumb_func
 251              		.type	MidiProcessor_getDamperVolume, %function
 252              	MidiProcessor_getDamperVolume:
 253              	.LFB73:
  60:..\common\vms/MidiProcessor.c ****     return channelDescriptors[channel].parameters[MIDI_CC_DAMPER_PEDAL] ? 0xd3 : MIDI_VOLUME_MAX;
 254              		.loc 1 60 0
 255              		.cfi_startproc
 256              		@ args = 0, pretend = 0, frame = 0
 257              		@ frame_needed = 0, uses_anonymous_args = 0
 258              		@ link register save eliminated.
 259              	.LVL20:
  61:..\common\vms/MidiProcessor.c **** }
 260              		.loc 1 61 0
 261 0000 054B     		ldr	r3, .L25
 262 0002 1A68     		ldr	r2, [r3]
 263 0004 9823     		movs	r3, #152
 264 0006 03FB0020 		mla	r0, r3, r0, r2
 265              	.LVL21:
 266 000a 90F84330 		ldrb	r3, [r0, #67]	@ zero_extendqisi2
 267 000e 002B     		cmp	r3, #0
  62:..\common\vms/MidiProcessor.c **** 
 268              		.loc 1 62 0
 269 0010 14BF     		ite	ne
 270 0012 D320     		movne	r0, #211
 271 0014 7F20     		moveq	r0, #127
 272 0016 7047     		bx	lr
 273              	.L26:
 274              		.align	2
 275              	.L25:
 276 0018 00000000 		.word	.LANCHOR0
 277              		.cfi_endproc
 278              	.LFE73:
 279              		.size	MidiProcessor_getDamperVolume, .-MidiProcessor_getDamperVolume
 280              		.section	.text.MidiProcessor_getVolume,"ax",%progbits
 281              		.align	1
 282              		.global	MidiProcessor_getVolume
 283              		.thumb
 284              		.thumb_func
 285              		.type	MidiProcessor_getVolume, %function
 286              	MidiProcessor_getVolume:
 287              	.LFB74:
  64:..\common\vms/MidiProcessor.c ****     return channelDescriptors[channel].parameters[MIDI_CC_VOLUME];
ARM GAS  C:\Users\chemi\AppData\Local\Temp\ccW46XLm.s 			page 8


 288              		.loc 1 64 0
 289              		.cfi_startproc
 290              		@ args = 0, pretend = 0, frame = 0
 291              		@ frame_needed = 0, uses_anonymous_args = 0
 292              		@ link register save eliminated.
 293              	.LVL22:
  65:..\common\vms/MidiProcessor.c **** }
 294              		.loc 1 65 0
 295 0000 034B     		ldr	r3, .L28
 296 0002 1A68     		ldr	r2, [r3]
 297 0004 9823     		movs	r3, #152
 298 0006 03FB0020 		mla	r0, r3, r0, r2
 299              	.LVL23:
  66:..\common\vms/MidiProcessor.c **** 
 300              		.loc 1 66 0
 301 000a C079     		ldrb	r0, [r0, #7]	@ zero_extendqisi2
 302 000c 7047     		bx	lr
 303              	.L29:
 304 000e 00BF     		.align	2
 305              	.L28:
 306 0010 00000000 		.word	.LANCHOR0
 307              		.cfi_endproc
 308              	.LFE74:
 309              		.size	MidiProcessor_getVolume, .-MidiProcessor_getVolume
 310              		.section	.text.MidiProcessor_getStereoVolume,"ax",%progbits
 311              		.align	1
 312              		.global	MidiProcessor_getStereoVolume
 313              		.thumb
 314              		.thumb_func
 315              		.type	MidiProcessor_getStereoVolume, %function
 316              	MidiProcessor_getStereoVolume:
 317              	.LFB75:
  68:..\common\vms/MidiProcessor.c ****     return channelDescriptors[channel].stereoVolume;
 318              		.loc 1 68 0
 319              		.cfi_startproc
 320              		@ args = 0, pretend = 0, frame = 0
 321              		@ frame_needed = 0, uses_anonymous_args = 0
 322              		@ link register save eliminated.
 323              	.LVL24:
  69:..\common\vms/MidiProcessor.c **** }
 324              		.loc 1 69 0
 325 0000 034B     		ldr	r3, .L31
 326 0002 1A68     		ldr	r2, [r3]
 327 0004 9823     		movs	r3, #152
 328 0006 03FB0020 		mla	r0, r3, r0, r2
 329              	.LVL25:
  70:..\common\vms/MidiProcessor.c **** 
 330              		.loc 1 70 0
 331 000a D0F89000 		ldr	r0, [r0, #144]
 332 000e 7047     		bx	lr
 333              	.L32:
 334              		.align	2
 335              	.L31:
 336 0010 00000000 		.word	.LANCHOR0
 337              		.cfi_endproc
 338              	.LFE75:
 339              		.size	MidiProcessor_getStereoVolume, .-MidiProcessor_getStereoVolume
ARM GAS  C:\Users\chemi\AppData\Local\Temp\ccW46XLm.s 			page 9


 340              		.section	.text.MidiProcessor_getCCValue,"ax",%progbits
 341              		.align	1
 342              		.global	MidiProcessor_getCCValue
 343              		.thumb
 344              		.thumb_func
 345              		.type	MidiProcessor_getCCValue, %function
 346              	MidiProcessor_getCCValue:
 347              	.LFB76:
  72:..\common\vms/MidiProcessor.c ****     return channelDescriptors[channel].parameters[id];
 348              		.loc 1 72 0
 349              		.cfi_startproc
 350              		@ args = 0, pretend = 0, frame = 0
 351              		@ frame_needed = 0, uses_anonymous_args = 0
 352              		@ link register save eliminated.
 353              	.LVL26:
  73:..\common\vms/MidiProcessor.c **** }
 354              		.loc 1 73 0
 355 0000 034B     		ldr	r3, .L34
 356 0002 1A68     		ldr	r2, [r3]
 357 0004 9823     		movs	r3, #152
 358 0006 03FB0020 		mla	r0, r3, r0, r2
 359              	.LVL27:
  74:..\common\vms/MidiProcessor.c **** 
 360              		.loc 1 74 0
 361 000a 405C     		ldrb	r0, [r0, r1]	@ zero_extendqisi2
 362 000c 7047     		bx	lr
 363              	.L35:
 364 000e 00BF     		.align	2
 365              	.L34:
 366 0010 00000000 		.word	.LANCHOR0
 367              		.cfi_endproc
 368              	.LFE76:
 369              		.size	MidiProcessor_getCCValue, .-MidiProcessor_getCCValue
 370              		.section	.text.MidiProcessor_resetMidi,"ax",%progbits
 371              		.align	1
 372              		.global	MidiProcessor_resetMidi
 373              		.thumb
 374              		.thumb_func
 375              		.type	MidiProcessor_resetMidi, %function
 376              	MidiProcessor_resetMidi:
 377              	.LFB78:
  88:..\common\vms/MidiProcessor.c ****     //TODO: MidiProcessor_recalculateStereoVolume();
  89:..\common\vms/MidiProcessor.c **** 
  90:..\common\vms/MidiProcessor.c ****     //channelDescriptors[channel].programm = 0; 
  91:..\common\vms/MidiProcessor.c **** }
  92:..\common\vms/MidiProcessor.c **** 
  93:..\common\vms/MidiProcessor.c **** void MidiProcessor_resetMidi(){
 378              		.loc 1 93 0
 379              		.cfi_startproc
 380              		@ args = 0, pretend = 0, frame = 0
 381              		@ frame_needed = 0, uses_anonymous_args = 0
 382 0000 10B5     		push	{r4, lr}
 383              		.cfi_def_cfa_offset 8
 384              		.cfi_offset 4, -8
 385              		.cfi_offset 14, -4
  94:..\common\vms/MidiProcessor.c ****     //reset all midi data
  95:..\common\vms/MidiProcessor.c ****     
ARM GAS  C:\Users\chemi\AppData\Local\Temp\ccW46XLm.s 			page 10


  96:..\common\vms/MidiProcessor.c ****     VMSW_panicHandler();
 386              		.loc 1 96 0
 387 0002 FFF7FEFF 		bl	VMSW_panicHandler
 388              	.LVL28:
  97:..\common\vms/MidiProcessor.c ****     SigGen_killAudio();
 389              		.loc 1 97 0
 390 0006 FFF7FEFF 		bl	SigGen_killAudio
 391              	.LVL29:
 392              	.LBB4:
  98:..\common\vms/MidiProcessor.c ****     
  99:..\common\vms/MidiProcessor.c ****     //TODO evaluate if this should affect all channels:
 100:..\common\vms/MidiProcessor.c ****     //reset all bend factors
 101:..\common\vms/MidiProcessor.c ****     for(uint32_t killChannel = 0;killChannel < 16; killChannel++){
 393              		.loc 1 101 0
 394 000a 0024     		movs	r4, #0
 395              	.LVL30:
 396              	.L37:
 102:..\common\vms/MidiProcessor.c ****         resetChannelData(killChannel);
 397              		.loc 1 102 0 discriminator 3
 398 000c 2046     		mov	r0, r4
 101:..\common\vms/MidiProcessor.c ****         resetChannelData(killChannel);
 399              		.loc 1 101 0 discriminator 3
 400 000e 0134     		adds	r4, r4, #1
 401              	.LVL31:
 402              		.loc 1 102 0 discriminator 3
 403 0010 FFF7FEFF 		bl	resetChannelData
 404              	.LVL32:
 101:..\common\vms/MidiProcessor.c ****         resetChannelData(killChannel);
 405              		.loc 1 101 0 discriminator 3
 406 0014 102C     		cmp	r4, #16
 407 0016 F9D1     		bne	.L37
 408              	.LBE4:
 103:..\common\vms/MidiProcessor.c ****     }
 104:..\common\vms/MidiProcessor.c **** }
 409              		.loc 1 104 0
 410 0018 10BD     		pop	{r4, pc}
 411              		.cfi_endproc
 412              	.LFE78:
 413              		.size	MidiProcessor_resetMidi, .-MidiProcessor_resetMidi
 414              		.global	__aeabi_i2f
 415              		.global	__aeabi_fmul
 416              		.global	__aeabi_fdiv
 417              		.global	__aeabi_f2uiz
 418              		.section	.text.MidiProcessor_processCmd,"ax",%progbits
 419              		.align	1
 420              		.global	MidiProcessor_processCmd
 421              		.thumb
 422              		.thumb_func
 423              		.type	MidiProcessor_processCmd, %function
 424              	MidiProcessor_processCmd:
 425              	.LFB79:
 105:..\common\vms/MidiProcessor.c **** 
 106:..\common\vms/MidiProcessor.c **** void MidiProcessor_processCmd(uint32_t cable, uint32_t channel, uint32_t cmd, uint32_t param1, uint
 426              		.loc 1 106 0
 427              		.cfi_startproc
 428              		@ args = 4, pretend = 0, frame = 0
 429              		@ frame_needed = 0, uses_anonymous_args = 0
ARM GAS  C:\Users\chemi\AppData\Local\Temp\ccW46XLm.s 			page 11


 430              	.LVL33:
 431 0000 73B5     		push	{r0, r1, r4, r5, r6, lr}
 432              		.cfi_def_cfa_offset 24
 433              		.cfi_offset 4, -16
 434              		.cfi_offset 5, -12
 435              		.cfi_offset 6, -8
 436              		.cfi_offset 14, -4
 107:..\common\vms/MidiProcessor.c ****     if(cmd == MIDI_CMD_NOTE_OFF){
 437              		.loc 1 107 0
 438 0002 802A     		cmp	r2, #128
 106:..\common\vms/MidiProcessor.c ****     if(cmd == MIDI_CMD_NOTE_OFF){
 439              		.loc 1 106 0
 440 0004 0C46     		mov	r4, r1
 441 0006 0698     		ldr	r0, [sp, #24]
 442              	.LVL34:
 443 0008 1946     		mov	r1, r3
 444              	.LVL35:
 445              		.loc 1 107 0
 446 000a 08D1     		bne	.L40
 447              	.LVL36:
 448              	.L43:
 449              	.LBB13:
 108:..\common\vms/MidiProcessor.c ****         for(uint32_t i = 0; i < SIGGEN_OUTPUTCOUNT; i++){
 109:..\common\vms/MidiProcessor.c ****             MidiFilter_eventHandler(filters[i], MIDI_EVT_NOTEOFF, channel, param1, (uint32_t)NULL, 
 450              		.loc 1 109 0 discriminator 1
 451 000c 0023     		movs	r3, #0
 452              	.LVL37:
 453 000e 5548     		ldr	r0, .L74
 454 0010 0193     		str	r3, [sp, #4]
 455 0012 0093     		str	r3, [sp]
 456 0014 2246     		mov	r2, r4
 457 0016 0B46     		mov	r3, r1
 458 0018 4068     		ldr	r0, [r0, #4]
 459 001a 0221     		movs	r1, #2
 460              	.LVL38:
 461 001c 16E0     		b	.L72
 462              	.LVL39:
 463              	.L40:
 464              	.LBE13:
 110:..\common\vms/MidiProcessor.c ****         }
 111:..\common\vms/MidiProcessor.c ****         //send noteOff event to mapper
 112:..\common\vms/MidiProcessor.c ****         
 113:..\common\vms/MidiProcessor.c ****     }else if(cmd == MIDI_CMD_NOTE_ON){
 465              		.loc 1 113 0
 466 001e 902A     		cmp	r2, #144
 467 0020 17D1     		bne	.L42
 114:..\common\vms/MidiProcessor.c ****         
 115:..\common\vms/MidiProcessor.c ****         if(param2 > 0 && channelDescriptors[channel].parameters[MIDI_CC_VOLUME] > 0  && channelDesc
 468              		.loc 1 115 0
 469 0022 0028     		cmp	r0, #0
 470 0024 F2D0     		beq	.L43
 471              		.loc 1 115 0 is_stmt 0 discriminator 1
 472 0026 4F4D     		ldr	r5, .L74
 473 0028 9822     		movs	r2, #152
 474              	.LVL40:
 475 002a 2E68     		ldr	r6, [r5]
 476 002c 02FB0462 		mla	r2, r2, r4, r6
ARM GAS  C:\Users\chemi\AppData\Local\Temp\ccW46XLm.s 			page 12


 477 0030 D679     		ldrb	r6, [r2, #7]	@ zero_extendqisi2
 478 0032 002E     		cmp	r6, #0
 479 0034 EAD0     		beq	.L43
 480              		.loc 1 115 0 discriminator 2
 481 0036 D2F89060 		ldr	r6, [r2, #144]
 482 003a 002E     		cmp	r6, #0
 483 003c E6D0     		beq	.L43
 484              	.LVL41:
 485              	.LBB14:
 116:..\common\vms/MidiProcessor.c ****             //yes, send noteOn event to the mapper
 117:..\common\vms/MidiProcessor.c ****             for(uint32_t i = 0; i < SIGGEN_OUTPUTCOUNT; i++){
 118:..\common\vms/MidiProcessor.c ****                 MidiFilter_eventHandler(filters[i], MIDI_EVT_NOTEON, channel, param1, param2, chann
 486              		.loc 1 118 0 is_stmt 1 discriminator 1
 487 003e 92F89420 		ldrb	r2, [r2, #148]	@ zero_extendqisi2
 488 0042 0121     		movs	r1, #1
 489              	.LVL42:
 490 0044 8DE80500 		stmia	sp, {r0, r2}
 491 0048 2246     		mov	r2, r4
 492 004a 6868     		ldr	r0, [r5, #4]
 493              	.LVL43:
 494              	.L72:
 495 004c FFF7FEFF 		bl	MidiFilter_eventHandler
 496              	.LVL44:
 497 0050 86E0     		b	.L39
 498              	.LVL45:
 499              	.L42:
 500              	.LBE14:
 119:..\common\vms/MidiProcessor.c ****             }
 120:..\common\vms/MidiProcessor.c ****         }else{
 121:..\common\vms/MidiProcessor.c ****             //no, volume == 0. Either the volume modifiers are 0 or the note velocity is 0. A veloc
 122:..\common\vms/MidiProcessor.c ****             for(uint32_t i = 0; i < SIGGEN_OUTPUTCOUNT; i++){
 123:..\common\vms/MidiProcessor.c ****                 MidiFilter_eventHandler(filters[i], MIDI_EVT_NOTEOFF, channel, param1, (uint32_t)NU
 124:..\common\vms/MidiProcessor.c ****             }
 125:..\common\vms/MidiProcessor.c ****             //send noteOff event to mapper
 126:..\common\vms/MidiProcessor.c ****         }
 127:..\common\vms/MidiProcessor.c **** 
 128:..\common\vms/MidiProcessor.c ****     }else if(cmd == MIDI_CMD_CONTROLLER_CHANGE){
 501              		.loc 1 128 0
 502 0052 B02A     		cmp	r2, #176
 503 0054 3AD1     		bne	.L44
 129:..\common\vms/MidiProcessor.c ****         //write value into buffer. Those control values that have no value will be written too, but
 130:..\common\vms/MidiProcessor.c ****         channelDescriptors[channel].parameters[param1] = param2;
 504              		.loc 1 130 0
 505 0056 434B     		ldr	r3, .L74
 506 0058 9822     		movs	r2, #152
 507              	.LVL46:
 508 005a 1B68     		ldr	r3, [r3]
 509 005c 02FB0432 		mla	r2, r2, r4, r3
 131:..\common\vms/MidiProcessor.c ****         
 132:..\common\vms/MidiProcessor.c ****         //now check if we need to do anything with the data we received
 133:..\common\vms/MidiProcessor.c ****         if(param1 == MIDI_CC_ALL_SOUND_OFF || param1 == MIDI_CC_ALL_NOTES_OFF || param1 == MIDI_CC_
 510              		.loc 1 133 0
 511 0060 A1F17803 		sub	r3, r1, #120
 512 0064 012B     		cmp	r3, #1
 130:..\common\vms/MidiProcessor.c ****         
 513              		.loc 1 130 0
 514 0066 5054     		strb	r0, [r2, r1]
ARM GAS  C:\Users\chemi\AppData\Local\Temp\ccW46XLm.s 			page 13


 515              		.loc 1 133 0
 516 0068 01D9     		bls	.L45
 517              		.loc 1 133 0 is_stmt 0 discriminator 1
 518 006a 7B29     		cmp	r1, #123
 519 006c 04D1     		bne	.L46
 520              	.L45:
 134:..\common\vms/MidiProcessor.c ****             //user pressed either the stop or midi panic button. Make sure to kill the output and r
 135:..\common\vms/MidiProcessor.c ****             MidiProcessor_resetMidi();
 136:..\common\vms/MidiProcessor.c ****             
 137:..\common\vms/MidiProcessor.c ****         }else if(param1 == MIDI_CC_VOLUME){
 138:..\common\vms/MidiProcessor.c ****             //send volume_change event to the mapper
 139:..\common\vms/MidiProcessor.c ****             Mapper_volumeChangeHandler(channel);
 140:..\common\vms/MidiProcessor.c ****             
 141:..\common\vms/MidiProcessor.c ****         }else if(param1 == MIDI_CC_PAN){
 142:..\common\vms/MidiProcessor.c ****             //recalculate stereo volume
 143:..\common\vms/MidiProcessor.c ****             MidiProcessor_updateStereoVolume(channel);
 144:..\common\vms/MidiProcessor.c ****             
 145:..\common\vms/MidiProcessor.c ****             //send volume_change event to the mapper
 146:..\common\vms/MidiProcessor.c ****             Mapper_volumeChangeHandler(channel);
 147:..\common\vms/MidiProcessor.c **** 
 148:..\common\vms/MidiProcessor.c ****         }else if(param1 == MIDI_CC_DATA_FINE || param1 == MIDI_CC_DATA_COARSE){
 149:..\common\vms/MidiProcessor.c ****             //Data was received (might be a RPN change), go to the matching handler
 150:..\common\vms/MidiProcessor.c ****             MidiProcessor_DataHandler(channel, param2);
 151:..\common\vms/MidiProcessor.c **** 
 152:..\common\vms/MidiProcessor.c ****         }else if(param1 == MIDI_CC_NRPN_LSB || param1 == MIDI_CC_NRPN_MSB){
 153:..\common\vms/MidiProcessor.c ****             //NRPN change was requested, we don't support any. However a spurious NRPN message with
 154:..\common\vms/MidiProcessor.c ****             channelDescriptors[channel].parameters[MIDI_CC_RPN_MSB] = 0x3f;
 155:..\common\vms/MidiProcessor.c ****             channelDescriptors[channel].parameters[MIDI_CC_RPN_LSB] = 0x3f;
 156:..\common\vms/MidiProcessor.c ****         }
 157:..\common\vms/MidiProcessor.c **** 
 158:..\common\vms/MidiProcessor.c **** 
 159:..\common\vms/MidiProcessor.c ****     }else if(cmd == MIDI_CMD_PITCH_BEND){
 160:..\common\vms/MidiProcessor.c ****         //convert the two parameters to one signed 14bit value
 161:..\common\vms/MidiProcessor.c ****         int16_t bendParameter = (((param2 << 7) | param1) - 8192);
 162:..\common\vms/MidiProcessor.c ****         
 163:..\common\vms/MidiProcessor.c ****         //calculate the factor that frequencies need to be multiplied with and convert to fixed poi
 164:..\common\vms/MidiProcessor.c ****         float bendOffset = (float) bendParameter / 8192.0;
 165:..\common\vms/MidiProcessor.c ****         channelDescriptors[channel].bendFactor = (uint32_t) (powf(2, (bendOffset * (float) channelD
 166:..\common\vms/MidiProcessor.c **** 
 167:..\common\vms/MidiProcessor.c ****         //call bendHandler to tweak already playing notes
 168:..\common\vms/MidiProcessor.c ****         Mapper_bendHandler(channel);
 169:..\common\vms/MidiProcessor.c **** 
 170:..\common\vms/MidiProcessor.c ****     }else if(cmd == MIDI_CMD_PROGRAM_CHANGE){
 171:..\common\vms/MidiProcessor.c ****         //programm was changed, call mapper and update the map data pointer
 172:..\common\vms/MidiProcessor.c ****         channelDescriptors[channel].programm = param1;
 173:..\common\vms/MidiProcessor.c ****         Mapper_programmChangeHandler(channel, param1);
 174:..\common\vms/MidiProcessor.c ****     }
 175:..\common\vms/MidiProcessor.c **** }
 521              		.loc 1 175 0 is_stmt 1
 522 006e 02B0     		add	sp, sp, #8
 523              		.cfi_remember_state
 524              		.cfi_def_cfa_offset 16
 525              		@ sp needed
 526 0070 BDE87040 		pop	{r4, r5, r6, lr}
 527              		.cfi_restore 14
 528              		.cfi_restore 6
 529              		.cfi_restore 5
ARM GAS  C:\Users\chemi\AppData\Local\Temp\ccW46XLm.s 			page 14


 530              		.cfi_restore 4
 531              		.cfi_def_cfa_offset 0
 532              	.LVL47:
 135:..\common\vms/MidiProcessor.c ****             
 533              		.loc 1 135 0
 534 0074 FFF7FEBF 		b	MidiProcessor_resetMidi
 535              	.LVL48:
 536              	.L46:
 537              		.cfi_restore_state
 137:..\common\vms/MidiProcessor.c ****             //send volume_change event to the mapper
 538              		.loc 1 137 0
 539 0078 0729     		cmp	r1, #7
 540 007a 05D1     		bne	.L47
 541              	.LVL49:
 542              	.L49:
 139:..\common\vms/MidiProcessor.c ****             
 543              		.loc 1 139 0
 544 007c 2046     		mov	r0, r4
 545              		.loc 1 175 0
 546 007e 02B0     		add	sp, sp, #8
 547              		.cfi_remember_state
 548              		.cfi_def_cfa_offset 16
 549              		@ sp needed
 550 0080 BDE87040 		pop	{r4, r5, r6, lr}
 551              		.cfi_restore 14
 552              		.cfi_restore 6
 553              		.cfi_restore 5
 554              		.cfi_restore 4
 555              		.cfi_def_cfa_offset 0
 556              	.LVL50:
 139:..\common\vms/MidiProcessor.c ****             
 557              		.loc 1 139 0
 558 0084 FFF7FEBF 		b	Mapper_volumeChangeHandler
 559              	.LVL51:
 560              	.L47:
 561              		.cfi_restore_state
 141:..\common\vms/MidiProcessor.c ****             //recalculate stereo volume
 562              		.loc 1 141 0
 563 0088 0A29     		cmp	r1, #10
 564 008a 06D1     		bne	.L48
 565              	.LVL52:
 566              	.LBB15:
 567              	.LBB16:
 176:..\common\vms/MidiProcessor.c **** 
 177:..\common\vms/MidiProcessor.c **** static void MidiProcessor_updateStereoVolume(uint32_t channel){
 178:..\common\vms/MidiProcessor.c ****     channelDescriptors[channel].stereoVolume = MIDI_VOLUME_MAX;
 568              		.loc 1 178 0
 569 008c 7F23     		movs	r3, #127
 570 008e C2F89030 		str	r3, [r2, #144]
 571              	.LVL53:
 179:..\common\vms/MidiProcessor.c ****     
 180:..\common\vms/MidiProcessor.c ****     //TODO... we still don't have NVM storage of config parameters
 181:..\common\vms/MidiProcessor.c ****     uint8_t stereoPosition = 64;
 182:..\common\vms/MidiProcessor.c ****     uint8_t stereoWidth = 127;
 183:..\common\vms/MidiProcessor.c ****     uint8_t stereoSlope = 255;
 184:..\common\vms/MidiProcessor.c ****     
 185:..\common\vms/MidiProcessor.c ****     int16_t sp = channelDescriptors[channel].parameters[MIDI_CC_PAN];
ARM GAS  C:\Users\chemi\AppData\Local\Temp\ccW46XLm.s 			page 15


 572              		.loc 1 185 0
 573 0092 937A     		ldrb	r3, [r2, #10]	@ zero_extendqisi2
 574              	.LVL54:
 186:..\common\vms/MidiProcessor.c ****     int16_t rsStart = (stereoPosition - stereoWidth - MIDI_VOLUME_MAX/stereoSlope);
 187:..\common\vms/MidiProcessor.c ****     int16_t fsEnd = (stereoPosition + stereoWidth + MIDI_VOLUME_MAX/stereoSlope);
 188:..\common\vms/MidiProcessor.c ****     
 189:..\common\vms/MidiProcessor.c ****     
 190:..\common\vms/MidiProcessor.c ****     if(sp < rsStart){                                                   //span before volume > 0
 191:..\common\vms/MidiProcessor.c ****         channelDescriptors[channel].stereoVolume = 0;
 192:..\common\vms/MidiProcessor.c ****     }else if(sp > rsStart && sp < (stereoPosition - stereoWidth)){      //rising slope
 193:..\common\vms/MidiProcessor.c ****         channelDescriptors[channel].stereoVolume = (sp - rsStart) * stereoSlope;
 194:..\common\vms/MidiProcessor.c ****     }else if(sp < (stereoPosition + stereoWidth) && sp > (stereoPosition - stereoWidth)){   //span 
 575              		.loc 1 194 0
 576 0094 BE2B     		cmp	r3, #190
 577 0096 F1DD     		ble	.L49
 578 0098 53E0     		b	.L73
 579              	.LVL55:
 580              	.L48:
 581              	.LBE16:
 582              	.LBE15:
 148:..\common\vms/MidiProcessor.c ****             //Data was received (might be a RPN change), go to the matching handler
 583              		.loc 1 148 0 discriminator 1
 584 009a 21F02003 		bic	r3, r1, #32
 585 009e 062B     		cmp	r3, #6
 586 00a0 0BD1     		bne	.L51
 587              	.LVL56:
 588              	.LBB18:
 589              	.LBB19:
 195:..\common\vms/MidiProcessor.c ****         channelDescriptors[channel].stereoVolume = MIDI_VOLUME_MAX;
 196:..\common\vms/MidiProcessor.c ****     }else if(sp < fsEnd && sp > (stereoPosition - stereoWidth)){        //falling slope
 197:..\common\vms/MidiProcessor.c ****         channelDescriptors[channel].stereoVolume = MIDI_VOLUME_MAX - (sp - stereoPosition - stereoW
 198:..\common\vms/MidiProcessor.c ****     }else if(sp > fsEnd){                                               //span after the volume cur
 199:..\common\vms/MidiProcessor.c ****         channelDescriptors[channel].stereoVolume = 0;
 200:..\common\vms/MidiProcessor.c ****     }
 201:..\common\vms/MidiProcessor.c **** }
 202:..\common\vms/MidiProcessor.c **** 
 203:..\common\vms/MidiProcessor.c **** //Some midi data 
 204:..\common\vms/MidiProcessor.c **** static void MidiProcessor_DataHandler(uint32_t channel, uint32_t parameter){
 205:..\common\vms/MidiProcessor.c ****     if(MIDIPROC_CH_CURR_RPN(channel) == MIDI_RPN_BENDRANGE){     //get the 100ths semitones for the
 590              		.loc 1 205 0
 591 00a2 B2F86430 		ldrh	r3, [r2, #100]
 592 00a6 002B     		cmp	r3, #0
 593 00a8 5AD1     		bne	.L39
 206:..\common\vms/MidiProcessor.c ****         channelDescriptors[channel].bendRangeRaw = MIDIPROC_CH_CURR_DATA(channel);
 594              		.loc 1 206 0
 595 00aa 9179     		ldrb	r1, [r2, #6]	@ zero_extendqisi2
 596              	.LVL57:
 597 00ac 92F82630 		ldrb	r3, [r2, #38]	@ zero_extendqisi2
 598 00b0 43EA0123 		orr	r3, r3, r1, lsl #8
 599 00b4 A2F88430 		strh	r3, [r2, #132]	@ movhi
 600 00b8 52E0     		b	.L39
 601              	.LVL58:
 602              	.L51:
 603              	.LBE19:
 604              	.LBE18:
 152:..\common\vms/MidiProcessor.c ****             //NRPN change was requested, we don't support any. However a spurious NRPN message with
 605              		.loc 1 152 0
ARM GAS  C:\Users\chemi\AppData\Local\Temp\ccW46XLm.s 			page 16


 606 00ba 6239     		subs	r1, r1, #98
 607              	.LVL59:
 608 00bc 0129     		cmp	r1, #1
 609 00be 4FD8     		bhi	.L39
 154:..\common\vms/MidiProcessor.c ****             channelDescriptors[channel].parameters[MIDI_CC_RPN_LSB] = 0x3f;
 610              		.loc 1 154 0
 611 00c0 3F23     		movs	r3, #63
 612 00c2 82F86530 		strb	r3, [r2, #101]
 155:..\common\vms/MidiProcessor.c ****         }
 613              		.loc 1 155 0
 614 00c6 82F86430 		strb	r3, [r2, #100]
 615 00ca 49E0     		b	.L39
 616              	.LVL60:
 617              	.L44:
 159:..\common\vms/MidiProcessor.c ****         //convert the two parameters to one signed 14bit value
 618              		.loc 1 159 0
 619 00cc E02A     		cmp	r2, #224
 620 00ce 29D1     		bne	.L54
 621              	.LVL61:
 622              	.LBB20:
 165:..\common\vms/MidiProcessor.c **** 
 623              		.loc 1 165 0
 624 00d0 244B     		ldr	r3, .L74
 625 00d2 41EAC010 		orr	r0, r1, r0, lsl #7
 626              	.LVL62:
 627 00d6 1D68     		ldr	r5, [r3]
 628 00d8 9823     		movs	r3, #152
 629 00da 03FB0455 		mla	r5, r3, r4, r5
 630 00de A0F50050 		sub	r0, r0, #8192
 631 00e2 00B2     		sxth	r0, r0
 632 00e4 FFF7FEFF 		bl	__aeabi_i2f
 633              	.LVL63:
 634 00e8 4FF06451 		mov	r1, #956301312
 635 00ec FFF7FEFF 		bl	__aeabi_fmul
 636              	.LVL64:
 637 00f0 D5F88810 		ldr	r1, [r5, #136]	@ float
 638 00f4 FFF7FEFF 		bl	__aeabi_fmul
 639              	.LVL65:
 640 00f8 1B49     		ldr	r1, .L74+4
 641 00fa FFF7FEFF 		bl	__aeabi_fdiv
 642              	.LVL66:
 643 00fe 0146     		mov	r1, r0
 644 0100 4FF08040 		mov	r0, #1073741824
 645 0104 FFF7FEFF 		bl	powf
 646              	.LVL67:
 647 0108 4FF08C41 		mov	r1, #1174405120
 648 010c FFF7FEFF 		bl	__aeabi_fmul
 649              	.LVL68:
 650 0110 FFF7FEFF 		bl	__aeabi_f2uiz
 651              	.LVL69:
 652 0114 C5F88000 		str	r0, [r5, #128]
 168:..\common\vms/MidiProcessor.c **** 
 653              		.loc 1 168 0
 654 0118 2046     		mov	r0, r4
 655              	.LBE20:
 175:..\common\vms/MidiProcessor.c **** 
 656              		.loc 1 175 0
ARM GAS  C:\Users\chemi\AppData\Local\Temp\ccW46XLm.s 			page 17


 657 011a 02B0     		add	sp, sp, #8
 658              		.cfi_remember_state
 659              		.cfi_def_cfa_offset 16
 660              		@ sp needed
 661 011c BDE87040 		pop	{r4, r5, r6, lr}
 662              		.cfi_restore 14
 663              		.cfi_restore 6
 664              		.cfi_restore 5
 665              		.cfi_restore 4
 666              		.cfi_def_cfa_offset 0
 667              	.LVL70:
 668              	.LBB21:
 168:..\common\vms/MidiProcessor.c **** 
 669              		.loc 1 168 0
 670 0120 FFF7FEBF 		b	Mapper_bendHandler
 671              	.LVL71:
 672              	.L54:
 673              		.cfi_restore_state
 674              	.LBE21:
 170:..\common\vms/MidiProcessor.c ****         //programm was changed, call mapper and update the map data pointer
 675              		.loc 1 170 0
 676 0124 C02A     		cmp	r2, #192
 677 0126 1BD1     		bne	.L39
 173:..\common\vms/MidiProcessor.c ****     }
 678              		.loc 1 173 0
 679 0128 2046     		mov	r0, r4
 172:..\common\vms/MidiProcessor.c ****         Mapper_programmChangeHandler(channel, param1);
 680              		.loc 1 172 0
 681 012a 0E4B     		ldr	r3, .L74
 682 012c 1A68     		ldr	r2, [r3]
 683              	.LVL72:
 684 012e 9823     		movs	r3, #152
 685 0130 03FB0423 		mla	r3, r3, r4, r2
 686 0134 83F89410 		strb	r1, [r3, #148]
 175:..\common\vms/MidiProcessor.c **** 
 687              		.loc 1 175 0
 688 0138 02B0     		add	sp, sp, #8
 689              		.cfi_remember_state
 690              		.cfi_def_cfa_offset 16
 691              		@ sp needed
 692 013a BDE87040 		pop	{r4, r5, r6, lr}
 693              		.cfi_restore 14
 694              		.cfi_restore 6
 695              		.cfi_restore 5
 696              		.cfi_restore 4
 697              		.cfi_def_cfa_offset 0
 698              	.LVL73:
 173:..\common\vms/MidiProcessor.c ****     }
 699              		.loc 1 173 0
 700 013e FFF7FEBF 		b	Mapper_programmChangeHandler
 701              	.LVL74:
 702              	.L73:
 703              		.cfi_restore_state
 704              	.LBB22:
 705              	.LBB17:
 185:..\common\vms/MidiProcessor.c ****     int16_t rsStart = (stereoPosition - stereoWidth - MIDI_VOLUME_MAX/stereoSlope);
 706              		.loc 1 185 0
ARM GAS  C:\Users\chemi\AppData\Local\Temp\ccW46XLm.s 			page 18


 707 0142 19B2     		sxth	r1, r3
 708              	.LVL75:
 196:..\common\vms/MidiProcessor.c ****         channelDescriptors[channel].stereoVolume = MIDI_VOLUME_MAX - (sp - stereoPosition - stereoW
 709              		.loc 1 196 0
 710 0144 BE29     		cmp	r1, #190
 711 0146 05DC     		bgt	.L70
 197:..\common\vms/MidiProcessor.c ****     }else if(sp > fsEnd){                                               //span after the volume cur
 712              		.loc 1 197 0
 713 0148 BF3B     		subs	r3, r3, #191
 714              	.LVL76:
 715 014a C3EB0323 		rsb	r3, r3, r3, lsl #8
 716              	.LVL77:
 717 014e C3F17F03 		rsb	r3, r3, #127
 718 0152 02E0     		b	.L71
 719              	.LVL78:
 720              	.L70:
 198:..\common\vms/MidiProcessor.c ****         channelDescriptors[channel].stereoVolume = 0;
 721              		.loc 1 198 0
 722 0154 BF29     		cmp	r1, #191
 723 0156 91D0     		beq	.L49
 199:..\common\vms/MidiProcessor.c ****     }
 724              		.loc 1 199 0
 725 0158 0023     		movs	r3, #0
 726              	.LVL79:
 727              	.L71:
 728 015a C2F89030 		str	r3, [r2, #144]
 729 015e 8DE7     		b	.L49
 730              	.LVL80:
 731              	.L39:
 732              	.LBE17:
 733              	.LBE22:
 175:..\common\vms/MidiProcessor.c **** 
 734              		.loc 1 175 0
 735 0160 02B0     		add	sp, sp, #8
 736              		.cfi_def_cfa_offset 16
 737              		@ sp needed
 738 0162 70BD     		pop	{r4, r5, r6, pc}
 739              	.LVL81:
 740              	.L75:
 741              		.align	2
 742              	.L74:
 743 0164 00000000 		.word	.LANCHOR0
 744 0168 00004041 		.word	1094713344
 745              		.cfi_endproc
 746              	.LFE79:
 747              		.size	MidiProcessor_processCmd, .-MidiProcessor_processCmd
 748              		.section	.rodata
 749              		.align	2
 750              		.set	.LANCHOR1,. + 0
 751              		.type	Midi_NoteFreq_dHz, %object
 752              		.size	Midi_NoteFreq_dHz, 512
 753              	Midi_NoteFreq_dHz:
 754 0000 52000000 		.word	82
 755 0004 57000000 		.word	87
 756 0008 5C000000 		.word	92
 757 000c 61000000 		.word	97
 758 0010 67000000 		.word	103
ARM GAS  C:\Users\chemi\AppData\Local\Temp\ccW46XLm.s 			page 19


 759 0014 6D000000 		.word	109
 760 0018 74000000 		.word	116
 761 001c 7A000000 		.word	122
 762 0020 82000000 		.word	130
 763 0024 8A000000 		.word	138
 764 0028 92000000 		.word	146
 765 002c 9A000000 		.word	154
 766 0030 A4000000 		.word	164
 767 0034 AD000000 		.word	173
 768 0038 B8000000 		.word	184
 769 003c C2000000 		.word	194
 770 0040 CE000000 		.word	206
 771 0044 DA000000 		.word	218
 772 0048 E7000000 		.word	231
 773 004c F5000000 		.word	245
 774 0050 04010000 		.word	260
 775 0054 13010000 		.word	275
 776 0058 23010000 		.word	291
 777 005c 35010000 		.word	309
 778 0060 47010000 		.word	327
 779 0064 5A010000 		.word	346
 780 0068 6F010000 		.word	367
 781 006c 85010000 		.word	389
 782 0070 9C010000 		.word	412
 783 0074 B5010000 		.word	437
 784 0078 CE010000 		.word	462
 785 007c EA010000 		.word	490
 786 0080 07020000 		.word	519
 787 0084 26020000 		.word	550
 788 0088 47020000 		.word	583
 789 008c 69020000 		.word	617
 790 0090 8E020000 		.word	654
 791 0094 B5020000 		.word	693
 792 0098 DE020000 		.word	734
 793 009c 0A030000 		.word	778
 794 00a0 38030000 		.word	824
 795 00a4 69030000 		.word	873
 796 00a8 9D030000 		.word	925
 797 00ac D4030000 		.word	980
 798 00b0 0E040000 		.word	1038
 799 00b4 4C040000 		.word	1100
 800 00b8 8D040000 		.word	1165
 801 00bc D3040000 		.word	1235
 802 00c0 1C050000 		.word	1308
 803 00c4 6A050000 		.word	1386
 804 00c8 BC050000 		.word	1468
 805 00cc 14060000 		.word	1556
 806 00d0 70060000 		.word	1648
 807 00d4 D2060000 		.word	1746
 808 00d8 3A070000 		.word	1850
 809 00dc A8070000 		.word	1960
 810 00e0 1D080000 		.word	2077
 811 00e4 98080000 		.word	2200
 812 00e8 1B090000 		.word	2331
 813 00ec A5090000 		.word	2469
 814 00f0 380A0000 		.word	2616
 815 00f4 D40A0000 		.word	2772
ARM GAS  C:\Users\chemi\AppData\Local\Temp\ccW46XLm.s 			page 20


 816 00f8 790B0000 		.word	2937
 817 00fc 270C0000 		.word	3111
 818 0100 E00C0000 		.word	3296
 819 0104 A40D0000 		.word	3492
 820 0108 740E0000 		.word	3700
 821 010c 500F0000 		.word	3920
 822 0110 39100000 		.word	4153
 823 0114 30110000 		.word	4400
 824 0118 36120000 		.word	4662
 825 011c 4B130000 		.word	4939
 826 0120 71140000 		.word	5233
 827 0124 A8150000 		.word	5544
 828 0128 F1160000 		.word	5873
 829 012c 4F180000 		.word	6223
 830 0130 C1190000 		.word	6593
 831 0134 491B0000 		.word	6985
 832 0138 E81C0000 		.word	7400
 833 013c A01E0000 		.word	7840
 834 0140 72200000 		.word	8306
 835 0144 60220000 		.word	8800
 836 0148 6B240000 		.word	9323
 837 014c 96260000 		.word	9878
 838 0150 E1280000 		.word	10465
 839 0154 4F2B0000 		.word	11087
 840 0158 E32D0000 		.word	11747
 841 015c 9D300000 		.word	12445
 842 0160 81330000 		.word	13185
 843 0164 91360000 		.word	13969
 844 0168 D0390000 		.word	14800
 845 016c 403D0000 		.word	15680
 846 0170 E4400000 		.word	16612
 847 0174 C0440000 		.word	17600
 848 0178 D7480000 		.word	18647
 849 017c 2B4D0000 		.word	19755
 850 0180 C2510000 		.word	20930
 851 0184 9F560000 		.word	22175
 852 0188 C55B0000 		.word	23493
 853 018c 3A610000 		.word	24890
 854 0190 02670000 		.word	26370
 855 0194 226D0000 		.word	27938
 856 0198 A0730000 		.word	29600
 857 019c 807A0000 		.word	31360
 858 01a0 C8810000 		.word	33224
 859 01a4 80890000 		.word	35200
 860 01a8 AD910000 		.word	37293
 861 01ac 579A0000 		.word	39511
 862 01b0 84A30000 		.word	41860
 863 01b4 3DAD0000 		.word	44349
 864 01b8 8AB70000 		.word	46986
 865 01bc 74C20000 		.word	49780
 866 01c0 04CE0000 		.word	52740
 867 01c4 45DA0000 		.word	55877
 868 01c8 3FE70000 		.word	59199
 869 01cc FFF40000 		.word	62719
 870 01d0 91030100 		.word	66449
 871 01d4 00130100 		.word	70400
 872 01d8 5A230100 		.word	74586
ARM GAS  C:\Users\chemi\AppData\Local\Temp\ccW46XLm.s 			page 21


 873 01dc AD340100 		.word	79021
 874 01e0 08470100 		.word	83720
 875 01e4 7A5A0100 		.word	88698
 876 01e8 156F0100 		.word	93973
 877 01ec E9840100 		.word	99561
 878 01f0 099C0100 		.word	105481
 879 01f4 89B40100 		.word	111753
 880 01f8 7ECE0100 		.word	118398
 881 01fc FFE90100 		.word	125439
 882              		.bss
 883              		.align	2
 884              		.set	.LANCHOR0,. + 0
 885              		.type	channelDescriptors, %object
 886              		.size	channelDescriptors, 4
 887              	channelDescriptors:
 888 0000 00000000 		.space	4
 889              		.type	filters, %object
 890              		.size	filters, 4
 891              	filters:
 892 0004 00000000 		.space	4
 893              		.text
 894              	.Letext0:
 895              		.file 2 "c:\\program files (x86)\\cypress\\psoc creator\\4.4\\psoc creator\\import\\gnu\\arm\\5.4.
 896              		.file 3 "c:\\program files (x86)\\cypress\\psoc creator\\4.4\\psoc creator\\import\\gnu\\arm\\5.4.
 897              		.file 4 "..\\common\\vms\\MidiProcessor.h"
 898              		.file 5 "..\\common\\vms\\MidiFilter.h"
 899              		.file 6 "..\\common\\rtos\\include/portable.h"
 900              		.file 7 "..\\common\\vms\\VMSWrapper.h"
 901              		.file 8 "..\\common\\ud3core/SignalGenerator.h"
 902              		.file 9 "c:\\program files (x86)\\cypress\\psoc creator\\4.4\\psoc creator\\import\\gnu\\arm\\5.4.
 903              		.file 10 "..\\common\\vms\\NoteMapper.h"
 904              		.file 11 "Generated_Source\\PSoC5/core_cm3.h"