ARM GAS  C:\Users\chemi\AppData\Local\Temp\ccmoxKgy.s 			page 1


   1              		.syntax unified
   2              		.cpu cortex-m3
   3              		.fpu softvfp
   4              		.eabi_attribute 20, 1
   5              		.eabi_attribute 21, 1
   6              		.eabi_attribute 23, 3
   7              		.eabi_attribute 24, 1
   8              		.eabi_attribute 25, 1
   9              		.eabi_attribute 26, 1
  10              		.eabi_attribute 30, 4
  11              		.eabi_attribute 34, 1
  12              		.eabi_attribute 18, 4
  13              		.thumb
  14              		.syntax unified
  15              		.file	"NoteMapper.c"
  16              		.text
  17              	.Ltext0:
  18              		.cfi_sections	.debug_frame
  19              		.section	.text.loadNewProgramm,"ax",%progbits
  20              		.align	1
  21              		.thumb
  22              		.thumb_func
  23              		.type	loadNewProgramm, %function
  24              	loadNewProgramm:
  25              	.LFB70:
  26              		.file 1 "..\\common\\vms\\NoteMapper.c"
   1:..\common\vms/NoteMapper.c **** 
   2:..\common\vms/NoteMapper.c **** #include <stdint.h>
   3:..\common\vms/NoteMapper.c **** #include <string.h>
   4:..\common\vms/NoteMapper.c **** 
   5:..\common\vms/NoteMapper.c **** #include "FreeRTOS.h"
   6:..\common\vms/NoteMapper.c **** #include "task.h"
   7:..\common\vms/NoteMapper.c **** #include "DLL/include/DLL.h"
   8:..\common\vms/NoteMapper.c **** #include "NoteMapper.h"
   9:..\common\vms/NoteMapper.c **** #include "MidiProcessor.h"
  10:..\common\vms/NoteMapper.c **** #include "SignalGenerator.h"
  11:..\common\vms/NoteMapper.c **** #include "VMS.h"
  12:..\common\vms/NoteMapper.c **** #include "VMSWrapper.h"
  13:..\common\vms/NoteMapper.c **** #include "helper/nvm.h"
  14:..\common\vms/NoteMapper.c **** #include "interrupter.h"
  15:..\common\vms/NoteMapper.c **** #include "cli_common.h"
  16:..\common\vms/NoteMapper.c **** #include "tasks/tsk_cli.h"
  17:..\common\vms/NoteMapper.c **** 
  18:..\common\vms/NoteMapper.c **** static MAPTABLE_HEADER_t * channelMap[MIDI_CHANNELCOUNT];
  19:..\common\vms/NoteMapper.c **** static uint32_t Mapper_getNextVoice(uint8_t note, uint8_t channel);
  20:..\common\vms/NoteMapper.c **** static uint32_t mapMemorySize = MAPPER_MAPMEM_SIZE;
  21:..\common\vms/NoteMapper.c **** 
  22:..\common\vms/NoteMapper.c **** const struct{
  23:..\common\vms/NoteMapper.c ****     MAPTABLE_HEADER_t h0;
  24:..\common\vms/NoteMapper.c ****     MAPTABLE_ENTRY_t h0e0;
  25:..\common\vms/NoteMapper.c **** } DEFMAP = {.h0 = {.programNumberStart = 0, .programNumberEnd = 0x7f, .listEntries = 1} , .h0e0 = {
  26:..\common\vms/NoteMapper.c **** 
  27:..\common\vms/NoteMapper.c **** void Mapper_init(){
  28:..\common\vms/NoteMapper.c ****     memset(channelMap, 0, sizeof(MAPTABLE_ENTRY_t*) * MIDI_CHANNELCOUNT);
  29:..\common\vms/NoteMapper.c **** }
  30:..\common\vms/NoteMapper.c **** 
  31:..\common\vms/NoteMapper.c **** static uint32_t isHeaderValid(MAPTABLE_HEADER_t * header){
ARM GAS  C:\Users\chemi\AppData\Local\Temp\ccmoxKgy.s 			page 2


  32:..\common\vms/NoteMapper.c ****     return header->listEntries != 0 && header->listEntries != 0xff;
  33:..\common\vms/NoteMapper.c **** }
  34:..\common\vms/NoteMapper.c **** 
  35:..\common\vms/NoteMapper.c **** static void loadNewProgramm(uint32_t channel, uint32_t programm){
  27              		.loc 1 35 0
  28              		.cfi_startproc
  29              		@ args = 0, pretend = 0, frame = 0
  30              		@ frame_needed = 0, uses_anonymous_args = 0
  31              	.LVL0:
  36:..\common\vms/NoteMapper.c ****     //unlike in the MidiBox implementation the map list will always remain in flash instead of bein
  37:..\common\vms/NoteMapper.c ****     //TERM_printDebug(min_handle[1], "loading mapentry\r\n");               
  38:..\common\vms/NoteMapper.c ****     
  39:..\common\vms/NoteMapper.c ****     //find map in NVM
  40:..\common\vms/NoteMapper.c ****     channelMap[channel] = NULL;
  41:..\common\vms/NoteMapper.c ****     
  42:..\common\vms/NoteMapper.c ****     //go through all headers in the table and find the one we need
  43:..\common\vms/NoteMapper.c ****     MAPTABLE_HEADER_t * currHeader = (MAPTABLE_HEADER_t *) NVM_mapMem;
  32              		.loc 1 43 0
  33 0000 154A     		ldr	r2, .L11
  35:..\common\vms/NoteMapper.c ****     //unlike in the MidiBox implementation the map list will always remain in flash instead of bein
  34              		.loc 1 35 0
  35 0002 F0B5     		push	{r4, r5, r6, r7, lr}
  36              		.cfi_def_cfa_offset 20
  37              		.cfi_offset 4, -20
  38              		.cfi_offset 5, -16
  39              		.cfi_offset 6, -12
  40              		.cfi_offset 7, -8
  41              		.cfi_offset 14, -4
  42              		.loc 1 43 0
  43 0004 1668     		ldr	r6, [r2]
  44              	.LVL1:
  40:..\common\vms/NoteMapper.c ****     
  45              		.loc 1 40 0
  46 0006 154C     		ldr	r4, .L11+4
  47              		.loc 1 43 0
  48 0008 3246     		mov	r2, r6
  40:..\common\vms/NoteMapper.c ****     
  49              		.loc 1 40 0
  50 000a 0023     		movs	r3, #0
  51 000c 44F82030 		str	r3, [r4, r0, lsl #2]
  52              	.LVL2:
  53              	.L5:
  44:..\common\vms/NoteMapper.c ****     uint32_t currOffset = 0;
  45:..\common\vms/NoteMapper.c ****     while(1){
  46:..\common\vms/NoteMapper.c ****         
  47:..\common\vms/NoteMapper.c ****         //is the map uninialized?
  48:..\common\vms/NoteMapper.c ****         if(currHeader->listEntries == 0 || currHeader->listEntries == 0xff){
  54              		.loc 1 48 0
  55 0010 1778     		ldrb	r7, [r2]	@ zero_extendqisi2
  56 0012 7D1E     		subs	r5, r7, #1
  57 0014 EDB2     		uxtb	r5, r5
  58 0016 FD2D     		cmp	r5, #253
  59 0018 16D8     		bhi	.L2
  49:..\common\vms/NoteMapper.c ****             //yes map is not initialized => we reached the end
  50:..\common\vms/NoteMapper.c ****             break;
  51:..\common\vms/NoteMapper.c ****             
  52:..\common\vms/NoteMapper.c ****         //does this header match the program number we are looking for?
ARM GAS  C:\Users\chemi\AppData\Local\Temp\ccmoxKgy.s 			page 3


  53:..\common\vms/NoteMapper.c ****         }else if(currHeader->programNumberStart <= programm && currHeader->programNumberEnd >= prog
  60              		.loc 1 53 0
  61 001a 5578     		ldrb	r5, [r2, #1]	@ zero_extendqisi2
  62 001c 8D42     		cmp	r5, r1
  63 001e 06D8     		bhi	.L3
  64              		.loc 1 53 0 is_stmt 0 discriminator 1
  65 0020 92F802E0 		ldrb	lr, [r2, #2]	@ zero_extendqisi2
  66 0024 7145     		cmp	r1, lr
  67 0026 02D8     		bhi	.L3
  54:..\common\vms/NoteMapper.c ****             //yes!  assign it to the channel
  55:..\common\vms/NoteMapper.c ****             channelMap[channel] = currHeader;
  68              		.loc 1 55 0 is_stmt 1
  69 0028 44F82020 		str	r2, [r4, r0, lsl #2]
  56:..\common\vms/NoteMapper.c ****             break;
  70              		.loc 1 56 0
  71 002c 0CE0     		b	.L2
  72              	.L3:
  57:..\common\vms/NoteMapper.c ****         }else if(currHeader->programNumberStart == 0xff && currHeader->programNumberEnd == 0xff){
  73              		.loc 1 57 0
  74 002e FF2D     		cmp	r5, #255
  75 0030 02D1     		bne	.L4
  76              		.loc 1 57 0 is_stmt 0 discriminator 1
  77 0032 9278     		ldrb	r2, [r2, #2]	@ zero_extendqisi2
  78              	.LVL3:
  79 0034 FF2A     		cmp	r2, #255
  80 0036 07D0     		beq	.L2
  81              	.L4:
  58:..\common\vms/NoteMapper.c ****             //we reached the end of usable data without finding anything :(
  59:..\common\vms/NoteMapper.c ****             break;
  60:..\common\vms/NoteMapper.c ****         }
  61:..\common\vms/NoteMapper.c **** 
  62:..\common\vms/NoteMapper.c ****         //no, update offset to the next header
  63:..\common\vms/NoteMapper.c ****         currOffset += sizeof(MAPTABLE_HEADER_t) + currHeader->listEntries * sizeof(MAPTABLE_ENTRY_t
  82              		.loc 1 63 0 is_stmt 1
  83 0038 03EBC703 		add	r3, r3, r7, lsl #3
  84              	.LVL4:
  85 003c 1533     		adds	r3, r3, #21
  86              	.LVL5:
  64:..\common\vms/NoteMapper.c ****         
  65:..\common\vms/NoteMapper.c ****         if(currOffset >= MAPMEM_SIZE) break;
  87              		.loc 1 65 0
  88 003e B3F5804F 		cmp	r3, #16384
  89 0042 01D2     		bcs	.L2
  66:..\common\vms/NoteMapper.c ****         
  67:..\common\vms/NoteMapper.c ****         //and assign the new pointer
  68:..\common\vms/NoteMapper.c ****         currHeader = (MAPTABLE_HEADER_t *) &NVM_mapMem[currOffset];
  90              		.loc 1 68 0
  91 0044 F218     		adds	r2, r6, r3
  92              	.LVL6:
  69:..\common\vms/NoteMapper.c ****     }
  93              		.loc 1 69 0
  94 0046 E3E7     		b	.L5
  95              	.LVL7:
  96              	.L2:
  70:..\common\vms/NoteMapper.c **** 
  71:..\common\vms/NoteMapper.c ****     //did we find the required map? If not: set the default map
  72:..\common\vms/NoteMapper.c ****     if(channelMap[channel] == NULL) channelMap[channel] = (MAPTABLE_HEADER_t *) &DEFMAP;        
ARM GAS  C:\Users\chemi\AppData\Local\Temp\ccmoxKgy.s 			page 4


  97              		.loc 1 72 0
  98 0048 54F82030 		ldr	r3, [r4, r0, lsl #2]
  99              	.LVL8:
 100 004c 1BB9     		cbnz	r3, .L1
 101              		.loc 1 72 0 is_stmt 0 discriminator 1
 102 004e 044A     		ldr	r2, .L11+8
 103 0050 024B     		ldr	r3, .L11+4
 104 0052 43F82020 		str	r2, [r3, r0, lsl #2]
 105              	.L1:
 106 0056 F0BD     		pop	{r4, r5, r6, r7, pc}
 107              	.L12:
 108              		.align	2
 109              	.L11:
 110 0058 00000000 		.word	NVM_mapMem
 111 005c 00000000 		.word	.LANCHOR0
 112 0060 00000000 		.word	.LANCHOR1
 113              		.cfi_endproc
 114              	.LFE70:
 115              		.size	loadNewProgramm, .-loadNewProgramm
 116              		.section	.text.Mapper_init,"ax",%progbits
 117              		.align	1
 118              		.global	Mapper_init
 119              		.thumb
 120              		.thumb_func
 121              		.type	Mapper_init, %function
 122              	Mapper_init:
 123              	.LFB68:
  27:..\common\vms/NoteMapper.c ****     memset(channelMap, 0, sizeof(MAPTABLE_ENTRY_t*) * MIDI_CHANNELCOUNT);
 124              		.loc 1 27 0 is_stmt 1
 125              		.cfi_startproc
 126              		@ args = 0, pretend = 0, frame = 0
 127              		@ frame_needed = 0, uses_anonymous_args = 0
 128              		@ link register save eliminated.
  28:..\common\vms/NoteMapper.c **** }
 129              		.loc 1 28 0
 130 0000 4022     		movs	r2, #64
 131 0002 0021     		movs	r1, #0
 132 0004 0148     		ldr	r0, .L14
 133 0006 FFF7FEBF 		b	memset
 134              	.LVL9:
 135              	.L15:
 136 000a 00BF     		.align	2
 137              	.L14:
 138 000c 00000000 		.word	.LANCHOR0
 139              		.cfi_endproc
 140              	.LFE68:
 141              		.size	Mapper_init, .-Mapper_init
 142              		.section	.text.Mapper_getProgrammName,"ax",%progbits
 143              		.align	1
 144              		.global	Mapper_getProgrammName
 145              		.thumb
 146              		.thumb_func
 147              		.type	Mapper_getProgrammName, %function
 148              	Mapper_getProgrammName:
 149              	.LFB71:
  73:..\common\vms/NoteMapper.c **** }
  74:..\common\vms/NoteMapper.c **** 
ARM GAS  C:\Users\chemi\AppData\Local\Temp\ccmoxKgy.s 			page 5


  75:..\common\vms/NoteMapper.c **** const char * Mapper_getProgrammName(uint32_t channel){
 150              		.loc 1 75 0
 151              		.cfi_startproc
 152              		@ args = 0, pretend = 0, frame = 0
 153              		@ frame_needed = 0, uses_anonymous_args = 0
 154              		@ link register save eliminated.
 155              	.LVL10:
  76:..\common\vms/NoteMapper.c ****     //is a map loaded on the channel?
  77:..\common\vms/NoteMapper.c ****     if(channelMap[channel] == NULL){
 156              		.loc 1 77 0
 157 0000 054B     		ldr	r3, .L20
 158 0002 53F82000 		ldr	r0, [r3, r0, lsl #2]
 159              	.LVL11:
 160 0006 28B1     		cbz	r0, .L17
  78:..\common\vms/NoteMapper.c ****         //nope => return NULL
  79:..\common\vms/NoteMapper.c ****         return NULL;
  80:..\common\vms/NoteMapper.c ****     }else if(channelMap[channel] == (MAPTABLE_HEADER_t *) &DEFMAP){
 161              		.loc 1 80 0
 162 0008 044B     		ldr	r3, .L20+4
 163 000a 9842     		cmp	r0, r3
 164 000c 01D0     		beq	.L19
  81:..\common\vms/NoteMapper.c ****         //yes but its the defmap => return "DEFMAP"
  82:..\common\vms/NoteMapper.c ****         return "DEFMAP";
  83:..\common\vms/NoteMapper.c ****     }else{
  84:..\common\vms/NoteMapper.c ****         return channelMap[channel]->name;
 165              		.loc 1 84 0
 166 000e 0330     		adds	r0, r0, #3
 167 0010 7047     		bx	lr
 168              	.L19:
  82:..\common\vms/NoteMapper.c ****     }else{
 169              		.loc 1 82 0
 170 0012 0348     		ldr	r0, .L20+8
 171              	.L17:
  85:..\common\vms/NoteMapper.c ****     }
  86:..\common\vms/NoteMapper.c **** }
 172              		.loc 1 86 0
 173 0014 7047     		bx	lr
 174              	.L21:
 175 0016 00BF     		.align	2
 176              	.L20:
 177 0018 00000000 		.word	.LANCHOR0
 178 001c 00000000 		.word	.LANCHOR1
 179 0020 00000000 		.word	.LC0
 180              		.cfi_endproc
 181              	.LFE71:
 182              		.size	Mapper_getProgrammName, .-Mapper_getProgrammName
 183              		.section	.text.Mapper_bendHandler,"ax",%progbits
 184              		.align	1
 185              		.global	Mapper_bendHandler
 186              		.thumb
 187              		.thumb_func
 188              		.type	Mapper_bendHandler, %function
 189              	Mapper_bendHandler:
 190              	.LFB72:
  87:..\common\vms/NoteMapper.c **** 
  88:..\common\vms/NoteMapper.c **** void Mapper_bendHandler(uint32_t channel){
 191              		.loc 1 88 0
ARM GAS  C:\Users\chemi\AppData\Local\Temp\ccmoxKgy.s 			page 6


 192              		.cfi_startproc
 193              		@ args = 0, pretend = 0, frame = 0
 194              		@ frame_needed = 0, uses_anonymous_args = 0
 195              		@ link register save eliminated.
 196              	.LVL12:
  89:..\common\vms/NoteMapper.c ****     VMSW_bendHandler(channel);
 197              		.loc 1 89 0
 198 0000 FFF7FEBF 		b	VMSW_bendHandler
 199              	.LVL13:
 200              		.cfi_endproc
 201              	.LFE72:
 202              		.size	Mapper_bendHandler, .-Mapper_bendHandler
 203              		.section	.text.Mapper_volumeChangeHandler,"ax",%progbits
 204              		.align	1
 205              		.global	Mapper_volumeChangeHandler
 206              		.thumb
 207              		.thumb_func
 208              		.type	Mapper_volumeChangeHandler, %function
 209              	Mapper_volumeChangeHandler:
 210              	.LFB73:
  90:..\common\vms/NoteMapper.c **** }
  91:..\common\vms/NoteMapper.c **** 
  92:..\common\vms/NoteMapper.c **** void Mapper_volumeChangeHandler(uint32_t channel){
 211              		.loc 1 92 0
 212              		.cfi_startproc
 213              		@ args = 0, pretend = 0, frame = 0
 214              		@ frame_needed = 0, uses_anonymous_args = 0
 215              		@ link register save eliminated.
 216              	.LVL14:
  93:..\common\vms/NoteMapper.c ****     VMSW_volumeChangeHandler(channel);
 217              		.loc 1 93 0
 218 0000 FFF7FEBF 		b	VMSW_volumeChangeHandler
 219              	.LVL15:
 220              		.cfi_endproc
 221              	.LFE73:
 222              		.size	Mapper_volumeChangeHandler, .-Mapper_volumeChangeHandler
 223              		.section	.text.Mapper_noteOffEventHandler,"ax",%progbits
 224              		.align	1
 225              		.global	Mapper_noteOffEventHandler
 226              		.thumb
 227              		.thumb_func
 228              		.type	Mapper_noteOffEventHandler, %function
 229              	Mapper_noteOffEventHandler:
 230              	.LFB74:
  94:..\common\vms/NoteMapper.c **** }
  95:..\common\vms/NoteMapper.c **** 
  96:..\common\vms/NoteMapper.c **** void Mapper_noteOffEventHandler(uint32_t output, uint32_t note, uint32_t channel){
 231              		.loc 1 96 0
 232              		.cfi_startproc
 233              		@ args = 0, pretend = 0, frame = 0
 234              		@ frame_needed = 0, uses_anonymous_args = 0
 235              		@ link register save eliminated.
 236              	.LVL16:
  97:..\common\vms/NoteMapper.c ****     VMSW_stopNote(output, note, channel);
 237              		.loc 1 97 0
 238 0000 FFF7FEBF 		b	VMSW_stopNote
 239              	.LVL17:
ARM GAS  C:\Users\chemi\AppData\Local\Temp\ccmoxKgy.s 			page 7


 240              		.cfi_endproc
 241              	.LFE74:
 242              		.size	Mapper_noteOffEventHandler, .-Mapper_noteOffEventHandler
 243              		.section	.text.Mapper_programmChangeHandler,"ax",%progbits
 244              		.align	1
 245              		.global	Mapper_programmChangeHandler
 246              		.thumb
 247              		.thumb_func
 248              		.type	Mapper_programmChangeHandler, %function
 249              	Mapper_programmChangeHandler:
 250              	.LFB75:
  98:..\common\vms/NoteMapper.c **** }
  99:..\common\vms/NoteMapper.c **** 
 100:..\common\vms/NoteMapper.c **** void Mapper_programmChangeHandler(uint32_t channel, uint32_t programm){
 251              		.loc 1 100 0
 252              		.cfi_startproc
 253              		@ args = 0, pretend = 0, frame = 0
 254              		@ frame_needed = 0, uses_anonymous_args = 0
 255              		@ link register save eliminated.
 256              	.LVL18:
 101:..\common\vms/NoteMapper.c ****     loadNewProgramm(channel, programm);
 257              		.loc 1 101 0
 258 0000 FFF7FEBF 		b	loadNewProgramm
 259              	.LVL19:
 260              		.cfi_endproc
 261              	.LFE75:
 262              		.size	Mapper_programmChangeHandler, .-Mapper_programmChangeHandler
 263              		.section	.text.Mapper_noteOnEventHandler,"ax",%progbits
 264              		.align	1
 265              		.global	Mapper_noteOnEventHandler
 266              		.thumb
 267              		.thumb_func
 268              		.type	Mapper_noteOnEventHandler, %function
 269              	Mapper_noteOnEventHandler:
 270              	.LFB76:
 102:..\common\vms/NoteMapper.c **** }
 103:..\common\vms/NoteMapper.c **** 
 104:..\common\vms/NoteMapper.c **** void Mapper_noteOnEventHandler(uint32_t output, uint32_t note, uint32_t velocity, uint32_t channel,
 271              		.loc 1 104 0
 272              		.cfi_startproc
 273              		@ args = 4, pretend = 0, frame = 40
 274              		@ frame_needed = 0, uses_anonymous_args = 0
 275              	.LVL20:
 276 0000 2DE9F04F 		push	{r4, r5, r6, r7, r8, r9, r10, fp, lr}
 277              		.cfi_def_cfa_offset 36
 278              		.cfi_offset 4, -36
 279              		.cfi_offset 5, -32
 280              		.cfi_offset 6, -28
 281              		.cfi_offset 7, -24
 282              		.cfi_offset 8, -20
 283              		.cfi_offset 9, -16
 284              		.cfi_offset 10, -12
 285              		.cfi_offset 11, -8
 286              		.cfi_offset 14, -4
 287 0004 1C46     		mov	r4, r3
 105:..\common\vms/NoteMapper.c ****     //does the map loaded still match the one required?
 106:..\common\vms/NoteMapper.c ****     if(channelMap[channel] == 0 || (channelMap[channel]->programNumberStart > programm || channelMa
ARM GAS  C:\Users\chemi\AppData\Local\Temp\ccmoxKgy.s 			page 8


 288              		.loc 1 106 0
 289 0006 514B     		ldr	r3, .L57
 290              	.LVL21:
 104:..\common\vms/NoteMapper.c ****     //does the map loaded still match the one required?
 291              		.loc 1 104 0
 292 0008 9046     		mov	r8, r2
 293              		.loc 1 106 0
 294 000a 53F82420 		ldr	r2, [r3, r4, lsl #2]
 295              	.LVL22:
 104:..\common\vms/NoteMapper.c ****     //does the map loaded still match the one required?
 296              		.loc 1 104 0
 297 000e 91B0     		sub	sp, sp, #68
 298              		.cfi_def_cfa_offset 104
 104:..\common\vms/NoteMapper.c ****     //does the map loaded still match the one required?
 299              		.loc 1 104 0
 300 0010 0F46     		mov	r7, r1
 301 0012 8146     		mov	r9, r0
 302 0014 1A99     		ldr	r1, [sp, #104]
 303              	.LVL23:
 304 0016 1D46     		mov	r5, r3
 305              		.loc 1 106 0
 306 0018 2AB1     		cbz	r2, .L27
 307              		.loc 1 106 0 is_stmt 0 discriminator 1
 308 001a 5378     		ldrb	r3, [r2, #1]	@ zero_extendqisi2
 309 001c 8B42     		cmp	r3, r1
 310 001e 02D8     		bhi	.L27
 311              		.loc 1 106 0 discriminator 2
 312 0020 9378     		ldrb	r3, [r2, #2]	@ zero_extendqisi2
 313 0022 9942     		cmp	r1, r3
 314 0024 02D9     		bls	.L28
 315              	.L27:
 107:..\common\vms/NoteMapper.c ****         //reload the new data
 108:..\common\vms/NoteMapper.c ****         loadNewProgramm(channel, programm);
 316              		.loc 1 108 0 is_stmt 1
 317 0026 2046     		mov	r0, r4
 318              	.LVL24:
 319 0028 FFF7FEFF 		bl	loadNewProgramm
 320              	.LVL25:
 321              	.L28:
 322              	.LBB2:
 109:..\common\vms/NoteMapper.c ****     }
 110:..\common\vms/NoteMapper.c ****     
 111:..\common\vms/NoteMapper.c ****     uint32_t requestedVoiceCount = 0;
 112:..\common\vms/NoteMapper.c ****     MAPTABLE_ENTRY_t * entries[SIGGEN_VOICECOUNT];
 113:..\common\vms/NoteMapper.c ****     
 114:..\common\vms/NoteMapper.c ****     //find entry matching our note
 115:..\common\vms/NoteMapper.c ****     MAPTABLE_ENTRY_t * currEntry = NULL;
 116:..\common\vms/NoteMapper.c ****     for(uint32_t currEntryIdx = 0; currEntryIdx < channelMap[channel]->listEntries; currEntryIdx++)
 323              		.loc 1 116 0 discriminator 1
 324 002c 0022     		movs	r2, #0
 325 002e 1646     		mov	r6, r2
 326 0030 55F82430 		ldr	r3, [r5, r4, lsl #2]
 327 0034 13F8151B 		ldrb	r1, [r3], #21	@ zero_extendqisi2
 328              	.L29:
 329              	.LVL26:
 330 0038 8A42     		cmp	r2, r1
 331 003a 0ED2     		bcs	.L56
ARM GAS  C:\Users\chemi\AppData\Local\Temp\ccmoxKgy.s 			page 9


 332              	.LVL27:
 117:..\common\vms/NoteMapper.c ****         //get pointer to current entry
 118:..\common\vms/NoteMapper.c ****         currEntry = MAPPER_ENTRY_FROM_HEADER(channelMap[channel], currEntryIdx);
 119:..\common\vms/NoteMapper.c ****           
 120:..\common\vms/NoteMapper.c ****         //does the note fall within the range of the current header entry?
 121:..\common\vms/NoteMapper.c ****         if(note >= currEntry->startNote && note <= currEntry->endNote){
 333              		.loc 1 121 0
 334 003c 1878     		ldrb	r0, [r3]	@ zero_extendqisi2
 335 003e B842     		cmp	r0, r7
 336 0040 08D8     		bhi	.L30
 337              	.LVL28:
 338              		.loc 1 121 0 is_stmt 0 discriminator 1
 339 0042 5878     		ldrb	r0, [r3, #1]	@ zero_extendqisi2
 340 0044 8742     		cmp	r7, r0
 122:..\common\vms/NoteMapper.c ****             //yes :) add entry to the list of ones to process
 123:..\common\vms/NoteMapper.c ****             entries[requestedVoiceCount++] = currEntry;
 341              		.loc 1 123 0 is_stmt 1 discriminator 1
 342 0046 9FBF     		itttt	ls
 343 0048 10A8     		addls	r0, sp, #64
 344 004a 00EB8600 		addls	r0, r0, r6, lsl #2
 345 004e 40F8183C 		strls	r3, [r0, #-24]
 346 0052 0136     		addls	r6, r6, #1
 347              	.LVL29:
 348              	.L30:
 116:..\common\vms/NoteMapper.c ****         //get pointer to current entry
 349              		.loc 1 116 0 discriminator 2
 350 0054 0132     		adds	r2, r2, #1
 351              	.LVL30:
 352 0056 0833     		adds	r3, r3, #8
 353              	.LVL31:
 354 0058 EEE7     		b	.L29
 355              	.LVL32:
 356              	.L56:
 357              	.LBE2:
 124:..\common\vms/NoteMapper.c ****         }else{
 125:..\common\vms/NoteMapper.c ****             //no, make sure to NULL the pointer, incase the loop ends after this entry. We need to 
 126:..\common\vms/NoteMapper.c ****             currEntry = NULL;
 127:..\common\vms/NoteMapper.c ****         }
 128:..\common\vms/NoteMapper.c ****     }
 129:..\common\vms/NoteMapper.c ****     
 130:..\common\vms/NoteMapper.c ****     //did we find at least one entry?
 131:..\common\vms/NoteMapper.c ****     if(requestedVoiceCount == 0){
 358              		.loc 1 131 0
 359 005a 002E     		cmp	r6, #0
 360 005c 73D0     		beq	.L26
 361 005e 0025     		movs	r5, #0
 362              	.LBB3:
 363              	.LBB4:
 132:..\common\vms/NoteMapper.c ****         //no, this means no entry deals with the note currently played, aka it will be silent
 133:..\common\vms/NoteMapper.c ****         return;
 134:..\common\vms/NoteMapper.c ****     }
 135:..\common\vms/NoteMapper.c ****     
 136:..\common\vms/NoteMapper.c ****     //yes! now prepare the data for VMS
 137:..\common\vms/NoteMapper.c ****     for(uint32_t i = 0; i < requestedVoiceCount; i++){
 138:..\common\vms/NoteMapper.c ****         MAPTABLE_DATA_t *data = &(entries[i]->data);
 139:..\common\vms/NoteMapper.c ****         
 140:..\common\vms/NoteMapper.c ****         //TODO maybe add an offset to this in the map?
ARM GAS  C:\Users\chemi\AppData\Local\Temp\ccmoxKgy.s 			page 10


 141:..\common\vms/NoteMapper.c ****         uint32_t targetOnTime_us = param.pw;
 142:..\common\vms/NoteMapper.c ****     
 143:..\common\vms/NoteMapper.c ****         volatile uint32_t targetVolume = (MAX_VOL * data->targetOT) / MAPPER_VOLUME_MAX;
 364              		.loc 1 143 0
 365 0060 4FF0FF0A 		mov	r10, #255
 366              	.LVL33:
 367              	.L38:
 138:..\common\vms/NoteMapper.c ****         
 368              		.loc 1 138 0
 369 0064 0AAB     		add	r3, sp, #40
 370 0066 53F825B0 		ldr	fp, [r3, r5, lsl #2]
 371              	.LVL34:
 141:..\common\vms/NoteMapper.c ****     
 372              		.loc 1 141 0
 373 006a 394B     		ldr	r3, .L57+4
 374 006c 1B88     		ldrh	r3, [r3]
 375 006e 0693     		str	r3, [sp, #24]
 376              	.LVL35:
 377              		.loc 1 143 0
 378 0070 9BF80430 		ldrb	r3, [fp, #4]	@ zero_extendqisi2
 379              	.LVL36:
 380 0074 C3EBC333 		rsb	r3, r3, r3, lsl #15
 381 0078 93FBFAF3 		sdiv	r3, r3, r10
 382 007c 0893     		str	r3, [sp, #32]
 144:..\common\vms/NoteMapper.c ****         uint32_t baseVolume = targetVolume;
 383              		.loc 1 144 0
 384 007e 089B     		ldr	r3, [sp, #32]
 385 0080 0793     		str	r3, [sp, #28]
 386              	.LVL37:
 145:..\common\vms/NoteMapper.c ****         
 146:..\common\vms/NoteMapper.c ****         volatile uint32_t targetFrequency = 0;
 387              		.loc 1 146 0
 388 0082 0023     		movs	r3, #0
 389              	.LVL38:
 390 0084 0993     		str	r3, [sp, #36]
 147:..\common\vms/NoteMapper.c **** 
 148:..\common\vms/NoteMapper.c **** 
 149:..\common\vms/NoteMapper.c ****         //check which volume effects are enabled and apply them
 150:..\common\vms/NoteMapper.c ****         if(data->flags & MAP_ENA_DAMPER){
 391              		.loc 1 150 0
 392 0086 9BF80530 		ldrb	r3, [fp, #5]	@ zero_extendqisi2
 393 008a D906     		lsls	r1, r3, #27
 394 008c 0AD5     		bpl	.L33
 151:..\common\vms/NoteMapper.c ****             targetVolume *= MidiProcessor_getDamperVolume(channel);
 395              		.loc 1 151 0
 396 008e 2046     		mov	r0, r4
 397 0090 FFF7FEFF 		bl	MidiProcessor_getDamperVolume
 398              	.LVL39:
 399 0094 089B     		ldr	r3, [sp, #32]
 152:..\common\vms/NoteMapper.c ****             targetVolume /= MIDI_VOLUME_MAX;
 400              		.loc 1 152 0
 401 0096 7F21     		movs	r1, #127
 151:..\common\vms/NoteMapper.c ****             targetVolume *= MidiProcessor_getDamperVolume(channel);
 402              		.loc 1 151 0
 403 0098 5843     		muls	r0, r3, r0
 404 009a 0890     		str	r0, [sp, #32]
 405              		.loc 1 152 0
ARM GAS  C:\Users\chemi\AppData\Local\Temp\ccmoxKgy.s 			page 11


 406 009c 089B     		ldr	r3, [sp, #32]
 407 009e B3FBF1F3 		udiv	r3, r3, r1
 408 00a2 0893     		str	r3, [sp, #32]
 409              	.L33:
 153:..\common\vms/NoteMapper.c ****         }
 154:..\common\vms/NoteMapper.c **** 
 155:..\common\vms/NoteMapper.c ****         if(data->flags & MAP_ENA_STEREO){
 410              		.loc 1 155 0
 411 00a4 9BF80530 		ldrb	r3, [fp, #5]	@ zero_extendqisi2
 412 00a8 5A06     		lsls	r2, r3, #25
 413 00aa 0AD5     		bpl	.L34
 156:..\common\vms/NoteMapper.c ****             targetVolume *= MidiProcessor_getStereoVolume(channel);
 414              		.loc 1 156 0
 415 00ac 2046     		mov	r0, r4
 416 00ae FFF7FEFF 		bl	MidiProcessor_getStereoVolume
 417              	.LVL40:
 418 00b2 089B     		ldr	r3, [sp, #32]
 157:..\common\vms/NoteMapper.c ****             targetVolume /= MIDI_VOLUME_MAX;
 419              		.loc 1 157 0
 420 00b4 7F21     		movs	r1, #127
 156:..\common\vms/NoteMapper.c ****             targetVolume *= MidiProcessor_getStereoVolume(channel);
 421              		.loc 1 156 0
 422 00b6 5843     		muls	r0, r3, r0
 423 00b8 0890     		str	r0, [sp, #32]
 424              		.loc 1 157 0
 425 00ba 089B     		ldr	r3, [sp, #32]
 426 00bc B3FBF1F3 		udiv	r3, r3, r1
 427 00c0 0893     		str	r3, [sp, #32]
 428              	.L34:
 158:..\common\vms/NoteMapper.c ****         }
 159:..\common\vms/NoteMapper.c **** 
 160:..\common\vms/NoteMapper.c ****         if(data->flags & MAP_ENA_VOLUME){
 429              		.loc 1 160 0
 430 00c2 9BF80530 		ldrb	r3, [fp, #5]	@ zero_extendqisi2
 431 00c6 9B06     		lsls	r3, r3, #26
 432 00c8 12D5     		bpl	.L35
 161:..\common\vms/NoteMapper.c ****             targetVolume *= MidiProcessor_getVolume(channel);
 433              		.loc 1 161 0
 434 00ca 2046     		mov	r0, r4
 435 00cc FFF7FEFF 		bl	MidiProcessor_getVolume
 436              	.LVL41:
 437 00d0 089B     		ldr	r3, [sp, #32]
 438 00d2 5843     		muls	r0, r3, r0
 439 00d4 0890     		str	r0, [sp, #32]
 162:..\common\vms/NoteMapper.c ****             targetVolume /= MIDI_VOLUME_MAX;
 440              		.loc 1 162 0
 441 00d6 0899     		ldr	r1, [sp, #32]
 442 00d8 7F20     		movs	r0, #127
 443 00da B1FBF0F1 		udiv	r1, r1, r0
 444 00de 0891     		str	r1, [sp, #32]
 163:..\common\vms/NoteMapper.c ****                     
 164:..\common\vms/NoteMapper.c ****             targetVolume *= velocity;
 445              		.loc 1 164 0
 446 00e0 0899     		ldr	r1, [sp, #32]
 447 00e2 08FB01F1 		mul	r1, r8, r1
 448 00e6 0891     		str	r1, [sp, #32]
 165:..\common\vms/NoteMapper.c ****             targetVolume /= MIDI_VOLUME_MAX;
ARM GAS  C:\Users\chemi\AppData\Local\Temp\ccmoxKgy.s 			page 12


 449              		.loc 1 165 0
 450 00e8 089B     		ldr	r3, [sp, #32]
 451 00ea B3FBF0F3 		udiv	r3, r3, r0
 452 00ee 0893     		str	r3, [sp, #32]
 453              	.L35:
 166:..\common\vms/NoteMapper.c ****         }
 167:..\common\vms/NoteMapper.c **** 
 168:..\common\vms/NoteMapper.c ****         if(data->flags & MAP_ENA_EQ){
 169:..\common\vms/NoteMapper.c ****             //meh this needs to happen after VMS
 170:..\common\vms/NoteMapper.c ****         }
 171:..\common\vms/NoteMapper.c **** 
 172:..\common\vms/NoteMapper.c ****         //check for note frequency effects
 173:..\common\vms/NoteMapper.c **** 
 174:..\common\vms/NoteMapper.c ****         //get note frequency from map entry and scale to tenths
 175:..\common\vms/NoteMapper.c ****         if((data->flags & MAP_FREQ_MODE) == FREQ_MODE_OFFSET){
 454              		.loc 1 175 0
 455 00f0 9BF80530 		ldrb	r3, [fp, #5]	@ zero_extendqisi2
 456 00f4 13F0010F 		tst	r3, #1
 457 00f8 BBF90230 		ldrsh	r3, [fp, #2]	@ unaligned
 458 00fc 09D0     		beq	.L36
 459              	.LBB5:
 176:..\common\vms/NoteMapper.c ****             //octave offset mode
 177:..\common\vms/NoteMapper.c ****             int16_t currNote = note + data->noteFreq;
 460              		.loc 1 177 0
 461 00fe 3B44     		add	r3, r3, r7
 462 0100 9BB2     		uxth	r3, r3
 463 0102 18B2     		sxth	r0, r3
 464              	.LVL42:
 178:..\common\vms/NoteMapper.c ****             if(currNote > 127 || currNote < 1) return;
 465              		.loc 1 178 0
 466 0104 013B     		subs	r3, r3, #1
 467 0106 7E2B     		cmp	r3, #126
 468 0108 1DD8     		bhi	.L26
 179:..\common\vms/NoteMapper.c ****             targetFrequency = MidiProcessor_noteToFrequency_dHz(currNote);
 469              		.loc 1 179 0
 470 010a FFF7FEFF 		bl	MidiProcessor_noteToFrequency_dHz
 471              	.LVL43:
 472 010e 0990     		str	r0, [sp, #36]
 473              	.LBE5:
 474 0110 02E0     		b	.L37
 475              	.L36:
 180:..\common\vms/NoteMapper.c ****         }else{
 181:..\common\vms/NoteMapper.c ****             //fixed frequency mode
 182:..\common\vms/NoteMapper.c ****             targetFrequency = data->noteFreq * 10;
 476              		.loc 1 182 0
 477 0112 0A21     		movs	r1, #10
 478 0114 4B43     		muls	r3, r1, r3
 479 0116 0993     		str	r3, [sp, #36]
 480              	.L37:
 183:..\common\vms/NoteMapper.c ****         }
 184:..\common\vms/NoteMapper.c **** 
 185:..\common\vms/NoteMapper.c ****         if(data->flags & MAP_ENA_PORTAMENTO){
 186:..\common\vms/NoteMapper.c ****             /*
 187:..\common\vms/NoteMapper.c ****              * portamento will be handled differently in this version:
 188:..\common\vms/NoteMapper.c ****              * 
 189:..\common\vms/NoteMapper.c ****              * instead of using a VMS_LIN block with a custom slope to shift the frequency around w
 190:..\common\vms/NoteMapper.c ****              * this will scale the frequency between frequencyTarget and lastFrequency across a val
ARM GAS  C:\Users\chemi\AppData\Local\Temp\ccmoxKgy.s 			page 13


 191:..\common\vms/NoteMapper.c ****              * 
 192:..\common\vms/NoteMapper.c ****              * A new portamento block will then be a VMS_LIN of portamentoFactor
 193:..\common\vms/NoteMapper.c ****              */
 194:..\common\vms/NoteMapper.c ****             
 195:..\common\vms/NoteMapper.c ****             //TODO ?
 196:..\common\vms/NoteMapper.c ****         }
 197:..\common\vms/NoteMapper.c ****         
 198:..\common\vms/NoteMapper.c ****         VMSW_startNote(output, data->startblockID, note, channel, targetOnTime_us, targetVolume, ta
 481              		.loc 1 198 0
 482 0118 079A     		ldr	r2, [sp, #28]
 483 011a 089B     		ldr	r3, [sp, #32]
 484 011c BBF80610 		ldrh	r1, [fp, #6]	@ unaligned
 485 0120 CDF81480 		str	r8, [sp, #20]
 486 0124 0492     		str	r2, [sp, #16]
 487 0126 9BF80520 		ldrb	r2, [fp, #5]	@ zero_extendqisi2
 488 012a 0998     		ldr	r0, [sp, #36]
 489 012c 0193     		str	r3, [sp, #4]
 490 012e 069B     		ldr	r3, [sp, #24]
 491 0130 0392     		str	r2, [sp, #12]
 492 0132 0290     		str	r0, [sp, #8]
 493 0134 0093     		str	r3, [sp]
 494 0136 3A46     		mov	r2, r7
 495 0138 2346     		mov	r3, r4
 496 013a 4846     		mov	r0, r9
 497              	.LBE4:
 137:..\common\vms/NoteMapper.c ****         MAPTABLE_DATA_t *data = &(entries[i]->data);
 498              		.loc 1 137 0
 499 013c 0135     		adds	r5, r5, #1
 500              	.LVL44:
 501              	.LBB6:
 502              		.loc 1 198 0
 503 013e FFF7FEFF 		bl	VMSW_startNote
 504              	.LVL45:
 505              	.LBE6:
 137:..\common\vms/NoteMapper.c ****         MAPTABLE_DATA_t *data = &(entries[i]->data);
 506              		.loc 1 137 0
 507 0142 AE42     		cmp	r6, r5
 508 0144 8ED1     		bne	.L38
 509              	.LVL46:
 510              	.L26:
 511              	.LBE3:
 199:..\common\vms/NoteMapper.c ****     }
 200:..\common\vms/NoteMapper.c **** }
 512              		.loc 1 200 0
 513 0146 11B0     		add	sp, sp, #68
 514              		.cfi_def_cfa_offset 36
 515              		@ sp needed
 516 0148 BDE8F08F 		pop	{r4, r5, r6, r7, r8, r9, r10, fp, pc}
 517              	.LVL47:
 518              	.L58:
 519              		.align	2
 520              	.L57:
 521 014c 00000000 		.word	.LANCHOR0
 522 0150 00000000 		.word	param
 523              		.cfi_endproc
 524              	.LFE76:
 525              		.size	Mapper_noteOnEventHandler, .-Mapper_noteOnEventHandler
ARM GAS  C:\Users\chemi\AppData\Local\Temp\ccmoxKgy.s 			page 14


 526              		.section	.text.MAPPER_convertToLegayMapEntry,"ax",%progbits
 527              		.align	1
 528              		.global	MAPPER_convertToLegayMapEntry
 529              		.thumb
 530              		.thumb_func
 531              		.type	MAPPER_convertToLegayMapEntry, %function
 532              	MAPPER_convertToLegayMapEntry:
 533              	.LFB77:
 201:..\common\vms/NoteMapper.c **** 
 202:..\common\vms/NoteMapper.c **** void MAPPER_convertToLegayMapEntry(LegayMapEntry_t * dst, MAPTABLE_ENTRY_t * src){
 534              		.loc 1 202 0
 535              		.cfi_startproc
 536              		@ args = 0, pretend = 0, frame = 0
 537              		@ frame_needed = 0, uses_anonymous_args = 0
 538              		@ link register save eliminated.
 539              	.LVL48:
 203:..\common\vms/NoteMapper.c ****     if(src == NULL || dst == NULL) return;
 540              		.loc 1 203 0
 541 0000 79B1     		cbz	r1, .L59
 542              		.loc 1 203 0 is_stmt 0 discriminator 1
 543 0002 70B1     		cbz	r0, .L59
 204:..\common\vms/NoteMapper.c ****     
 205:..\common\vms/NoteMapper.c ****     dst->startNote = src->startNote;
 544              		.loc 1 205 0 is_stmt 1
 545 0004 0B78     		ldrb	r3, [r1]	@ zero_extendqisi2
 546 0006 0370     		strb	r3, [r0]
 206:..\common\vms/NoteMapper.c ****     dst->endNote = src->endNote;
 547              		.loc 1 206 0
 548 0008 4B78     		ldrb	r3, [r1, #1]	@ zero_extendqisi2
 549 000a 4370     		strb	r3, [r0, #1]
 207:..\common\vms/NoteMapper.c ****     
 208:..\common\vms/NoteMapper.c ****     dst->data.flags = src->data.flags;
 550              		.loc 1 208 0
 551 000c 4B79     		ldrb	r3, [r1, #5]	@ zero_extendqisi2
 552 000e 4371     		strb	r3, [r0, #5]
 209:..\common\vms/NoteMapper.c ****     dst->data.noteFreq = src->data.noteFreq;
 553              		.loc 1 209 0
 554 0010 B1F90230 		ldrsh	r3, [r1, #2]	@ unaligned
 555 0014 4380     		strh	r3, [r0, #2]	@ unaligned
 210:..\common\vms/NoteMapper.c ****     dst->data.startblockID = src->data.startblockID + 1;
 556              		.loc 1 210 0
 557 0016 CB88     		ldrh	r3, [r1, #6]	@ unaligned
 558 0018 0133     		adds	r3, r3, #1
 559 001a C0F80630 		str	r3, [r0, #6]	@ unaligned
 211:..\common\vms/NoteMapper.c ****     dst->data.targetOT = src->data.targetOT;
 560              		.loc 1 211 0
 561 001e 0B79     		ldrb	r3, [r1, #4]	@ zero_extendqisi2
 562 0020 0371     		strb	r3, [r0, #4]
 563              	.L59:
 564 0022 7047     		bx	lr
 565              		.cfi_endproc
 566              	.LFE77:
 567              		.size	MAPPER_convertToLegayMapEntry, .-MAPPER_convertToLegayMapEntry
 568              		.section	.text.MAPPER_convertFromLegayMapEntry,"ax",%progbits
 569              		.align	1
 570              		.global	MAPPER_convertFromLegayMapEntry
 571              		.thumb
ARM GAS  C:\Users\chemi\AppData\Local\Temp\ccmoxKgy.s 			page 15


 572              		.thumb_func
 573              		.type	MAPPER_convertFromLegayMapEntry, %function
 574              	MAPPER_convertFromLegayMapEntry:
 575              	.LFB78:
 212:..\common\vms/NoteMapper.c **** }
 213:..\common\vms/NoteMapper.c **** 
 214:..\common\vms/NoteMapper.c **** void MAPPER_convertFromLegayMapEntry(MAPTABLE_ENTRY_t * dst, LegayMapEntry_t * src){
 576              		.loc 1 214 0
 577              		.cfi_startproc
 578              		@ args = 0, pretend = 0, frame = 0
 579              		@ frame_needed = 0, uses_anonymous_args = 0
 580              		@ link register save eliminated.
 581              	.LVL49:
 215:..\common\vms/NoteMapper.c ****     if(src == NULL || dst == NULL) return;
 582              		.loc 1 215 0
 583 0000 79B1     		cbz	r1, .L67
 584              		.loc 1 215 0 is_stmt 0 discriminator 1
 585 0002 70B1     		cbz	r0, .L67
 216:..\common\vms/NoteMapper.c ****     
 217:..\common\vms/NoteMapper.c ****     dst->startNote = src->startNote;
 586              		.loc 1 217 0 is_stmt 1
 587 0004 0B78     		ldrb	r3, [r1]	@ zero_extendqisi2
 588 0006 0370     		strb	r3, [r0]
 218:..\common\vms/NoteMapper.c ****     dst->endNote = src->endNote;
 589              		.loc 1 218 0
 590 0008 4B78     		ldrb	r3, [r1, #1]	@ zero_extendqisi2
 591 000a 4370     		strb	r3, [r0, #1]
 219:..\common\vms/NoteMapper.c ****     
 220:..\common\vms/NoteMapper.c ****     dst->data.flags = src->data.flags;
 592              		.loc 1 220 0
 593 000c 4B79     		ldrb	r3, [r1, #5]	@ zero_extendqisi2
 594 000e 4371     		strb	r3, [r0, #5]
 221:..\common\vms/NoteMapper.c ****     dst->data.noteFreq = src->data.noteFreq;
 595              		.loc 1 221 0
 596 0010 B1F90230 		ldrsh	r3, [r1, #2]	@ unaligned
 597 0014 4380     		strh	r3, [r0, #2]	@ unaligned
 222:..\common\vms/NoteMapper.c ****     dst->data.startblockID = src->data.startblockID - 1;
 598              		.loc 1 222 0
 599 0016 D1F80630 		ldr	r3, [r1, #6]	@ unaligned
 600 001a 013B     		subs	r3, r3, #1
 601 001c C380     		strh	r3, [r0, #6]	@ unaligned
 223:..\common\vms/NoteMapper.c ****     dst->data.targetOT = src->data.targetOT;
 602              		.loc 1 223 0
 603 001e 0B79     		ldrb	r3, [r1, #4]	@ zero_extendqisi2
 604 0020 0371     		strb	r3, [r0, #4]
 605              	.L67:
 606 0022 7047     		bx	lr
 607              		.cfi_endproc
 608              	.LFE78:
 609              		.size	MAPPER_convertFromLegayMapEntry, .-MAPPER_convertFromLegayMapEntry
 610              		.section	.text.MAPPER_convertToLegayMapHeader,"ax",%progbits
 611              		.align	1
 612              		.global	MAPPER_convertToLegayMapHeader
 613              		.thumb
 614              		.thumb_func
 615              		.type	MAPPER_convertToLegayMapHeader, %function
 616              	MAPPER_convertToLegayMapHeader:
ARM GAS  C:\Users\chemi\AppData\Local\Temp\ccmoxKgy.s 			page 16


 617              	.LFB79:
 224:..\common\vms/NoteMapper.c **** }
 225:..\common\vms/NoteMapper.c **** 
 226:..\common\vms/NoteMapper.c **** void MAPPER_convertToLegayMapHeader(LegayMapHeader_t * dst, MAPTABLE_HEADER_t * src){
 618              		.loc 1 226 0
 619              		.cfi_startproc
 620              		@ args = 0, pretend = 0, frame = 0
 621              		@ frame_needed = 0, uses_anonymous_args = 0
 622              		@ link register save eliminated.
 623              	.LVL50:
 227:..\common\vms/NoteMapper.c ****     if(src == NULL || dst == NULL) return;
 624              		.loc 1 227 0
 625 0000 89B1     		cbz	r1, .L75
 626              		.loc 1 227 0 is_stmt 0 discriminator 1
 627 0002 80B1     		cbz	r0, .L75
 228:..\common\vms/NoteMapper.c ****     
 229:..\common\vms/NoteMapper.c ****     dst->listEntries = src->listEntries;
 628              		.loc 1 229 0 is_stmt 1
 629 0004 0B78     		ldrb	r3, [r1]	@ zero_extendqisi2
 230:..\common\vms/NoteMapper.c ****     dst->programNumberStart = src->programNumberStart;
 231:..\common\vms/NoteMapper.c ****     memcpy(dst->name, src->name, MAPPER_MAP_NAME_LENGTH);
 630              		.loc 1 231 0
 631 0006 0230     		adds	r0, r0, #2
 632              	.LVL51:
 229:..\common\vms/NoteMapper.c ****     dst->programNumberStart = src->programNumberStart;
 633              		.loc 1 229 0
 634 0008 00F8023C 		strb	r3, [r0, #-2]
 230:..\common\vms/NoteMapper.c ****     dst->programNumberStart = src->programNumberStart;
 635              		.loc 1 230 0
 636 000c 4B78     		ldrb	r3, [r1, #1]	@ zero_extendqisi2
 637 000e 00F8013C 		strb	r3, [r0, #-1]
 638              		.loc 1 231 0
 639 0012 CB1C     		adds	r3, r1, #3
 640 0014 1331     		adds	r1, r1, #19
 641              	.LVL52:
 642              	.L77:
 643 0016 53F8042B 		ldr	r2, [r3], #4	@ unaligned
 644 001a 8B42     		cmp	r3, r1
 645 001c 40F8042B 		str	r2, [r0], #4	@ unaligned
 646 0020 F9D1     		bne	.L77
 647 0022 1B88     		ldrh	r3, [r3]	@ unaligned
 648 0024 0380     		strh	r3, [r0]	@ unaligned
 649              	.LVL53:
 650              	.L75:
 651 0026 7047     		bx	lr
 652              		.cfi_endproc
 653              	.LFE79:
 654              		.size	MAPPER_convertToLegayMapHeader, .-MAPPER_convertToLegayMapHeader
 655              		.section	.text.MAPPER_convertFromLegayMapHeader,"ax",%progbits
 656              		.align	1
 657              		.global	MAPPER_convertFromLegayMapHeader
 658              		.thumb
 659              		.thumb_func
 660              		.type	MAPPER_convertFromLegayMapHeader, %function
 661              	MAPPER_convertFromLegayMapHeader:
 662              	.LFB80:
 232:..\common\vms/NoteMapper.c **** }
ARM GAS  C:\Users\chemi\AppData\Local\Temp\ccmoxKgy.s 			page 17


 233:..\common\vms/NoteMapper.c **** 
 234:..\common\vms/NoteMapper.c **** void MAPPER_convertFromLegayMapHeader(MAPTABLE_HEADER_t * dst, LegayMapHeader_t * src){
 663              		.loc 1 234 0
 664              		.cfi_startproc
 665              		@ args = 0, pretend = 0, frame = 0
 666              		@ frame_needed = 0, uses_anonymous_args = 0
 667              		@ link register save eliminated.
 668              	.LVL54:
 235:..\common\vms/NoteMapper.c ****     if(src == NULL || dst == NULL) return;
 669              		.loc 1 235 0
 670 0000 A1B1     		cbz	r1, .L85
 671              		.loc 1 235 0 is_stmt 0 discriminator 1
 672 0002 98B1     		cbz	r0, .L85
 236:..\common\vms/NoteMapper.c ****     
 237:..\common\vms/NoteMapper.c ****     dst->listEntries = src->listEntries;
 673              		.loc 1 237 0 is_stmt 1
 674 0004 0B78     		ldrb	r3, [r1]	@ zero_extendqisi2
 238:..\common\vms/NoteMapper.c ****     dst->programNumberStart = src->programNumberStart;
 239:..\common\vms/NoteMapper.c ****     dst->programNumberEnd = src->programNumberStart;
 240:..\common\vms/NoteMapper.c ****     memcpy(dst->name, src->name, MAPPER_MAP_NAME_LENGTH);
 675              		.loc 1 240 0
 676 0006 0330     		adds	r0, r0, #3
 677              	.LVL55:
 237:..\common\vms/NoteMapper.c ****     dst->programNumberStart = src->programNumberStart;
 678              		.loc 1 237 0
 679 0008 00F8033C 		strb	r3, [r0, #-3]
 238:..\common\vms/NoteMapper.c ****     dst->programNumberStart = src->programNumberStart;
 680              		.loc 1 238 0
 681 000c 4B78     		ldrb	r3, [r1, #1]	@ zero_extendqisi2
 682 000e 00F8023C 		strb	r3, [r0, #-2]
 239:..\common\vms/NoteMapper.c ****     memcpy(dst->name, src->name, MAPPER_MAP_NAME_LENGTH);
 683              		.loc 1 239 0
 684 0012 4B78     		ldrb	r3, [r1, #1]	@ zero_extendqisi2
 685 0014 00F8013C 		strb	r3, [r0, #-1]
 686              		.loc 1 240 0
 687 0018 8B1C     		adds	r3, r1, #2
 688 001a 1231     		adds	r1, r1, #18
 689              	.LVL56:
 690              	.L87:
 691 001c 53F8042B 		ldr	r2, [r3], #4	@ unaligned
 692 0020 8B42     		cmp	r3, r1
 693 0022 40F8042B 		str	r2, [r0], #4	@ unaligned
 694 0026 F9D1     		bne	.L87
 695 0028 1B88     		ldrh	r3, [r3]	@ unaligned
 696 002a 0380     		strh	r3, [r0]	@ unaligned
 697              	.LVL57:
 698              	.L85:
 699 002c 7047     		bx	lr
 700              		.cfi_endproc
 701              	.LFE80:
 702              		.size	MAPPER_convertFromLegayMapHeader, .-MAPPER_convertFromLegayMapHeader
 703              		.global	DEFMAP
 704              		.comm	interrupter,12,4
 705              		.section	.rodata
 706              		.set	.LANCHOR1,. + 0
 707              		.type	DEFMAP, %object
 708              		.size	DEFMAP, 29
ARM GAS  C:\Users\chemi\AppData\Local\Temp\ccmoxKgy.s 			page 18


 709              	DEFMAP:
 710 0000 01       		.byte	1
 711 0001 00       		.byte	0
 712 0002 7F       		.byte	127
 713 0003 00000000 		.space	18
 713      00000000 
 713      00000000 
 713      00000000 
 713      0000
 714 0015 00       		.byte	0
 715 0016 7F       		.byte	127
 716 0017 0000     		.2byte	0
 717 0019 FF       		.byte	-1
 718 001a F1       		.byte	-15
 719 001b F0FF     		.2byte	-16
 720              		.section	.rodata.str1.1,"aMS",%progbits,1
 721              	.LC0:
 722 0000 4445464D 		.ascii	"DEFMAP\000"
 722      415000
 723              		.bss
 724              		.align	2
 725              		.set	.LANCHOR0,. + 0
 726              		.type	channelMap, %object
 727              		.size	channelMap, 64
 728              	channelMap:
 729 0000 00000000 		.space	64
 729      00000000 
 729      00000000 
 729      00000000 
 729      00000000 
 730              		.text
 731              	.Letext0:
 732              		.file 2 "c:\\program files (x86)\\cypress\\psoc creator\\4.4\\psoc creator\\import\\gnu\\arm\\5.4.
 733              		.file 3 "c:\\program files (x86)\\cypress\\psoc creator\\4.4\\psoc creator\\import\\gnu\\arm\\5.4.
 734              		.file 4 "..\\common\\vms\\NoteMapper.h"
 735              		.file 5 "..\\common\\rtos\\include/timers.h"
 736              		.file 6 "..\\common\\ud3core/interrupter.h"
 737              		.file 7 "..\\common\\ud3core/cli_common.h"
 738              		.file 8 "Generated_Source\\PSoC5/core_cm3.h"
 739              		.file 9 "..\\common\\ud3core/helper/nvm.h"
 740              		.file 10 "..\\common\\vms\\VMSWrapper.h"
 741              		.file 11 "..\\common\\vms\\MidiProcessor.h"