ARM GAS  C:\Users\chemi\AppData\Local\Temp\ccigg5rZ.s 			page 1


   1              		.syntax unified
   2              		.cpu cortex-m3
   3              		.fpu softvfp
   4              		.eabi_attribute 20, 1
   5              		.eabi_attribute 21, 1
   6              		.eabi_attribute 23, 3
   7              		.eabi_attribute 24, 1
   8              		.eabi_attribute 25, 1
   9              		.eabi_attribute 26, 1
  10              		.eabi_attribute 30, 4
  11              		.eabi_attribute 34, 1
  12              		.eabi_attribute 18, 4
  13              		.thumb
  14              		.syntax unified
  15              		.file	"OnTimeCounter_PM.c"
  16              		.text
  17              	.Ltext0:
  18              		.cfi_sections	.debug_frame
  19              		.section	.text.OnTimeCounter_SaveConfig,"ax",%progbits
  20              		.align	1
  21              		.global	OnTimeCounter_SaveConfig
  22              		.thumb
  23              		.thumb_func
  24              		.type	OnTimeCounter_SaveConfig, %function
  25              	OnTimeCounter_SaveConfig:
  26              	.LFB0:
  27              		.file 1 "Generated_Source\\PSoC5\\OnTimeCounter_PM.c"
   1:Generated_Source\PSoC5/OnTimeCounter_PM.c **** /*******************************************************************************
   2:Generated_Source\PSoC5/OnTimeCounter_PM.c **** * File Name: OnTimeCounter_PM.c
   3:Generated_Source\PSoC5/OnTimeCounter_PM.c **** * Version 2.80
   4:Generated_Source\PSoC5/OnTimeCounter_PM.c **** *
   5:Generated_Source\PSoC5/OnTimeCounter_PM.c **** *  Description:
   6:Generated_Source\PSoC5/OnTimeCounter_PM.c **** *     This file provides the power management source code to API for the
   7:Generated_Source\PSoC5/OnTimeCounter_PM.c **** *     Timer.
   8:Generated_Source\PSoC5/OnTimeCounter_PM.c **** *
   9:Generated_Source\PSoC5/OnTimeCounter_PM.c **** *   Note:
  10:Generated_Source\PSoC5/OnTimeCounter_PM.c **** *     None
  11:Generated_Source\PSoC5/OnTimeCounter_PM.c **** *
  12:Generated_Source\PSoC5/OnTimeCounter_PM.c **** *******************************************************************************
  13:Generated_Source\PSoC5/OnTimeCounter_PM.c **** * Copyright 2008-2017, Cypress Semiconductor Corporation.  All rights reserved.
  14:Generated_Source\PSoC5/OnTimeCounter_PM.c **** * You may use this file only in accordance with the license, terms, conditions,
  15:Generated_Source\PSoC5/OnTimeCounter_PM.c **** * disclaimers, and limitations in the end user license agreement accompanying
  16:Generated_Source\PSoC5/OnTimeCounter_PM.c **** * the software package with which this file was provided.
  17:Generated_Source\PSoC5/OnTimeCounter_PM.c **** ********************************************************************************/
  18:Generated_Source\PSoC5/OnTimeCounter_PM.c **** 
  19:Generated_Source\PSoC5/OnTimeCounter_PM.c **** #include "OnTimeCounter.h"
  20:Generated_Source\PSoC5/OnTimeCounter_PM.c **** 
  21:Generated_Source\PSoC5/OnTimeCounter_PM.c **** static OnTimeCounter_backupStruct OnTimeCounter_backup;
  22:Generated_Source\PSoC5/OnTimeCounter_PM.c **** 
  23:Generated_Source\PSoC5/OnTimeCounter_PM.c **** 
  24:Generated_Source\PSoC5/OnTimeCounter_PM.c **** /*******************************************************************************
  25:Generated_Source\PSoC5/OnTimeCounter_PM.c **** * Function Name: OnTimeCounter_SaveConfig
  26:Generated_Source\PSoC5/OnTimeCounter_PM.c **** ********************************************************************************
  27:Generated_Source\PSoC5/OnTimeCounter_PM.c **** *
  28:Generated_Source\PSoC5/OnTimeCounter_PM.c **** * Summary:
  29:Generated_Source\PSoC5/OnTimeCounter_PM.c **** *     Save the current user configuration
  30:Generated_Source\PSoC5/OnTimeCounter_PM.c **** *
ARM GAS  C:\Users\chemi\AppData\Local\Temp\ccigg5rZ.s 			page 2


  31:Generated_Source\PSoC5/OnTimeCounter_PM.c **** * Parameters:
  32:Generated_Source\PSoC5/OnTimeCounter_PM.c **** *  void
  33:Generated_Source\PSoC5/OnTimeCounter_PM.c **** *
  34:Generated_Source\PSoC5/OnTimeCounter_PM.c **** * Return:
  35:Generated_Source\PSoC5/OnTimeCounter_PM.c **** *  void
  36:Generated_Source\PSoC5/OnTimeCounter_PM.c **** *
  37:Generated_Source\PSoC5/OnTimeCounter_PM.c **** * Global variables:
  38:Generated_Source\PSoC5/OnTimeCounter_PM.c **** *  OnTimeCounter_backup:  Variables of this global structure are modified to
  39:Generated_Source\PSoC5/OnTimeCounter_PM.c **** *  store the values of non retention configuration registers when Sleep() API is
  40:Generated_Source\PSoC5/OnTimeCounter_PM.c **** *  called.
  41:Generated_Source\PSoC5/OnTimeCounter_PM.c **** *
  42:Generated_Source\PSoC5/OnTimeCounter_PM.c **** *******************************************************************************/
  43:Generated_Source\PSoC5/OnTimeCounter_PM.c **** void OnTimeCounter_SaveConfig(void) 
  44:Generated_Source\PSoC5/OnTimeCounter_PM.c **** {
  28              		.loc 1 44 0
  29              		.cfi_startproc
  30              		@ args = 0, pretend = 0, frame = 0
  31              		@ frame_needed = 0, uses_anonymous_args = 0
  32 0000 10B5     		push	{r4, lr}
  33              		.cfi_def_cfa_offset 8
  34              		.cfi_offset 4, -8
  35              		.cfi_offset 14, -4
  45:Generated_Source\PSoC5/OnTimeCounter_PM.c ****     #if (!OnTimeCounter_UsingFixedFunction)
  46:Generated_Source\PSoC5/OnTimeCounter_PM.c ****         OnTimeCounter_backup.TimerUdb = OnTimeCounter_ReadCounter();
  36              		.loc 1 46 0
  37 0002 FFF7FEFF 		bl	OnTimeCounter_ReadCounter
  38              	.LVL0:
  39 0006 044C     		ldr	r4, .L2
  47:Generated_Source\PSoC5/OnTimeCounter_PM.c ****         OnTimeCounter_backup.InterruptMaskValue = OnTimeCounter_STATUS_MASK;
  40              		.loc 1 47 0
  41 0008 044B     		ldr	r3, .L2+4
  46:Generated_Source\PSoC5/OnTimeCounter_PM.c ****         OnTimeCounter_backup.InterruptMaskValue = OnTimeCounter_STATUS_MASK;
  42              		.loc 1 46 0
  43 000a 6060     		str	r0, [r4, #4]
  44              		.loc 1 47 0
  45 000c 1B78     		ldrb	r3, [r3]	@ zero_extendqisi2
  46 000e 2372     		strb	r3, [r4, #8]
  48:Generated_Source\PSoC5/OnTimeCounter_PM.c ****         #if (OnTimeCounter_UsingHWCaptureCounter)
  49:Generated_Source\PSoC5/OnTimeCounter_PM.c ****             OnTimeCounter_backup.TimerCaptureCounter = OnTimeCounter_ReadCaptureCount();
  50:Generated_Source\PSoC5/OnTimeCounter_PM.c ****         #endif /* Back Up capture counter register  */
  51:Generated_Source\PSoC5/OnTimeCounter_PM.c **** 
  52:Generated_Source\PSoC5/OnTimeCounter_PM.c ****         #if(!OnTimeCounter_UDB_CONTROL_REG_REMOVED)
  53:Generated_Source\PSoC5/OnTimeCounter_PM.c ****             OnTimeCounter_backup.TimerControlRegister = OnTimeCounter_ReadControlRegister();
  47              		.loc 1 53 0
  48 0010 FFF7FEFF 		bl	OnTimeCounter_ReadControlRegister
  49              	.LVL1:
  50 0014 6072     		strb	r0, [r4, #9]
  51 0016 10BD     		pop	{r4, pc}
  52              	.L3:
  53              		.align	2
  54              	.L2:
  55 0018 00000000 		.word	.LANCHOR0
  56 001c 89650040 		.word	1073767817
  57              		.cfi_endproc
  58              	.LFE0:
  59              		.size	OnTimeCounter_SaveConfig, .-OnTimeCounter_SaveConfig
  60              		.section	.text.OnTimeCounter_RestoreConfig,"ax",%progbits
ARM GAS  C:\Users\chemi\AppData\Local\Temp\ccigg5rZ.s 			page 3


  61              		.align	1
  62              		.global	OnTimeCounter_RestoreConfig
  63              		.thumb
  64              		.thumb_func
  65              		.type	OnTimeCounter_RestoreConfig, %function
  66              	OnTimeCounter_RestoreConfig:
  67              	.LFB1:
  54:Generated_Source\PSoC5/OnTimeCounter_PM.c ****         #endif /* Backup the enable state of the Timer component */
  55:Generated_Source\PSoC5/OnTimeCounter_PM.c ****     #endif /* Backup non retention registers in UDB implementation. All fixed function registers ar
  56:Generated_Source\PSoC5/OnTimeCounter_PM.c **** }
  57:Generated_Source\PSoC5/OnTimeCounter_PM.c **** 
  58:Generated_Source\PSoC5/OnTimeCounter_PM.c **** 
  59:Generated_Source\PSoC5/OnTimeCounter_PM.c **** /*******************************************************************************
  60:Generated_Source\PSoC5/OnTimeCounter_PM.c **** * Function Name: OnTimeCounter_RestoreConfig
  61:Generated_Source\PSoC5/OnTimeCounter_PM.c **** ********************************************************************************
  62:Generated_Source\PSoC5/OnTimeCounter_PM.c **** *
  63:Generated_Source\PSoC5/OnTimeCounter_PM.c **** * Summary:
  64:Generated_Source\PSoC5/OnTimeCounter_PM.c **** *  Restores the current user configuration.
  65:Generated_Source\PSoC5/OnTimeCounter_PM.c **** *
  66:Generated_Source\PSoC5/OnTimeCounter_PM.c **** * Parameters:
  67:Generated_Source\PSoC5/OnTimeCounter_PM.c **** *  void
  68:Generated_Source\PSoC5/OnTimeCounter_PM.c **** *
  69:Generated_Source\PSoC5/OnTimeCounter_PM.c **** * Return:
  70:Generated_Source\PSoC5/OnTimeCounter_PM.c **** *  void
  71:Generated_Source\PSoC5/OnTimeCounter_PM.c **** *
  72:Generated_Source\PSoC5/OnTimeCounter_PM.c **** * Global variables:
  73:Generated_Source\PSoC5/OnTimeCounter_PM.c **** *  OnTimeCounter_backup:  Variables of this global structure are used to
  74:Generated_Source\PSoC5/OnTimeCounter_PM.c **** *  restore the values of non retention registers on wakeup from sleep mode.
  75:Generated_Source\PSoC5/OnTimeCounter_PM.c **** *
  76:Generated_Source\PSoC5/OnTimeCounter_PM.c **** *******************************************************************************/
  77:Generated_Source\PSoC5/OnTimeCounter_PM.c **** void OnTimeCounter_RestoreConfig(void) 
  78:Generated_Source\PSoC5/OnTimeCounter_PM.c **** {   
  68              		.loc 1 78 0
  69              		.cfi_startproc
  70              		@ args = 0, pretend = 0, frame = 0
  71              		@ frame_needed = 0, uses_anonymous_args = 0
  72 0000 10B5     		push	{r4, lr}
  73              		.cfi_def_cfa_offset 8
  74              		.cfi_offset 4, -8
  75              		.cfi_offset 14, -4
  79:Generated_Source\PSoC5/OnTimeCounter_PM.c ****     #if (!OnTimeCounter_UsingFixedFunction)
  80:Generated_Source\PSoC5/OnTimeCounter_PM.c **** 
  81:Generated_Source\PSoC5/OnTimeCounter_PM.c ****         OnTimeCounter_WriteCounter(OnTimeCounter_backup.TimerUdb);
  76              		.loc 1 81 0
  77 0002 064C     		ldr	r4, .L5
  78 0004 6068     		ldr	r0, [r4, #4]
  79 0006 FFF7FEFF 		bl	OnTimeCounter_WriteCounter
  80              	.LVL2:
  82:Generated_Source\PSoC5/OnTimeCounter_PM.c ****         OnTimeCounter_STATUS_MASK =OnTimeCounter_backup.InterruptMaskValue;
  81              		.loc 1 82 0
  82 000a 227A     		ldrb	r2, [r4, #8]	@ zero_extendqisi2
  83 000c 044B     		ldr	r3, .L5+4
  84 000e 1A70     		strb	r2, [r3]
  83:Generated_Source\PSoC5/OnTimeCounter_PM.c ****         #if (OnTimeCounter_UsingHWCaptureCounter)
  84:Generated_Source\PSoC5/OnTimeCounter_PM.c ****             OnTimeCounter_SetCaptureCount(OnTimeCounter_backup.TimerCaptureCounter);
  85:Generated_Source\PSoC5/OnTimeCounter_PM.c ****         #endif /* Restore Capture counter register*/
  86:Generated_Source\PSoC5/OnTimeCounter_PM.c **** 
ARM GAS  C:\Users\chemi\AppData\Local\Temp\ccigg5rZ.s 			page 4


  87:Generated_Source\PSoC5/OnTimeCounter_PM.c ****         #if(!OnTimeCounter_UDB_CONTROL_REG_REMOVED)
  88:Generated_Source\PSoC5/OnTimeCounter_PM.c ****             OnTimeCounter_WriteControlRegister(OnTimeCounter_backup.TimerControlRegister);
  85              		.loc 1 88 0
  86 0010 607A     		ldrb	r0, [r4, #9]	@ zero_extendqisi2
  89:Generated_Source\PSoC5/OnTimeCounter_PM.c ****         #endif /* Restore the enable state of the Timer component */
  90:Generated_Source\PSoC5/OnTimeCounter_PM.c ****     #endif /* Restore non retention registers in the UDB implementation only */
  91:Generated_Source\PSoC5/OnTimeCounter_PM.c **** }
  87              		.loc 1 91 0
  88 0012 BDE81040 		pop	{r4, lr}
  89              		.cfi_restore 14
  90              		.cfi_restore 4
  91              		.cfi_def_cfa_offset 0
  88:Generated_Source\PSoC5/OnTimeCounter_PM.c ****         #endif /* Restore the enable state of the Timer component */
  92              		.loc 1 88 0
  93 0016 FFF7FEBF 		b	OnTimeCounter_WriteControlRegister
  94              	.LVL3:
  95              	.L6:
  96 001a 00BF     		.align	2
  97              	.L5:
  98 001c 00000000 		.word	.LANCHOR0
  99 0020 89650040 		.word	1073767817
 100              		.cfi_endproc
 101              	.LFE1:
 102              		.size	OnTimeCounter_RestoreConfig, .-OnTimeCounter_RestoreConfig
 103              		.section	.text.OnTimeCounter_Sleep,"ax",%progbits
 104              		.align	1
 105              		.global	OnTimeCounter_Sleep
 106              		.thumb
 107              		.thumb_func
 108              		.type	OnTimeCounter_Sleep, %function
 109              	OnTimeCounter_Sleep:
 110              	.LFB2:
  92:Generated_Source\PSoC5/OnTimeCounter_PM.c **** 
  93:Generated_Source\PSoC5/OnTimeCounter_PM.c **** 
  94:Generated_Source\PSoC5/OnTimeCounter_PM.c **** /*******************************************************************************
  95:Generated_Source\PSoC5/OnTimeCounter_PM.c **** * Function Name: OnTimeCounter_Sleep
  96:Generated_Source\PSoC5/OnTimeCounter_PM.c **** ********************************************************************************
  97:Generated_Source\PSoC5/OnTimeCounter_PM.c **** *
  98:Generated_Source\PSoC5/OnTimeCounter_PM.c **** * Summary:
  99:Generated_Source\PSoC5/OnTimeCounter_PM.c **** *     Stop and Save the user configuration
 100:Generated_Source\PSoC5/OnTimeCounter_PM.c **** *
 101:Generated_Source\PSoC5/OnTimeCounter_PM.c **** * Parameters:
 102:Generated_Source\PSoC5/OnTimeCounter_PM.c **** *  void
 103:Generated_Source\PSoC5/OnTimeCounter_PM.c **** *
 104:Generated_Source\PSoC5/OnTimeCounter_PM.c **** * Return:
 105:Generated_Source\PSoC5/OnTimeCounter_PM.c **** *  void
 106:Generated_Source\PSoC5/OnTimeCounter_PM.c **** *
 107:Generated_Source\PSoC5/OnTimeCounter_PM.c **** * Global variables:
 108:Generated_Source\PSoC5/OnTimeCounter_PM.c **** *  OnTimeCounter_backup.TimerEnableState:  Is modified depending on the
 109:Generated_Source\PSoC5/OnTimeCounter_PM.c **** *  enable state of the block before entering sleep mode.
 110:Generated_Source\PSoC5/OnTimeCounter_PM.c **** *
 111:Generated_Source\PSoC5/OnTimeCounter_PM.c **** *******************************************************************************/
 112:Generated_Source\PSoC5/OnTimeCounter_PM.c **** void OnTimeCounter_Sleep(void) 
 113:Generated_Source\PSoC5/OnTimeCounter_PM.c **** {
 111              		.loc 1 113 0
 112              		.cfi_startproc
 113              		@ args = 0, pretend = 0, frame = 0
ARM GAS  C:\Users\chemi\AppData\Local\Temp\ccigg5rZ.s 			page 5


 114              		@ frame_needed = 0, uses_anonymous_args = 0
 115 0000 08B5     		push	{r3, lr}
 116              		.cfi_def_cfa_offset 8
 117              		.cfi_offset 3, -8
 118              		.cfi_offset 14, -4
 114:Generated_Source\PSoC5/OnTimeCounter_PM.c ****     #if(!OnTimeCounter_UDB_CONTROL_REG_REMOVED)
 115:Generated_Source\PSoC5/OnTimeCounter_PM.c ****         /* Save Counter's enable state */
 116:Generated_Source\PSoC5/OnTimeCounter_PM.c ****         if(OnTimeCounter_CTRL_ENABLE == (OnTimeCounter_CONTROL & OnTimeCounter_CTRL_ENABLE))
 119              		.loc 1 116 0
 120 0002 074B     		ldr	r3, .L11
 121 0004 1B78     		ldrb	r3, [r3]	@ zero_extendqisi2
 122 0006 13F0800F 		tst	r3, #128
 123 000a 064B     		ldr	r3, .L11+4
 117:Generated_Source\PSoC5/OnTimeCounter_PM.c ****         {
 118:Generated_Source\PSoC5/OnTimeCounter_PM.c ****             /* Timer is enabled */
 119:Generated_Source\PSoC5/OnTimeCounter_PM.c ****             OnTimeCounter_backup.TimerEnableState = 1u;
 124              		.loc 1 119 0
 125 000c 14BF     		ite	ne
 126 000e 0122     		movne	r2, #1
 120:Generated_Source\PSoC5/OnTimeCounter_PM.c ****         }
 121:Generated_Source\PSoC5/OnTimeCounter_PM.c ****         else
 122:Generated_Source\PSoC5/OnTimeCounter_PM.c ****         {
 123:Generated_Source\PSoC5/OnTimeCounter_PM.c ****             /* Timer is disabled */
 124:Generated_Source\PSoC5/OnTimeCounter_PM.c ****             OnTimeCounter_backup.TimerEnableState = 0u;
 127              		.loc 1 124 0
 128 0010 0022     		moveq	r2, #0
 129 0012 1A70     		strb	r2, [r3]
 125:Generated_Source\PSoC5/OnTimeCounter_PM.c ****         }
 126:Generated_Source\PSoC5/OnTimeCounter_PM.c ****     #endif /* Back up enable state from the Timer control register */
 127:Generated_Source\PSoC5/OnTimeCounter_PM.c ****     OnTimeCounter_Stop();
 130              		.loc 1 127 0
 131 0014 FFF7FEFF 		bl	OnTimeCounter_Stop
 132              	.LVL4:
 128:Generated_Source\PSoC5/OnTimeCounter_PM.c ****     OnTimeCounter_SaveConfig();
 129:Generated_Source\PSoC5/OnTimeCounter_PM.c **** }
 133              		.loc 1 129 0
 134 0018 BDE80840 		pop	{r3, lr}
 135              		.cfi_restore 14
 136              		.cfi_restore 3
 137              		.cfi_def_cfa_offset 0
 128:Generated_Source\PSoC5/OnTimeCounter_PM.c ****     OnTimeCounter_SaveConfig();
 138              		.loc 1 128 0
 139 001c FFF7FEBF 		b	OnTimeCounter_SaveConfig
 140              	.LVL5:
 141              	.L12:
 142              		.align	2
 143              	.L11:
 144 0020 7A650040 		.word	1073767802
 145 0024 00000000 		.word	.LANCHOR0
 146              		.cfi_endproc
 147              	.LFE2:
 148              		.size	OnTimeCounter_Sleep, .-OnTimeCounter_Sleep
 149              		.section	.text.OnTimeCounter_Wakeup,"ax",%progbits
 150              		.align	1
 151              		.global	OnTimeCounter_Wakeup
 152              		.thumb
 153              		.thumb_func
ARM GAS  C:\Users\chemi\AppData\Local\Temp\ccigg5rZ.s 			page 6


 154              		.type	OnTimeCounter_Wakeup, %function
 155              	OnTimeCounter_Wakeup:
 156              	.LFB3:
 130:Generated_Source\PSoC5/OnTimeCounter_PM.c **** 
 131:Generated_Source\PSoC5/OnTimeCounter_PM.c **** 
 132:Generated_Source\PSoC5/OnTimeCounter_PM.c **** /*******************************************************************************
 133:Generated_Source\PSoC5/OnTimeCounter_PM.c **** * Function Name: OnTimeCounter_Wakeup
 134:Generated_Source\PSoC5/OnTimeCounter_PM.c **** ********************************************************************************
 135:Generated_Source\PSoC5/OnTimeCounter_PM.c **** *
 136:Generated_Source\PSoC5/OnTimeCounter_PM.c **** * Summary:
 137:Generated_Source\PSoC5/OnTimeCounter_PM.c **** *  Restores and enables the user configuration
 138:Generated_Source\PSoC5/OnTimeCounter_PM.c **** *
 139:Generated_Source\PSoC5/OnTimeCounter_PM.c **** * Parameters:
 140:Generated_Source\PSoC5/OnTimeCounter_PM.c **** *  void
 141:Generated_Source\PSoC5/OnTimeCounter_PM.c **** *
 142:Generated_Source\PSoC5/OnTimeCounter_PM.c **** * Return:
 143:Generated_Source\PSoC5/OnTimeCounter_PM.c **** *  void
 144:Generated_Source\PSoC5/OnTimeCounter_PM.c **** *
 145:Generated_Source\PSoC5/OnTimeCounter_PM.c **** * Global variables:
 146:Generated_Source\PSoC5/OnTimeCounter_PM.c **** *  OnTimeCounter_backup.enableState:  Is used to restore the enable state of
 147:Generated_Source\PSoC5/OnTimeCounter_PM.c **** *  block on wakeup from sleep mode.
 148:Generated_Source\PSoC5/OnTimeCounter_PM.c **** *
 149:Generated_Source\PSoC5/OnTimeCounter_PM.c **** *******************************************************************************/
 150:Generated_Source\PSoC5/OnTimeCounter_PM.c **** void OnTimeCounter_Wakeup(void) 
 151:Generated_Source\PSoC5/OnTimeCounter_PM.c **** {
 157              		.loc 1 151 0
 158              		.cfi_startproc
 159              		@ args = 0, pretend = 0, frame = 0
 160              		@ frame_needed = 0, uses_anonymous_args = 0
 161 0000 08B5     		push	{r3, lr}
 162              		.cfi_def_cfa_offset 8
 163              		.cfi_offset 3, -8
 164              		.cfi_offset 14, -4
 152:Generated_Source\PSoC5/OnTimeCounter_PM.c ****     OnTimeCounter_RestoreConfig();
 165              		.loc 1 152 0
 166 0002 FFF7FEFF 		bl	OnTimeCounter_RestoreConfig
 167              	.LVL6:
 153:Generated_Source\PSoC5/OnTimeCounter_PM.c ****     #if(!OnTimeCounter_UDB_CONTROL_REG_REMOVED)
 154:Generated_Source\PSoC5/OnTimeCounter_PM.c ****         if(OnTimeCounter_backup.TimerEnableState == 1u)
 168              		.loc 1 154 0
 169 0006 044B     		ldr	r3, .L16
 170 0008 1B78     		ldrb	r3, [r3]	@ zero_extendqisi2
 171 000a 012B     		cmp	r3, #1
 172 000c 03D1     		bne	.L13
 155:Generated_Source\PSoC5/OnTimeCounter_PM.c ****         {     /* Enable Timer's operation */
 156:Generated_Source\PSoC5/OnTimeCounter_PM.c ****                 OnTimeCounter_Enable();
 157:Generated_Source\PSoC5/OnTimeCounter_PM.c ****         } /* Do nothing if Timer was disabled before */
 158:Generated_Source\PSoC5/OnTimeCounter_PM.c ****     #endif /* Remove this code section if Control register is removed */
 159:Generated_Source\PSoC5/OnTimeCounter_PM.c **** }
 173              		.loc 1 159 0
 174 000e BDE80840 		pop	{r3, lr}
 175              		.cfi_remember_state
 176              		.cfi_restore 14
 177              		.cfi_restore 3
 178              		.cfi_def_cfa_offset 0
 156:Generated_Source\PSoC5/OnTimeCounter_PM.c ****         } /* Do nothing if Timer was disabled before */
 179              		.loc 1 156 0
ARM GAS  C:\Users\chemi\AppData\Local\Temp\ccigg5rZ.s 			page 7


 180 0012 FFF7FEBF 		b	OnTimeCounter_Enable
 181              	.LVL7:
 182              	.L13:
 183              		.cfi_restore_state
 184 0016 08BD     		pop	{r3, pc}
 185              	.L17:
 186              		.align	2
 187              	.L16:
 188 0018 00000000 		.word	.LANCHOR0
 189              		.cfi_endproc
 190              	.LFE3:
 191              		.size	OnTimeCounter_Wakeup, .-OnTimeCounter_Wakeup
 192              		.bss
 193              		.align	2
 194              		.set	.LANCHOR0,. + 0
 195              		.type	OnTimeCounter_backup, %object
 196              		.size	OnTimeCounter_backup, 12
 197              	OnTimeCounter_backup:
 198 0000 00000000 		.space	12
 198      00000000 
 198      00000000 
 199              		.text
 200              	.Letext0:
 201              		.file 2 "Generated_Source\\PSoC5\\cytypes.h"
 202              		.file 3 "Generated_Source\\PSoC5\\OnTimeCounter.h"