ARM GAS  C:\Users\chemi\AppData\Local\Temp\ccTx5rW2.s 			page 1


   1              		.syntax unified
   2              		.cpu cortex-m3
   3              		.fpu softvfp
   4              		.eabi_attribute 20, 1
   5              		.eabi_attribute 21, 1
   6              		.eabi_attribute 23, 3
   7              		.eabi_attribute 24, 1
   8              		.eabi_attribute 25, 1
   9              		.eabi_attribute 26, 1
  10              		.eabi_attribute 30, 4
  11              		.eabi_attribute 34, 1
  12              		.eabi_attribute 18, 4
  13              		.thumb
  14              		.syntax unified
  15              		.file	"PCA9685.c"
  16              		.text
  17              	.Ltext0:
  18              		.cfi_sections	.debug_frame
  19              		.section	.text.PCA9685_free,"ax",%progbits
  20              		.align	1
  21              		.global	PCA9685_free
  22              		.thumb
  23              		.thumb_func
  24              		.type	PCA9685_free, %function
  25              	PCA9685_free:
  26              	.LFB69:
  27              		.file 1 "..\\common\\ud3core\\helper\\PCA9685.c"
   1:..\common\ud3core\helper/PCA9685.c **** /*
   2:..\common\ud3core\helper/PCA9685.c ****  * UD3
   3:..\common\ud3core\helper/PCA9685.c ****  *
   4:..\common\ud3core\helper/PCA9685.c ****  * Copyright (c) 2018 Jens Kerrinnes
   5:..\common\ud3core\helper/PCA9685.c ****  * Copyright (c) 2015 Steve Ward
   6:..\common\ud3core\helper/PCA9685.c ****  *
   7:..\common\ud3core\helper/PCA9685.c ****  * Permission is hereby granted, free of charge, to any person obtaining a copy of
   8:..\common\ud3core\helper/PCA9685.c ****  * this software and associated documentation files (the "Software"), to deal in
   9:..\common\ud3core\helper/PCA9685.c ****  * the Software without restriction, including without limitation the rights to
  10:..\common\ud3core\helper/PCA9685.c ****  * use, copy, modify, merge, publish, distribute, sublicense, and/or sell copies of
  11:..\common\ud3core\helper/PCA9685.c ****  * the Software, and to permit persons to whom the Software is furnished to do so,
  12:..\common\ud3core\helper/PCA9685.c ****  * subject to the following conditions:
  13:..\common\ud3core\helper/PCA9685.c ****  *
  14:..\common\ud3core\helper/PCA9685.c ****  * The above copyright notice and this permission notice shall be included in all
  15:..\common\ud3core\helper/PCA9685.c ****  * copies or substantial portions of the Software.
  16:..\common\ud3core\helper/PCA9685.c ****  *
  17:..\common\ud3core\helper/PCA9685.c ****  * THE SOFTWARE IS PROVIDED "AS IS", WITHOUT WARRANTY OF ANY KIND, EXPRESS OR
  18:..\common\ud3core\helper/PCA9685.c ****  * IMPLIED, INCLUDING BUT NOT LIMITED TO THE WARRANTIES OF MERCHANTABILITY, FITNESS
  19:..\common\ud3core\helper/PCA9685.c ****  * FOR A PARTICULAR PURPOSE AND NONINFRINGEMENT. IN NO EVENT SHALL THE AUTHORS OR
  20:..\common\ud3core\helper/PCA9685.c ****  * COPYRIGHT HOLDERS BE LIABLE FOR ANY CLAIM, DAMAGES OR OTHER LIABILITY, WHETHER
  21:..\common\ud3core\helper/PCA9685.c ****  * IN AN ACTION OF CONTRACT, TORT OR OTHERWISE, ARISING FROM, OUT OF OR IN
  22:..\common\ud3core\helper/PCA9685.c ****  * CONNECTION WITH THE SOFTWARE OR THE USE OR OTHER DEALINGS IN THE SOFTWARE.
  23:..\common\ud3core\helper/PCA9685.c **** */
  24:..\common\ud3core\helper/PCA9685.c **** 
  25:..\common\ud3core\helper/PCA9685.c **** #include "PCA9685.h"
  26:..\common\ud3core\helper/PCA9685.c **** #include "i2c_helper.h"
  27:..\common\ud3core\helper/PCA9685.c **** #include "FreeRTOS.h"
  28:..\common\ud3core\helper/PCA9685.c **** 
  29:..\common\ud3core\helper/PCA9685.c **** uint32_t i2c_bytes_rx=0;
  30:..\common\ud3core\helper/PCA9685.c **** uint32_t i2c_bytes_tx=0;
ARM GAS  C:\Users\chemi\AppData\Local\Temp\ccTx5rW2.s 			page 2


  31:..\common\ud3core\helper/PCA9685.c **** 
  32:..\common\ud3core\helper/PCA9685.c **** 
  33:..\common\ud3core\helper/PCA9685.c **** #define MODE1 0x00			//Mode  register  1
  34:..\common\ud3core\helper/PCA9685.c **** #define MODE2 0x01			//Mode  register  2
  35:..\common\ud3core\helper/PCA9685.c **** #define SUBADR1 0x02		//I2C-bus subaddress 1
  36:..\common\ud3core\helper/PCA9685.c **** #define SUBADR2 0x03		//I2C-bus subaddress 2
  37:..\common\ud3core\helper/PCA9685.c **** #define SUBADR3 0x04		//I2C-bus subaddress 3
  38:..\common\ud3core\helper/PCA9685.c **** #define ALLCALLADR 0x05     //LED All Call I2C-bus address
  39:..\common\ud3core\helper/PCA9685.c **** #define LED0 0x6			//LED0 start register
  40:..\common\ud3core\helper/PCA9685.c **** #define LED0_ON_L 0x6		//LED0 output and brightness control byte 0
  41:..\common\ud3core\helper/PCA9685.c **** #define LED0_ON_H 0x7		//LED0 output and brightness control byte 1
  42:..\common\ud3core\helper/PCA9685.c **** #define LED0_OFF_L 0x8		//LED0 output and brightness control byte 2
  43:..\common\ud3core\helper/PCA9685.c **** #define LED0_OFF_H 0x9		//LED0 output and brightness control byte 3
  44:..\common\ud3core\helper/PCA9685.c **** #define LED_MULTIPLYER 4	// For the other 15 channels
  45:..\common\ud3core\helper/PCA9685.c **** #define ALLLED_ON_L 0xFA    //load all the LEDn_ON registers, byte 0 (turn 0-7 channels on)
  46:..\common\ud3core\helper/PCA9685.c **** #define ALLLED_ON_H 0xFB	//load all the LEDn_ON registers, byte 1 (turn 8-15 channels on)
  47:..\common\ud3core\helper/PCA9685.c **** #define ALLLED_OFF_L 0xFC	//load all the LEDn_OFF registers, byte 0 (turn 0-7 channels off)
  48:..\common\ud3core\helper/PCA9685.c **** #define ALLLED_OFF_H 0xFD	//load all the LEDn_OFF registers, byte 1 (turn 8-15 channels off)
  49:..\common\ud3core\helper/PCA9685.c **** #define PRE_SCALE 0xFE		//prescaler for output frequency
  50:..\common\ud3core\helper/PCA9685.c **** #define CLOCK_FREQ 25000000.0 //25MHz default osc clock
  51:..\common\ud3core\helper/PCA9685.c **** 
  52:..\common\ud3core\helper/PCA9685.c **** PCA9685* PCA9685_new(uint8_t address){
  53:..\common\ud3core\helper/PCA9685.c ****     PCA9685* ptr;
  54:..\common\ud3core\helper/PCA9685.c ****     ptr = pvPortMalloc(sizeof(PCA9685)); 
  55:..\common\ud3core\helper/PCA9685.c ****     if(ptr != NULL){
  56:..\common\ud3core\helper/PCA9685.c ****         ptr->address = address;
  57:..\common\ud3core\helper/PCA9685.c ****         PCA9685_init(ptr);
  58:..\common\ud3core\helper/PCA9685.c ****         return ptr;
  59:..\common\ud3core\helper/PCA9685.c ****     }
  60:..\common\ud3core\helper/PCA9685.c ****     return NULL;
  61:..\common\ud3core\helper/PCA9685.c **** }
  62:..\common\ud3core\helper/PCA9685.c **** 
  63:..\common\ud3core\helper/PCA9685.c **** void PCA9685_free(PCA9685* ptr){
  28              		.loc 1 63 0
  29              		.cfi_startproc
  30              		@ args = 0, pretend = 0, frame = 0
  31              		@ frame_needed = 0, uses_anonymous_args = 0
  32              		@ link register save eliminated.
  33              	.LVL0:
  64:..\common\ud3core\helper/PCA9685.c ****    vPortFree(ptr);
  34              		.loc 1 64 0
  35 0000 FFF7FEBF 		b	vPortFree
  36              	.LVL1:
  37              		.cfi_endproc
  38              	.LFE69:
  39              		.size	PCA9685_free, .-PCA9685_free
  40              		.section	.text.PCA9685_setPWM_i,"ax",%progbits
  41              		.align	1
  42              		.global	PCA9685_setPWM_i
  43              		.thumb
  44              		.thumb_func
  45              		.type	PCA9685_setPWM_i, %function
  46              	PCA9685_setPWM_i:
  47              	.LFB70:
  65:..\common\ud3core\helper/PCA9685.c **** }
  66:..\common\ud3core\helper/PCA9685.c **** 
  67:..\common\ud3core\helper/PCA9685.c **** 
ARM GAS  C:\Users\chemi\AppData\Local\Temp\ccTx5rW2.s 			page 3


  68:..\common\ud3core\helper/PCA9685.c **** void PCA9685_setPWM_i(PCA9685* ptr, uint8_t led, int on_value, int off_value) {
  48              		.loc 1 68 0
  49              		.cfi_startproc
  50              		@ args = 0, pretend = 0, frame = 0
  51              		@ frame_needed = 0, uses_anonymous_args = 0
  52              		@ link register save eliminated.
  53              	.LVL2:
  69:..\common\ud3core\helper/PCA9685.c ****     if(ptr==NULL) return;
  54              		.loc 1 69 0
  55 0000 88B1     		cbz	r0, .L2
  70:..\common\ud3core\helper/PCA9685.c ****     ptr->buffer[0] = LED0_ON_L + LED_MULTIPLYER * led;
  71:..\common\ud3core\helper/PCA9685.c ****     ptr->buffer[1] = on_value & 0xFF;
  56              		.loc 1 71 0
  57 0002 8270     		strb	r2, [r0, #2]
  70:..\common\ud3core\helper/PCA9685.c ****     ptr->buffer[0] = LED0_ON_L + LED_MULTIPLYER * led;
  58              		.loc 1 70 0
  59 0004 8900     		lsls	r1, r1, #2
  60              	.LVL3:
  72:..\common\ud3core\helper/PCA9685.c ****     ptr->buffer[2] = on_value >> 8;
  61              		.loc 1 72 0
  62 0006 1212     		asrs	r2, r2, #8
  63              	.LVL4:
  64 0008 C270     		strb	r2, [r0, #3]
  70:..\common\ud3core\helper/PCA9685.c ****     ptr->buffer[0] = LED0_ON_L + LED_MULTIPLYER * led;
  65              		.loc 1 70 0
  66 000a 0631     		adds	r1, r1, #6
  73:..\common\ud3core\helper/PCA9685.c ****     ptr->buffer[3] = off_value & 0xFF;
  74:..\common\ud3core\helper/PCA9685.c ****     ptr->buffer[4] = off_value >> 8;
  75:..\common\ud3core\helper/PCA9685.c ****     i2c_bytes_tx+=5;
  67              		.loc 1 75 0
  68 000c 064A     		ldr	r2, .L5
  70:..\common\ud3core\helper/PCA9685.c ****     ptr->buffer[1] = on_value & 0xFF;
  69              		.loc 1 70 0
  70 000e 4170     		strb	r1, [r0, #1]
  73:..\common\ud3core\helper/PCA9685.c ****     ptr->buffer[3] = off_value & 0xFF;
  71              		.loc 1 73 0
  72 0010 0371     		strb	r3, [r0, #4]
  74:..\common\ud3core\helper/PCA9685.c ****     i2c_bytes_tx+=5;
  73              		.loc 1 74 0
  74 0012 1B12     		asrs	r3, r3, #8
  75              	.LVL5:
  76 0014 4371     		strb	r3, [r0, #5]
  77              		.loc 1 75 0
  78 0016 1368     		ldr	r3, [r2]
  76:..\common\ud3core\helper/PCA9685.c ****     I2C_Write_Blk(ptr->address,ptr->buffer,5);
  79              		.loc 1 76 0
  80 0018 411C     		adds	r1, r0, #1
  75:..\common\ud3core\helper/PCA9685.c ****     I2C_Write_Blk(ptr->address,ptr->buffer,5);
  81              		.loc 1 75 0
  82 001a 0533     		adds	r3, r3, #5
  83 001c 1360     		str	r3, [r2]
  84              		.loc 1 76 0
  85 001e 0078     		ldrb	r0, [r0]	@ zero_extendqisi2
  86              	.LVL6:
  87 0020 0522     		movs	r2, #5
  88 0022 FFF7FEBF 		b	I2C_Write_Blk
  89              	.LVL7:
ARM GAS  C:\Users\chemi\AppData\Local\Temp\ccTx5rW2.s 			page 4


  90              	.L2:
  91 0026 7047     		bx	lr
  92              	.L6:
  93              		.align	2
  94              	.L5:
  95 0028 00000000 		.word	.LANCHOR0
  96              		.cfi_endproc
  97              	.LFE70:
  98              		.size	PCA9685_setPWM_i, .-PCA9685_setPWM_i
  99              		.section	.text.PCA9685_setPWM,"ax",%progbits
 100              		.align	1
 101              		.global	PCA9685_setPWM
 102              		.thumb
 103              		.thumb_func
 104              		.type	PCA9685_setPWM, %function
 105              	PCA9685_setPWM:
 106              	.LFB71:
  77:..\common\ud3core\helper/PCA9685.c **** }
  78:..\common\ud3core\helper/PCA9685.c **** 
  79:..\common\ud3core\helper/PCA9685.c **** void PCA9685_setPWM(PCA9685* ptr, uint8_t led, uint16_t value) {
 107              		.loc 1 79 0
 108              		.cfi_startproc
 109              		@ args = 0, pretend = 0, frame = 0
 110              		@ frame_needed = 0, uses_anonymous_args = 0
 111              		@ link register save eliminated.
 112              	.LVL8:
  80:..\common\ud3core\helper/PCA9685.c ****     if(ptr==NULL) return;
 113              		.loc 1 80 0
 114 0000 58B1     		cbz	r0, .L7
 115              	.LVL9:
  81:..\common\ud3core\helper/PCA9685.c ****     if(value>4095) value = 4095;
  82:..\common\ud3core\helper/PCA9685.c ****     if(led>15) led = 15;
  83:..\common\ud3core\helper/PCA9685.c **** 	PCA9685_setPWM_i(ptr, led, 0, value);
 116              		.loc 1 83 0
 117 0002 40F6FF73 		movw	r3, #4095
 118 0006 9342     		cmp	r3, r2
 119 0008 28BF     		it	cs
 120 000a 1346     		movcs	r3, r2
 121 000c 0F29     		cmp	r1, #15
 122 000e 4FF00002 		mov	r2, #0
 123              	.LVL10:
 124 0012 28BF     		it	cs
 125 0014 0F21     		movcs	r1, #15
 126              	.LVL11:
 127 0016 FFF7FEBF 		b	PCA9685_setPWM_i
 128              	.LVL12:
 129              	.L7:
 130 001a 7047     		bx	lr
 131              		.cfi_endproc
 132              	.LFE71:
 133              		.size	PCA9685_setPWM, .-PCA9685_setPWM
 134              		.section	.text.PCA9685_reset,"ax",%progbits
 135              		.align	1
 136              		.global	PCA9685_reset
 137              		.thumb
 138              		.thumb_func
 139              		.type	PCA9685_reset, %function
ARM GAS  C:\Users\chemi\AppData\Local\Temp\ccTx5rW2.s 			page 5


 140              	PCA9685_reset:
 141              	.LFB72:
  84:..\common\ud3core\helper/PCA9685.c **** }
  85:..\common\ud3core\helper/PCA9685.c **** 
  86:..\common\ud3core\helper/PCA9685.c **** void PCA9685_reset(PCA9685* ptr) {
 142              		.loc 1 86 0
 143              		.cfi_startproc
 144              		@ args = 0, pretend = 0, frame = 0
 145              		@ frame_needed = 0, uses_anonymous_args = 0
 146              	.LVL13:
 147 0000 10B5     		push	{r4, lr}
 148              		.cfi_def_cfa_offset 8
 149              		.cfi_offset 4, -8
 150              		.cfi_offset 14, -4
  87:..\common\ud3core\helper/PCA9685.c ****     if(ptr==NULL) return;
 151              		.loc 1 87 0
 152 0002 0446     		mov	r4, r0
 153 0004 78B1     		cbz	r0, .L9
  88:..\common\ud3core\helper/PCA9685.c ****     i2c_bytes_tx+=2;
 154              		.loc 1 88 0
 155 0006 084A     		ldr	r2, .L11
 156 0008 1368     		ldr	r3, [r2]
 157 000a 0233     		adds	r3, r3, #2
 158 000c 1360     		str	r3, [r2]
  89:..\common\ud3core\helper/PCA9685.c **** 	I2C_Write(ptr->address,MODE1, 0x00); //Normal mode
 159              		.loc 1 89 0
 160 000e 0022     		movs	r2, #0
 161 0010 1146     		mov	r1, r2
 162 0012 0078     		ldrb	r0, [r0]	@ zero_extendqisi2
 163              	.LVL14:
 164 0014 FFF7FEFF 		bl	I2C_Write
 165              	.LVL15:
  90:..\common\ud3core\helper/PCA9685.c **** 	I2C_Write(ptr->address,MODE2, 0x04); //totem pole
 166              		.loc 1 90 0
 167 0018 2078     		ldrb	r0, [r4]	@ zero_extendqisi2
 168 001a 0422     		movs	r2, #4
 169 001c 0121     		movs	r1, #1
  91:..\common\ud3core\helper/PCA9685.c **** 
  92:..\common\ud3core\helper/PCA9685.c **** }
 170              		.loc 1 92 0
 171 001e BDE81040 		pop	{r4, lr}
 172              		.cfi_remember_state
 173              		.cfi_restore 14
 174              		.cfi_restore 4
 175              		.cfi_def_cfa_offset 0
 176              	.LVL16:
  90:..\common\ud3core\helper/PCA9685.c **** 	I2C_Write(ptr->address,MODE2, 0x04); //totem pole
 177              		.loc 1 90 0
 178 0022 FFF7FEBF 		b	I2C_Write
 179              	.LVL17:
 180              	.L9:
 181              		.cfi_restore_state
 182 0026 10BD     		pop	{r4, pc}
 183              	.L12:
 184              		.align	2
 185              	.L11:
 186 0028 00000000 		.word	.LANCHOR0
ARM GAS  C:\Users\chemi\AppData\Local\Temp\ccTx5rW2.s 			page 6


 187              		.cfi_endproc
 188              	.LFE72:
 189              		.size	PCA9685_reset, .-PCA9685_reset
 190              		.global	__aeabi_i2d
 191              		.global	__aeabi_ddiv
 192              		.global	__aeabi_dsub
 193              		.global	__aeabi_d2uiz
 194              		.section	.text.PCA9685_setPWMFreq,"ax",%progbits
 195              		.align	1
 196              		.global	PCA9685_setPWMFreq
 197              		.thumb
 198              		.thumb_func
 199              		.type	PCA9685_setPWMFreq, %function
 200              	PCA9685_setPWMFreq:
 201              	.LFB73:
  93:..\common\ud3core\helper/PCA9685.c **** 
  94:..\common\ud3core\helper/PCA9685.c **** void PCA9685_setPWMFreq(PCA9685* ptr, int freq) {
 202              		.loc 1 94 0
 203              		.cfi_startproc
 204              		@ args = 0, pretend = 0, frame = 0
 205              		@ frame_needed = 0, uses_anonymous_args = 0
 206              	.LVL18:
 207 0000 38B5     		push	{r3, r4, r5, lr}
 208              		.cfi_def_cfa_offset 16
 209              		.cfi_offset 3, -16
 210              		.cfi_offset 4, -12
 211              		.cfi_offset 5, -8
 212              		.cfi_offset 14, -4
 213              		.loc 1 94 0
 214 0002 0D46     		mov	r5, r1
  95:..\common\ud3core\helper/PCA9685.c ****     if(ptr==NULL) return;
 215              		.loc 1 95 0
 216 0004 0446     		mov	r4, r0
 217 0006 48B3     		cbz	r0, .L13
  96:..\common\ud3core\helper/PCA9685.c ****     i2c_bytes_tx+=4;
 218              		.loc 1 96 0
 219 0008 174A     		ldr	r2, .L15+8
  97:..\common\ud3core\helper/PCA9685.c **** 	uint8_t prescale_val = (CLOCK_FREQ / 4096 / freq)  - 1;
  98:..\common\ud3core\helper/PCA9685.c **** 	I2C_Write(ptr->address,MODE1, 0x10); //sleep
 220              		.loc 1 98 0
 221 000a 0021     		movs	r1, #0
 222              	.LVL19:
  96:..\common\ud3core\helper/PCA9685.c ****     i2c_bytes_tx+=4;
 223              		.loc 1 96 0
 224 000c 1368     		ldr	r3, [r2]
 225 000e 0433     		adds	r3, r3, #4
 226 0010 1360     		str	r3, [r2]
 227              	.LVL20:
 228              		.loc 1 98 0
 229 0012 0078     		ldrb	r0, [r0]	@ zero_extendqisi2
 230              	.LVL21:
 231 0014 1022     		movs	r2, #16
 232 0016 FFF7FEFF 		bl	I2C_Write
 233              	.LVL22:
  99:..\common\ud3core\helper/PCA9685.c **** 	I2C_Write(ptr->address,PRE_SCALE, prescale_val); // multiplyer for PWM frequency
 234              		.loc 1 99 0
 235 001a 2846     		mov	r0, r5
ARM GAS  C:\Users\chemi\AppData\Local\Temp\ccTx5rW2.s 			page 7


 236 001c FFF7FEFF 		bl	__aeabi_i2d
 237              	.LVL23:
 238 0020 0246     		mov	r2, r0
 239 0022 0B46     		mov	r3, r1
 240 0024 0EA1     		adr	r1, .L15
 241 0026 D1E90001 		ldrd	r0, [r1]
 242 002a FFF7FEFF 		bl	__aeabi_ddiv
 243              	.LVL24:
 244 002e 0F4B     		ldr	r3, .L15+12
 245 0030 0022     		movs	r2, #0
 246 0032 FFF7FEFF 		bl	__aeabi_dsub
 247              	.LVL25:
 248 0036 FFF7FEFF 		bl	__aeabi_d2uiz
 249              	.LVL26:
 250 003a FE21     		movs	r1, #254
 251 003c C2B2     		uxtb	r2, r0
 252 003e 2078     		ldrb	r0, [r4]	@ zero_extendqisi2
 253 0040 FFF7FEFF 		bl	I2C_Write
 254              	.LVL27:
 100:..\common\ud3core\helper/PCA9685.c **** 	I2C_Write(ptr->address,MODE1, 0x80); //restart
 255              		.loc 1 100 0
 256 0044 2078     		ldrb	r0, [r4]	@ zero_extendqisi2
 257 0046 8022     		movs	r2, #128
 258 0048 0021     		movs	r1, #0
 259 004a FFF7FEFF 		bl	I2C_Write
 260              	.LVL28:
 101:..\common\ud3core\helper/PCA9685.c **** 	I2C_Write(ptr->address,MODE2, 0x04); //totem pole (default)
 261              		.loc 1 101 0
 262 004e 2078     		ldrb	r0, [r4]	@ zero_extendqisi2
 263 0050 0422     		movs	r2, #4
 264 0052 0121     		movs	r1, #1
 102:..\common\ud3core\helper/PCA9685.c **** }
 265              		.loc 1 102 0
 266 0054 BDE83840 		pop	{r3, r4, r5, lr}
 267              		.cfi_remember_state
 268              		.cfi_restore 14
 269              		.cfi_restore 5
 270              		.cfi_restore 4
 271              		.cfi_restore 3
 272              		.cfi_def_cfa_offset 0
 273              	.LVL29:
 101:..\common\ud3core\helper/PCA9685.c **** 	I2C_Write(ptr->address,MODE2, 0x04); //totem pole (default)
 274              		.loc 1 101 0
 275 0058 FFF7FEBF 		b	I2C_Write
 276              	.LVL30:
 277              	.L13:
 278              		.cfi_restore_state
 279 005c 38BD     		pop	{r3, r4, r5, pc}
 280              	.L16:
 281 005e 00BF     		.align	3
 282              	.L15:
 283 0060 00000000 		.word	0
 284 0064 84D7B740 		.word	1085790084
 285 0068 00000000 		.word	.LANCHOR0
 286 006c 0000F03F 		.word	1072693248
 287              		.cfi_endproc
 288              	.LFE73:
ARM GAS  C:\Users\chemi\AppData\Local\Temp\ccTx5rW2.s 			page 8


 289              		.size	PCA9685_setPWMFreq, .-PCA9685_setPWMFreq
 290              		.section	.text.PCA9685_init,"ax",%progbits
 291              		.align	1
 292              		.global	PCA9685_init
 293              		.thumb
 294              		.thumb_func
 295              		.type	PCA9685_init, %function
 296              	PCA9685_init:
 297              	.LFB74:
 103:..\common\ud3core\helper/PCA9685.c **** 
 104:..\common\ud3core\helper/PCA9685.c **** void PCA9685_init(PCA9685* ptr) {
 298              		.loc 1 104 0
 299              		.cfi_startproc
 300              		@ args = 0, pretend = 0, frame = 0
 301              		@ frame_needed = 0, uses_anonymous_args = 0
 302              	.LVL31:
 303 0000 10B5     		push	{r4, lr}
 304              		.cfi_def_cfa_offset 8
 305              		.cfi_offset 4, -8
 306              		.cfi_offset 14, -4
 105:..\common\ud3core\helper/PCA9685.c ****     if(ptr==NULL) return;
 307              		.loc 1 105 0
 308 0002 0446     		mov	r4, r0
 309 0004 88B1     		cbz	r0, .L17
 106:..\common\ud3core\helper/PCA9685.c **** 	PCA9685_reset(ptr);
 310              		.loc 1 106 0
 311 0006 FFF7FEFF 		bl	PCA9685_reset
 312              	.LVL32:
 107:..\common\ud3core\helper/PCA9685.c **** 	PCA9685_setPWMFreq(ptr, 1000);
 313              		.loc 1 107 0
 314 000a 2046     		mov	r0, r4
 315 000c 4FF47A71 		mov	r1, #1000
 316 0010 FFF7FEFF 		bl	PCA9685_setPWMFreq
 317              	.LVL33:
 108:..\common\ud3core\helper/PCA9685.c ****     i2c_bytes_tx+=1;
 318              		.loc 1 108 0
 319 0014 054A     		ldr	r2, .L19
 109:..\common\ud3core\helper/PCA9685.c ****     I2C_Write(ptr->address,MODE1, 0x21); //0010 0001 : AI ENABLED
 320              		.loc 1 109 0
 321 0016 0021     		movs	r1, #0
 108:..\common\ud3core\helper/PCA9685.c ****     i2c_bytes_tx+=1;
 322              		.loc 1 108 0
 323 0018 1368     		ldr	r3, [r2]
 324 001a 0133     		adds	r3, r3, #1
 325 001c 1360     		str	r3, [r2]
 326              		.loc 1 109 0
 327 001e 2078     		ldrb	r0, [r4]	@ zero_extendqisi2
 328 0020 2122     		movs	r2, #33
 110:..\common\ud3core\helper/PCA9685.c **** }...
 329              		.loc 1 110 0
 330 0022 BDE81040 		pop	{r4, lr}
 331              		.cfi_remember_state
 332              		.cfi_restore 14
 333              		.cfi_restore 4
 334              		.cfi_def_cfa_offset 0
 335              	.LVL34:
 109:..\common\ud3core\helper/PCA9685.c ****     I2C_Write(ptr->address,MODE1, 0x21); //0010 0001 : AI ENABLED
ARM GAS  C:\Users\chemi\AppData\Local\Temp\ccTx5rW2.s 			page 9


 336              		.loc 1 109 0
 337 0026 FFF7FEBF 		b	I2C_Write
 338              	.LVL35:
 339              	.L17:
 340              		.cfi_restore_state
 341 002a 10BD     		pop	{r4, pc}
 342              	.L20:
 343              		.align	2
 344              	.L19:
 345 002c 00000000 		.word	.LANCHOR0
 346              		.cfi_endproc
 347              	.LFE74:
 348              		.size	PCA9685_init, .-PCA9685_init
 349              		.section	.text.PCA9685_new,"ax",%progbits
 350              		.align	1
 351              		.global	PCA9685_new
 352              		.thumb
 353              		.thumb_func
 354              		.type	PCA9685_new, %function
 355              	PCA9685_new:
 356              	.LFB68:
  52:..\common\ud3core\helper/PCA9685.c **** PCA9685* PCA9685_new(uint8_t address){
 357              		.loc 1 52 0
 358              		.cfi_startproc
 359              		@ args = 0, pretend = 0, frame = 0
 360              		@ frame_needed = 0, uses_anonymous_args = 0
 361              	.LVL36:
 362 0000 38B5     		push	{r3, r4, r5, lr}
 363              		.cfi_def_cfa_offset 16
 364              		.cfi_offset 3, -16
 365              		.cfi_offset 4, -12
 366              		.cfi_offset 5, -8
 367              		.cfi_offset 14, -4
  52:..\common\ud3core\helper/PCA9685.c **** PCA9685* PCA9685_new(uint8_t address){
 368              		.loc 1 52 0
 369 0002 0546     		mov	r5, r0
  54:..\common\ud3core\helper/PCA9685.c ****     ptr = pvPortMalloc(sizeof(PCA9685)); 
 370              		.loc 1 54 0
 371 0004 0620     		movs	r0, #6
 372              	.LVL37:
 373 0006 FFF7FEFF 		bl	pvPortMalloc
 374              	.LVL38:
  55:..\common\ud3core\helper/PCA9685.c ****     if(ptr != NULL){
 375              		.loc 1 55 0
 376 000a 0446     		mov	r4, r0
 377 000c 10B1     		cbz	r0, .L22
  56:..\common\ud3core\helper/PCA9685.c ****         ptr->address = address;
 378              		.loc 1 56 0
 379 000e 0570     		strb	r5, [r0]
  57:..\common\ud3core\helper/PCA9685.c ****         PCA9685_init(ptr);
 380              		.loc 1 57 0
 381 0010 FFF7FEFF 		bl	PCA9685_init
 382              	.LVL39:
 383              	.L22:
  61:..\common\ud3core\helper/PCA9685.c **** }
 384              		.loc 1 61 0
 385 0014 2046     		mov	r0, r4
ARM GAS  C:\Users\chemi\AppData\Local\Temp\ccTx5rW2.s 			page 10


 386 0016 38BD     		pop	{r3, r4, r5, pc}
 387              		.cfi_endproc
 388              	.LFE68:
 389              		.size	PCA9685_new, .-PCA9685_new
 390              		.global	i2c_bytes_tx
 391              		.global	i2c_bytes_rx
 392              		.bss
 393              		.align	2
 394              		.set	.LANCHOR0,. + 0
 395              		.type	i2c_bytes_tx, %object
 396              		.size	i2c_bytes_tx, 4
 397              	i2c_bytes_tx:
 398 0000 00000000 		.space	4
 399              		.type	i2c_bytes_rx, %object
 400              		.size	i2c_bytes_rx, 4
 401              	i2c_bytes_rx:
 402 0004 00000000 		.space	4
 403              		.text
 404              	.Letext0:
 405              		.file 2 "c:\\program files (x86)\\cypress\\psoc creator\\4.4\\psoc creator\\import\\gnu\\arm\\5.4.
 406              		.file 3 "c:\\program files (x86)\\cypress\\psoc creator\\4.4\\psoc creator\\import\\gnu\\arm\\5.4.
 407              		.file 4 "..\\common\\ud3core\\helper\\PCA9685.h"
 408              		.file 5 "Generated_Source\\PSoC5/core_cm3.h"
 409              		.file 6 "..\\common\\rtos\\include/portable.h"
 410              		.file 7 "..\\common\\ud3core\\helper\\i2c_helper.h"