ARM GAS  C:\Users\chemi\AppData\Local\Temp\ccvd4c4w.s 			page 1


   1              		.syntax unified
   2              		.cpu cortex-m3
   3              		.fpu softvfp
   4              		.eabi_attribute 20, 1
   5              		.eabi_attribute 21, 1
   6              		.eabi_attribute 23, 3
   7              		.eabi_attribute 24, 1
   8              		.eabi_attribute 25, 1
   9              		.eabi_attribute 26, 1
  10              		.eabi_attribute 30, 4
  11              		.eabi_attribute 34, 1
  12              		.eabi_attribute 18, 4
  13              		.thumb
  14              		.syntax unified
  15              		.file	"printf.c"
  16              		.text
  17              	.Ltext0:
  18              		.cfi_sections	.debug_frame
  19              		.section	.text._out_buffer,"ax",%progbits
  20              		.align	1
  21              		.thumb
  22              		.thumb_func
  23              		.type	_out_buffer, %function
  24              	_out_buffer:
  25              	.LFB68:
  26              		.file 1 "..\\common\\ud3core\\helper\\printf.c"
   1:..\common\ud3core\helper/printf.c **** ///////////////////////////////////////////////////////////////////////////////
   2:..\common\ud3core\helper/printf.c **** // \author (c) Marco Paland (info@paland.com)
   3:..\common\ud3core\helper/printf.c **** //             2014-2018, PALANDesign Hannover, Germany
   4:..\common\ud3core\helper/printf.c **** //
   5:..\common\ud3core\helper/printf.c **** // \license The MIT License (MIT)
   6:..\common\ud3core\helper/printf.c **** //
   7:..\common\ud3core\helper/printf.c **** // Permission is hereby granted, free of charge, to any person obtaining a copy
   8:..\common\ud3core\helper/printf.c **** // of this software and associated documentation files (the "Software"), to deal
   9:..\common\ud3core\helper/printf.c **** // in the Software without restriction, including without limitation the rights
  10:..\common\ud3core\helper/printf.c **** // to use, copy, modify, merge, publish, distribute, sublicense, and/or sell
  11:..\common\ud3core\helper/printf.c **** // copies of the Software, and to permit persons to whom the Software is
  12:..\common\ud3core\helper/printf.c **** // furnished to do so, subject to the following conditions:
  13:..\common\ud3core\helper/printf.c **** //
  14:..\common\ud3core\helper/printf.c **** // The above copyright notice and this permission notice shall be included in
  15:..\common\ud3core\helper/printf.c **** // all copies or substantial portions of the Software.
  16:..\common\ud3core\helper/printf.c **** //
  17:..\common\ud3core\helper/printf.c **** // THE SOFTWARE IS PROVIDED "AS IS", WITHOUT WARRANTY OF ANY KIND, EXPRESS OR
  18:..\common\ud3core\helper/printf.c **** // IMPLIED, INCLUDING BUT NOT LIMITED TO THE WARRANTIES OF MERCHANTABILITY,
  19:..\common\ud3core\helper/printf.c **** // FITNESS FOR A PARTICULAR PURPOSE AND NONINFRINGEMENT. IN NO EVENT SHALL THE
  20:..\common\ud3core\helper/printf.c **** // AUTHORS OR COPYRIGHT HOLDERS BE LIABLE FOR ANY CLAIM, DAMAGES OR OTHER
  21:..\common\ud3core\helper/printf.c **** // LIABILITY, WHETHER IN AN ACTION OF CONTRACT, TORT OR OTHERWISE, ARISING FROM,
  22:..\common\ud3core\helper/printf.c **** // OUT OF OR IN CONNECTION WITH THE SOFTWARE OR THE USE OR OTHER DEALINGS IN
  23:..\common\ud3core\helper/printf.c **** // THE SOFTWARE.
  24:..\common\ud3core\helper/printf.c **** //
  25:..\common\ud3core\helper/printf.c **** // \brief Tiny printf, sprintf and (v)snprintf implementation, optimized for speed on
  26:..\common\ud3core\helper/printf.c **** //        embedded systems with a very limited resources. These routines are thread
  27:..\common\ud3core\helper/printf.c **** //        safe and reentrant!
  28:..\common\ud3core\helper/printf.c **** //        Use this instead of the bloated standard/newlib printf cause these use
  29:..\common\ud3core\helper/printf.c **** //        malloc for printf (and may not be thread safe).
  30:..\common\ud3core\helper/printf.c **** //
  31:..\common\ud3core\helper/printf.c **** ///////////////////////////////////////////////////////////////////////////////
ARM GAS  C:\Users\chemi\AppData\Local\Temp\ccvd4c4w.s 			page 2


  32:..\common\ud3core\helper/printf.c **** 
  33:..\common\ud3core\helper/printf.c **** #include <stdbool.h>
  34:..\common\ud3core\helper/printf.c **** #include <stdint.h>
  35:..\common\ud3core\helper/printf.c **** 
  36:..\common\ud3core\helper/printf.c **** #include "printf.h"
  37:..\common\ud3core\helper/printf.c **** #include "FreeRTOS.h"
  38:..\common\ud3core\helper/printf.c **** #include "queue.h"
  39:..\common\ud3core\helper/printf.c **** #include "cli_basic.h"
  40:..\common\ud3core\helper/printf.c **** #include "debug.h"
  41:..\common\ud3core\helper/printf.c **** 
  42:..\common\ud3core\helper/printf.c **** 
  43:..\common\ud3core\helper/printf.c **** // define this globally (e.g. gcc -DPRINTF_INCLUDE_CONFIG_H ...) to include the
  44:..\common\ud3core\helper/printf.c **** // printf_config.h header file
  45:..\common\ud3core\helper/printf.c **** // default: undefined
  46:..\common\ud3core\helper/printf.c **** #ifdef PRINTF_INCLUDE_CONFIG_H
  47:..\common\ud3core\helper/printf.c **** #include "printf_config.h"
  48:..\common\ud3core\helper/printf.c **** #endif
  49:..\common\ud3core\helper/printf.c **** 
  50:..\common\ud3core\helper/printf.c **** 
  51:..\common\ud3core\helper/printf.c **** // 'ntoa' conversion buffer size, this must be big enough to hold one converted
  52:..\common\ud3core\helper/printf.c **** // numeric number including padded zeros (dynamically created on stack)
  53:..\common\ud3core\helper/printf.c **** // default: 32 byte
  54:..\common\ud3core\helper/printf.c **** #ifndef PRINTF_NTOA_BUFFER_SIZE
  55:..\common\ud3core\helper/printf.c **** #define PRINTF_NTOA_BUFFER_SIZE    32U
  56:..\common\ud3core\helper/printf.c **** #endif
  57:..\common\ud3core\helper/printf.c **** 
  58:..\common\ud3core\helper/printf.c **** // 'ftoa' conversion buffer size, this must be big enough to hold one converted
  59:..\common\ud3core\helper/printf.c **** // float number including padded zeros (dynamically created on stack)
  60:..\common\ud3core\helper/printf.c **** // default: 32 byte
  61:..\common\ud3core\helper/printf.c **** #ifndef PRINTF_FTOA_BUFFER_SIZE
  62:..\common\ud3core\helper/printf.c **** #define PRINTF_FTOA_BUFFER_SIZE    32U
  63:..\common\ud3core\helper/printf.c **** #endif
  64:..\common\ud3core\helper/printf.c **** 
  65:..\common\ud3core\helper/printf.c **** // support for the floating point type (%f)
  66:..\common\ud3core\helper/printf.c **** // default: activated
  67:..\common\ud3core\helper/printf.c **** #ifndef PRINTF_DISABLE_SUPPORT_FLOAT
  68:..\common\ud3core\helper/printf.c **** #define PRINTF_SUPPORT_FLOAT
  69:..\common\ud3core\helper/printf.c **** #endif
  70:..\common\ud3core\helper/printf.c **** 
  71:..\common\ud3core\helper/printf.c **** // support for the long long types (%llu or %p)
  72:..\common\ud3core\helper/printf.c **** // default: activated
  73:..\common\ud3core\helper/printf.c **** #ifndef PRINTF_DISABLE_SUPPORT_LONG_LONG
  74:..\common\ud3core\helper/printf.c **** #define PRINTF_SUPPORT_LONG_LONG
  75:..\common\ud3core\helper/printf.c **** #endif
  76:..\common\ud3core\helper/printf.c **** 
  77:..\common\ud3core\helper/printf.c **** // support for the ptrdiff_t type (%t)
  78:..\common\ud3core\helper/printf.c **** // ptrdiff_t is normally defined in <stddef.h> as long or long long type
  79:..\common\ud3core\helper/printf.c **** // default: activated
  80:..\common\ud3core\helper/printf.c **** #ifndef PRINTF_DISABLE_SUPPORT_PTRDIFF_T
  81:..\common\ud3core\helper/printf.c **** #define PRINTF_SUPPORT_PTRDIFF_T
  82:..\common\ud3core\helper/printf.c **** #endif
  83:..\common\ud3core\helper/printf.c **** 
  84:..\common\ud3core\helper/printf.c **** ///////////////////////////////////////////////////////////////////////////////
  85:..\common\ud3core\helper/printf.c **** 
  86:..\common\ud3core\helper/printf.c **** // internal flag definitions
  87:..\common\ud3core\helper/printf.c **** #define FLAGS_ZEROPAD   (1U <<  0U)
  88:..\common\ud3core\helper/printf.c **** #define FLAGS_LEFT      (1U <<  1U)
ARM GAS  C:\Users\chemi\AppData\Local\Temp\ccvd4c4w.s 			page 3


  89:..\common\ud3core\helper/printf.c **** #define FLAGS_PLUS      (1U <<  2U)
  90:..\common\ud3core\helper/printf.c **** #define FLAGS_SPACE     (1U <<  3U)
  91:..\common\ud3core\helper/printf.c **** #define FLAGS_HASH      (1U <<  4U)
  92:..\common\ud3core\helper/printf.c **** #define FLAGS_UPPERCASE (1U <<  5U)
  93:..\common\ud3core\helper/printf.c **** #define FLAGS_CHAR      (1U <<  6U)
  94:..\common\ud3core\helper/printf.c **** #define FLAGS_SHORT     (1U <<  7U)
  95:..\common\ud3core\helper/printf.c **** #define FLAGS_LONG      (1U <<  8U)
  96:..\common\ud3core\helper/printf.c **** #define FLAGS_LONG_LONG (1U <<  9U)
  97:..\common\ud3core\helper/printf.c **** #define FLAGS_PRECISION (1U << 10U)
  98:..\common\ud3core\helper/printf.c **** 
  99:..\common\ud3core\helper/printf.c **** 
 100:..\common\ud3core\helper/printf.c **** // output function type
 101:..\common\ud3core\helper/printf.c **** typedef void (*out_fct_type)(char character, void* buffer, size_t idx, size_t maxlen);
 102:..\common\ud3core\helper/printf.c **** 
 103:..\common\ud3core\helper/printf.c **** 
 104:..\common\ud3core\helper/printf.c **** // wrapper (used as buffer) for output function type
 105:..\common\ud3core\helper/printf.c **** typedef struct {
 106:..\common\ud3core\helper/printf.c ****   void  (*fct)(char character, void* arg);
 107:..\common\ud3core\helper/printf.c ****   void* arg;
 108:..\common\ud3core\helper/printf.c **** } out_fct_wrap_type;
 109:..\common\ud3core\helper/printf.c **** 
 110:..\common\ud3core\helper/printf.c **** 
 111:..\common\ud3core\helper/printf.c **** // internal buffer output
 112:..\common\ud3core\helper/printf.c **** static inline void _out_buffer(char character, void* buffer, size_t idx, size_t maxlen)
 113:..\common\ud3core\helper/printf.c **** {
  27              		.loc 1 113 0
  28              		.cfi_startproc
  29              		@ args = 0, pretend = 0, frame = 0
  30              		@ frame_needed = 0, uses_anonymous_args = 0
  31              		@ link register save eliminated.
  32              	.LVL0:
 114:..\common\ud3core\helper/printf.c ****   if (idx < maxlen) {
  33              		.loc 1 114 0
  34 0000 9A42     		cmp	r2, r3
 115:..\common\ud3core\helper/printf.c ****     ((char*)buffer)[idx] = character;
  35              		.loc 1 115 0
  36 0002 38BF     		it	cc
  37 0004 8854     		strbcc	r0, [r1, r2]
  38 0006 7047     		bx	lr
  39              		.cfi_endproc
  40              	.LFE68:
  41              		.size	_out_buffer, .-_out_buffer
  42              		.section	.text._out_null,"ax",%progbits
  43              		.align	1
  44              		.thumb
  45              		.thumb_func
  46              		.type	_out_null, %function
  47              	_out_null:
  48              	.LFB69:
 116:..\common\ud3core\helper/printf.c ****   }
 117:..\common\ud3core\helper/printf.c **** }
 118:..\common\ud3core\helper/printf.c **** 
 119:..\common\ud3core\helper/printf.c **** 
 120:..\common\ud3core\helper/printf.c **** // internal null output
 121:..\common\ud3core\helper/printf.c **** static inline void _out_null(char character, void* buffer, size_t idx, size_t maxlen)
 122:..\common\ud3core\helper/printf.c **** {
  49              		.loc 1 122 0
ARM GAS  C:\Users\chemi\AppData\Local\Temp\ccvd4c4w.s 			page 4


  50              		.cfi_startproc
  51              		@ args = 0, pretend = 0, frame = 0
  52              		@ frame_needed = 0, uses_anonymous_args = 0
  53              		@ link register save eliminated.
  54              	.LVL1:
  55 0000 7047     		bx	lr
  56              		.cfi_endproc
  57              	.LFE69:
  58              		.size	_out_null, .-_out_null
  59              		.section	.text._out_fct,"ax",%progbits
  60              		.align	1
  61              		.thumb
  62              		.thumb_func
  63              		.type	_out_fct, %function
  64              	_out_fct:
  65              	.LFB71:
 123:..\common\ud3core\helper/printf.c ****   (void)character; (void)buffer; (void)idx; (void)maxlen;
 124:..\common\ud3core\helper/printf.c **** }
 125:..\common\ud3core\helper/printf.c **** 
 126:..\common\ud3core\helper/printf.c **** 
 127:..\common\ud3core\helper/printf.c **** // internal _putchar wrapper
 128:..\common\ud3core\helper/printf.c **** static inline void _out_char(char character, void* buffer, size_t idx, size_t maxlen)
 129:..\common\ud3core\helper/printf.c **** {
 130:..\common\ud3core\helper/printf.c ****   (void)buffer; (void)idx; (void)maxlen;
 131:..\common\ud3core\helper/printf.c ****   if (character) {
 132:..\common\ud3core\helper/printf.c ****     _putchar(character);
 133:..\common\ud3core\helper/printf.c ****   }
 134:..\common\ud3core\helper/printf.c **** }
 135:..\common\ud3core\helper/printf.c **** 
 136:..\common\ud3core\helper/printf.c **** 
 137:..\common\ud3core\helper/printf.c **** // internal output function wrapper
 138:..\common\ud3core\helper/printf.c **** static inline void _out_fct(char character, void* buffer, size_t idx, size_t maxlen)
 139:..\common\ud3core\helper/printf.c **** {
  66              		.loc 1 139 0
  67              		.cfi_startproc
  68              		@ args = 0, pretend = 0, frame = 0
  69              		@ frame_needed = 0, uses_anonymous_args = 0
  70              		@ link register save eliminated.
  71              	.LVL2:
 140:..\common\ud3core\helper/printf.c ****   (void)idx; (void)maxlen;
 141:..\common\ud3core\helper/printf.c ****   // buffer is the output fct pointer
 142:..\common\ud3core\helper/printf.c ****   ((out_fct_wrap_type*)buffer)->fct(character, ((out_fct_wrap_type*)buffer)->arg);
  72              		.loc 1 142 0
  73 0000 0B68     		ldr	r3, [r1]
  74              	.LVL3:
  75 0002 4968     		ldr	r1, [r1, #4]
  76              	.LVL4:
  77 0004 1847     		bx	r3	@ indirect register sibling call
  78              	.LVL5:
  79              		.cfi_endproc
  80              	.LFE71:
  81              		.size	_out_fct, .-_out_fct
  82              		.section	.text._ntoa_format,"ax",%progbits
  83              		.align	1
  84              		.thumb
  85              		.thumb_func
  86              		.type	_ntoa_format, %function
ARM GAS  C:\Users\chemi\AppData\Local\Temp\ccvd4c4w.s 			page 5


  87              	_ntoa_format:
  88              	.LFB75:
 143:..\common\ud3core\helper/printf.c **** }
 144:..\common\ud3core\helper/printf.c **** 
 145:..\common\ud3core\helper/printf.c **** 
 146:..\common\ud3core\helper/printf.c **** // internal secure strlen
 147:..\common\ud3core\helper/printf.c **** // \return The length of the string (excluding the terminating 0)
 148:..\common\ud3core\helper/printf.c **** //         limited by 'max' size if non-zero
 149:..\common\ud3core\helper/printf.c **** static inline unsigned int _strnlen_s(const char* str, size_t maxsize)
 150:..\common\ud3core\helper/printf.c **** {
 151:..\common\ud3core\helper/printf.c ****   const char* s;
 152:..\common\ud3core\helper/printf.c ****   for (s = str; *s && maxsize--; ++s);
 153:..\common\ud3core\helper/printf.c ****   return (unsigned int)(s - str);
 154:..\common\ud3core\helper/printf.c **** }
 155:..\common\ud3core\helper/printf.c **** 
 156:..\common\ud3core\helper/printf.c **** 
 157:..\common\ud3core\helper/printf.c **** // internal test if char is a digit (0-9)
 158:..\common\ud3core\helper/printf.c **** // \return true if char is a digit
 159:..\common\ud3core\helper/printf.c **** static inline bool _is_digit(char ch)
 160:..\common\ud3core\helper/printf.c **** {
 161:..\common\ud3core\helper/printf.c ****   return (ch >= '0') && (ch <= '9');
 162:..\common\ud3core\helper/printf.c **** }
 163:..\common\ud3core\helper/printf.c **** 
 164:..\common\ud3core\helper/printf.c **** 
 165:..\common\ud3core\helper/printf.c **** // internal ASCII string to unsigned int conversion
 166:..\common\ud3core\helper/printf.c **** static unsigned int _atoi(const char** str)
 167:..\common\ud3core\helper/printf.c **** {
 168:..\common\ud3core\helper/printf.c ****   unsigned int i = 0U;
 169:..\common\ud3core\helper/printf.c ****   while (_is_digit(**str)) {
 170:..\common\ud3core\helper/printf.c ****     i = i * 10U + (unsigned int)(*((*str)++) - '0');
 171:..\common\ud3core\helper/printf.c ****   }
 172:..\common\ud3core\helper/printf.c ****   return i;
 173:..\common\ud3core\helper/printf.c **** }
 174:..\common\ud3core\helper/printf.c **** 
 175:..\common\ud3core\helper/printf.c **** 
 176:..\common\ud3core\helper/printf.c **** // internal itoa format
 177:..\common\ud3core\helper/printf.c **** static size_t _ntoa_format(out_fct_type out, char* buffer, size_t idx, size_t maxlen, char* buf, si
 178:..\common\ud3core\helper/printf.c **** {
  89              		.loc 1 178 0
  90              		.cfi_startproc
  91              		@ args = 28, pretend = 0, frame = 16
  92              		@ frame_needed = 0, uses_anonymous_args = 0
  93              	.LVL6:
  94 0000 2DE9F04F 		push	{r4, r5, r6, r7, r8, r9, r10, fp, lr}
  95              		.cfi_def_cfa_offset 36
  96              		.cfi_offset 4, -36
  97              		.cfi_offset 5, -32
  98              		.cfi_offset 6, -28
  99              		.cfi_offset 7, -24
 100              		.cfi_offset 8, -20
 101              		.cfi_offset 9, -16
 102              		.cfi_offset 10, -12
 103              		.cfi_offset 11, -8
 104              		.cfi_offset 14, -4
 105 0004 85B0     		sub	sp, sp, #20
 106              		.cfi_def_cfa_offset 56
 107              		.loc 1 178 0
ARM GAS  C:\Users\chemi\AppData\Local\Temp\ccvd4c4w.s 			page 6


 108 0006 9946     		mov	r9, r3
 109 0008 149B     		ldr	r3, [sp, #80]
 110              	.LVL7:
 111 000a 8346     		mov	fp, r0
 179:..\common\ud3core\helper/printf.c ****   const size_t start_idx = idx;
 180:..\common\ud3core\helper/printf.c **** 
 181:..\common\ud3core\helper/printf.c ****   // pad leading zeros
 182:..\common\ud3core\helper/printf.c ****   if (!(flags & FLAGS_LEFT)) {
 112              		.loc 1 182 0
 113 000c 13F00200 		ands	r0, r3, #2
 114              	.LVL8:
 178:..\common\ud3core\helper/printf.c ****   const size_t start_idx = idx;
 115              		.loc 1 178 0
 116 0010 0191     		str	r1, [sp, #4]
 117 0012 9046     		mov	r8, r2
 118              	.LVL9:
 119 0014 0E9D     		ldr	r5, [sp, #56]
 120 0016 0F9C     		ldr	r4, [sp, #60]
 121 0018 9DF84010 		ldrb	r1, [sp, #64]	@ zero_extendqisi2
 122              	.LVL10:
 123 001c 119A     		ldr	r2, [sp, #68]
 124              	.LVL11:
 125 001e DDF848C0 		ldr	ip, [sp, #72]
 126 0022 139E     		ldr	r6, [sp, #76]
 127              		.loc 1 182 0
 128 0024 0290     		str	r0, [sp, #8]
 129 0026 18D1     		bne	.L6
 130 0028 2819     		adds	r0, r5, r4
 183:..\common\ud3core\helper/printf.c ****     while ((len < prec) && (len < PRINTF_NTOA_BUFFER_SIZE)) {
 184:..\common\ud3core\helper/printf.c ****       buf[len++] = '0';
 131              		.loc 1 184 0
 132 002a 3027     		movs	r7, #48
 133              	.LVL12:
 134              	.L7:
 183:..\common\ud3core\helper/printf.c ****     while ((len < prec) && (len < PRINTF_NTOA_BUFFER_SIZE)) {
 135              		.loc 1 183 0
 136 002c 6445     		cmp	r4, ip
 137 002e 05D3     		bcc	.L8
 138              	.L11:
 139 0030 2819     		adds	r0, r5, r4
 185:..\common\ud3core\helper/printf.c ****     }
 186:..\common\ud3core\helper/printf.c ****     while ((flags & FLAGS_ZEROPAD) && (len < width) && (len < PRINTF_NTOA_BUFFER_SIZE)) {
 140              		.loc 1 186 0
 141 0032 03F00107 		and	r7, r3, #1
 187:..\common\ud3core\helper/printf.c ****       buf[len++] = '0';
 142              		.loc 1 187 0
 143 0036 4FF0300E 		mov	lr, #48
 144 003a 0CE0     		b	.L9
 145              	.L8:
 183:..\common\ud3core\helper/printf.c ****     while ((len < prec) && (len < PRINTF_NTOA_BUFFER_SIZE)) {
 146              		.loc 1 183 0 discriminator 1
 147 003c 1F2C     		cmp	r4, #31
 148 003e F7D8     		bhi	.L11
 184:..\common\ud3core\helper/printf.c ****     }
 149              		.loc 1 184 0
 150 0040 0134     		adds	r4, r4, #1
 151              	.LVL13:
ARM GAS  C:\Users\chemi\AppData\Local\Temp\ccvd4c4w.s 			page 7


 152 0042 00F8017B 		strb	r7, [r0], #1
 153 0046 F1E7     		b	.L7
 154              	.L63:
 186:..\common\ud3core\helper/printf.c ****       buf[len++] = '0';
 155              		.loc 1 186 0 discriminator 1
 156 0048 B442     		cmp	r4, r6
 157 004a 06D2     		bcs	.L6
 186:..\common\ud3core\helper/printf.c ****       buf[len++] = '0';
 158              		.loc 1 186 0 is_stmt 0 discriminator 2
 159 004c 1F2C     		cmp	r4, #31
 160 004e 04D8     		bhi	.L6
 161              		.loc 1 187 0 is_stmt 1
 162 0050 0134     		adds	r4, r4, #1
 163              	.LVL14:
 164 0052 00F801EB 		strb	lr, [r0], #1
 165              	.L9:
 186:..\common\ud3core\helper/printf.c ****       buf[len++] = '0';
 166              		.loc 1 186 0
 167 0056 002F     		cmp	r7, #0
 168 0058 F6D1     		bne	.L63
 169              	.LVL15:
 170              	.L6:
 188:..\common\ud3core\helper/printf.c ****     }
 189:..\common\ud3core\helper/printf.c ****   }
 190:..\common\ud3core\helper/printf.c **** 
 191:..\common\ud3core\helper/printf.c ****   // handle hash
 192:..\common\ud3core\helper/printf.c ****   if (flags & FLAGS_HASH) {
 171              		.loc 1 192 0
 172 005a D806     		lsls	r0, r3, #27
 173 005c 27D5     		bpl	.L13
 193:..\common\ud3core\helper/printf.c ****     if (!(flags & FLAGS_PRECISION) && len && ((len == prec) || (len == width))) {
 174              		.loc 1 193 0
 175 005e 5F05     		lsls	r7, r3, #21
 176 0060 0BD4     		bmi	.L14
 177              		.loc 1 193 0 is_stmt 0 discriminator 1
 178 0062 54B1     		cbz	r4, .L14
 179              		.loc 1 193 0 discriminator 2
 180 0064 6445     		cmp	r4, ip
 181 0066 01D0     		beq	.L15
 182              		.loc 1 193 0 discriminator 3
 183 0068 B442     		cmp	r4, r6
 184 006a 06D1     		bne	.L14
 185              	.L15:
 186              	.LVL16:
 194:..\common\ud3core\helper/printf.c ****       len--;
 195:..\common\ud3core\helper/printf.c ****       if (len && (base == 16U)) {
 187              		.loc 1 195 0 is_stmt 1
 188 006c 601E     		subs	r0, r4, #1
 189              	.LVL17:
 190 006e 03D0     		beq	.L37
 191              		.loc 1 195 0 is_stmt 0 discriminator 1
 192 0070 102A     		cmp	r2, #16
 193 0072 0ED1     		bne	.L38
 196:..\common\ud3core\helper/printf.c ****         len--;
 194              		.loc 1 196 0 is_stmt 1
 195 0074 023C     		subs	r4, r4, #2
 196              	.LVL18:
ARM GAS  C:\Users\chemi\AppData\Local\Temp\ccvd4c4w.s 			page 8


 197 0076 02E0     		b	.L17
 198              	.LVL19:
 199              	.L37:
 200 0078 0446     		mov	r4, r0
 201              	.LVL20:
 202              	.L14:
 197:..\common\ud3core\helper/printf.c ****       }
 198:..\common\ud3core\helper/printf.c ****     }
 199:..\common\ud3core\helper/printf.c ****     if ((base == 16U) && !(flags & FLAGS_UPPERCASE) && (len < PRINTF_NTOA_BUFFER_SIZE)) {
 203              		.loc 1 199 0
 204 007a 102A     		cmp	r2, #16
 205 007c 0AD1     		bne	.L16
 206              	.L17:
 207              		.loc 1 199 0 is_stmt 0 discriminator 1
 208 007e 9806     		lsls	r0, r3, #26
 209 0080 03D4     		bmi	.L18
 210              		.loc 1 199 0 discriminator 2
 211 0082 1F2C     		cmp	r4, #31
 212 0084 14D8     		bhi	.L36
 213              	.LVL21:
 200:..\common\ud3core\helper/printf.c ****       buf[len++] = 'x';
 214              		.loc 1 200 0 is_stmt 1
 215 0086 7822     		movs	r2, #120
 216 0088 09E0     		b	.L60
 217              	.LVL22:
 218              	.L18:
 201:..\common\ud3core\helper/printf.c ****     }
 202:..\common\ud3core\helper/printf.c ****     else if ((base == 16U) && (flags & FLAGS_UPPERCASE) && (len < PRINTF_NTOA_BUFFER_SIZE)) {
 219              		.loc 1 202 0 discriminator 2
 220 008a 1F2C     		cmp	r4, #31
 221 008c 10D8     		bhi	.L36
 222              	.LVL23:
 203:..\common\ud3core\helper/printf.c ****       buf[len++] = 'X';
 223              		.loc 1 203 0
 224 008e 5822     		movs	r2, #88
 225 0090 05E0     		b	.L60
 226              	.LVL24:
 227              	.L38:
 228 0092 0446     		mov	r4, r0
 229              	.LVL25:
 230              	.L16:
 204:..\common\ud3core\helper/printf.c ****     }
 205:..\common\ud3core\helper/printf.c ****     else if ((base == 2U) && (len < PRINTF_NTOA_BUFFER_SIZE)) {
 231              		.loc 1 205 0
 232 0094 022A     		cmp	r2, #2
 233 0096 04D1     		bne	.L20
 234              		.loc 1 205 0 is_stmt 0 discriminator 1
 235 0098 1F2C     		cmp	r4, #31
 236 009a 09D8     		bhi	.L36
 237              	.LVL26:
 206:..\common\ud3core\helper/printf.c ****       buf[len++] = 'b';
 238              		.loc 1 206 0 is_stmt 1
 239 009c 6222     		movs	r2, #98
 240              	.LVL27:
 241              	.L60:
 242 009e 2A55     		strb	r2, [r5, r4]
 243              	.LVL28:
ARM GAS  C:\Users\chemi\AppData\Local\Temp\ccvd4c4w.s 			page 9


 244 00a0 0134     		adds	r4, r4, #1
 245              	.L20:
 246              	.LVL29:
 207:..\common\ud3core\helper/printf.c ****     }
 208:..\common\ud3core\helper/printf.c ****     if (len < PRINTF_NTOA_BUFFER_SIZE) {
 247              		.loc 1 208 0
 248 00a2 1F2C     		cmp	r4, #31
 249 00a4 04D8     		bhi	.L36
 250              	.LVL30:
 209:..\common\ud3core\helper/printf.c ****       buf[len++] = '0';
 251              		.loc 1 209 0
 252 00a6 3022     		movs	r2, #48
 253 00a8 2A55     		strb	r2, [r5, r4]
 254 00aa 0134     		adds	r4, r4, #1
 255              	.LVL31:
 256 00ac 00E0     		b	.L36
 257              	.LVL32:
 258              	.L13:
 210:..\common\ud3core\helper/printf.c ****     }
 211:..\common\ud3core\helper/printf.c ****   }
 212:..\common\ud3core\helper/printf.c **** 
 213:..\common\ud3core\helper/printf.c ****   // handle sign
 214:..\common\ud3core\helper/printf.c ****   if (len && (len == width) && (negative || (flags & FLAGS_PLUS) || (flags & FLAGS_SPACE))) {
 259              		.loc 1 214 0
 260 00ae 44B1     		cbz	r4, .L21
 261              	.LVL33:
 262              	.L36:
 263              		.loc 1 214 0 is_stmt 0 discriminator 1
 264 00b0 A642     		cmp	r6, r4
 265 00b2 04D1     		bne	.L22
 266              		.loc 1 214 0 discriminator 2
 267 00b4 11B9     		cbnz	r1, .L23
 268              		.loc 1 214 0 discriminator 3
 269 00b6 13F00C0F 		tst	r3, #12
 270 00ba 05D0     		beq	.L24
 271              	.L23:
 215:..\common\ud3core\helper/printf.c ****     len--;
 272              		.loc 1 215 0 is_stmt 1
 273 00bc 741E     		subs	r4, r6, #1
 274              	.LVL34:
 275              	.L22:
 216:..\common\ud3core\helper/printf.c ****   }
 217:..\common\ud3core\helper/printf.c ****   if (len < PRINTF_NTOA_BUFFER_SIZE) {
 276              		.loc 1 217 0
 277 00be 1F2C     		cmp	r4, #31
 278 00c0 0ED8     		bhi	.L25
 279              	.L21:
 218:..\common\ud3core\helper/printf.c ****     if (negative) {
 280              		.loc 1 218 0
 281 00c2 21B1     		cbz	r1, .L26
 282              	.LVL35:
 219:..\common\ud3core\helper/printf.c ****       buf[len++] = '-';
 283              		.loc 1 219 0
 284 00c4 2D22     		movs	r2, #45
 285 00c6 09E0     		b	.L61
 286              	.LVL36:
 287              	.L24:
ARM GAS  C:\Users\chemi\AppData\Local\Temp\ccvd4c4w.s 			page 10


 217:..\common\ud3core\helper/printf.c ****     if (negative) {
 288              		.loc 1 217 0
 289 00c8 1F2E     		cmp	r6, #31
 290 00ca 3446     		mov	r4, r6
 291 00cc 08D8     		bhi	.L25
 292              	.LVL37:
 293              	.L26:
 220:..\common\ud3core\helper/printf.c ****     }
 221:..\common\ud3core\helper/printf.c ****     else if (flags & FLAGS_PLUS) {
 294              		.loc 1 221 0
 295 00ce 5907     		lsls	r1, r3, #29
 296 00d0 01D5     		bpl	.L27
 297              	.LVL38:
 222:..\common\ud3core\helper/printf.c ****       buf[len++] = '+';  // ignore the space if the '+' exists
 298              		.loc 1 222 0
 299 00d2 2B22     		movs	r2, #43
 300 00d4 02E0     		b	.L61
 301              	.LVL39:
 302              	.L27:
 223:..\common\ud3core\helper/printf.c ****     }
 224:..\common\ud3core\helper/printf.c ****     else if (flags & FLAGS_SPACE) {
 303              		.loc 1 224 0
 304 00d6 1A07     		lsls	r2, r3, #28
 305 00d8 02D5     		bpl	.L25
 306              	.LVL40:
 225:..\common\ud3core\helper/printf.c ****       buf[len++] = ' ';
 307              		.loc 1 225 0
 308 00da 2022     		movs	r2, #32
 309              	.LVL41:
 310              	.L61:
 311 00dc 2A55     		strb	r2, [r5, r4]
 312 00de 0134     		adds	r4, r4, #1
 313              	.L25:
 314              	.LVL42:
 226:..\common\ud3core\helper/printf.c ****     }
 227:..\common\ud3core\helper/printf.c ****   }
 228:..\common\ud3core\helper/printf.c **** 
 229:..\common\ud3core\helper/printf.c ****   // pad spaces up to given width
 230:..\common\ud3core\helper/printf.c ****   if (!(flags & FLAGS_LEFT) && !(flags & FLAGS_ZEROPAD)) {
 315              		.loc 1 230 0
 316 00e0 9B07     		lsls	r3, r3, #30
 317 00e2 4746     		mov	r7, r8
 318 00e4 02D1     		bne	.L28
 319              	.LVL43:
 320 00e6 C8EB040A 		rsb	r10, r8, r4
 321 00ea 03E0     		b	.L29
 322              	.LVL44:
 323              	.L28:
 324 00ec 2544     		add	r5, r5, r4
 325              	.LBB18:
 231:..\common\ud3core\helper/printf.c ****     for (size_t i = len; i < width; i++) {
 232:..\common\ud3core\helper/printf.c ****       out(' ', buffer, idx++, maxlen);
 326              		.loc 1 232 0 discriminator 1
 327 00ee 4FF0000A 		mov	r10, #0
 328 00f2 0CE0     		b	.L30
 329              	.LVL45:
 330              	.L29:
ARM GAS  C:\Users\chemi\AppData\Local\Temp\ccvd4c4w.s 			page 11


 231:..\common\ud3core\helper/printf.c ****     for (size_t i = len; i < width; i++) {
 331              		.loc 1 231 0 discriminator 1
 332 00f4 07EB0A03 		add	r3, r7, r10
 333 00f8 9E42     		cmp	r6, r3
 334 00fa F7D9     		bls	.L28
 335              		.loc 1 232 0 discriminator 3
 336 00fc 7B1C     		adds	r3, r7, #1
 337 00fe 0393     		str	r3, [sp, #12]
 338              	.LVL46:
 339 0100 3A46     		mov	r2, r7
 340 0102 4B46     		mov	r3, r9
 341              	.LVL47:
 342 0104 0199     		ldr	r1, [sp, #4]
 343 0106 2020     		movs	r0, #32
 344 0108 D847     		blx	fp
 345              	.LVL48:
 346 010a 039F     		ldr	r7, [sp, #12]
 347 010c F2E7     		b	.L29
 348              	.LVL49:
 349              	.L30:
 350              	.LBE18:
 351              	.LBB19:
 233:..\common\ud3core\helper/printf.c ****     }
 234:..\common\ud3core\helper/printf.c ****   }
 235:..\common\ud3core\helper/printf.c **** 
 236:..\common\ud3core\helper/printf.c ****   // reverse string
 237:..\common\ud3core\helper/printf.c ****   for (size_t i = 0U; i < len; i++) {
 352              		.loc 1 237 0 discriminator 1
 353 010e 5445     		cmp	r4, r10
 354 0110 0AEB0702 		add	r2, r10, r7
 355              	.LVL50:
 356 0114 07D0     		beq	.L64
 357              	.LVL51:
 238:..\common\ud3core\helper/printf.c ****     out(buf[len - i - 1U], buffer, idx++, maxlen);
 358              		.loc 1 238 0 discriminator 3
 359 0116 4B46     		mov	r3, r9
 360 0118 0199     		ldr	r1, [sp, #4]
 361 011a 15F8010D 		ldrb	r0, [r5, #-1]!	@ zero_extendqisi2
 362 011e D847     		blx	fp
 363              	.LVL52:
 237:..\common\ud3core\helper/printf.c ****     out(buf[len - i - 1U], buffer, idx++, maxlen);
 364              		.loc 1 237 0 discriminator 3
 365 0120 0AF1010A 		add	r10, r10, #1
 366              	.LVL53:
 367 0124 F3E7     		b	.L30
 368              	.LVL54:
 369              	.L64:
 370              	.LBE19:
 239:..\common\ud3core\helper/printf.c ****   }
 240:..\common\ud3core\helper/printf.c **** 
 241:..\common\ud3core\helper/printf.c ****   // append pad spaces up to given width
 242:..\common\ud3core\helper/printf.c ****   if (flags & FLAGS_LEFT) {
 371              		.loc 1 242 0
 372 0126 029B     		ldr	r3, [sp, #8]
 373 0128 53B1     		cbz	r3, .L47
 374              	.LVL55:
 375              	.L34:
ARM GAS  C:\Users\chemi\AppData\Local\Temp\ccvd4c4w.s 			page 12


 243:..\common\ud3core\helper/printf.c ****     while (idx - start_idx < width) {
 376              		.loc 1 243 0
 377 012a C8EB0203 		rsb	r3, r8, r2
 378 012e 9E42     		cmp	r6, r3
 379 0130 06D9     		bls	.L47
 244:..\common\ud3core\helper/printf.c ****       out(' ', buffer, idx++, maxlen);
 380              		.loc 1 244 0
 381 0132 541C     		adds	r4, r2, #1
 382              	.LVL56:
 383 0134 4B46     		mov	r3, r9
 384 0136 0199     		ldr	r1, [sp, #4]
 385 0138 2020     		movs	r0, #32
 386 013a D847     		blx	fp
 387              	.LVL57:
 388 013c 2246     		mov	r2, r4
 389 013e F4E7     		b	.L34
 390              	.LVL58:
 391              	.L47:
 245:..\common\ud3core\helper/printf.c ****     }
 246:..\common\ud3core\helper/printf.c ****   }
 247:..\common\ud3core\helper/printf.c **** 
 248:..\common\ud3core\helper/printf.c ****   return idx;
 249:..\common\ud3core\helper/printf.c **** }
 392              		.loc 1 249 0
 393 0140 1046     		mov	r0, r2
 394 0142 05B0     		add	sp, sp, #20
 395              		.cfi_def_cfa_offset 36
 396              		@ sp needed
 397 0144 BDE8F08F 		pop	{r4, r5, r6, r7, r8, r9, r10, fp, pc}
 398              		.cfi_endproc
 399              	.LFE75:
 400              		.size	_ntoa_format, .-_ntoa_format
 401              		.section	.text._ntoa_long,"ax",%progbits
 402              		.align	1
 403              		.thumb
 404              		.thumb_func
 405              		.type	_ntoa_long, %function
 406              	_ntoa_long:
 407              	.LFB76:
 250:..\common\ud3core\helper/printf.c **** 
 251:..\common\ud3core\helper/printf.c **** 
 252:..\common\ud3core\helper/printf.c **** // internal itoa for 'long' type
 253:..\common\ud3core\helper/printf.c **** static size_t _ntoa_long(out_fct_type out, char* buffer, size_t idx, size_t maxlen, unsigned long v
 254:..\common\ud3core\helper/printf.c **** {
 408              		.loc 1 254 0
 409              		.cfi_startproc
 410              		@ args = 24, pretend = 0, frame = 32
 411              		@ frame_needed = 0, uses_anonymous_args = 0
 412              	.LVL59:
 413 0000 2DE9F041 		push	{r4, r5, r6, r7, r8, lr}
 414              		.cfi_def_cfa_offset 24
 415              		.cfi_offset 4, -24
 416              		.cfi_offset 5, -20
 417              		.cfi_offset 6, -16
 418              		.cfi_offset 7, -12
 419              		.cfi_offset 8, -8
 420              		.cfi_offset 14, -4
ARM GAS  C:\Users\chemi\AppData\Local\Temp\ccvd4c4w.s 			page 13


 421 0004 90B0     		sub	sp, sp, #64
 422              		.cfi_def_cfa_offset 88
 423              		.loc 1 254 0
 424 0006 169D     		ldr	r5, [sp, #88]
 425 0008 DDF860E0 		ldr	lr, [sp, #96]
 426 000c 1B9F     		ldr	r7, [sp, #108]
 255:..\common\ud3core\helper/printf.c ****   char buf[PRINTF_NTOA_BUFFER_SIZE];
 256:..\common\ud3core\helper/printf.c ****   size_t len = 0U;
 257:..\common\ud3core\helper/printf.c **** 
 258:..\common\ud3core\helper/printf.c ****   // no hash for 0 values
 259:..\common\ud3core\helper/printf.c ****   if (!value) {
 427              		.loc 1 259 0
 428 000e 0DB9     		cbnz	r5, .L66
 260:..\common\ud3core\helper/printf.c ****     flags &= ~FLAGS_HASH;
 429              		.loc 1 260 0
 430 0010 27F01007 		bic	r7, r7, #16
 431              	.LVL60:
 432              	.L66:
 261:..\common\ud3core\helper/printf.c ****   }
 262:..\common\ud3core\helper/printf.c **** 
 263:..\common\ud3core\helper/printf.c ****   // write if precision != 0 and value is != 0
 264:..\common\ud3core\helper/printf.c ****   if (!(flags & FLAGS_PRECISION) || value) {
 433              		.loc 1 264 0
 434 0014 7C05     		lsls	r4, r7, #21
 435 0016 00D5     		bpl	.L67
 436              		.loc 1 264 0 is_stmt 0 discriminator 1
 437 0018 FDB1     		cbz	r5, .L72
 438              	.L67:
 439 001a 17F0200F 		tst	r7, #32
 440              	.LBB20:
 265:..\common\ud3core\helper/printf.c ****     do {
 266:..\common\ud3core\helper/printf.c ****       const char digit = (char)(value % base);
 267:..\common\ud3core\helper/printf.c ****       buf[len++] = digit < 10 ? '0' + digit : (flags & FLAGS_UPPERCASE ? 'A' : 'a') + digit - 10;
 441              		.loc 1 267 0 is_stmt 1
 442 001e 4FF00006 		mov	r6, #0
 443 0022 14BF     		ite	ne
 444 0024 4FF0370C 		movne	ip, #55
 445 0028 4FF0570C 		moveq	ip, #87
 446              	.LVL61:
 447              	.L71:
 266:..\common\ud3core\helper/printf.c ****       buf[len++] = digit < 10 ? '0' + digit : (flags & FLAGS_UPPERCASE ? 'A' : 'a') + digit - 10;
 448              		.loc 1 266 0
 449 002c B5FBFEF4 		udiv	r4, r5, lr
 450 0030 0EFB1454 		mls	r4, lr, r4, r5
 268:..\common\ud3core\helper/printf.c ****       value /= base;
 451              		.loc 1 268 0
 452 0034 B5FBFEF5 		udiv	r5, r5, lr
 453              	.LVL62:
 266:..\common\ud3core\helper/printf.c ****       buf[len++] = digit < 10 ? '0' + digit : (flags & FLAGS_UPPERCASE ? 'A' : 'a') + digit - 10;
 454              		.loc 1 266 0
 455 0038 E4B2     		uxtb	r4, r4
 456              	.LVL63:
 267:..\common\ud3core\helper/printf.c ****       value /= base;
 457              		.loc 1 267 0
 458 003a 092C     		cmp	r4, #9
 459 003c 06F10106 		add	r6, r6, #1
 460              	.LVL64:
ARM GAS  C:\Users\chemi\AppData\Local\Temp\ccvd4c4w.s 			page 14


 461 0040 94BF     		ite	ls
 462 0042 3034     		addls	r4, r4, #48
 463              	.LVL65:
 464 0044 6444     		addhi	r4, r4, ip
 465 0046 0DF12008 		add	r8, sp, #32
 466 004a E4B2     		uxtb	r4, r4
 467 004c B044     		add	r8, r8, r6
 468 004e 08F8014C 		strb	r4, [r8, #-1]
 469              	.LBE20:
 269:..\common\ud3core\helper/printf.c ****     } while (value && (len < PRINTF_NTOA_BUFFER_SIZE));
 470              		.loc 1 269 0
 471 0052 1DB1     		cbz	r5, .L68
 472              		.loc 1 269 0 is_stmt 0 discriminator 1
 473 0054 202E     		cmp	r6, #32
 474 0056 E9D1     		bne	.L71
 475 0058 00E0     		b	.L68
 476              	.LVL66:
 477              	.L72:
 256:..\common\ud3core\helper/printf.c **** 
 478              		.loc 1 256 0 is_stmt 1
 479 005a 2E46     		mov	r6, r5
 480              	.LVL67:
 481              	.L68:
 270:..\common\ud3core\helper/printf.c ****   }
 271:..\common\ud3core\helper/printf.c **** 
 272:..\common\ud3core\helper/printf.c ****   return _ntoa_format(out, buffer, idx, maxlen, buf, len, negative, (unsigned int)base, prec, width
 482              		.loc 1 272 0
 483 005c 1A9C     		ldr	r4, [sp, #104]
 484 005e 0697     		str	r7, [sp, #24]
 485 0060 0594     		str	r4, [sp, #20]
 486 0062 199C     		ldr	r4, [sp, #100]
 487 0064 CDF80CE0 		str	lr, [sp, #12]
 488 0068 0494     		str	r4, [sp, #16]
 489 006a 9DF85C40 		ldrb	r4, [sp, #92]	@ zero_extendqisi2
 490 006e 0196     		str	r6, [sp, #4]
 491 0070 0294     		str	r4, [sp, #8]
 492 0072 08AC     		add	r4, sp, #32
 493 0074 0094     		str	r4, [sp]
 494 0076 FFF7FEFF 		bl	_ntoa_format
 495              	.LVL68:
 273:..\common\ud3core\helper/printf.c **** }
 496              		.loc 1 273 0
 497 007a 10B0     		add	sp, sp, #64
 498              		.cfi_def_cfa_offset 24
 499              		@ sp needed
 500 007c BDE8F081 		pop	{r4, r5, r6, r7, r8, pc}
 501              		.cfi_endproc
 502              	.LFE76:
 503              		.size	_ntoa_long, .-_ntoa_long
 504              		.global	__aeabi_uldivmod
 505              		.section	.text._ntoa_long_long,"ax",%progbits
 506              		.align	1
 507              		.thumb
 508              		.thumb_func
 509              		.type	_ntoa_long_long, %function
 510              	_ntoa_long_long:
 511              	.LFB77:
ARM GAS  C:\Users\chemi\AppData\Local\Temp\ccvd4c4w.s 			page 15


 274:..\common\ud3core\helper/printf.c **** 
 275:..\common\ud3core\helper/printf.c **** 
 276:..\common\ud3core\helper/printf.c **** // internal itoa for 'long long' type
 277:..\common\ud3core\helper/printf.c **** #if defined(PRINTF_SUPPORT_LONG_LONG)
 278:..\common\ud3core\helper/printf.c **** static size_t _ntoa_long_long(out_fct_type out, char* buffer, size_t idx, size_t maxlen, unsigned l
 279:..\common\ud3core\helper/printf.c **** {
 512              		.loc 1 279 0
 513              		.cfi_startproc
 514              		@ args = 36, pretend = 0, frame = 48
 515              		@ frame_needed = 0, uses_anonymous_args = 0
 516              	.LVL69:
 517 0000 2DE9F04F 		push	{r4, r5, r6, r7, r8, r9, r10, fp, lr}
 518              		.cfi_def_cfa_offset 36
 519              		.cfi_offset 4, -36
 520              		.cfi_offset 5, -32
 521              		.cfi_offset 6, -28
 522              		.cfi_offset 7, -24
 523              		.cfi_offset 8, -20
 524              		.cfi_offset 9, -16
 525              		.cfi_offset 10, -12
 526              		.cfi_offset 11, -8
 527              		.cfi_offset 14, -4
 528 0004 95B0     		sub	sp, sp, #84
 529              		.cfi_def_cfa_offset 120
 530              		.loc 1 279 0
 531 0006 269D     		ldr	r5, [sp, #152]
 532 0008 9B46     		mov	fp, r3
 533 000a DDE91E89 		ldrd	r8, [sp, #120]
 280:..\common\ud3core\helper/printf.c ****   char buf[PRINTF_NTOA_BUFFER_SIZE];
 281:..\common\ud3core\helper/printf.c ****   size_t len = 0U;
 282:..\common\ud3core\helper/printf.c **** 
 283:..\common\ud3core\helper/printf.c ****   // no hash for 0 values
 284:..\common\ud3core\helper/printf.c ****   if (!value) {
 534              		.loc 1 284 0
 535 000e 58EA0903 		orrs	r3, r8, r9
 536              	.LVL70:
 285:..\common\ud3core\helper/printf.c ****     flags &= ~FLAGS_HASH;
 537              		.loc 1 285 0
 538 0012 08BF     		it	eq
 539 0014 25F01005 		biceq	r5, r5, #16
 540              	.LVL71:
 279:..\common\ud3core\helper/printf.c ****   char buf[PRINTF_NTOA_BUFFER_SIZE];
 541              		.loc 1 279 0
 542 0018 9246     		mov	r10, r2
 286:..\common\ud3core\helper/printf.c ****   }
 287:..\common\ud3core\helper/printf.c **** 
 288:..\common\ud3core\helper/printf.c ****   // write if precision != 0 and value is != 0
 289:..\common\ud3core\helper/printf.c ****   if (!(flags & FLAGS_PRECISION) || value) {
 543              		.loc 1 289 0
 544 001a 6A05     		lsls	r2, r5, #21
 545              	.LVL72:
 279:..\common\ud3core\helper/printf.c ****   char buf[PRINTF_NTOA_BUFFER_SIZE];
 546              		.loc 1 279 0
 547 001c 0990     		str	r0, [sp, #36]
 548 001e 0A91     		str	r1, [sp, #40]
 549 0020 229E     		ldr	r6, [sp, #136]
 550 0022 239F     		ldr	r7, [sp, #140]
ARM GAS  C:\Users\chemi\AppData\Local\Temp\ccvd4c4w.s 			page 16


 551              		.loc 1 289 0
 552 0024 02D5     		bpl	.L83
 553              		.loc 1 289 0 is_stmt 0 discriminator 1
 554 0026 58EA0903 		orrs	r3, r8, r9
 555 002a 26D0     		beq	.L88
 556              	.L83:
 557 002c 15F0200F 		tst	r5, #32
 558              	.LBB21:
 290:..\common\ud3core\helper/printf.c ****     do {
 291:..\common\ud3core\helper/printf.c ****       const char digit = (char)(value % base);
 292:..\common\ud3core\helper/printf.c ****       buf[len++] = digit < 10 ? '0' + digit : (flags & FLAGS_UPPERCASE ? 'A' : 'a') + digit - 10;
 559              		.loc 1 292 0 is_stmt 1
 560 0030 14BF     		ite	ne
 561 0032 3723     		movne	r3, #55
 562 0034 5723     		moveq	r3, #87
 563 0036 0024     		movs	r4, #0
 564 0038 0B93     		str	r3, [sp, #44]
 565              	.LVL73:
 566              	.L87:
 291:..\common\ud3core\helper/printf.c ****       buf[len++] = digit < 10 ? '0' + digit : (flags & FLAGS_UPPERCASE ? 'A' : 'a') + digit - 10;
 567              		.loc 1 291 0
 568 003a 4046     		mov	r0, r8
 569 003c 4946     		mov	r1, r9
 570 003e 3246     		mov	r2, r6
 571 0040 3B46     		mov	r3, r7
 572 0042 FFF7FEFF 		bl	__aeabi_uldivmod
 573              	.LVL74:
 574 0046 D2B2     		uxtb	r2, r2
 575              	.LVL75:
 576              		.loc 1 292 0
 577 0048 092A     		cmp	r2, #9
 578 004a 8ABF     		itet	hi
 579 004c 0B9B     		ldrhi	r3, [sp, #44]
 580 004e 3032     		addls	r2, r2, #48
 581              	.LVL76:
 582 0050 D218     		addhi	r2, r2, r3
 583 0052 0134     		adds	r4, r4, #1
 584              	.LVL77:
 585 0054 0CAB     		add	r3, sp, #48
 586 0056 D2B2     		uxtb	r2, r2
 587 0058 2344     		add	r3, r3, r4
 588 005a 03F8012C 		strb	r2, [r3, #-1]
 293:..\common\ud3core\helper/printf.c ****       value /= base;
 589              		.loc 1 293 0
 590 005e 4046     		mov	r0, r8
 591 0060 3B46     		mov	r3, r7
 592 0062 4946     		mov	r1, r9
 593 0064 3246     		mov	r2, r6
 594 0066 FFF7FEFF 		bl	__aeabi_uldivmod
 595              	.LVL78:
 596 006a 8046     		mov	r8, r0
 597              	.LVL79:
 598 006c 8946     		mov	r9, r1
 599              	.LVL80:
 600              	.LBE21:
 294:..\common\ud3core\helper/printf.c ****     } while (value && (len < PRINTF_NTOA_BUFFER_SIZE));
 601              		.loc 1 294 0
ARM GAS  C:\Users\chemi\AppData\Local\Temp\ccvd4c4w.s 			page 17


 602 006e 58EA0903 		orrs	r3, r8, r9
 603 0072 03D0     		beq	.L84
 604              		.loc 1 294 0 is_stmt 0 discriminator 1
 605 0074 202C     		cmp	r4, #32
 606 0076 E0D1     		bne	.L87
 607 0078 00E0     		b	.L84
 608              	.LVL81:
 609              	.L88:
 281:..\common\ud3core\helper/printf.c **** 
 610              		.loc 1 281 0 is_stmt 1
 611 007a 0024     		movs	r4, #0
 612              	.LVL82:
 613              	.L84:
 295:..\common\ud3core\helper/printf.c ****   }
 296:..\common\ud3core\helper/printf.c **** 
 297:..\common\ud3core\helper/printf.c ****   return _ntoa_format(out, buffer, idx, maxlen, buf, len, negative, (unsigned int)base, prec, width
 614              		.loc 1 297 0
 615 007c 259B     		ldr	r3, [sp, #148]
 616 007e 0695     		str	r5, [sp, #24]
 617 0080 0593     		str	r3, [sp, #20]
 618 0082 249B     		ldr	r3, [sp, #144]
 619 0084 0396     		str	r6, [sp, #12]
 620 0086 0493     		str	r3, [sp, #16]
 621 0088 9DF88030 		ldrb	r3, [sp, #128]	@ zero_extendqisi2
 622 008c 0194     		str	r4, [sp, #4]
 623 008e 0293     		str	r3, [sp, #8]
 624 0090 0CAB     		add	r3, sp, #48
 625 0092 0093     		str	r3, [sp]
 626 0094 5246     		mov	r2, r10
 627 0096 5B46     		mov	r3, fp
 628 0098 0A99     		ldr	r1, [sp, #40]
 629 009a 0998     		ldr	r0, [sp, #36]
 630 009c FFF7FEFF 		bl	_ntoa_format
 631              	.LVL83:
 298:..\common\ud3core\helper/printf.c **** }
 632              		.loc 1 298 0
 633 00a0 15B0     		add	sp, sp, #84
 634              		.cfi_def_cfa_offset 36
 635              		@ sp needed
 636 00a2 BDE8F08F 		pop	{r4, r5, r6, r7, r8, r9, r10, fp, pc}
 637              		.cfi_endproc
 638              	.LFE77:
 639              		.size	_ntoa_long_long, .-_ntoa_long_long
 640              		.section	.text._out_char,"ax",%progbits
 641              		.align	1
 642              		.thumb
 643              		.thumb_func
 644              		.type	_out_char, %function
 645              	_out_char:
 646              	.LFB70:
 129:..\common\ud3core\helper/printf.c ****   (void)buffer; (void)idx; (void)maxlen;
 647              		.loc 1 129 0
 648              		.cfi_startproc
 649              		@ args = 0, pretend = 0, frame = 0
 650              		@ frame_needed = 0, uses_anonymous_args = 0
 651              		@ link register save eliminated.
 652              	.LVL84:
ARM GAS  C:\Users\chemi\AppData\Local\Temp\ccvd4c4w.s 			page 18


 131:..\common\ud3core\helper/printf.c ****     _putchar(character);
 653              		.loc 1 131 0
 654 0000 08B1     		cbz	r0, .L97
 132:..\common\ud3core\helper/printf.c ****   }
 655              		.loc 1 132 0
 656 0002 FFF7FEBF 		b	_putchar
 657              	.LVL85:
 658              	.L97:
 659 0006 7047     		bx	lr
 660              		.cfi_endproc
 661              	.LFE70:
 662              		.size	_out_char, .-_out_char
 663              		.section	.text.send_stream,"ax",%progbits
 664              		.align	1
 665              		.global	send_stream
 666              		.thumb
 667              		.thumb_func
 668              		.type	send_stream, %function
 669              	send_stream:
 670              	.LFB85:
 299:..\common\ud3core\helper/printf.c **** #endif  // PRINTF_SUPPORT_LONG_LONG
 300:..\common\ud3core\helper/printf.c **** 
 301:..\common\ud3core\helper/printf.c **** 
 302:..\common\ud3core\helper/printf.c **** #if defined(PRINTF_SUPPORT_FLOAT)
 303:..\common\ud3core\helper/printf.c **** static size_t _ftoa(out_fct_type out, char* buffer, size_t idx, size_t maxlen, double value, unsign
 304:..\common\ud3core\helper/printf.c **** {
 305:..\common\ud3core\helper/printf.c ****   const size_t start_idx = idx;
 306:..\common\ud3core\helper/printf.c **** 
 307:..\common\ud3core\helper/printf.c ****   char buf[PRINTF_FTOA_BUFFER_SIZE];
 308:..\common\ud3core\helper/printf.c ****   size_t len  = 0U;
 309:..\common\ud3core\helper/printf.c ****   double diff = 0.0;
 310:..\common\ud3core\helper/printf.c **** 
 311:..\common\ud3core\helper/printf.c ****   // if input is larger than thres_max, revert to exponential
 312:..\common\ud3core\helper/printf.c ****   const double thres_max = (double)0x7FFFFFFF;
 313:..\common\ud3core\helper/printf.c **** 
 314:..\common\ud3core\helper/printf.c ****   // powers of 10
 315:..\common\ud3core\helper/printf.c ****   static const double pow10[] = { 1, 10, 100, 1000, 10000, 100000, 1000000, 10000000, 100000000, 10
 316:..\common\ud3core\helper/printf.c **** 
 317:..\common\ud3core\helper/printf.c ****   // test for negative
 318:..\common\ud3core\helper/printf.c ****   bool negative = false;
 319:..\common\ud3core\helper/printf.c ****   if (value < 0) {
 320:..\common\ud3core\helper/printf.c ****     negative = true;
 321:..\common\ud3core\helper/printf.c ****     value = 0 - value;
 322:..\common\ud3core\helper/printf.c ****   }
 323:..\common\ud3core\helper/printf.c **** 
 324:..\common\ud3core\helper/printf.c ****   // set default precision to 6, if not set explicitly
 325:..\common\ud3core\helper/printf.c ****   if (!(flags & FLAGS_PRECISION)) {
 326:..\common\ud3core\helper/printf.c ****     prec = 6U;
 327:..\common\ud3core\helper/printf.c ****   }
 328:..\common\ud3core\helper/printf.c ****   // limit precision to 9, cause a prec >= 10 can lead to overflow errors
 329:..\common\ud3core\helper/printf.c ****   while ((len < PRINTF_FTOA_BUFFER_SIZE) && (prec > 9U)) {
 330:..\common\ud3core\helper/printf.c ****     buf[len++] = '0';
 331:..\common\ud3core\helper/printf.c ****     prec--;
 332:..\common\ud3core\helper/printf.c ****   }
 333:..\common\ud3core\helper/printf.c **** 
 334:..\common\ud3core\helper/printf.c ****   int whole = (int)value;
 335:..\common\ud3core\helper/printf.c ****   double tmp = (value - whole) * pow10[prec];
ARM GAS  C:\Users\chemi\AppData\Local\Temp\ccvd4c4w.s 			page 19


 336:..\common\ud3core\helper/printf.c ****   unsigned long frac = (unsigned long)tmp;
 337:..\common\ud3core\helper/printf.c ****   diff = tmp - frac;
 338:..\common\ud3core\helper/printf.c **** 
 339:..\common\ud3core\helper/printf.c ****   if (diff > 0.5) {
 340:..\common\ud3core\helper/printf.c ****     ++frac;
 341:..\common\ud3core\helper/printf.c ****     // handle rollover, e.g. case 0.99 with prec 1 is 1.0
 342:..\common\ud3core\helper/printf.c ****     if (frac >= pow10[prec]) {
 343:..\common\ud3core\helper/printf.c ****       frac = 0;
 344:..\common\ud3core\helper/printf.c ****       ++whole;
 345:..\common\ud3core\helper/printf.c ****     }
 346:..\common\ud3core\helper/printf.c ****   }
 347:..\common\ud3core\helper/printf.c ****   else if ((diff == 0.5) && ((frac == 0U) || (frac & 1U))) {
 348:..\common\ud3core\helper/printf.c ****     // if halfway, round up if odd, OR if last digit is 0
 349:..\common\ud3core\helper/printf.c ****     ++frac;
 350:..\common\ud3core\helper/printf.c ****   }
 351:..\common\ud3core\helper/printf.c **** 
 352:..\common\ud3core\helper/printf.c ****   // TBD: for very large numbers switch back to native sprintf for exponentials. Anyone want to wri
 353:..\common\ud3core\helper/printf.c ****   // Normal printf behavior is to print EVERY whole number digit which can be 100s of characters ov
 354:..\common\ud3core\helper/printf.c ****   if (value > thres_max) {
 355:..\common\ud3core\helper/printf.c ****     return 0U;
 356:..\common\ud3core\helper/printf.c ****   }
 357:..\common\ud3core\helper/printf.c **** 
 358:..\common\ud3core\helper/printf.c ****   if (prec == 0U) {
 359:..\common\ud3core\helper/printf.c ****     diff = value - (double)whole;
 360:..\common\ud3core\helper/printf.c ****     if (diff > 0.5) {
 361:..\common\ud3core\helper/printf.c ****       // greater than 0.5, round up, e.g. 1.6 -> 2
 362:..\common\ud3core\helper/printf.c ****       ++whole;
 363:..\common\ud3core\helper/printf.c ****     }
 364:..\common\ud3core\helper/printf.c ****     else if ((diff == 0.5) && (whole & 1)) {
 365:..\common\ud3core\helper/printf.c ****       // exactly 0.5 and ODD, then round up
 366:..\common\ud3core\helper/printf.c ****       // 1.5 -> 2, but 2.5 -> 2
 367:..\common\ud3core\helper/printf.c ****       ++whole;
 368:..\common\ud3core\helper/printf.c ****     }
 369:..\common\ud3core\helper/printf.c ****   }
 370:..\common\ud3core\helper/printf.c ****   else {
 371:..\common\ud3core\helper/printf.c ****     unsigned int count = prec;
 372:..\common\ud3core\helper/printf.c ****     // now do fractional part, as an unsigned number
 373:..\common\ud3core\helper/printf.c ****     while (len < PRINTF_FTOA_BUFFER_SIZE) {
 374:..\common\ud3core\helper/printf.c ****       --count;
 375:..\common\ud3core\helper/printf.c ****       buf[len++] = (char)(48U + (frac % 10U));
 376:..\common\ud3core\helper/printf.c ****       if (!(frac /= 10U)) {
 377:..\common\ud3core\helper/printf.c ****         break;
 378:..\common\ud3core\helper/printf.c ****       }
 379:..\common\ud3core\helper/printf.c ****     }
 380:..\common\ud3core\helper/printf.c ****     // add extra 0s
 381:..\common\ud3core\helper/printf.c ****     while ((len < PRINTF_FTOA_BUFFER_SIZE) && (count-- > 0U)) {
 382:..\common\ud3core\helper/printf.c ****       buf[len++] = '0';
 383:..\common\ud3core\helper/printf.c ****     }
 384:..\common\ud3core\helper/printf.c ****     if (len < PRINTF_FTOA_BUFFER_SIZE) {
 385:..\common\ud3core\helper/printf.c ****       // add decimal
 386:..\common\ud3core\helper/printf.c ****       buf[len++] = '.';
 387:..\common\ud3core\helper/printf.c ****     }
 388:..\common\ud3core\helper/printf.c ****   }
 389:..\common\ud3core\helper/printf.c **** 
 390:..\common\ud3core\helper/printf.c ****   // do whole part, number is reversed
 391:..\common\ud3core\helper/printf.c ****   while (len < PRINTF_FTOA_BUFFER_SIZE) {
 392:..\common\ud3core\helper/printf.c ****     buf[len++] = (char)(48 + (whole % 10));
ARM GAS  C:\Users\chemi\AppData\Local\Temp\ccvd4c4w.s 			page 20


 393:..\common\ud3core\helper/printf.c ****     if (!(whole /= 10)) {
 394:..\common\ud3core\helper/printf.c ****       break;
 395:..\common\ud3core\helper/printf.c ****     }
 396:..\common\ud3core\helper/printf.c ****   }
 397:..\common\ud3core\helper/printf.c **** 
 398:..\common\ud3core\helper/printf.c ****   // pad leading zeros
 399:..\common\ud3core\helper/printf.c ****   if (!(flags & FLAGS_LEFT) && (flags & FLAGS_ZEROPAD)) {
 400:..\common\ud3core\helper/printf.c ****     while ((len < width) && (len < PRINTF_FTOA_BUFFER_SIZE)) {
 401:..\common\ud3core\helper/printf.c ****       buf[len++] = '0';
 402:..\common\ud3core\helper/printf.c ****     }
 403:..\common\ud3core\helper/printf.c ****   }
 404:..\common\ud3core\helper/printf.c **** 
 405:..\common\ud3core\helper/printf.c ****   // handle sign
 406:..\common\ud3core\helper/printf.c ****   if ((len == width) && (negative || (flags & FLAGS_PLUS) || (flags & FLAGS_SPACE))) {
 407:..\common\ud3core\helper/printf.c ****     len--;
 408:..\common\ud3core\helper/printf.c ****   }
 409:..\common\ud3core\helper/printf.c ****   if (len < PRINTF_FTOA_BUFFER_SIZE) {
 410:..\common\ud3core\helper/printf.c ****     if (negative) {
 411:..\common\ud3core\helper/printf.c ****       buf[len++] = '-';
 412:..\common\ud3core\helper/printf.c ****     }
 413:..\common\ud3core\helper/printf.c ****     else if (flags & FLAGS_PLUS) {
 414:..\common\ud3core\helper/printf.c ****       buf[len++] = '+';  // ignore the space if the '+' exists
 415:..\common\ud3core\helper/printf.c ****     }
 416:..\common\ud3core\helper/printf.c ****     else if (flags & FLAGS_SPACE) {
 417:..\common\ud3core\helper/printf.c ****       buf[len++] = ' ';
 418:..\common\ud3core\helper/printf.c ****     }
 419:..\common\ud3core\helper/printf.c ****   }
 420:..\common\ud3core\helper/printf.c **** 
 421:..\common\ud3core\helper/printf.c ****   // pad spaces up to given width
 422:..\common\ud3core\helper/printf.c ****   if (!(flags & FLAGS_LEFT) && !(flags & FLAGS_ZEROPAD)) {
 423:..\common\ud3core\helper/printf.c ****     for (size_t i = len; i < width; i++) {
 424:..\common\ud3core\helper/printf.c ****       out(' ', buffer, idx++, maxlen);
 425:..\common\ud3core\helper/printf.c ****     }
 426:..\common\ud3core\helper/printf.c ****   }
 427:..\common\ud3core\helper/printf.c **** 
 428:..\common\ud3core\helper/printf.c ****   // reverse string
 429:..\common\ud3core\helper/printf.c ****   for (size_t i = 0U; i < len; i++) {
 430:..\common\ud3core\helper/printf.c ****     out(buf[len - i - 1U], buffer, idx++, maxlen);
 431:..\common\ud3core\helper/printf.c ****   }
 432:..\common\ud3core\helper/printf.c **** 
 433:..\common\ud3core\helper/printf.c ****   // append pad spaces up to given width
 434:..\common\ud3core\helper/printf.c ****   if (flags & FLAGS_LEFT) {
 435:..\common\ud3core\helper/printf.c ****     while (idx - start_idx < width) {
 436:..\common\ud3core\helper/printf.c ****       out(' ', buffer, idx++, maxlen);
 437:..\common\ud3core\helper/printf.c ****     }
 438:..\common\ud3core\helper/printf.c ****   }
 439:..\common\ud3core\helper/printf.c **** 
 440:..\common\ud3core\helper/printf.c ****   return idx;
 441:..\common\ud3core\helper/printf.c **** }
 442:..\common\ud3core\helper/printf.c **** #endif  // PRINTF_SUPPORT_FLOAT
 443:..\common\ud3core\helper/printf.c **** 
 444:..\common\ud3core\helper/printf.c **** 
 445:..\common\ud3core\helper/printf.c **** // internal vsnprintf
 446:..\common\ud3core\helper/printf.c **** static int _vsnprintf(out_fct_type out, char* buffer, const size_t maxlen, const char* format, va_l
 447:..\common\ud3core\helper/printf.c **** {
 448:..\common\ud3core\helper/printf.c ****   unsigned int flags, width, precision, n;
 449:..\common\ud3core\helper/printf.c ****   size_t idx = 0U;
ARM GAS  C:\Users\chemi\AppData\Local\Temp\ccvd4c4w.s 			page 21


 450:..\common\ud3core\helper/printf.c **** 
 451:..\common\ud3core\helper/printf.c ****   if (!buffer) {
 452:..\common\ud3core\helper/printf.c ****     // use null output function
 453:..\common\ud3core\helper/printf.c ****     out = _out_null;
 454:..\common\ud3core\helper/printf.c ****   }
 455:..\common\ud3core\helper/printf.c **** 
 456:..\common\ud3core\helper/printf.c ****   while (*format)
 457:..\common\ud3core\helper/printf.c ****   {
 458:..\common\ud3core\helper/printf.c ****     // format specifier?  %[flags][width][.precision][length]
 459:..\common\ud3core\helper/printf.c ****     if (*format != '%') {
 460:..\common\ud3core\helper/printf.c ****       // no
 461:..\common\ud3core\helper/printf.c ****       out(*format, buffer, idx++, maxlen);
 462:..\common\ud3core\helper/printf.c ****       format++;
 463:..\common\ud3core\helper/printf.c ****       continue;
 464:..\common\ud3core\helper/printf.c ****     }
 465:..\common\ud3core\helper/printf.c ****     else {
 466:..\common\ud3core\helper/printf.c ****       // yes, evaluate it
 467:..\common\ud3core\helper/printf.c ****       format++;
 468:..\common\ud3core\helper/printf.c ****     }
 469:..\common\ud3core\helper/printf.c **** 
 470:..\common\ud3core\helper/printf.c ****     // evaluate flags
 471:..\common\ud3core\helper/printf.c ****     flags = 0U;
 472:..\common\ud3core\helper/printf.c ****     do {
 473:..\common\ud3core\helper/printf.c ****       switch (*format) {
 474:..\common\ud3core\helper/printf.c ****         case '0': flags |= FLAGS_ZEROPAD; format++; n = 1U; break;
 475:..\common\ud3core\helper/printf.c ****         case '-': flags |= FLAGS_LEFT;    format++; n = 1U; break;
 476:..\common\ud3core\helper/printf.c ****         case '+': flags |= FLAGS_PLUS;    format++; n = 1U; break;
 477:..\common\ud3core\helper/printf.c ****         case ' ': flags |= FLAGS_SPACE;   format++; n = 1U; break;
 478:..\common\ud3core\helper/printf.c ****         case '#': flags |= FLAGS_HASH;    format++; n = 1U; break;
 479:..\common\ud3core\helper/printf.c ****         default :                                   n = 0U; break;
 480:..\common\ud3core\helper/printf.c ****       }
 481:..\common\ud3core\helper/printf.c ****     } while (n);
 482:..\common\ud3core\helper/printf.c **** 
 483:..\common\ud3core\helper/printf.c ****     // evaluate width field
 484:..\common\ud3core\helper/printf.c ****     width = 0U;
 485:..\common\ud3core\helper/printf.c ****     if (_is_digit(*format)) {
 486:..\common\ud3core\helper/printf.c ****       width = _atoi(&format);
 487:..\common\ud3core\helper/printf.c ****     }
 488:..\common\ud3core\helper/printf.c ****     else if (*format == '*') {
 489:..\common\ud3core\helper/printf.c ****       const int w = va_arg(va, int);
 490:..\common\ud3core\helper/printf.c ****       if (w < 0) {
 491:..\common\ud3core\helper/printf.c ****         flags |= FLAGS_LEFT;    // reverse padding
 492:..\common\ud3core\helper/printf.c ****         width = (unsigned int)-w;
 493:..\common\ud3core\helper/printf.c ****       }
 494:..\common\ud3core\helper/printf.c ****       else {
 495:..\common\ud3core\helper/printf.c ****         width = (unsigned int)w;
 496:..\common\ud3core\helper/printf.c ****       }
 497:..\common\ud3core\helper/printf.c ****       format++;
 498:..\common\ud3core\helper/printf.c ****     }
 499:..\common\ud3core\helper/printf.c **** 
 500:..\common\ud3core\helper/printf.c ****     // evaluate precision field
 501:..\common\ud3core\helper/printf.c ****     precision = 0U;
 502:..\common\ud3core\helper/printf.c ****     if (*format == '.') {
 503:..\common\ud3core\helper/printf.c ****       flags |= FLAGS_PRECISION;
 504:..\common\ud3core\helper/printf.c ****       format++;
 505:..\common\ud3core\helper/printf.c ****       if (_is_digit(*format)) {
 506:..\common\ud3core\helper/printf.c ****         precision = _atoi(&format);
ARM GAS  C:\Users\chemi\AppData\Local\Temp\ccvd4c4w.s 			page 22


 507:..\common\ud3core\helper/printf.c ****       }
 508:..\common\ud3core\helper/printf.c ****       else if (*format == '*') {
 509:..\common\ud3core\helper/printf.c ****         const int prec = (int)va_arg(va, int);
 510:..\common\ud3core\helper/printf.c ****         precision = prec > 0 ? (unsigned int)prec : 0U;
 511:..\common\ud3core\helper/printf.c ****         format++;
 512:..\common\ud3core\helper/printf.c ****       }
 513:..\common\ud3core\helper/printf.c ****     }
 514:..\common\ud3core\helper/printf.c **** 
 515:..\common\ud3core\helper/printf.c ****     // evaluate length field
 516:..\common\ud3core\helper/printf.c ****     switch (*format) {
 517:..\common\ud3core\helper/printf.c ****       case 'l' :
 518:..\common\ud3core\helper/printf.c ****         flags |= FLAGS_LONG;
 519:..\common\ud3core\helper/printf.c ****         format++;
 520:..\common\ud3core\helper/printf.c ****         if (*format == 'l') {
 521:..\common\ud3core\helper/printf.c ****           flags |= FLAGS_LONG_LONG;
 522:..\common\ud3core\helper/printf.c ****           format++;
 523:..\common\ud3core\helper/printf.c ****         }
 524:..\common\ud3core\helper/printf.c ****         break;
 525:..\common\ud3core\helper/printf.c ****       case 'h' :
 526:..\common\ud3core\helper/printf.c ****         flags |= FLAGS_SHORT;
 527:..\common\ud3core\helper/printf.c ****         format++;
 528:..\common\ud3core\helper/printf.c ****         if (*format == 'h') {
 529:..\common\ud3core\helper/printf.c ****           flags |= FLAGS_CHAR;
 530:..\common\ud3core\helper/printf.c ****           format++;
 531:..\common\ud3core\helper/printf.c ****         }
 532:..\common\ud3core\helper/printf.c ****         break;
 533:..\common\ud3core\helper/printf.c **** #if defined(PRINTF_SUPPORT_PTRDIFF_T)
 534:..\common\ud3core\helper/printf.c ****       case 't' :
 535:..\common\ud3core\helper/printf.c ****         flags |= (sizeof(ptrdiff_t) == sizeof(long) ? FLAGS_LONG : FLAGS_LONG_LONG);
 536:..\common\ud3core\helper/printf.c ****         format++;
 537:..\common\ud3core\helper/printf.c ****         break;
 538:..\common\ud3core\helper/printf.c **** #endif
 539:..\common\ud3core\helper/printf.c ****       case 'j' :
 540:..\common\ud3core\helper/printf.c ****         flags |= (sizeof(intmax_t) == sizeof(long) ? FLAGS_LONG : FLAGS_LONG_LONG);
 541:..\common\ud3core\helper/printf.c ****         format++;
 542:..\common\ud3core\helper/printf.c ****         break;
 543:..\common\ud3core\helper/printf.c ****       case 'z' :
 544:..\common\ud3core\helper/printf.c ****         flags |= (sizeof(size_t) == sizeof(long) ? FLAGS_LONG : FLAGS_LONG_LONG);
 545:..\common\ud3core\helper/printf.c ****         format++;
 546:..\common\ud3core\helper/printf.c ****         break;
 547:..\common\ud3core\helper/printf.c ****       default :
 548:..\common\ud3core\helper/printf.c ****         break;
 549:..\common\ud3core\helper/printf.c ****     }
 550:..\common\ud3core\helper/printf.c **** 
 551:..\common\ud3core\helper/printf.c ****     // evaluate specifier
 552:..\common\ud3core\helper/printf.c ****     switch (*format) {
 553:..\common\ud3core\helper/printf.c ****       case 'd' :
 554:..\common\ud3core\helper/printf.c ****       case 'i' :
 555:..\common\ud3core\helper/printf.c ****       case 'u' :
 556:..\common\ud3core\helper/printf.c ****       case 'x' :
 557:..\common\ud3core\helper/printf.c ****       case 'X' :
 558:..\common\ud3core\helper/printf.c ****       case 'o' :
 559:..\common\ud3core\helper/printf.c ****       case 'b' : {
 560:..\common\ud3core\helper/printf.c ****         // set the base
 561:..\common\ud3core\helper/printf.c ****         unsigned int base;
 562:..\common\ud3core\helper/printf.c ****         if (*format == 'x' || *format == 'X') {
 563:..\common\ud3core\helper/printf.c ****           base = 16U;
ARM GAS  C:\Users\chemi\AppData\Local\Temp\ccvd4c4w.s 			page 23


 564:..\common\ud3core\helper/printf.c ****         }
 565:..\common\ud3core\helper/printf.c ****         else if (*format == 'o') {
 566:..\common\ud3core\helper/printf.c ****           base =  8U;
 567:..\common\ud3core\helper/printf.c ****         }
 568:..\common\ud3core\helper/printf.c ****         else if (*format == 'b') {
 569:..\common\ud3core\helper/printf.c ****           base =  2U;
 570:..\common\ud3core\helper/printf.c ****         }
 571:..\common\ud3core\helper/printf.c ****         else {
 572:..\common\ud3core\helper/printf.c ****           base = 10U;
 573:..\common\ud3core\helper/printf.c ****           flags &= ~FLAGS_HASH;   // no hash for dec format
 574:..\common\ud3core\helper/printf.c ****         }
 575:..\common\ud3core\helper/printf.c ****         // uppercase
 576:..\common\ud3core\helper/printf.c ****         if (*format == 'X') {
 577:..\common\ud3core\helper/printf.c ****           flags |= FLAGS_UPPERCASE;
 578:..\common\ud3core\helper/printf.c ****         }
 579:..\common\ud3core\helper/printf.c **** 
 580:..\common\ud3core\helper/printf.c ****         // no plus or space flag for u, x, X, o, b
 581:..\common\ud3core\helper/printf.c ****         if ((*format != 'i') && (*format != 'd')) {
 582:..\common\ud3core\helper/printf.c ****           flags &= ~(FLAGS_PLUS | FLAGS_SPACE);
 583:..\common\ud3core\helper/printf.c ****         }
 584:..\common\ud3core\helper/printf.c **** 
 585:..\common\ud3core\helper/printf.c ****         // ignore '0' flag when precision is given
 586:..\common\ud3core\helper/printf.c ****         if (flags & FLAGS_PRECISION) {
 587:..\common\ud3core\helper/printf.c ****           flags &= ~FLAGS_ZEROPAD;
 588:..\common\ud3core\helper/printf.c ****         }
 589:..\common\ud3core\helper/printf.c **** 
 590:..\common\ud3core\helper/printf.c ****         // convert the integer
 591:..\common\ud3core\helper/printf.c ****         if ((*format == 'i') || (*format == 'd')) {
 592:..\common\ud3core\helper/printf.c ****           // signed
 593:..\common\ud3core\helper/printf.c ****           if (flags & FLAGS_LONG_LONG) {
 594:..\common\ud3core\helper/printf.c **** #if defined(PRINTF_SUPPORT_LONG_LONG)
 595:..\common\ud3core\helper/printf.c ****             const long long value = va_arg(va, long long);
 596:..\common\ud3core\helper/printf.c ****             idx = _ntoa_long_long(out, buffer, idx, maxlen, (unsigned long long)(value > 0 ? value 
 597:..\common\ud3core\helper/printf.c **** #endif
 598:..\common\ud3core\helper/printf.c ****           }
 599:..\common\ud3core\helper/printf.c ****           else if (flags & FLAGS_LONG) {
 600:..\common\ud3core\helper/printf.c ****             const long value = va_arg(va, long);
 601:..\common\ud3core\helper/printf.c ****             idx = _ntoa_long(out, buffer, idx, maxlen, (unsigned long)(value > 0 ? value : 0 - valu
 602:..\common\ud3core\helper/printf.c ****           }
 603:..\common\ud3core\helper/printf.c ****           else {
 604:..\common\ud3core\helper/printf.c ****             const int value = (flags & FLAGS_CHAR) ? (char)va_arg(va, int) : (flags & FLAGS_SHORT) 
 605:..\common\ud3core\helper/printf.c ****             idx = _ntoa_long(out, buffer, idx, maxlen, (unsigned int)(value > 0 ? value : 0 - value
 606:..\common\ud3core\helper/printf.c ****           }
 607:..\common\ud3core\helper/printf.c ****         }
 608:..\common\ud3core\helper/printf.c ****         else {
 609:..\common\ud3core\helper/printf.c ****           // unsigned
 610:..\common\ud3core\helper/printf.c ****           if (flags & FLAGS_LONG_LONG) {
 611:..\common\ud3core\helper/printf.c **** #if defined(PRINTF_SUPPORT_LONG_LONG)
 612:..\common\ud3core\helper/printf.c ****             idx = _ntoa_long_long(out, buffer, idx, maxlen, va_arg(va, unsigned long long), false, 
 613:..\common\ud3core\helper/printf.c **** #endif
 614:..\common\ud3core\helper/printf.c ****           }
 615:..\common\ud3core\helper/printf.c ****           else if (flags & FLAGS_LONG) {
 616:..\common\ud3core\helper/printf.c ****             idx = _ntoa_long(out, buffer, idx, maxlen, va_arg(va, unsigned long), false, base, prec
 617:..\common\ud3core\helper/printf.c ****           }
 618:..\common\ud3core\helper/printf.c ****           else {
 619:..\common\ud3core\helper/printf.c ****             const unsigned int value = (flags & FLAGS_CHAR) ? (unsigned char)va_arg(va, unsigned in
 620:..\common\ud3core\helper/printf.c ****             idx = _ntoa_long(out, buffer, idx, maxlen, value, false, base, precision, width, flags)
ARM GAS  C:\Users\chemi\AppData\Local\Temp\ccvd4c4w.s 			page 24


 621:..\common\ud3core\helper/printf.c ****           }
 622:..\common\ud3core\helper/printf.c ****         }
 623:..\common\ud3core\helper/printf.c ****         format++;
 624:..\common\ud3core\helper/printf.c ****         break;
 625:..\common\ud3core\helper/printf.c ****       }
 626:..\common\ud3core\helper/printf.c **** #if defined(PRINTF_SUPPORT_FLOAT)
 627:..\common\ud3core\helper/printf.c ****       case 'f' :
 628:..\common\ud3core\helper/printf.c ****       case 'F' :
 629:..\common\ud3core\helper/printf.c ****         idx = _ftoa(out, buffer, idx, maxlen, va_arg(va, double), precision, width, flags);
 630:..\common\ud3core\helper/printf.c ****         format++;
 631:..\common\ud3core\helper/printf.c ****         break;
 632:..\common\ud3core\helper/printf.c **** #endif  // PRINTF_SUPPORT_FLOAT
 633:..\common\ud3core\helper/printf.c ****       case 'c' : {
 634:..\common\ud3core\helper/printf.c ****         unsigned int l = 1U;
 635:..\common\ud3core\helper/printf.c ****         // pre padding
 636:..\common\ud3core\helper/printf.c ****         if (!(flags & FLAGS_LEFT)) {
 637:..\common\ud3core\helper/printf.c ****           while (l++ < width) {
 638:..\common\ud3core\helper/printf.c ****             out(' ', buffer, idx++, maxlen);
 639:..\common\ud3core\helper/printf.c ****           }
 640:..\common\ud3core\helper/printf.c ****         }
 641:..\common\ud3core\helper/printf.c ****         // char output
 642:..\common\ud3core\helper/printf.c ****         out((char)va_arg(va, int), buffer, idx++, maxlen);
 643:..\common\ud3core\helper/printf.c ****         // post padding
 644:..\common\ud3core\helper/printf.c ****         if (flags & FLAGS_LEFT) {
 645:..\common\ud3core\helper/printf.c ****           while (l++ < width) {
 646:..\common\ud3core\helper/printf.c ****             out(' ', buffer, idx++, maxlen);
 647:..\common\ud3core\helper/printf.c ****           }
 648:..\common\ud3core\helper/printf.c ****         }
 649:..\common\ud3core\helper/printf.c ****         format++;
 650:..\common\ud3core\helper/printf.c ****         break;
 651:..\common\ud3core\helper/printf.c ****       }
 652:..\common\ud3core\helper/printf.c **** 
 653:..\common\ud3core\helper/printf.c ****       case 's' : {
 654:..\common\ud3core\helper/printf.c ****         char* p = va_arg(va, char*);
 655:..\common\ud3core\helper/printf.c ****         unsigned int l = _strnlen_s(p, precision ? precision : (size_t)-1);
 656:..\common\ud3core\helper/printf.c ****         // pre padding
 657:..\common\ud3core\helper/printf.c ****         if (flags & FLAGS_PRECISION) {
 658:..\common\ud3core\helper/printf.c ****           l = (l < precision ? l : precision);
 659:..\common\ud3core\helper/printf.c ****         }
 660:..\common\ud3core\helper/printf.c ****         if (!(flags & FLAGS_LEFT)) {
 661:..\common\ud3core\helper/printf.c ****           while (l++ < width) {
 662:..\common\ud3core\helper/printf.c ****             out(' ', buffer, idx++, maxlen);
 663:..\common\ud3core\helper/printf.c ****           }
 664:..\common\ud3core\helper/printf.c ****         }
 665:..\common\ud3core\helper/printf.c ****         // string output
 666:..\common\ud3core\helper/printf.c ****         while ((*p != 0) && (!(flags & FLAGS_PRECISION) || precision--)) {
 667:..\common\ud3core\helper/printf.c ****           out(*(p++), buffer, idx++, maxlen);
 668:..\common\ud3core\helper/printf.c ****         }
 669:..\common\ud3core\helper/printf.c ****         // post padding
 670:..\common\ud3core\helper/printf.c ****         if (flags & FLAGS_LEFT) {
 671:..\common\ud3core\helper/printf.c ****           while (l++ < width) {
 672:..\common\ud3core\helper/printf.c ****             out(' ', buffer, idx++, maxlen);
 673:..\common\ud3core\helper/printf.c ****           }
 674:..\common\ud3core\helper/printf.c ****         }
 675:..\common\ud3core\helper/printf.c ****         format++;
 676:..\common\ud3core\helper/printf.c ****         break;
 677:..\common\ud3core\helper/printf.c ****       }
ARM GAS  C:\Users\chemi\AppData\Local\Temp\ccvd4c4w.s 			page 25


 678:..\common\ud3core\helper/printf.c **** 
 679:..\common\ud3core\helper/printf.c ****       case 'p' : {
 680:..\common\ud3core\helper/printf.c ****         width = sizeof(void*) * 2U;
 681:..\common\ud3core\helper/printf.c ****         flags |= FLAGS_ZEROPAD | FLAGS_UPPERCASE;
 682:..\common\ud3core\helper/printf.c **** #if defined(PRINTF_SUPPORT_LONG_LONG)
 683:..\common\ud3core\helper/printf.c ****         const bool is_ll = sizeof(uintptr_t) == sizeof(long long);
 684:..\common\ud3core\helper/printf.c ****         if (is_ll) {
 685:..\common\ud3core\helper/printf.c ****           idx = _ntoa_long_long(out, buffer, idx, maxlen, (uintptr_t)va_arg(va, void*), false, 16U,
 686:..\common\ud3core\helper/printf.c ****         }
 687:..\common\ud3core\helper/printf.c ****         else {
 688:..\common\ud3core\helper/printf.c **** #endif
 689:..\common\ud3core\helper/printf.c ****           idx = _ntoa_long(out, buffer, idx, maxlen, (unsigned long)((uintptr_t)va_arg(va, void*)),
 690:..\common\ud3core\helper/printf.c **** #if defined(PRINTF_SUPPORT_LONG_LONG)
 691:..\common\ud3core\helper/printf.c ****         }
 692:..\common\ud3core\helper/printf.c **** #endif
 693:..\common\ud3core\helper/printf.c ****         format++;
 694:..\common\ud3core\helper/printf.c ****         break;
 695:..\common\ud3core\helper/printf.c ****       }
 696:..\common\ud3core\helper/printf.c **** 
 697:..\common\ud3core\helper/printf.c ****       case '%' :
 698:..\common\ud3core\helper/printf.c ****         out('%', buffer, idx++, maxlen);
 699:..\common\ud3core\helper/printf.c ****         format++;
 700:..\common\ud3core\helper/printf.c ****         break;
 701:..\common\ud3core\helper/printf.c **** 
 702:..\common\ud3core\helper/printf.c ****       default :
 703:..\common\ud3core\helper/printf.c ****         out(*format, buffer, idx++, maxlen);
 704:..\common\ud3core\helper/printf.c ****         format++;
 705:..\common\ud3core\helper/printf.c ****         break;
 706:..\common\ud3core\helper/printf.c ****     }
 707:..\common\ud3core\helper/printf.c ****   }
 708:..\common\ud3core\helper/printf.c **** 
 709:..\common\ud3core\helper/printf.c ****   // termination
 710:..\common\ud3core\helper/printf.c ****   out((char)0, buffer, idx < maxlen ? idx : maxlen - 1U, maxlen);
 711:..\common\ud3core\helper/printf.c **** 
 712:..\common\ud3core\helper/printf.c ****   // return written chars without terminating \0
 713:..\common\ud3core\helper/printf.c ****   return (int)idx;
 714:..\common\ud3core\helper/printf.c **** }
 715:..\common\ud3core\helper/printf.c **** 
 716:..\common\ud3core\helper/printf.c **** 
 717:..\common\ud3core\helper/printf.c **** ///////////////////////////////////////////////////////////////////////////////
 718:..\common\ud3core\helper/printf.c **** 
 719:..\common\ud3core\helper/printf.c **** int printf_(const char* format, ...)
 720:..\common\ud3core\helper/printf.c **** {
 721:..\common\ud3core\helper/printf.c ****   va_list va;
 722:..\common\ud3core\helper/printf.c ****   va_start(va, format);
 723:..\common\ud3core\helper/printf.c ****   char buffer[1];
 724:..\common\ud3core\helper/printf.c ****   const int ret = _vsnprintf(_out_char, buffer, (size_t)-1, format, va);
 725:..\common\ud3core\helper/printf.c ****   va_end(va);
 726:..\common\ud3core\helper/printf.c ****   return ret;
 727:..\common\ud3core\helper/printf.c **** }
 728:..\common\ud3core\helper/printf.c **** 
 729:..\common\ud3core\helper/printf.c **** 
 730:..\common\ud3core\helper/printf.c **** int sprintf_(char* buffer, const char* format, ...)
 731:..\common\ud3core\helper/printf.c **** {
 732:..\common\ud3core\helper/printf.c ****   va_list va;
 733:..\common\ud3core\helper/printf.c ****   va_start(va, format);
 734:..\common\ud3core\helper/printf.c ****   const int ret = _vsnprintf(_out_buffer, buffer, (size_t)-1, format, va);
ARM GAS  C:\Users\chemi\AppData\Local\Temp\ccvd4c4w.s 			page 26


 735:..\common\ud3core\helper/printf.c ****   va_end(va);
 736:..\common\ud3core\helper/printf.c ****   return ret;
 737:..\common\ud3core\helper/printf.c **** }
 738:..\common\ud3core\helper/printf.c **** 
 739:..\common\ud3core\helper/printf.c **** 
 740:..\common\ud3core\helper/printf.c **** int snprintf_(char* buffer, size_t count, const char* format, ...)
 741:..\common\ud3core\helper/printf.c **** {
 742:..\common\ud3core\helper/printf.c ****   va_list va;
 743:..\common\ud3core\helper/printf.c ****   va_start(va, format);
 744:..\common\ud3core\helper/printf.c ****   const int ret = _vsnprintf(_out_buffer, buffer, count, format, va);
 745:..\common\ud3core\helper/printf.c ****   va_end(va);
 746:..\common\ud3core\helper/printf.c ****   return ret;
 747:..\common\ud3core\helper/printf.c **** }
 748:..\common\ud3core\helper/printf.c **** 
 749:..\common\ud3core\helper/printf.c **** 
 750:..\common\ud3core\helper/printf.c **** int vsnprintf_(char* buffer, size_t count, const char* format, va_list va)
 751:..\common\ud3core\helper/printf.c **** {
 752:..\common\ud3core\helper/printf.c ****   return _vsnprintf(_out_buffer, buffer, count, format, va);
 753:..\common\ud3core\helper/printf.c **** }
 754:..\common\ud3core\helper/printf.c **** 
 755:..\common\ud3core\helper/printf.c **** 
 756:..\common\ud3core\helper/printf.c **** int fctprintf(void (*out)(char character, void* arg), void* arg, const char* format, ...)
 757:..\common\ud3core\helper/printf.c **** {
 758:..\common\ud3core\helper/printf.c ****   va_list va;
 759:..\common\ud3core\helper/printf.c ****   va_start(va, format);
 760:..\common\ud3core\helper/printf.c ****   const out_fct_wrap_type out_fct_wrap = { out, arg };
 761:..\common\ud3core\helper/printf.c ****   const int ret = _vsnprintf(_out_fct, (char*)&out_fct_wrap, (size_t)-1, format, va);
 762:..\common\ud3core\helper/printf.c ****   va_end(va);
 763:..\common\ud3core\helper/printf.c ****   return ret;
 764:..\common\ud3core\helper/printf.c **** }
 765:..\common\ud3core\helper/printf.c **** 
 766:..\common\ud3core\helper/printf.c **** void send_stream(char character, void* arg){
 671              		.loc 1 766 0
 672              		.cfi_startproc
 673              		@ args = 0, pretend = 0, frame = 8
 674              		@ frame_needed = 0, uses_anonymous_args = 0
 675              	.LVL86:
 676 0000 13B5     		push	{r0, r1, r4, lr}
 677              		.cfi_def_cfa_offset 16
 678              		.cfi_offset 4, -8
 679              		.cfi_offset 14, -4
 680              		.loc 1 766 0
 681 0002 0C46     		mov	r4, r1
 682 0004 8DF80700 		strb	r0, [sp, #7]
 767:..\common\ud3core\helper/printf.c ****     if(character == '\0') return;
 683              		.loc 1 767 0
 684 0008 38B1     		cbz	r0, .L99
 768:..\common\ud3core\helper/printf.c ****     xStreamBufferSend(((port_str*)arg)->tx,&character, 1,portMAX_DELAY);
 685              		.loc 1 768 0
 686 000a 4FF0FF33 		mov	r3, #-1
 687 000e 0122     		movs	r2, #1
 688 0010 0DF10701 		add	r1, sp, #7
 689              	.LVL87:
 690 0014 6068     		ldr	r0, [r4, #4]
 691              	.LVL88:
 692 0016 FFF7FEFF 		bl	xStreamBufferSend
 693              	.LVL89:
ARM GAS  C:\Users\chemi\AppData\Local\Temp\ccvd4c4w.s 			page 27


 694              	.L99:
 769:..\common\ud3core\helper/printf.c **** }
 695              		.loc 1 769 0
 696 001a 02B0     		add	sp, sp, #8
 697              		.cfi_def_cfa_offset 8
 698              		@ sp needed
 699 001c 10BD     		pop	{r4, pc}
 700              		.cfi_endproc
 701              	.LFE85:
 702              		.size	send_stream, .-send_stream
 703              		.global	__aeabi_dcmplt
 704              		.global	__aeabi_dsub
 705              		.global	__aeabi_d2iz
 706              		.global	__aeabi_i2d
 707              		.global	__aeabi_dmul
 708              		.global	__aeabi_d2uiz
 709              		.global	__aeabi_ui2d
 710              		.global	__aeabi_dcmpgt
 711              		.global	__aeabi_dcmple
 712              		.global	__aeabi_dcmpeq
 713              		.section	.text._vsnprintf,"ax",%progbits
 714              		.align	1
 715              		.thumb
 716              		.thumb_func
 717              		.type	_vsnprintf, %function
 718              	_vsnprintf:
 719              	.LFB79:
 447:..\common\ud3core\helper/printf.c ****   unsigned int flags, width, precision, n;
 720              		.loc 1 447 0
 721              		.cfi_startproc
 722              		@ args = 4, pretend = 0, frame = 80
 723              		@ frame_needed = 0, uses_anonymous_args = 0
 724              	.LVL90:
 725 0000 2DE9F04F 		push	{r4, r5, r6, r7, r8, r9, r10, fp, lr}
 726              		.cfi_def_cfa_offset 36
 727              		.cfi_offset 4, -36
 728              		.cfi_offset 5, -32
 729              		.cfi_offset 6, -28
 730              		.cfi_offset 7, -24
 731              		.cfi_offset 8, -20
 732              		.cfi_offset 9, -16
 733              		.cfi_offset 10, -12
 734              		.cfi_offset 11, -8
 735              		.cfi_offset 14, -4
 736 0004 9FB0     		sub	sp, sp, #124
 737              		.cfi_def_cfa_offset 160
 447:..\common\ud3core\helper/printf.c ****   unsigned int flags, width, precision, n;
 738              		.loc 1 447 0
 739 0006 0C92     		str	r2, [sp, #48]
 453:..\common\ud3core\helper/printf.c ****   }
 740              		.loc 1 453 0
 741 0008 AD4A     		ldr	r2, .L363
 742              	.LVL91:
 743 000a DDF8A080 		ldr	r8, [sp, #160]
 744              	.LVL92:
 745 000e 0029     		cmp	r1, #0
 746 0010 18BF     		it	ne
ARM GAS  C:\Users\chemi\AppData\Local\Temp\ccvd4c4w.s 			page 28


 747 0012 0246     		movne	r2, r0
 748 0014 0E91     		str	r1, [sp, #56]
 749 0016 0F92     		str	r2, [sp, #60]
 629:..\common\ud3core\helper/printf.c ****         format++;
 750              		.loc 1 629 0
 751 0018 0025     		movs	r5, #0
 752              	.LVL93:
 753              	.L106:
 456:..\common\ud3core\helper/printf.c ****   {
 754              		.loc 1 456 0
 755 001a 1878     		ldrb	r0, [r3]	@ zero_extendqisi2
 756 001c 0028     		cmp	r0, #0
 757 001e 3AD0     		beq	.L353
 459:..\common\ud3core\helper/printf.c ****       // no
 758              		.loc 1 459 0
 759 0020 2528     		cmp	r0, #37
 760 0022 03F10106 		add	r6, r3, #1
 761 0026 07D0     		beq	.L107
 461:..\common\ud3core\helper/printf.c ****       format++;
 762              		.loc 1 461 0
 763 0028 0C9B     		ldr	r3, [sp, #48]
 764              	.LVL94:
 765 002a 2A46     		mov	r2, r5
 766 002c 6C1C     		adds	r4, r5, #1
 767              	.LVL95:
 768 002e 0E99     		ldr	r1, [sp, #56]
 769 0030 0F9D     		ldr	r5, [sp, #60]
 770 0032 A847     		blx	r5
 771              	.LVL96:
 462:..\common\ud3core\helper/printf.c ****       continue;
 772              		.loc 1 462 0
 773 0034 3346     		mov	r3, r6
 774 0036 2CE0     		b	.L350
 775              	.LVL97:
 776              	.L107:
 777 0038 3346     		mov	r3, r6
 778              	.LVL98:
 471:..\common\ud3core\helper/printf.c ****     do {
 779              		.loc 1 471 0
 780 003a 0024     		movs	r4, #0
 781              	.LVL99:
 782              	.L231:
 473:..\common\ud3core\helper/printf.c ****         case '0': flags |= FLAGS_ZEROPAD; format++; n = 1U; break;
 783              		.loc 1 473 0
 784 003c 1846     		mov	r0, r3
 785 003e 10F8012B 		ldrb	r2, [r0], #1	@ zero_extendqisi2
 786 0042 1946     		mov	r1, r3
 787              	.LVL100:
 788 0044 2B2A     		cmp	r2, #43
 789 0046 11D0     		beq	.L110
 790 0048 06D8     		bhi	.L111
 791 004a 202A     		cmp	r2, #32
 792 004c 11D0     		beq	.L112
 793 004e 232A     		cmp	r2, #35
 794 0050 32D1     		bne	.L109
 478:..\common\ud3core\helper/printf.c ****         default :                                   n = 0U; break;
 795              		.loc 1 478 0
ARM GAS  C:\Users\chemi\AppData\Local\Temp\ccvd4c4w.s 			page 29


 796 0052 44F01004 		orr	r4, r4, #16
 797              	.LVL101:
 798 0056 2DE0     		b	.L116
 799              	.LVL102:
 800              	.L111:
 473:..\common\ud3core\helper/printf.c ****         case '0': flags |= FLAGS_ZEROPAD; format++; n = 1U; break;
 801              		.loc 1 473 0
 802 0058 2D2A     		cmp	r2, #45
 803 005a 04D0     		beq	.L114
 804 005c 302A     		cmp	r2, #48
 805 005e 2BD1     		bne	.L109
 474:..\common\ud3core\helper/printf.c ****         case '-': flags |= FLAGS_LEFT;    format++; n = 1U; break;
 806              		.loc 1 474 0
 807 0060 44F00104 		orr	r4, r4, #1
 808              	.LVL103:
 809 0064 26E0     		b	.L116
 810              	.LVL104:
 811              	.L114:
 475:..\common\ud3core\helper/printf.c ****         case '+': flags |= FLAGS_PLUS;    format++; n = 1U; break;
 812              		.loc 1 475 0
 813 0066 44F00204 		orr	r4, r4, #2
 814              	.LVL105:
 815 006a 23E0     		b	.L116
 816              	.LVL106:
 817              	.L110:
 476:..\common\ud3core\helper/printf.c ****         case ' ': flags |= FLAGS_SPACE;   format++; n = 1U; break;
 818              		.loc 1 476 0
 819 006c 44F00404 		orr	r4, r4, #4
 820              	.LVL107:
 821 0070 20E0     		b	.L116
 822              	.LVL108:
 823              	.L112:
 477:..\common\ud3core\helper/printf.c ****         case '#': flags |= FLAGS_HASH;    format++; n = 1U; break;
 824              		.loc 1 477 0
 825 0072 44F00804 		orr	r4, r4, #8
 826              	.LVL109:
 827 0076 1DE0     		b	.L116
 828              	.LVL110:
 829              	.L336:
 552:..\common\ud3core\helper/printf.c ****       case 'd' :
 830              		.loc 1 552 0
 831 0078 00F29780 		bhi	.L138
 832 007c 2528     		cmp	r0, #37
 833 007e 40F09080 		bne	.L354
 834              	.L134:
 703:..\common\ud3core\helper/printf.c ****         format++;
 835              		.loc 1 703 0
 836 0082 0C9B     		ldr	r3, [sp, #48]
 837              	.LVL111:
 838 0084 2A46     		mov	r2, r5
 839 0086 6C1C     		adds	r4, r5, #1
 840              	.LVL112:
 841 0088 0E99     		ldr	r1, [sp, #56]
 842 008a 0F9D     		ldr	r5, [sp, #60]
 843 008c A847     		blx	r5
 844              	.LVL113:
 704:..\common\ud3core\helper/printf.c ****         break;
ARM GAS  C:\Users\chemi\AppData\Local\Temp\ccvd4c4w.s 			page 30


 845              		.loc 1 704 0
 846 008e 0B9B     		ldr	r3, [sp, #44]
 847 0090 0133     		adds	r3, r3, #1
 848              	.LVL114:
 849              	.L350:
 703:..\common\ud3core\helper/printf.c ****         format++;
 850              		.loc 1 703 0
 851 0092 2546     		mov	r5, r4
 705:..\common\ud3core\helper/printf.c ****     }
 852              		.loc 1 705 0
 853 0094 C1E7     		b	.L106
 854              	.LVL115:
 855              	.L353:
 710:..\common\ud3core\helper/printf.c **** 
 856              		.loc 1 710 0
 857 0096 0C9B     		ldr	r3, [sp, #48]
 858              	.LVL116:
 859 0098 0E99     		ldr	r1, [sp, #56]
 860 009a 9D42     		cmp	r5, r3
 861 009c 2CBF     		ite	cs
 862 009e 03F1FF32 		addcs	r2, r3, #-1
 863 00a2 2A46     		movcc	r2, r5
 864 00a4 0C9B     		ldr	r3, [sp, #48]
 865 00a6 0020     		movs	r0, #0
 866 00a8 0F9C     		ldr	r4, [sp, #60]
 867 00aa A047     		blx	r4
 868              	.LVL117:
 714:..\common\ud3core\helper/printf.c **** 
 869              		.loc 1 714 0
 870 00ac 2846     		mov	r0, r5
 871 00ae 1FB0     		add	sp, sp, #124
 872              		.cfi_remember_state
 873              		.cfi_def_cfa_offset 36
 874              		@ sp needed
 875 00b0 BDE8F08F 		pop	{r4, r5, r6, r7, r8, r9, r10, fp, pc}
 876              	.LVL118:
 877              	.L116:
 878              		.cfi_restore_state
 471:..\common\ud3core\helper/printf.c ****     do {
 879              		.loc 1 471 0
 880 00b4 0346     		mov	r3, r0
 881 00b6 C1E7     		b	.L231
 882              	.LVL119:
 883              	.L109:
 485:..\common\ud3core\helper/printf.c ****       width = _atoi(&format);
 884              		.loc 1 485 0
 885 00b8 A2F13006 		sub	r6, r2, #48
 886 00bc 092E     		cmp	r6, #9
 887 00be 40F24883 		bls	.L355
 488:..\common\ud3core\helper/printf.c ****       const int w = va_arg(va, int);
 888              		.loc 1 488 0
 889 00c2 2A2A     		cmp	r2, #42
 890 00c4 0CD1     		bne	.L237
 891              	.LBB51:
 489:..\common\ud3core\helper/printf.c ****       if (w < 0) {
 892              		.loc 1 489 0
 893 00c6 D8F80030 		ldr	r3, [r8]
ARM GAS  C:\Users\chemi\AppData\Local\Temp\ccvd4c4w.s 			page 31


 894 00ca 08F10402 		add	r2, r8, #4
 895              	.LVL120:
 490:..\common\ud3core\helper/printf.c ****         flags |= FLAGS_LEFT;    // reverse padding
 896              		.loc 1 490 0
 897 00ce 002B     		cmp	r3, #0
 492:..\common\ud3core\helper/printf.c ****       }
 898              		.loc 1 492 0
 899 00d0 BCBF     		itt	lt
 900 00d2 5B42     		rsblt	r3, r3, #0
 901              	.LVL121:
 491:..\common\ud3core\helper/printf.c ****         width = (unsigned int)-w;
 902              		.loc 1 491 0
 903 00d4 44F00204 		orrlt	r4, r4, #2
 904              	.LVL122:
 495:..\common\ud3core\helper/printf.c ****       }
 905              		.loc 1 495 0
 906 00d8 0D93     		str	r3, [sp, #52]
 907              	.LVL123:
 497:..\common\ud3core\helper/printf.c ****     }
 908              		.loc 1 497 0
 909 00da 0146     		mov	r1, r0
 910              	.LVL124:
 489:..\common\ud3core\helper/printf.c ****       if (w < 0) {
 911              		.loc 1 489 0
 912 00dc 9046     		mov	r8, r2
 913              	.LVL125:
 914 00de 01E0     		b	.L118
 915              	.LVL126:
 916              	.L237:
 917              	.LBE51:
 484:..\common\ud3core\helper/printf.c ****     if (_is_digit(*format)) {
 918              		.loc 1 484 0
 919 00e0 0023     		movs	r3, #0
 920 00e2 0D93     		str	r3, [sp, #52]
 921              	.LVL127:
 922              	.L118:
 502:..\common\ud3core\helper/printf.c ****       flags |= FLAGS_PRECISION;
 923              		.loc 1 502 0
 924 00e4 0B78     		ldrb	r3, [r1]	@ zero_extendqisi2
 925 00e6 2E2B     		cmp	r3, #46
 926 00e8 23D1     		bne	.L238
 504:..\common\ud3core\helper/printf.c ****       if (_is_digit(*format)) {
 927              		.loc 1 504 0
 928 00ea 4B1C     		adds	r3, r1, #1
 929 00ec 0B93     		str	r3, [sp, #44]
 505:..\common\ud3core\helper/printf.c ****         precision = _atoi(&format);
 930              		.loc 1 505 0
 931 00ee 4B78     		ldrb	r3, [r1, #1]	@ zero_extendqisi2
 503:..\common\ud3core\helper/printf.c ****       format++;
 932              		.loc 1 503 0
 933 00f0 44F48064 		orr	r4, r4, #1024
 934              	.LVL128:
 505:..\common\ud3core\helper/printf.c ****         precision = _atoi(&format);
 935              		.loc 1 505 0
 936 00f4 A3F13002 		sub	r2, r3, #48
 937 00f8 092A     		cmp	r2, #9
 938 00fa 0FD8     		bhi	.L122
ARM GAS  C:\Users\chemi\AppData\Local\Temp\ccvd4c4w.s 			page 32


 939 00fc 0B9A     		ldr	r2, [sp, #44]
 940 00fe 4FF00009 		mov	r9, #0
 941 0102 0A20     		movs	r0, #10
 942              	.LVL129:
 943              	.L123:
 944 0104 0B92     		str	r2, [sp, #44]
 945              	.LVL130:
 946              	.LBB52:
 947              	.LBB53:
 169:..\common\ud3core\helper/printf.c ****     i = i * 10U + (unsigned int)(*((*str)++) - '0');
 948              		.loc 1 169 0
 949 0106 12F8013B 		ldrb	r3, [r2], #1	@ zero_extendqisi2
 950 010a A3F13001 		sub	r1, r3, #48
 951 010e 0929     		cmp	r1, #9
 952 0110 12D8     		bhi	.L121
 953              	.LVL131:
 954 0112 00FB0939 		mla	r9, r0, r9, r3
 955              	.LVL132:
 170:..\common\ud3core\helper/printf.c ****   }
 956              		.loc 1 170 0
 957 0116 A9F13009 		sub	r9, r9, #48
 958              	.LVL133:
 959 011a F3E7     		b	.L123
 960              	.LVL134:
 961              	.L122:
 962              	.LBE53:
 963              	.LBE52:
 508:..\common\ud3core\helper/printf.c ****         const int prec = (int)va_arg(va, int);
 964              		.loc 1 508 0
 965 011c 2A2B     		cmp	r3, #42
 966 011e 09D1     		bne	.L239
 967              	.LVL135:
 968              	.LBB54:
 510:..\common\ud3core\helper/printf.c ****         format++;
 969              		.loc 1 510 0
 970 0120 D8F80030 		ldr	r3, [r8]
 509:..\common\ud3core\helper/printf.c ****         precision = prec > 0 ? (unsigned int)prec : 0U;
 971              		.loc 1 509 0
 972 0124 08F10408 		add	r8, r8, #4
 973              	.LVL136:
 510:..\common\ud3core\helper/printf.c ****         format++;
 974              		.loc 1 510 0
 975 0128 23EAE379 		bic	r9, r3, r3, asr #31
 976              	.LVL137:
 511:..\common\ud3core\helper/printf.c ****       }
 977              		.loc 1 511 0
 978 012c 8B1C     		adds	r3, r1, #2
 979              	.LVL138:
 980 012e 0B93     		str	r3, [sp, #44]
 981              	.LVL139:
 982 0130 02E0     		b	.L121
 983              	.LVL140:
 984              	.L238:
 985              	.LBE54:
 986 0132 0B91     		str	r1, [sp, #44]
 987              	.LVL141:
 988              	.L239:
ARM GAS  C:\Users\chemi\AppData\Local\Temp\ccvd4c4w.s 			page 33


 501:..\common\ud3core\helper/printf.c ****     if (*format == '.') {
 989              		.loc 1 501 0
 990 0134 4FF00009 		mov	r9, #0
 991              	.LVL142:
 992              	.L121:
 516:..\common\ud3core\helper/printf.c ****       case 'l' :
 993              		.loc 1 516 0
 994 0138 0B9B     		ldr	r3, [sp, #44]
 995 013a 1B78     		ldrb	r3, [r3]	@ zero_extendqisi2
 996 013c 6C2B     		cmp	r3, #108
 997 013e 0CD0     		beq	.L126
 998 0140 06D8     		bhi	.L127
 999 0142 682B     		cmp	r3, #104
 1000 0144 10D0     		beq	.L128
 1001 0146 6A2B     		cmp	r3, #106
 1002 0148 1FD1     		bne	.L125
 540:..\common\ud3core\helper/printf.c ****         format++;
 1003              		.loc 1 540 0
 1004 014a 44F40074 		orr	r4, r4, #512
 1005              	.LVL143:
 1006 014e 19E0     		b	.L343
 1007              	.L127:
 516:..\common\ud3core\helper/printf.c ****       case 'l' :
 1008              		.loc 1 516 0
 1009 0150 742B     		cmp	r3, #116
 1010 0152 15D0     		beq	.L131
 1011 0154 7A2B     		cmp	r3, #122
 1012 0156 13D0     		beq	.L131
 1013 0158 17E0     		b	.L125
 1014              	.L126:
 1015              	.LVL144:
 520:..\common\ud3core\helper/printf.c ****           flags |= FLAGS_LONG_LONG;
 1016              		.loc 1 520 0
 1017 015a 0B9B     		ldr	r3, [sp, #44]
 1018 015c 5B78     		ldrb	r3, [r3, #1]	@ zero_extendqisi2
 1019 015e 6C2B     		cmp	r3, #108
 1020 0160 0ED1     		bne	.L131
 521:..\common\ud3core\helper/printf.c ****           format++;
 1021              		.loc 1 521 0
 1022 0162 44F44074 		orr	r4, r4, #768
 1023              	.LVL145:
 1024 0166 08E0     		b	.L351
 1025              	.LVL146:
 1026              	.L128:
 528:..\common\ud3core\helper/printf.c ****           flags |= FLAGS_CHAR;
 1027              		.loc 1 528 0
 1028 0168 0B9B     		ldr	r3, [sp, #44]
 1029 016a 5B78     		ldrb	r3, [r3, #1]	@ zero_extendqisi2
 1030 016c 682B     		cmp	r3, #104
 1031 016e 02D0     		beq	.L133
 526:..\common\ud3core\helper/printf.c ****         format++;
 1032              		.loc 1 526 0
 1033 0170 44F08004 		orr	r4, r4, #128
 1034              	.LVL147:
 1035 0174 06E0     		b	.L343
 1036              	.LVL148:
 1037              	.L133:
ARM GAS  C:\Users\chemi\AppData\Local\Temp\ccvd4c4w.s 			page 34


 529:..\common\ud3core\helper/printf.c ****           format++;
 1038              		.loc 1 529 0
 1039 0176 44F0C004 		orr	r4, r4, #192
 1040              	.LVL149:
 1041              	.L351:
 530:..\common\ud3core\helper/printf.c ****         }
 1042              		.loc 1 530 0
 1043 017a 0B9B     		ldr	r3, [sp, #44]
 1044 017c 0233     		adds	r3, r3, #2
 1045 017e 03E0     		b	.L344
 1046              	.LVL150:
 1047              	.L131:
 544:..\common\ud3core\helper/printf.c ****         format++;
 1048              		.loc 1 544 0
 1049 0180 44F48074 		orr	r4, r4, #256
 1050              	.L343:
 1051              	.LVL151:
 545:..\common\ud3core\helper/printf.c ****         break;
 1052              		.loc 1 545 0
 1053 0184 0B9B     		ldr	r3, [sp, #44]
 1054 0186 0133     		adds	r3, r3, #1
 1055              	.L344:
 1056 0188 0B93     		str	r3, [sp, #44]
 1057              	.LVL152:
 1058              	.L125:
 552:..\common\ud3core\helper/printf.c ****       case 'd' :
 1059              		.loc 1 552 0
 1060 018a 0B9B     		ldr	r3, [sp, #44]
 1061 018c 1878     		ldrb	r0, [r3]	@ zero_extendqisi2
 1062 018e 6628     		cmp	r0, #102
 1063 0190 00F0E880 		beq	.L135
 1064 0194 13D8     		bhi	.L136
 1065 0196 5828     		cmp	r0, #88
 1066 0198 7FF46EAF 		bne	.L336
 1067              	.LVL153:
 1068              	.LBB55:
 577:..\common\ud3core\helper/printf.c ****         }
 1069              		.loc 1 577 0
 1070 019c 44F02004 		orr	r4, r4, #32
 1071              	.LVL154:
 1072 01a0 36E0     		b	.L240
 1073              	.LVL155:
 1074              	.L354:
 1075              	.LBE55:
 552:..\common\ud3core\helper/printf.c ****       case 'd' :
 1076              		.loc 1 552 0
 1077 01a2 4628     		cmp	r0, #70
 1078 01a4 00F0DE80 		beq	.L135
 1079 01a8 6BE7     		b	.L134
 1080              	.L138:
 1081 01aa 6328     		cmp	r0, #99
 1082 01ac 00F02882 		beq	.L140
 1083 01b0 6428     		cmp	r0, #100
 1084 01b2 24D0     		beq	.L308
 1085 01b4 6228     		cmp	r0, #98
 1086 01b6 7FF464AF 		bne	.L134
 1087              	.LBB60:
ARM GAS  C:\Users\chemi\AppData\Local\Temp\ccvd4c4w.s 			page 35


 569:..\common\ud3core\helper/printf.c ****         }
 1088              		.loc 1 569 0
 1089 01ba 0223     		movs	r3, #2
 1090              	.LVL156:
 1091 01bc 29E0     		b	.L144
 1092              	.LVL157:
 1093              	.L136:
 1094              	.LBE60:
 552:..\common\ud3core\helper/printf.c ****       case 'd' :
 1095              		.loc 1 552 0
 1096 01be 7028     		cmp	r0, #112
 1097 01c0 00F0AC82 		beq	.L141
 1098 01c4 06D8     		bhi	.L142
 1099 01c6 6928     		cmp	r0, #105
 1100 01c8 19D0     		beq	.L308
 1101 01ca 6F28     		cmp	r0, #111
 1102 01cc 7FF459AF 		bne	.L134
 1103              	.LBB61:
 566:..\common\ud3core\helper/printf.c ****         }
 1104              		.loc 1 566 0
 1105 01d0 0823     		movs	r3, #8
 1106              	.LVL158:
 1107 01d2 1EE0     		b	.L144
 1108              	.LVL159:
 1109              	.L142:
 1110              	.LBE61:
 552:..\common\ud3core\helper/printf.c ****       case 'd' :
 1111              		.loc 1 552 0
 1112 01d4 7528     		cmp	r0, #117
 1113 01d6 12D0     		beq	.L308
 1114 01d8 7828     		cmp	r0, #120
 1115 01da 19D0     		beq	.L240
 1116 01dc 7328     		cmp	r0, #115
 1117 01de 7FF450AF 		bne	.L134
 1118              	.LBB62:
 655:..\common\ud3core\helper/printf.c ****         // pre padding
 1119              		.loc 1 655 0
 1120 01e2 B9F1000F 		cmp	r9, #0
 1121 01e6 18BF     		it	ne
 1122 01e8 4B46     		movne	r3, r9
 1123              	.LVL160:
 654:..\common\ud3core\helper/printf.c ****         unsigned int l = _strnlen_s(p, precision ? precision : (size_t)-1);
 1124              		.loc 1 654 0
 1125 01ea 08F1040B 		add	fp, r8, #4
 1126 01ee D8F80080 		ldr	r8, [r8]
 1127              	.LVL161:
 655:..\common\ud3core\helper/printf.c ****         // pre padding
 1128              		.loc 1 655 0
 1129 01f2 08BF     		it	eq
 1130 01f4 4FF0FF33 		moveq	r3, #-1
 1131 01f8 4344     		add	r3, r3, r8
 1132 01fa 4746     		mov	r7, r8
 1133 01fc 43E2     		b	.L216
 1134              	.LVL162:
 1135              	.L308:
 1136              	.LBE62:
 1137              	.LBB67:
ARM GAS  C:\Users\chemi\AppData\Local\Temp\ccvd4c4w.s 			page 36


 581:..\common\ud3core\helper/printf.c ****           flags &= ~(FLAGS_PLUS | FLAGS_SPACE);
 1138              		.loc 1 581 0
 1139 01fe 6928     		cmp	r0, #105
 573:..\common\ud3core\helper/printf.c ****         }
 1140              		.loc 1 573 0
 1141 0200 24F01004 		bic	r4, r4, #16
 1142              	.LVL163:
 572:..\common\ud3core\helper/printf.c ****           flags &= ~FLAGS_HASH;   // no hash for dec format
 1143              		.loc 1 572 0
 1144 0204 4FF00A03 		mov	r3, #10
 1145              	.LVL164:
 581:..\common\ud3core\helper/printf.c ****           flags &= ~(FLAGS_PLUS | FLAGS_SPACE);
 1146              		.loc 1 581 0
 1147 0208 05D0     		beq	.L147
 1148 020a 6428     		cmp	r0, #100
 1149 020c 03D0     		beq	.L147
 1150 020e 00E0     		b	.L144
 1151              	.LVL165:
 1152              	.L240:
 563:..\common\ud3core\helper/printf.c ****         }
 1153              		.loc 1 563 0
 1154 0210 1023     		movs	r3, #16
 1155              	.LVL166:
 1156              	.L144:
 582:..\common\ud3core\helper/printf.c ****         }
 1157              		.loc 1 582 0
 1158 0212 24F00C04 		bic	r4, r4, #12
 1159              	.LVL167:
 1160              	.L147:
 586:..\common\ud3core\helper/printf.c ****           flags &= ~FLAGS_ZEROPAD;
 1161              		.loc 1 586 0
 1162 0216 6705     		lsls	r7, r4, #21
 587:..\common\ud3core\helper/printf.c ****         }
 1163              		.loc 1 587 0
 1164 0218 48BF     		it	mi
 1165 021a 24F00104 		bicmi	r4, r4, #1
 1166              	.LVL168:
 591:..\common\ud3core\helper/printf.c ****           // signed
 1167              		.loc 1 591 0
 1168 021e 6928     		cmp	r0, #105
 1169 0220 04F40072 		and	r2, r4, #512
 1170 0224 01D0     		beq	.L149
 591:..\common\ud3core\helper/printf.c ****           // signed
 1171              		.loc 1 591 0 is_stmt 0 discriminator 1
 1172 0226 6428     		cmp	r0, #100
 1173 0228 4CD1     		bne	.L150
 1174              	.L149:
 593:..\common\ud3core\helper/printf.c **** #if defined(PRINTF_SUPPORT_LONG_LONG)
 1175              		.loc 1 593 0 is_stmt 1
 1176 022a DAB1     		cbz	r2, .L151
 1177              	.LBB56:
 595:..\common\ud3core\helper/printf.c ****             idx = _ntoa_long_long(out, buffer, idx, maxlen, (unsigned long long)(value > 0 ? value 
 1178              		.loc 1 595 0
 1179 022c 08F10708 		add	r8, r8, #7
 1180 0230 28F00702 		bic	r2, r8, #7
 1181 0234 92E80300 		ldmia	r2, {r0, r1}
 596:..\common\ud3core\helper/printf.c **** #endif
ARM GAS  C:\Users\chemi\AppData\Local\Temp\ccvd4c4w.s 			page 37


 1182              		.loc 1 596 0
 1183 0238 0493     		str	r3, [sp, #16]
 1184 023a 0023     		movs	r3, #0
 1185 023c 0593     		str	r3, [sp, #20]
 1186 023e CB0F     		lsrs	r3, r1, #31
 1187 0240 0293     		str	r3, [sp, #8]
 1188 0242 0B46     		mov	r3, r1
 595:..\common\ud3core\helper/printf.c ****             idx = _ntoa_long_long(out, buffer, idx, maxlen, (unsigned long long)(value > 0 ? value 
 1189              		.loc 1 595 0
 1190 0244 02F10808 		add	r8, r2, #8
 1191              	.LVL169:
 596:..\common\ud3core\helper/printf.c **** #endif
 1192              		.loc 1 596 0
 1193 0248 0028     		cmp	r0, #0
 1194 024a 0D9A     		ldr	r2, [sp, #52]
 1195 024c 73F10001 		sbcs	r1, r3, #0
 1196              	.LVL170:
 1197 0250 0792     		str	r2, [sp, #28]
 1198 0252 0894     		str	r4, [sp, #32]
 1199 0254 CDF81890 		str	r9, [sp, #24]
 1200 0258 0246     		mov	r2, r0
 1201 025a 44DA     		bge	.L352
 1202 025c 4242     		rsbs	r2, r0, #0
 1203 025e 63EB4303 		sbc	r3, r3, r3, lsl #1
 1204              	.LVL171:
 1205 0262 40E0     		b	.L352
 1206              	.L151:
 1207              	.LBE56:
 599:..\common\ud3core\helper/printf.c ****             const long value = va_arg(va, long);
 1208              		.loc 1 599 0
 1209 0264 14F4807F 		tst	r4, #256
 1210 0268 08F10407 		add	r7, r8, #4
 1211 026c 0FD0     		beq	.L154
 1212              	.LBB57:
 600:..\common\ud3core\helper/printf.c ****             idx = _ntoa_long(out, buffer, idx, maxlen, (unsigned long)(value > 0 ? value : 0 - valu
 1213              		.loc 1 600 0
 1214 026e D8F80020 		ldr	r2, [r8]
 1215              	.LVL172:
 601:..\common\ud3core\helper/printf.c ****           }
 1216              		.loc 1 601 0
 1217 0272 0D99     		ldr	r1, [sp, #52]
 1218 0274 002A     		cmp	r2, #0
 1219 0276 0293     		str	r3, [sp, #8]
 1220 0278 4FEAD273 		lsr	r3, r2, #31
 1221 027c B8BF     		it	lt
 1222 027e 5242     		rsblt	r2, r2, #0
 1223              	.LVL173:
 1224 0280 0594     		str	r4, [sp, #20]
 1225 0282 0491     		str	r1, [sp, #16]
 1226 0284 CDF80C90 		str	r9, [sp, #12]
 1227 0288 0193     		str	r3, [sp, #4]
 1228 028a 0092     		str	r2, [sp]
 1229 028c 43E0     		b	.L347
 1230              	.L154:
 1231              	.LBE57:
 1232              	.LBB58:
 604:..\common\ud3core\helper/printf.c ****             idx = _ntoa_long(out, buffer, idx, maxlen, (unsigned int)(value > 0 ? value : 0 - value
ARM GAS  C:\Users\chemi\AppData\Local\Temp\ccvd4c4w.s 			page 38


 1233              		.loc 1 604 0
 1234 028e 14F0400F 		tst	r4, #64
 1235 0292 D8F80020 		ldr	r2, [r8]
 1236 0296 01D0     		beq	.L155
 604:..\common\ud3core\helper/printf.c ****             idx = _ntoa_long(out, buffer, idx, maxlen, (unsigned int)(value > 0 ? value : 0 - value
 1237              		.loc 1 604 0 is_stmt 0 discriminator 1
 1238 0298 D2B2     		uxtb	r2, r2
 1239 029a 02E0     		b	.L157
 1240              	.L155:
 604:..\common\ud3core\helper/printf.c ****             idx = _ntoa_long(out, buffer, idx, maxlen, (unsigned int)(value > 0 ? value : 0 - value
 1241              		.loc 1 604 0 discriminator 2
 1242 029c 2606     		lsls	r6, r4, #24
 1243 029e 48BF     		it	mi
 1244 02a0 12B2     		sxthmi	r2, r2
 1245              	.L157:
 605:..\common\ud3core\helper/printf.c ****           }
 1246              		.loc 1 605 0 is_stmt 1 discriminator 5
 1247 02a2 0D99     		ldr	r1, [sp, #52]
 1248 02a4 0293     		str	r3, [sp, #8]
 1249 02a6 002A     		cmp	r2, #0
 1250 02a8 4FEAD273 		lsr	r3, r2, #31
 604:..\common\ud3core\helper/printf.c ****             idx = _ntoa_long(out, buffer, idx, maxlen, (unsigned int)(value > 0 ? value : 0 - value
 1251              		.loc 1 604 0 discriminator 5
 1252 02ac B846     		mov	r8, r7
 1253              	.LVL174:
 605:..\common\ud3core\helper/printf.c ****           }
 1254              		.loc 1 605 0 discriminator 5
 1255 02ae 0594     		str	r4, [sp, #20]
 1256 02b0 0491     		str	r1, [sp, #16]
 1257 02b2 CDF80C90 		str	r9, [sp, #12]
 1258 02b6 0193     		str	r3, [sp, #4]
 1259 02b8 B8BF     		it	lt
 1260 02ba 5242     		rsblt	r2, r2, #0
 1261              	.LVL175:
 1262 02bc 47E0     		b	.L346
 1263              	.L364:
 1264 02be 00BF     		.align	2
 1265              	.L363:
 1266 02c0 00000000 		.word	_out_null
 1267              	.L150:
 1268              	.LBE58:
 610:..\common\ud3core\helper/printf.c **** #if defined(PRINTF_SUPPORT_LONG_LONG)
 1269              		.loc 1 610 0
 1270 02c4 C2B1     		cbz	r2, .L158
 612:..\common\ud3core\helper/printf.c **** #endif
 1271              		.loc 1 612 0
 1272 02c6 0D99     		ldr	r1, [sp, #52]
 1273 02c8 08F10708 		add	r8, r8, #7
 1274 02cc 0791     		str	r1, [sp, #28]
 1275 02ce 0021     		movs	r1, #0
 1276 02d0 28F00702 		bic	r2, r8, #7
 1277 02d4 0894     		str	r4, [sp, #32]
 1278 02d6 CDF81890 		str	r9, [sp, #24]
 1279 02da 0493     		str	r3, [sp, #16]
 1280 02dc 0591     		str	r1, [sp, #20]
 1281 02de 0291     		str	r1, [sp, #8]
 1282 02e0 02F10808 		add	r8, r2, #8
ARM GAS  C:\Users\chemi\AppData\Local\Temp\ccvd4c4w.s 			page 39


 1283 02e4 0CCA     		ldmia	r2, {r2-r3}
 1284              	.L352:
 1285 02e6 CDE90023 		strd	r2, [sp]
 1286 02ea 0E99     		ldr	r1, [sp, #56]
 1287 02ec 0C9B     		ldr	r3, [sp, #48]
 1288 02ee 2A46     		mov	r2, r5
 1289 02f0 0F98     		ldr	r0, [sp, #60]
 1290 02f2 FFF7FEFF 		bl	_ntoa_long_long
 1291              	.LVL176:
 1292 02f6 31E0     		b	.L345
 1293              	.L158:
 615:..\common\ud3core\helper/printf.c ****             idx = _ntoa_long(out, buffer, idx, maxlen, va_arg(va, unsigned long), false, base, prec
 1294              		.loc 1 615 0
 1295 02f8 14F4807F 		tst	r4, #256
 1296 02fc 08F10407 		add	r7, r8, #4
 1297 0300 12D0     		beq	.L159
 616:..\common\ud3core\helper/printf.c ****           }
 1298              		.loc 1 616 0
 1299 0302 0D99     		ldr	r1, [sp, #52]
 1300 0304 0594     		str	r4, [sp, #20]
 1301 0306 0491     		str	r1, [sp, #16]
 1302 0308 CDF80C90 		str	r9, [sp, #12]
 1303 030c 0293     		str	r3, [sp, #8]
 1304 030e 0192     		str	r2, [sp, #4]
 1305 0310 D8F80030 		ldr	r3, [r8]
 1306 0314 0093     		str	r3, [sp]
 1307              	.L347:
 1308 0316 2A46     		mov	r2, r5
 1309 0318 0C9B     		ldr	r3, [sp, #48]
 1310 031a 0E99     		ldr	r1, [sp, #56]
 1311 031c 0F98     		ldr	r0, [sp, #60]
 1312 031e FFF7FEFF 		bl	_ntoa_long
 1313              	.LVL177:
 1314 0322 B846     		mov	r8, r7
 1315 0324 0546     		mov	r5, r0
 1316              	.LVL178:
 1317 0326 1AE0     		b	.L153
 1318              	.LVL179:
 1319              	.L159:
 1320              	.LBB59:
 619:..\common\ud3core\helper/printf.c ****             idx = _ntoa_long(out, buffer, idx, maxlen, value, false, base, precision, width, flags)
 1321              		.loc 1 619 0
 1322 0328 14F0400F 		tst	r4, #64
 1323 032c D8F80020 		ldr	r2, [r8]
 1324 0330 01D0     		beq	.L160
 619:..\common\ud3core\helper/printf.c ****             idx = _ntoa_long(out, buffer, idx, maxlen, value, false, base, precision, width, flags)
 1325              		.loc 1 619 0 is_stmt 0 discriminator 1
 1326 0332 D2B2     		uxtb	r2, r2
 1327 0334 02E0     		b	.L162
 1328              	.L160:
 619:..\common\ud3core\helper/printf.c ****             idx = _ntoa_long(out, buffer, idx, maxlen, value, false, base, precision, width, flags)
 1329              		.loc 1 619 0 discriminator 2
 1330 0336 2006     		lsls	r0, r4, #24
 1331 0338 48BF     		it	mi
 1332 033a 92B2     		uxthmi	r2, r2
 1333              	.L162:
 619:..\common\ud3core\helper/printf.c ****             idx = _ntoa_long(out, buffer, idx, maxlen, value, false, base, precision, width, flags)
ARM GAS  C:\Users\chemi\AppData\Local\Temp\ccvd4c4w.s 			page 40


 1334              		.loc 1 619 0 discriminator 5
 1335 033c B846     		mov	r8, r7
 1336              	.LVL180:
 620:..\common\ud3core\helper/printf.c ****           }
 1337              		.loc 1 620 0 is_stmt 1 discriminator 5
 1338 033e 0D99     		ldr	r1, [sp, #52]
 1339 0340 0293     		str	r3, [sp, #8]
 1340 0342 0023     		movs	r3, #0
 1341 0344 0594     		str	r4, [sp, #20]
 1342 0346 0491     		str	r1, [sp, #16]
 1343 0348 CDF80C90 		str	r9, [sp, #12]
 1344 034c 0193     		str	r3, [sp, #4]
 1345              	.LVL181:
 1346              	.L346:
 620:..\common\ud3core\helper/printf.c ****           }
 1347              		.loc 1 620 0 is_stmt 0 discriminator 8
 1348 034e 0092     		str	r2, [sp]
 1349 0350 0C9B     		ldr	r3, [sp, #48]
 1350 0352 2A46     		mov	r2, r5
 1351 0354 0E99     		ldr	r1, [sp, #56]
 1352 0356 0F98     		ldr	r0, [sp, #60]
 1353 0358 FFF7FEFF 		bl	_ntoa_long
 1354              	.LVL182:
 1355              	.L345:
 1356 035c 0546     		mov	r5, r0
 1357              	.LVL183:
 1358              	.L153:
 1359              	.LBE59:
 623:..\common\ud3core\helper/printf.c ****         break;
 1360              		.loc 1 623 0 is_stmt 1
 1361 035e 0B9B     		ldr	r3, [sp, #44]
 1362 0360 0133     		adds	r3, r3, #1
 1363              	.LVL184:
 624:..\common\ud3core\helper/printf.c ****       }
 1364              		.loc 1 624 0
 1365 0362 5AE6     		b	.L106
 1366              	.LVL185:
 1367              	.L135:
 1368              	.LBE67:
 629:..\common\ud3core\helper/printf.c ****         format++;
 1369              		.loc 1 629 0
 1370 0364 08F10708 		add	r8, r8, #7
 1371 0368 28F00703 		bic	r3, r8, #7
 1372              	.LVL186:
 1373 036c 03F10808 		add	r8, r3, #8
 1374 0370 D3E90023 		ldrd	r2, [r3]
 1375 0374 CDE91023 		strd	r2, [sp, #64]
 1376              	.LVL187:
 1377              	.LBB68:
 1378              	.LBB69:
 319:..\common\ud3core\helper/printf.c ****     negative = true;
 1379              		.loc 1 319 0
 1380 0378 DDE91001 		ldrd	r0, [sp, #64]
 1381 037c 0022     		movs	r2, #0
 1382              	.LVL188:
 1383 037e 0023     		movs	r3, #0
 1384 0380 FFF7FEFF 		bl	__aeabi_dcmplt
ARM GAS  C:\Users\chemi\AppData\Local\Temp\ccvd4c4w.s 			page 41


 1385              	.LVL189:
 1386 0384 50B1     		cbz	r0, .L337
 1387              	.LVL190:
 321:..\common\ud3core\helper/printf.c ****   }
 1388              		.loc 1 321 0
 1389 0386 DDE91023 		ldrd	r2, [sp, #64]
 1390 038a 0020     		movs	r0, #0
 1391 038c 0021     		movs	r1, #0
 1392 038e FFF7FEFF 		bl	__aeabi_dsub
 1393              	.LVL191:
 320:..\common\ud3core\helper/printf.c ****     value = 0 - value;
 1394              		.loc 1 320 0
 1395 0392 0123     		movs	r3, #1
 321:..\common\ud3core\helper/printf.c ****   }
 1396              		.loc 1 321 0
 1397 0394 CDE91001 		strd	r0, [sp, #64]
 1398              	.LVL192:
 320:..\common\ud3core\helper/printf.c ****     value = 0 - value;
 1399              		.loc 1 320 0
 1400 0398 1E46     		mov	r6, r3
 1401 039a 00E0     		b	.L163
 1402              	.LVL193:
 1403              	.L337:
 318:..\common\ud3core\helper/printf.c ****   if (value < 0) {
 1404              		.loc 1 318 0
 1405 039c 0646     		mov	r6, r0
 1406              	.LVL194:
 1407              	.L163:
 326:..\common\ud3core\helper/printf.c ****   }
 1408              		.loc 1 326 0
 1409 039e 14F4806F 		tst	r4, #1024
 1410 03a2 08BF     		it	eq
 1411 03a4 4FF00609 		moveq	r9, #6
 1412 03a8 0027     		movs	r7, #0
 330:..\common\ud3core\helper/printf.c ****     prec--;
 1413              		.loc 1 330 0
 1414 03aa 3023     		movs	r3, #48
 1415              	.LVL195:
 1416              	.L166:
 329:..\common\ud3core\helper/printf.c ****     buf[len++] = '0';
 1417              		.loc 1 329 0
 1418 03ac B9F1090F 		cmp	r9, #9
 1419 03b0 06D9     		bls	.L167
 330:..\common\ud3core\helper/printf.c ****     prec--;
 1420              		.loc 1 330 0
 1421 03b2 16AA     		add	r2, sp, #88
 1422 03b4 BB54     		strb	r3, [r7, r2]
 1423              	.LVL196:
 1424 03b6 0137     		adds	r7, r7, #1
 329:..\common\ud3core\helper/printf.c ****     buf[len++] = '0';
 1425              		.loc 1 329 0
 1426 03b8 202F     		cmp	r7, #32
 331:..\common\ud3core\helper/printf.c ****   }
 1427              		.loc 1 331 0
 1428 03ba 09F1FF39 		add	r9, r9, #-1
 1429              	.LVL197:
 329:..\common\ud3core\helper/printf.c ****     buf[len++] = '0';
ARM GAS  C:\Users\chemi\AppData\Local\Temp\ccvd4c4w.s 			page 42


 1430              		.loc 1 329 0
 1431 03be F5D1     		bne	.L166
 1432              	.LVL198:
 1433              	.L167:
 334:..\common\ud3core\helper/printf.c ****   double tmp = (value - whole) * pow10[prec];
 1434              		.loc 1 334 0
 1435 03c0 DDE91001 		ldrd	r0, [sp, #64]
 1436 03c4 FFF7FEFF 		bl	__aeabi_d2iz
 1437              	.LVL199:
 335:..\common\ud3core\helper/printf.c ****   unsigned long frac = (unsigned long)tmp;
 1438              		.loc 1 335 0
 1439 03c8 AB4B     		ldr	r3, .L365+8
 334:..\common\ud3core\helper/printf.c ****   double tmp = (value - whole) * pow10[prec];
 1440              		.loc 1 334 0
 1441 03ca 8346     		mov	fp, r0
 1442              	.LVL200:
 335:..\common\ud3core\helper/printf.c ****   unsigned long frac = (unsigned long)tmp;
 1443              		.loc 1 335 0
 1444 03cc 03EBC903 		add	r3, r3, r9, lsl #3
 1445 03d0 D3E90023 		ldrd	r2, [r3]
 1446 03d4 CDE91223 		strd	r2, [sp, #72]
 1447 03d8 FFF7FEFF 		bl	__aeabi_i2d
 1448              	.LVL201:
 1449 03dc 0246     		mov	r2, r0
 1450 03de 0B46     		mov	r3, r1
 1451 03e0 DDE91001 		ldrd	r0, [sp, #64]
 1452 03e4 FFF7FEFF 		bl	__aeabi_dsub
 1453              	.LVL202:
 1454 03e8 DDE91223 		ldrd	r2, [sp, #72]
 1455 03ec FFF7FEFF 		bl	__aeabi_dmul
 1456              	.LVL203:
 1457 03f0 CDE91401 		strd	r0, [sp, #80]
 1458              	.LVL204:
 336:..\common\ud3core\helper/printf.c ****   diff = tmp - frac;
 1459              		.loc 1 336 0
 1460 03f4 FFF7FEFF 		bl	__aeabi_d2uiz
 1461              	.LVL205:
 1462 03f8 8246     		mov	r10, r0
 1463              	.LVL206:
 337:..\common\ud3core\helper/printf.c **** 
 1464              		.loc 1 337 0
 1465 03fa FFF7FEFF 		bl	__aeabi_ui2d
 1466              	.LVL207:
 1467 03fe 0246     		mov	r2, r0
 1468 0400 0B46     		mov	r3, r1
 1469 0402 DDE91401 		ldrd	r0, [sp, #80]
 1470 0406 FFF7FEFF 		bl	__aeabi_dsub
 1471              	.LVL208:
 339:..\common\ud3core\helper/printf.c ****     ++frac;
 1472              		.loc 1 339 0
 1473 040a 0022     		movs	r2, #0
 1474 040c 9B4B     		ldr	r3, .L365+12
 337:..\common\ud3core\helper/printf.c **** 
 1475              		.loc 1 337 0
 1476 040e CDE91401 		strd	r0, [sp, #80]
 1477              	.LVL209:
 339:..\common\ud3core\helper/printf.c ****     ++frac;
ARM GAS  C:\Users\chemi\AppData\Local\Temp\ccvd4c4w.s 			page 43


 1478              		.loc 1 339 0
 1479 0412 FFF7FEFF 		bl	__aeabi_dcmpgt
 1480              	.LVL210:
 1481 0416 80B1     		cbz	r0, .L338
 340:..\common\ud3core\helper/printf.c ****     // handle rollover, e.g. case 0.99 with prec 1 is 1.0
 1482              		.loc 1 340 0
 1483 0418 0AF1010A 		add	r10, r10, #1
 1484              	.LVL211:
 342:..\common\ud3core\helper/printf.c ****       frac = 0;
 1485              		.loc 1 342 0
 1486 041c 5046     		mov	r0, r10
 1487 041e FFF7FEFF 		bl	__aeabi_ui2d
 1488              	.LVL212:
 1489 0422 0246     		mov	r2, r0
 1490 0424 0B46     		mov	r3, r1
 1491 0426 DDE91201 		ldrd	r0, [sp, #72]
 1492 042a FFF7FEFF 		bl	__aeabi_dcmple
 1493              	.LVL213:
 1494 042e 98B1     		cbz	r0, .L171
 1495              	.LVL214:
 344:..\common\ud3core\helper/printf.c ****     }
 1496              		.loc 1 344 0
 1497 0430 0BF1010B 		add	fp, fp, #1
 1498              	.LVL215:
 343:..\common\ud3core\helper/printf.c ****       ++whole;
 1499              		.loc 1 343 0
 1500 0434 4FF0000A 		mov	r10, #0
 1501 0438 0EE0     		b	.L171
 1502              	.LVL216:
 1503              	.L338:
 347:..\common\ud3core\helper/printf.c ****     // if halfway, round up if odd, OR if last digit is 0
 1504              		.loc 1 347 0
 1505 043a 0022     		movs	r2, #0
 1506 043c 8F4B     		ldr	r3, .L365+12
 1507 043e DDE91401 		ldrd	r0, [sp, #80]
 1508 0442 FFF7FEFF 		bl	__aeabi_dcmpeq
 1509              	.LVL217:
 1510 0446 38B1     		cbz	r0, .L171
 1511 0448 BAF1000F 		cmp	r10, #0
 1512 044c 02D0     		beq	.L174
 1513 044e 1AF0010F 		tst	r10, #1
 1514 0452 01D0     		beq	.L171
 1515              	.L174:
 349:..\common\ud3core\helper/printf.c ****   }
 1516              		.loc 1 349 0
 1517 0454 0AF1010A 		add	r10, r10, #1
 1518              	.LVL218:
 1519              	.L171:
 354:..\common\ud3core\helper/printf.c ****     return 0U;
 1520              		.loc 1 354 0
 1521 0458 85A3     		adr	r3, .L365
 1522 045a D3E90023 		ldrd	r2, [r3]
 1523 045e DDE91001 		ldrd	r0, [sp, #64]
 1524 0462 FFF7FEFF 		bl	__aeabi_dcmpgt
 1525              	.LVL219:
 1526 0466 0028     		cmp	r0, #0
 1527 0468 40F0C580 		bne	.L247
ARM GAS  C:\Users\chemi\AppData\Local\Temp\ccvd4c4w.s 			page 44


 358:..\common\ud3core\helper/printf.c ****     diff = value - (double)whole;
 1528              		.loc 1 358 0
 1529 046c B9F1000F 		cmp	r9, #0
 1530 0470 1CD1     		bne	.L176
 359:..\common\ud3core\helper/printf.c ****     if (diff > 0.5) {
 1531              		.loc 1 359 0
 1532 0472 5846     		mov	r0, fp
 1533 0474 FFF7FEFF 		bl	__aeabi_i2d
 1534              	.LVL220:
 1535 0478 0246     		mov	r2, r0
 1536 047a 0B46     		mov	r3, r1
 1537 047c DDE91001 		ldrd	r0, [sp, #64]
 1538 0480 FFF7FEFF 		bl	__aeabi_dsub
 1539              	.LVL221:
 360:..\common\ud3core\helper/printf.c ****       // greater than 0.5, round up, e.g. 1.6 -> 2
 1540              		.loc 1 360 0
 1541 0484 0022     		movs	r2, #0
 1542 0486 7D4B     		ldr	r3, .L365+12
 359:..\common\ud3core\helper/printf.c ****     if (diff > 0.5) {
 1543              		.loc 1 359 0
 1544 0488 8146     		mov	r9, r0
 1545 048a 8A46     		mov	r10, r1
 1546              	.LVL222:
 360:..\common\ud3core\helper/printf.c ****       // greater than 0.5, round up, e.g. 1.6 -> 2
 1547              		.loc 1 360 0
 1548 048c FFF7FEFF 		bl	__aeabi_dcmpgt
 1549              	.LVL223:
 1550 0490 48B9     		cbnz	r0, .L348
 364:..\common\ud3core\helper/printf.c ****       // exactly 0.5 and ODD, then round up
 1551              		.loc 1 364 0
 1552 0492 0022     		movs	r2, #0
 1553 0494 794B     		ldr	r3, .L365+12
 1554 0496 4846     		mov	r0, r9
 1555 0498 5146     		mov	r1, r10
 1556 049a FFF7FEFF 		bl	__aeabi_dcmpeq
 1557              	.LVL224:
 1558 049e 48B3     		cbz	r0, .L179
 1559 04a0 1BF0010F 		tst	fp, #1
 1560 04a4 26D0     		beq	.L179
 1561              	.L348:
 367:..\common\ud3core\helper/printf.c ****     }
 1562              		.loc 1 367 0
 1563 04a6 0BF1010B 		add	fp, fp, #1
 1564              	.LVL225:
 1565 04aa 23E0     		b	.L179
 1566              	.LVL226:
 1567              	.L176:
 1568              	.LBB70:
 375:..\common\ud3core\helper/printf.c ****       if (!(frac /= 10U)) {
 1569              		.loc 1 375 0
 1570 04ac 0A23     		movs	r3, #10
 1571              	.L181:
 1572              	.LVL227:
 373:..\common\ud3core\helper/printf.c ****       --count;
 1573              		.loc 1 373 0
 1574 04ae 202F     		cmp	r7, #32
 1575 04b0 32D0     		beq	.L190
ARM GAS  C:\Users\chemi\AppData\Local\Temp\ccvd4c4w.s 			page 45


 1576              	.LVL228:
 375:..\common\ud3core\helper/printf.c ****       if (!(frac /= 10U)) {
 1577              		.loc 1 375 0
 1578 04b2 16AA     		add	r2, sp, #88
 1579 04b4 0137     		adds	r7, r7, #1
 1580 04b6 D119     		adds	r1, r2, r7
 1581 04b8 BAFBF3F2 		udiv	r2, r10, r3
 1582 04bc 03FB12AA 		mls	r10, r3, r2, r10
 1583              	.LVL229:
 1584 04c0 0AF1300A 		add	r10, r10, #48
 1585 04c4 01F801AC 		strb	r10, [r1, #-1]
 374:..\common\ud3core\helper/printf.c ****       buf[len++] = (char)(48U + (frac % 10U));
 1586              		.loc 1 374 0
 1587 04c8 09F1FF39 		add	r9, r9, #-1
 1588              	.LVL230:
 376:..\common\ud3core\helper/printf.c ****         break;
 1589              		.loc 1 376 0
 1590 04cc 9246     		mov	r10, r2
 1591 04ce 002A     		cmp	r2, #0
 1592 04d0 EDD1     		bne	.L181
 1593 04d2 B944     		add	r9, r9, r7
 1594              	.LVL231:
 382:..\common\ud3core\helper/printf.c ****     }
 1595              		.loc 1 382 0
 1596 04d4 3023     		movs	r3, #48
 1597              	.LVL232:
 1598              	.L182:
 381:..\common\ud3core\helper/printf.c ****       buf[len++] = '0';
 1599              		.loc 1 381 0
 1600 04d6 202F     		cmp	r7, #32
 1601 04d8 1ED0     		beq	.L190
 1602 04da B945     		cmp	r9, r7
 1603 04dc 03D0     		beq	.L356
 1604              	.LVL233:
 382:..\common\ud3core\helper/printf.c ****     }
 1605              		.loc 1 382 0
 1606 04de 16AA     		add	r2, sp, #88
 1607 04e0 BB54     		strb	r3, [r7, r2]
 1608 04e2 0137     		adds	r7, r7, #1
 1609              	.LVL234:
 1610 04e4 F7E7     		b	.L182
 1611              	.L356:
 386:..\common\ud3core\helper/printf.c ****     }
 1612              		.loc 1 386 0
 1613 04e6 1EAB     		add	r3, sp, #120
 1614 04e8 09F10107 		add	r7, r9, #1
 1615              	.LVL235:
 1616 04ec 9944     		add	r9, r9, r3
 1617 04ee 2E23     		movs	r3, #46
 1618 04f0 09F8203C 		strb	r3, [r9, #-32]
 1619              	.LVL236:
 1620              	.L179:
 1621              	.LBE70:
 392:..\common\ud3core\helper/printf.c ****     if (!(whole /= 10)) {
 1622              		.loc 1 392 0
 1623 04f4 0A23     		movs	r3, #10
 1624              	.L188:
ARM GAS  C:\Users\chemi\AppData\Local\Temp\ccvd4c4w.s 			page 46


 391:..\common\ud3core\helper/printf.c ****     buf[len++] = (char)(48 + (whole % 10));
 1625              		.loc 1 391 0
 1626 04f6 202F     		cmp	r7, #32
 1627 04f8 0ED0     		beq	.L190
 1628              	.LVL237:
 392:..\common\ud3core\helper/printf.c ****     if (!(whole /= 10)) {
 1629              		.loc 1 392 0
 1630 04fa 16AA     		add	r2, sp, #88
 1631 04fc 0137     		adds	r7, r7, #1
 1632              	.LVL238:
 1633 04fe D119     		adds	r1, r2, r7
 1634 0500 9BFBF3F2 		sdiv	r2, fp, r3
 1635              	.LVL239:
 1636 0504 03FB12BB 		mls	fp, r3, r2, fp
 1637 0508 0BF1300B 		add	fp, fp, #48
 1638 050c 01F801BC 		strb	fp, [r1, #-1]
 393:..\common\ud3core\helper/printf.c ****       break;
 1639              		.loc 1 393 0
 1640 0510 9346     		mov	fp, r2
 1641 0512 002A     		cmp	r2, #0
 1642 0514 EFD1     		bne	.L188
 1643 0516 00E0     		b	.L187
 1644              	.LVL240:
 1645              	.L190:
 1646              	.LBB71:
 375:..\common\ud3core\helper/printf.c ****       if (!(frac /= 10U)) {
 1647              		.loc 1 375 0
 1648 0518 2027     		movs	r7, #32
 1649              	.L187:
 1650              	.LBE71:
 399:..\common\ud3core\helper/printf.c ****     while ((len < width) && (len < PRINTF_FTOA_BUFFER_SIZE)) {
 1651              		.loc 1 399 0
 1652 051a 04F00303 		and	r3, r4, #3
 1653 051e 012B     		cmp	r3, #1
 1654 0520 09D1     		bne	.L191
 401:..\common\ud3core\helper/printf.c ****     }
 1655              		.loc 1 401 0
 1656 0522 3022     		movs	r2, #48
 1657              	.L192:
 400:..\common\ud3core\helper/printf.c ****       buf[len++] = '0';
 1658              		.loc 1 400 0
 1659 0524 0D99     		ldr	r1, [sp, #52]
 1660 0526 B942     		cmp	r1, r7
 1661 0528 05D9     		bls	.L191
 1662 052a 202F     		cmp	r7, #32
 1663 052c 39D0     		beq	.L357
 401:..\common\ud3core\helper/printf.c ****     }
 1664              		.loc 1 401 0
 1665 052e 16A9     		add	r1, sp, #88
 1666 0530 7A54     		strb	r2, [r7, r1]
 1667 0532 0137     		adds	r7, r7, #1
 1668 0534 F6E7     		b	.L192
 1669              	.L191:
 406:..\common\ud3core\helper/printf.c ****     len--;
 1670              		.loc 1 406 0
 1671 0536 0D9A     		ldr	r2, [sp, #52]
 1672 0538 BA42     		cmp	r2, r7
ARM GAS  C:\Users\chemi\AppData\Local\Temp\ccvd4c4w.s 			page 47


 1673 053a 06D1     		bne	.L195
 1674              	.L234:
 1675 053c 16B9     		cbnz	r6, .L196
 1676 053e 14F00C0F 		tst	r4, #12
 1677 0542 09D0     		beq	.L197
 1678              	.L196:
 407:..\common\ud3core\helper/printf.c ****   }
 1679              		.loc 1 407 0
 1680 0544 0D9A     		ldr	r2, [sp, #52]
 1681 0546 571E     		subs	r7, r2, #1
 1682              	.LVL241:
 1683 0548 01E0     		b	.L198
 1684              	.LVL242:
 1685              	.L195:
 409:..\common\ud3core\helper/printf.c ****     if (negative) {
 1686              		.loc 1 409 0
 1687 054a 1F2F     		cmp	r7, #31
 1688 054c 15D8     		bhi	.L248
 1689              	.L198:
 410:..\common\ud3core\helper/printf.c ****       buf[len++] = '-';
 1690              		.loc 1 410 0
 1691 054e 2EB1     		cbz	r6, .L200
 1692              	.LVL243:
 411:..\common\ud3core\helper/printf.c ****     }
 1693              		.loc 1 411 0
 1694 0550 1EAA     		add	r2, sp, #120
 1695 0552 3A44     		add	r2, r2, r7
 1696 0554 2D21     		movs	r1, #45
 1697 0556 0CE0     		b	.L349
 1698              	.LVL244:
 1699              	.L197:
 409:..\common\ud3core\helper/printf.c ****     if (negative) {
 1700              		.loc 1 409 0
 1701 0558 202F     		cmp	r7, #32
 1702 055a 0FD0     		beq	.L199
 1703              	.L200:
 413:..\common\ud3core\helper/printf.c ****       buf[len++] = '+';  // ignore the space if the '+' exists
 1704              		.loc 1 413 0
 1705 055c 6107     		lsls	r1, r4, #29
 1706 055e 03D5     		bpl	.L201
 1707              	.LVL245:
 414:..\common\ud3core\helper/printf.c ****     }
 1708              		.loc 1 414 0
 1709 0560 1EAA     		add	r2, sp, #120
 1710 0562 3A44     		add	r2, r2, r7
 1711 0564 2B21     		movs	r1, #43
 1712 0566 04E0     		b	.L349
 1713              	.LVL246:
 1714              	.L201:
 416:..\common\ud3core\helper/printf.c ****       buf[len++] = ' ';
 1715              		.loc 1 416 0
 1716 0568 2207     		lsls	r2, r4, #28
 1717 056a 07D5     		bpl	.L199
 1718              	.LVL247:
 417:..\common\ud3core\helper/printf.c ****     }
 1719              		.loc 1 417 0
 1720 056c 1EAA     		add	r2, sp, #120
ARM GAS  C:\Users\chemi\AppData\Local\Temp\ccvd4c4w.s 			page 48


 1721 056e 3A44     		add	r2, r2, r7
 1722 0570 2021     		movs	r1, #32
 1723              	.LVL248:
 1724              	.L349:
 1725 0572 02F8201C 		strb	r1, [r2, #-32]
 1726 0576 0137     		adds	r7, r7, #1
 1727 0578 00E0     		b	.L199
 1728              	.L248:
 1729              	.LVL249:
 409:..\common\ud3core\helper/printf.c ****     if (negative) {
 1730              		.loc 1 409 0
 1731 057a 2027     		movs	r7, #32
 1732              	.LVL250:
 1733              	.L199:
 422:..\common\ud3core\helper/printf.c ****     for (size_t i = len; i < width; i++) {
 1734              		.loc 1 422 0
 1735 057c A946     		mov	r9, r5
 1736 057e A3B9     		cbnz	r3, .L202
 1737 0580 C5EB070A 		rsb	r10, r5, r7
 1738              	.LVL251:
 1739              	.L203:
 1740              	.LBB72:
 423:..\common\ud3core\helper/printf.c ****       out(' ', buffer, idx++, maxlen);
 1741              		.loc 1 423 0
 1742 0584 0D9A     		ldr	r2, [sp, #52]
 1743 0586 09EB0A03 		add	r3, r9, r10
 1744 058a 9A42     		cmp	r2, r3
 1745 058c 0DD9     		bls	.L202
 424:..\common\ud3core\helper/printf.c ****     }
 1746              		.loc 1 424 0
 1747 058e 4A46     		mov	r2, r9
 1748 0590 09F1010B 		add	fp, r9, #1
 1749              	.LVL252:
 1750 0594 0C9B     		ldr	r3, [sp, #48]
 1751 0596 0E99     		ldr	r1, [sp, #56]
 1752 0598 2020     		movs	r0, #32
 1753 059a 0F9E     		ldr	r6, [sp, #60]
 1754 059c B047     		blx	r6
 1755              	.LVL253:
 1756 059e D946     		mov	r9, fp
 1757 05a0 F0E7     		b	.L203
 1758              	.LVL254:
 1759              	.L357:
 1760              	.LBE72:
 406:..\common\ud3core\helper/printf.c ****     len--;
 1761              		.loc 1 406 0
 1762 05a2 0D9A     		ldr	r2, [sp, #52]
 1763 05a4 202A     		cmp	r2, #32
 1764 05a6 C9D0     		beq	.L234
 1765 05a8 A946     		mov	r9, r5
 1766              	.LVL255:
 1767              	.L202:
 1768 05aa 07F1FF3B 		add	fp, r7, #-1
 1769 05ae 16AB     		add	r3, sp, #88
 1770 05b0 03EB0B0A 		add	r10, r3, fp
 1771 05b4 1093     		str	r3, [sp, #64]
 1772              	.LVL256:
ARM GAS  C:\Users\chemi\AppData\Local\Temp\ccvd4c4w.s 			page 49


 1773 05b6 CB44     		add	fp, fp, r9
 1774              	.LVL257:
 1775              	.L205:
 1776 05b8 109B     		ldr	r3, [sp, #64]
 1777 05ba CAEB0B02 		rsb	r2, r10, fp
 1778 05be 1A44     		add	r2, r2, r3
 1779              	.LVL258:
 1780              	.LBB73:
 429:..\common\ud3core\helper/printf.c ****     out(buf[len - i - 1U], buffer, idx++, maxlen);
 1781              		.loc 1 429 0
 1782 05c0 0DF15703 		add	r3, sp, #87
 1783 05c4 5345     		cmp	r3, r10
 1784 05c6 06D0     		beq	.L358
 1785              	.LVL259:
 430:..\common\ud3core\helper/printf.c ****   }
 1786              		.loc 1 430 0
 1787 05c8 0C9B     		ldr	r3, [sp, #48]
 1788 05ca 0E99     		ldr	r1, [sp, #56]
 1789 05cc 1AF80109 		ldrb	r0, [r10], #-1	@ zero_extendqisi2
 1790 05d0 0F9E     		ldr	r6, [sp, #60]
 1791 05d2 B047     		blx	r6
 1792              	.LVL260:
 1793 05d4 F0E7     		b	.L205
 1794              	.LVL261:
 1795              	.L358:
 1796              	.LBE73:
 434:..\common\ud3core\helper/printf.c ****     while (idx - start_idx < width) {
 1797              		.loc 1 434 0
 1798 05d6 A307     		lsls	r3, r4, #30
 1799 05d8 07EB0902 		add	r2, r7, r9
 1800              	.LVL262:
 1801 05dc 0CD5     		bpl	.L175
 1802              	.LVL263:
 1803              	.L207:
 435:..\common\ud3core\helper/printf.c ****       out(' ', buffer, idx++, maxlen);
 1804              		.loc 1 435 0
 1805 05de 0D99     		ldr	r1, [sp, #52]
 1806 05e0 531B     		subs	r3, r2, r5
 1807 05e2 9942     		cmp	r1, r3
 1808 05e4 08D9     		bls	.L175
 436:..\common\ud3core\helper/printf.c ****     }
 1809              		.loc 1 436 0
 1810 05e6 541C     		adds	r4, r2, #1
 1811              	.LVL264:
 1812 05e8 0C9B     		ldr	r3, [sp, #48]
 1813 05ea 0E99     		ldr	r1, [sp, #56]
 1814 05ec 2020     		movs	r0, #32
 1815 05ee 0F9E     		ldr	r6, [sp, #60]
 1816 05f0 B047     		blx	r6
 1817              	.LVL265:
 1818 05f2 2246     		mov	r2, r4
 1819 05f4 F3E7     		b	.L207
 1820              	.LVL266:
 1821              	.L247:
 355:..\common\ud3core\helper/printf.c ****   }
 1822              		.loc 1 355 0
 1823 05f6 0022     		movs	r2, #0
ARM GAS  C:\Users\chemi\AppData\Local\Temp\ccvd4c4w.s 			page 50


 1824              	.LVL267:
 1825              	.L175:
 1826              	.LBE69:
 1827              	.LBE68:
 630:..\common\ud3core\helper/printf.c ****         break;
 1828              		.loc 1 630 0
 1829 05f8 0B9B     		ldr	r3, [sp, #44]
 629:..\common\ud3core\helper/printf.c ****         format++;
 1830              		.loc 1 629 0
 1831 05fa 1546     		mov	r5, r2
 1832              	.LVL268:
 630:..\common\ud3core\helper/printf.c ****         break;
 1833              		.loc 1 630 0
 1834 05fc 0133     		adds	r3, r3, #1
 1835              	.LVL269:
 631:..\common\ud3core\helper/printf.c **** #endif  // PRINTF_SUPPORT_FLOAT
 1836              		.loc 1 631 0
 1837 05fe 0CE5     		b	.L106
 1838              	.LVL270:
 1839              	.L140:
 1840              	.LBB74:
 636:..\common\ud3core\helper/printf.c ****           while (l++ < width) {
 1841              		.loc 1 636 0
 1842 0600 14F00204 		ands	r4, r4, #2
 1843              	.LVL271:
 1844 0604 11D1     		bne	.L250
 1845 0606 A146     		mov	r9, r4
 1846              	.LVL272:
 1847              	.L210:
 637:..\common\ud3core\helper/printf.c ****             out(' ', buffer, idx++, maxlen);
 1848              		.loc 1 637 0
 1849 0608 0D9B     		ldr	r3, [sp, #52]
 1850 060a 05EB0902 		add	r2, r5, r9
 1851              	.LVL273:
 1852 060e 09F10207 		add	r7, r9, #2
 1853              	.LVL274:
 1854 0612 09F10109 		add	r9, r9, #1
 1855 0616 4B45     		cmp	r3, r9
 1856 0618 05D9     		bls	.L359
 1857              	.LVL275:
 638:..\common\ud3core\helper/printf.c ****           }
 1858              		.loc 1 638 0
 1859 061a 0C9B     		ldr	r3, [sp, #48]
 1860 061c 0E99     		ldr	r1, [sp, #56]
 1861 061e 2020     		movs	r0, #32
 1862 0620 0F9E     		ldr	r6, [sp, #60]
 1863 0622 B047     		blx	r6
 1864              	.LVL276:
 1865 0624 F0E7     		b	.L210
 1866              	.LVL277:
 1867              	.L359:
 1868 0626 1546     		mov	r5, r2
 1869 0628 00E0     		b	.L209
 1870              	.LVL278:
 1871              	.L250:
 634:..\common\ud3core\helper/printf.c ****         // pre padding
 1872              		.loc 1 634 0
ARM GAS  C:\Users\chemi\AppData\Local\Temp\ccvd4c4w.s 			page 51


 1873 062a 0127     		movs	r7, #1
 1874              	.LVL279:
 1875              	.L209:
 642:..\common\ud3core\helper/printf.c ****         // post padding
 1876              		.loc 1 642 0
 1877 062c 0C9B     		ldr	r3, [sp, #48]
 1878 062e 2A46     		mov	r2, r5
 1879 0630 0E99     		ldr	r1, [sp, #56]
 1880 0632 98F80000 		ldrb	r0, [r8]	@ zero_extendqisi2
 1881 0636 0F9E     		ldr	r6, [sp, #60]
 1882 0638 08F1040A 		add	r10, r8, #4
 1883 063c 05F10109 		add	r9, r5, #1
 1884              	.LVL280:
 1885 0640 B047     		blx	r6
 1886              	.LVL281:
 644:..\common\ud3core\helper/printf.c ****           while (l++ < width) {
 1887              		.loc 1 644 0
 1888 0642 84B1     		cbz	r4, .L212
 1889 0644 013F     		subs	r7, r7, #1
 1890              	.LVL282:
 1891 0646 7D1B     		subs	r5, r7, r5
 1892              	.LVL283:
 1893              	.L213:
 645:..\common\ud3core\helper/printf.c ****             out(' ', buffer, idx++, maxlen);
 1894              		.loc 1 645 0
 1895 0648 0D9A     		ldr	r2, [sp, #52]
 1896 064a 09EB0503 		add	r3, r9, r5
 1897 064e 9A42     		cmp	r2, r3
 1898 0650 09D9     		bls	.L212
 646:..\common\ud3core\helper/printf.c ****           }
 1899              		.loc 1 646 0
 1900 0652 4A46     		mov	r2, r9
 1901 0654 09F10104 		add	r4, r9, #1
 1902              	.LVL284:
 1903 0658 0C9B     		ldr	r3, [sp, #48]
 1904 065a 0E99     		ldr	r1, [sp, #56]
 1905 065c 2020     		movs	r0, #32
 1906 065e 0F9E     		ldr	r6, [sp, #60]
 1907 0660 B047     		blx	r6
 1908              	.LVL285:
 1909 0662 A146     		mov	r9, r4
 1910 0664 F0E7     		b	.L213
 1911              	.LVL286:
 1912              	.L212:
 649:..\common\ud3core\helper/printf.c ****         break;
 1913              		.loc 1 649 0
 1914 0666 0B9B     		ldr	r3, [sp, #44]
 642:..\common\ud3core\helper/printf.c ****         // post padding
 1915              		.loc 1 642 0
 1916 0668 D046     		mov	r8, r10
 649:..\common\ud3core\helper/printf.c ****         break;
 1917              		.loc 1 649 0
 1918 066a 0133     		adds	r3, r3, #1
 1919              	.LVL287:
 650:..\common\ud3core\helper/printf.c ****       }
 1920              		.loc 1 650 0
 1921 066c 4D46     		mov	r5, r9
ARM GAS  C:\Users\chemi\AppData\Local\Temp\ccvd4c4w.s 			page 52


 1922 066e D4E4     		b	.L106
 1923              	.L366:
 1924              		.align	3
 1925              	.L365:
 1926 0670 0000C0FF 		.word	-4194304
 1927 0674 FFFFDF41 		.word	1105199103
 1928 0678 00000000 		.word	.LANCHOR0
 1929 067c 0000E03F 		.word	1071644672
 1930              	.LVL288:
 1931              	.L360:
 1932              	.LBE74:
 1933              	.LBB75:
 1934              	.LBB63:
 1935              	.LBB64:
 152:..\common\ud3core\helper/printf.c ****   return (unsigned int)(s - str);
 1936              		.loc 1 152 0
 1937 0680 9F42     		cmp	r7, r3
 1938 0682 03D0     		beq	.L217
 1939 0684 0137     		adds	r7, r7, #1
 1940              	.LVL289:
 1941              	.L216:
 1942 0686 3A78     		ldrb	r2, [r7]	@ zero_extendqisi2
 1943 0688 002A     		cmp	r2, #0
 1944 068a F9D1     		bne	.L360
 1945              	.L217:
 1946              	.LBE64:
 1947              	.LBE63:
 657:..\common\ud3core\helper/printf.c ****           l = (l < precision ? l : precision);
 1948              		.loc 1 657 0
 1949 068c 14F48063 		ands	r3, r4, #1024
 1950              	.LBB66:
 1951              	.LBB65:
 153:..\common\ud3core\helper/printf.c **** }
 1952              		.loc 1 153 0
 1953 0690 C8EB0707 		rsb	r7, r8, r7
 1954              	.LVL290:
 1955              	.LBE65:
 1956              	.LBE66:
 657:..\common\ud3core\helper/printf.c ****           l = (l < precision ? l : precision);
 1957              		.loc 1 657 0
 1958 0694 1E46     		mov	r6, r3
 1959 0696 02D0     		beq	.L219
 658:..\common\ud3core\helper/printf.c ****         }
 1960              		.loc 1 658 0
 1961 0698 4F45     		cmp	r7, r9
 1962 069a 28BF     		it	cs
 1963 069c 4F46     		movcs	r7, r9
 1964              	.LVL291:
 1965              	.L219:
 660:..\common\ud3core\helper/printf.c ****           while (l++ < width) {
 1966              		.loc 1 660 0
 1967 069e 14F00203 		ands	r3, r4, #2
 1968 06a2 1093     		str	r3, [sp, #64]
 1969 06a4 11D1     		bne	.L220
 1970 06a6 C7EB050A 		rsb	r10, r7, r5
 1971              	.LVL292:
 1972              	.L221:
ARM GAS  C:\Users\chemi\AppData\Local\Temp\ccvd4c4w.s 			page 53


 661:..\common\ud3core\helper/printf.c ****             out(' ', buffer, idx++, maxlen);
 1973              		.loc 1 661 0
 1974 06aa 0D9B     		ldr	r3, [sp, #52]
 1975 06ac 0AEB0702 		add	r2, r10, r7
 1976              	.LVL293:
 1977 06b0 BB42     		cmp	r3, r7
 1978 06b2 07F10104 		add	r4, r7, #1
 1979              	.LVL294:
 1980 06b6 06D9     		bls	.L361
 1981              	.LVL295:
 662:..\common\ud3core\helper/printf.c ****           }
 1982              		.loc 1 662 0
 1983 06b8 0C9B     		ldr	r3, [sp, #48]
 1984 06ba 0E99     		ldr	r1, [sp, #56]
 1985 06bc 2020     		movs	r0, #32
 1986 06be 0F9D     		ldr	r5, [sp, #60]
 1987 06c0 A847     		blx	r5
 1988              	.LVL296:
 661:..\common\ud3core\helper/printf.c ****             out(' ', buffer, idx++, maxlen);
 1989              		.loc 1 661 0
 1990 06c2 2746     		mov	r7, r4
 1991 06c4 F1E7     		b	.L221
 1992              	.LVL297:
 1993              	.L361:
 1994 06c6 2746     		mov	r7, r4
 1995 06c8 1546     		mov	r5, r2
 1996              	.LVL298:
 1997              	.L220:
 1998 06ca C8EB0504 		rsb	r4, r8, r5
 1999              	.LVL299:
 2000              	.L223:
 2001 06ce 08EB0402 		add	r2, r8, r4
 2002              	.LVL300:
 666:..\common\ud3core\helper/printf.c ****           out(*(p++), buffer, idx++, maxlen);
 2003              		.loc 1 666 0
 2004 06d2 18F8010B 		ldrb	r0, [r8], #1	@ zero_extendqisi2
 2005              	.LVL301:
 2006 06d6 60B1     		cbz	r0, .L224
 666:..\common\ud3core\helper/printf.c ****           out(*(p++), buffer, idx++, maxlen);
 2007              		.loc 1 666 0 is_stmt 0 discriminator 1
 2008 06d8 26B9     		cbnz	r6, .L362
 2009              	.L225:
 2010              	.LVL302:
 667:..\common\ud3core\helper/printf.c ****         }
 2011              		.loc 1 667 0 is_stmt 1
 2012 06da 0C9B     		ldr	r3, [sp, #48]
 2013 06dc 0E99     		ldr	r1, [sp, #56]
 2014 06de 0F9D     		ldr	r5, [sp, #60]
 2015 06e0 A847     		blx	r5
 2016              	.LVL303:
 2017 06e2 F4E7     		b	.L223
 2018              	.LVL304:
 2019              	.L362:
 666:..\common\ud3core\helper/printf.c ****           out(*(p++), buffer, idx++, maxlen);
 2020              		.loc 1 666 0 discriminator 2
 2021 06e4 09F1FF33 		add	r3, r9, #-1
 2022              	.LVL305:
ARM GAS  C:\Users\chemi\AppData\Local\Temp\ccvd4c4w.s 			page 54


 2023 06e8 B9F1000F 		cmp	r9, #0
 2024 06ec 01D0     		beq	.L224
 2025 06ee 9946     		mov	r9, r3
 2026 06f0 F3E7     		b	.L225
 2027              	.LVL306:
 2028              	.L224:
 670:..\common\ud3core\helper/printf.c ****           while (l++ < width) {
 2029              		.loc 1 670 0
 2030 06f2 109B     		ldr	r3, [sp, #64]
 2031 06f4 1546     		mov	r5, r2
 2032 06f6 6BB1     		cbz	r3, .L226
 2033 06f8 BF1A     		subs	r7, r7, r2
 2034              	.LVL307:
 2035              	.L227:
 671:..\common\ud3core\helper/printf.c ****             out(' ', buffer, idx++, maxlen);
 2036              		.loc 1 671 0
 2037 06fa 0D9A     		ldr	r2, [sp, #52]
 2038 06fc EB19     		adds	r3, r5, r7
 2039 06fe 9A42     		cmp	r2, r3
 2040 0700 08D9     		bls	.L226
 672:..\common\ud3core\helper/printf.c ****           }
 2041              		.loc 1 672 0
 2042 0702 6C1C     		adds	r4, r5, #1
 2043              	.LVL308:
 2044 0704 2A46     		mov	r2, r5
 2045 0706 0C9B     		ldr	r3, [sp, #48]
 2046 0708 0F9D     		ldr	r5, [sp, #60]
 2047 070a 0E99     		ldr	r1, [sp, #56]
 2048 070c 2020     		movs	r0, #32
 2049 070e A847     		blx	r5
 2050              	.LVL309:
 2051 0710 2546     		mov	r5, r4
 2052 0712 F2E7     		b	.L227
 2053              	.LVL310:
 2054              	.L226:
 675:..\common\ud3core\helper/printf.c ****         break;
 2055              		.loc 1 675 0
 2056 0714 0B9B     		ldr	r3, [sp, #44]
 654:..\common\ud3core\helper/printf.c ****         unsigned int l = _strnlen_s(p, precision ? precision : (size_t)-1);
 2057              		.loc 1 654 0
 2058 0716 D846     		mov	r8, fp
 2059              	.LVL311:
 675:..\common\ud3core\helper/printf.c ****         break;
 2060              		.loc 1 675 0
 2061 0718 0133     		adds	r3, r3, #1
 2062              	.LVL312:
 676:..\common\ud3core\helper/printf.c ****       }
 2063              		.loc 1 676 0
 2064 071a 7EE4     		b	.L106
 2065              	.LVL313:
 2066              	.L141:
 2067              	.LBE75:
 2068              	.LBB76:
 689:..\common\ud3core\helper/printf.c **** #if defined(PRINTF_SUPPORT_LONG_LONG)
 2069              		.loc 1 689 0
 2070 071c 0823     		movs	r3, #8
 2071              	.LVL314:
ARM GAS  C:\Users\chemi\AppData\Local\Temp\ccvd4c4w.s 			page 55


 2072 071e 0493     		str	r3, [sp, #16]
 2073 0720 1023     		movs	r3, #16
 2074 0722 0293     		str	r3, [sp, #8]
 2075 0724 44F02104 		orr	r4, r4, #33
 2076              	.LVL315:
 2077 0728 0023     		movs	r3, #0
 2078 072a 0594     		str	r4, [sp, #20]
 2079 072c CDF80C90 		str	r9, [sp, #12]
 2080 0730 0193     		str	r3, [sp, #4]
 2081 0732 D8F80030 		ldr	r3, [r8]
 2082 0736 2A46     		mov	r2, r5
 2083 0738 0093     		str	r3, [sp]
 2084 073a 0E99     		ldr	r1, [sp, #56]
 2085 073c 0C9B     		ldr	r3, [sp, #48]
 2086 073e 0F98     		ldr	r0, [sp, #60]
 2087 0740 FFF7FEFF 		bl	_ntoa_long
 2088              	.LVL316:
 693:..\common\ud3core\helper/printf.c ****         break;
 2089              		.loc 1 693 0
 2090 0744 0B9B     		ldr	r3, [sp, #44]
 689:..\common\ud3core\helper/printf.c **** #if defined(PRINTF_SUPPORT_LONG_LONG)
 2091              		.loc 1 689 0
 2092 0746 08F10407 		add	r7, r8, #4
 2093 074a 0546     		mov	r5, r0
 2094              	.LVL317:
 693:..\common\ud3core\helper/printf.c ****         break;
 2095              		.loc 1 693 0
 2096 074c 0133     		adds	r3, r3, #1
 2097              	.LVL318:
 689:..\common\ud3core\helper/printf.c **** #if defined(PRINTF_SUPPORT_LONG_LONG)
 2098              		.loc 1 689 0
 2099 074e B846     		mov	r8, r7
 694:..\common\ud3core\helper/printf.c ****       }
 2100              		.loc 1 694 0
 2101 0750 63E4     		b	.L106
 2102              	.LVL319:
 2103              	.L355:
 2104              	.LBE76:
 485:..\common\ud3core\helper/printf.c ****       width = _atoi(&format);
 2105              		.loc 1 485 0
 2106 0752 0022     		movs	r2, #0
 2107 0754 0D92     		str	r2, [sp, #52]
 2108 0756 0A20     		movs	r0, #10
 2109              	.LVL320:
 2110              	.L233:
 2111 0758 1946     		mov	r1, r3
 2112              	.LVL321:
 2113              	.LBB77:
 2114              	.LBB78:
 169:..\common\ud3core\helper/printf.c ****     i = i * 10U + (unsigned int)(*((*str)++) - '0');
 2115              		.loc 1 169 0
 2116 075a 13F8012B 		ldrb	r2, [r3], #1	@ zero_extendqisi2
 2117 075e A2F13006 		sub	r6, r2, #48
 2118 0762 092E     		cmp	r6, #9
 2119 0764 3FF6BEAC 		bhi	.L118
 2120              	.LVL322:
 2121 0768 0D99     		ldr	r1, [sp, #52]
ARM GAS  C:\Users\chemi\AppData\Local\Temp\ccvd4c4w.s 			page 56


 2122 076a 00FB0122 		mla	r2, r0, r1, r2
 170:..\common\ud3core\helper/printf.c ****   }
 2123              		.loc 1 170 0
 2124 076e 303A     		subs	r2, r2, #48
 2125 0770 0D92     		str	r2, [sp, #52]
 2126              	.LVL323:
 2127 0772 F1E7     		b	.L233
 2128              	.LBE78:
 2129              	.LBE77:
 2130              		.cfi_endproc
 2131              	.LFE79:
 2132              		.size	_vsnprintf, .-_vsnprintf
 2133              		.section	.text.printf_,"ax",%progbits
 2134              		.align	1
 2135              		.global	printf_
 2136              		.thumb
 2137              		.thumb_func
 2138              		.type	printf_, %function
 2139              	printf_:
 2140              	.LFB80:
 720:..\common\ud3core\helper/printf.c ****   va_list va;
 2141              		.loc 1 720 0
 2142              		.cfi_startproc
 2143              		@ args = 4, pretend = 16, frame = 8
 2144              		@ frame_needed = 0, uses_anonymous_args = 1
 2145              	.LVL324:
 2146 0000 0FB4     		push	{r0, r1, r2, r3}
 2147              		.cfi_def_cfa_offset 16
 2148              		.cfi_offset 0, -16
 2149              		.cfi_offset 1, -12
 2150              		.cfi_offset 2, -8
 2151              		.cfi_offset 3, -4
 2152 0002 1FB5     		push	{r0, r1, r2, r3, r4, lr}
 2153              		.cfi_def_cfa_offset 40
 2154              		.cfi_offset 14, -20
 720:..\common\ud3core\helper/printf.c ****   va_list va;
 2155              		.loc 1 720 0
 2156 0004 06AA     		add	r2, sp, #24
 2157 0006 52F8043B 		ldr	r3, [r2], #4
 724:..\common\ud3core\helper/printf.c ****   va_end(va);
 2158              		.loc 1 724 0
 2159 000a 02A9     		add	r1, sp, #8
 722:..\common\ud3core\helper/printf.c ****   char buffer[1];
 2160              		.loc 1 722 0
 2161 000c 0392     		str	r2, [sp, #12]
 724:..\common\ud3core\helper/printf.c ****   va_end(va);
 2162              		.loc 1 724 0
 2163 000e 0092     		str	r2, [sp]
 2164 0010 0448     		ldr	r0, .L368
 2165 0012 4FF0FF32 		mov	r2, #-1
 2166 0016 FFF7FEFF 		bl	_vsnprintf
 2167              	.LVL325:
 727:..\common\ud3core\helper/printf.c **** 
 2168              		.loc 1 727 0
 2169 001a 05B0     		add	sp, sp, #20
 2170              		.cfi_def_cfa_offset 20
 2171              		@ sp needed
ARM GAS  C:\Users\chemi\AppData\Local\Temp\ccvd4c4w.s 			page 57


 2172 001c 5DF804EB 		ldr	lr, [sp], #4
 2173              		.cfi_restore 14
 2174              		.cfi_def_cfa_offset 16
 2175 0020 04B0     		add	sp, sp, #16
 2176              		.cfi_restore 3
 2177              		.cfi_restore 2
 2178              		.cfi_restore 1
 2179              		.cfi_restore 0
 2180              		.cfi_def_cfa_offset 0
 2181 0022 7047     		bx	lr
 2182              	.L369:
 2183              		.align	2
 2184              	.L368:
 2185 0024 00000000 		.word	_out_char
 2186              		.cfi_endproc
 2187              	.LFE80:
 2188              		.size	printf_, .-printf_
 2189              		.section	.text.sprintf_,"ax",%progbits
 2190              		.align	1
 2191              		.global	sprintf_
 2192              		.thumb
 2193              		.thumb_func
 2194              		.type	sprintf_, %function
 2195              	sprintf_:
 2196              	.LFB81:
 731:..\common\ud3core\helper/printf.c ****   va_list va;
 2197              		.loc 1 731 0
 2198              		.cfi_startproc
 2199              		@ args = 4, pretend = 12, frame = 8
 2200              		@ frame_needed = 0, uses_anonymous_args = 1
 2201              	.LVL326:
 2202 0000 0EB4     		push	{r1, r2, r3}
 2203              		.cfi_def_cfa_offset 12
 2204              		.cfi_offset 1, -12
 2205              		.cfi_offset 2, -8
 2206              		.cfi_offset 3, -4
 2207 0002 0FB5     		push	{r0, r1, r2, r3, lr}
 2208              		.cfi_def_cfa_offset 32
 2209              		.cfi_offset 14, -16
 731:..\common\ud3core\helper/printf.c ****   va_list va;
 2210              		.loc 1 731 0
 2211 0004 05AA     		add	r2, sp, #20
 2212 0006 52F8043B 		ldr	r3, [r2], #4
 734:..\common\ud3core\helper/printf.c ****   va_end(va);
 2213              		.loc 1 734 0
 2214 000a 0146     		mov	r1, r0
 733:..\common\ud3core\helper/printf.c ****   const int ret = _vsnprintf(_out_buffer, buffer, (size_t)-1, format, va);
 2215              		.loc 1 733 0
 2216 000c 0392     		str	r2, [sp, #12]
 734:..\common\ud3core\helper/printf.c ****   va_end(va);
 2217              		.loc 1 734 0
 2218 000e 0092     		str	r2, [sp]
 2219 0010 0448     		ldr	r0, .L371
 2220              	.LVL327:
 2221 0012 4FF0FF32 		mov	r2, #-1
 2222 0016 FFF7FEFF 		bl	_vsnprintf
 2223              	.LVL328:
ARM GAS  C:\Users\chemi\AppData\Local\Temp\ccvd4c4w.s 			page 58


 737:..\common\ud3core\helper/printf.c **** 
 2224              		.loc 1 737 0
 2225 001a 04B0     		add	sp, sp, #16
 2226              		.cfi_def_cfa_offset 16
 2227              		@ sp needed
 2228 001c 5DF804EB 		ldr	lr, [sp], #4
 2229              		.cfi_restore 14
 2230              		.cfi_def_cfa_offset 12
 2231 0020 03B0     		add	sp, sp, #12
 2232              		.cfi_restore 3
 2233              		.cfi_restore 2
 2234              		.cfi_restore 1
 2235              		.cfi_def_cfa_offset 0
 2236 0022 7047     		bx	lr
 2237              	.L372:
 2238              		.align	2
 2239              	.L371:
 2240 0024 00000000 		.word	_out_buffer
 2241              		.cfi_endproc
 2242              	.LFE81:
 2243              		.size	sprintf_, .-sprintf_
 2244              		.section	.text.snprintf_,"ax",%progbits
 2245              		.align	1
 2246              		.global	snprintf_
 2247              		.thumb
 2248              		.thumb_func
 2249              		.type	snprintf_, %function
 2250              	snprintf_:
 2251              	.LFB82:
 741:..\common\ud3core\helper/printf.c ****   va_list va;
 2252              		.loc 1 741 0
 2253              		.cfi_startproc
 2254              		@ args = 4, pretend = 8, frame = 8
 2255              		@ frame_needed = 0, uses_anonymous_args = 1
 2256              	.LVL329:
 2257 0000 0CB4     		push	{r2, r3}
 2258              		.cfi_def_cfa_offset 8
 2259              		.cfi_offset 2, -8
 2260              		.cfi_offset 3, -4
 2261 0002 1FB5     		push	{r0, r1, r2, r3, r4, lr}
 2262              		.cfi_def_cfa_offset 32
 2263              		.cfi_offset 14, -12
 741:..\common\ud3core\helper/printf.c ****   va_list va;
 2264              		.loc 1 741 0
 2265 0004 06AA     		add	r2, sp, #24
 2266 0006 52F8043B 		ldr	r3, [r2], #4
 743:..\common\ud3core\helper/printf.c ****   const int ret = _vsnprintf(_out_buffer, buffer, count, format, va);
 2267              		.loc 1 743 0
 2268 000a 0392     		str	r2, [sp, #12]
 744:..\common\ud3core\helper/printf.c ****   va_end(va);
 2269              		.loc 1 744 0
 2270 000c 0092     		str	r2, [sp]
 2271 000e 0A46     		mov	r2, r1
 2272 0010 0146     		mov	r1, r0
 2273              	.LVL330:
 2274 0012 0448     		ldr	r0, .L374
 2275              	.LVL331:
ARM GAS  C:\Users\chemi\AppData\Local\Temp\ccvd4c4w.s 			page 59


 2276 0014 FFF7FEFF 		bl	_vsnprintf
 2277              	.LVL332:
 747:..\common\ud3core\helper/printf.c **** 
 2278              		.loc 1 747 0
 2279 0018 05B0     		add	sp, sp, #20
 2280              		.cfi_def_cfa_offset 12
 2281              		@ sp needed
 2282 001a 5DF804EB 		ldr	lr, [sp], #4
 2283              		.cfi_restore 14
 2284              		.cfi_def_cfa_offset 8
 2285 001e 02B0     		add	sp, sp, #8
 2286              		.cfi_restore 3
 2287              		.cfi_restore 2
 2288              		.cfi_def_cfa_offset 0
 2289 0020 7047     		bx	lr
 2290              	.L375:
 2291 0022 00BF     		.align	2
 2292              	.L374:
 2293 0024 00000000 		.word	_out_buffer
 2294              		.cfi_endproc
 2295              	.LFE82:
 2296              		.size	snprintf_, .-snprintf_
 2297              		.section	.text.vsnprintf_,"ax",%progbits
 2298              		.align	1
 2299              		.global	vsnprintf_
 2300              		.thumb
 2301              		.thumb_func
 2302              		.type	vsnprintf_, %function
 2303              	vsnprintf_:
 2304              	.LFB83:
 751:..\common\ud3core\helper/printf.c ****   return _vsnprintf(_out_buffer, buffer, count, format, va);
 2305              		.loc 1 751 0
 2306              		.cfi_startproc
 2307              		@ args = 0, pretend = 0, frame = 0
 2308              		@ frame_needed = 0, uses_anonymous_args = 0
 2309              	.LVL333:
 2310 0000 07B5     		push	{r0, r1, r2, lr}
 2311              		.cfi_def_cfa_offset 16
 2312              		.cfi_offset 14, -4
 752:..\common\ud3core\helper/printf.c **** }
 2313              		.loc 1 752 0
 2314 0002 0093     		str	r3, [sp]
 2315 0004 1346     		mov	r3, r2
 2316              	.LVL334:
 2317 0006 0A46     		mov	r2, r1
 2318              	.LVL335:
 2319 0008 0146     		mov	r1, r0
 2320              	.LVL336:
 2321 000a 0348     		ldr	r0, .L377
 2322              	.LVL337:
 2323 000c FFF7FEFF 		bl	_vsnprintf
 2324              	.LVL338:
 753:..\common\ud3core\helper/printf.c **** 
 2325              		.loc 1 753 0
 2326 0010 03B0     		add	sp, sp, #12
 2327              		.cfi_def_cfa_offset 4
 2328              		@ sp needed
ARM GAS  C:\Users\chemi\AppData\Local\Temp\ccvd4c4w.s 			page 60


 2329 0012 5DF804FB 		ldr	pc, [sp], #4
 2330              	.L378:
 2331 0016 00BF     		.align	2
 2332              	.L377:
 2333 0018 00000000 		.word	_out_buffer
 2334              		.cfi_endproc
 2335              	.LFE83:
 2336              		.size	vsnprintf_, .-vsnprintf_
 2337              		.section	.text.fctprintf,"ax",%progbits
 2338              		.align	1
 2339              		.global	fctprintf
 2340              		.thumb
 2341              		.thumb_func
 2342              		.type	fctprintf, %function
 2343              	fctprintf:
 2344              	.LFB84:
 757:..\common\ud3core\helper/printf.c ****   va_list va;
 2345              		.loc 1 757 0
 2346              		.cfi_startproc
 2347              		@ args = 4, pretend = 8, frame = 16
 2348              		@ frame_needed = 0, uses_anonymous_args = 1
 2349              	.LVL339:
 2350 0000 0CB4     		push	{r2, r3}
 2351              		.cfi_def_cfa_offset 8
 2352              		.cfi_offset 2, -8
 2353              		.cfi_offset 3, -4
 2354 0002 7FB5     		push	{r0, r1, r2, r3, r4, r5, r6, lr}
 2355              		.cfi_def_cfa_offset 40
 2356              		.cfi_offset 14, -12
 757:..\common\ud3core\helper/printf.c ****   va_list va;
 2357              		.loc 1 757 0
 2358 0004 08AA     		add	r2, sp, #32
 2359 0006 52F8043B 		ldr	r3, [r2], #4
 760:..\common\ud3core\helper/printf.c ****   const int ret = _vsnprintf(_out_fct, (char*)&out_fct_wrap, (size_t)-1, format, va);
 2360              		.loc 1 760 0
 2361 000a 0490     		str	r0, [sp, #16]
 759:..\common\ud3core\helper/printf.c ****   const out_fct_wrap_type out_fct_wrap = { out, arg };
 2362              		.loc 1 759 0
 2363 000c 0392     		str	r2, [sp, #12]
 760:..\common\ud3core\helper/printf.c ****   const int ret = _vsnprintf(_out_fct, (char*)&out_fct_wrap, (size_t)-1, format, va);
 2364              		.loc 1 760 0
 2365 000e 0591     		str	r1, [sp, #20]
 761:..\common\ud3core\helper/printf.c ****   va_end(va);
 2366              		.loc 1 761 0
 2367 0010 0092     		str	r2, [sp]
 2368 0012 04A9     		add	r1, sp, #16
 2369              	.LVL340:
 2370 0014 4FF0FF32 		mov	r2, #-1
 2371 0018 0348     		ldr	r0, .L380
 2372              	.LVL341:
 2373 001a FFF7FEFF 		bl	_vsnprintf
 2374              	.LVL342:
 764:..\common\ud3core\helper/printf.c **** 
 2375              		.loc 1 764 0
 2376 001e 07B0     		add	sp, sp, #28
 2377              		.cfi_def_cfa_offset 12
 2378              		@ sp needed
ARM GAS  C:\Users\chemi\AppData\Local\Temp\ccvd4c4w.s 			page 61


 2379 0020 5DF804EB 		ldr	lr, [sp], #4
 2380              		.cfi_restore 14
 2381              		.cfi_def_cfa_offset 8
 2382 0024 02B0     		add	sp, sp, #8
 2383              		.cfi_restore 3
 2384              		.cfi_restore 2
 2385              		.cfi_def_cfa_offset 0
 2386 0026 7047     		bx	lr
 2387              	.L381:
 2388              		.align	2
 2389              	.L380:
 2390 0028 00000000 		.word	_out_fct
 2391              		.cfi_endproc
 2392              	.LFE84:
 2393              		.size	fctprintf, .-fctprintf
 2394              		.section	.text.stream_buffer,"ax",%progbits
 2395              		.align	1
 2396              		.global	stream_buffer
 2397              		.thumb
 2398              		.thumb_func
 2399              		.type	stream_buffer, %function
 2400              	stream_buffer:
 2401              	.LFB86:
 770:..\common\ud3core\helper/printf.c **** 
 771:..\common\ud3core\helper/printf.c **** uint32_t stream_buffer(void * port, uint8_t * buffer, uint32_t len){
 2402              		.loc 1 771 0
 2403              		.cfi_startproc
 2404              		@ args = 0, pretend = 0, frame = 0
 2405              		@ frame_needed = 0, uses_anonymous_args = 0
 2406              	.LVL343:
 2407 0000 70B5     		push	{r4, r5, r6, lr}
 2408              		.cfi_def_cfa_offset 16
 2409              		.cfi_offset 4, -16
 2410              		.cfi_offset 5, -12
 2411              		.cfi_offset 6, -8
 2412              		.cfi_offset 14, -4
 2413              		.loc 1 771 0
 2414 0002 0546     		mov	r5, r0
 772:..\common\ud3core\helper/printf.c ****     if(((port_str*)port)->tx==NULL) return 0;
 2415              		.loc 1 772 0
 2416 0004 4068     		ldr	r0, [r0, #4]
 2417              	.LVL344:
 771:..\common\ud3core\helper/printf.c ****     if(((port_str*)port)->tx==NULL) return 0;
 2418              		.loc 1 771 0
 2419 0006 0E46     		mov	r6, r1
 2420 0008 1446     		mov	r4, r2
 2421              		.loc 1 772 0
 2422 000a A0B9     		cbnz	r0, .L384
 2423 000c 70BD     		pop	{r4, r5, r6, pc}
 2424              	.LVL345:
 2425              	.L388:
 2426              	.LBB79:
 773:..\common\ud3core\helper/printf.c ****     while(len){
 774:..\common\ud3core\helper/printf.c **** 		uint16_t space = xStreamBufferSpacesAvailable(((port_str*)port)->tx);
 2427              		.loc 1 774 0
 2428 000e 6868     		ldr	r0, [r5, #4]
 2429 0010 FFF7FEFF 		bl	xStreamBufferSpacesAvailable
ARM GAS  C:\Users\chemi\AppData\Local\Temp\ccvd4c4w.s 			page 62


 2430              	.LVL346:
 775:..\common\ud3core\helper/printf.c **** 		uint16_t len_t = len;
 776:..\common\ud3core\helper/printf.c **** 		if(len>space) len_t = space;
 2431              		.loc 1 776 0
 2432 0014 80B2     		uxth	r0, r0
 2433 0016 8442     		cmp	r4, r0
 774:..\common\ud3core\helper/printf.c **** 		uint16_t len_t = len;
 2434              		.loc 1 774 0
 2435 0018 8CBF     		ite	hi
 2436 001a 0246     		movhi	r2, r0
 775:..\common\ud3core\helper/printf.c **** 		uint16_t len_t = len;
 2437              		.loc 1 775 0
 2438 001c A2B2     		uxthls	r2, r4
 2439              	.LVL347:
 777:..\common\ud3core\helper/printf.c **** 		uint16_t count = xStreamBufferSend(((port_str*)port)->tx,buffer, len_t,0);
 2440              		.loc 1 777 0
 2441 001e 3146     		mov	r1, r6
 2442 0020 0023     		movs	r3, #0
 2443 0022 6868     		ldr	r0, [r5, #4]
 2444              	.LVL348:
 2445 0024 FFF7FEFF 		bl	xStreamBufferSend
 2446              	.LVL349:
 2447 0028 80B2     		uxth	r0, r0
 778:..\common\ud3core\helper/printf.c **** 		buffer+=count;
 2448              		.loc 1 778 0
 2449 002a 0644     		add	r6, r6, r0
 2450              	.LVL350:
 779:..\common\ud3core\helper/printf.c **** 		len-=count;
 2451              		.loc 1 779 0
 2452 002c 241A     		subs	r4, r4, r0
 2453              	.LVL351:
 780:..\common\ud3core\helper/printf.c ****         
 781:..\common\ud3core\helper/printf.c **** 		if(!count) vTaskDelay(2);
 2454              		.loc 1 781 0
 2455 002e 10B9     		cbnz	r0, .L384
 2456              		.loc 1 781 0 is_stmt 0 discriminator 1
 2457 0030 0220     		movs	r0, #2
 2458              	.LVL352:
 2459 0032 FFF7FEFF 		bl	vTaskDelay
 2460              	.LVL353:
 2461              	.L384:
 2462              	.LBE79:
 773:..\common\ud3core\helper/printf.c **** 		uint16_t space = xStreamBufferSpacesAvailable(((port_str*)port)->tx);
 2463              		.loc 1 773 0 is_stmt 1
 2464 0036 002C     		cmp	r4, #0
 2465 0038 E9D1     		bne	.L388
 782:..\common\ud3core\helper/printf.c ****     }
 783:..\common\ud3core\helper/printf.c ****     return 1;
 2466              		.loc 1 783 0
 2467 003a 0120     		movs	r0, #1
 784:..\common\ud3core\helper/printf.c **** }
 2468              		.loc 1 784 0
 2469 003c 70BD     		pop	{r4, r5, r6, pc}
 2470              		.cfi_endproc
 2471              	.LFE86:
 2472              		.size	stream_buffer, .-stream_buffer
 2473              		.section	.text.stream_printf,"ax",%progbits
ARM GAS  C:\Users\chemi\AppData\Local\Temp\ccvd4c4w.s 			page 63


 2474              		.align	1
 2475              		.global	stream_printf
 2476              		.thumb
 2477              		.thumb_func
 2478              		.type	stream_printf, %function
 2479              	stream_printf:
 2480              	.LFB87:
 785:..\common\ud3core\helper/printf.c **** 
 786:..\common\ud3core\helper/printf.c **** uint32_t stream_printf(void * port, char* format, ...){
 2481              		.loc 1 786 0
 2482              		.cfi_startproc
 2483              		@ args = 4, pretend = 12, frame = 16
 2484              		@ frame_needed = 0, uses_anonymous_args = 1
 2485              	.LVL354:
 2486 0000 0EB4     		push	{r1, r2, r3}
 2487              		.cfi_def_cfa_offset 12
 2488              		.cfi_offset 1, -12
 2489              		.cfi_offset 2, -8
 2490              		.cfi_offset 3, -4
 2491 0002 10B5     		push	{r4, lr}
 2492              		.cfi_def_cfa_offset 20
 2493              		.cfi_offset 4, -20
 2494              		.cfi_offset 14, -16
 2495 0004 87B0     		sub	sp, sp, #28
 2496              		.cfi_def_cfa_offset 48
 2497              		.loc 1 786 0
 2498 0006 09AA     		add	r2, sp, #36
 2499 0008 52F8043B 		ldr	r3, [r2], #4
 2500 000c 0146     		mov	r1, r0
 787:..\common\ud3core\helper/printf.c ****     va_list va;
 788:..\common\ud3core\helper/printf.c ****     va_start(va, format);
 789:..\common\ud3core\helper/printf.c ****     if(*format=='\0'){
 2501              		.loc 1 789 0
 2502 000e 1C78     		ldrb	r4, [r3]	@ zero_extendqisi2
 788:..\common\ud3core\helper/printf.c ****     if(*format=='\0'){
 2503              		.loc 1 788 0
 2504 0010 0392     		str	r2, [sp, #12]
 2505              		.loc 1 789 0
 2506 0012 24B9     		cbnz	r4, .L391
 2507              	.LVL355:
 2508              	.LBB80:
 790:..\common\ud3core\helper/printf.c ****         uint8_t* buffer = va_arg(va,uint8_t*);
 791:..\common\ud3core\helper/printf.c ****         uint32_t len = va_arg(va,uint32_t);
 792:..\common\ud3core\helper/printf.c ****         stream_buffer(port,buffer,len);
 2509              		.loc 1 792 0
 2510 0014 5268     		ldr	r2, [r2, #4]
 2511              	.LVL356:
 2512 0016 0A99     		ldr	r1, [sp, #40]
 2513 0018 FFF7FEFF 		bl	stream_buffer
 2514              	.LVL357:
 2515              	.LBE80:
 2516 001c 0BE0     		b	.L392
 2517              	.LVL358:
 2518              	.L391:
 793:..\common\ud3core\helper/printf.c ****     }else{
 794:..\common\ud3core\helper/printf.c ****         if(((port_str*)port)->tx!=NULL){;
 2519              		.loc 1 794 0
ARM GAS  C:\Users\chemi\AppData\Local\Temp\ccvd4c4w.s 			page 64


 2520 001e 4068     		ldr	r0, [r0, #4]
 2521              	.LVL359:
 2522 0020 48B1     		cbz	r0, .L392
 2523              	.LBB81:
 795:..\common\ud3core\helper/printf.c ****             const out_fct_wrap_type out_fct_wrap = { &send_stream, port };
 2524              		.loc 1 795 0
 2525 0022 0848     		ldr	r0, .L396
 2526 0024 0591     		str	r1, [sp, #20]
 2527 0026 0490     		str	r0, [sp, #16]
 796:..\common\ud3core\helper/printf.c ****             _vsnprintf(_out_fct, (char*)&out_fct_wrap, (size_t)-1, format, va);
 2528              		.loc 1 796 0
 2529 0028 0092     		str	r2, [sp]
 2530 002a 04A9     		add	r1, sp, #16
 2531              	.LVL360:
 2532 002c 4FF0FF32 		mov	r2, #-1
 2533 0030 0548     		ldr	r0, .L396+4
 2534 0032 FFF7FEFF 		bl	_vsnprintf
 2535              	.LVL361:
 2536              	.L392:
 2537              	.LBE81:
 797:..\common\ud3core\helper/printf.c ****         }
 798:..\common\ud3core\helper/printf.c ****     }
 799:..\common\ud3core\helper/printf.c ****     va_end(va);
 800:..\common\ud3core\helper/printf.c ****     return 0;
 801:..\common\ud3core\helper/printf.c **** }
 2538              		.loc 1 801 0
 2539 0036 0020     		movs	r0, #0
 2540 0038 07B0     		add	sp, sp, #28
 2541              		.cfi_def_cfa_offset 20
 2542              		@ sp needed
 2543 003a BDE81040 		pop	{r4, lr}
 2544              		.cfi_restore 14
 2545              		.cfi_restore 4
 2546              		.cfi_def_cfa_offset 12
 2547 003e 03B0     		add	sp, sp, #12
 2548              		.cfi_restore 3
 2549              		.cfi_restore 2
 2550              		.cfi_restore 1
 2551              		.cfi_def_cfa_offset 0
 2552 0040 7047     		bx	lr
 2553              	.L397:
 2554 0042 00BF     		.align	2
 2555              	.L396:
 2556 0044 00000000 		.word	send_stream
 2557 0048 00000000 		.word	_out_fct
 2558              		.cfi_endproc
 2559              	.LFE87:
 2560              		.size	stream_printf, .-stream_printf
 2561              		.section	.text.min_debug_prt,"ax",%progbits
 2562              		.align	1
 2563              		.global	min_debug_prt
 2564              		.thumb
 2565              		.thumb_func
 2566              		.type	min_debug_prt, %function
 2567              	min_debug_prt:
 2568              	.LFB88:
 802:..\common\ud3core\helper/printf.c **** 
ARM GAS  C:\Users\chemi\AppData\Local\Temp\ccvd4c4w.s 			page 65


 803:..\common\ud3core\helper/printf.c **** void min_debug_prt(const char *fmt, ...){
 2569              		.loc 1 803 0
 2570              		.cfi_startproc
 2571              		@ args = 4, pretend = 16, frame = 16
 2572              		@ frame_needed = 0, uses_anonymous_args = 1
 2573              	.LVL362:
 2574 0000 0FB4     		push	{r0, r1, r2, r3}
 2575              		.cfi_def_cfa_offset 16
 2576              		.cfi_offset 0, -16
 2577              		.cfi_offset 1, -12
 2578              		.cfi_offset 2, -8
 2579              		.cfi_offset 3, -4
 2580 0002 7FB5     		push	{r0, r1, r2, r3, r4, r5, r6, lr}
 2581              		.cfi_def_cfa_offset 48
 2582              		.cfi_offset 14, -20
 804:..\common\ud3core\helper/printf.c ****     if(debug_port == NULL) return;
 2583              		.loc 1 804 0
 2584 0004 0B4B     		ldr	r3, .L408
 2585 0006 1B68     		ldr	r3, [r3]
 2586 0008 7BB1     		cbz	r3, .L398
 805:..\common\ud3core\helper/printf.c ****     port_str* port = (port_str*)debug_port->port;
 2587              		.loc 1 805 0
 2588 000a 5A68     		ldr	r2, [r3, #4]
 2589              	.LVL363:
 806:..\common\ud3core\helper/printf.c ****     va_list args;
 807:..\common\ud3core\helper/printf.c ****     va_start (args, fmt );
 2590              		.loc 1 807 0
 2591 000c 09AB     		add	r3, sp, #36
 808:..\common\ud3core\helper/printf.c ****     if(port->tx!=NULL){;
 2592              		.loc 1 808 0
 2593 000e 5168     		ldr	r1, [r2, #4]
 807:..\common\ud3core\helper/printf.c ****     if(port->tx!=NULL){;
 2594              		.loc 1 807 0
 2595 0010 0393     		str	r3, [sp, #12]
 2596              		.loc 1 808 0
 2597 0012 51B1     		cbz	r1, .L398
 2598              	.LBB82:
 809:..\common\ud3core\helper/printf.c ****             const out_fct_wrap_type out_fct_wrap = { &send_stream, port };
 2599              		.loc 1 809 0
 2600 0014 0849     		ldr	r1, .L408+4
 2601 0016 0592     		str	r2, [sp, #20]
 2602 0018 0491     		str	r1, [sp, #16]
 810:..\common\ud3core\helper/printf.c ****             _vsnprintf(_out_fct, (char*)&out_fct_wrap, (size_t)-1, fmt, args);
 2603              		.loc 1 810 0
 2604 001a 0093     		str	r3, [sp]
 2605 001c 4FF0FF32 		mov	r2, #-1
 2606              	.LVL364:
 2607 0020 089B     		ldr	r3, [sp, #32]
 2608 0022 04A9     		add	r1, sp, #16
 2609 0024 0548     		ldr	r0, .L408+8
 2610 0026 FFF7FEFF 		bl	_vsnprintf
 2611              	.LVL365:
 2612              	.L398:
 2613              	.LBE82:
 811:..\common\ud3core\helper/printf.c ****         }
 812:..\common\ud3core\helper/printf.c ****     va_end (args);
 813:..\common\ud3core\helper/printf.c **** }
ARM GAS  C:\Users\chemi\AppData\Local\Temp\ccvd4c4w.s 			page 66


 2614              		.loc 1 813 0
 2615 002a 07B0     		add	sp, sp, #28
 2616              		.cfi_def_cfa_offset 20
 2617              		@ sp needed
 2618 002c 5DF804EB 		ldr	lr, [sp], #4
 2619              		.cfi_restore 14
 2620              		.cfi_def_cfa_offset 16
 2621 0030 04B0     		add	sp, sp, #16
 2622              		.cfi_restore 3
 2623              		.cfi_restore 2
 2624              		.cfi_restore 1
 2625              		.cfi_restore 0
 2626              		.cfi_def_cfa_offset 0
 2627 0032 7047     		bx	lr
 2628              	.L409:
 2629              		.align	2
 2630              	.L408:
 2631 0034 00000000 		.word	debug_port
 2632 0038 00000000 		.word	send_stream
 2633 003c 00000000 		.word	_out_fct
 2634              		.cfi_endproc
 2635              	.LFE88:
 2636              		.size	min_debug_prt, .-min_debug_prt
 2637              		.section	.rodata
 2638              		.align	3
 2639              		.set	.LANCHOR0,. + 0
 2640              		.type	pow10.9154, %object
 2641              		.size	pow10.9154, 80
 2642              	pow10.9154:
 2643 0000 00000000 		.word	0
 2644 0004 0000F03F 		.word	1072693248
 2645 0008 00000000 		.word	0
 2646 000c 00002440 		.word	1076101120
 2647 0010 00000000 		.word	0
 2648 0014 00005940 		.word	1079574528
 2649 0018 00000000 		.word	0
 2650 001c 00408F40 		.word	1083129856
 2651 0020 00000000 		.word	0
 2652 0024 0088C340 		.word	1086556160
 2653 0028 00000000 		.word	0
 2654 002c 006AF840 		.word	1090021888
 2655 0030 00000000 		.word	0
 2656 0034 80842E41 		.word	1093567616
 2657 0038 00000000 		.word	0
 2658 003c D0126341 		.word	1097011920
 2659 0040 00000000 		.word	0
 2660 0044 84D79741 		.word	1100470148
 2661 0048 00000000 		.word	0
 2662 004c 65CDCD41 		.word	1104006501
 2663              		.text
 2664              	.Letext0:
 2665              		.file 2 "c:\\program files (x86)\\cypress\\psoc creator\\4.4\\psoc creator\\import\\gnu\\arm\\5.4.
 2666              		.file 3 "c:\\program files (x86)\\cypress\\psoc creator\\4.4\\psoc creator\\import\\gnu\\arm\\5.4.
 2667              		.file 4 "c:\\program files (x86)\\cypress\\psoc creator\\4.4\\psoc creator\\import\\gnu\\arm\\5.4.
 2668              		.file 5 "c:\\program files (x86)\\cypress\\psoc creator\\4.4\\psoc creator\\import\\gnu\\arm\\5.4.
 2669              		.file 6 "..\\common\\rtos\\portable\\GCC\\ARM_CM3/portmacro.h"
 2670              		.file 7 "..\\common\\rtos\\include/task.h"
ARM GAS  C:\Users\chemi\AppData\Local\Temp\ccvd4c4w.s 			page 67


 2671              		.file 8 "..\\common\\rtos\\include/queue.h"
 2672              		.file 9 "..\\common\\rtos\\include/semphr.h"
 2673              		.file 10 "..\\common\\rtos\\include/stream_buffer.h"
 2674              		.file 11 "..\\common\\tterm/TTerm.h"
 2675              		.file 12 "<built-in>"
 2676              		.file 13 "..\\common\\ud3core/cli_basic.h"
 2677              		.file 14 "Generated_Source\\PSoC5/core_cm3.h"
 2678              		.file 15 "..\\common\\ud3core\\helper\\debug.h"
 2679              		.file 16 "..\\common\\ud3core\\helper\\printf.h"