ARM GAS  C:\Users\chemi\AppData\Local\Temp\ccvd4c4w.s 			page 1


   1              		.syntax unified
   2              		.cpu cortex-m3
   3              		.fpu softvfp
   4              		.eabi_attribute 20, 1
   5              		.eabi_attribute 21, 1
   6              		.eabi_attribute 23, 3
   7              		.eabi_attribute 24, 1
   8              		.eabi_attribute 25, 1
   9              		.eabi_attribute 26, 1
  10              		.eabi_attribute 30, 4
  11              		.eabi_attribute 34, 1
  12              		.eabi_attribute 18, 4
  13              		.thumb
  14              		.syntax unified
  15              		.file	"printf.c"
  16              		.text
  17              	.Ltext0:
  18              		.cfi_sections	.debug_frame
  19              		.section	.text._out_buffer,"ax",%progbits
  20              		.align	1
  21              		.thumb
  22              		.thumb_func
  23              		.type	_out_buffer, %function
  24              	_out_buffer:
  25              	.LFB68:
  26              		.file 1 "..\\common\\ud3core\\helper\\printf.c"
   1:..\common\ud3core\helper/printf.c **** ///////////////////////////////////////////////////////////////////////////////
   2:..\common\ud3core\helper/printf.c **** // \author (c) Marco Paland (info@paland.com)
   3:..\common\ud3core\helper/printf.c **** //             2014-2018, PALANDesign Hannover, Germany
   4:..\common\ud3core\helper/printf.c **** //
   5:..\common\ud3core\helper/printf.c **** // \license The MIT License (MIT)
   6:..\common\ud3core\helper/printf.c **** //
   7:..\common\ud3core\helper/printf.c **** // Permission is hereby granted, free of charge, to any person obtaining a copy
   8:..\common\ud3core\helper/printf.c **** // of this software and associated documentation files (the "Software"), to deal
   9:..\common\ud3core\helper/printf.c **** // in the Software without restriction, including without limitation the rights
  10:..\common\ud3core\helper/printf.c **** // to use, copy, modify, merge, publish, distribute, sublicense, and/or sell
  11:..\common\ud3core\helper/printf.c **** // copies of the Software, and to permit persons to whom the Software is
  12:..\common\ud3core\helper/printf.c **** // furnished to do so, subject to the following conditions:
  13:..\common\ud3core\helper/printf.c **** //
  14:..\common\ud3core\helper/printf.c **** // The above copyright notice and this permission notice shall be included in
  15:..\common\ud3core\helper/printf.c **** // all copies or substantial portions of the Software.
  16:..\common\ud3core\helper/printf.c **** //
  17:..\common\ud3core\helper/printf.c **** // THE SOFTWARE IS PROVIDED "AS IS", WITHOUT WARRANTY OF ANY KIND, EXPRESS OR
  18:..\common\ud3core\helper/printf.c **** // IMPLIED, INCLUDING BUT NOT LIMITED TO THE WARRANTIES OF MERCHANTABILITY,
  19:..\common\ud3core\helper/printf.c **** // FITNESS FOR A PARTICULAR PURPOSE AND NONINFRINGEMENT. IN NO EVENT SHALL THE
  20:..\common\ud3core\helper/printf.c **** // AUTHORS OR COPYRIGHT HOLDERS BE LIABLE FOR ANY CLAIM, DAMAGES OR OTHER
  21:..\common\ud3core\helper/printf.c **** // LIABILITY, WHETHER IN AN ACTION OF CONTRACT, TORT OR OTHERWISE, ARISING FROM,
  22:..\common\ud3core\helper/printf.c **** // OUT OF OR IN CONNECTION WITH THE SOFTWARE OR THE USE OR OTHER DEALINGS IN
  23:..\common\ud3core\helper/printf.c **** // THE SOFTWARE.
  24:..\common\ud3core\helper/printf.c **** //
  25:..\common\ud3core\helper/printf.c **** // \brief Tiny printf, sprintf and (v)snprintf implementation, optimized for speed on
  26:..\common\ud3core\helper/printf.c **** //        embedded systems with a very limited resources. These routines are thread
  27:..\common\ud3core\helper/printf.c **** //        safe and reentrant!
  28:..\common\ud3core\helper/printf.c **** //        Use this instead of the bloated standard/newlib printf cause these use
  29:..\common\ud3core\helper/printf.c **** //        malloc for printf (and may not be thread safe).
  30:..\common\ud3core\helper/printf.c **** //
  31:..\common\ud3core\helper/printf.c **** ///////////////////////////////////////////////////////////////////////////////
ARM GAS  C:\Users\chemi\AppData\Local\Temp\ccvd4c4w.s 			page 2


  32:..\common\ud3core\helper/printf.c **** 
  33:..\common\ud3core\helper/printf.c **** #include <stdbool.h>
  34:..\common\ud3core\helper/printf.c **** #include <stdint.h>
  35:..\common\ud3core\helper/printf.c **** 
  36:..\common\ud3core\helper/printf.c **** #include "printf.h"
  37:..\common\ud3core\helper/printf.c **** #include "FreeRTOS.h"
  38:..\common\ud3core\helper/printf.c **** #include "queue.h"
  39:..\common\ud3core\helper/printf.c **** #include "cli_basic.h"
  40:..\common\ud3core\helper/printf.c **** #include "debug.h"
  41:..\common\ud3core\helper/printf.c **** 
  42:..\common\ud3core\helper/printf.c **** 
  43:..\common\ud3core\helper/printf.c **** // define this globally (e.g. gcc -DPRINTF_INCLUDE_CONFIG_H ...) to include the
  44:..\common\ud3core\helper/printf.c **** // printf_config.h header file
  45:..\common\ud3core\helper/printf.c **** // default: undefined
  46:..\common\ud3core\helper/printf.c **** #ifdef PRINTF_INCLUDE_CONFIG_H
  47:..\common\ud3core\helper/printf.c **** #include "printf_config.h"
  48:..\common\ud3core\helper/printf.c **** #endif
  49:..\common\ud3core\helper/printf.c **** 
  50:..\common\ud3core\helper/printf.c **** 
  51:..\common\ud3core\helper/printf.c **** // 'ntoa' conversion buffer size, this must be big enough to hold one converted
  52:..\common\ud3core\helper/printf.c **** // numeric number including padded zeros (dynamically created on stack)
  53:..\common\ud3core\helper/printf.c **** // default: 32 byte
  54:..\common\ud3core\helper/printf.c **** #ifndef PRINTF_NTOA_BUFFER_SIZE
  55:..\common\ud3core\helper/printf.c **** #define PRINTF_NTOA_BUFFER_SIZE    32U
  56:..\common\ud3core\helper/printf.c **** #endif
  57:..\common\ud3core\helper/printf.c **** 
  58:..\common\ud3core\helper/printf.c **** // 'ftoa' conversion buffer size, this must be big enough to hold one converted
  59:..\common\ud3core\helper/printf.c **** // float number including padded zeros (dynamically created on stack)
  60:..\common\ud3core\helper/printf.c **** // default: 32 byte
  61:..\common\ud3core\helper/printf.c **** #ifndef PRINTF_FTOA_BUFFER_SIZE
  62:..\common\ud3core\helper/printf.c **** #define PRINTF_FTOA_BUFFER_SIZE    32U
  63:..\common\ud3core\helper/printf.c **** #endif
  64:..\common\ud3core\helper/printf.c **** 
  65:..\common\ud3core\helper/printf.c **** // support for the floating point type (%f)
  66:..\common\ud3core\helper/printf.c **** // default: activated
  67:..\common\ud3core\helper/printf.c **** #ifndef PRINTF_DISABLE_SUPPORT_FLOAT
  68:..\common\ud3core\helper/printf.c **** #define PRINTF_SUPPORT_FLOAT
  69:..\common\ud3core\helper/printf.c **** #endif
  70:..\common\ud3core\helper/printf.c **** 
  71:..\common\ud3core\helper/printf.c **** // support for the long long types (%llu or %p)
  72:..\common\ud3core\helper/printf.c **** // default: activated
  73:..\common\ud3core\helper/printf.c **** #ifndef PRINTF_DISABLE_SUPPORT_LONG_LONG
  74:..\common\ud3core\helper/printf.c **** #define PRINTF_SUPPORT_LONG_LONG
  75:..\common\ud3core\helper/printf.c **** #endif
  76:..\common\ud3core\helper/printf.c **** 
  77:..\common\ud3core\helper/printf.c **** // support for the ptrdiff_t type (%t)
  78:..\common\ud3core\helper/printf.c **** // ptrdiff_t is normally defined in <stddef.h> as long or long long type
  79:..\common\ud3core\helper/printf.c **** // default: activated
  80:..\common\ud3core\helper/printf.c **** #ifndef PRINTF_DISABLE_SUPPORT_PTRDIFF_T
  81:..\common\ud3core\helper/printf.c **** #define PRINTF_SUPPORT_PTRDIFF_T
  82:..\common\ud3core\helper/printf.c **** #endif
  83:..\common\ud3core\helper/printf.c **** 
  84:..\common\ud3core\helper/printf.c **** ///////////////////////////////////////////////////////////////////////////////
  85:..\common\ud3core\helper/printf.c **** 
  86:..\common\ud3core\helper/printf.c **** // internal flag definitions
  87:..\common\ud3core\helper/printf.c **** #define FLAGS_ZEROPAD   (1U <<  0U)
  88:..\common\ud3core\helper/printf.c **** #define FLAGS_LEFT      (1U <<  1U)
ARM GAS  C:\Users\chemi\AppData\Local\Temp\ccvd4c4w.s 			page 3


  89:..\common\ud3core\helper/printf.c **** #define FLAGS_PLUS      (1U <<  2U)
  90:..\common\ud3core\helper/printf.c **** #define FLAGS_SPACE     (1U <<  3U)
  91:..\common\ud3core\helper/printf.c **** #define FLAGS_HASH      (1U <<  4U)
  92:..\common\ud3core\helper/printf.c **** #define FLAGS_UPPERCASE (1U <<  5U)
  93:..\common\ud3core\helper/printf.c **** #define FLAGS_CHAR      (1U <<  6U)
  94:..\common\ud3core\helper/printf.c **** #define FLAGS_SHORT     (1U <<  7U)
  95:..\common\ud3core\helper/printf.c **** #define FLAGS_LONG      (1U <<  8U)
  96:..\common\ud3core\helper/printf.c **** #define FLAGS_LONG_LONG (1U <<  9U)
  97:..\common\ud3core\helper/printf.c **** #define FLAGS_PRECISION (1U << 10U)
  98:..\common\ud3core\helper/printf.c **** 
  99:..\common\ud3core\helper/printf.c **** 
 100:..\common\ud3core\helper/printf.c **** // output function type
 101:..\common\ud3core\helper/printf.c **** typedef void (*out_fct_type)(char character, void* buffer, size_t idx, size_t maxlen);
 102:..\common\ud3core\helper/printf.c **** 
 103:..\common\ud3core\helper/printf.c **** 
 104:..\common\ud3core\helper/printf.c **** // wrapper (used as buffer) for output function type
 105:..\common\ud3core\helper/printf.c **** typedef struct {
 106:..\common\ud3core\helper/printf.c ****   void  (*fct)(char character, void* arg);
 107:..\common\ud3core\helper/printf.c ****   void* arg;
 108:..\common\ud3core\helper/printf.c **** } out_fct_wrap_type;
 109:..\common\ud3core\helper/printf.c **** 
 110:..\common\ud3core\helper/printf.c **** 
 111:..\common\ud3core\helper/printf.c **** // internal buffer output
 112:..\common\ud3core\helper/printf.c **** static inline void _out_buffer(char character, void* buffer, size_t idx, size_t maxlen)
 113:..\common\ud3core\helper/printf.c **** {
  27              		.loc 1 113 0
  28              		.cfi_startproc
  29              		@ args = 0, pretend = 0, frame = 0
  30              		@ frame_needed = 0, uses_anonymous_args = 0
  31              		@ link register save eliminated.
  32              	.LVL0:
 114:..\common\ud3core\helper/printf.c ****   if (idx < maxlen) {
  33              		.loc 1 114 0
  34 0000 9A42     		cmp	r2, r3
 115:..\common\ud3core\helper/printf.c ****     ((char*)buffer)[idx] = character;
  35              		.loc 1 115 0
  36 0002 38BF     		it	cc
  37 0004 8854     		strbcc	r0, [r1, r2]
  38 0006 7047     		bx	lr
  39              		.cfi_endproc
  40              	.LFE68:
  41              		.size	_out_buffer, .-_out_buffer
  42              		.section	.text._out_null,"ax",%progbits
  43              		.align	1
  44              		.thumb
  45              		.thumb_func
  46              		.type	_out_null, %function
  47              	_out_null:
  48              	.LFB69:
 116:..\common\ud3core\helper/printf.c ****   }
 117:..\common\ud3core\helper/printf.c **** }
 118:..\common\ud3core\helper/printf.c **** 
 119:..\common\ud3core\helper/printf.c **** 
 120:..\common\ud3core\helper/printf.c **** // internal null output
 121:..\common\ud3core\helper/printf.c **** static inline void _out_null(char character, void* buffer, size_t idx, size_t maxlen)
 122:..\common\ud3core\helper/printf.c **** {
  49              		.loc 1 122 0
ARM GAS  C:\Users\chemi\AppData\Local\Temp\ccvd4c4w.s 			page 4


  50              		.cfi_startproc
  51              		@ args = 0, pretend = 0, frame = 0
  52              		@ frame_needed = 0, uses_anonymous_args = 0
  53              		@ link register save eliminated.
  54              	.LVL1:
  55 0000 7047     		bx	lr
  56              		.cfi_endproc
  57              	.LFE69:
  58              		.size	_out_null, .-_out_null
  59              		.section	.text._out_fct,"ax",%progbits
  60              		.align	1
  61              		.thumb
  62              		.thumb_func
  63              		.type	_out_fct, %function
  64              	_out_fct:
  65              	.LFB71:
 123:..\common\ud3core\helper/printf.c ****   (void)character; (void)buffer; (void)idx; (void)maxlen;
 124:..\common\ud3core\helper/printf.c **** }
 125:..\common\ud3core\helper/printf.c **** 
 126:..\common\ud3core\helper/printf.c **** 
 127:..\common\ud3core\helper/printf.c **** // internal _putchar wrapper
 128:..\common\ud3core\helper/printf.c **** static inline void _out_char(char character, void* buffer, size_t idx, size_t maxlen)
 129:..\common\ud3core\helper/printf.c **** {
 130:..\common\ud3core\helper/printf.c ****   (void)buffer; (void)idx; (void)maxlen;
 131:..\common\ud3core\helper/printf.c ****   if (character) {
 132:..\common\ud3core\helper/printf.c ****     _putchar(character);
 133:..\common\ud3core\helper/printf.c ****   }
 134:..\common\ud3core\helper/printf.c **** }
 135:..\common\ud3core\helper/printf.c **** 
 136:..\common\ud3core\helper/printf.c **** 
 137:..\common\ud3core\helper/printf.c **** // internal output function wrapper
 138:..\common\ud3core\helper/printf.c **** static inline void _out_fct(char character, void* buffer, size_t idx, size_t maxlen)
 139:..\common\ud3core\helper/printf.c **** {
  66              		.loc 1 139 0
  67              		.cfi_startproc
  68              		@ args = 0, pretend = 0, frame = 0
  69              		@ frame_needed = 0, uses_anonymous_args = 0
  70              		@ link register save eliminated.
  71              	.LVL2:
 140:..\common\ud3core\helper/printf.c ****   (void)idx; (void)maxlen;
 141:..\common\ud3core\helper/printf.c ****   // buffer is the output fct pointer
 142:..\common\ud3core\helper/printf.c ****   ((out_fct_wrap_type*)buffer)->fct(character, ((out_fct_wrap_type*)buffer)->arg);
  72              		.loc 1 142 0
  73 0000 0B68     		ldr	r3, [r1]
  74              	.LVL3:
  75 0002 4968     		ldr	r1, [r1, #4]
  76              	.LVL4:
  77 0004 1847     		bx	r3	@ indirect register sibling call
  78              	.LVL5:
  79              		.cfi_endproc
  80              	.LFE71:
  81              		.size	_out_fct, .-_out_fct
  82              		.section	.text._ntoa_format,"ax",%progbits
  83              		.align	1
  84              		.thumb
  85              		.thumb_func
  86              		.type	_ntoa_format, %function
ARM GAS  C:\Users\chemi\AppData\Local\Temp\ccvd4c4w.s 			page 5


  87              	_ntoa_format:
  88              	.LFB75:
 143:..\common\ud3core\helper/printf.c **** }
 144:..\common\ud3core\helper/printf.c **** 
 145:..\common\ud3core\helper/printf.c **** 
 146:..\common\ud3core\helper/printf.c **** // internal secure strlen
 147:..\common\ud3core\helper/printf.c **** // \return The length of the string (excluding the terminating 0)
 148:..\common\ud3core\helper/printf.c **** //         limited by 'max' size if non-zero
 149:..\common\ud3core\helper/printf.c **** static inline unsigned int _strnlen_s(const char* str, size_t maxsize)
 150:..\common\ud3core\helper/printf.c **** {
 151:..\common\ud3core\helper/printf.c ****   const char* s;
 152:..\common\ud3core\helper/printf.c ****   for (s = str; *s && maxsize--; ++s);
 153:..\common\ud3core\helper/printf.c ****   return (unsigned int)(s - str);
 154:..\common\ud3core\helper/printf.c **** }
 155:..\common\ud3core\helper/printf.c **** 
 156:..\common\ud3core\helper/printf.c **** 
 157:..\common\ud3core\helper/printf.c **** // internal test if char is a digit (0-9)
 158:..\common\ud3core\helper/printf.c **** // \return true if char is a digit
 159:..\common\ud3core\helper/printf.c **** static inline bool _is_digit(char ch)
 160:..\common\ud3core\helper/printf.c **** {
 161:..\common\ud3core\helper/printf.c ****   return (ch >= '0') && (ch <= '9');
 162:..\common\ud3core\helper/printf.c **** }
 163:..\common\ud3core\helper/printf.c **** 
 164:..\common\ud3core\helper/printf.c **** 
 165:..\common\ud3core\helper/printf.c **** // internal ASCII string to unsigned int conversion
 166:..\common\ud3core\helper/printf.c **** static unsigned int _atoi(const char** str)
 167:..\common\ud3core\helper/printf.c **** {
 168:..\common\ud3core\helper/printf.c ****   unsigned int i = 0U;
 169:..\common\ud3core\helper/printf.c ****   while (_is_digit(**str)) {
 170:..\common\ud3core\helper/printf.c ****     i = i * 10U + (unsigned int)(*((*str)++) - '0');
 171:..\common\ud3core\helper/printf.c ****   }
 172:..\common\ud3core\helper/printf.c ****   return i;
 173:..\common\ud3core\helper/printf.c **** }
 174:..\common\ud3core\helper/printf.c **** 
 175:..\common\ud3core\helper/printf.c **** 
 176:..\common\ud3core\helper/printf.c **** // internal itoa format
 177:..\common\ud3core\helper/printf.c **** static size_t _ntoa_format(out_fct_type out, char* buffer, size_t idx, size_t maxlen, char* buf, si
 178:..\common\ud3core\helper/printf.c **** {
  89              		.loc 1 178 0
  90              		.cfi_startproc
  91              		@ args = 28, pretend = 0, frame = 16
  92              		@ frame_needed = 0, uses_anonymous_args = 0
  93              	.LVL6:
  94 0000 2DE9F04F 		push	{r4, r5, r6, r7, r8, r9, r10, fp, lr}
  95              		.cfi_def_cfa_offset 36
  96              		.cfi_offset 4, -36
  97              		.cfi_offset 5, -32
  98              		.cfi_offset 6, -28
  99              		.cfi_offset 7, -24
 100              		.cfi_offset 8, -20
 101              		.cfi_offset 9, -16
 102              		.cfi_offset 10, -12
 103              		.cfi_offset 11, -8
 104              		.cfi_offset 14, -4
 105 0004 85B0     		sub	sp, sp, #20
 106              		.cfi_def_cfa_offset 56
 107              		.loc 1 178 0
ARM GAS  C:\Users\chemi\AppData\Local\Temp\ccvd4c4w.s 			page 6


 108 0006 9946     		mov	r9, r3
 109 0008 149B     		ldr	r3, [sp, #80]
 110              	.LVL7:
 111 000a 8346     		mov	fp, r0
 179:..\common\ud3core\helper/printf.c ****   const size_t start_idx = idx;
 180:..\common\ud3core\helper/printf.c **** 
 181:..\common\ud3core\helper/printf.c ****   // pad leading zeros
 182:..\common\ud3core\helper/printf.c ****   if (!(flags & FLAGS_LEFT)) {
 112              		.loc 1 182 0
 113 000c 13F00200 		ands	r0, r3, #2
 114              	.LVL8:
 178:..\common\ud3core\helper/printf.c ****   const size_t start_idx = idx;
 115              		.loc 1 178 0
 116 0010 0191     		str	r1, [sp, #4]
 117 0012 9046     		mov	r8, r2
 118              	.LVL9:
 119 0014 0E9D     		ldr	r5, [sp, #56]
 120 0016 0F9C     		ldr	r4, [sp, #60]
 121 0018 9DF84010 		ldrb	r1, [sp, #64]	@ zero_extendqisi2
 122              	.LVL10:
 123 001c 119A     		ldr	r2, [sp, #68]
 124              	.LVL11:
 125 001e DDF848C0 		ldr	ip, [sp, #72]
 126 0022 139E     		ldr	r6, [sp, #76]
 127              		.loc 1 182 0
 128 0024 0290     		str	r0, [sp, #8]
 129 0026 18D1     		bne	.L6
 130 0028 2819     		adds	r0, r5, r4
 183:..\common\ud3core\helper/printf.c ****     while ((len < prec) && (len < PRINTF_NTOA_BUFFER_SIZE)) {
 184:..\common\ud3core\helper/printf.c ****       buf[len++] = '0';
 131              		.loc 1 184 0
 132 002a 3027     		movs	r7, #48
 133              	.LVL12:
 134              	.L7:
 183:..\common\ud3core\helper/printf.c ****     while ((len < prec) && (len < PRINTF_NTOA_BUFFER_SIZE)) {
 135              		.loc 1 183 0
 136 002c 6445     		cmp	r4, ip
 137 002e 05D3     		bcc	.L8
 138              	.L11:
 139 0030 2819     		adds	r0, r5, r4
 185:..\common\ud3core\helper/printf.c ****     }
 186:..\common\ud3core\helper/printf.c ****     while ((flags & FLAGS_ZEROPAD) && (len < width) && (len < PRINTF_NTOA_BUFFER_SIZE)) {
 140              		.loc 1 186 0
 141 0032 03F00107 		and	r7, r3, #1
 187:..\common\ud3core\helper/printf.c ****       buf[len++] = '0';
 142              		.loc 1 187 0
 143 0036 4FF0300E 		mov	lr, #48
 144 003a 0CE0     		b	.L9
 145              	.L8:
 183:..\common\ud3core\helper/printf.c ****     while ((len < prec) && (len < PRINTF_NTOA_BUFFER_SIZE)) {
 146              		.loc 1 183 0 discriminator 1
 147 003c 1F2C     		cmp	r4, #31
 148 003e F7D8     		bhi	.L11
 184:..\common\ud3core\helper/printf.c ****     }
 149              		.loc 1 184 0
 150 0040 0134     		adds	r4, r4, #1
 151              	.LVL13:
ARM GAS  C:\Users\chemi\AppData\Local\Temp\ccvd4c4w.s 			page 7


 152 0042 00F8017B 		strb	r7, [r0], #1
 153 0046 F1E7     		b	.L7
 154              	.L63:
 186:..\common\ud3core\helper/printf.c ****       buf[len++] = '0';
 155              		.loc 1 186 0 discriminator 1
 156 0048 B442     		cmp	r4, r6
 157 004a 06D2     		bcs	.L6
 186:..\common\ud3core\helper/printf.c ****       buf[len++] = '0';
 158              		.loc 1 186 0 is_stmt 0 discriminator 2
 159 004c 1F2C     		cmp	r4, #31
 160 004e 04D8     		bhi	.L6
 161              		.loc 1 187 0 is_stmt 1
 162 0050 0134     		adds	r4, r4, #1
 163              	.LVL14:
 164 0052 00F801EB 		strb	lr, [r0], #1
 165              	.L9:
 186:..\common\ud3core\helper/printf.c ****       buf[len++] = '0';
 166              		.loc 1 186 0
 167 0056 002F     		cmp	r7, #0
 168 0058 F6D1     		bne	.L63
 169              	.LVL15:
 170              	.L6:
 188:..\common\ud3core\helper/printf.c ****     }
 189:..\common\ud3core\helper/printf.c ****   }
 190:..\common\ud3core\helper/printf.c **** 
 191:..\common\ud3core\helper/printf.c ****   // handle hash
 192:..\common\ud3core\helper/printf.c ****   if (flags & FLAGS_HASH) {
 171              		.loc 1 192 0
 172 005a D806     		lsls	r0, r3, #27
 173 005c 27D5     		bpl	.L13
 193:..\common\ud3core\helper/printf.c ****     if (!(flags & FLAGS_PRECISION) && len && ((len == prec) || (len == width))) {
 174              		.loc 1 193 0
 175 005e 5F05     		lsls	r7, r3, #21
 176 0060 0BD4     		bmi	.L14
 177              		.loc 1 193 0 is_stmt 0 discriminator 1
 178 0062 54B1     		cbz	r4, .L14
 179              		.loc 1 193 0 discriminator 2
 180 0064 6445     		cmp	r4, ip
 181 0066 01D0     		beq	.L15
 182              		.loc 1 193 0 discriminator 3
 183 0068 B442     		cmp	r4, r6
 184 006a 06D1     		bne	.L14
 185              	.L15:
 186              	.LVL16:
 194:..\common\ud3core\helper/printf.c ****       len--;
 195:..\common\ud3core\helper/printf.c ****       if (len && (base == 16U)) {
 187              		.loc 1 195 0 is_stmt 1
 188 006c 601E     		subs	r0, r4, #1
 189              	.LVL17:
 190 006e 03D0     		beq	.L37
 191              		.loc 1 195 0 is_stmt 0 discriminator 1
 192 0070 102A     		cmp	r2, #16
 193 0072 0ED1     		bne	.L38
 196:..\common\ud3core\helper/printf.c ****         len--;
 194              		.loc 1 196 0 is_stmt 1
 195 0074 023C     		subs	r4, r4, #2
 196              	.LVL18:
ARM GAS  C:\Users\chemi\AppData\Local\Temp\ccvd4c4w.s 			page 8


 197 0076 02E0     		b	.L17
 198              	.LVL19:
 199              	.L37:
 200 0078 0446     		mov	r4, r0
 201              	.LVL20:
 202              	.L14:
 197:..\common\ud3core\helper/printf.c ****       }
 198:..\common\ud3core\helper/printf.c ****     }
 199:..\common\ud3core\helper/printf.c ****     if ((base == 16U) && !(flags & FLAGS_UPPERCASE) && (len < PRINTF_NTOA_BUFFER_SIZE)) {
 203              		.loc 1 199 0
 204 007a 102A     		cmp	r2, #16
 205 007c 0AD1     		bne	.L16
 206              	.L17:
 207              		.loc 1 199 0 is_stmt 0 discriminator 1
 208 007e 9806     		lsls	r0, r3, #26
 209 0080 03D4     		bmi	.L18
 210              		.loc 1 199 0 discriminator 2
 211 0082 1F2C     		cmp	r4, #31
 212 0084 14D8     		bhi	.L36
 213              	.LVL21:
 200:..\common\ud3core\helper/printf.c ****       buf[len++] = 'x';
 214              		.loc 1 200 0 is_stmt 1
 215 0086 7822     		movs	r2, #120
 216 0088 09E0     		b	.L60
 217              	.LVL22:
 218              	.L18:
 201:..\common\ud3core\helper/printf.c ****     }
 202:..\common\ud3core\helper/printf.c ****     else if ((base == 16U) && (flags & FLAGS_UPPERCASE) && (len < PRINTF_NTOA_BUFFER_SIZE)) {
 219              		.loc 1 202 0 discriminator 2
 220 008a 1F2C     		cmp	r4, #31
 221 008c 10D8     		bhi	.L36
 222              	.LVL23:
 203:..\common\ud3core\helper/printf.c ****       buf[len++] = 'X';
 223              		.loc 1 203 0
 224 008e 5822     		movs	r2, #88
 225 0090 05E0     		b	.L60
 226              	.LVL24:
 227              	.L38:
 228 0092 0446     		mov	r4, r0
 229              	.LVL25:
 230              	.L16:
 204:..\common\ud3core\helper/printf.c ****     }
 205:..\common\ud3core\helper/printf.c ****     else if ((base == 2U) && (len < PRINTF_NTOA_BUFFER_SIZE)) {
 231              		.loc 1 205 0
 232 0094 022A     		cmp	r2, #2
 233 0096 04D1     		bne	.L20
 234              		.loc 1 205 0 is_stmt 0 discriminator 1
 235 0098 1F2C     		cmp	r4, #31
 236 009a 09D8     		bhi	.L36
 237              	.LVL26:
 206:..\common\ud3core\helper/printf.c ****       buf[len++] = 'b';
 238              		.loc 1 206 0 is_stmt 1
 239 009c 6222     		movs	r2, #98
 240              	.LVL27:
 241              	.L60:
 242 009e 2A55     		strb	r2, [r5, r4]
 243              	.LVL28:
ARM GAS  C:\Users\chemi\AppData\Local\Temp\ccvd4c4w.s 			page 9


 244 00a0 0134     		adds	r4, r4, #1
 245              	.L20:
 246              	.LVL29:
 207:..\common\ud3core\helper/printf.c ****     }
 208:..\common\ud3core\helper/printf.c ****     if (len < PRINTF_NTOA_BUFFER_SIZE) {
 247              		.loc 1 208 0
 248 00a2 1F2C     		cmp	r4, #31
 249 00a4 04D8     		bhi	.L36
 250              	.LVL30:
 209:..\common\ud3core\helper/printf.c ****       buf[len++] = '0';
 251              		.loc 1 209 0
 252 00a6 3022     		movs	r2, #48
 253 00a8 2A55     		strb	r2, [r5, r4]
 254 00aa 0134     		adds	r4, r4, #1
 255              	.LVL31:
 256 00ac 00E0     		b	.L36
 257              	.LVL32:
 258              	.L13:
 210:..\common\ud3core\helper/printf.c ****     }
 211:..\common\ud3core\helper/printf.c ****   }
 212:..\common\ud3core\helper/printf.c **** 
 213:..\common\ud3core\helper/printf.c ****   // handle sign
 214:..\common\ud3core\helper/printf.c ****   if (len && (len == width) && (negative || (flags & FLAGS_PLUS) || (flags & FLAGS_SPACE))) {
 259              		.loc 1 214 0
 260 00ae 44B1     		cbz	r4, .L21
 261              	.LVL33:
 262              	.L36:
 263              		.loc 1 214 0 is_stmt 0 discriminator 1
 264 00b0 A642     		cmp	r6, r4
 265 00b2 04D1     		bne	.L22
 266              		.loc 1 214 0 discriminator 2
 267 00b4 11B9     		cbnz	r1, .L23
 268              		.loc 1 214 0 discriminator 3
 269 00b6 13F00C0F 		tst	r3, #12
 270 00ba 05D0     		beq	.L24
 271              	.L23:
 215:..\common\ud3core\helper/printf.c ****     len--;
 272              		.loc 1 215 0 is_stmt 1
 273 00bc 741E     		subs	r4, r6, #1
 274              	.LVL34:
 275              	.L22:
 216:..\common\ud3core\helper/printf.c ****   }
 217:..\common\ud3core\helper/printf.c ****   if (len < PRINTF_NTOA_BUFFER_SIZE) {
 276              		.loc 1 217 0
 277 00be 1F2C     		cmp	r4, #31
 278 00c0 0ED8     		bhi	.L25
 279              	.L21:
 218:..\common\ud3core\helper/printf.c ****     if (negative) {
 280              		.loc 1 218 0
 281 00c2 21B1     		cbz	r1, .L26
 282              	.LVL35:
 219:..\common\ud3core\helper/printf.c ****       buf[len++] = '-';
 283              		.loc 1 219 0
 284 00c4 2D22     		movs	r2, #45
 285 00c6 09E0     		b	.L61
 286              	.LVL36:
 287              	.L24:
ARM GAS  C:\Users\chemi\AppData\Local\Temp\ccvd4c4w.s 			page 10


 217:..\common\ud3core\helper/printf.c ****     if (negative) {
 288              		.loc 1 217 0
 289 00c8 1F2E     		cmp	r6, #31
 290 00ca 3446     		mov	r4, r6
 291 00cc 08D8     		bhi	.L25
 292              	.LVL37:
 293              	.L26:
 220:..\common\ud3core\helper/printf.c ****     }
 221:..\common\ud3core\helper/printf.c ****     else if (flags & FLAGS_PLUS) {
 294              		.loc 1 221 0
 295 00ce 5907     		lsls	r1, r3, #29
 296 00d0 01D5     		bpl	.L27
 297              	.LVL38:
 222:..\common\ud3core\helper/printf.c ****       buf[len++] = '+';  // ignore the space if the '+' exists
 298              		.loc 1 222 0
 299 00d2 2B22     		movs	r2, #43
 300 00d4 02E0     		b	.L61
 301              	.LVL39:
 302              	.L27:
 223:..\common\ud3core\helper/printf.c ****     }
 224:..\common\ud3core\helper/printf.c ****     else if (flags & FLAGS_SPACE) {
 303              		.loc 1 224 0
 304 00d6 1A07     		lsls	r2, r3, #28
 305 00d8 02D5     		bpl	.L25
 306              	.LVL40:
 225:..\common\ud3core\helper/printf.c ****       buf[len++] = ' ';
 307              		.loc 1 225 0
 308 00da 2022     		movs	r2, #32
 309              	.LVL41:
 310              	.L61:
 311 00dc 2A55     		strb	r2, [r5, r4]
 312 00de 0134     		adds	r4, r4, #1
 313              	.L25:
 314              	.LVL42:
 226:..\common\ud3core\helper/printf.c ****     }
 227:..\common\ud3core\helper/printf.c ****   }
 228:..\common\ud3core\helper/printf.c **** 
 229:..\common\ud3core\helper/printf.c ****   // pad spaces up to given width
 230:..\common\ud3core\helper/printf.c ****   if (!(flags & FLAGS_LEFT) && !(flags & FLAGS_ZEROPAD)) {
 315              		.loc 1 230 0
 316 00e0 9B07     		lsls	r3, r3, #30
 317 00e2 4746     		mov	r7, r8
 318 00e4 02D1     		bne	.L28
 319              	.LVL43:
 320 00e6 C8EB040A 		rsb	r10, r8, r4
 321 00ea 03E0     		b	.L29
 322              	.LVL44:
 323              	.L28:
 324 00ec 2544     		add	r5, r5, r4
 325              	.LBB18:
 231:..\common\ud3core\helper/printf.c ****     for (size_t i = len; i < width; i++) {
 232:..\common\ud3core\helper/printf.c ****       out(' ', buffer, idx++, maxlen);
 326              		.loc 1 232 0 discriminator 1
 327 00ee 4FF0000A 		mov	r10, #0
 328 00f2 0CE0     		b	.L30
 329              	.LVL45:
 330              	.L29:
ARM GAS  C:\Users\chemi\AppData\Local\Temp\ccvd4c4w.s 			page 11


 231:..\common\ud3core\helper/printf.c ****     for (size_t i = len; i < width; i++) {
 331              		.loc 1 231 0 discriminator 1
 332 00f4 07EB0A03 		add	r3, r7, r10
 333 00f8 9E42     		cmp	r6, r3
 334 00fa F7D9     		bls	.L28
 335              		.loc 1 232 0 discriminator 3
 336 00fc 7B1C     		adds	r3, r7, #1
 337 00fe 0393     		str	r3, [sp, #12]
 338              	.LVL46:
 339 0100 3A46     		mov	r2, r7
 340 0102 4B46     		mov	r3, r9
 341              	.LVL47:
 342 0104 0199     		ldr	r1, [sp, #4]
 343 0106 2020     		movs	r0, #32
 344 0108 D847     		blx	fp
 345              	.LVL48:
 346 010a 039F     		ldr	r7, [sp, #12]
 347 010c F2E7     		b	.L29
 348              	.LVL49:
 349              	.L30:
 350              	.LBE18:
 351              	.LBB19:
 233:..\common\ud3core\helper/printf.c ****     }
 234:..\common\ud3core\helper/printf.c ****   }
 235:..\common\ud3core\helper/printf.c **** 
 236:..\common\ud3core\helper/printf.c ****   // reverse string
 237:..\common\ud3core\helper/printf.c ****   for (size_t i = 0U; i < len; i++) {
 352              		.loc 1 237 0 discriminator 1
 353 010e 5445     		cmp	r4, r10
 354 0110 0AEB0702 		add	r2, r10, r7
 355              	.LVL50:
 356 0114 07D0     		beq	.L64
 357              	.LVL51:
 238:..\common\ud3core\helper/printf.c ****     out(buf[len - i - 1U], buffer, idx++, maxlen);
 358              		.loc 1 238 0 discriminator 3
 359 0116 4B46     		mov	r3, r9
 360 0118 0199     		ldr	r1, [sp, #4]
 361 011a 15F8010D 		ldrb	r0, [r5, #-1]!	@ zero_extendqisi2
 362 011e D847     		blx	fp
 363              	.LVL52:
 237:..\common\ud3core\helper/printf.c ****     out(buf[len - i - 1U], buffer, idx++, maxlen);
 364              		.loc 1 237 0 discriminator 3
 365 0120 0AF1010A 		add	r10, r10, #1
 366              	.LVL53:
 367 0124 F3E7     		b	.L30
 368              	.LVL54:
 369              	.L64:
 370              	.LBE19:
 239:..\common\ud3core\helper/printf.c ****   }
 240:..\common\ud3core\helper/printf.c **** 
 241:..\common\ud3core\helper/printf.c ****   // append pad spaces up to given width
 242:..\common\ud3core\helper/printf.c ****   if (flags & FLAGS_LEFT) {
 371              		.loc 1 242 0
 372 0126 029B     		ldr	r3, [sp, #8]
 373 0128 53B1     		cbz	r3, .L47
 374              	.LVL55:
 375              	.L34:
ARM GAS  C:\Users\chemi\AppData\Local\Temp\ccvd4c4w.s 			page 12


 243:..\common\ud3core\helper/printf.c ****     while (idx - start_idx < width) {
 376              		.loc 1 243 0
 377 012a C8EB0203 		rsb	r3, r8, r2
 378 012e 9E42     		cmp	r6, r3
 379 0130 06D9     		bls	.L47
 244:..\common\ud3core\helper/printf.c ****       out(' ', buffer, idx++, maxlen);
 380              		.loc 1 244 0
 381 0132 541C     		adds	r4, r2, #1
 382              	.LVL56:
 383 0134 4B46     		mov	r3, r9
 384 0136 0199     		ldr	r1, [sp, #4]
 385 0138 2020     		movs	r0, #32
 386 013a D847     		blx	fp
 387              	.LVL57:
 388 013c 2246     		mov	r2, r4
 389 013e F4E7     		b	.L34
 390              	.LVL58:
 391              	.L47:
 245:..\common\ud3core\helper/printf.c ****     }
 246:..\common\ud3core\helper/printf.c ****   }
 247:..\common\ud3core\helper/printf.c **** 
 248:..\common\ud3core\helper/printf.c ****   return idx;
 249:..\common\ud3core\helper/printf.c **** }
 392              		.loc 1 249 0
 393 0140 1046     		mov	r0, r2
 394 0142 05B0     		add	sp, sp, #20
 395              		.cfi_def_cfa_offset 36
 396              		@ sp needed
 397 0144 BDE8F08F 		pop	{r4, r5, r6, r7, r8, r9, r10, fp, pc}
 398              		.cfi_endproc
 399              	.LFE75:
 400              		.size	_ntoa_format, .-_ntoa_format
 401              		.section	.text._ntoa_long,"ax",%progbits
 402              		.align	1
 403              		.thumb
 404              		.thumb_func
 405              		.type	_ntoa_long, %function
 406              	_ntoa_long:
 407              	.LFB76:
 250:..\common\ud3core\helper/printf.c **** 
 251:..\common\ud3core\helper/printf.c **** 
 252:..\common\ud3core\helper/printf.c **** // internal itoa for 'long' type
 253:..\common\ud3core\helper/printf.c **** static size_t _ntoa_long(out_fct_type out, char* buffer, size_t idx, size_t maxlen, unsigned long v
 254:..\common\ud3core\helper/printf.c **** {
 408              		.loc 1 254 0
 409              		.cfi_startproc
 410              		@ args = 24, pretend = 0, frame = 32
 411              		@ frame_needed = 0, uses_anonymous_args = 0
 412              	.LVL59:
 413 0000 2DE9F041 		push	{r4, r5, r6, r7, r8, lr}
 414              		.cfi_def_cfa_offset 24
 415              		.cfi_offset 4, -24
 416              		.cfi_offset 5, -20
 417              		.cfi_offset 6, -16
 418              		.cfi_offset 7, -12
 419              		.cfi_offset 8, -8
 420              		.cfi_offset 14, -4
ARM GAS  C:\Users\chemi\AppData\Local\Temp\ccvd4c4w.s 			page 13


 421 0004 90B0     		sub	sp, sp, #64
 422              		.cfi_def_cfa_offset 88
 423              		.loc 1 254 0
 424 0006 169D     		ldr	r5, [sp, #88]
 425 0008 DDF860E0 		ldr	lr, [sp, #96]
 426 000c 1B9F     		ldr	r7, [sp, #108]
 255:..\common\ud3core\helper/printf.c ****   char buf[PRINTF_NTOA_BUFFER_SIZE];
 256:..\common\ud3core\helper/printf.c ****   size_t len = 0U;
 257:..\common\ud3core\helper/printf.c **** 
 258:..\common\ud3core\helper/printf.c ****   // no hash for 0 values
 259:..\common\ud3core\helper/printf.c ****   if (!value) {
 427              		.loc 1 259 0
 428 000e 0DB9     		cbnz	r5, .L66
 260:..\common\ud3core\helper/printf.c ****     flags &= ~FLAGS_HASH;
 429              		.loc 1 260 0
 430 0010 27F01007 		bic	r7, r7, #16
 431              	.LVL60:
 432              	.L66:
 261:..\common\ud3core\helper/printf.c ****   }
 262:..\common\ud3core\helper/printf.c **** 
 263:..\common\ud3core\helper/printf.c ****   // write if precision != 0 and value is != 0
 264:..\common\ud3core\helper/printf.c ****   if (!(flags & FLAGS_PRECISION) || value) {
 433              		.loc 1 264 0
 434 0014 7C05     		lsls	r4, r7, #21
 435 0016 00D5     		bpl	.L67
 436              		.loc 1 264 0 is_stmt 0 discriminator 1
 437 0018 FDB1     		cbz	r5, .L72
 438              	.L67:
 439 001a 17F0200F 		tst	r7, #32
 440              	.LBB20:
 265:..\common\ud3core\helper/printf.c ****     do {
 266:..\common\ud3core\helper/printf.c ****       const char digit = (char)(value % base);
 267:..\common\ud3core\helper/printf.c ****       buf[len++] = digit < 10 ? '0' + digit : (flags & FLAGS_UPPERCASE ? 'A' : 'a') + digit - 10;
 441              		.loc 1 267 0 is_stmt 1
 442 001e 4FF00006 		mov	r6, #0
 443 0022 14BF     		ite	ne
 444 0024 4FF0370C 		movne	ip, #55
 445 0028 4FF0570C 		moveq	ip, #87
 446              	.LVL61:
 447              	.L71:
 266:..\common\ud3core\helper/printf.c ****       buf[len++] = digit < 10 ? '0' + digit : (flags & FLAGS_UPPERCASE ? 'A' : 'a') + digit - 10;
 448              		.loc 1 266 0
 449 002c B5FBFEF4 		udiv	r4, r5, lr
 450 0030 0EFB1454 		mls	r4, lr, r4, r5
 268:..\common\ud3core\helper/printf.c ****       value /= base;
 451              		.loc 1 268 0
 452 0034 B5FBFEF5 		udiv	r5, r5, lr
 453              	.LVL62:
 266:..\common\ud3core\helper/printf.c ****       buf[len++] = digit < 10 ? '0' + digit : (flags & FLAGS_UPPERCASE ? 'A' : 'a') + digit - 10;
 454              		.loc 1 266 0
 455 0038 E4B2     		uxtb	r4, r4
 456              	.LVL63:
 267:..\common\ud3core\helper/printf.c ****       value /= base;
 457              		.loc 1 267 0
 458 003a 092C     		cmp	r4, #9
 459 003c 06F10106 		add	r6, r6, #1
 460              	.LVL64:
ARM GAS  C:\Users\chemi\AppData\Local\Temp\ccvd4c4w.s 			page 14


 461 0040 94BF     		ite	ls
 462 0042 3034     		addls	r4, r4, #48
 463              	.LVL65:
 464 0044 6444     		addhi	r4, r4, ip
 465 0046 0DF12008 		add	r8, sp, #32
 466 004a E4B2     		uxtb	r4, r4
 467 004c B044     		add	r8, r8, r6
 468 004e 08F8014C 		strb	r4, [r8, #-1]
 469              	.LBE20:
 269:..\common\ud3core\helper/printf.c ****     } while (value && (len < PRINTF_NTOA_BUFFER_SIZE));
 470              		.loc 1 269 0
 471 0052 1DB1     		cbz	r5, .L68
 472              		.loc 1 269 0 is_stmt 0 discriminator 1
 473 0054 202E     		cmp	r6, #32
 474 0056 E9D1     		bne	.L71
 475 0058 00E0     		b	.L68
 476              	.LVL66:
 477              	.L72:
 256:..\common\ud3core\helper/printf.c **** 
 478              		.loc 1 256 0 is_stmt 1
 479 005a 2E46     		mov	r6, r5
 480              	.LVL67:
 481              	.L68:
 270:..\common\ud3core\helper/printf.c ****   }
 271:..\common\ud3core\helper/printf.c **** 
 272:..\common\ud3core\helper/printf.c ****   return _ntoa_format(out, buffer, idx, maxlen, buf, len, negative, (unsigned int)base, prec, width
 482              		.loc 1 272 0
 483 005c 1A9C     		ldr	r4, [sp, #104]
 484 005e 0697     		str	r7, [sp, #24]
 485 0060 0594     		str	r4, [sp, #20]
 486 0062 199C     		ldr	r4, [sp, #100]
 487 0064 CDF80CE0 		str	lr, [sp, #12]
 488 0068 0494     		str	r4, [sp, #16]
 489 006a 9DF85C40 		ldrb	r4, [sp, #92]	@ zero_extendqisi2
 490 006e 0196     		str	r6, [sp, #4]
 491 0070 0294     		str	r4, [sp, #8]
 492 0072 08AC     		add	r4, sp, #32
 493 0074 0094     		str	r4, [sp]
 494 0076 FFF7FEFF 		bl	_ntoa_format
 495              	.LVL68:
 273:..\common\ud3core\helper/printf.c **** }
 496              		.loc 1 273 0
 497 007a 10B0     		add	sp, sp, #64
 498              		.cfi_def_cfa_offset 24
 499              		@ sp needed
 500 007c BDE8F081 		pop	{r4, r5, r6, r7, r8, pc}
 501              		.cfi_endproc
 502              	.LFE76:
 503              		.size	_ntoa_long, .-_ntoa_long
 504              		.global	__aeabi_uldivmod
 505              		.section	.text._ntoa_long_long,"ax",%progbits
 506              		.align	1
 507              		.thumb
 508              		.thumb_func
 509              		.type	_ntoa_long_long, %function
 510              	_ntoa_long_long:
 511              	.LFB77:
ARM GAS  C:\Users\chemi\AppData\Local\Temp\ccvd4c4w.s 			page 15


 274:..\common\ud3core\helper/printf.c **** 
 275:..\common\ud3core\helper/printf.c **** 
 276:..\common\ud3core\helper/printf.c **** // internal itoa for 'long long' type
 277:..\common\ud3core\helper/printf.c **** #if defined(PRINTF_SUPPORT_LONG_LONG)
 278:..\common\ud3core\helper/printf.c **** static size_t _ntoa_long_long(out_fct_type out, char* buffer, size_t idx, size_t maxlen, unsigned l
 279:..\common\ud3core\helper/printf.c **** {
 512              		.loc 1 279 0
 513              		.cfi_startproc
 514              		@ args = 36, pretend = 0, frame = 48
 515              		@ frame_needed = 0, uses_anonymous_args = 0
 516              	.LVL69:
 517 0000 2DE9F04F 		push	{r4, r5, r6, r7, r8, r9, r10, fp, lr}
 518              		.cfi_def_cfa_offset 36
 519              		.cfi_offset 4, -36
 520              		.cfi_offset 5, -32
 521              		.cfi_offset 6, -28
 522              		.cfi_offset 7, -24
 523              		.cfi_offset 8, -20
 524              		.cfi_offset 9, -16
 525              		.cfi_offset 10, -12
 526              		.cfi_offset 11, -8
 527              		.cfi_offset 14, -4
 528 0004 95B0     		sub	sp, sp, #84
 529              		.cfi_def_cfa_offset 120
 530              		.loc 1 279 0
 531 0006 269D     		ldr	r5, [sp, #152]
 532 0008 9B46     		mov	fp, r3
 533 000a DDE91E89 		ldrd	r8, [sp, #120]
 280:..\common\ud3core\helper/printf.c ****   char buf[PRINTF_NTOA_BUFFER_SIZE];
 281:..\common\ud3core\helper/printf.c ****   size_t len = 0U;
 282:..\common\ud3core\helper/printf.c **** 
 283:..\common\ud3core\helper/printf.c ****   // no hash for 0 values
 284:..\common\ud3core\helper/printf.c ****   if (!value) {
 534              		.loc 1 284 0
 535 000e 58EA0903 		orrs	r3, r8, r9
 536              	.LVL70:
 285:..\common\ud3core\helper/printf.c ****     flags &= ~FLAGS_HASH;
 537              		.loc 1 285 0
 538 0012 08BF     		it	eq
 539 0014 25F01005 		biceq	r5, r5, #16
 540              	.LVL71:
 279:..\common\ud3core\helper/printf.c ****   char buf[PRINTF_NTOA_BUFFER_SIZE];
 541              		.loc 1 279 0
 542 0018 9246     		mov	r10, r2
 286:..\common\ud3core\helper/printf.c ****   }
 287:..\common\ud3core\helper/printf.c **** 
 288:..\common\ud3core\helper/printf.c ****   // write if precision != 0 and value is != 0
 289:..\common\ud3core\helper/printf.c ****   if (!(flags & FLAGS_PRECISION) || value) {
 543              		.loc 1 289 0
 544 001a 6A05     		lsls	r2, r5, #21
 545              	.LVL72:
 279:..\common\ud3core\helper/printf.c ****   char buf[PRINTF_NTOA_BUFFER_SIZE];
 546              		.loc 1 279 0
 547 001c 0990     		str	r0, [sp, #36]
 548 001e 0A91     		str	r1, [sp, #40]
 549 0020 229E     		ldr	r6, [sp, #136]
 550 0022 239F     		ldr	r7, [sp, #140]
ARM GAS  C:\Users\chemi\AppData\Local\Temp\ccvd4c4w.s 			page 16


 551              		.loc 1 289 0
 552 0024 02D5     		bpl	.L83
 553              		.loc 1 289 0 is_stmt 0 discriminator 1
 554 0026 58EA0903 		orrs	r3, r8, r9
 555 002a 26D0     		beq	.L88
 556              	.L83:
 557 002c 15F0200F 		tst	r5, #32
 558              	.LBB21:
 290:..\common\ud3core\helper/printf.c ****     do {
 291:..\common\ud3core\helper/printf.c ****       const char digit = (char)(value % base);
 292:..\common\ud3core\helper/printf.c ****       buf[len++] = digit < 10 ? '0' + digit : (flags & FLAGS_UPPERCASE ? 'A' : 'a') + digit - 10;
 559              		.loc 1 292 0 is_stmt 1
 560 0030 14BF     		ite	ne
 561 0032 3723     		movne	r3, #55
 562 0034 5723     		moveq	r3, #87
 563 0036 0024     		movs	r4, #0
 564 0038 0B93     		str	r3, [sp, #44]
 565              	.LVL73:
 566              	.L87:
 291:..\common\ud3core\helper/printf.c ****       buf[len++] = digit < 10 ? '0' + digit : (flags & FLAGS_UPPERCASE ? 'A' : 'a') + digit - 10;
 567              		.loc 1 291 0
 568 003a 4046     		mov	r0, r8
 569 003c 4946     		mov	r1, r9
 570 003e 3246     		mov	r2, r6
 571 0040 3B46     		mov	r3, r7
 572 0042 FFF7FEFF 		bl	__aeabi_uldivmod
 573              	.LVL74:
 574 0046 D2B2     		uxtb	r2, r2
 575              	.LVL75:
 576              		.loc 1 292 0
 577 0048 092A     		cmp	r2, #9
 578 004a 8ABF     		itet	hi
 579 004c 0B9B     		ldrhi	r3, [sp, #44]
 580 004e 3032     		addls	r2, r2, #48
 581              	.LVL76:
 582 0050 D218     		addhi	r2, r2, r3
 583 0052 0134     		adds	r4, r4, #1
 584              	.LVL77:
 585 0054 0CAB     		add	r3, sp, #48
 586 0056 D2B2     		uxtb	r2, r2
 587 0058 2344     		add	r3, r3, r4
 588 005a 03F8012C 		strb	r2, [r3, #-1]
 293:..\common\ud3core\helper/printf.c ****       value /= base;
 589              		.loc 1 293 0
 590 005e 4046     		mov	r0, r8
 591 0060 3B46     		mov	r3, r7
 592 0062 4946     		mov	r1, r9
 593 0064 3246     		mov	r2, r6
 594 0066 FFF7FEFF 		bl	__aeabi_uldivmod
 595              	.LVL78:
 596 006a 8046     		mov	r8, r0
 597              	.LVL79:
 598 006c 8946     		mov	r9, r1
 599              	.LVL80:
 600              	.LBE21:
 294:..\common\ud3core\helper/printf.c ****     } while (value && (len < PRINTF_NTOA_BUFFER_SIZE));
 601              		.loc 1 294 0
ARM GAS  C:\Users\chemi\AppData\Local\Temp\ccvd4c4w.s 			page 17


 602 006e 58EA0903 		orrs	r3, r8, r9
 603 0072 03D0     		beq	.L84
 604              		.loc 1 294 0 is_stmt 0 discriminator 1
 605 0074 202C     		cmp	r4, #32
 606 0076 E0D1     		bne	.L87
 607 0078 00E0     		b	.L84
 608              	.LVL81:
 609              	.L88:
 281:..\common\ud3core\helper/printf.c **** 
 610              		.loc 1 281 0 is_stmt 1
 611 007a 0024     		movs	r4, #0
 612              	.LVL82:
 613              	.L84:
 295:..\common\ud3core\helper/printf.c ****   }
 296:..\common\ud3core\helper/printf.c **** 
 297:..\common\ud3core\helper/printf.c ****   return _ntoa_format(out, buffer, idx, maxlen, buf, len, negative, (unsigned int)base, prec, width
 614              		.loc 1 297 0
 615 007c 259B     		ldr	r3, [sp, #148]
 616 007e 0695     		str	r5, [sp, #24]
 617 0080 0593     		str	r3, [sp, #20]
 618 0082 249B     		ldr	r3, [sp, #144]
 619 0084 0396     		str	r6, [sp, #12]
 620 0086 0493     		str	r3, [sp, #16]
 621 0088 9DF88030 		ldrb	r3, [sp, #128]	@ zero_extendqisi2
 622 008c 0194     		str	r4, [sp, #4]
 623 008e 0293     		str	r3, [sp, #8]
 624 0090 0CAB     		add	r3, sp, #48
 625 0092 0093     		str	r3, [sp]
 626 0094 5246     		mov	r2, r10
 627 0096 5B46     		mov	r3, fp
 628 0098 0A99     		ldr	r1, [sp, #40]
 629 009a 0998     		ldr	r0, [sp, #36]
 630 009c FFF7FEFF 		bl	_ntoa_format
 631              	.LVL83:
 298:..\common\ud3core\helper/printf.c **** }
 632              		.loc 1 298 0
 633 00a0 15B0     		add	sp, sp, #84
 634              		.cfi_def_cfa_offset 36
 635              		@ sp needed
 636 00a2 BDE8F08F 		pop	{r4, r5, r6, r7, r8, r9, r10, fp, pc}
 637              		.cfi_endproc
 638              	.LFE77:
 639              		.size	_ntoa_long_long, .-_ntoa_long_long
 640              		.section	.text._out_char,"ax",%progbits
 641              		.align	1
 642              		.thumb
 643              		.thumb_func
 644              		.type	_out_char, %function
 645              	_out_char:
 646              	.LFB70:
 129:..\common\ud3core\helper/printf.c ****   (void)buffer; (void)idx; (void)maxlen;
 647              		.loc 1 129 0
 648              		.cfi_startproc
 649              		@ args = 0, pretend = 0, frame = 0
 650              		@ frame_needed = 0, uses_anonymous_args = 0
 651              		@ link register save eliminated.
 652              	.LVL84:
ARM GAS  C:\Users\chemi\AppData\Local\Temp\ccvd4c4w.s 			page 18


 131:..\common\ud3core\helper/printf.c ****     _putchar(character);
 653              		.loc 1 131 0
 654 0000 08B1     		cbz	r0, .L97
 132:..\common\ud3core\helper/printf.c ****   }
 655              		.loc 1 132 0
 656 0002 FFF7FEBF 		b	_putchar
 657              	.LVL85:
 658              	.L97:
 659 0006 7047     		bx	lr
 660              		.cfi_endproc
 661              	.LFE70:
 662              		.size	_out_char, .-_out_char
 663              		.section	.text.send_stream,"ax",%progbits
 664              		.align	1
 665              		.global	send_stream
 666              		.thumb
 667              		.thumb_func
 668              		.type	send_stream, %function
 669              	send_stream:
 670              	.LFB85:
 299:..\common\ud3core\helper/printf.c **** #endif  // PRINTF_SUPPORT_LONG_LONG
 300:..\common\ud3core\helper/printf.c **** 
 301:..\common\ud3core\helper/printf.c **** 
 302:..\common\ud3core\helper/printf.c **** #if defined(PRINTF_SUPPORT_FLOAT)
 303:..\common\ud3core\helper/printf.c **** static size_t _ftoa(out_fct_type out, char* buffer, size_t idx, size_t maxlen, double value, unsign
 304:..\common\ud3core\helper/printf.c **** {
 305:..\common\ud3core\helper/printf.c ****   const size_t start_idx = idx;
 306:..\common\ud3core\helper/printf.c **** 
 307:..\common\ud3core\helper/printf.c ****   char buf[PRINTF_FTOA_BUFFER_SIZE];
 308:..\common\ud3core\helper/printf.c ****   size_t len  = 0U;
 309:..\common\ud3core\helper/printf.c ****   double diff = 0.0;
 310:..\common\ud3core\helper/printf.c **** 
 311:..\common\ud3core\helper/printf.c ****   // if input is larger than thres_max, revert to exponential
 312:..\common\ud3core\helper/printf.c ****   const double thres_max = (double)0x7FFFFFFF;
 313:..\common\ud3core\helper/printf.c **** 
 314:..\common\ud3core\helper/printf.c ****   // powers of 10
 315:..\common\ud3core\helper/printf.c ****   static const double pow10[] = { 1, 10, 100, 1000, 10000, 100000, 1000000, 10000000, 100000000, 10
 316:..\common\ud3core\helper/printf.c **** 
 317:..\common\ud3core\helper/printf.c ****   // test for negative
 318:..\common\ud3core\helper/printf.c ****   bool negative = false;
 319:..\common\ud3core\helper/printf.c ****   if (value < 0) {
 320:..\common\ud3core\helper/printf.c ****     negative = true;
 321:..\common\ud3core\helper/printf.c ****     value = 0 - value;
 322:..\common\ud3core\helper/printf.c ****   }
 323:..\common\ud3core\helper/printf.c **** 
 324:..\common\ud3core\helper/printf.c ****   // set default precision to 6, if not set explicitly
 325:..\common\ud3core\helper/printf.c ****   if (!(flags & FLAGS_PRECISION)) {
 326:..\common\ud3core\helper/printf.c ****     prec = 6U;
 327:..\common\ud3core\helper/printf.c ****   }
 328:..\common\ud3core\helper/printf.c ****   // limit precision to 9, cause a prec >= 10 can lead to overflow errors
 329:..\common\ud3core\helper/printf.c ****   while ((len < PRINTF_FTOA_BUFFER_SIZE) && (prec > 9U)) {
 330:..\common\ud3core\helper/printf.c ****     buf[len++] = '0';
 331:..\common\ud3core\helper/printf.c ****     prec--;
 332:..\common\ud3core\helper/printf.c ****   }
 333:..\common\ud3core\helper/printf.c **** 
 334:..\common\ud3core\helper/printf.c ****   int whole = (int)value;
 335:..\common\ud3core\helper/printf.c ****   double tmp = (value - whole) * pow10[prec];
ARM GAS  C:\Users\chemi\AppData\Local\Temp\ccvd4c4w.s 			page 19


 336:..\common\ud3core\helper/printf.c ****   unsigned long frac = (unsigned long)tmp;
 337:..\common\ud3core\helper/printf.c ****   diff = tmp - frac;
 338:..\common\ud3core\helper/printf.c **** 
 339:..\common\ud3core\helper/printf.c ****   if (diff > 0.5) {
 340:..\common\ud3core\helper/printf.c ****     ++frac;
 341:..\common\ud3core\helper/printf.c ****     // handle rollover, e.g. case 0.99 with prec 1 is 1.0
 342:..\common\ud3core\helper/printf.c ****     if (frac >= pow10[prec]) {
 343:..\common\ud3core\helper/printf.c ****       frac = 0;
 344:..\common\ud3core\helper/printf.c ****       ++whole;
 345:..\common\ud3core\helper/printf.c ****     }
 346:..\common\ud3core\helper/printf.c ****   }
 347:..\common\ud3core\helper/printf.c ****   else if ((diff == 0.5) && ((frac == 0U) || (frac & 1U))) {
 348:..\common\ud3core\helper/printf.c ****     // if halfway, round up if odd, OR if last digit is 0
 349:..\common\ud3core\helper/printf.c ****     ++frac;
 350:..\common\ud3core\helper/printf.c ****   }
 351:..\common\ud3core\helper/printf.c **** 
 352:..\common\ud3core\helper/printf.c ****   // TBD: for very large numbers switch back to native sprintf for exponentials. Anyone want to wri
 353:..\common\ud3core\helper/printf.c ****   // Normal printf behavior is to print EVERY whole number digit which can be 100s of characters ov
 354:..\common\ud3core\helper/printf.c ****   if (value > thres_max) {
 355:..\common\ud3core\helper/printf.c ****     return 0U;
 356:..\common\ud3core\helper/printf.c ****   }
 357:..\common\ud3core\helper/printf.c **** 
 358:..\common\ud3core\helper/printf.c ****   if (prec == 0U) {
 359:..\common\ud3core\helper/printf.c ****     diff = value - (double)whole;
 360:..\common\ud3core\helper/printf.c ****     if (diff > 0.5) {
 361:..\common\ud3core\helper/printf.c ****       // greater than 0.5, round up, e.g. 1.6 -> 2
 362:..\common\ud3core\helper/printf.c ****       ++whole;
 363:..\common\ud3core\helper/printf.c ****     }
 364:..\common\ud3core\helper/printf.c ****     else if ((diff == 0.5) && (whole & 1)) {
 365:..\common\ud3core\helper/printf.c ****       // exactly 0.5 and ODD, then round up
 366:..\common\ud3core\helper/printf.c ****       // 1.5 -> 2, but 2.5 -> 2
 367:..\common\ud3core\helper/printf.c ****       ++whole;
 368:..\common\ud3core\helper/printf.c ****     }
 369:..\common\ud3core\helper/printf.c ****   }
 370:..\common\ud3core\helper/printf.c ****   else {
 371:..\common\ud3core\helper/printf.c ****     unsigned int count = prec;
 372:..\common\ud3core\helper/printf.c ****     // now do fractional part, as an unsigned number
 373:..\common\ud3core\helper/printf.c ****     while (len < PRINTF_FTOA_BUFFER_SIZE) {
 374:..\common\ud3core\helper/printf.c ****       --count;
 375:..\common\ud3core\helper/printf.c ****       buf[len++] = (char)(48U + (frac % 10U));
 376:..\common\ud3core\helper/printf.c ****       if (!(frac /= 10U)) {
 377:..\common\ud3core\helper/printf.c ****         break;
 378:..\common\ud3core\helper/printf.c ****       }
 379:..\common\ud3core\helper/printf.c ****     }
 380:..\common\ud3core\helper/printf.c ****     // add extra 0s
 381:..\common\ud3core\helper/printf.c ****     while ((len < PRINTF_FTOA_BUFFER_SIZE) && (count-- > 0U)) {
 382:..\common\ud3core\helper/printf.c ****       buf[len++] = '0';
 383:..\common\ud3core\helper/printf.c ****     }
 384:..\common\ud3core\helper/printf.c ****     if (len < PRINTF_FTOA_BUFFER_SIZE) {
 385:..\common\ud3core\helper/printf.c ****       // add decimal
 386:..\common\ud3core\helper/printf.c ****       buf[len++] = '.';
 387:..\common\ud3core\helper/printf.c ****     }
 388:..\common\ud3core\helper/printf.c ****   }
 389:..\common\ud3core\helper/printf.c **** 
 390:..\common\ud3core\helper/printf.c ****   // do whole part, number is reversed
 391:..\common\ud3core\helper/printf.c ****   while (len < PRINTF_FTOA_BUFFER_SIZE) {
 392:..\common\ud3core\helper/printf.c ****     buf[len++] = (char)(48 + (whole % 10));
ARM GAS  C:\Users\chemi\AppData\Local\Temp\ccvd4c4w.s 			page 20


 393:..\common\ud3core\helper/printf.c ****     if (!(whole /= 10)) {
 394:..\common\ud3core\helper/printf.c ****       break;
 395:..\common\ud3core\helper/printf.c ****     }
 396:..\common\ud3core\helper/printf.c ****   }
 397:..\common\ud3core\helper/printf.c **** 
 398:..\common\ud3core\helper/printf.c ****   // pad leading zeros
 399:..\common\ud3core\helper/printf.c ****   if (!(flags & FLAGS_LEFT) && (flags & FLAGS_ZEROPAD)) {
 400:..\common\ud3core\helper/printf.c ****     while ((len < width) && (len < PRINTF_FTOA_BUFFER_SIZE)) {
 401:..\common\ud3core\helper/printf.c ****       buf[len++] = '0';
 402:..\common\ud3core\helper/printf.c ****     }
 403:..\common\ud3core\helper/printf.c ****   }
 404:..\common\ud3core\helper/printf.c **** 
 405:..\common\ud3core\helper/printf.c ****   // handle sign
 406:..\common\ud3core\helper/printf.c ****   if ((len == width) && (negative || (flags & FLAGS_PLUS) || (flags & FLAGS_SPACE))) {
 407:..\common\ud3core\helper/printf.c ****     len--;
 408:..\common\ud3core\helper/printf.c ****   }
 409:..\common\ud3core\helper/printf.c ****   if (len < PRINTF_FTOA_BUFFER_SIZE) {
 410:..\common\ud3core\helper/printf.c ****     if (negative) {
 411:..\common\ud3core\helper/printf.c ****       buf[len++] = '-';
 412:..\common\ud3core\helper/printf.c ****     }
 413:..\common\ud3core\helper/printf.c ****     else if (flags & FLAGS_PLUS) {
 414:..\common\ud3core\helper/printf.c ****       buf[len++] = '+';  // ignore the space if the '+' exists
 415:..\common\ud3core\helper/printf.c ****     }
 416:..\common\ud3core\helper/printf.c ****     else if (flags & FLAGS_SPACE) {
 417:..\common\ud3core\helper/printf.c ****       buf[len++] = ' ';
 418:..\common\ud3core\helper/printf.c ****     }
 419:..\common\ud3core\helper/printf.c ****   }
 420:..\common\ud3core\helper/printf.c **** 
 421:..\common\ud3core\helper/printf.c ****   // pad spaces up to given width
 422:..\common\ud3core\helper/printf.c ****   if (!(flags & FLAGS_LEFT) && !(flags & FLAGS_ZEROPAD)) {
 423:..\common\ud3core\helper/printf.c ****     for (size_t i = len; i < width; i++) {
 424:..\common\ud3core\helper/printf.c ****       out(' ', buffer, idx++, maxlen);
 425:..\common\ud3core\helper/printf.c ****     }
 426:..\common\ud3core\helper/printf.c ****   }
 427:..\common\ud3core\helper/printf.c **** 
 428:..\common\ud3core\helper/printf.c ****   // reverse string
 429:..\common\ud3core\helper/printf.c ****   for (size_t i = 0U; i < len; i++) {
 430:..\common\ud3core\helper/printf.c ****     out(buf[len - i - 1U], buffer, idx++, maxlen);
 431:..\common\ud3core\helper/printf.c ****   }
 432:..\common\ud3core\helper/printf.c **** 
 433:..\common\ud3core\helper/printf.c ****   // append pad spaces up to given width
 434:..\common\ud3core\helper/printf.c ****   if (flags & FLAGS_LEFT) {
 435:..\common\ud3core\helper/printf.c ****     while (idx - start_idx < width) {
 436:..\common\ud3core\helper/printf.c ****       out(' ', buffer, idx++, maxlen);
 437:..\common\ud3core\helper/printf.c ****     }
 438:..\common\ud3core\helper/printf.c ****   }
 439:..\common\ud3core\helper/printf.c **** 
 440:..\common\ud3core\helper/printf.c ****   return idx;
 441:..\common\ud3core\helper/printf.c **** }
 442:..\common\ud3core\helper/printf.c **** #endif  // PRINTF_SUPPORT_FLOAT
 443:..\common\ud3core\helper/printf.c **** 
 444:..\common\ud3core\helper/printf.c **** 
 445:..\common\ud3core\helper/printf.c **** // internal vsnprintf
 446:..\common\ud3core\helper/printf.c **** static int _vsnprintf(out_fct_type out, char* buffer, const size_t maxlen, const char* format, va_l
 447:..\common\ud3core\helper/printf.c **** {
 448:..\common\ud3core\helper/printf.c ****   unsigned int flags, width, precision, n;
 449:..\common\ud3core\helper/printf.c ****   size_t idx = 0U;
ARM GAS  C:\Users\chemi\AppData\Local\Temp\ccvd4c4w.s 			page 21


 450:..\common\ud3core\helper/printf.c **** 
 451:..\common\ud3core\helper/printf.c ****   if (!buffer) {
 452:..\common\ud3core\helper/printf.c ****     // use null output function
 453:..\common\ud3core\helper/printf.c ****     out = _out_null;
 454:..\common\ud3core\helper/printf.c ****   }
 455:..\common\ud3core\helper/printf.c **** 
 456:..\common\ud3core\helper/printf.c ****   while (*format)
 457:..\common\ud3core\helper/printf.c ****   {
 458:..\common\ud3core\helper/printf.c ****     // format specifier?  %[flags][width][.precision][length]
 459:..\common\ud3core\helper/printf.c ****     if (*format != '%') {
 460:..\common\ud3core\helper/printf.c ****       // no
 461:..\common\ud3core\helper/printf.c ****       out(*format, buffer, idx++, maxlen);
 462:..\common\ud3core\helper/printf.c ****       format++;
 463:..\common\ud3core\helper/printf.c ****       continue;
 464:..\common\ud3core\helper/printf.c ****     }
 465:..\common\ud3core\helper/printf.c ****     else {
 466:..\common\ud3core\helper/printf.c ****       // yes, evaluate it
 467:..\common\ud3core\helper/printf.c ****       format++;
 468:..\common\ud3core\helper/printf.c ****     }
 469:..\common\ud3core\helper/printf.c **** 
 470:..\common\ud3core\helper/printf.c ****     // evaluate flags
 471:..\common\ud3core\helper/printf.c ****     flags = 0U;
 472:..\common\ud3core\helper/printf.c ****     do {
 473:..\common\ud3core\helper/printf.c ****       switch (*format) {
 474:..\common\ud3core\helper/printf.c ****         case '0': flags |= FLAGS_ZEROPAD; format++; n = 1U; break;
 475:..\common\ud3core\helper/printf.c ****         case '-': flags |= FLAGS_LEFT;    format++; n = 1U; break;
 476:..\common\ud3core\helper/printf.c ****         case '+': flags |= FLAGS_PLUS;    format++; n = 1U; break;
 477:..\common\ud3core\helper/printf.c ****         case ' ': flags |= FLAGS_SPACE;   format++; n = 1U; break;
 478:..\common\ud3core\helper/printf.c ****         case '#': flags |= FLAGS_HASH;    format++; n = 1U; break;
 479:..\common\ud3core\helper/printf.c ****         default :                                   n = 0U; break;
 480:..\common\ud3core\helper/printf.c ****       }
 481:..\common\ud3core\helper/printf.c ****     } while (n);
 482:..\common\ud3core\helper/printf.c **** 
 483:..\common\ud3core\helper/printf.c ****     // evaluate width field
 484:..\common\ud3core\helper/printf.c ****     width = 0U;
 485:..\common\ud3core\helper/printf.c ****     if (_is_digit(*format)) {
 486:..\common\ud3core\helper/printf.c ****       width = _atoi(&format);
 487:..\common\ud3core\helper/printf.c ****     }
 488:..\common\ud3core\helper/printf.c ****     else if (*format == '*') {
 489:..\common\ud3core\helper/printf.c ****       const int w = va_arg(va, int);
 490:..\common\ud3core\helper/printf.c ****       if (w < 0) {
 491:..\common\ud3core\helper/printf.c ****         flags |= FLAGS_LEFT;    // reverse padding
 492:..\common\ud3core\helper/printf.c ****         width = (unsigned int)-w;
 493:..\common\ud3core\helper/printf.c ****       }
 494:..\common\ud3core\helper/printf.c ****       else {
 495:..\common\ud3core\helper/printf.c ****         width = (unsigned int)w;
 496:..\common\ud3core\helper/printf.c ****       }
 497:..\common\ud3core\helper/printf.c ****       format++;
 498:..\common\ud3core\helper/printf.c ****     }
 499:..\common\ud3core\helper/printf.c **** 
 500:..\common\ud3core\helper/printf.c ****     // evaluate precision field
 501:..\common\ud3core\helper/printf.c ****     precision = 0U;
 502:..\common\ud3core\helper/printf.c ****     if (*format == '.') {
 503:..\common\ud3core\helper/printf.c ****       flags |= FLAGS_PRECISION;
 504:..\common\ud3core\helper/printf.c ****       format++;
 505:..\common\ud3core\helper/printf.c ****       if (_is_digit(*format)) {
 506:..\common\ud3core\helper/printf.c ****         precision = _atoi(&format);
ARM GAS  C:\Users\chemi\AppData\Local\Temp\ccvd4c4w.s 			page 22


 507:..\common\ud3core\helper/printf.c ****       }
 508:..\common\ud3core\helper/printf.c ****       else if (*format == '*') {
 509:..\common\ud3core\helper/printf.c ****         const int prec = (int)va_arg(va, int);
 510:..\common\ud3core\helper/printf.c ****         precision = prec > 0 ? (unsigned int)prec : 0U;
 511:..\common\ud3core\helper/printf.c ****         format++;
 512:..\common\ud3core\helper/printf.c ****       }
 513:..\common\ud3core\helper/printf.c ****     }
 514:..\common\ud3core\helper/printf.c **** 
 515:..\common\ud3core\helper/printf.c ****     // evaluate length field
 516:..\common\ud3core\helper/printf.c ****     switch (*format) {
 517:..\common\ud3core\helper/printf.c ****       case 'l' :
 518:..\common\ud3core\helper/printf.c ****         flags |= FLAGS_LONG;
 519:..\common\ud3core\helper/printf.c ****         format++;
 520:..\common\ud3core\helper/printf.c ****         if (*format == 'l') {
 521:..\common\ud3core\helper/printf.c ****           flags |= FLAGS_LONG_LONG;
 522:..\common\ud3core\helper/printf.c ****           format++;
 523:..\common\ud3core\helper/printf.c ****         }
 524:..\common\ud3core\helper/printf.c ****         break;
 525:..\common\ud3core\helper/printf.c ****       case 'h' :
 526:..\common\ud3core\helper/printf.c ****         flags |= FLAGS_SHORT;
 527:..\common\ud3core\helper/printf.c ****         format++;
 528:..\common\ud3core\helper/printf.c ****         if (*format == 'h') {
 529:..\common\ud3core\helper/printf.c ****           flags |= FLAGS_CHAR;
 530:..\common\ud3core\helper/printf.c ****           format++;
 531:..\common\ud3core\helper/printf.c ****         }
 532:..\common\ud3core\helper/printf.c ****         break;
 533:..\common\ud3core\helper/printf.c **** #if defined(PRINTF_SUPPORT_PTRDIFF_T)
 534:..\common\ud3core\helper/printf.c ****       case 't' :
 535:..\common\ud3core\helper/printf.c ****         flags |= (sizeof(ptrdiff_t) == sizeof(long) ? FLAGS_LONG : FLAGS_LONG_LONG);
 536:..\common\ud3core\helper/printf.c ****         format++;
 537:..\common\ud3core\helper/printf.c ****         break;
 538:..\common\ud3core\helper/printf.c **** #endif
 539:..\common\ud3core\helper/printf.c ****       case 'j' :
 540:..\common\ud3core\helper/printf.c ****         flags |= (sizeof(intmax_t) == sizeof(long) ? FLAGS_LONG : FLAGS_LONG_LONG);
 541:..\common\ud3core\helper/printf.c ****         format++;
 542:..\common\ud3core\helper/printf.c ****         break;
 543:..\common\ud3core\helper/printf.c ****       case 'z' :
 544:..\common\ud3core\helper/printf.c ****         flags |= (sizeof(size_t) == sizeof(long) ? FLAGS_LONG : FLAGS_LONG_LONG);
 545:..\common\ud3core\helper/printf.c ****         format++;
 546:..\common\ud3core\helper/printf.c ****         break;
 547:..\common\ud3core\helper/printf.c ****       default :
 548:..\common\ud3core\helper/printf.c ****         break;
 549:..\common\ud3core\helper/printf.c ****     }
 550:..\common\ud3core\helper/printf.c **** 
 551:..\common\ud3core\helper/printf.c ****     // evaluate specifier
 552:..\common\ud3core\helper/printf.c ****     switch (*format) {
 553:..\common\ud3core\helper/printf.c ****       case 'd' :
 554:..\common\ud3core\helper/printf.c ****       case 'i' :
 555:..\common\ud3core\helper/printf.c ****       case 'u' :
 556:..\common\ud3core\helper/printf.c ****       case 'x' :
 557:..\common\ud3core\helper/printf.c ****       case 'X' :
 558:..\common\ud3core\helper/printf.c ****       case 'o' :
 559:..\common\ud3core\helper/printf.c ****       case 'b' : {
 560:..\common\ud3core\helper/printf.c ****         // set the base
 561:..\common\ud3core\helper/printf.c ****         unsigned int base;
 562:..\common\ud3core\helper/printf.c ****         if (*format == 'x' || *format == 'X') {
 563:..\common\ud3core\helper/printf.c ****           base = 16U;
ARM GAS  C:\Users\chemi\AppData\Local\Temp\ccvd4c4w.s 			page 23


 564:..\common\ud3core\helper/printf.c ****         }
 565:..\common\ud3core\helper/printf.c ****         else if (*format == 'o') {
 566:..\common\ud3core\helper/printf.c ****           base =  8U;
 567:..\common\ud3core\helper/printf.c ****         }
 568:..\common\ud3core\helper/printf.c ****         else if (*format == 'b') {
 569:..\common\ud3core\helper/printf.c ****           base =  2U;
 570:..\common\ud3core\helper/printf.c ****         }
 571:..\common\ud3core\helper/printf.c ****         else {
 572:..\common\ud3core\helper/printf.c ****           base = 10U;
 573:..\common\ud3core\helper/printf.c ****           flags &= ~FLAGS_HASH;   // no hash for dec format
 574:..\common\ud3core\helper/printf.c ****         }
 575:..\common\ud3core\helper/printf.c ****         // uppercase
 576:..\common\ud3core\helper/printf.c ****         if (*format == 'X') {
 577:..\common\ud3core\helper/printf.c ****           flags |= FLAGS_UPPERCASE;
 578:..\common\ud3core\helper/printf.c ****         }
 579:..\common\ud3core\helper/printf.c **** 
 580:..\common\ud3core\helper/printf.c ****         // no plus or space flag for u, x, X, o, b
 581:..\common\ud3core\helper/printf.c ****         if ((*format != 'i') && (*format != 'd')) {
 582:..\common\ud3core\helper/printf.c ****           flags &= ~(FLAGS_PLUS | FLAGS_SPACE);
 583:..\common\ud3core\helper/printf.c ****         }
 584:..\common\ud3core\helper/printf.c **** 
 585:..\common\ud3core\helper/printf.c ****         // ignore '0' flag when precision is given
 586:..\common\ud3core\helper/printf.c ****         if (flags & FLAGS_PRECISION) {
 587:..\common\ud3core\helper/printf.c ****           flags &= ~FLAGS_ZEROPAD;
 588:..\common\ud3core\helper/printf.c ****         }
 589:..\common\ud3core\helper/printf.c **** 
 590:..\common\ud3core\helper/printf.c ****         // convert the integer
 591:..\common\ud3core\helper/printf.c ****         if ((*format == 'i') || (*format == 'd')) {
 592:..\common\ud3core\helper/printf.c ****           // signed
 593:..\common\ud3core\helper/printf.c ****           if (flags & FLAGS_LONG_LONG) {
 594:..\common\ud3core\helper/printf.c **** #if defined(PRINTF_SUPPORT_LONG_LONG)
 595:..\common\ud3core\helper/printf.c ****             const long long value = va_arg(va, long long);
 596:..\common\ud3core\helper/printf.c ****             idx = _ntoa_long_long(out, buffer, idx, maxlen, (unsigned long long)(value > 0 ? value 
 597:..\common\ud3core\helper/printf.c **** #endif
 598:..\common\ud3core\helper/printf.c ****           }
 599:..\common\ud3core\helper/printf.c ****           else if (flags & FLAGS_LONG) {
 600:..\common\ud3core\helper/printf.c ****             const long value = va_arg(va, long);
 601:..\common\ud3core\helper/printf.c ****             idx = _ntoa_long(out, buffer, idx, maxlen, (unsigned long)(value > 0 ? value : 0 - valu
 602:..\common\ud3core\helper/printf.c ****           }
 603:..\common\ud3core\helper/printf.c ****           else {
 604:..\common\ud3core\helper/printf.c ****             const int value = (flags & FLAGS_CHAR) ? (char)va_arg(va, int) : (flags & FLAGS_SHORT) 
 605:..\common\ud3core\helper/printf.c ****             idx = _ntoa_long(out, buffer, idx, maxlen, (unsigned int)(value > 0 ? value : 0 - value
 606:..\common\ud3core\helper/printf.c ****           }
 607:..\common\ud3core\helper/printf.c ****         }
 608:..\common\ud3core\helper/printf.c ****         else {
 609:..\common\ud3core\helper/printf.c ****           // unsigned
 610:..\common\ud3core\helper/printf.c ****           if (flags & FLAGS_LONG_LONG) {
 611:..\common\ud3core\helper/printf.c **** #if defined(PRINTF_SUPPORT_LONG_LONG)
 612:..\common\ud3core\helper/printf.c ****             idx = _ntoa_long_long(out, buffer, idx, maxlen, va_arg(va, unsigned long long), false, 
 613:..\common\ud3core\helper/printf.c **** #endif
 614:..\common\ud3core\helper/printf.c ****           }
 615:..\common\ud3core\helper/printf.c ****           else if (flags & FLAGS_LONG) {
 616:..\common\ud3core\helper/printf.c ****             idx = _ntoa_long(out, buffer, idx, maxlen, va_arg(va, unsigned long), false, base, prec
 617:..\common\ud3core\helper/printf.c ****           }
 618:..\common\ud3core\helper/printf.c ****           else {
 619:..\common\ud3core\helper/printf.c ****             const unsigned int value = (flags & FLAGS_CHAR) ? (unsigned char)va_arg(va, unsigned in
 620:..\common\ud3core\helper/printf.c ****             idx = _ntoa_long(out, buffer, idx, maxlen, value, false, base, precision, width, flags)
ARM GAS  C:\Users\chemi\AppData\Local\Temp\ccvd4c4w.s 			page 24


 621:..\common\ud3core\helper/printf.c ****           }
 622:..\common\ud3core\helper/printf.c ****         }
 623:..\common\ud3core\helper/printf.c ****         format++;
 624:..\common\ud3core\helper/printf.c ****         break;
 625:..\common\ud3core\helper/printf.c ****       }
 626:..\common\ud3core\helper/printf.c **** #if defined(PRINTF_SUPPORT_FLOAT)
 627:..\common\ud3core\helper/printf.c ****       case 'f' :
 628:..\common\ud3core\helper/printf.c ****       case 'F' :
 629:..\common\ud3core\helper/printf.c ****         idx = _ftoa(out, buffer, idx, maxlen, va_arg(va, double), precision, width, flags);
 630:..\common\ud3core\helper/printf.c ****         format++;
 631:..\common\ud3core\helper/printf.c ****         break;
 632:..\common\ud3core\helper/printf.c **** #endif  // PRINTF_SUPPORT_FLOAT
 633:..\common\ud3core\helper/printf.c ****       case 'c' : {
 634:..\common\ud3core\helper/printf.c ****         unsigned int l = 1U;
 635:..\common\ud3core\helper/printf.c ****         // pre padding
 636:..\common\ud3core\helper/printf.c ****         if (!(flags & FLAGS_LEFT)) {
 637:..\common\ud3core\helper/printf.c ****           while (l++ < width) {
 638:..\common\ud3core\helper/printf.c ****             out(' ', buffer, idx++, maxlen);
 639:..\common\ud3core\helper/printf.c ****           }
 640:..\common\ud3core\helper/printf.c ****         }
 641:..\common\ud3core\helper/printf.c ****         // char output
 642:..\common\ud3core\helper/printf.c ****         out((char)va_arg(va, int), buffer, idx++, maxlen);
 643:..\common\ud3core\helper/printf.c ****         // post padding
 644:..\common\ud3core\helper/printf.c ****         if (flags & FLAGS_LEFT) {
 645:..\common\ud3core\helper/printf.c ****           while (l++ < width) {
 646:..\common\ud3core\helper/printf.c ****             out(' ', buffer, idx++, maxlen);
 647:..\common\ud3core\helper/printf.c ****           }
 648:..\common\ud3core\helper/printf.c ****         }
 649:..\common\ud3core\helper/printf.c ****         format++;
 650:..\common\ud3core\helper/printf.c ****         break;
 651:..\common\ud3core\helper/printf.c ****       }
 652:..\common\ud3core\helper/printf.c **** 
 653:..\common\ud3core\helper/printf.c ****       case 's' : {
 654:..\common\ud3core\helper/printf.c ****         char* p = va_arg(va, char*);
 655:..\common\ud3core\helper/printf.c ****         unsigned int l = _strnlen_s(p, precision ? precision : (size_t)-1);
 656:..\common\ud3core\helper/printf.c ****         // pre padding
 657:..\common\ud3core\helper/printf.c ****         if (flags & FLAGS_PRECISION) {
 658:..\common\ud3core\helper/printf.c ****           l = (l < precision ? l : precision);
 659:..\common\ud3core\helper/printf.c ****         }
 660:..\common\ud3core\helper/printf.c ****         if (!(flags & FLAGS_LEFT)) {
 661:..\common\ud3core\helper/printf.c ****           while (l++ < width) {
 662:..\common\ud3core\helper/printf.c ****             out(' ', buffer, idx++, maxlen);
 663:..\common\ud3core\helper/printf.c ****           }
 664:..\common\ud3core\helper/printf.c ****         }
 665:..\common\ud3core\helper/printf.c ****         // string output
 666:..\common\ud3core\helper/printf.c ****         while ((*p != 0) && (!(flags & FLAGS_PRECISION) || precision--)) {
 667:..\common\ud3core\helper/printf.c ****           out(*(p++), buffer, idx++, maxlen);
 668:..\common\ud3core\helper/printf.c ****         }
 669:..\common\ud3core\helper/printf.c ****         // post padding
 670:..\common\ud3core\helper/printf.c ****         if (flags & FLAGS_LEFT) {
 671:..\common\ud3core\helper/printf.c ****           while (l++ < width) {
 672:..\common\ud3core\helper/printf.c ****             out(' ', buffer, idx++, maxlen);
 673:..\common\ud3core\helper/printf.c ****           }
 674:..\common\ud3core\helper/printf.c ****         }
 675:..\common\ud3core\helper/printf.c ****         format++;
 676:..\common\ud3core\helper/printf.c ****         break;
 677:..\common\ud3core\helper/printf.c ****       }
ARM GAS  C:\Users\chemi\AppData\Local\Temp\ccvd4c4w.s 			page 25


 678:..\common\ud3core\helper/printf.c **** 
 679:..\common\ud3core\helper/printf.c ****       case 'p' : {
 680:..\common\ud3core\helper/printf.c ****         width = sizeof(void*) * 2U;
 681:..\common\ud3core\helper/printf.c ****         flags |= FLAGS_ZEROPAD | FLAGS_UPPERCASE;
 682:..\common\ud3core\helper/printf.c **** #if defined(PRINTF_SUPPORT_LONG_LONG)
 683:..\common\ud3core\helper/printf.c ****         const bool is_ll = sizeof(uintptr_t) == sizeof(long long);
 684:..\common\ud3core\helper/printf.c ****         if (is_ll) {
 685:..\common\ud3core\helper/printf.c ****           idx = _ntoa_long_long(out, buffer, idx, maxlen, (uintptr_t)va_arg(va, void*), false, 16U,
 686:..\common\ud3core\helper/printf.c ****         }
 687:..\common\ud3core\helper/printf.c ****         else {
 688:..\common\ud3core\helper/printf.c **** #endif
 689:..\common\ud3core\helper/printf.c ****           idx = _ntoa_long(out, buffer, idx, maxlen, (unsigned long)((uintptr_t)va_arg(va, void*)),
 690:..\common\ud3core\helper/printf.c **** #if defined(PRINTF_SUPPORT_LONG_LONG)
 691:..\common\ud3core\helper/printf.c ****         }
 692:..\common\ud3core\helper/printf.c **** #endif
 693:..\common\ud3core\helper/printf.c ****         format++;
 694:..\common\ud3core\helper/printf.c ****         break;
 695:..\common\ud3core\helper/printf.c ****       }
 696:..\common\ud3core\helper/printf.c **** 
 697:..\common\ud3core\helper/printf.c ****       case '%' :
 698:..\common\ud3core\helper/printf.c ****         out('%', buffer, idx++, maxlen);
 699:..\common\ud3core\helper/printf.c ****         format++;
 700:..\common\ud3core\helper/printf.c ****         break;
 701:..\common\ud3core\helper/printf.c **** 
 702:..\common\ud3core\helper/printf.c ****       default :
 703:..\common\ud3core\helper/printf.c ****         out(*format, buffer, idx++, maxlen);
 704:..\common\ud3core\helper/printf.c ****         format++;
 705:..\common\ud3core\helper/printf.c ****         break;
 706:..\common\ud3core\helper/printf.c ****     }
 707:..\common\ud3core\helper/printf.c ****   }
 708:..\common\ud3core\helper/printf.c **** 
 709:..\common\ud3core\helper/printf.c ****   // termination
 710:..\common\ud3core\helper/printf.c ****   out((char)0, buffer, idx < maxlen ? idx : maxlen - 1U, maxlen);
 711:..\common\ud3core\helper/printf.c **** 
 712:..\common\ud3core\helper/printf.c ****   // return written chars without terminating \0
 713:..\common\ud3core\helper/printf.c ****   return (int)idx;
 714:..\common\ud3core\helper/printf.c **** }
 715:..\common\ud3core\helper/printf.c **** 
 716:..\common\ud3core\helper/printf.c **** 
 717:..\common\ud3core\helper/printf.c **** ///////////////////////////////////////////////////////////////////////////////
 718:..\common\ud3core\helper/printf.c **** 
 719:..\common\ud3core\helper/printf.c **** int printf_(const char* format, ...)
 720:..\common\ud3core\helper/printf.c **** {
 721:..\common\ud3core\helper/printf.c ****   va_list va;
 722:..\common\ud3core\helper/printf.c ****   va_start(va, format);
 723:..\common\ud3core\helper/printf.c ****   char buffer[1];
 724:..\common\ud3core\helper/printf.c ****   const int ret = _vsnprintf(_out_char, buffer, (size_t)-1, format, va);
 725:..\common\ud3core\helper/printf.c ****   va_end(va);
 726:..\common\ud3core\helper/printf.c ****   return ret;
 727:..\common\ud3core\helper/printf.c **** }
 728:..\common\ud3core\helper/printf.c **** 
 729:..\common\ud3core\helper/printf.c **** 
 730:..\common\ud3core\helper/printf.c **** int sprintf_(char* buffer, const char* format, ...)
 731:..\common\ud3core\helper/printf.c **** {
 732:..\common\ud3core\helper/printf.c ****   va_list va;
 733:..\common\ud3core\helper/printf.c ****   va_start(va, format);
 734:..\common\ud3core\helper/printf.c ****   const int ret = _vsnprintf(_out_buffer, buffer, (size_t)-1, format, va);
ARM GAS  C:\Users\chemi\AppData\Local\Temp\ccvd4c4w.s 			page 26


 735:..\common\ud3core\helper/printf.c ****   va_end(va);
 736:..\common\ud3core\helper/printf.c ****   return ret;
 737:..\common\ud3core\helper/printf.c **** }
 738:..\common\ud3core\helper/printf.c **** 
 739:..\common\ud3core\helper/printf.c **** 
 740:..\common\ud3core\helper/printf.c **** int snprintf_(char* buffer, size_t count, const char* format, ...)
 741:..\common\ud3core\helper/printf.c **** {
 742:..\common\ud3core\helper/printf.c ****   va_list va;
 743:..\common\ud3core\helper/printf.c ****   va_start(va, format);
 744:..\common\ud3core\helper/printf.c ****   const int ret = _vsnprintf(_out_buffer, buffer, count, format, va);
 745:..\common\ud3core\helper/printf.c ****   va_end(va);
 746:..\common\ud3core\helper/printf.c ****   return ret;
 747:..\common\ud3core\helper/printf.c **** }
 748:..\common\ud3core\helper/printf.c **** 
 749:..\common\ud3core\helper/printf.c **** 
 750:..\common\ud3core\helper/printf.c **** int vsnprintf_(char* buffer, size_t count, const char* format, va_list va)
 751:..\common\ud3core\helper/printf.c **** {
 752:..\common\ud3core\helper/printf.c ****   return _vsnprintf(_out_buffer, buffer, count, format, va);
 753:..\common\ud3core\helper/printf.c **** }
 754:..\common\ud3core\helper/printf.c **** 
 755:..\common\ud3core\helper/printf.c **** 
 756:..\common\ud3core\helper/printf.c **** int fctprintf(void (*out)(char character, void* arg), void* arg, const char* format, ...)
 757:..\common\ud3core\helper/printf.c **** {
 758:..\common\ud3core\helper/printf.c ****   va_list va;
 759:..\common\ud3core\helper/printf.c ****   va_start(va, format);
 760:..\common\ud3core\helper/printf.c ****   const out_fct_wrap_type out_fct_wrap = { out, arg };
 761:..\common\ud3core\helper/printf.c ****   const int ret = _vsnprintf(_out_fct, (char*)&out_fct_wrap, (size_t)-1, format, va);
 762:..\common\ud3core\helper/printf.c ****   va_end(va);
 763:..\common\ud3core\helper/printf.c ****   return ret;
 764:..\common\ud3core\helper/printf.c **** }
 765:..\common\ud3core\helper/printf.c **** 
 766:..\common\ud3core\helper/printf.c **** void send_stream(char character, void* arg){
 671              		.loc 1 766 0
 672              		.cfi_startproc
 673              		@ args = 0, pretend = 0, frame = 8
 674              		@ frame_needed = 0, uses_anonymous_args = 0
 675              	.LVL86:
 676 0000 13B5     		push	{r0, r1, r4, lr}
 677              		.cfi_def_cfa_offset 16
 678              		.cfi_offset 4, -8
 679              		.cfi_offset 14, -4
 680              		.loc 1 766 0
 681 0002 0C46     		mov	r4, r1
 682 0004 8DF80700 		strb	r0, [sp, #7]
 767:..\common\ud3core\helper/printf.c ****     if(character == '\0') return;
 683              		.loc 1 767 0
 684 0008 38B1     		cbz	r0, .L99
 768:..\common\ud3core\helper/printf.c ****     xStreamBufferSend(((port_str*)arg)->tx,&character, 1,portMAX_DELAY);
 685              		.loc 1 768 0
 686 000a 4FF0FF33 		mov	r3, #-1
 687 000e 0122     		movs	r2, #1
 688 0010 0DF10701 		add	r1, sp, #7
 689              	.LVL87:
 690 0014 6068     		ldr	r0, [r4, #4]
 691              	.LVL88:
 692 0016 FFF7FEFF 		bl	xStreamBufferSend
 693              	.LVL89:
ARM GAS  C:\Users\chemi\AppData\Local\Temp\ccvd4c4w.s 			page 27


 694              	.L99:
 769:..\common\ud3core\helper/printf.c **** }
 695              		.loc 1 769 0
 696 001a 02B0     		add	sp, sp, #8
 697              		.cfi_def_cfa_offset 8
 698              		@ sp needed
 699 001c 10BD     		pop	{r4, pc}
 700              		.cfi_endproc
 701              	.LFE85:
 702              		.size	send_stream, .-send_stream
 703              		.global	__aeabi_dcmplt
 704              		.global	__aeabi_dsub
 705              		.global	__aeabi_d2iz
 706              		.global	__aeabi_i2d
 707              		.global	__aeabi_dmul
 708              		.global	__aeabi_d2uiz
 709              		.global	__aeabi_ui2d
 710              		.global	__aeabi_dcmpgt
 711              		.global	__aeabi_dcmple
 712              		.global	__aeabi_dcmpeq
 713              		.section	.text._vsnprintf,"ax",%progbits
 714              		.align	1
 715              		.thumb
 716              		.thumb_func
 717              		.type	_vsnprintf, %function
 718              	_vsnprintf:
 719              	.LFB79:
 447:..\common\ud3core\helper/printf.c ****   unsigned int flags, width, precision, n;
 720              		.loc 1 447 0
 721              		.cfi_startproc
 722              		@ args = 4, pretend = 0, frame = 80
 723              		@ frame_needed = 0, uses_anonymous_args = 0
 724              	.LVL90:
 725 0000 2DE9F04F 		push	{r4, r5, r6, r7, r8, r9, r10, fp, lr}
 726              		.cfi_def_cfa_offset 36
 727              		.cfi_offset 4, -36
 728              		.cfi_offset 5, -32
 729              		.cfi_offset 6, -28
 730              		.cfi_offset 7, -24
 731              		.cfi_offset 8, -20
 732              		.cfi_offset 9, -16
 733              		.cfi_offset 10, -12
 734              		.cfi_offset 11, -8
 735              		.cfi_offset 14, -4
 736 0004 9FB0     		sub	sp, sp, #124
 737              		.cfi_def_cfa_offset 160
 447:..\common\ud3core\helper/printf.c ****   unsigned int flags, width, precision, n;
 738              		.loc 1 447 0
 739 0006 0C92     		str	r2, [sp, #48]
 453:..\common\ud3core\helper/printf.c ****   }
 740              		.loc 1 453 0
 741 0008 AD4A     		ldr	r2, .L363
 742              	.LVL91:
 743 000a DDF8A080 		ldr	r8, [sp, #160]
 744              	.LVL92:
 745 000e 0029     		cmp	r1, #0
 746 0010 18BF     		it	ne
ARM GAS  C:\Users\chemi\AppData\Local\Temp\ccvd4c4w.s 			page 28


 747 0012 0246     		movne	r2, r0
 748 0014 0E91     		str	r1, [sp, #56]
 749 0016 0F92     		str	r2, [sp, #60]
 629:..\common\ud3core\helper/printf.c ****         format++;
 750              		.loc 1 629 0
 751 0018 0025     		movs	r5, #0
 752              	.LVL93:
 753              	.L106:
 456:..\common\ud3core\helper/printf.c ****   {
 754              		.loc 1 456 0
 755 001a 1878     		ldrb	r0, [r3]	@ zero_extendqisi2
 756 001c 0028     		cmp	r0, #0
 757 001e 3AD0     		beq	.L353
 459:..\common\ud3core\helper/printf.c ****       // no
 758              		.loc 1 459 0
 759 0020 2528     		cmp	r0, #37
 760 0022 03F10106 		add	r6, r3, #1
 761 0026 07D0     		beq	.L107
 461:..\common\ud3core\helper/printf.c ****       format++;
 762              		.loc 1 461 0
 763 0028 0C9B     		ldr	r3, [sp, #48]
 764              	.LVL94:
 765 002a 2A46     		mov	r2, r5
 766 002c 6C1C     		adds	r4, r5, #1
 767              	.LVL95:
 768 002e 0E99     		ldr	r1, [sp, #56]
 769 0030 0F9D     		ldr	r5, [sp, #60]
 770 0032 A847     		blx	r5
 771              	.LVL96:
 462:..\common\ud3core\helper/printf.c ****       continue;
 772              		.loc 1 462 0
 773 0034 3346     		mov	r3, r6
 774 0036 2CE0     		b	.L350
 775              	.LVL97:
 776              	.L107:
 777 0038 3346     		mov	r3, r6
 778              	.LVL98:
 471:..\common\ud3core\helper/printf.c ****     do {
 779              		.loc 1 471 0
 780 003a 0024     		movs	r4, #0
 781              	.LVL99:
 782              	.L231:
 473:..\common\ud3core\helper/printf.c ****         case '0': flags |= FLAGS_ZEROPAD; format++; n = 1U; break;
 783              		.loc 1 473 0
 784 003c 1846     		mov	r0, r3
 785 003e 10F8012B 		ldrb	r2, [r0], #1	@ zero_extendqisi2
 786 0042 1946     		mov	r1, r3
 787              	.LVL100:
 788 0044 2B2A     		cmp	r2, #43
 789 0046 11D0     		beq	.L110
 790 0048 06D8     		bhi	.L111
 791 004a 202A     		cmp	r2, #32
 792 004c 11D0     		beq	.L112
 793 004e 232A     		cmp	r2, #35
 794 0050 32D1     		bne	.L109
 478:..\common\ud3core\helper/printf.c ****         default :                                   n = 0U; break;
 795              		.loc 1 478 0
ARM GAS  C:\Users\chemi\AppData\Local\Temp\ccvd4c4w.s 			page 29


 796 0052 44F01004 		orr	r4, r4, #16
 797              	.LVL101:
 798 0056 2DE0     		b	.L116
 799              	.LVL102:
 800              	.L111:
 473:..\common\ud3core\helper/printf.c ****         case '0': flags |= FLAGS_ZEROPAD; format++; n = 1U; break;
 801              		.loc 1 473 0
 802 0058 2D2A     		cmp	r2, #45
 803 005a 04D0     		beq	.L114
 804 005c 302A     		cmp	r2, #48
 805 005e 2BD1     		bne	.L109
 474:..\common\ud3core\helper/printf.c ****         case '-': flags |= FLAGS_LEFT;    format++; n = 1U; break;
 806              		.loc 1 474 0
 807 0060 44F00104 		orr	r4, r4, #1
 808              	.LVL103:
 809 0064 26E0     		b	.L116
 810              	.LVL104:
 811              	.L114:
 475:..\common\ud3core\helper/printf.c ****         case '+': flags |= FLAGS_PLUS;    format++; n = 1U; break;
 812              		.loc 1 475 0
 813 0066 44F00204 		orr	r4, r4, #2
 814              	.LVL105:
 815 006a 23E0     		b	.L116
 816              	.LVL106:
 817              	.L110:
 476:..\common\ud3core\helper/printf.c ****         case ' ': flags |= FLAGS_SPACE;   format++; n = 1U; break;
 818              		.loc 1 476 0
 819 006c 44F00404 		orr	r4, r4, #4
 820              	.LVL107:
 821 0070 20E0     		b	.L116
 822              	.LVL108:
 823              	.L112:
 477:..\common\ud3core\helper/printf.c ****         case '#': flags |= FLAGS_HASH;    format++; n = 1U; break;
 824              		.loc 1 477 0
 825 0072 44F00804 		orr	r4, r4, #8
 826              	.LVL109:
 827 0076 1DE0     		b	.L116
 828              	.LVL110:
 829              	.L336:
 552:..\common\ud3core\helper/printf.c ****       case 'd' :
 830              		.loc 1 552 0
 831 0078 00F29780 		bhi	.L138
 832 007c 2528     		cmp	r0, #37
 833 007e 40F09080 		bne	.L354
 834              	.L134:
 703:..\common\ud3core\helper/printf.c ****         format++;
 835              		.loc 1 703 0
 836 0082 0C9B     		ldr	r3, [sp, #48]
 837              	.LVL111:
 838 0084 2A46     		mov	r2, r5
 839 0086 6C1C     		adds	r4, r5, #1
 840              	.LVL112:
 841 0088 0E99     		ldr	r1, [sp, #56]
 842 008a 0F9D     		ldr	r5, [sp, #60]
 843 008c A847     		blx	r5
 844              	.LVL113:
 704:..\common\ud3core\helper/printf.c ****         break;
ARM GAS  C:\Users\chemi\AppData\Local\Temp\ccvd4c4w.s 			page 30


 845              		.loc 1 704 0
 846 008e 0B9B     		ldr	r3, [sp, #44]
 847 0090 0133     		adds	r3, r3, #1
 848              	.LVL114:
 849              	.L350:
 703:..\common\ud3core\helper/printf.c ****         format++;
 850              		.loc 1 703 0
 851 0092 2546     		mov	r5, r4
 705:..\common\ud3core\helper/printf.c ****     }
 852              		.loc 1 705 0
 853 0094 C1E7     		b	.L106
 854              	.LVL115:
 855              	.L353:
 710:..\common\ud3core\helper/printf.c **** 
 856              		.loc 1 710 0
 857 0096 0C9B     		ldr	r3, [sp, #48]
 858              	.LVL116:
 859 0098 0E99     		ldr	r1, [sp, #56]
 860 009a 9D42     		cmp	r5, r3
 861 009c 2CBF     		ite	cs
 862 009e 03F1FF32 		addcs	r2, r3, #-1
 863 00a2 2A46     		movcc	r2, r5
 864 00a4 0C9B     		ldr	r3, [sp, #48]
 865 00a6 0020     		movs	r0, #0
 866 00a8 0F9C     		ldr	r4, [sp, #60]
 867 00aa A047     		blx	r4
 868              	.LVL117:
 714:..\common\ud3core\helper/printf.c **** 
 869              		.loc 1 714 0
 870 00ac 2846     		mov	r0, r5
 871 00ae 1FB0     		add	sp, sp, #124
 872              		.cfi_remember_state
 873              		.cfi_def_cfa_offset 36
 874              		@ sp needed
 875 00b0 BDE8F08F 		pop	{r4, r5, r6, r7, r8, r9, r10, fp, pc}
 876              	.LVL118:
 877              	.L116:
 878              		.cfi_restore_state
 471:..\common\ud3core\helper/printf.c ****     do {
 879              		.loc 1 471 0
 880 00b4 0346     		mov	r3, r0
 881 00b6 C1E7     		b	.L231
 882              	.LVL119:
 883              	.L109:
 485:..\common\ud3core\helper/printf.c ****       width = _atoi(&format);
 884              		.loc 1 485 0
 885 00b8 A2F13006 		sub	r6, r2, #48
 886 00bc 092E     		cmp	r6, #9
 887 00be 40F24883 		bls	.L355
 488:..\common\ud3core\helper/printf.c ****       const int w = va_arg(va, int);
 888              		.loc 1 488 0
 889 00c2 2A2A     		cmp	r2, #42
 890 00c4 0CD1     		bne	.L237
 891              	.LBB51:
 489:..\common\ud3core\helper/printf.c ****       if (w < 0) {
 892              		.loc 1 489 0
 893 00c6 D8F80030 		ldr	r3, [r8]
ARM GAS  C:\Users\chemi\AppData\Local\Temp\ccvd4c4w.s 			page 31


 894 00ca 08F10402 		add	r2, r8, #4
 895              	.LVL120:
 490:..\common\ud3core\helper/printf.c ****         flags |= FLAGS_LEFT;    // reverse padding
 896              		.loc 1 490 0
 897 00ce 002B     		cmp	r3, #0
 492:..\common\ud3core\helper/printf.c ****       }
 898              		.loc 1 492 0
 899 00d0 BCBF     		itt	lt
 900 00d2 5B42     		rsblt	r3, r3, #0
 901              	.LVL121:
 491:..\common\ud3core\helper/printf.c ****         width = (unsigned int)-w;
 902              		.loc 1 491 0
 903 00d4 44F00204 		orrlt	r4, r4, #2
 904              	.LVL122:
 495:..\common\ud3core\helper/printf.c ****       }
 905              		.loc 1 495 0
 906 00d8 0D93     		str	r3, [sp, #52]
 907              	.LVL123:
 497:..\common\ud3core\helper/printf.c ****     }
 908              		.loc 1 497 0
 909 00da 0146     		mov	r1, r0
 910              	.LVL124:
 489:..\common\ud3core\helper/printf.c ****       if (w < 0) {
 911              		.loc 1 489 0
 912 00dc 9046     		mov	r8, r2
 913              	.LVL125:
 914 00de 01E0     		b	.L118
 915              	.LVL126:
 916              	.L237:
 917              	.LBE51:
 484:..\common\ud3core\helper/printf.c ****     if (_is_digit(*format)) {
 918              		.loc 1 484 0
 919 00e0 0023     		movs	r3, #0
 920 00e2 0D93     		str	r3, [sp, #52]
 921              	.LVL127:
 922              	.L118:
 502:..\common\ud3core\helper/printf.c ****       flags |= FLAGS_PRECISION;
 923              		.loc 1 502 0
 924 00e4 0B78     		ldrb	r3, [r1]	@ zero_extendqisi2
 925 00e6 2E2B     		cmp	r3, #46
 926 00e8 23D1     		bne	.L238
 504:..\common\ud3core\helper/printf.c ****       if (_is_digit(*format)) {
 927              		.loc 1 504 0
 928 00ea 4B1C     		adds	r3, r1, #1
 929 00ec 0B93     		str	r3, [sp, #44]
 505:..\common\ud3core\helper/printf.c ****         precision = _atoi(&format);
 930              		.loc 1 505 0
 931 00ee 4B78     		ldrb	r3, [r1, #1]	@ zero_extendqisi2
 503:..\common\ud3core\helper/printf.c ****       format++;
 932              		.loc 1 503 0
 933 00f0 44F48064 		orr	r4, r4, #1024
 934              	.LVL128:
 505:..\common\ud3core\helper/printf.c ****         precision = _atoi(&format);
 935              		.loc 1 505 0
 936 00f4 A3F13002 		sub	r2, r3, #48
 937 00f8 092A     		cmp	r2, #9
 938 00fa 0FD8     		bhi	.L122
ARM GAS  C:\Users\chemi\AppData\Local\Temp\ccvd4c4w.s 			page 32


 939 00fc 0B9A     		ldr	r2, [sp, #44]
 940 00fe 4FF00009 		mov	r9, #0
 941 0102 0A20     		movs	r0, #10
 942              	.LVL129:
 943              	.L123:
 944 0104 0B92     		str	r2, [sp, #44]
 945              	.LVL130:
 946              	.LBB52:
 947              	.LBB53:
 169:..\common\ud3core\helper/printf.c ****     i = i * 10U + (unsigned int)(*((*str)++) - '0');
 948              		.loc 1 169 0
 949 0106 12F8013B 		ldrb	r3, [r2], #1	@ zero_extendqisi2
 950 010a A3F13001 		sub	r1, r3, #48
 951 010e 0929     		cmp	r1, #9
 952 0110 12D8     		bhi	.L121
 953              	.LVL131:
 954 0112 00FB0939 		mla	r9, r0, r9, r3
 955              	.LVL132:
 170:..\common\ud3core\helper/printf.c ****   }
 956              		.loc 1 170 0
 957 0116 A9F13009 		sub	r9, r9, #48
 958              	.LVL133:
 959 011a F3E7     		b	.L123
 960              	.LVL134:
 961              	.L122:
 962              	.LBE53:
 963              	.LBE52:
 508:..\common\ud3core\helper/printf.c ****         const int prec = (int)va_arg(va, int);
 964              		.loc 1 508 0
 965 011c 2A2B     		cmp	r3, #42
 966 011e 09D1     		bne	.L239
 967              	.LVL135:
 968              	.LBB54:
 510:..\common\ud3core\helper/printf.c ****         format++;
 969              		.loc 1 510 0
 970 0120 D8F80030 		ldr	r3, [r8]
 509:..\common\ud3core\helper/printf.c ****         precision = prec > 0 ? (unsigned int)prec : 0U;
 971              		.loc 1 509 0
 972 0124 08F10408 		add	r8, r8, #4
 973              	.LVL136:
 510:..\common\ud3core\helper/printf.c ****         format++;
 974              		.loc 1 510 0
 975 0128 23EAE379 		bic	r9, r3, r3, asr #31
 976              	.LVL137:
 511:..\common\ud3core\helper/printf.c ****       }
 977              		.loc 1 511 0
 978 012c 8B1C     		adds	r3, r1, #2
 979              	.LVL138:
 980 012e 0B93     		str	r3, [sp, #44]
 981              	.LVL139:
 982 0130 02E0     		b	.L121
 983              	.LVL140:
 984              	.L238:
 985              	.LBE54:
 986 0132 0B91     		str	r1, [sp, #44]
 987              	.LVL141:
 988              	.L239:
ARM GAS  C:\Users\chemi\AppData\Local\Temp\ccvd4c4w.s 			page 33


 501:..\common\ud3core\helper/printf.c ****     if (*format == '.') {
 989              		.loc 1 501 0
 990 0134 4FF00009 		mov	r9, #0
 991              	.LVL142:
 992              	.L121:
 516:..\common\ud3core\helper/printf.c ****       case 'l' :
 993              		.loc 1 516 0
 994 0138 0B9B     		ldr	r3, [sp, #44]
 995 013a 1B78     		ldrb	r3, [r3]	@ zero_extendqisi2
 996 013c 6C2B     		cmp	r3, #108
 997 013e 0CD0     		beq	.L126
 998 0140 06D8     		bhi	.L127
 999 0142 682B     		cmp	r3, #104
 1000 0144 10D0     		beq	.L128
 1001 0146 6A2B     		cmp	r3, #106
 1002 0148 1FD1     		bne	.L125
 540:..\common\ud3core\helper/printf.c ****         format++;
 1003              		.loc 1 540 0
 1004 014a 44F40074 		orr	r4, r4, #512
 1005              	.LVL143:
 1006 014e 19E0     		b	.L343
 1007              	.L127:
 516:..\common\ud3core\helper/printf.c ****       case 'l' :
 1008              		.loc 1 516 0
 1009 0150 742B     		cmp	r3, #116
 1010 0152 15D0     		beq	.L131
 1011 0154 7A2B     		cmp	r3, #122
 1012 0156 13D0     		beq	.L131
 1013 0158 17E0     		b	.L125
 1014              	.L126:
 1015              	.LVL144:
 520:..\common\ud3core\helper/printf.c ****           flags |= FLAGS_LONG_LONG;
 1016              		.loc 1 520 0
 1017 015a 0B9B     		ldr	r3, [sp, #44]
 1018 015c 5B78     		ldrb	r3, [r3, #1]	@ zero_extendqisi2
 1019 015e 6C2B     		cmp	r3, #108
 1020 0160 0ED1     		bne	.L131
 521:..\common\ud3core\helper/printf.c ****           format++;
 1021              		.loc 1 521 0
 1022 0162 44F44074 		orr	r4, r4, #768
 1023              	.LVL145:
 1024 0166 08E0     		b	.L351
 1025              	.LVL146:
 1026              	.L128:
 528:..\common\ud3core\helper/printf.c ****           flags |= FLAGS_CHAR;
 1027              		.loc 1 528 0
 1028 0168 0B9B     		ldr	r3, [sp, #44]
 1029 016a 5B78     		ldrb	r3, [r3, #1]	@ zero_extendqisi2
 1030 016c 682B     		cmp	r3, #104
 1031 016e 02D0     		beq	.L133
 526:..\common\ud3core\helper/printf.c ****         format++;
 1032              		.loc 1 526 0
 1033 0170 44F08004 		orr	r4, r4, #128
 1034              	.LVL147:
 1035 0174 06E0     		b	.L343
 1036              	.LVL148:
 1037              	.L133:
ARM GAS  C:\Users\chemi\AppData\Local\Temp\ccvd4c4w.s 			page 34


 529:..\common\ud3core\helper/printf.c ****           format++;
 1038              		.loc 1 529 0
 1039 0176 44F0C004 		orr	r4, r4, #192
 1040              	.LVL149:
 1041              	.L351:
 530:..\common\ud3core\helper/printf.c ****         }
 1042              		.loc 1 530 0
 1043 017a 0B9B     		ldr	r3, [sp, #44]
 1044 017c 0233     		adds	r3, r3, #2
 1045 017e 03E0     		b	.L344
 1046              	.LVL150:
 1047              	.L131:
 544:..\common\ud3core\helper/printf.c ****         format++;
 1048              		.loc 1 544 0
 1049 0180 44F48074 		orr	r4, r4, #256
 1050              	.L343:
 1051              	.LVL151:
 545:..\common\ud3core\helper/printf.c ****         break;
 1052              		.loc 1 545 0
 1053 0184 0B9B     		ldr	r3, [sp, #44]
 1054 0186 0133     		adds	r3, r3, #1
 1055              	.L344:
 1056 0188 0B93     		str	r3, [sp, #44]
 1057              	.LVL152:
 1058              	.L125:
 552:..\common\ud3core\helper/printf.c ****       case 'd' :
 1059              		.loc 1 552 0
 1060 018a 0B9B     		ldr	r3, [sp, #44]
 1061 018c 1878     		ldrb	r0, [r3]	@ zero_extendqisi2
 1062 018e 6628     		cmp	r0, #102
 1063 0190 00F0E880 		beq	.L135
 1064 0194 13D8     		bhi	.L136
 1065 0196 5828     		cmp	r0, #88
 1066 0198 7FF46EAF 		bne	.L336
 1067              	.LVL153:
 1068              	.LBB55:
 577:..\common\ud3core\helper/printf.c ****         }
 1069              		.loc 1 577 0
 1070 019c 44F02004 		orr	r4, r4, #32
 1071              	.LVL154:
 1072 01a0 36E0     		b	.L240
 1073              	.LVL155:
 1074              	.L354:
 1075              	.LBE55:
 552:..\common\ud3core\helper/printf.c ****       case 'd' :
 1076              		.loc 1 552 0
 1077 01a2 4628     		cmp	r0, #70
 1078 01a4 00F0DE80 		beq	.L135
 1079 01a8 6BE7     		b	.L134
 1080              	.L138:
 1081 01aa 6328     		cmp	r0, #99
 1082 01ac 00F02882 		beq	.L140
 1083 01b0 6428     		cmp	r0, #100
 1084 01b2 24D0     		beq	.L308
 1085 01b4 6228     		cmp	r0, #98
 1086 01b6 7FF464AF 		bne	.L134
 1087              	.LBB60:
ARM GAS  C:\Users\chemi\AppData\Local\Temp\ccvd4c4w.s 			page 35


 569:..\common\ud3core\helper/printf.c ****         }
 1088              		.loc 1 569 0
 1089 01ba 0223     		movs	r3, #2
 1090              	.LVL156:
 1091 01bc 29E0     		b	.L144
 1092              	.LVL157:
 1093              	.L136:
 1094              	.LBE60:
 552:..\common\ud3core\helper/printf.c ****       case 'd' :
 1095              		.loc 1 552 0
 1096 01be 7028     		cmp	r0, #112
 1097 01c0 00F0AC82 		beq	.L141
 1098 01c4 06D8     		bhi	.L142
 1099 01c6 6928     		cmp	r0, #105
 1100 01c8 19D0     		beq	.L308
 1101 01ca 6F28     		cmp	r0, #111
 1102 01cc 7FF459AF 		bne	.L134
 1103              	.LBB61:
 566:..\common\ud3core\helper/printf.c ****         }
 1104              		.loc 1 566 0
 1105 01d0 0823     		movs	r3, #8
 1106              	.LVL158:
 1107 01d2 1EE0     		b	.L144
 1108              	.LVL159:
 1109              	.L142:
 1110              	.LBE61:
 552:..\common\ud3core\helper/printf.c ****       case 'd' :
 1111              		.loc 1 552 0
 1112 01d4 7528     		cmp	r0, #117
 1113 01d6 12D0     		beq	.L308
 1114 01d8 7828     		cmp	r0, #120
 1115 01da 19D0     		beq	.L240
 1116 01dc 7328     		cmp	r0, #115
 1117 01de 7FF450AF 		bne	.L134
 1118              	.LBB62:
 655:..\common\ud3core\helper/printf.c ****         // pre padding
 1119              		.loc 1 655 0
 1120 01e2 B9F1000F 		cmp	r9, #0
 1121 01e6 18BF     		it	ne
 1122 01e8 4B46     		movne	r3, r9
 1123              	.LVL160:
 654:..\common\ud3core\helper/printf.c ****         unsigned int l = _strnlen_s(p, precision ? precision : (size_t)-1);
 1124              		.loc 1 654 0
 1125 01ea 08F1040B 		add	fp, r8, #4
 1126 01ee D8F80080 		ldr	r8, [r8]
 1127              	.LVL161:
 655:..\common\ud3core\helper/printf.c ****         // pre padding
 1128              		.loc 1 655 0
 1129 01f2 08BF     		it	eq
 1130 01f4 4FF0FF33 		moveq	r3, #-1
 1131 01f8 4344     		add	r3, r3, r8
 1132 01fa 4746     		mov	r7, r8
 1133 01fc 43E2     		b	.L216
 1134              	.LVL162:
 1135              	.L308:
 1136              	.LBE62:
 1137              	.LBB67:
ARM GAS  C:\Users\chemi\AppData\Local\Temp\ccvd4c4w.s 			page 36


 581:..\common\ud3core\helper/printf.c ****           flags &= ~(FLAGS_PLUS | FLAGS_SPACE);
 1138              		.loc 1 581 0
 1139 01fe 6928     		cmp	r0, #105
 573:..\common\ud3core\helper/printf.c ****         }
 1140              		.loc 1 573 0
 1141 0200 24F01004 		bic	r4, r4, #16
 1142              	.LVL163:
 572:..\common\ud3core\helper/printf.c ****           flags &= ~FLAGS_HASH;   // no hash for dec format
 1143              		.loc 1 572 0
 1144 0204 4FF00A03 		mov	r3, #10
 1145              	.LVL164:
 581:..\common\ud3core\helper/printf.c ****           flags &= ~(FLAGS_PLUS | FLAGS_SPACE);
 1146              		.loc 1 581 0
 1147 0208 05D0     		beq	.L147
 1148 020a 6428     		cmp	r0, #100
 1149 020c 03D0     		beq	.L147
 1150 020e 00E0     		b	.L144
 1151              	.LVL165:
 1152              	.L240:
 563:..\common\ud3core\helper/printf.c ****         }
 1153              		.loc 1 563 0
 1154 0210 1023     		movs	r3, #16
 1155              	.LVL166:
 1156              	.L144:
 582:..\common\ud3core\helper/printf.c ****         }
 1157              		.loc 1 582 0
 1158 0212 24F00C04 		bic	r4, r4, #12
 1159              	.LVL167:
 1160              	.L147:
 586:..\common\ud3core\helper/printf.c ****           flags &= ~FLAGS_ZEROPAD;
 1161              		.loc 1 586 0
 1162 0216 6705     		lsls	r7, r4, #21
 587:..\common\ud3core\helper/printf.c ****         }
 1163              		.loc 1 587 0
 1164 0218 48BF     		it	mi
 1165 021a 24F00104 		bicmi	r4, r4, #1
 1166              	.LVL168:
 591:..\common\ud3core\helper/printf.c ****           // signed
 1167              		.loc 1 591 0
 1168 021e 6928     		cmp	r0, #105
 1169 0220 04F40072 		and	r2, r4, #512
 1170 0224 01D0     		beq	.L149
 591:..\common\ud3core\helper/printf.c ****           // signed
 1171              		.loc 1 591 0 is_stmt 0 discriminator 1
 1172 0226 6428     		cmp	r0, #100
 1173 0228 4CD1     		bne	.L150
 1174              	.L149:
 593:..\common\ud3core\helper/printf.c **** #if defined(PRINTF_SUPPORT_LONG_LONG)
 1175              		.loc 1 593 0 is_stmt 1
 1176 022a DAB1     		cbz	r2, .L151
 1177              	.LBB56:
 595:..\common\ud3core\helper/printf.c ****             idx = _ntoa_long_long(out, buffer, idx, maxlen, (unsigned long long)(value > 0 ? value 
 1178              		.loc 1 595 0
 1179 022c 08F10708 		add	r8, r8, #7
 1180 0230 28F00702 		bic	r2, r8, #7
 1181 0234 92E80300 		ldmia	r2, {r0, r1}
 596:..\common\ud3core\helper/printf.c **** #endif
ARM GAS  C:\Users\chemi\AppData\Local\Temp\ccvd4c4w.s 			page 37


 1182              		.loc 1 596 0
 1183 0238 0493     		str	r3, [sp, #16]
 1184 023a 0023     		movs	r3, #0
 1185 023c 0593     		str	r3, [sp, #20]
 1186 023e CB0F     		lsrs	r3, r1, #31
 1187 0240 0293     		str	r3, [sp, #8]
 1188 0242 0B46     		mov	r3, r1
 595:..\common\ud3core\helper/printf.c ****             idx = _ntoa_long_long(out, buffer, idx, maxlen, (unsigned long long)(value > 0 ? value 
 1189              		.loc 1 595 0
 1190 0244 02F10808 		add	r8, r2, #8
 1191              	.LVL169:
 596:..\common\ud3core\helper/printf.c **** #endif
 1192              		.loc 1 596 0
 1193 0248 0028     		cmp	r0, #0
 1194 024a 0D9A     		ldr	r2, [sp, #52]
 1195 024c 73F10001 		sbcs	r1, r3, #0
 1196              	.LVL170:
 1197 0250 0792     		str	r2, [sp, #28]
 1198 0252 0894     		str	r4, [sp, #32]
 1199 0254 CDF81890 		str	r9, [sp, #24]
 1200 0258 0246     		mov	r2, r0
 1201 025a 44DA     		bge	.L352
 1202 025c 4242     		rsbs	r2, r0, #0
 1203 025e 63EB4303 		sbc	r3, r3, r3, lsl #1
 1204              	.LVL171:
 1205 0262 40E0     		b	.L352
 1206              	.L151:
 1207              	.LBE56:
 599:..\common\ud3core\helper/printf.c ****             const long value = va_arg(va, long);
 1208              		.loc 1 599 0
 1209 0264 14F4807F 		tst	r4, #256
 1210 0268 08F10407 		add	r7, r8, #4
 1211 026c 0FD0     		beq	.L154
 1212              	.LBB57:
 600:..\common\ud3core\helper/printf.c ****             idx = _ntoa_long(out, buffer, idx, maxlen, (unsigned long)(value > 0 ? value : 0 - valu
 1213              		.loc 1 600 0
 1214 026e D8F80020 		ldr	r2, [r8]
 1215              	.LVL172:
 601:..\common\ud3core\helper/printf.c ****           }
 1216              		.loc 1 601 0
 1217 0272 0D99     		ldr	r1, [sp, #52]
 1218 0274 002A     		cmp	r2, #0
 1219 0276 0293     		str	r3, [sp, #8]
 1220 0278 4FEAD273 		lsr	r3, r2, #31
 1221 027c B8BF     		it	lt
 1222 027e 5242     		rsblt	r2, r2, #0
 1223              	.LVL173:
 1224 0280 0594     		str	r4, [sp, #20]
 1225 0282 0491     		str	r1, [sp, #16]
 1226 0284 CDF80C90 		str	r9, [sp, #12]
 1227 0288 0193     		str	r3, [sp, #4]
 1228 028a 0092     		str	r2, [sp]
 1229 028c 43E0     		b	.L347
 1230              	.L154:
 1231              	.LBE57:
 1232              	.LBB58:
 604:..\common\ud3core\helper/printf.c ****             idx = _ntoa_long(out, buffer, idx, maxlen, (unsigned int)(value > 0 ? value : 0 - value
ARM GAS  C:\Users\chemi\AppData\Local\Temp\ccvd4c4w.s 			page 38


 1233              		.loc 1 604 0
 1234 028e 14F0400F 		tst	r4, #64
 1235 0292 D8F80020 		ldr	r2, [r8]
 1236 0296 01D0     		beq	.L155
 604:..\common\ud3core\helper/printf.c ****             idx = _ntoa_long(out, buffer, idx, maxlen, (unsigned int)(value > 0 ? value : 0 - value
 1237              		.loc 1 604 0 is_stmt 0 discriminator 1
 1238 0298 D2B2     		uxtb	r2, r2
 1239 029a 02E0     		b	.L157
 1240              	.L155:
 604:..\common\ud3core\helper/printf.c ****             idx = _ntoa_long(out, buffer, idx, maxlen, (unsigned int)(value > 0 ? value : 0 - value
 1241              		.loc 1 604 0 discriminator 2
 1242 029c 2606     		lsls	r6, r4, #24
 1243 029e 48BF     		it	mi
 1244 02a0 12B2     		sxthmi	r2, r2
 1245              	.L157:
 605:..\common\ud3core\helper/printf.c ****           }
 1246              		.loc 1 605 0 is_stmt 1 discriminator 5
 1247 02a2 0D99     		ldr	r1, [sp, #52]
 1248 02a4 0293     		str	r3, [sp, #8]
 1249 02a6 002A     		cmp	r2, #0
 1250 02a8 4FEAD273 		lsr	r3, r2, #31
 604:..\common\ud3core\helper/printf.c ****             idx = _ntoa_long(out, buffer, idx, maxlen, (unsigned int)(value > 0 ? value : 0 - value
 1251              		.loc 1 604 0 discriminator 5
 1252 02ac B846     		mov	r8, r7
 1253              	.LVL174:
 605:..\common\ud3core\helper/printf.c ****           }
 1254              		.loc 1 605 0 discriminator 5
 1255 02ae 0594     		str	r4, [sp, #20]
 1256 02b0 0491     		str	r1, [sp, #16]
 1257 02b2 CDF80C90 		str	r9, [sp, #12]
 1258 02b6 0193     		str	r3, [sp, #4]
 1259 02b8 B8BF     		it	lt
 1260 02ba 5242     		rsblt	r2, r2, #0
 1261              	.LVL175:
 1262 02bc 47E0     		b	.L346
 1263              	.L364:
 1264 02be 00BF     		.align	2
 1265              	.L363:
 1266 02c0 00000000 		.word	_out_null
 1267              	.L150:
 1268              	.LBE58:
 610:..\common\ud3core\helper/printf.c **** #if defined(PRINTF_SUPPORT_LONG_LONG)
 1269              		.loc 1 610 0
 1270 02c4 C2B1     		cbz	r2, .L158
 612:..\common\ud3core\helper/printf.c **** #endif
 1271              		.loc 1 612 0
 1272 02c6 0D99     		ldr	r1, [sp, #52]
 1273 02c8 08F10708 		add	r8, r8, #7
 1274 02cc 0791     		str	r1, [sp, #28]
 1275 02ce 0021     		movs	r1, #0
 1276 02d0 28F00702 		bic	r2, r8, #7
 1277 02d4 0894     		str	r4, [sp, #32]
 1278 02d6 CDF81890 		str	r9, [sp, #24]
 1279 02da 0493     		str	r3, [sp, #16]
 1280 02dc 0591     		str	r1, [sp, #20]
 1281 02de 0291     		str	r1, [sp, #8]
 1282 02e0 02F10808 		add	r8, r2, #8
ARM GAS  C:\Users\chemi\AppData\Local\Temp\ccvd4c4w.s 			page 39


 1283 02e4 0CCA     		ldmia	r2, {r2-r3}
 1284              	.L352:
 1285 02e6 CDE90023 		strd	r2, [sp]
 1286 02ea 0E99     		ldr	r1, [sp, #56]
 1287 02ec 0C9B     		ldr	r3, [sp, #48]
 1288 02ee 2A46     		mov	r2, r5
 1289 02f0 0F98     		ldr	r0, [sp, #60]
 1290 02f2 FFF7FEFF 		bl	_ntoa_long_long
 1291              	.LVL176:
 1292 02f6 31E0     		b	.L345
 1293              	.L158:
 615:..\common\ud3core\helper/printf.c ****             idx = _ntoa_long(out, buffer, idx, maxlen, va_arg(va, unsigned long), false, base, prec
 1294              		.loc 1 615 0
 1295 02f8 14F4807F 		tst	r4, #256
 1296 02fc 08F10407 		add	r7, r8, #4
 1297 0300 12D0     		beq	.L159
 616:..\common\ud3core\helper/printf.c ****           }
 1298              		.loc 1 616 0
 1299 0302 0D99     		ldr	r1, [sp, #52]
 1300 0304 0594     		str	r4, [sp, #20]
 1301 0306 0491     		str	r1, [sp, #16]
 1302 0308 CDF80C90 		str	r9, [sp, #12]
 1303 030c 0293     		str	r3, [sp, #8]
 1304 030e 0192     		str	r2, [sp, #4]
 1305 0310 D8F80030 		ldr	r3, [r8]
 1306 0314 0093     		str	r3, [sp]
 1307              	.L347:
 1308 0316 2A46     		mov	r2, r5
 1309 0318 0C9B     		ldr	r3, [sp, #48]
 1310 031a 0E99     		ldr	r1, [sp, #56]
 1311 031c 0F98     		ldr	r0, [sp, #60]
 1312 031e FFF7FEFF 		bl	_ntoa_long
 1313              	.LVL177:
 1314 0322 B846     		mov	r8, r7
 1315 0324 0546     		mov	r5, r0
 1316              	.LVL178:
 1317 0326 1AE0     		b	.L153
 1318              	.LVL179:
 1319              	.L159:
 1320              	.LBB59:
 619:..\common\ud3core\helper/printf.c ****             idx = _ntoa_long(out, buffer, idx, maxlen, value, false, base, precision, width, flags)
 1321              		.loc 1 619 0
 1322 0328 14F0400F 		tst	r4, #64
 1323 032c D8F80020 		ldr	r2, [r8]
 1324 0330 01D0     		beq	.L160
 619:..\common\ud3core\helper/printf.c ****             idx = _ntoa_long(out, buffer, idx, maxlen, value, false, base, precision, width, flags)
 1325              		.loc 1 619 0 is_stmt 0 discriminator 1
 1326 0332 D2B2     		uxtb	r2, r2
 1327 0334 02E0     		b	.L162
 1328              	.L160:
 619:..\common\ud3core\helper/printf.c ****             idx = _ntoa_long(out, buffer, idx, maxlen, value, false, base, precision, width, flags)
 1329              		.loc 1 619 0 discriminator 2
 1330 0336 2006     		lsls	r0, r4, #24
 1331 0338 48BF     		it	mi
 1332 033a 92B2     		uxthmi	r2, r2
 1333              	.L162:
 619:..\common\ud3core\helper/printf.c ****             idx = _ntoa_long(out, buffer, idx, maxlen, value, false, base, precision, width, flags)
ARM GAS  C:\Users\chemi\AppData\Local\Temp\ccvd4c4w.s 			page 40


 1334              		.loc 1 619 0 discriminator 5
 1335 033c B846     		mov	r8, r7
 1336              	.LVL180:
 620:..\common\ud3core\helper/printf.c ****           }
 1337              		.loc 1 620 0 is_stmt 1 discriminator 5
 1338 033e 0D99     		ldr	r1, [sp, #52]
 1339 0340 0293     		str	r3, [sp, #8]
 1340 0342 0023     		movs	r3, #0
 1341 0344 0594     		str	r4, [sp, #20]
 1342 0346 0491     		str	r1, [sp, #16]
 1343 0348 CDF80C90 		str	r9, [sp, #12]
 1344 034c 0193     		str	r3, [sp, #4]
 1345              	.LVL181:
 1346              	.L346:
 620:..\common\ud3core\helper/printf.c ****           }
 1347              		.loc 1 620 0 is_stmt 0 discriminator 8
 1348 034e 0092     		str	r2, [sp]
 1349 0350 0C9B     		ldr	r3, [sp, #48]
 1350 0352 2A46     		mov	r2, r5
 1351 0354 0E99     		ldr	r1, [sp, #56]
 1352 0356 0F98     		ldr	r0, [sp, #60]
 1353 0358 FFF7FEFF 		bl	_ntoa_long
 1354              	.LVL182:
 1355              	.L345:
 1356 035c 0546     		mov	r5, r0
 1357              	.LVL183:
 1358              	.L153:
 1359              	.LBE59:
 623:..\common\ud3core\helper/printf.c ****         break;
 1360              		.loc 1 623 0 is_stmt 1
 1361 035e 0B9B     		ldr	r3, [sp, #44]
 1362 0360 0133     		adds	r3, r3, #1
 1363              	.LVL184:
 624:..\common\ud3core\helper/printf.c ****       }
 1364              		.loc 1 624 0
 1365 0362 5AE6     		b	.L106
 1366              	.LVL185:
 1367              	.L135:
 1368              	.LBE67:
 629:..\common\ud3core\helper/printf.c ****         format++;
 1369              		.loc 1 629 0
 1370 0364 08F10708 		add	r8, r8, #7
 1371 0368 28F00703 		bic	r3, r8, #7
 1372              	.LVL186:
 1373 036c 03F10808 		add	r8, r3, #8
 1374 0370 D3E90023 		ldrd	r2, [r3]
 1375 0374 CDE91023 		strd	r2, [sp, #64]
 1376              	.LVL187:
 1377              	.LBB68:
 1378              	.LBB69:
 319:..\common\ud3core\helper/printf.c ****     negative = true;
 1379              		.loc 1 319 0
 1380 0378 DDE91001 		ldrd	r0, [sp, #64]
 1381 037c 0022     		movs	r2, #0
 1382              	.LVL188:
 1383 037e 0023     		movs	r3, #0
 1384 0380 FFF7FEFF 		bl	__aeabi_dcmplt
ARM GAS  C:\Users\chemi\AppData\Local\Temp\ccvd4c4w.s 			page 41


 1385              	.LVL189:
 1386 0384 50B1     		cbz	r0, .L337
 1387              	.LVL190:
 321:..\common\ud3core\helper/printf.c ****   }
 1388              		.loc 1 321 0
 1389 0386 DDE91023 		ldrd	r2, [sp, #64]
 1390 038a 0020     		movs	r0, #0
 1391 038c 0021     		movs	r1, #0
 1392 038e FFF7FEFF 		bl	__aeabi_dsub
 1393              	.LVL191:
 320:..\common\ud3core\helper/printf.c ****     value = 0 - value;
 1394              		.loc 1 320 0
 1395 0392 0123     		movs	r3, #1
 321:..\common\ud3core\helper/printf.c ****   }
 1396              		.loc 1 321 0
 1397 0394 CDE91001 		strd	r0, [sp, #64]
 1398              	.LVL192:
 320:..\common\ud3core\helper/printf.c ****     value = 0 - value;
 1399              		.loc 1 320 0
 1400 0398 1E46     		mov	r6, r3
 1401 039a 00E0     		b	.L163
 1402              	.LVL193:
 1403              	.L337:
 318:..\common\ud3core\helper/printf.c ****   if (value < 0) {
 1404              		.loc 1 318 0
 1405 039c 0646     		mov	r6, r0
 1406              	.LVL194:
 1407              	.L163:
 326:..\common\ud3core\helper/printf.c ****   }
 1408              		.loc 1 326 0
 1409 039e 14F4806F 		tst	r4, #1024
 1410 03a2 08BF     		it	eq
 1411 03a4 4FF00609 		moveq	r9, #6
 1412 03a8 0027     		movs	r7, #0
 330:..\common\ud3core\helper/printf.c ****     prec--;
 1413              		.loc 1 330 0
 1414 03aa 3023     		movs	r3, #48
 1415              	.LVL195:
 1416              	.L166:
 329:..\common\ud3core\helper/printf.c ****     buf[len++] = '0';
 1417              		.loc 1 329 0
 1418 03ac B9F1090F 		cmp	r9, #9
 1419 03b0 06D9     		bls	.L167
 330:..\common\ud3core\helper/printf.c ****     prec--;
 1420              		.loc 1 330 0
 1421 03b2 16AA     		add	r2, sp, #88
 1422 03b4 BB54     		strb	r3, [r7, r2]
 1423              	.LVL196:
 1424 03b6 0137     		adds	r7, r7, #1
 329:..\common\ud3core\helper/printf.c ****     buf[len++] = '0';
 1425              		.loc 1 329 0
 1426 03b8 202F     		cmp	r7, #32
 331:..\common\ud3core\helper/printf.c ****   }
 1427              		.loc 1 331 0
 1428 03ba 09F1FF39 		add	r9, r9, #-1
 1429              	.LVL197:
 329:..\common\ud3core\helper/printf.c ****     buf[len++] = '0';
ARM GAS  C:\Users\chemi\AppData\Local\Temp\ccvd4c4w.s 			page 42


 1430              		.loc 1 329 0
 1431 03be F5D1     		bne	.L166
 1432              	.LVL198:
 1433              	.L167:
 334:..\common\ud3core\helper/printf.c ****   double tmp = (value - whole) * pow10[prec];
 1434              		.loc 1 334 0
 1435 03c0 DDE91001 		ldrd	r0, [sp, #64]
 1436 03c4 FFF7FEFF 		bl	__aeabi_d2iz
 1437              	.LVL199:
 335:..\common\ud3core\helper/printf.c ****   unsigned long frac = (unsigned long)tmp;
 1438              		.loc 1 335 0
 1439 03c8 AB4B     		ldr	r3, .L365+8
 334:..\common\ud3core\helper/printf.c ****   double tmp = (value - whole) * pow10[prec];
 1440              		.loc 1 334 0
 1441 03ca 8346     		mov	fp, r0
 1442              	.LVL200:
 335:..\common\ud3core\helper/printf.c ****   unsigned long frac = (unsigned long)tmp;
 1443              		.loc 1 335 0
 1444 03cc 03EBC903 		add	r3, r3, r9, lsl #3
 1445 03d0 D3E90023 		ldrd	r2, [r3]
 1446 03d4 CDE91223 		strd	r2, [sp, #72]
 1447 03d8 FFF7FEFF 		bl	__aeabi_i2d
 1448              	.LVL201:
 1449 03dc 0246     		mov	r2, r0
 1450 03de 0B46     		mov	r3, r1
 1451 03e0 DDE91001 		ldrd	r0, [sp, #64]
 1452 03e4 FFF7FEFF 		bl	__aeabi_dsub
 1453              	.LVL202:
 1454 03e8 DDE91223 		ldrd	r2, [sp, #72]
 1455 03ec FFF7FEFF 		bl	__aeabi_dmul
 1456              	.LVL203:
 1457 03f0 CDE91401 		strd	r0, [sp, #80]
 1458              	.LVL204:
 336:..\common\ud3core\helper/printf.c ****   diff = tmp - frac;
 1459              		.loc 1 336 0
 1460 03f4 FFF7FEFF 		bl	__aeabi_d2uiz
 1461              	.LVL205:
 1462 03f8 8246     		mov	r10, r0
 1463              	.LVL206:
 337:..\common\ud3core\helper/printf.c **** 
 1464              		.loc 1 337 0
 1465 03fa FFF7FEFF 		bl	__aeabi_ui2d
 1466              	.LVL207:
 1467 03fe 0246     		mov	r2, r0
 1468 0400 0B46     		mov	r3, r1
 1469 0402 DDE91401 		ldrd	r0, [sp, #80]
 1470 0406 FFF7FEFF 		bl	__aeabi_dsub
 1471              	.LVL208:
 339:..\common\ud3core\helper/printf.c ****     ++frac;
 1472              		.loc 1 339 0
 1473 040a 0022     		movs	r2, #0
 1474 040c 9B4B     		ldr	r3, .L365+12
 337:..\common\ud3core\helper/printf.c **** 
 1475              		.loc 1 337 0
 1476 040e CDE91401 		strd	r0, [sp, #80]
 1477              	.LVL209:
 339:..\common\ud3core\helper/printf.c ****     ++frac;
ARM GAS  C:\Users\chemi\AppData\Local\Temp\ccvd4c4w.s 			page 43


 1478              		.loc 1 339 0
 1479 0412 FFF7FEFF 		bl	__aeabi_dcmpgt
 1480              	.LVL210:
 1481 0416 80B1     		cbz	r0, .L338
 340:..\common\ud3core\helper/printf.c ****     // handle rollover, e.g. case 0.99 with prec 1 is 1.0
 1482              		.loc 1 340 0
 1483 0418 0AF1010A 		add	r10, r10, #1
 1484              	.LVL211:
 342:..\common\ud3core\helper/printf.c ****       frac = 0;
 1485              		.loc 1 342 0
 1486 041c 5046     		mov	r0, r10
 1487 041e FFF7FEFF 		bl	__aeabi_ui2d
 1488              	.LVL212:
 1489 0422 0246     		mov	r2, r0
 1490 0424 0B46     		mov	r3, r1
 1491 0426 DDE91201 		ldrd	r0, [sp, #72]
 1492 042a FFF7FEFF 		bl	__aeabi_dcmple
 1493              	.LVL213:
 1494 042e 98B1     		cbz	r0, .L171
 1495              	.LVL214:
 344:..\common\ud3core\helper/printf.c ****     }
 1496              		.loc 1 344 0
 1497 0430 0BF1010B 		add	fp, fp, #1
 1498              	.LVL215:
 343:..\common\ud3core\helper/printf.c ****       ++whole;
 1499              		.loc 1 343 0
 1500 0434 4FF0000A 		mov	r10, #0
 1501 0438 0EE0     		b	.L171
 1502              	.LVL216:
 1503              	.L338:
 347:..\common\ud3core\helper/printf.c ****     // if halfway, round up if odd, OR if last digit is 0
 1504              		.loc 1 347 0
 1505 043a 0022     		movs	r2, #0
 1506 043c 8F4B     		ldr	r3, .L365+12
 1507 043e DDE91401 		ldrd	r0, [sp, #80]
 1508 0442 FFF7FEFF 		bl	__aeabi_dcmpeq
 1509              	.LVL217:
 1510 0446 38B1     		cbz	r0, .L171
 1511 0448 BAF1000F 		cmp	r10, #0
 1512 044c 02D0     		beq	.L174
 1513 044e 1AF0010F 		tst	r10, #1
 1514 0452 01D0     		beq	.L171
 1515              	.L174:
 349:..\common\ud3core\helper/printf.c ****   }
 1516              		.loc 1 349 0
 1517 0454 0AF1010A 		add	r10, r10, #1
 1518              	.LVL218:
 1519              	.L171:
 354:..\common\ud3core\helper/printf.c ****     return 0U;
 1520              		.loc 1 354 0
 1521 0458 85A3     		adr	r3, .L365
 1522 045a D3E90023 		ldrd	r2, [r3]
 1523 045e DDE91001 		ldrd	r0, [sp, #64]
 1524 0462 FFF7FEFF 		bl	__aeabi_dcmpgt
 1525              	.LVL219:
 1526 0466 0028     		cmp	r0, #0
 1527 0468 40F0C580 		bne	.L247
ARM GAS  C:\Users\chemi\AppData\Local\Temp\ccvd4c4w.s 			page 44


 358:..\common\ud3core\helper/printf.c ****     diff = value - (double)whole;
 1528              		.loc 1 358 0
 1529 046c B9F1000F 		cmp	r9, #0
 1530 0470 1CD1     		bne	.L176
 359:..\common\ud3core\helper/printf.c ****     if (diff > 0.5) {
 1531              		.loc 1 359 0
 1532 0472 5846     		mov	r0, fp
 1533 0474 FFF7FEFF 		bl	__aeabi_i2d
 1534              	.LVL220:
 1535 0478 0246     		mov	r2, r0
 1536 047a 0B46     		mov	r3, r1
 1537 047c DDE91001 		ldrd	r0, [sp, #64]
 1538 0480 FFF7FEFF 		bl	__aeabi_dsub
 1539              	.LVL221:
 360:..\common\ud3core\helper/printf.c ****       // greater than 0.5, round up, e.g. 1.6 -> 2
 1540              		.loc 1 360 0
 1541 0484 0022     		movs	r2, #0
 1542 0486 7D4B     		ldr	r3, .L365+12
 359:..\common\ud3core\helper/printf.c ****     if (diff > 0.5) {
 1543              		.loc 1 359 0
 1544 0488 8146     		mov	r9, r0
 1545 048a 8A46     		mov	r10, r1
 1546              	.LVL222:
 360:..\common\ud3core\helper/printf.c ****       // greater than 0.5, round up, e.g. 1.6 -> 2
 1547              		.loc 1 360 0
 1548 048c FFF7FEFF 		bl	__aeabi_dcmpgt
 1549              	.LVL223:
 1550 0490 48B9     		cbnz	r0, .L348
 364:..\common\ud3core\helper/printf.c ****       // exactly 0.5 and ODD, then round up
 1551              		.loc 1 364 0
 1552 0492 0022     		movs	r2, #0
 1553 0494 794B     		ldr	r3, .L365+12
 1554 0496 4846     		mov	r0, r9
 1555 0498 5146     		mov	r1, r10
 1556 049a FFF7FEFF 		bl	__aeabi_dcmpeq
 1557              	.LVL224:
 1558 049e 48B3     		cbz	r0, .L179
 1559 04a0 1BF0010F 		tst	fp, #1
 1560 04a4 26D0     		beq	.L179
 1561              	.L348:
 367:..\common\ud3core\helper/printf.c ****     }
 1562              		.loc 1 367 0
 1563 04a6 0BF1010B 		add	fp, fp, #1
 1564              	.LVL225:
 1565 04aa 23E0     		b	.L179
 1566              	.LVL226:
 1567              	.L176:
 1568              	.LBB70:
 375:..\common\ud3core\helper/printf.c ****       if (!(frac /= 10U)) {
 1569              		.loc 1 375 0
 1570 04ac 0A23     		movs	r3, #10
 1571              	.L181:
 1572              	.LVL227:
 373:..\common\ud3core\helper/printf.c ****       --count;
 1573              		.loc 1 373 0
 1574 04ae 202F     		cmp	r7, #32
 1575 04b0 32D0     		beq	.L190
ARM GAS  C:\Users\chemi\AppData\Local\Temp\ccvd4c4w.s 			page 45


 1576              	.LVL228:
 375:..\common\ud3core\helper/printf.c ****       if (!(frac /= 10U)) {
 1577              		.loc 1 375 0
 1578 04b2 16AA     		add	r2, sp, #88
 1579 04b4 0137     		adds	r7, r7, #1
 1580 04b6 D119     		adds	r1, r2, r7
 1581 04b8 BAFBF3F2 		udiv	r2, r10, r3
 1582 04bc 03FB12AA 		mls	r10, r3, r2, r10
 1583              	.LVL229:
 1584 04c0 0AF1300A 		add	r10, r10, #48
 1585 04c4 01F801AC 		strb	r10, [r1, #-1]
 374:..\common\ud3core\helper/printf.c ****       buf[len++] = (char)(48U + (frac % 10U));
 1586              		.loc 1 374 0
 1587 04c8 09F1FF39 		add	r9, r9, #-1
 1588              	.LVL230:
 376:..\common\ud3core\helper/printf.c ****         break;
 1589              		.loc 1 376 0
 1590 04cc 9246     		mov	r10, r2
 1591 04ce 002A     		cmp	r2, #0
 1592 04d0 EDD1     		bne	.L181
 1593 04d2 B944     		add	r9, r9, r7
 1594              	.LVL231:
 382:..\common\ud3core\helper/printf.c ****     }
 1595              		.loc 1 382 0
 1596 04d4 3023     		movs	r3, #48
 1597              	.LVL232:
 1598              	.L182:
 381:..\common\ud3core\helper/printf.c ****       buf[len++] = '0';
 1599              		.loc 1 381 0
 1600 04d6 202F     		cmp	r7, #32
 1601 04d8 1ED0     		beq	.L190
 1602 04da B945     		cmp	r9, r7
 1603 04dc 03D0     		beq	.L356
 1604              	.LVL233:
 382:..\common\ud3core\helper/printf.c ****     }
 1605              		.loc 1 382 0
 1606 04de 16AA     		add	r2, sp, #88
 1607 04e0 BB54     		strb	r3, [r7, r2]
 1608 04e2 0137     		adds	r7, r7, #1
 1609              	.LVL234:
 1610 04e4 F7E7     		b	.L182
 1611              	.L356:
 386:..\common\ud3core\helper/printf.c ****     }
 1612              		.loc 1 386 0
 1613 04e6 1EAB     		add	r3, sp, #120
 1614 04e8 09F10107 		add	r7, r9, #1
 1615              	.LVL235:
 1616 04ec 9944     		add	r9, r9, r3
 1617 04ee 2E23     		movs	r3, #46
 1618 04f0 09F8203C 		strb	r3, [r9, #-32]
 1619              	.LVL236:
 1620              	.L179:
 1621              	.LBE70:
 392:..\common\ud3core\helper/printf.c ****     if (!(whole /= 10)) {
 1622              		.loc 1 392 0
 1623 04f4 0A23     		movs	r3, #10
 1624              	.L188:
ARM GAS  C:\Users\chemi\AppData\Local\Temp\ccvd4c4w.s 			page 46


 391:..\common\ud3core\helper/printf.c ****     buf[len++] = (char)(48 + (whole % 10));
 1625              		.loc 1 391 0
 1626 04f6 202F     		cmp	r7, #32
 1627 04f8 0ED0     		beq	.L190
 1628              	.LVL237:
 392:..\common\ud3core\helper/printf.c ****     if (!(whole /= 10)) {
 1629              		.loc 1 392 0
 1630 04fa 16AA     		add	r2, sp, #88
 1631 04fc 0137     		adds	r7, r7, #1
 1632              	.LVL238:
 1633 04fe D119     		adds	r1, r2, r7
 1634 0500 9BFBF3F2 		sdiv	r2, fp, r3
 1635              	.LVL239:
 1636 0504 03FB12BB 		mls	fp, r3, r2, fp
 1637 0508 0BF1300B 		add	fp, fp, #48
 1638 050c 01F801BC 		strb	fp, [r1, #-1]
 393:..\common\ud3core\helper/printf.c ****       break;
 1639              		.loc 1 393 0
 1640 0510 9346     		mov	fp, r2
 1641 0512 002A     		cmp	r2, #0
 1642 0514 EFD1     		bne	.L188
 1643 0516 00E0     		b	.L187
 1644              	.LVL240:
 1645              	.L190:
 1646              	.LBB71:
 375:..\common\ud3core\helper/printf.c ****       if (!(frac /= 10U)) {
 1647              		.loc 1 375 0
 1648 0518 2027     		movs	r7, #32
 1649              	.L187:
 1650              	.LBE71:
 399:..\common\ud3core\helper/printf.c ****     while ((len < width) && (len < PRINTF_FTOA_BUFFER_SIZE)) {
 1651              		.loc 1 399 0
 1652 051a 04F00303 		and	r3, r4, #3
 1653 051e 012B     		cmp	r3, #1
 1654 0520 09D1     		bne	.L191
 401:..\common\ud3core\helper/printf.c ****     }
 1655              		.loc 1 401 0
 1656 0522 3022     		movs	r2, #48
 1657              	.L192:
 400:..\common\ud3core\helper/printf.c ****       buf[len++] = '0';
 1658              		.loc 1 400 0
 1659 0524 0D99     		ldr	r1, [sp, #52]
 1660 0526 B942     		cmp	r1, r7
 1661 0528 05D9     		bls	.L191
 1662 052a 202F     		cmp	r7, #32
 1663 052c 39D0     		beq	.L357
 401:..\common\ud3core\helper/printf.c ****     }
 1664              		.loc 1 401 0
 1665 052e 16A9     		add	r1, sp, #88
 1666 0530 7A54     		strb	r2, [r7, r1]
 1667 0532 0137     		adds	r7, r7, #1
 1668 0534 F6E7     		b	.L192
 1669              	.L191:
 406:..\common\ud3core\helper/printf.c ****     len--;
 1670              		.loc 1 406 0
 1671 0536 0D9A     		ldr	r2, [sp, #52]
 1672 0538 BA42     		cmp	r2, r7
ARM GAS  C:\Users\chemi\AppData\Local\Temp\ccvd4c4w.s 			page 47


 1673 053a 06D1     		bne	.L195
 1674              	.L234:
 1675 053c 16B9     		cbnz	r6, .L196
 1676 053e 14F00C0F 		tst	r4, #12
 1677 0542 09D0     		beq	.L197
 1678              	.L196:
 407:..\common\ud3core\helper/printf.c ****   }
 1679              		.loc 1 407 0
 1680 0544 0D9A     		ldr	r2, [sp, #52]
 1681 0546 571E     		subs	r7, r2, #1
 1682              	.LVL241:
 1683 0548 01E0     		b	.L198
 1684              	.LVL242:
 1685              	.L195:
 409:..\common\ud3core\helper/printf.c ****     if (negative) {
 1686              		.loc 1 409 0
 1687 054a 1F2F     		cmp	r7, #31
 1688 054c 15D8     		bhi	.L248
 1689              	.L198:
 410:..\common\ud3core\helper/printf.c ****       buf[len++] = '-';
 1690              		.loc 1 410 0
 1691 054e 2EB1     		cbz	r6, .L200
 1692              	.LVL243:
 411:..\common\ud3core\helper/printf.c ****     }
 1693              		.loc 1 411 0
 1694 0550 1EAA     		add	r2, sp, #120
 1695 0552 3A44     		add	r2, r2, r7
 1696 0554 2D21     		movs	r1, #45
 1697 0556 0CE0     		b	.L349
 1698              	.LVL244:
 1699              	.L197:
 409:..\common\ud3core\helper/printf.c ****     if (negative) {
 1700              		.loc 1 409 0
 1701 0558 202F     		cmp	r7, #32
 1702 055a 0FD0     		beq	.L199
 1703              	.L200:
 413:..\common\ud3core\helper/printf.c ****       buf[len++] = '+';  // ignore the space if the '+' exists
 1704              		.loc 1 413 0
 1705 055c 6107     		lsls	r1, r4, #29
 1706 055e 03D5     		bpl	.L201
 1707              	.LVL245:
 414:..\common\ud3core\helper/printf.c ****     }
 1708              		.loc 1 414 0
 1709 0560 1EAA     		add	r2, sp, #120
 1710 0562 3A44     		add	r2, r2, r7
 1711 0564 2B21     		movs	r1, #43
 1712 0566 04E0     		b	.L349
 1713              	.LVL246:
 1714              	.L201:
 416:..\common\ud3core\helper/printf.c ****       buf[len++] = ' ';
 1715              		.loc 1 416 0
 1716 0568 2207     		lsls	r2, r4, #28
 1717 056a 07D5     		bpl	.L199
 1718              	.LVL247:
 417:..\common\ud3core\helper/printf.c ****     }
 1719              		.loc 1 417 0
 1720 056c 1EAA     		add	r2, sp, #120
ARM GAS  C:\Users\chemi\AppData\Local\Temp\ccvd4c4w.s 			page 48


 1721 056e 3A44     		add	r2, r2, r7
 1722 0570 2021     		movs	r1, #32
 1723              	.LVL248:
 1724              	.L349:
 1725 0572 02F8201C 		strb	r1, [r2, #-32]
 1726 0576 0137     		adds	r7, r7, #1
 1727 0578 00E0     		b	.L199
 1728              	.L248:
 1729              	.LVL249:
 409:..\common\ud3core\helper/printf.c ****     if (negative) {
 1730              		.loc 1 409 0
 1731 057a 2027     		movs	r7, #32
 1732              	.LVL250:
 1733              	.L199:
 422:..\common\ud3core\helper/printf.c ****     for (size_t i = len; i < width; i++) {
 1734              		.loc 1 422 0
 1735 057c A946     		mov	r9, r5
 1736 057e A3B9     		cbnz	r3, .L202
 1737 0580 C5EB070A 		rsb	r10, r5, r7
 1738              	.LVL251:
 1739              	.L203:
 1740              	.LBB72:
 423:..\common\ud3core\helper/printf.c ****       out(' ', buffer, idx++, maxlen);
 1741              		.loc 1 423 0
 1742 0584 0D9A     		ldr	r2, [sp, #52]
 1743 0586 09EB0A03 		add	r3, r9, r10
 1744 058a 9A42     		cmp	r2, r3
 1745 058c 0DD9     		bls	.L202
 424:..\common\ud3core\helper/printf.c ****     }
 1746              		.loc 1 424 0
 1747 058e 4A46     		mov	r2, r9
 1748 0590 09F1010B 		add	fp, r9, #1
 1749              	.LVL252:
 1750 0594 0C9B     		ldr	r3, [sp, #48]
 1751 0596 0E99     		ldr	r1, [sp, #56]
 1752 0598 2020     		movs	r0, #32
 1753 059a 0F9E     		ldr	r6, [sp, #60]
 1754 059c B047     		blx	r6
 1755              	.LVL253:
 1756 059e D946     		mov	r9, fp
 1757 05a0 F0E7     		b	.L203
 1758              	.LVL254:
 1759              	.L357:
 1760              	.LBE72:
 406:..\common\ud3core\helper/printf.c ****     len--;
 1761              		.loc 1 406 0
 1762 05a2 0D9A     		ldr	r2, [sp, #52]
 1763 05a4 202A     		cmp	r2, #32
 1764 05a6 C9D0     		beq	.L234
 1765 05a8 A946     		mov	r9, r5
 1766              	.LVL255:
 1767              	.L202:
 1768 05aa 07F1FF3B 		add	fp, r7, #-1
 1769 05ae 16AB     		add	r3, sp, #88
 1770 05b0 03EB0B0A 		add	r10, r3, fp
 1771 05b4 1093     		str	r3, [sp, #64]
 1772              	.LVL256:
ARM GAS  C:\Users\chemi\AppData\Local\Temp\ccvd4c4w.s 			page 49


 1773 05b6 CB44     		add	fp, fp, r9
 1774              	.LVL257:
 1775              	.L205:
 1776 05b8 109B     		ldr	r3, [sp, #64]
 1777 05ba CAEB0B02 		rsb	r2, r10, fp
 1778 05be 1A44     		add	r2, r2, r3
 1779              	.LVL258:
 1780              	.LBB73:
 429:..\common\ud3core\helper/printf.c ****     out(buf[len - i - 1U], buffer, idx++, maxlen);
 1781              		.loc 1 429 0
 1782 05c0 0DF15703 		add	r3, sp, #87
 1783 05c4 5345     		cmp	r3, r10
 1784 05c6 06D0     		beq	.L358
 1785              	.LVL259:
 430:..\common\ud3core\helper/printf.c ****   }
 1786              		.loc 1 430 0
 1787 05c8 0C9B     		ldr	r3, [sp, #48]
 1788 05ca 0E99     		ldr	r1, [sp, #56]
 1789 05cc 1AF80109 		ldrb	r0, [r10], #-1	@ zero_extendqisi2
 1790 05d0 0F9E     		ldr	r6, [sp, #60]
 1791 05d2 B047     		blx	r6
 1792              	.LVL260:
 1793 05d4 F0E7     		b	.L205
 1794              	.LVL261:
 1795              	.L358:
 1796              	.LBE73:
 434:..\common\ud3core\helper/printf.c ****     while (idx - start_idx < width) {
 1797              		.loc 1 434 0
 1798 05d6 A307     		lsls	r3, r4, #30
 1799 05d8 07EB0902 		add	r2, r7, r9
 1800              	.LVL262:
 1801 05dc 0CD5     		bpl	.L175
 1802              	.LVL263:
 1803              	.L207:
 435:..\common\ud3core\helper/printf.c ****       out(' ', buffer, idx++, maxlen);
 1804              		.loc 1 435 0
 1805 05de 0D99     		ldr	r1, [sp, #52]
 1806 05e0 531B     		subs	r3, r2, r5
 1807 05e2 9942     		cmp	r1, r3
 1808 05e4 08D9     		bls	.L175
 436:..\common\ud3core\helper/printf.c ****     }
 1809              		.loc 1 436 0
 1810 05e6 541C     		adds	r4, r2, #1
 1811              	.LVL264:
 1812 05e8 0C9B     		ldr	r3, [sp, #48]
 1813 05ea 0E99     		ldr	r1, [sp, #56]
 1814 05ec 2020     		movs	r0, #32
 1815 05ee 0F9E     		ldr	r6, [sp, #60]
 1816 05f0 B047     		blx	r6
 1817              	.LVL265:
 1818 05f2 2246     		mov	r2, r4
 1819 05f4 F3E7     		b	.L207
 1820              	.LVL266:
 1821              	.L247:
 355:..\common\ud3core\helper/printf.c ****   }
 1822              		.loc 1 355 0
 1823 05f6 0022     		movs	r2, #0
ARM GAS  C:\Users\chemi\AppData\Local\Temp\ccvd4c4w.s 			page 50


 1824              	.LVL267:
 1825              	.L175:
 1826              	.LBE69:
 1827              	.LBE68:
 630:..\common\ud3core\helper/printf.c ****         break;
 1828              		.loc 1 630 0
 1829 05f8 0B9B     		ldr	r3, [sp, #44]
 629:..\common\ud3core\helper/printf.c ****         format++;
 1830              		.loc 1 629 0
 1831 05fa 1546     		mov	r5, r2
 1832              	.LVL268:
 630:..\common\ud3core\helper/printf.c ****         break;
 1833              		.loc 1 630 0
 1834 05fc 0133     		adds	r3, r3, #1
 1835              	.LVL269:
 631:..\common\ud3core\helper/printf.c **** #endif  // PRINTF_SUPPORT_FLOAT
 1836              		.loc 1 631 0
 1837 05fe 0CE5     		b	.L106
 1838              	.LVL270:
 1839              	.L140:
 1840              	.LBB74:
 636:..\common\ud3core\helper/printf.c ****           while (l++ < width) {
 1841              		.loc 1 636 0
 1842 0600 14F00204 		ands	r4, r4, #2
 1843              	.LVL271:
 1844 0604 11D1     		bne	.L250
 1845 0606 A146     		mov	r9, r4
 1846              	.LVL272:
 1847              	.L210:
 637:..\common\ud3core\helper/printf.c ****             out(' ', buffer, idx++, maxlen);
 1848              		.loc 1 637 0
 1849 0608 0D9B     		ldr	r3, [sp, #52]
 1850 060a 05EB0902 		add	r2, r5, r9
 1851              	.LVL273:
 1852 060e 09F10207 		add	r7, r9, #2
 1853              	.LVL274:
 1854 0612 09F10109 		add	r9, r9, #1
 1855 0616 4B45     		cmp	r3, r9
 1856 0618 05D9     		bls	.L359
 1857              	.LVL275:
 638:..\common\ud3core\helper/printf.c ****           }
 1858              		.loc 1 638 0
 1859 061a 0C9B     		ldr	r3, [sp, #48]
 1860 061c 0E99     		ldr	r1, [sp, #56]
 1861 061e 2020     		movs	r0, #32
 1862 0620 0F9E     		ldr	r6, [sp, #60]
 1863 0622 B047     		blx	r6
 1864              	.LVL276:
 1865 0624 F0E7     		b	.L210
 1866              	.LVL277:
 1867              	.L359:
 1868 0626 1546     		mov	r5, r2
 1869 0628 00E0     		b	.L209
 1870              	.LVL278:
 1871              	.L250:
 634:..\common\ud3core\helper/printf.c ****         // pre padding
 1872              		.loc 1 634 0
ARM GAS  C:\Users\chemi\AppData\Local\Temp\ccvd4c4w.s 			page 51


 1873 062a 0127     		movs	r7, #1
 1874              	.LVL279:
 1875              	.L209:
 642:..\common\ud3core\helper/printf.c ****         // post padding
 1876              		.loc 1 642 0
 1877 062c 0C9B     		ldr	r3, [sp, #48]
 1878 062e 2A46     		mov	r2, r5
 1879 0630 0E99     		ldr	r1, [sp, #56]
 1880 0632 98F80000 		ldrb	r0, [r8]	@ zero_extendqisi2
 1881 0636 0F9E     		ldr	r6, [sp, #60]
 1882 0638 08F1040A 		add	r10, r8, #4
 1883 063c 05F10109 		add	r9, r5, #1
 1884              	.LVL280:
 1885 0640 B047     		blx	r6
 1886              	.LVL281:
 644:..\common\ud3core\helper/printf.c ****           while (l++ < width) {
 1887              		.loc 1 644 0
 1888 0642 84B1     		cbz	r4, .L212
 1889 0644 013F     		subs	r7, r7, #1
 1890              	.LVL282:
 1891 0646 7D1B     		subs	r5, r7, r5
 1892              	.LVL283:
 1893              	.L213:
 645:..\common\ud3core\helper/printf.c ****             out(' ', buffer, idx++, maxlen);
 1894              		.loc 1 645 0
 1895 0648 0D9A     		ldr	r2, [sp, #52]
 1896 064a 09EB0503 		add	r3, r9, r5
 1897 064e 9A42     		cmp	r2, r3
 1898 0650 09D9     		bls	.L212
 646:..\common\ud3core\helper/printf.c ****           }
 1899              		.loc 1 646 0
 1900 0652 4A46     		mov	r2, r9
 1901 0654 09F10104 		add	r4, r9, #1
 1902              	.LVL284:
 1903 0658 0C9B     		ldr	r3, [sp, #48]
 1904 065a 0E99     		ldr	r1, [sp, #56]
 1905 065c 2020     		movs	r0, #32
 1906 065e 0F9E     		ldr	r6, [sp, #60]
 1907 0660 B047     		blx	r6
 1908              	.LVL285:
 1909 0662 A146     		mov	r9, r4
 1910 0664 F0E7     		b	.L213
 1911              	.LVL286:
 1912              	.L212:
 649:..\common\ud3core\helper/printf.c ****         break;
 1913              		.loc 1 649 0
 1914 0666 0B9B     		ldr	r3, [sp, #44]
 642:..\common\ud3core\helper/printf.c ****         // post padding
 1915              		.loc 1 642 0
 1916 0668 D046     		mov	r8, r10
 649:..\common\ud3core\helper/printf.c ****         break;
 1917              		.loc 1 649 0
 1918 066a 0133     		adds	r3, r3, #1
 1919              	.LVL287:
 650:..\common\ud3core\helper/printf.c ****       }
 1920              		.loc 1 650 0
 1921 066c 4D46     		mov	r5, r9
ARM GAS  C:\Users\chemi\AppData\Local\Temp\ccvd4c4w.s 			page 52


 1922 066e D4E4     		b	.L106
 1923              	.L366:
 1924              		.align	3
 1925              	.L365:
 1926 0670 0000C0FF 		.word	-4194304
 1927 0674 FFFFDF41 		.word	1105199103
 1928 0678 00000000 		.word	.LANCHOR0
 1929 067c 0000E03F 		.word	1071644672
 1930              	.LVL288:
 1931              	.L360:
 1932              	.LBE74:
 1933              	.LBB75:
 1934              	.LBB63:
 1935              	.LBB64:
 152:..\common\ud3core\helper/printf.c ****   return (unsigned int)(s - str);
 1936              		.loc 1 152 0
 1937 0680 9F42     		cmp	r7, r3
 1938 0682 03D0     		beq	.L217
 1939 0684 0137     		adds	r7, r7, #1
 1940              	.LVL289:
 1941              	.L216:
 1942 0686 3A78     		ldrb	r2, [r7]	@ zero_extendqisi2
 1943 0688 002A     		cmp	r2, #0
 1944 068a F9D1     		bne	.L360
 1945              	.L217:
 1946              	.LBE64:
 1947              	.LBE63:
 657:..\common\ud3core\helper/printf.c ****           l = (l < precision ? l : precision);
 1948              		.loc 1 657 0
 1949 068c 14F48063 		ands	r3, r4, #1024
 1950              	.LBB66:
 1951              	.LBB65:
 153:..\common\ud3core\helper/printf.c **** }
 1952              		.loc 1 153 0
 1953 0690 C8EB0707 		rsb	r7, r8, r7
 1954              	.LVL290:
 1955              	.LBE65:
 1956              	.LBE66:
 657:..\common\ud3core\helper/printf.c ****           l = (l < precision ? l : precision);
 1957              		.loc 1 657 0
 1958 0694 1E46     		mov	r6, r3
 1959 0696 02D0     		beq	.L219
 658:..\common\ud3core\helper/printf.c ****         }
 1960              		.loc 1 658 0
 1961 0698 4F45     		cmp	r7, r9
 1962 069a 28BF     		it	cs
 1963 069c 4F46     		movcs	r7, r9
 1964              	.LVL291:
 1965              	.L219:
 660:..\common\ud3core\helper/printf.c ****           while (l++ < width) {
 1966              		.loc 1 660 0
 1967 069e 14F00203 		ands	r3, r4, #2
 1968 06a2 1093     		str	r3, [sp, #64]
 1969 06a4 11D1     		bne	.L220
 1970 06a6 C7EB050A 		rsb	r10, r7, r5
 1971              	.LVL292:
 1972              	.L221:
ARM GAS  C:\Users\chemi\AppData\Local\Temp\ccvd4c4w.s 			page 53


 661:..\common\ud3core\helper/printf.c ****             out(' ', buffer, idx++, maxlen);
 1973              		.loc 1 661 0
 1974 06aa 0D9B     		ldr	r3, [sp, #52]
 1975 06ac 0AEB0702 		add	r2, r10, r7
 1976              	.LVL293:
 1977 06b0 BB42     		cmp	r3, r7
 1978 06b2 07F10104 		add	r4, r7, #1
 1979              	.LVL294:
 1980 06b6 06D9     		bls	.L361
 1981              	.LVL295:
 662:..\common\ud3core\helper/printf.c ****           }
 1982              		.loc 1 662 0
 1983 06b8 0C9B     		ldr	r3, [sp, #48]
 1984 06ba 0E99     		ldr	r1, [sp, #56]
 1985 06bc 2020     		movs	r0, #32
 1986 06be 0F9D     		ldr	r5, [sp, #60]
 1987 06c0 A847     		blx	r5
 1988              	.LVL296:
 661:..\common\ud3core\helper/printf.c ****             out(' ', buffer, idx++, maxlen);
 1989              		.loc 1 661 0
 1990 06c2 2746     		mov	r7, r4
 1991 06c4 F1E7     		b	.L221
 1992              	.LVL297:
 1993              	.L361:
 1994 06c6 2746     		mov	r7, r4
 1995 06c8 1546     		mov	r5, r2
 1996              	.LVL298:
 1997              	.L220:
 1998 06ca C8EB0504 		rsb	r4, r8, r5
 1999              	.LVL299:
 2000              	.L223:
 2001 06ce 08EB0402 		add	r2, r8, r4
 2002              	.LVL300:
 666:..\common\ud3core\helper/printf.c ****           out(*(p++), buffer, idx++, maxlen);
 2003              		.loc 1 666 0
 2004 06d2 18F8010B 		ldrb	r0, [r8], #1	@ zero_extendqisi2
 2005              	.LVL301:
 2006 06d6 60B1     		cbz	r0, .L224
 666:..\common\ud3core\helper/printf.c ****           out(*(p++), buffer, idx++, maxlen);
 2007              		.loc 1 666 0 is_stmt 0 discriminator 1
 2008 06d8 26B9     		cbnz	r6, .L362
 2009              	.L225:
 2010              	.LVL302:
 667:..\common\ud3core\helper/printf.c ****         }
 2011              		.loc 1 667 0 is_stmt 1
 2012 06da 0C9B     		ldr	r3, [sp, #48]
 2013 06dc 0E99     		ldr	r1, [sp, #56]
 2014 06de 0F9D     		ldr	r5, [sp, #60]
 2015 06e0 A847     		blx	r5
 2016              	.LVL303:
 2017 06e2 F4E7     		b	.L223
 2018              	.LVL304:
 2019              	.L362:
 666:..\common\ud3core\helper/printf.c ****           out(*(p++), buffer, idx++, maxlen);
 2020              		.loc 1 666 0 discriminator 2
 2021 06e4 09F1FF33 		add	r3, r9, #-1
 2022              	.LVL305:
ARM GAS  C:\Users\chemi\AppData\Local\Temp\ccvd4c4w.s 			page 54


 2023 06e8 B9F1000F 		cmp	r9, #0
 2024 06ec 01D0     		beq	.L224
 2025 06ee 9946     		mov	r9, r3
 2026 06f0 F3E7     		b	.L225
 2027              	.LVL306:
 2028              	.L224:
 670:..\common\ud3core\helper/printf.c ****           while (l++ < width) {
 2029              		.loc 1 670 0
 2030 06f2 109B     		ldr	r3, [sp, #64]
 2031 06f4 1546     		mov	r5, r2
 2032 06f6 6BB1     		cbz	r3, .L226
 2033 06f8 BF1A     		subs	r7, r7, r2
 2034              	.LVL307:
 2035              	.L227:
 671:..\common\ud3core\helper/printf.c ****             out(' ', buffer, idx++, maxlen);
 2036              		.loc 1 671 0
 2037 06fa 0D9A     		ldr	r2, [sp, #52]
 2038 06fc EB19     		adds	r3, r5, r7
 2039 06fe 9A42     		cmp	r2, r3
 2040 0700 08D9     		bls	.L226
 672:..\common\ud3core\helper/printf.c ****           }
 2041              		.loc 1 672 0
 2042 0702 6C1C     		adds	r4, r5, #1
 2043              	.LVL308:
 2044 0704 2A46     		mov	r2, r5
 2045 0706 0C9B     		ldr	r3, [sp, #48]
 2046 0708 0F9D     		ldr	r5, [sp, #60]
 2047 070a 0E99     		ldr	r1, [sp, #56]
 2048 070c 2020     		movs	r0, #32
 2049 070e A847     		blx	r5
 2050              	.LVL309:
 2051 0710 2546     		mov	r5, r4
 2052 0712 F2E7     		b	.L227
 2053              	.LVL310:
 2054              	.L226:
 675:..\common\ud3core\helper/printf.c ****         break;
 2055              		.loc 1 675 0
 2056 0714 0B9B     		ldr	r3, [sp, #44]
 654:..\common\ud3core\helper/printf.c ****         unsigned int l = _strnlen_s(p, precision ? precision : (size_t)-1);
 2057              		.loc 1 654 0
 2058 0716 D846     		mov	r8, fp
 2059              	.LVL311:
 675:..\common\ud3core\helper/printf.c ****         break;
 2060              		.loc 1 675 0
 2061 0718 0133     		adds	r3, r3, #1
 2062              	.LVL312:
 676:..\common\ud3core\helper/printf.c ****       }
 2063              		.loc 1 676 0
 2064 071a 7EE4     		b	.L106
 2065              	.LVL313:
 2066              	.L141:
 2067              	.LBE75:
 2068              	.LBB76:
 689:..\common\ud3core\helper/printf.c **** #if defined(PRINTF_SUPPORT_LONG_LONG)
 2069              		.loc 1 689 0
 2070 071c 0823     		movs	r3, #8
 2071              	.LVL314:
ARM GAS  C:\Users\chemi\AppData\Local\Temp\ccvd4c4w.s 			page 55


 2072 071e 0493     		str	r3, [sp, #16]
 2073 0720 1023     		movs	r3, #16
 2074 0722 0293     		str	r3, [sp, #8]
 2075 0724 44F02104 		orr	r4, r4, #33
 2076              	.LVL315:
 2077 0728 0023     		movs	r3, #0
 2078 072a 0594     		str	r4, [sp, #20]
 2079 072c CDF80C90 		str	r9, [sp, #12]
 2080 0730 0193     		str	r3, [sp, #4]
 2081 0732 D8F80030 		ldr	r3, [r8]
 2082 0736 2A46     		mov	r2, r5
 2083 0738 0093     		str	r3, [sp]
 2084 073a 0E99     		ldr	r1, [sp, #56]
 2085 073c 0C9B     		ldr	r3, [sp, #48]
 2086 073e 0F98     		ldr	r0, [sp, #60]
 2087 0740 FFF7FEFF 		bl	_ntoa_long
 2088              	.LVL316:
 693:..\common\ud3core\helper/printf.c ****         break;
 2089              		.loc 1 693 0
 2090 0744 0B9B     		ldr	r3, [sp, #44]
 689:..\common\ud3core\helper/printf.c **** #if defined(PRINTF_SUPPORT_LONG_LONG)
 2091              		.loc 1 689 0
 2092 0746 08F10407 		add	r7, r8, #4
 2093 074a 0546     		mov	r5, r0
 2094              	.LVL317:
 693:..\common\ud3core\helper/printf.c ****         break;
 2095              		.loc 1 693 0
 2096 074c 0133     		adds	r3, r3, #1
 2097              	.LVL318:
 689:..\common\ud3core\helper/printf.c **** #if defined(PRINTF_SUPPORT_LONG_LONG)
 2098              		.loc 1 689 0
 2099 074e B846     		mov	r8, r7
 694:..\common\ud3core\helper/printf.c ****       }
 2100              		.loc 1 694 0
 2101 0750 63E4     		b	.L106
 2102              	.LVL319:
 2103              	.L355:
 2104              	.LBE76:
 485:..\common\ud3core\helper/printf.c ****       width = _atoi(&format);
 2105              		.loc 1 485 0
 2106 0752 0022     		movs	r2, #0
 2107 0754 0D92     		str	r2, [sp, #52]
 2108 0756 0A20     		movs	r0, #10
 2109              	.LVL320:
 2110              	.L233:
 2111 0758 1946     		mov	r1, r3
 2112              	.LVL321:
 2113              	.LBB77:
 2114              	.LBB78:
 169:..\common\ud3core\helper/printf.c ****     i = i * 10U + (unsigned int)(*((*str)++) - '0');
 2115              		.loc 1 169 0
 2116 075a 13F8012B 		ldrb	r2, [r3], #1	@ zero_extendqisi2
 2117 075e A2F13006 		sub	r6, r2, #48
 2118 0762 092E     		cmp	r6, #9
 2119 0764 3FF6BEAC 		bhi	.L118
 2120              	.LVL322:
 2121 0768 0D99     		ldr	r1, [sp, #52]
ARM GAS  C:\Users\chemi\AppData\Local\Temp\ccvd4c4w.s 			page 56


 2122 076a 00FB0122 		mla	r2, r0, r1, r2
 170:..\common\ud3core\helper/printf.c ****   }
 2123              		.loc 1 170 0
 2124 076e 303A     		subs	r2, r2, #48
 2125 0770 0D92     		str	r2, [sp, #52]
 2126              	.LVL323:
 2127 0772 F1E7     		b	.L233
 2128              	.LBE78:
 2129              	.LBE77:
 2130              		.cfi_endproc
 2131              	.LFE79:
 2132              		.size	_vsnprintf, .-_vsnprintf
 2133              		.section	.text.printf_,"ax",%progbits
 2134              		.align	1
 2135              		.global	printf_
 2136              		.thumb
 2137              		.thumb_func
 2138              		.type	printf_, %function
 2139              	printf_:
 2140              	.LFB80:
 720:..\common\ud3core\helper/printf.c ****   va_list va;
 2141              		.loc 1 720 0
 2142              		.cfi_startproc
 2143              		@ args = 4, pretend = 16, frame = 8
 2144              		@ frame_needed = 0, uses_anonymous_args = 1
 2145              	.LVL324:
 2146 0000 0FB4     		push	{r0, r1, r2, r3}
 2147              		.cfi_def_cfa_offset 16
 2148              		.cfi_offset 0, -16
 2149              		.cfi_offset 1, -12
 2150              		.cfi_offset 2, -8
 2151              		.cfi_offset 3, -4
 2152 0002 1FB5     		push	{r0, r1, r2, r3, r4, lr}
 2153              		.cfi_def_cfa_offset 40
 2154              		.cfi_offset 14, -20
 720:..\common\ud3core\helper/printf.c ****   va_list va;
 2155              		.loc 1 720 0
 2156 0004 06AA     		add	r2, sp, #24
 2157 0006 52F8043B 		ldr	r3, [r2], #4
 724:..\common\ud3core\helper/printf.c ****   va_end(va);
 2158              		.loc 1 724 0
 2159 000a 02A9     		add	r1, sp, #8
 722:..\common\ud3core\helper/printf.c ****   char buffer[1];
 2160              		.loc 1 722 0
 2161 000c 0392     		str	r2, [sp, #12]
 724:..\common\ud3core\helper/printf.c ****   va_end(va);
 2162              		.loc 1 724 0
 2163 000e 0092     		str	r2, [sp]
 2164 0010 0448     		ldr	r0, .L368
 2165 0012 4FF0FF32 		mov	r2, #-1
 2166 0016 FFF7FEFF 		bl	_vsnprintf
 2167              	.LVL325:
 727:..\common\ud3core\helper/printf.c **** 
 2168              		.loc 1 727 0
 2169 001a 05B0     		add	sp, sp, #20
 2170              		.cfi_def_cfa_offset 20
 2171              		@ sp needed
ARM GAS  C:\Users\chemi\AppData\Local\Temp\ccvd4c4w.s 			page 57


 2172 001c 5DF804EB 		ldr	lr, [sp], #4
 2173              		.cfi_restore 14
 2174              		.cfi_def_cfa_offset 16
 2175 0020 04B0     		add	sp, sp, #16
 2176              		.cfi_restore 3
 2177              		.cfi_restore 2
 2178              		.cfi_restore 1
 2179              		.cfi_restore 0
 2180              		.cfi_def_cfa_offset 0
 2181 0022 7047     		bx	lr
 2182              	.L369:
 2183              		.align	2
 2184              	.L368:
 2185 0024 00000000 		.word	_out_char
 2186              		.cfi_endproc
 2187              	.LFE80:
 2188              		.size	printf_, .-printf_
 2189              		.section	.text.sprintf_,"ax",%progbits
 2190              		.align	1
 2191              		.global	sprintf_
 2192              		.thumb
 2193              		.thumb_func
 2194              		.type	sprintf_, %function
 2195              	sprintf_:
 2196              	.LFB81:
 731:..\common\ud3core\helper/printf.c ****   va_list va;
 2197              		.loc 1 731 0
 2198              		.cfi_startproc
 2199              		@ args = 4, pretend = 12, frame = 8
 2200              		@ frame_needed = 0, uses_anonymous_args = 1
 2201              	.LVL326:
 2202 0000 0EB4     		push	{r1, r2, r3}
 2203              		.cfi_def_cfa_offset 12
 2204              		.cfi_offset 1, -12
 2205              		.cfi_offset 2, -8
 2206              		.cfi_offset 3, -4
 2207 0002 0FB5     		push	{r0, r1, r2, r3, lr}
 2208              		.cfi_def_cfa_offset 32
 2209              		.cfi_offset 14, -16
 731:..\common\ud3core\helper/printf.c ****   va_list va;
 2210              		.loc 1 731 0
 2211 0004 05AA     		add	r2, sp, #20
 2212 0006 52F8043B 		ldr	r3, [r2], #4
 734:..\common\ud3core\helper/printf.c ****   va_end(va);
 2213              		.loc 1 734 0
 2214 000a 0146     		mov	r1, r0
 733:..\common\ud3core\helper/printf.c ****   const int ret = _vsnprintf(_out_buffer, buffer, (size_t)-1, format, va);
 2215              		.loc 1 733 0
 2216 000c 0392     		str	r2, [sp, #12]
 734:..\common\ud3core\helper/printf.c ****   va_end(va);
 2217              		.loc 1 734 0
 2218 000e 0092     		str	r2, [sp]
 2219 0010 0448     		ldr	r0, .L371
 2220              	.LVL327:
 2221 0012 4FF0FF32 		mov	r2, #-1
 2222 0016 FFF7FEFF 		bl	_vsnprintf
 2223              	.LVL328:
ARM GAS  C:\Users\chemi\AppData\Local\Temp\ccvd4c4w.s 			page 58


 737:..\common\ud3core\helper/printf.c **** 
 2224              		.loc 1 737 0
 2225 001a 04B0     		add	sp, sp, #16
 2226              		.cfi_def_cfa_offset 16
 2227              		@ sp needed
 2228 001c 5DF804EB 		ldr	lr, [sp], #4
 2229              		.cfi_restore 14
 2230              		.cfi_def_cfa_offset 12
 2231 0020 03B0     		add	sp, sp, #12
 2232              		.cfi_restore 3
 2233              		.cfi_restore 2
 2234              		.cfi_restore 1
 2235              		.cfi_def_cfa_offset 0
 2236 0022 7047     		bx	lr
 2237              	.L372:
 2238              		.align	2
 2239              	.L371:
 2240 0024 00000000 		.word	_out_buffer
 2241              		.cfi_endproc
 2242              	.LFE81:
 2243              		.size	sprintf_, .-sprintf_
 2244              		.section	.text.snprintf_,"ax",%progbits
 2245              		.align	1
 2246              		.global	snprintf_
 2247              		.thumb
 2248              		.thumb_func
 2249              		.type	snprintf_, %function
 2250              	snprintf_:
 2251              	.LFB82:
 741:..\common\ud3core\helper/printf.c ****   va_list va;
 2252              		.loc 1 741 0
 2253              		.cfi_startproc
 2254              		@ args = 4, pretend = 8, frame = 8
 2255              		@ frame_needed = 0, uses_anonymous_args = 1
 2256              	.LVL329:
 2257 0000 0CB4     		push	{r2, r3}
 2258              		.cfi_def_cfa_offset 8
 2259              		.cfi_offset 2, -8
 2260              		.cfi_offset 3, -4
 2261 0002 1FB5     		push	{r0, r1, r2, r3, r4, lr}
 2262              		.cfi_def_cfa_offset 32
 2263              		.cfi_offset 14, -12
 741:..\common\ud3core\helper/printf.c ****   va_list va;
 2264              		.loc 1 741 0
 2265 0004 06AA     		add	r2, sp, #24
 2266 0006 52F8043B 		ldr	r3, [r2], #4
 743:..\common\ud3core\helper/printf.c ****   const int ret = _vsnprintf(_out_buffer, buffer, count, format, va);
 2267              		.loc 1 743 0
 2268 000a 0392     		str	r2, [sp, #12]
 744:..\common\ud3core\helper/printf.c ****   va_end(va);
 2269              		.loc 1 744 0
 2270 000c 0092     		str	r2, [sp]
 2271 000e 0A46     		mov	r2, r1
 2272 0010 0146     		mov	r1, r0
 2273              	.LVL330:
 2274 0012 0448     		ldr	r0, .L374
 2275              	.LVL331:
ARM GAS  C:\Users\chemi\AppData\Local\Temp\ccvd4c4w.s 			page 59


 2276 0014 FFF7FEFF 		bl	_vsnprintf
 2277              	.LVL332:
 747:..\common\ud3core\helper/printf.c **** 
 2278              		.loc 1 747 0
 2279 0018 05B0     		add	sp, sp, #20
 2280              		.cfi_def_cfa_offset 12
 2281              		@ sp needed
 2282 001a 5DF804EB 		ldr	lr, [sp], #4
 2283              		.cfi_restore 14
 2284              		.cfi_def_cfa_offset 8
 2285 001e 02B0     		add	sp, sp, #8
 2286              		.cfi_restore 3
 2287              		.cfi_restore 2
 2288              		.cfi_def_cfa_offset 0
 2289 0020 7047     		bx	lr
 2290              	.L375:
 2291 0022 00BF     		.align	2
 2292              	.L374:
 2293 0024 00000000 		.word	_out_buffer
 2294              		.cfi_endproc
 2295              	.LFE82:
 2296              		.size	snprintf_, .-snprintf_
 2297              		.section	.text.vsnprintf_,"ax",%progbits
 2298              		.align	1
 2299              		.global	vsnprintf_
 2300              		.thumb
 2301              		.thumb_func
 2302              		.type	vsnprintf_, %function
 2303              	vsnprintf_:
 2304              	.LFB83:
 751:..\common\ud3core\helper/printf.c ****   return _vsnprintf(_out_buffer, buffer, count, format, va);
 2305              		.loc 1 751 0
 2306              		.cfi_startproc
 2307              		@ args = 0, pretend = 0, frame = 0
 2308              		@ frame_needed = 0, uses_anonymous_args = 0
 2309              	.LVL333:
 2310 0000 07B5     		push	{r0, r1, r2, lr}
 2311              		.cfi_def_cfa_offset 16
 2312              		.cfi_offset 14, -4
 752:..\common\ud3core\helper/printf.c **** }
 2313              		.loc 1 752 0
 2314 0002 0093     		str	r3, [sp]
 2315 0004 1346     		mov	r3, r2
 2316              	.LVL334:
 2317 0006 0A46     		mov	r2, r1
 2318              	.LVL335:
 2319 0008 0146     		mov	r1, r0
 2320              	.LVL336:
 2321 000a 0348     		ldr	r0, .L377
 2322              	.LVL337:
 2323 000c FFF7FEFF 		bl	_vsnprintf
 2324              	.LVL338:
 753:..\common\ud3core\helper/printf.c **** 
 2325              		.loc 1 753 0
 2326 0010 03B0     		add	sp, sp, #12
 2327              		.cfi_def_cfa_offset 4
 2328              		@ sp needed
ARM GAS  C:\Users\chemi\AppData\Local\Temp\ccvd4c4w.s 			page 60


 2329 0012 5DF804FB 		ldr	pc, [sp], #4
 2330              	.L378:
 2331 0016 00BF     		.align	2
 2332              	.L377:
 2333 0018 00000000 		.word	_out_buffer
 2334              		.cfi_endproc
 2335              	.LFE83:
 2336              		.size	vsnprintf_, .-vsnprintf_
 2337              		.section	.text.fctprintf,"ax",%progbits
 2338              		.align	1
 2339              		.global	fctprintf
 2340              		.thumb
 2341              		.thumb_func
 2342              		.type	fctprintf, %function
 2343              	fctprintf:
 2344              	.LFB84:
 757:..\common\ud3core\helper/printf.c ****   va_list va;
 2345              		.loc 1 757 0
 2346              		.cfi_startproc
 2347              		@ args = 4, pretend = 8, frame = 16
 2348              		@ frame_needed = 0, uses_anonymous_args = 1
 2349              	.LVL339:
 2350 0000 0CB4     		push	{r2, r3}
 2351              		.cfi_def_cfa_offset 8
 2352              		.cfi_offset 2, -8
 2353              		.cfi_offset 3, -4
 2354 0002 7FB5     		push	{r0, r1, r2, r3, r4, r5, r6, lr}
 2355              		.cfi_def_cfa_offset 40
 2356              		.cfi_offset 14, -12
 757:..\common\ud3core\helper/printf.c ****   va_list va;
 2357              		.loc 1 757 0
 2358 0004 08AA     		add	r2, sp, #32
 2359 0006 52F8043B 		ldr	r3, [r2], #4
 760:..\common\ud3core\helper/printf.c ****   const int ret = _vsnprintf(_out_fct, (char*)&out_fct_wrap, (size_t)-1, format, va);
 2360              		.loc 1 760 0
 2361 000a 0490     		str	r0, [sp, #16]
 759:..\common\ud3core\helper/printf.c ****   const out_fct_wrap_type out_fct_wrap = { out, arg };
 2362              		.loc 1 759 0
 2363 000c 0392     		str	r2, [sp, #12]
 760:..\common\ud3core\helper/printf.c ****   const int ret = _vsnprintf(_out_fct, (char*)&out_fct_wrap, (size_t)-1, format, va);
 2364              		.loc 1 760 0
 2365 000e 0591     		str	r1, [sp, #20]
 761:..\common\ud3core\helper/printf.c ****   va_end(va);
 2366              		.loc 1 761 0
 2367 0010 0092     		str	r2, [sp]
 2368 0012 04A9     		add	r1, sp, #16
 2369              	.LVL340:
 2370 0014 4FF0FF32 		mov	r2, #-1
 2371 0018 0348     		ldr	r0, .L380
 2372              	.LVL341:
 2373 001a FFF7FEFF 		bl	_vsnprintf
 2374              	.LVL342:
 764:..\common\ud3core\helper/printf.c **** 
 2375              		.loc 1 764 0
 2376 001e 07B0     		add	sp, sp, #28
 2377              		.cfi_def_cfa_offset 12
 2378              		@ sp needed
ARM GAS  C:\Users\chemi\AppData\Local\Temp\ccvd4c4w.s 			page 61


 2379 0020 5DF804EB 		ldr	lr, [sp], #4
 2380              		.cfi_restore 14
 2381              		.cfi_def_cfa_offset 8
 2382 0024 02B0     		add	sp, sp, #8
 2383              		.cfi_restore 3
 2384              		.cfi_restore 2
 2385              		.cfi_def_cfa_offset 0
 2386 0026 7047     		bx	lr
 2387              	.L381:
 2388              		.align	2
 2389              	.L380:
 2390 0028 00000000 		.word	_out_fct
 2391              		.cfi_endproc
 2392              	.LFE84:
 2393              		.size	fctprintf, .-fctprintf
 2394              		.section	.text.stream_buffer,"ax",%progbits
 2395              		.align	1
 2396              		.global	stream_buffer
 2397              		.thumb
 2398              		.thumb_func
 2399              		.type	stream_buffer, %function
 2400              	stream_buffer:
 2401              	.LFB86:
 770:..\common\ud3core\helper/printf.c **** 
 771:..\common\ud3core\helper/printf.c **** uint32_t stream_buffer(void * port, uint8_t * buffer, uint32_t len){
 2402              		.loc 1 771 0
 2403              		.cfi_startproc
 2404              		@ args = 0, pretend = 0, frame = 0
 2405              		@ frame_needed = 0, uses_anonymous_args = 0
 2406              	.LVL343:
 2407 0000 70B5     		push	{r4, r5, r6, lr}
 2408              		.cfi_def_cfa_offset 16
 2409              		.cfi_offset 4, -16
 2410              		.cfi_offset 5, -12
 2411              		.cfi_offset 6, -8
 2412              		.cfi_offset 14, -4
 2413              		.loc 1 771 0
 2414 0002 0546     		mov	r5, r0
 772:..\common\ud3core\helper/printf.c ****     if(((port_str*)port)->tx==NULL) return 0;
 2415              		.loc 1 772 0
 2416 0004 4068     		ldr	r0, [r0, #4]
 2417              	.LVL344:
 771:..\common\ud3core\helper/printf.c ****     if(((port_str*)port)->tx==NULL) return 0;
 2418              		.loc 1 771 0
 2419 0006 0E46     		mov	r6, r1
 2420 0008 1446     		mov	r4, r2
 2421              		.loc 1 772 0
 2422 000a A0B9     		cbnz	r0, .L384
 2423 000c 70BD     		pop	{r4, r5, r6, pc}
 2424              	.LVL345:
 2425              	.L388:
 2426              	.LBB79:
 773:..\common\ud3core\helper/printf.c ****     while(len){
 774:..\common\ud3core\helper/printf.c **** 		uint16_t space = xStreamBufferSpacesAvailable(((port_str*)port)->tx);
 2427              		.loc 1 774 0
 2428 000e 6868     		ldr	r0, [r5, #4]
 2429 0010 FFF7FEFF 		bl	xStreamBufferSpacesAvailable
ARM GAS  C:\Users\chemi\AppData\Local\Temp\ccvd4c4w.s 			page 62


 2430              	.LVL346:
 775:..\common\ud3core\helper/printf.c **** 		uint16_t len_t = len;
 776:..\common\ud3core\helper/printf.c **** 		if(len>space) len_t = space;
 2431              		.loc 1 776 0
 2432 0014 80B2     		uxth	r0, r0
 2433 0016 8442     		cmp	r4, r0
 774:..\common\ud3core\helper/printf.c **** 		uint16_t len_t = len;
 2434              		.loc 1 774 0
 2435 0018 8CBF     		ite	hi
 2436 001a 0246     		movhi	r2, r0
 775:..\common\ud3core\helper/printf.c **** 		uint16_t len_t = len;
 2437              		.loc 1 775 0
 2438 001c A2B2     		uxthls	r2, r4
 2439              	.LVL347:
 777:..\common\ud3core\helper/printf.c **** 		uint16_t count = xStreamBufferSend(((port_str*)port)->tx,buffer, len_t,0);
 2440              		.loc 1 777 0
 2441 001e 3146     		mov	r1, r6
 2442 0020 0023     		movs	r3, #0
 2443 0022 6868     		ldr	r0, [r5, #4]
 2444              	.LVL348:
 2445 0024 FFF7FEFF 		bl	xStreamBufferSend
 2446              	.LVL349:
 2447 0028 80B2     		uxth	r0, r0
 778:..\common\ud3core\helper/printf.c **** 		buffer+=count;
 2448              		.loc 1 778 0
 2449 002a 0644     		add	r6, r6, r0
 2450              	.LVL350:
 779:..\common\ud3core\helper/printf.c **** 		len-=count;
 2451              		.loc 1 779 0
 2452 002c 241A     		subs	r4, r4, r0
 2453              	.LVL351:
 780:..\common\ud3core\helper/printf.c ****         
 781:..\common\ud3core\helper/printf.c **** 		if(!count) vTaskDelay(2);
 2454              		.loc 1 781 0
 2455 002e 10B9     		cbnz	r0, .L384
 2456              		.loc 1 781 0 is_stmt 0 discriminator 1
 2457 0030 0220     		movs	r0, #2
 2458              	.LVL352:
 2459 0032 FFF7FEFF 		bl	vTaskDelay
 2460              	.LVL353:
 2461              	.L384:
 2462              	.LBE79:
 773:..\common\ud3core\helper/printf.c **** 		uint16_t space = xStreamBufferSpacesAvailable(((port_str*)port)->tx);
 2463              		.loc 1 773 0 is_stmt 1
 2464 0036 002C     		cmp	r4, #0
 2465 0038 E9D1     		bne	.L388
 782:..\common\ud3core\helper/printf.c ****     }
 783:..\common\ud3core\helper/printf.c ****     return 1;
 2466              		.loc 1 783 0
 2467 003a 0120     		movs	r0, #1
 784:..\common\ud3core\helper/printf.c **** }
 2468              		.loc 1 784 0
 2469 003c 70BD     		pop	{r4, r5, r6, pc}
 2470              		.cfi_endproc
 2471              	.LFE86:
 2472              		.size	stream_buffer, .-stream_buffer
 2473              		.section	.text.stream_printf,"ax",%progbits
ARM GAS  C:\Users\chemi\AppData\Local\Temp\ccvd4c4w.s 			page 63


 2474              		.align	1
 2475              		.global	stream_printf
 2476              		.thumb
 2477              		.thumb_func
 2478              		.type	stream_printf, %function
 2479              	stream_printf:
 2480              	.LFB87:
 785:..\common\ud3core\helper/printf.c **** 
 786:..\common\ud3core\helper/printf.c **** uint32_t stream_printf(void * port, char* format, ...){
 2481              		.loc 1 786 0
 2482              		.cfi_startproc
 2483              		@ args = 4, pretend = 12, frame = 16
 2484              		@ frame_needed = 0, uses_anonymous_args = 1
 2485              	.LVL354:
 2486 0000 0EB4     		push	{r1, r2, r3}
 2487              		.cfi_def_cfa_offset 12
 2488              		.cfi_offset 1, -12
 2489              		.cfi_offset 2, -8
 2490              		.cfi_offset 3, -4
 2491 0002 10B5     		push	{r4, lr}
 2492              		.cfi_def_cfa_offset 20
 2493              		.cfi_offset 4, -20
 2494              		.cfi_offset 14, -16
 2495 0004 87B0     		sub	sp, sp, #28
 2496              		.cfi_def_cfa_offset 48
 2497              		.loc 1 786 0
 2498 0006 09AA     		add	r2, sp, #36
 2499 0008 52F8043B 		ldr	r3, [r2], #4
 2500 000c 0146     		mov	r1, r0
 787:..\common\ud3core\helper/printf.c ****     va_list va;
 788:..\common\ud3core\helper/printf.c ****     va_start(va, format);
 789:..\common\ud3core\helper/printf.c ****     if(*format=='\0'){
 2501              		.loc 1 789 0
 2502 000e 1C78     		ldrb	r4, [r3]	@ zero_extendqisi2
 788:..\common\ud3core\helper/printf.c ****     if(*format=='\0'){
 2503              		.loc 1 788 0
 2504 0010 0392     		str	r2, [sp, #12]
 2505              		.loc 1 789 0
 2506 0012 24B9     		cbnz	r4, .L391
 2507              	.LVL355:
 2508              	.LBB80:
 790:..\common\ud3core\helper/printf.c ****         uint8_t* buffer = va_arg(va,uint8_t*);
 791:..\common\ud3core\helper/printf.c ****         uint32_t len = va_arg(va,uint32_t);
 792:..\common\ud3core\helper/printf.c ****         stream_buffer(port,buffer,len);
 2509              		.loc 1 792 0
 2510 0014 5268     		ldr	r2, [r2, #4]
 2511              	.LVL356:
 2512 0016 0A99     		ldr	r1, [sp, #40]
 2513 0018 FFF7FEFF 		bl	stream_buffer
 2514              	.LVL357:
 2515              	.LBE80:
 2516 001c 0BE0     		b	.L392
 2517              	.LVL358:
 2518              	.L391:
 793:..\common\ud3core\helper/printf.c ****     }else{
 794:..\common\ud3core\helper/printf.c ****         if(((port_str*)port)->tx!=NULL){;
 2519              		.loc 1 794 0
ARM GAS  C:\Users\chemi\AppData\Local\Temp\ccvd4c4w.s 			page 64


 2520 001e 4068     		ldr	r0, [r0, #4]
 2521              	.LVL359:
 2522 0020 48B1     		cbz	r0, .L392
 2523              	.LBB81:
 795:..\common\ud3core\helper/printf.c ****             const out_fct_wrap_type out_fct_wrap = { &send_stream, port };
 2524              		.loc 1 795 0
 2525 0022 0848     		ldr	r0, .L396
 2526 0024 0591     		str	r1, [sp, #20]
 2527 0026 0490     		str	r0, [sp, #16]
 796:..\common\ud3core\helper/printf.c ****             _vsnprintf(_out_fct, (char*)&out_fct_wrap, (size_t)-1, format, va);
 2528              		.loc 1 796 0
 2529 0028 0092     		str	r2, [sp]
 2530 002a 04A9     		add	r1, sp, #16
 2531              	.LVL360:
 2532 002c 4FF0FF32 		mov	r2, #-1
 2533 0030 0548     		ldr	r0, .L396+4
 2534 0032 FFF7FEFF 		bl	_vsnprintf
 2535              	.LVL361:
 2536              	.L392:
 2537              	.LBE81:
 797:..\common\ud3core\helper/printf.c ****         }
 798:..\common\ud3core\helper/printf.c ****     }
 799:..\common\ud3core\helper/printf.c ****     va_end(va);
 800:..\common\ud3core\helper/printf.c ****     return 0;
 801:..\common\ud3core\helper/printf.c **** }
 2538              		.loc 1 801 0
 2539 0036 0020     		movs	r0, #0
 2540 0038 07B0     		add	sp, sp, #28
 2541              		.cfi_def_cfa_offset 20
 2542              		@ sp needed
 2543 003a BDE81040 		pop	{r4, lr}
 2544              		.cfi_restore 14
 2545              		.cfi_restore 4
 2546              		.cfi_def_cfa_offset 12
 2547 003e 03B0     		add	sp, sp, #12
 2548              		.cfi_restore 3
 2549              		.cfi_restore 2
 2550              		.cfi_restore 1
 2551              		.cfi_def_cfa_offset 0
 2552 0040 7047     		bx	lr
 2553              	.L397:
 2554 0042 00BF     		.align	2
 2555              	.L396:
 2556 0044 00000000 		.word	send_stream
 2557 0048 00000000 		.word	_out_fct
 2558              		.cfi_endproc
 2559              	.LFE87:
 2560              		.size	stream_printf, .-stream_printf
 2561              		.section	.text.min_debug_prt,"ax",%progbits
 2562              		.align	1
 2563              		.global	min_debug_prt
 2564              		.thumb
 2565              		.thumb_func
 2566              		.type	min_debug_prt, %function
 2567              	min_debug_prt:
 2568              	.LFB88:
 802:..\common\ud3core\helper/printf.c **** 
ARM GAS  C:\Users\chemi\AppData\Local\Temp\ccvd4c4w.s 			page 65


 803:..\common\ud3core\helper/printf.c **** void min_debug_prt(const char *fmt, ...){
 2569              		.loc 1 803 0
 2570              		.cfi_startproc
 2571              		@ args = 4, pretend = 16, frame = 16
 2572              		@ frame_needed = 0, uses_anonymous_args = 1
 2573              	.LVL362:
 2574 0000 0FB4     		push	{r0, r1, r2, r3}
 2575              		.cfi_def_cfa_offset 16
 2576              		.cfi_offset 0, -16
 2577              		.cfi_offset 1, -12
 2578              		.cfi_offset 2, -8
 2579              		.cfi_offset 3, -4
 2580 0002 7FB5     		push	{r0, r1, r2, r3, r4, r5, r6, lr}
 2581              		.cfi_def_cfa_offset 48
 2582              		.cfi_offset 14, -20
 804:..\common\ud3core\helper/printf.c ****     if(debug_port == NULL) return;
 2583              		.loc 1 804 0
 2584 0004 0B4B     		ldr	r3, .L408
 2585 0006 1B68     		ldr	r3, [r3]
 2586 0008 7BB1     		cbz	r3, .L398
 805:..\common\ud3core\helper/printf.c ****     port_str* port = (port_str*)debug_port->port;
 2587              		.loc 1 805 0
 2588 000a 5A68     		ldr	r2, [r3, #4]
 2589              	.LVL363:
 806:..\common\ud3core\helper/printf.c ****     va_list args;
 807:..\common\ud3core\helper/printf.c ****     va_start (args, fmt );
 2590              		.loc 1 807 0
 2591 000c 09AB     		add	r3, sp, #36
 808:..\common\ud3core\helper/printf.c ****     if(port->tx!=NULL){;
 2592              		.loc 1 808 0
 2593 000e 5168     		ldr	r1, [r2, #4]
 807:..\common\ud3core\helper/printf.c ****     if(port->tx!=NULL){;
 2594              		.loc 1 807 0
 2595 0010 0393     		str	r3, [sp, #12]
 2596              		.loc 1 808 0
 2597 0012 51B1     		cbz	r1, .L398
 2598              	.LBB82:
 809:..\common\ud3core\helper/printf.c ****             const out_fct_wrap_type out_fct_wrap = { &send_stream, port };
 2599              		.loc 1 809 0
 2600 0014 0849     		ldr	r1, .L408+4
 2601 0016 0592     		str	r2, [sp, #20]
 2602 0018 0491     		str	r1, [sp, #16]
 810:..\common\ud3core\helper/printf.c ****             _vsnprintf(_out_fct, (char*)&out_fct_wrap, (size_t)-1, fmt, args);
 2603              		.loc 1 810 0
 2604 001a 0093     		str	r3, [sp]
 2605 001c 4FF0FF32 		mov	r2, #-1
 2606              	.LVL364:
 2607 0020 089B     		ldr	r3, [sp, #32]
 2608 0022 04A9     		add	r1, sp, #16
 2609 0024 0548     		ldr	r0, .L408+8
 2610 0026 FFF7FEFF 		bl	_vsnprintf
 2611              	.LVL365:
 2612              	.L398:
 2613              	.LBE82:
 811:..\common\ud3core\helper/printf.c ****         }
 812:..\common\ud3core\helper/printf.c ****     va_end (args);
 813:..\common\ud3core\helper/printf.c **** }
ARM GAS  C:\Users\chemi\AppData\Local\Temp\ccvd4c4w.s 			page 66


 2614              		.loc 1 813 0
 2615 002a 07B0     		add	sp, sp, #28
 2616              		.cfi_def_cfa_offset 20
 2617              		@ sp needed
 2618 002c 5DF804EB 		ldr	lr, [sp], #4
 2619              		.cfi_restore 14
 2620              		.cfi_def_cfa_offset 16
 2621 0030 04B0     		add	sp, sp, #16
 2622              		.cfi_restore 3
 2623              		.cfi_restore 2
 2624              		.cfi_restore 1
 2625              		.cfi_restore 0
 2626              		.cfi_def_cfa_offset 0
 2627 0032 7047     		bx	lr
 2628              	.L409:
 2629              		.align	2
 2630              	.L408:
 2631 0034 00000000 		.word	debug_port
 2632 0038 00000000 		.word	send_stream
 2633 003c 00000000 		.word	_out_fct
 2634              		.cfi_endproc
 2635              	.LFE88:
 2636              		.size	min_debug_prt, .-min_debug_prt
 2637              		.section	.rodata
 2638              		.align	3
 2639              		.set	.LANCHOR0,. + 0
 2640              		.type	pow10.9154, %object
 2641              		.size	pow10.9154, 80
 2642              	pow10.9154:
 2643 0000 00000000 		.word	0
 2644 0004 0000F03F 		.word	1072693248
 2645 0008 00000000 		.word	0
 2646 000c 00002440 		.word	1076101120
 2647 0010 00000000 		.word	0
 2648 0014 00005940 		.word	1079574528
 2649 0018 00000000 		.word	0
 2650 001c 00408F40 		.word	1083129856
 2651 0020 00000000 		.word	0
 2652 0024 0088C340 		.word	1086556160
 2653 0028 00000000 		.word	0
 2654 002c 006AF840 		.word	1090021888
 2655 0030 00000000 		.word	0
 2656 0034 80842E41 		.word	1093567616
 2657 0038 00000000 		.word	0
 2658 003c D0126341 		.word	1097011920
 2659 0040 00000000 		.word	0
 2660 0044 84D79741 		.word	1100470148
 2661 0048 00000000 		.word	0
 2662 004c 65CDCD41 		.word	1104006501
 2663              		.text
 2664              	.Letext0:
 2665              		.file 2 "c:\\program files (x86)\\cypress\\psoc creator\\4.4\\psoc creator\\import\\gnu\\arm\\5.4.
 2666              		.file 3 "c:\\program files (x86)\\cypress\\psoc creator\\4.4\\psoc creator\\import\\gnu\\arm\\5.4.
 2667              		.file 4 "c:\\program files (x86)\\cypress\\psoc creator\\4.4\\psoc creator\\import\\gnu\\arm\\5.4.
 2668              		.file 5 "c:\\program files (x86)\\cypress\\psoc creator\\4.4\\psoc creator\\import\\gnu\\arm\\5.4.
 2669              		.file 6 "..\\common\\rtos\\portable\\GCC\\ARM_CM3/portmacro.h"
 2670              		.file 7 "..\\common\\rtos\\include/task.h"
ARM GAS  C:\Users\chemi\AppData\Local\Temp\ccvd4c4w.s 			page 67


 2671              		.file 8 "..\\common\\rtos\\include/queue.h"
 2672              		.file 9 "..\\common\\rtos\\include/semphr.h"
 2673              		.file 10 "..\\common\\rtos\\include/stream_buffer.h"
 2674              		.file 11 "..\\common\\tterm/TTerm.h"
 2675              		.file 12 "<built-in>"
 2676              		.file 13 "..\\common\\ud3core/cli_basic.h"
 2677              		.file 14 "Generated_Source\\PSoC5/core_cm3.h"
 2678              		.file 15 "..\\common\\ud3core\\helper\\debug.h"
 2679              		.file 16 "..\\common\\ud3core\\helper\\printf.h"
 2680              		.section	.debug_info,"",%progbits
 2681              	.Ldebug_info0:
 2682 0000 E2170000 		.4byte	0x17e2
 2683 0004 0400     		.2byte	0x4
 2684 0006 00000000 		.4byte	.Ldebug_abbrev0
 2685 000a 04       		.byte	0x4
 2686 000b 01       		.uleb128 0x1
 2687 000c E9010000 		.4byte	.LASF138
 2688 0010 0C       		.byte	0xc
 2689 0011 59010000 		.4byte	.LASF139
 2690 0015 80060000 		.4byte	.LASF140
 2691 0019 70000000 		.4byte	.Ldebug_ranges0+0x70
 2692 001d 00000000 		.4byte	0
 2693 0021 00000000 		.4byte	.Ldebug_line0
 2694 0025 02       		.uleb128 0x2
 2695 0026 01       		.byte	0x1
 2696 0027 06       		.byte	0x6
 2697 0028 33000000 		.4byte	.LASF0
 2698 002c 03       		.uleb128 0x3
 2699 002d 3F000000 		.4byte	.LASF3
 2700 0031 02       		.byte	0x2
 2701 0032 1D       		.byte	0x1d
 2702 0033 37000000 		.4byte	0x37
 2703 0037 02       		.uleb128 0x2
 2704 0038 01       		.byte	0x1
 2705 0039 08       		.byte	0x8
 2706 003a E3040000 		.4byte	.LASF1
 2707 003e 02       		.uleb128 0x2
 2708 003f 02       		.byte	0x2
 2709 0040 05       		.byte	0x5
 2710 0041 F7040000 		.4byte	.LASF2
 2711 0045 03       		.uleb128 0x3
 2712 0046 C0050000 		.4byte	.LASF4
 2713 004a 02       		.byte	0x2
 2714 004b 2B       		.byte	0x2b
 2715 004c 50000000 		.4byte	0x50
 2716 0050 02       		.uleb128 0x2
 2717 0051 02       		.byte	0x2
 2718 0052 07       		.byte	0x7
 2719 0053 49030000 		.4byte	.LASF5
 2720 0057 03       		.uleb128 0x3
 2721 0058 86030000 		.4byte	.LASF6
 2722 005c 02       		.byte	0x2
 2723 005d 3F       		.byte	0x3f
 2724 005e 62000000 		.4byte	0x62
 2725 0062 02       		.uleb128 0x2
 2726 0063 04       		.byte	0x4
 2727 0064 05       		.byte	0x5
ARM GAS  C:\Users\chemi\AppData\Local\Temp\ccvd4c4w.s 			page 68


 2728 0065 2B010000 		.4byte	.LASF7
 2729 0069 03       		.uleb128 0x3
 2730 006a DE010000 		.4byte	.LASF8
 2731 006e 02       		.byte	0x2
 2732 006f 41       		.byte	0x41
 2733 0070 74000000 		.4byte	0x74
 2734 0074 02       		.uleb128 0x2
 2735 0075 04       		.byte	0x4
 2736 0076 07       		.byte	0x7
 2737 0077 D4020000 		.4byte	.LASF9
 2738 007b 02       		.uleb128 0x2
 2739 007c 08       		.byte	0x8
 2740 007d 05       		.byte	0x5
 2741 007e F7000000 		.4byte	.LASF10
 2742 0082 02       		.uleb128 0x2
 2743 0083 08       		.byte	0x8
 2744 0084 07       		.byte	0x7
 2745 0085 8B000000 		.4byte	.LASF11
 2746 0089 04       		.uleb128 0x4
 2747 008a 04       		.byte	0x4
 2748 008b 05       		.byte	0x5
 2749 008c 696E7400 		.ascii	"int\000"
 2750 0090 03       		.uleb128 0x3
 2751 0091 50050000 		.4byte	.LASF12
 2752 0095 02       		.byte	0x2
 2753 0096 CA       		.byte	0xca
 2754 0097 9B000000 		.4byte	0x9b
 2755 009b 02       		.uleb128 0x2
 2756 009c 04       		.byte	0x4
 2757 009d 07       		.byte	0x7
 2758 009e A5020000 		.4byte	.LASF13
 2759 00a2 03       		.uleb128 0x3
 2760 00a3 C0060000 		.4byte	.LASF14
 2761 00a7 03       		.byte	0x3
 2762 00a8 18       		.byte	0x18
 2763 00a9 2C000000 		.4byte	0x2c
 2764 00ad 03       		.uleb128 0x3
 2765 00ae 88010000 		.4byte	.LASF15
 2766 00b2 03       		.byte	0x3
 2767 00b3 24       		.byte	0x24
 2768 00b4 45000000 		.4byte	0x45
 2769 00b8 03       		.uleb128 0x3
 2770 00b9 DB040000 		.4byte	.LASF16
 2771 00bd 03       		.byte	0x3
 2772 00be 2C       		.byte	0x2c
 2773 00bf 57000000 		.4byte	0x57
 2774 00c3 03       		.uleb128 0x3
 2775 00c4 77060000 		.4byte	.LASF17
 2776 00c8 03       		.byte	0x3
 2777 00c9 30       		.byte	0x30
 2778 00ca 69000000 		.4byte	0x69
 2779 00ce 03       		.uleb128 0x3
 2780 00cf 2A040000 		.4byte	.LASF18
 2781 00d3 03       		.byte	0x3
 2782 00d4 48       		.byte	0x48
 2783 00d5 90000000 		.4byte	0x90
 2784 00d9 03       		.uleb128 0x3
ARM GAS  C:\Users\chemi\AppData\Local\Temp\ccvd4c4w.s 			page 69


 2785 00da D7030000 		.4byte	.LASF19
 2786 00de 04       		.byte	0x4
 2787 00df 28       		.byte	0x28
 2788 00e0 E4000000 		.4byte	0xe4
 2789 00e4 05       		.uleb128 0x5
 2790 00e5 AC010000 		.4byte	.LASF35
 2791 00e9 04       		.byte	0x4
 2792 00ea 0C       		.byte	0xc
 2793 00eb 00       		.byte	0
 2794 00ec FB000000 		.4byte	0xfb
 2795 00f0 06       		.uleb128 0x6
 2796 00f1 C0010000 		.4byte	.LASF141
 2797 00f5 FB000000 		.4byte	0xfb
 2798 00f9 00       		.byte	0
 2799 00fa 00       		.byte	0
 2800 00fb 07       		.uleb128 0x7
 2801 00fc 04       		.byte	0x4
 2802 00fd 03       		.uleb128 0x3
 2803 00fe 49000000 		.4byte	.LASF20
 2804 0102 04       		.byte	0x4
 2805 0103 62       		.byte	0x62
 2806 0104 D9000000 		.4byte	0xd9
 2807 0108 03       		.uleb128 0x3
 2808 0109 05000000 		.4byte	.LASF21
 2809 010d 05       		.byte	0x5
 2810 010e D8       		.byte	0xd8
 2811 010f 9B000000 		.4byte	0x9b
 2812 0113 02       		.uleb128 0x2
 2813 0114 04       		.byte	0x4
 2814 0115 04       		.byte	0x4
 2815 0116 48040000 		.4byte	.LASF22
 2816 011a 02       		.uleb128 0x2
 2817 011b 08       		.byte	0x8
 2818 011c 04       		.byte	0x4
 2819 011d A5010000 		.4byte	.LASF23
 2820 0121 02       		.uleb128 0x2
 2821 0122 01       		.byte	0x1
 2822 0123 08       		.byte	0x8
 2823 0124 A9050000 		.4byte	.LASF24
 2824 0128 02       		.uleb128 0x2
 2825 0129 04       		.byte	0x4
 2826 012a 07       		.byte	0x7
 2827 012b C5030000 		.4byte	.LASF25
 2828 012f 08       		.uleb128 0x8
 2829 0130 04       		.byte	0x4
 2830 0131 21010000 		.4byte	0x121
 2831 0135 08       		.uleb128 0x8
 2832 0136 04       		.byte	0x4
 2833 0137 3B010000 		.4byte	0x13b
 2834 013b 09       		.uleb128 0x9
 2835 013c 21010000 		.4byte	0x121
 2836 0140 03       		.uleb128 0x3
 2837 0141 E6030000 		.4byte	.LASF26
 2838 0145 06       		.byte	0x6
 2839 0146 3F       		.byte	0x3f
 2840 0147 C3000000 		.4byte	0xc3
 2841 014b 08       		.uleb128 0x8
ARM GAS  C:\Users\chemi\AppData\Local\Temp\ccvd4c4w.s 			page 70


 2842 014c 04       		.byte	0x4
 2843 014d A2000000 		.4byte	0xa2
 2844 0151 03       		.uleb128 0x3
 2845 0152 7B010000 		.4byte	.LASF27
 2846 0156 07       		.byte	0x7
 2847 0157 4E       		.byte	0x4e
 2848 0158 5C010000 		.4byte	0x15c
 2849 015c 08       		.uleb128 0x8
 2850 015d 04       		.byte	0x4
 2851 015e 62010000 		.4byte	0x162
 2852 0162 0A       		.uleb128 0xa
 2853 0163 34010000 		.4byte	.LASF29
 2854 0167 03       		.uleb128 0x3
 2855 0168 BB000000 		.4byte	.LASF28
 2856 016c 08       		.byte	0x8
 2857 016d 31       		.byte	0x31
 2858 016e 72010000 		.4byte	0x172
 2859 0172 08       		.uleb128 0x8
 2860 0173 04       		.byte	0x4
 2861 0174 78010000 		.4byte	0x178
 2862 0178 0A       		.uleb128 0xa
 2863 0179 C5040000 		.4byte	.LASF30
 2864 017d 03       		.uleb128 0x3
 2865 017e 97050000 		.4byte	.LASF31
 2866 0182 09       		.byte	0x9
 2867 0183 24       		.byte	0x24
 2868 0184 67010000 		.4byte	0x167
 2869 0188 03       		.uleb128 0x3
 2870 0189 34030000 		.4byte	.LASF32
 2871 018d 0A       		.byte	0xa
 2872 018e 46       		.byte	0x46
 2873 018f 93010000 		.4byte	0x193
 2874 0193 08       		.uleb128 0x8
 2875 0194 04       		.byte	0x4
 2876 0195 99010000 		.4byte	0x199
 2877 0199 0A       		.uleb128 0xa
 2878 019a 2E070000 		.4byte	.LASF33
 2879 019e 03       		.uleb128 0x3
 2880 019f 9A030000 		.4byte	.LASF34
 2881 01a3 0B       		.byte	0xb
 2882 01a4 A3       		.byte	0xa3
 2883 01a5 A9010000 		.4byte	0x1a9
 2884 01a9 05       		.uleb128 0x5
 2885 01aa A7000000 		.4byte	.LASF36
 2886 01ae 94       		.byte	0x94
 2887 01af 0B       		.byte	0xb
 2888 01b0 C6       		.byte	0xc6
 2889 01b1 9A020000 		.4byte	0x29a
 2890 01b5 0B       		.uleb128 0xb
 2891 01b6 6B060000 		.4byte	.LASF37
 2892 01ba 0B       		.byte	0xb
 2893 01bb C7       		.byte	0xc7
 2894 01bc 2F010000 		.4byte	0x12f
 2895 01c0 00       		.byte	0
 2896 01c1 0B       		.uleb128 0xb
 2897 01c2 8B020000 		.4byte	.LASF38
 2898 01c6 0B       		.byte	0xb
ARM GAS  C:\Users\chemi\AppData\Local\Temp\ccvd4c4w.s 			page 71


 2899 01c7 C9       		.byte	0xc9
 2900 01c8 FB000000 		.4byte	0xfb
 2901 01cc 04       		.byte	0x4
 2902 01cd 0B       		.uleb128 0xb
 2903 01ce 3D050000 		.4byte	.LASF39
 2904 01d2 0B       		.byte	0xb
 2905 01d3 CB       		.byte	0xcb
 2906 01d4 C3000000 		.4byte	0xc3
 2907 01d8 08       		.byte	0x8
 2908 01d9 0B       		.uleb128 0xb
 2909 01da 48010000 		.4byte	.LASF40
 2910 01de 0B       		.byte	0xb
 2911 01df CC       		.byte	0xcc
 2912 01e0 C3000000 		.4byte	0xc3
 2913 01e4 0C       		.byte	0xc
 2914 01e5 0B       		.uleb128 0xb
 2915 01e6 D6000000 		.4byte	.LASF41
 2916 01ea 0B       		.byte	0xb
 2917 01eb CD       		.byte	0xcd
 2918 01ec C3000000 		.4byte	0xc3
 2919 01f0 10       		.byte	0x10
 2920 01f1 0B       		.uleb128 0xb
 2921 01f2 05010000 		.4byte	.LASF42
 2922 01f6 0B       		.byte	0xb
 2923 01f7 CE       		.byte	0xce
 2924 01f8 3F040000 		.4byte	0x43f
 2925 01fc 14       		.byte	0x14
 2926 01fd 0B       		.uleb128 0xb
 2927 01fe EC020000 		.4byte	.LASF43
 2928 0202 0B       		.byte	0xb
 2929 0203 CF       		.byte	0xcf
 2930 0204 42030000 		.4byte	0x342
 2931 0208 18       		.byte	0x18
 2932 0209 0B       		.uleb128 0xb
 2933 020a 23060000 		.4byte	.LASF44
 2934 020e 0B       		.byte	0xb
 2935 020f D0       		.byte	0xd0
 2936 0210 C3000000 		.4byte	0xc3
 2937 0214 1C       		.byte	0x1c
 2938 0215 0B       		.uleb128 0xb
 2939 0216 0B030000 		.4byte	.LASF45
 2940 021a 0B       		.byte	0xb
 2941 021b D1       		.byte	0xd1
 2942 021c C3000000 		.4byte	0xc3
 2943 0220 20       		.byte	0x20
 2944 0221 0B       		.uleb128 0xb
 2945 0222 25010000 		.4byte	.LASF46
 2946 0226 0B       		.byte	0xb
 2947 0227 D2       		.byte	0xd2
 2948 0228 92030000 		.4byte	0x392
 2949 022c 24       		.byte	0x24
 2950 022d 0B       		.uleb128 0xb
 2951 022e D5050000 		.4byte	.LASF47
 2952 0232 0B       		.byte	0xb
 2953 0233 D3       		.byte	0xd3
 2954 0234 2F010000 		.4byte	0x12f
 2955 0238 28       		.byte	0x28
ARM GAS  C:\Users\chemi\AppData\Local\Temp\ccvd4c4w.s 			page 72


 2956 0239 0B       		.uleb128 0xb
 2957 023a 5D060000 		.4byte	.LASF48
 2958 023e 0B       		.byte	0xb
 2959 023f D4       		.byte	0xd4
 2960 0240 45040000 		.4byte	0x445
 2961 0244 2C       		.byte	0x2c
 2962 0245 0B       		.uleb128 0xb
 2963 0246 E9060000 		.4byte	.LASF49
 2964 024a 0B       		.byte	0xb
 2965 024b D5       		.byte	0xd5
 2966 024c C3000000 		.4byte	0xc3
 2967 0250 6C       		.byte	0x6c
 2968 0251 0B       		.uleb128 0xb
 2969 0252 19050000 		.4byte	.LASF50
 2970 0256 0B       		.byte	0xb
 2971 0257 D6       		.byte	0xd6
 2972 0258 C3000000 		.4byte	0xc3
 2973 025c 70       		.byte	0x70
 2974 025d 0B       		.uleb128 0xb
 2975 025e 6C050000 		.4byte	.LASF51
 2976 0262 0B       		.byte	0xb
 2977 0263 D7       		.byte	0xd7
 2978 0264 A2000000 		.4byte	0xa2
 2979 0268 74       		.byte	0x74
 2980 0269 0B       		.uleb128 0xb
 2981 026a 7B030000 		.4byte	.LASF52
 2982 026e 0B       		.byte	0xb
 2983 026f D8       		.byte	0xd8
 2984 0270 55040000 		.4byte	0x455
 2985 0274 75       		.byte	0x75
 2986 0275 0B       		.uleb128 0xb
 2987 0276 FF020000 		.4byte	.LASF53
 2988 027a 0B       		.byte	0xb
 2989 027b D9       		.byte	0xd9
 2990 027c 9B000000 		.4byte	0x9b
 2991 0280 88       		.byte	0x88
 2992 0281 0B       		.uleb128 0xb
 2993 0282 F3050000 		.4byte	.LASF54
 2994 0286 0B       		.byte	0xb
 2995 0287 DA       		.byte	0xda
 2996 0288 39040000 		.4byte	0x439
 2997 028c 8C       		.byte	0x8c
 2998 028d 0B       		.uleb128 0xb
 2999 028e 74000000 		.4byte	.LASF55
 3000 0292 0B       		.byte	0xb
 3001 0293 DB       		.byte	0xdb
 3002 0294 6D030000 		.4byte	0x36d
 3003 0298 90       		.byte	0x90
 3004 0299 00       		.byte	0
 3005 029a 03       		.uleb128 0x3
 3006 029b 68040000 		.4byte	.LASF56
 3007 029f 0B       		.byte	0xb
 3008 02a0 A4       		.byte	0xa4
 3009 02a1 A5020000 		.4byte	0x2a5
 3010 02a5 05       		.uleb128 0x5
 3011 02a6 5A000000 		.4byte	.LASF57
 3012 02aa 20       		.byte	0x20
ARM GAS  C:\Users\chemi\AppData\Local\Temp\ccvd4c4w.s 			page 73


 3013 02ab 0B       		.byte	0xb
 3014 02ac BA       		.byte	0xba
 3015 02ad 12030000 		.4byte	0x312
 3016 02b1 0B       		.uleb128 0xb
 3017 02b2 11010000 		.4byte	.LASF58
 3018 02b6 0B       		.byte	0xb
 3019 02b7 BB       		.byte	0xbb
 3020 02b8 12030000 		.4byte	0x312
 3021 02bc 00       		.byte	0
 3022 02bd 0B       		.uleb128 0xb
 3023 02be BE020000 		.4byte	.LASF59
 3024 02c2 0B       		.byte	0xb
 3025 02c3 BC       		.byte	0xbc
 3026 02c4 35010000 		.4byte	0x135
 3027 02c8 04       		.byte	0x4
 3028 02c9 0B       		.uleb128 0xb
 3029 02ca 20000000 		.4byte	.LASF60
 3030 02ce 0B       		.byte	0xb
 3031 02cf BD       		.byte	0xbd
 3032 02d0 35010000 		.4byte	0x135
 3033 02d4 08       		.byte	0x8
 3034 02d5 0B       		.uleb128 0xb
 3035 02d6 F7030000 		.4byte	.LASF61
 3036 02da 0B       		.byte	0xb
 3037 02db BE       		.byte	0xbe
 3038 02dc C3000000 		.4byte	0xc3
 3039 02e0 0C       		.byte	0xc
 3040 02e1 0B       		.uleb128 0xb
 3041 02e2 A5060000 		.4byte	.LASF62
 3042 02e6 0B       		.byte	0xb
 3043 02e7 BF       		.byte	0xbf
 3044 02e8 A2000000 		.4byte	0xa2
 3045 02ec 10       		.byte	0x10
 3046 02ed 0B       		.uleb128 0xb
 3047 02ee B6010000 		.4byte	.LASF63
 3048 02f2 0B       		.byte	0xb
 3049 02f3 C0       		.byte	0xc0
 3050 02f4 B8030000 		.4byte	0x3b8
 3051 02f8 14       		.byte	0x14
 3052 02f9 0B       		.uleb128 0xb
 3053 02fa 40070000 		.4byte	.LASF64
 3054 02fe 0B       		.byte	0xb
 3055 02ff C1       		.byte	0xc1
 3056 0300 FB000000 		.4byte	0xfb
 3057 0304 18       		.byte	0x18
 3058 0305 0B       		.uleb128 0xb
 3059 0306 7E040000 		.4byte	.LASF65
 3060 030a 0B       		.byte	0xb
 3061 030b C3       		.byte	0xc3
 3062 030c 39040000 		.4byte	0x439
 3063 0310 1C       		.byte	0x1c
 3064 0311 00       		.byte	0
 3065 0312 03       		.uleb128 0x3
 3066 0313 91010000 		.4byte	.LASF66
 3067 0317 0B       		.byte	0xb
 3068 0318 A6       		.byte	0xa6
 3069 0319 1D030000 		.4byte	0x31d
ARM GAS  C:\Users\chemi\AppData\Local\Temp\ccvd4c4w.s 			page 74


 3070 031d 08       		.uleb128 0x8
 3071 031e 04       		.byte	0x4
 3072 031f 23030000 		.4byte	0x323
 3073 0323 0C       		.uleb128 0xc
 3074 0324 A2000000 		.4byte	0xa2
 3075 0328 3C030000 		.4byte	0x33c
 3076 032c 0D       		.uleb128 0xd
 3077 032d 3C030000 		.4byte	0x33c
 3078 0331 0D       		.uleb128 0xd
 3079 0332 A2000000 		.4byte	0xa2
 3080 0336 0D       		.uleb128 0xd
 3081 0337 42030000 		.4byte	0x342
 3082 033b 00       		.byte	0
 3083 033c 08       		.uleb128 0x8
 3084 033d 04       		.byte	0x4
 3085 033e 9E010000 		.4byte	0x19e
 3086 0342 08       		.uleb128 0x8
 3087 0343 04       		.byte	0x4
 3088 0344 2F010000 		.4byte	0x12f
 3089 0348 03       		.uleb128 0x3
 3090 0349 01050000 		.4byte	.LASF67
 3091 034d 0B       		.byte	0xb
 3092 034e A7       		.byte	0xa7
 3093 034f 53030000 		.4byte	0x353
 3094 0353 08       		.uleb128 0x8
 3095 0354 04       		.byte	0x4
 3096 0355 59030000 		.4byte	0x359
 3097 0359 0C       		.uleb128 0xc
 3098 035a A2000000 		.4byte	0xa2
 3099 035e 6D030000 		.4byte	0x36d
 3100 0362 0D       		.uleb128 0xd
 3101 0363 3C030000 		.4byte	0x33c
 3102 0367 0D       		.uleb128 0xd
 3103 0368 AD000000 		.4byte	0xad
 3104 036c 00       		.byte	0
 3105 036d 03       		.uleb128 0x3
 3106 036e 1D030000 		.4byte	.LASF68
 3107 0372 0B       		.byte	0xb
 3108 0373 A8       		.byte	0xa8
 3109 0374 78030000 		.4byte	0x378
 3110 0378 08       		.uleb128 0x8
 3111 0379 04       		.byte	0x4
 3112 037a 7E030000 		.4byte	0x37e
 3113 037e 0C       		.uleb128 0xc
 3114 037f A2000000 		.4byte	0xa2
 3115 0383 92030000 		.4byte	0x392
 3116 0387 0D       		.uleb128 0xd
 3117 0388 3C030000 		.4byte	0x33c
 3118 038c 0D       		.uleb128 0xd
 3119 038d C3000000 		.4byte	0xc3
 3120 0391 00       		.byte	0
 3121 0392 03       		.uleb128 0x3
 3122 0393 54070000 		.4byte	.LASF69
 3123 0397 0B       		.byte	0xb
 3124 0398 AB       		.byte	0xab
 3125 0399 9D030000 		.4byte	0x39d
 3126 039d 08       		.uleb128 0x8
ARM GAS  C:\Users\chemi\AppData\Local\Temp\ccvd4c4w.s 			page 75


 3127 039e 04       		.byte	0x4
 3128 039f A3030000 		.4byte	0x3a3
 3129 03a3 0C       		.uleb128 0xc
 3130 03a4 C3000000 		.4byte	0xc3
 3131 03a8 B8030000 		.4byte	0x3b8
 3132 03ac 0D       		.uleb128 0xd
 3133 03ad FB000000 		.4byte	0xfb
 3134 03b1 0D       		.uleb128 0xd
 3135 03b2 2F010000 		.4byte	0x12f
 3136 03b6 0E       		.uleb128 0xe
 3137 03b7 00       		.byte	0
 3138 03b8 03       		.uleb128 0x3
 3139 03b9 0A060000 		.4byte	.LASF70
 3140 03bd 0B       		.byte	0xb
 3141 03be AF       		.byte	0xaf
 3142 03bf C3030000 		.4byte	0x3c3
 3143 03c3 08       		.uleb128 0x8
 3144 03c4 04       		.byte	0x4
 3145 03c5 C9030000 		.4byte	0x3c9
 3146 03c9 0C       		.uleb128 0xc
 3147 03ca A2000000 		.4byte	0xa2
 3148 03ce DD030000 		.4byte	0x3dd
 3149 03d2 0D       		.uleb128 0xd
 3150 03d3 3C030000 		.4byte	0x33c
 3151 03d7 0D       		.uleb128 0xd
 3152 03d8 FB000000 		.4byte	0xfb
 3153 03dc 00       		.byte	0
 3154 03dd 0F       		.uleb128 0xf
 3155 03de 18       		.byte	0x18
 3156 03df 0B       		.byte	0xb
 3157 03e0 B1       		.byte	0xb1
 3158 03e1 2E040000 		.4byte	0x42e
 3159 03e5 0B       		.uleb128 0xb
 3160 03e6 1E060000 		.4byte	.LASF71
 3161 03ea 0B       		.byte	0xb
 3162 03eb B2       		.byte	0xb2
 3163 03ec 51010000 		.4byte	0x151
 3164 03f0 00       		.byte	0
 3165 03f1 0B       		.uleb128 0xb
 3166 03f2 4E040000 		.4byte	.LASF72
 3167 03f6 0B       		.byte	0xb
 3168 03f7 B3       		.byte	0xb3
 3169 03f8 48030000 		.4byte	0x348
 3170 03fc 04       		.byte	0x4
 3171 03fd 0B       		.uleb128 0xb
 3172 03fe AA030000 		.4byte	.LASF73
 3173 0402 0B       		.byte	0xb
 3174 0403 B4       		.byte	0xb4
 3175 0404 A2000000 		.4byte	0xa2
 3176 0408 08       		.byte	0x8
 3177 0409 0B       		.uleb128 0xb
 3178 040a 69030000 		.4byte	.LASF74
 3179 040e 0B       		.byte	0xb
 3180 040f B5       		.byte	0xb5
 3181 0410 88010000 		.4byte	0x188
 3182 0414 0C       		.byte	0xc
 3183 0415 0B       		.uleb128 0xb
ARM GAS  C:\Users\chemi\AppData\Local\Temp\ccvd4c4w.s 			page 76


 3184 0416 29070000 		.4byte	.LASF75
 3185 041a 0B       		.byte	0xb
 3186 041b B6       		.byte	0xb6
 3187 041c 42030000 		.4byte	0x342
 3188 0420 10       		.byte	0x10
 3189 0421 0B       		.uleb128 0xb
 3190 0422 CE030000 		.4byte	.LASF76
 3191 0426 0B       		.byte	0xb
 3192 0427 B7       		.byte	0xb7
 3193 0428 A2000000 		.4byte	0xa2
 3194 042c 14       		.byte	0x14
 3195 042d 00       		.byte	0
 3196 042e 03       		.uleb128 0x3
 3197 042f 31050000 		.4byte	.LASF77
 3198 0433 0B       		.byte	0xb
 3199 0434 B8       		.byte	0xb8
 3200 0435 DD030000 		.4byte	0x3dd
 3201 0439 08       		.uleb128 0x8
 3202 043a 04       		.byte	0x4
 3203 043b 9A020000 		.4byte	0x29a
 3204 043f 08       		.uleb128 0x8
 3205 0440 04       		.byte	0x4
 3206 0441 2E040000 		.4byte	0x42e
 3207 0445 10       		.uleb128 0x10
 3208 0446 2F010000 		.4byte	0x12f
 3209 044a 55040000 		.4byte	0x455
 3210 044e 11       		.uleb128 0x11
 3211 044f 28010000 		.4byte	0x128
 3212 0453 0F       		.byte	0xf
 3213 0454 00       		.byte	0
 3214 0455 10       		.uleb128 0x10
 3215 0456 A2000000 		.4byte	0xa2
 3216 045a 65040000 		.4byte	0x465
 3217 045e 11       		.uleb128 0x11
 3218 045f 28010000 		.4byte	0x128
 3219 0463 0F       		.byte	0xf
 3220 0464 00       		.byte	0
 3221 0465 03       		.uleb128 0x3
 3222 0466 82020000 		.4byte	.LASF78
 3223 046a 0D       		.byte	0xd
 3224 046b 56       		.byte	0x56
 3225 046c 70040000 		.4byte	0x470
 3226 0470 05       		.uleb128 0x5
 3227 0471 1E040000 		.4byte	.LASF79
 3228 0475 14       		.byte	0x14
 3229 0476 0D       		.byte	0xd
 3230 0477 57       		.byte	0x57
 3231 0478 DB040000 		.4byte	0x4db
 3232 047c 0B       		.uleb128 0xb
 3233 047d 8C050000 		.4byte	.LASF80
 3234 0481 0D       		.byte	0xd
 3235 0482 58       		.byte	0x58
 3236 0483 A2000000 		.4byte	0xa2
 3237 0487 00       		.byte	0
 3238 0488 12       		.uleb128 0x12
 3239 0489 6E756D00 		.ascii	"num\000"
 3240 048d 0D       		.byte	0xd
ARM GAS  C:\Users\chemi\AppData\Local\Temp\ccvd4c4w.s 			page 77


 3241 048e 59       		.byte	0x59
 3242 048f A2000000 		.4byte	0xa2
 3243 0493 01       		.byte	0x1
 3244 0494 0B       		.uleb128 0xb
 3245 0495 1F070000 		.4byte	.LASF81
 3246 0499 0D       		.byte	0xd
 3247 049a 5A       		.byte	0x5a
 3248 049b A2000000 		.4byte	0xa2
 3249 049f 02       		.byte	0x2
 3250 04a0 0B       		.uleb128 0xb
 3251 04a1 C8060000 		.4byte	.LASF82
 3252 04a5 0D       		.byte	0xd
 3253 04a6 5B       		.byte	0x5b
 3254 04a7 A2000000 		.4byte	0xa2
 3255 04ab 03       		.byte	0x3
 3256 04ac 12       		.uleb128 0x12
 3257 04ad 747800   		.ascii	"tx\000"
 3258 04b0 0D       		.byte	0xd
 3259 04b1 5C       		.byte	0x5c
 3260 04b2 88010000 		.4byte	0x188
 3261 04b6 04       		.byte	0x4
 3262 04b7 12       		.uleb128 0x12
 3263 04b8 727800   		.ascii	"rx\000"
 3264 04bb 0D       		.byte	0xd
 3265 04bc 5D       		.byte	0x5d
 3266 04bd 88010000 		.4byte	0x188
 3267 04c1 08       		.byte	0x8
 3268 04c2 0B       		.uleb128 0xb
 3269 04c3 1A010000 		.4byte	.LASF83
 3270 04c7 0D       		.byte	0xd
 3271 04c8 5E       		.byte	0x5e
 3272 04c9 7D010000 		.4byte	0x17d
 3273 04cd 0C       		.byte	0xc
 3274 04ce 0B       		.uleb128 0xb
 3275 04cf B4030000 		.4byte	.LASF84
 3276 04d3 0D       		.byte	0xd
 3277 04d4 5F       		.byte	0x5f
 3278 04d5 51010000 		.4byte	0x151
 3279 04d9 10       		.byte	0x10
 3280 04da 00       		.byte	0
 3281 04db 03       		.uleb128 0x3
 3282 04dc A3040000 		.4byte	.LASF85
 3283 04e0 01       		.byte	0x1
 3284 04e1 65       		.byte	0x65
 3285 04e2 E6040000 		.4byte	0x4e6
 3286 04e6 08       		.uleb128 0x8
 3287 04e7 04       		.byte	0x4
 3288 04e8 EC040000 		.4byte	0x4ec
 3289 04ec 13       		.uleb128 0x13
 3290 04ed 06050000 		.4byte	0x506
 3291 04f1 0D       		.uleb128 0xd
 3292 04f2 21010000 		.4byte	0x121
 3293 04f6 0D       		.uleb128 0xd
 3294 04f7 FB000000 		.4byte	0xfb
 3295 04fb 0D       		.uleb128 0xd
 3296 04fc 08010000 		.4byte	0x108
 3297 0500 0D       		.uleb128 0xd
ARM GAS  C:\Users\chemi\AppData\Local\Temp\ccvd4c4w.s 			page 78


 3298 0501 08010000 		.4byte	0x108
 3299 0505 00       		.byte	0
 3300 0506 0F       		.uleb128 0xf
 3301 0507 08       		.byte	0x8
 3302 0508 01       		.byte	0x1
 3303 0509 69       		.byte	0x69
 3304 050a 27050000 		.4byte	0x527
 3305 050e 12       		.uleb128 0x12
 3306 050f 66637400 		.ascii	"fct\000"
 3307 0513 01       		.byte	0x1
 3308 0514 6A       		.byte	0x6a
 3309 0515 37050000 		.4byte	0x537
 3310 0519 00       		.byte	0
 3311 051a 12       		.uleb128 0x12
 3312 051b 61726700 		.ascii	"arg\000"
 3313 051f 01       		.byte	0x1
 3314 0520 6B       		.byte	0x6b
 3315 0521 FB000000 		.4byte	0xfb
 3316 0525 04       		.byte	0x4
 3317 0526 00       		.byte	0
 3318 0527 13       		.uleb128 0x13
 3319 0528 37050000 		.4byte	0x537
 3320 052c 0D       		.uleb128 0xd
 3321 052d 21010000 		.4byte	0x121
 3322 0531 0D       		.uleb128 0xd
 3323 0532 FB000000 		.4byte	0xfb
 3324 0536 00       		.byte	0
 3325 0537 08       		.uleb128 0x8
 3326 0538 04       		.byte	0x4
 3327 0539 27050000 		.4byte	0x527
 3328 053d 03       		.uleb128 0x3
 3329 053e 7A050000 		.4byte	.LASF86
 3330 0542 01       		.byte	0x1
 3331 0543 6C       		.byte	0x6c
 3332 0544 06050000 		.4byte	0x506
 3333 0548 14       		.uleb128 0x14
 3334 0549 DF060000 		.4byte	.LASF105
 3335 054d 01       		.byte	0x1
 3336 054e 9F       		.byte	0x9f
 3337 054f 63050000 		.4byte	0x563
 3338 0553 03       		.byte	0x3
 3339 0554 63050000 		.4byte	0x563
 3340 0558 15       		.uleb128 0x15
 3341 0559 636800   		.ascii	"ch\000"
 3342 055c 01       		.byte	0x1
 3343 055d 9F       		.byte	0x9f
 3344 055e 21010000 		.4byte	0x121
 3345 0562 00       		.byte	0
 3346 0563 02       		.uleb128 0x2
 3347 0564 01       		.byte	0x1
 3348 0565 02       		.byte	0x2
 3349 0566 D5040000 		.4byte	.LASF87
 3350 056a 16       		.uleb128 0x16
 3351 056b B2020000 		.4byte	.LASF91
 3352 056f 01       		.byte	0x1
 3353 0570 70       		.byte	0x70
 3354 0571 00000000 		.4byte	.LFB68
ARM GAS  C:\Users\chemi\AppData\Local\Temp\ccvd4c4w.s 			page 79


 3355 0575 08000000 		.4byte	.LFE68-.LFB68
 3356 0579 01       		.uleb128 0x1
 3357 057a 9C       		.byte	0x9c
 3358 057b B4050000 		.4byte	0x5b4
 3359 057f 17       		.uleb128 0x17
 3360 0580 CB010000 		.4byte	.LASF88
 3361 0584 01       		.byte	0x1
 3362 0585 70       		.byte	0x70
 3363 0586 21010000 		.4byte	0x121
 3364 058a 01       		.uleb128 0x1
 3365 058b 50       		.byte	0x50
 3366 058c 17       		.uleb128 0x17
 3367 058d EC050000 		.4byte	.LASF89
 3368 0591 01       		.byte	0x1
 3369 0592 70       		.byte	0x70
 3370 0593 FB000000 		.4byte	0xfb
 3371 0597 01       		.uleb128 0x1
 3372 0598 51       		.byte	0x51
 3373 0599 18       		.uleb128 0x18
 3374 059a 69647800 		.ascii	"idx\000"
 3375 059e 01       		.byte	0x1
 3376 059f 70       		.byte	0x70
 3377 05a0 08010000 		.4byte	0x108
 3378 05a4 01       		.uleb128 0x1
 3379 05a5 52       		.byte	0x52
 3380 05a6 17       		.uleb128 0x17
 3381 05a7 62030000 		.4byte	.LASF90
 3382 05ab 01       		.byte	0x1
 3383 05ac 70       		.byte	0x70
 3384 05ad 08010000 		.4byte	0x108
 3385 05b1 01       		.uleb128 0x1
 3386 05b2 53       		.byte	0x53
 3387 05b3 00       		.byte	0
 3388 05b4 16       		.uleb128 0x16
 3389 05b5 90030000 		.4byte	.LASF92
 3390 05b9 01       		.byte	0x1
 3391 05ba 79       		.byte	0x79
 3392 05bb 00000000 		.4byte	.LFB69
 3393 05bf 02000000 		.4byte	.LFE69-.LFB69
 3394 05c3 01       		.uleb128 0x1
 3395 05c4 9C       		.byte	0x9c
 3396 05c5 FE050000 		.4byte	0x5fe
 3397 05c9 17       		.uleb128 0x17
 3398 05ca CB010000 		.4byte	.LASF88
 3399 05ce 01       		.byte	0x1
 3400 05cf 79       		.byte	0x79
 3401 05d0 21010000 		.4byte	0x121
 3402 05d4 01       		.uleb128 0x1
 3403 05d5 50       		.byte	0x50
 3404 05d6 17       		.uleb128 0x17
 3405 05d7 EC050000 		.4byte	.LASF89
 3406 05db 01       		.byte	0x1
 3407 05dc 79       		.byte	0x79
 3408 05dd FB000000 		.4byte	0xfb
 3409 05e1 01       		.uleb128 0x1
 3410 05e2 51       		.byte	0x51
 3411 05e3 18       		.uleb128 0x18
ARM GAS  C:\Users\chemi\AppData\Local\Temp\ccvd4c4w.s 			page 80


 3412 05e4 69647800 		.ascii	"idx\000"
 3413 05e8 01       		.byte	0x1
 3414 05e9 79       		.byte	0x79
 3415 05ea 08010000 		.4byte	0x108
 3416 05ee 01       		.uleb128 0x1
 3417 05ef 52       		.byte	0x52
 3418 05f0 17       		.uleb128 0x17
 3419 05f1 62030000 		.4byte	.LASF90
 3420 05f5 01       		.byte	0x1
 3421 05f6 79       		.byte	0x79
 3422 05f7 08010000 		.4byte	0x108
 3423 05fb 01       		.uleb128 0x1
 3424 05fc 53       		.byte	0x53
 3425 05fd 00       		.byte	0
 3426 05fe 19       		.uleb128 0x19
 3427 05ff 96020000 		.4byte	.LASF142
 3428 0603 01       		.byte	0x1
 3429 0604 8A       		.byte	0x8a
 3430 0605 00000000 		.4byte	.LFB71
 3431 0609 06000000 		.4byte	.LFE71-.LFB71
 3432 060d 01       		.uleb128 0x1
 3433 060e 9C       		.byte	0x9c
 3434 060f 50060000 		.4byte	0x650
 3435 0613 1A       		.uleb128 0x1a
 3436 0614 CB010000 		.4byte	.LASF88
 3437 0618 01       		.byte	0x1
 3438 0619 8A       		.byte	0x8a
 3439 061a 21010000 		.4byte	0x121
 3440 061e 00000000 		.4byte	.LLST0
 3441 0622 1A       		.uleb128 0x1a
 3442 0623 EC050000 		.4byte	.LASF89
 3443 0627 01       		.byte	0x1
 3444 0628 8A       		.byte	0x8a
 3445 0629 FB000000 		.4byte	0xfb
 3446 062d 21000000 		.4byte	.LLST1
 3447 0631 1B       		.uleb128 0x1b
 3448 0632 69647800 		.ascii	"idx\000"
 3449 0636 01       		.byte	0x1
 3450 0637 8A       		.byte	0x8a
 3451 0638 08010000 		.4byte	0x108
 3452 063c 42000000 		.4byte	.LLST2
 3453 0640 1A       		.uleb128 0x1a
 3454 0641 62030000 		.4byte	.LASF90
 3455 0645 01       		.byte	0x1
 3456 0646 8A       		.byte	0x8a
 3457 0647 08010000 		.4byte	0x108
 3458 064b 63000000 		.4byte	.LLST3
 3459 064f 00       		.byte	0
 3460 0650 1C       		.uleb128 0x1c
 3461 0651 B3050000 		.4byte	.LASF99
 3462 0655 01       		.byte	0x1
 3463 0656 B1       		.byte	0xb1
 3464 0657 08010000 		.4byte	0x108
 3465 065b 00000000 		.4byte	.LFB75
 3466 065f 48010000 		.4byte	.LFE75-.LFB75
 3467 0663 01       		.uleb128 0x1
 3468 0664 9C       		.byte	0x9c
ARM GAS  C:\Users\chemi\AppData\Local\Temp\ccvd4c4w.s 			page 81


 3469 0665 A8070000 		.4byte	0x7a8
 3470 0669 1B       		.uleb128 0x1b
 3471 066a 6F757400 		.ascii	"out\000"
 3472 066e 01       		.byte	0x1
 3473 066f B1       		.byte	0xb1
 3474 0670 DB040000 		.4byte	0x4db
 3475 0674 84000000 		.4byte	.LLST4
 3476 0678 1A       		.uleb128 0x1a
 3477 0679 EC050000 		.4byte	.LASF89
 3478 067d 01       		.byte	0x1
 3479 067e B1       		.byte	0xb1
 3480 067f 2F010000 		.4byte	0x12f
 3481 0683 A2000000 		.4byte	.LLST5
 3482 0687 1B       		.uleb128 0x1b
 3483 0688 69647800 		.ascii	"idx\000"
 3484 068c 01       		.byte	0x1
 3485 068d B1       		.byte	0xb1
 3486 068e 08010000 		.4byte	0x108
 3487 0692 E9000000 		.4byte	.LLST6
 3488 0696 1A       		.uleb128 0x1a
 3489 0697 62030000 		.4byte	.LASF90
 3490 069b 01       		.byte	0x1
 3491 069c B1       		.byte	0xb1
 3492 069d 08010000 		.4byte	0x108
 3493 06a1 55010000 		.4byte	.LLST7
 3494 06a5 1B       		.uleb128 0x1b
 3495 06a6 62756600 		.ascii	"buf\000"
 3496 06aa 01       		.byte	0x1
 3497 06ab B1       		.byte	0xb1
 3498 06ac 2F010000 		.4byte	0x12f
 3499 06b0 73010000 		.4byte	.LLST8
 3500 06b4 1B       		.uleb128 0x1b
 3501 06b5 6C656E00 		.ascii	"len\000"
 3502 06b9 01       		.byte	0x1
 3503 06ba B1       		.byte	0xb1
 3504 06bb 08010000 		.4byte	0x108
 3505 06bf 93010000 		.4byte	.LLST9
 3506 06c3 1A       		.uleb128 0x1a
 3507 06c4 5C050000 		.4byte	.LASF93
 3508 06c8 01       		.byte	0x1
 3509 06c9 B1       		.byte	0xb1
 3510 06ca 63050000 		.4byte	0x563
 3511 06ce A9020000 		.4byte	.LLST10
 3512 06d2 1A       		.uleb128 0x1a
 3513 06d3 C0040000 		.4byte	.LASF94
 3514 06d7 01       		.byte	0x1
 3515 06d8 B1       		.byte	0xb1
 3516 06d9 9B000000 		.4byte	0x9b
 3517 06dd C9020000 		.4byte	.LLST11
 3518 06e1 1A       		.uleb128 0x1a
 3519 06e2 00000000 		.4byte	.LASF95
 3520 06e6 01       		.byte	0x1
 3521 06e7 B1       		.byte	0xb1
 3522 06e8 9B000000 		.4byte	0x9b
 3523 06ec E9020000 		.4byte	.LLST12
 3524 06f0 1A       		.uleb128 0x1a
 3525 06f1 2E030000 		.4byte	.LASF96
ARM GAS  C:\Users\chemi\AppData\Local\Temp\ccvd4c4w.s 			page 82


 3526 06f5 01       		.byte	0x1
 3527 06f6 B1       		.byte	0xb1
 3528 06f7 9B000000 		.4byte	0x9b
 3529 06fb 09030000 		.4byte	.LLST13
 3530 06ff 1A       		.uleb128 0x1a
 3531 0700 D9060000 		.4byte	.LASF97
 3532 0704 01       		.byte	0x1
 3533 0705 B1       		.byte	0xb1
 3534 0706 9B000000 		.4byte	0x9b
 3535 070a 29030000 		.4byte	.LLST14
 3536 070e 1D       		.uleb128 0x1d
 3537 070f 3E040000 		.4byte	.LASF98
 3538 0713 01       		.byte	0x1
 3539 0714 B3       		.byte	0xb3
 3540 0715 A8070000 		.4byte	0x7a8
 3541 0719 49030000 		.4byte	.LLST15
 3542 071d 1E       		.uleb128 0x1e
 3543 071e EE000000 		.4byte	.LBB18
 3544 0722 20000000 		.4byte	.LBE18-.LBB18
 3545 0726 53070000 		.4byte	0x753
 3546 072a 1F       		.uleb128 0x1f
 3547 072b 6900     		.ascii	"i\000"
 3548 072d 01       		.byte	0x1
 3549 072e E7       		.byte	0xe7
 3550 072f 08010000 		.4byte	0x108
 3551 0733 20       		.uleb128 0x20
 3552 0734 0A010000 		.4byte	.LVL48
 3553 0738 21       		.uleb128 0x21
 3554 0739 01       		.uleb128 0x1
 3555 073a 50       		.byte	0x50
 3556 073b 02       		.uleb128 0x2
 3557 073c 08       		.byte	0x8
 3558 073d 20       		.byte	0x20
 3559 073e 21       		.uleb128 0x21
 3560 073f 01       		.uleb128 0x1
 3561 0740 51       		.byte	0x51
 3562 0741 03       		.uleb128 0x3
 3563 0742 91       		.byte	0x91
 3564 0743 4C       		.sleb128 -52
 3565 0744 06       		.byte	0x6
 3566 0745 21       		.uleb128 0x21
 3567 0746 01       		.uleb128 0x1
 3568 0747 52       		.byte	0x52
 3569 0748 02       		.uleb128 0x2
 3570 0749 77       		.byte	0x77
 3571 074a 00       		.sleb128 0
 3572 074b 21       		.uleb128 0x21
 3573 074c 01       		.uleb128 0x1
 3574 074d 53       		.byte	0x53
 3575 074e 02       		.uleb128 0x2
 3576 074f 79       		.byte	0x79
 3577 0750 00       		.sleb128 0
 3578 0751 00       		.byte	0
 3579 0752 00       		.byte	0
 3580 0753 1E       		.uleb128 0x1e
 3581 0754 0E010000 		.4byte	.LBB19
 3582 0758 18000000 		.4byte	.LBE19-.LBB19
ARM GAS  C:\Users\chemi\AppData\Local\Temp\ccvd4c4w.s 			page 83


 3583 075c 88070000 		.4byte	0x788
 3584 0760 22       		.uleb128 0x22
 3585 0761 6900     		.ascii	"i\000"
 3586 0763 01       		.byte	0x1
 3587 0764 ED       		.byte	0xed
 3588 0765 08010000 		.4byte	0x108
 3589 0769 01       		.uleb128 0x1
 3590 076a 5A       		.byte	0x5a
 3591 076b 20       		.uleb128 0x20
 3592 076c 20010000 		.4byte	.LVL52
 3593 0770 21       		.uleb128 0x21
 3594 0771 01       		.uleb128 0x1
 3595 0772 51       		.byte	0x51
 3596 0773 03       		.uleb128 0x3
 3597 0774 91       		.byte	0x91
 3598 0775 4C       		.sleb128 -52
 3599 0776 06       		.byte	0x6
 3600 0777 21       		.uleb128 0x21
 3601 0778 01       		.uleb128 0x1
 3602 0779 52       		.byte	0x52
 3603 077a 05       		.uleb128 0x5
 3604 077b 7A       		.byte	0x7a
 3605 077c 00       		.sleb128 0
 3606 077d 77       		.byte	0x77
 3607 077e 00       		.sleb128 0
 3608 077f 22       		.byte	0x22
 3609 0780 21       		.uleb128 0x21
 3610 0781 01       		.uleb128 0x1
 3611 0782 53       		.byte	0x53
 3612 0783 02       		.uleb128 0x2
 3613 0784 79       		.byte	0x79
 3614 0785 00       		.sleb128 0
 3615 0786 00       		.byte	0
 3616 0787 00       		.byte	0
 3617 0788 20       		.uleb128 0x20
 3618 0789 3C010000 		.4byte	.LVL57
 3619 078d 21       		.uleb128 0x21
 3620 078e 01       		.uleb128 0x1
 3621 078f 50       		.byte	0x50
 3622 0790 02       		.uleb128 0x2
 3623 0791 08       		.byte	0x8
 3624 0792 20       		.byte	0x20
 3625 0793 21       		.uleb128 0x21
 3626 0794 01       		.uleb128 0x1
 3627 0795 51       		.byte	0x51
 3628 0796 03       		.uleb128 0x3
 3629 0797 91       		.byte	0x91
 3630 0798 4C       		.sleb128 -52
 3631 0799 06       		.byte	0x6
 3632 079a 21       		.uleb128 0x21
 3633 079b 01       		.uleb128 0x1
 3634 079c 52       		.byte	0x52
 3635 079d 02       		.uleb128 0x2
 3636 079e 74       		.byte	0x74
 3637 079f 7F       		.sleb128 -1
 3638 07a0 21       		.uleb128 0x21
 3639 07a1 01       		.uleb128 0x1
ARM GAS  C:\Users\chemi\AppData\Local\Temp\ccvd4c4w.s 			page 84


 3640 07a2 53       		.byte	0x53
 3641 07a3 02       		.uleb128 0x2
 3642 07a4 79       		.byte	0x79
 3643 07a5 00       		.sleb128 0
 3644 07a6 00       		.byte	0
 3645 07a7 00       		.byte	0
 3646 07a8 09       		.uleb128 0x9
 3647 07a9 08010000 		.4byte	0x108
 3648 07ad 1C       		.uleb128 0x1c
 3649 07ae 13040000 		.4byte	.LASF100
 3650 07b2 01       		.byte	0x1
 3651 07b3 FD       		.byte	0xfd
 3652 07b4 08010000 		.4byte	0x108
 3653 07b8 00000000 		.4byte	.LFB76
 3654 07bc 80000000 		.4byte	.LFE76-.LFB76
 3655 07c0 01       		.uleb128 0x1
 3656 07c1 9C       		.byte	0x9c
 3657 07c2 D5080000 		.4byte	0x8d5
 3658 07c6 1B       		.uleb128 0x1b
 3659 07c7 6F757400 		.ascii	"out\000"
 3660 07cb 01       		.byte	0x1
 3661 07cc FD       		.byte	0xfd
 3662 07cd DB040000 		.4byte	0x4db
 3663 07d1 7D030000 		.4byte	.LLST16
 3664 07d5 1A       		.uleb128 0x1a
 3665 07d6 EC050000 		.4byte	.LASF89
 3666 07da 01       		.byte	0x1
 3667 07db FD       		.byte	0xfd
 3668 07dc 2F010000 		.4byte	0x12f
 3669 07e0 9E030000 		.4byte	.LLST17
 3670 07e4 1B       		.uleb128 0x1b
 3671 07e5 69647800 		.ascii	"idx\000"
 3672 07e9 01       		.byte	0x1
 3673 07ea FD       		.byte	0xfd
 3674 07eb 08010000 		.4byte	0x108
 3675 07ef BF030000 		.4byte	.LLST18
 3676 07f3 1A       		.uleb128 0x1a
 3677 07f4 62030000 		.4byte	.LASF90
 3678 07f8 01       		.byte	0x1
 3679 07f9 FD       		.byte	0xfd
 3680 07fa 08010000 		.4byte	0x108
 3681 07fe E0030000 		.4byte	.LLST19
 3682 0802 1A       		.uleb128 0x1a
 3683 0803 90020000 		.4byte	.LASF101
 3684 0807 01       		.byte	0x1
 3685 0808 FD       		.byte	0xfd
 3686 0809 74000000 		.4byte	0x74
 3687 080d 01040000 		.4byte	.LLST20
 3688 0811 17       		.uleb128 0x17
 3689 0812 5C050000 		.4byte	.LASF93
 3690 0816 01       		.byte	0x1
 3691 0817 FD       		.byte	0xfd
 3692 0818 63050000 		.4byte	0x563
 3693 081c 02       		.uleb128 0x2
 3694 081d 91       		.byte	0x91
 3695 081e 04       		.sleb128 4
 3696 081f 17       		.uleb128 0x17
ARM GAS  C:\Users\chemi\AppData\Local\Temp\ccvd4c4w.s 			page 85


 3697 0820 C0040000 		.4byte	.LASF94
 3698 0824 01       		.byte	0x1
 3699 0825 FD       		.byte	0xfd
 3700 0826 74000000 		.4byte	0x74
 3701 082a 02       		.uleb128 0x2
 3702 082b 91       		.byte	0x91
 3703 082c 08       		.sleb128 8
 3704 082d 17       		.uleb128 0x17
 3705 082e 00000000 		.4byte	.LASF95
 3706 0832 01       		.byte	0x1
 3707 0833 FD       		.byte	0xfd
 3708 0834 9B000000 		.4byte	0x9b
 3709 0838 02       		.uleb128 0x2
 3710 0839 91       		.byte	0x91
 3711 083a 0C       		.sleb128 12
 3712 083b 17       		.uleb128 0x17
 3713 083c 2E030000 		.4byte	.LASF96
 3714 0840 01       		.byte	0x1
 3715 0841 FD       		.byte	0xfd
 3716 0842 9B000000 		.4byte	0x9b
 3717 0846 02       		.uleb128 0x2
 3718 0847 91       		.byte	0x91
 3719 0848 10       		.sleb128 16
 3720 0849 1A       		.uleb128 0x1a
 3721 084a D9060000 		.4byte	.LASF97
 3722 084e 01       		.byte	0x1
 3723 084f FD       		.byte	0xfd
 3724 0850 9B000000 		.4byte	0x9b
 3725 0854 37040000 		.4byte	.LLST21
 3726 0858 22       		.uleb128 0x22
 3727 0859 62756600 		.ascii	"buf\000"
 3728 085d 01       		.byte	0x1
 3729 085e FF       		.byte	0xff
 3730 085f D5080000 		.4byte	0x8d5
 3731 0863 02       		.uleb128 0x2
 3732 0864 91       		.byte	0x91
 3733 0865 48       		.sleb128 -56
 3734 0866 23       		.uleb128 0x23
 3735 0867 6C656E00 		.ascii	"len\000"
 3736 086b 01       		.byte	0x1
 3737 086c 0001     		.2byte	0x100
 3738 086e 08010000 		.4byte	0x108
 3739 0872 56040000 		.4byte	.LLST22
 3740 0876 1E       		.uleb128 0x1e
 3741 0877 1E000000 		.4byte	.LBB20
 3742 087b 34000000 		.4byte	.LBE20-.LBB20
 3743 087f 94080000 		.4byte	0x894
 3744 0883 24       		.uleb128 0x24
 3745 0884 F1030000 		.4byte	.LASF102
 3746 0888 01       		.byte	0x1
 3747 0889 0A01     		.2byte	0x10a
 3748 088b 3B010000 		.4byte	0x13b
 3749 088f 8C040000 		.4byte	.LLST23
 3750 0893 00       		.byte	0
 3751 0894 25       		.uleb128 0x25
 3752 0895 7A000000 		.4byte	.LVL68
 3753 0899 50060000 		.4byte	0x650
ARM GAS  C:\Users\chemi\AppData\Local\Temp\ccvd4c4w.s 			page 86


 3754 089d 21       		.uleb128 0x21
 3755 089e 02       		.uleb128 0x2
 3756 089f 7D       		.byte	0x7d
 3757 08a0 00       		.sleb128 0
 3758 08a1 02       		.uleb128 0x2
 3759 08a2 74       		.byte	0x74
 3760 08a3 00       		.sleb128 0
 3761 08a4 21       		.uleb128 0x21
 3762 08a5 02       		.uleb128 0x2
 3763 08a6 7D       		.byte	0x7d
 3764 08a7 04       		.sleb128 4
 3765 08a8 02       		.uleb128 0x2
 3766 08a9 76       		.byte	0x76
 3767 08aa 00       		.sleb128 0
 3768 08ab 21       		.uleb128 0x21
 3769 08ac 02       		.uleb128 0x2
 3770 08ad 7D       		.byte	0x7d
 3771 08ae 08       		.sleb128 8
 3772 08af 04       		.uleb128 0x4
 3773 08b0 91       		.byte	0x91
 3774 08b1 04       		.sleb128 4
 3775 08b2 94       		.byte	0x94
 3776 08b3 01       		.byte	0x1
 3777 08b4 21       		.uleb128 0x21
 3778 08b5 02       		.uleb128 0x2
 3779 08b6 7D       		.byte	0x7d
 3780 08b7 0C       		.sleb128 12
 3781 08b8 03       		.uleb128 0x3
 3782 08b9 91       		.byte	0x91
 3783 08ba 08       		.sleb128 8
 3784 08bb 06       		.byte	0x6
 3785 08bc 21       		.uleb128 0x21
 3786 08bd 02       		.uleb128 0x2
 3787 08be 7D       		.byte	0x7d
 3788 08bf 10       		.sleb128 16
 3789 08c0 03       		.uleb128 0x3
 3790 08c1 91       		.byte	0x91
 3791 08c2 0C       		.sleb128 12
 3792 08c3 06       		.byte	0x6
 3793 08c4 21       		.uleb128 0x21
 3794 08c5 02       		.uleb128 0x2
 3795 08c6 7D       		.byte	0x7d
 3796 08c7 14       		.sleb128 20
 3797 08c8 03       		.uleb128 0x3
 3798 08c9 91       		.byte	0x91
 3799 08ca 10       		.sleb128 16
 3800 08cb 06       		.byte	0x6
 3801 08cc 21       		.uleb128 0x21
 3802 08cd 02       		.uleb128 0x2
 3803 08ce 7D       		.byte	0x7d
 3804 08cf 18       		.sleb128 24
 3805 08d0 02       		.uleb128 0x2
 3806 08d1 77       		.byte	0x77
 3807 08d2 00       		.sleb128 0
 3808 08d3 00       		.byte	0
 3809 08d4 00       		.byte	0
 3810 08d5 10       		.uleb128 0x10
ARM GAS  C:\Users\chemi\AppData\Local\Temp\ccvd4c4w.s 			page 87


 3811 08d6 21010000 		.4byte	0x121
 3812 08da E5080000 		.4byte	0x8e5
 3813 08de 11       		.uleb128 0x11
 3814 08df 28010000 		.4byte	0x128
 3815 08e3 1F       		.byte	0x1f
 3816 08e4 00       		.byte	0
 3817 08e5 26       		.uleb128 0x26
 3818 08e6 B0040000 		.4byte	.LASF103
 3819 08ea 01       		.byte	0x1
 3820 08eb 1601     		.2byte	0x116
 3821 08ed 08010000 		.4byte	0x108
 3822 08f1 00000000 		.4byte	.LFB77
 3823 08f5 A6000000 		.4byte	.LFE77-.LFB77
 3824 08f9 01       		.uleb128 0x1
 3825 08fa 9C       		.byte	0x9c
 3826 08fb 360A0000 		.4byte	0xa36
 3827 08ff 27       		.uleb128 0x27
 3828 0900 6F757400 		.ascii	"out\000"
 3829 0904 01       		.byte	0x1
 3830 0905 1601     		.2byte	0x116
 3831 0907 DB040000 		.4byte	0x4db
 3832 090b 9F040000 		.4byte	.LLST24
 3833 090f 28       		.uleb128 0x28
 3834 0910 EC050000 		.4byte	.LASF89
 3835 0914 01       		.byte	0x1
 3836 0915 1601     		.2byte	0x116
 3837 0917 2F010000 		.4byte	0x12f
 3838 091b D7040000 		.4byte	.LLST25
 3839 091f 27       		.uleb128 0x27
 3840 0920 69647800 		.ascii	"idx\000"
 3841 0924 01       		.byte	0x1
 3842 0925 1601     		.2byte	0x116
 3843 0927 08010000 		.4byte	0x108
 3844 092b 0F050000 		.4byte	.LLST26
 3845 092f 28       		.uleb128 0x28
 3846 0930 62030000 		.4byte	.LASF90
 3847 0934 01       		.byte	0x1
 3848 0935 1601     		.2byte	0x116
 3849 0937 08010000 		.4byte	0x108
 3850 093b 2D050000 		.4byte	.LLST27
 3851 093f 28       		.uleb128 0x28
 3852 0940 90020000 		.4byte	.LASF101
 3853 0944 01       		.byte	0x1
 3854 0945 1601     		.2byte	0x116
 3855 0947 82000000 		.4byte	0x82
 3856 094b 4B050000 		.4byte	.LLST28
 3857 094f 29       		.uleb128 0x29
 3858 0950 5C050000 		.4byte	.LASF93
 3859 0954 01       		.byte	0x1
 3860 0955 1601     		.2byte	0x116
 3861 0957 63050000 		.4byte	0x563
 3862 095b 02       		.uleb128 0x2
 3863 095c 91       		.byte	0x91
 3864 095d 08       		.sleb128 8
 3865 095e 29       		.uleb128 0x29
 3866 095f C0040000 		.4byte	.LASF94
 3867 0963 01       		.byte	0x1
ARM GAS  C:\Users\chemi\AppData\Local\Temp\ccvd4c4w.s 			page 88


 3868 0964 1601     		.2byte	0x116
 3869 0966 82000000 		.4byte	0x82
 3870 096a 02       		.uleb128 0x2
 3871 096b 91       		.byte	0x91
 3872 096c 10       		.sleb128 16
 3873 096d 29       		.uleb128 0x29
 3874 096e 00000000 		.4byte	.LASF95
 3875 0972 01       		.byte	0x1
 3876 0973 1601     		.2byte	0x116
 3877 0975 9B000000 		.4byte	0x9b
 3878 0979 02       		.uleb128 0x2
 3879 097a 91       		.byte	0x91
 3880 097b 18       		.sleb128 24
 3881 097c 29       		.uleb128 0x29
 3882 097d 2E030000 		.4byte	.LASF96
 3883 0981 01       		.byte	0x1
 3884 0982 1601     		.2byte	0x116
 3885 0984 9B000000 		.4byte	0x9b
 3886 0988 02       		.uleb128 0x2
 3887 0989 91       		.byte	0x91
 3888 098a 1C       		.sleb128 28
 3889 098b 28       		.uleb128 0x28
 3890 098c D9060000 		.4byte	.LASF97
 3891 0990 01       		.byte	0x1
 3892 0991 1601     		.2byte	0x116
 3893 0993 9B000000 		.4byte	0x9b
 3894 0997 8B050000 		.4byte	.LLST29
 3895 099b 2A       		.uleb128 0x2a
 3896 099c 62756600 		.ascii	"buf\000"
 3897 09a0 01       		.byte	0x1
 3898 09a1 1801     		.2byte	0x118
 3899 09a3 D5080000 		.4byte	0x8d5
 3900 09a7 03       		.uleb128 0x3
 3901 09a8 91       		.byte	0x91
 3902 09a9 B87F     		.sleb128 -72
 3903 09ab 23       		.uleb128 0x23
 3904 09ac 6C656E00 		.ascii	"len\000"
 3905 09b0 01       		.byte	0x1
 3906 09b1 1901     		.2byte	0x119
 3907 09b3 08010000 		.4byte	0x108
 3908 09b7 AA050000 		.4byte	.LLST30
 3909 09bb 1E       		.uleb128 0x1e
 3910 09bc 30000000 		.4byte	.LBB21
 3911 09c0 3E000000 		.4byte	.LBE21-.LBB21
 3912 09c4 D9090000 		.4byte	0x9d9
 3913 09c8 24       		.uleb128 0x24
 3914 09c9 F1030000 		.4byte	.LASF102
 3915 09cd 01       		.byte	0x1
 3916 09ce 2301     		.2byte	0x123
 3917 09d0 3B010000 		.4byte	0x13b
 3918 09d4 E0050000 		.4byte	.LLST31
 3919 09d8 00       		.byte	0
 3920 09d9 25       		.uleb128 0x25
 3921 09da A0000000 		.4byte	.LVL83
 3922 09de 50060000 		.4byte	0x650
 3923 09e2 21       		.uleb128 0x21
 3924 09e3 01       		.uleb128 0x1
ARM GAS  C:\Users\chemi\AppData\Local\Temp\ccvd4c4w.s 			page 89


 3925 09e4 50       		.byte	0x50
 3926 09e5 04       		.uleb128 0x4
 3927 09e6 91       		.byte	0x91
 3928 09e7 AC7F     		.sleb128 -84
 3929 09e9 06       		.byte	0x6
 3930 09ea 21       		.uleb128 0x21
 3931 09eb 01       		.uleb128 0x1
 3932 09ec 51       		.byte	0x51
 3933 09ed 04       		.uleb128 0x4
 3934 09ee 91       		.byte	0x91
 3935 09ef B07F     		.sleb128 -80
 3936 09f1 06       		.byte	0x6
 3937 09f2 21       		.uleb128 0x21
 3938 09f3 01       		.uleb128 0x1
 3939 09f4 52       		.byte	0x52
 3940 09f5 02       		.uleb128 0x2
 3941 09f6 7A       		.byte	0x7a
 3942 09f7 00       		.sleb128 0
 3943 09f8 21       		.uleb128 0x21
 3944 09f9 01       		.uleb128 0x1
 3945 09fa 53       		.byte	0x53
 3946 09fb 02       		.uleb128 0x2
 3947 09fc 7B       		.byte	0x7b
 3948 09fd 00       		.sleb128 0
 3949 09fe 21       		.uleb128 0x21
 3950 09ff 02       		.uleb128 0x2
 3951 0a00 7D       		.byte	0x7d
 3952 0a01 00       		.sleb128 0
 3953 0a02 03       		.uleb128 0x3
 3954 0a03 91       		.byte	0x91
 3955 0a04 B87F     		.sleb128 -72
 3956 0a06 21       		.uleb128 0x21
 3957 0a07 02       		.uleb128 0x2
 3958 0a08 7D       		.byte	0x7d
 3959 0a09 04       		.sleb128 4
 3960 0a0a 02       		.uleb128 0x2
 3961 0a0b 74       		.byte	0x74
 3962 0a0c 00       		.sleb128 0
 3963 0a0d 21       		.uleb128 0x21
 3964 0a0e 02       		.uleb128 0x2
 3965 0a0f 7D       		.byte	0x7d
 3966 0a10 08       		.sleb128 8
 3967 0a11 04       		.uleb128 0x4
 3968 0a12 91       		.byte	0x91
 3969 0a13 08       		.sleb128 8
 3970 0a14 94       		.byte	0x94
 3971 0a15 01       		.byte	0x1
 3972 0a16 21       		.uleb128 0x21
 3973 0a17 02       		.uleb128 0x2
 3974 0a18 7D       		.byte	0x7d
 3975 0a19 0C       		.sleb128 12
 3976 0a1a 02       		.uleb128 0x2
 3977 0a1b 76       		.byte	0x76
 3978 0a1c 00       		.sleb128 0
 3979 0a1d 21       		.uleb128 0x21
 3980 0a1e 02       		.uleb128 0x2
 3981 0a1f 7D       		.byte	0x7d
ARM GAS  C:\Users\chemi\AppData\Local\Temp\ccvd4c4w.s 			page 90


 3982 0a20 10       		.sleb128 16
 3983 0a21 03       		.uleb128 0x3
 3984 0a22 91       		.byte	0x91
 3985 0a23 18       		.sleb128 24
 3986 0a24 06       		.byte	0x6
 3987 0a25 21       		.uleb128 0x21
 3988 0a26 02       		.uleb128 0x2
 3989 0a27 7D       		.byte	0x7d
 3990 0a28 14       		.sleb128 20
 3991 0a29 03       		.uleb128 0x3
 3992 0a2a 91       		.byte	0x91
 3993 0a2b 1C       		.sleb128 28
 3994 0a2c 06       		.byte	0x6
 3995 0a2d 21       		.uleb128 0x21
 3996 0a2e 02       		.uleb128 0x2
 3997 0a2f 7D       		.byte	0x7d
 3998 0a30 18       		.sleb128 24
 3999 0a31 02       		.uleb128 0x2
 4000 0a32 75       		.byte	0x75
 4001 0a33 00       		.sleb128 0
 4002 0a34 00       		.byte	0
 4003 0a35 00       		.byte	0
 4004 0a36 16       		.uleb128 0x16
 4005 0a37 81000000 		.4byte	.LASF104
 4006 0a3b 01       		.byte	0x1
 4007 0a3c 80       		.byte	0x80
 4008 0a3d 00000000 		.4byte	.LFB70
 4009 0a41 08000000 		.4byte	.LFE70-.LFB70
 4010 0a45 01       		.uleb128 0x1
 4011 0a46 9C       		.byte	0x9c
 4012 0a47 910A0000 		.4byte	0xa91
 4013 0a4b 1A       		.uleb128 0x1a
 4014 0a4c CB010000 		.4byte	.LASF88
 4015 0a50 01       		.byte	0x1
 4016 0a51 80       		.byte	0x80
 4017 0a52 21010000 		.4byte	0x121
 4018 0a56 F3050000 		.4byte	.LLST32
 4019 0a5a 1A       		.uleb128 0x1a
 4020 0a5b EC050000 		.4byte	.LASF89
 4021 0a5f 01       		.byte	0x1
 4022 0a60 80       		.byte	0x80
 4023 0a61 FB000000 		.4byte	0xfb
 4024 0a65 1F060000 		.4byte	.LLST33
 4025 0a69 1B       		.uleb128 0x1b
 4026 0a6a 69647800 		.ascii	"idx\000"
 4027 0a6e 01       		.byte	0x1
 4028 0a6f 80       		.byte	0x80
 4029 0a70 08010000 		.4byte	0x108
 4030 0a74 4B060000 		.4byte	.LLST34
 4031 0a78 1A       		.uleb128 0x1a
 4032 0a79 62030000 		.4byte	.LASF90
 4033 0a7d 01       		.byte	0x1
 4034 0a7e 80       		.byte	0x80
 4035 0a7f 08010000 		.4byte	0x108
 4036 0a83 77060000 		.4byte	.LLST35
 4037 0a87 2B       		.uleb128 0x2b
 4038 0a88 06000000 		.4byte	.LVL85
ARM GAS  C:\Users\chemi\AppData\Local\Temp\ccvd4c4w.s 			page 91


 4039 0a8c B6170000 		.4byte	0x17b6
 4040 0a90 00       		.byte	0
 4041 0a91 2C       		.uleb128 0x2c
 4042 0a92 51060000 		.4byte	.LASF130
 4043 0a96 01       		.byte	0x1
 4044 0a97 FE02     		.2byte	0x2fe
 4045 0a99 00000000 		.4byte	.LFB85
 4046 0a9d 1E000000 		.4byte	.LFE85-.LFB85
 4047 0aa1 01       		.uleb128 0x1
 4048 0aa2 9C       		.byte	0x9c
 4049 0aa3 E30A0000 		.4byte	0xae3
 4050 0aa7 28       		.uleb128 0x28
 4051 0aa8 CB010000 		.4byte	.LASF88
 4052 0aac 01       		.byte	0x1
 4053 0aad FE02     		.2byte	0x2fe
 4054 0aaf 21010000 		.4byte	0x121
 4055 0ab3 A3060000 		.4byte	.LLST36
 4056 0ab7 27       		.uleb128 0x27
 4057 0ab8 61726700 		.ascii	"arg\000"
 4058 0abc 01       		.byte	0x1
 4059 0abd FE02     		.2byte	0x2fe
 4060 0abf FB000000 		.4byte	0xfb
 4061 0ac3 CE060000 		.4byte	.LLST37
 4062 0ac7 25       		.uleb128 0x25
 4063 0ac8 1A000000 		.4byte	.LVL89
 4064 0acc C1170000 		.4byte	0x17c1
 4065 0ad0 21       		.uleb128 0x21
 4066 0ad1 01       		.uleb128 0x1
 4067 0ad2 51       		.byte	0x51
 4068 0ad3 02       		.uleb128 0x2
 4069 0ad4 91       		.byte	0x91
 4070 0ad5 77       		.sleb128 -9
 4071 0ad6 21       		.uleb128 0x21
 4072 0ad7 01       		.uleb128 0x1
 4073 0ad8 52       		.byte	0x52
 4074 0ad9 01       		.uleb128 0x1
 4075 0ada 31       		.byte	0x31
 4076 0adb 21       		.uleb128 0x21
 4077 0adc 01       		.uleb128 0x1
 4078 0add 53       		.byte	0x53
 4079 0ade 02       		.uleb128 0x2
 4080 0adf 09       		.byte	0x9
 4081 0ae0 FF       		.byte	0xff
 4082 0ae1 00       		.byte	0
 4083 0ae2 00       		.byte	0
 4084 0ae3 14       		.uleb128 0x14
 4085 0ae4 9F020000 		.4byte	.LASF106
 4086 0ae8 01       		.byte	0x1
 4087 0ae9 A6       		.byte	0xa6
 4088 0aea 9B000000 		.4byte	0x9b
 4089 0aee 01       		.byte	0x1
 4090 0aef 080B0000 		.4byte	0xb08
 4091 0af3 15       		.uleb128 0x15
 4092 0af4 73747200 		.ascii	"str\000"
 4093 0af8 01       		.byte	0x1
 4094 0af9 A6       		.byte	0xa6
 4095 0afa 080B0000 		.4byte	0xb08
ARM GAS  C:\Users\chemi\AppData\Local\Temp\ccvd4c4w.s 			page 92


 4096 0afe 1F       		.uleb128 0x1f
 4097 0aff 6900     		.ascii	"i\000"
 4098 0b01 01       		.byte	0x1
 4099 0b02 A8       		.byte	0xa8
 4100 0b03 9B000000 		.4byte	0x9b
 4101 0b07 00       		.byte	0
 4102 0b08 08       		.uleb128 0x8
 4103 0b09 04       		.byte	0x4
 4104 0b0a 35010000 		.4byte	0x135
 4105 0b0e 2D       		.uleb128 0x2d
 4106 0b0f 91050000 		.4byte	.LASF107
 4107 0b13 01       		.byte	0x1
 4108 0b14 2F01     		.2byte	0x12f
 4109 0b16 08010000 		.4byte	0x108
 4110 0b1a 01       		.byte	0x1
 4111 0b1b 770C0000 		.4byte	0xc77
 4112 0b1f 2E       		.uleb128 0x2e
 4113 0b20 6F757400 		.ascii	"out\000"
 4114 0b24 01       		.byte	0x1
 4115 0b25 2F01     		.2byte	0x12f
 4116 0b27 DB040000 		.4byte	0x4db
 4117 0b2b 2F       		.uleb128 0x2f
 4118 0b2c EC050000 		.4byte	.LASF89
 4119 0b30 01       		.byte	0x1
 4120 0b31 2F01     		.2byte	0x12f
 4121 0b33 2F010000 		.4byte	0x12f
 4122 0b37 2E       		.uleb128 0x2e
 4123 0b38 69647800 		.ascii	"idx\000"
 4124 0b3c 01       		.byte	0x1
 4125 0b3d 2F01     		.2byte	0x12f
 4126 0b3f 08010000 		.4byte	0x108
 4127 0b43 2F       		.uleb128 0x2f
 4128 0b44 62030000 		.4byte	.LASF90
 4129 0b48 01       		.byte	0x1
 4130 0b49 2F01     		.2byte	0x12f
 4131 0b4b 08010000 		.4byte	0x108
 4132 0b4f 2F       		.uleb128 0x2f
 4133 0b50 90020000 		.4byte	.LASF101
 4134 0b54 01       		.byte	0x1
 4135 0b55 2F01     		.2byte	0x12f
 4136 0b57 1A010000 		.4byte	0x11a
 4137 0b5b 2F       		.uleb128 0x2f
 4138 0b5c 00000000 		.4byte	.LASF95
 4139 0b60 01       		.byte	0x1
 4140 0b61 2F01     		.2byte	0x12f
 4141 0b63 9B000000 		.4byte	0x9b
 4142 0b67 2F       		.uleb128 0x2f
 4143 0b68 2E030000 		.4byte	.LASF96
 4144 0b6c 01       		.byte	0x1
 4145 0b6d 2F01     		.2byte	0x12f
 4146 0b6f 9B000000 		.4byte	0x9b
 4147 0b73 2F       		.uleb128 0x2f
 4148 0b74 D9060000 		.4byte	.LASF97
 4149 0b78 01       		.byte	0x1
 4150 0b79 2F01     		.2byte	0x12f
 4151 0b7b 9B000000 		.4byte	0x9b
 4152 0b7f 30       		.uleb128 0x30
ARM GAS  C:\Users\chemi\AppData\Local\Temp\ccvd4c4w.s 			page 93


 4153 0b80 3E040000 		.4byte	.LASF98
 4154 0b84 01       		.byte	0x1
 4155 0b85 3101     		.2byte	0x131
 4156 0b87 A8070000 		.4byte	0x7a8
 4157 0b8b 31       		.uleb128 0x31
 4158 0b8c 62756600 		.ascii	"buf\000"
 4159 0b90 01       		.byte	0x1
 4160 0b91 3301     		.2byte	0x133
 4161 0b93 D5080000 		.4byte	0x8d5
 4162 0b97 31       		.uleb128 0x31
 4163 0b98 6C656E00 		.ascii	"len\000"
 4164 0b9c 01       		.byte	0x1
 4165 0b9d 3401     		.2byte	0x134
 4166 0b9f 08010000 		.4byte	0x108
 4167 0ba3 30       		.uleb128 0x30
 4168 0ba4 A2000000 		.4byte	.LASF108
 4169 0ba8 01       		.byte	0x1
 4170 0ba9 3501     		.2byte	0x135
 4171 0bab 1A010000 		.4byte	0x11a
 4172 0baf 30       		.uleb128 0x30
 4173 0bb0 34040000 		.4byte	.LASF109
 4174 0bb4 01       		.byte	0x1
 4175 0bb5 3801     		.2byte	0x138
 4176 0bb7 770C0000 		.4byte	0xc77
 4177 0bbb 32       		.uleb128 0x32
 4178 0bbc F1040000 		.4byte	.LASF110
 4179 0bc0 01       		.byte	0x1
 4180 0bc1 3B01     		.2byte	0x13b
 4181 0bc3 8C0C0000 		.4byte	0xc8c
 4182 0bc7 50       		.byte	0x50
 4183 0bc8 00       		.byte	0
 4184 0bc9 00       		.byte	0
 4185 0bca 00       		.byte	0
 4186 0bcb 00       		.byte	0
 4187 0bcc 00       		.byte	0
 4188 0bcd 00       		.byte	0
 4189 0bce F0       		.byte	0xf0
 4190 0bcf 3F       		.byte	0x3f
 4191 0bd0 00       		.byte	0
 4192 0bd1 00       		.byte	0
 4193 0bd2 00       		.byte	0
 4194 0bd3 00       		.byte	0
 4195 0bd4 00       		.byte	0
 4196 0bd5 00       		.byte	0
 4197 0bd6 24       		.byte	0x24
 4198 0bd7 40       		.byte	0x40
 4199 0bd8 00       		.byte	0
 4200 0bd9 00       		.byte	0
 4201 0bda 00       		.byte	0
 4202 0bdb 00       		.byte	0
 4203 0bdc 00       		.byte	0
 4204 0bdd 00       		.byte	0
 4205 0bde 59       		.byte	0x59
 4206 0bdf 40       		.byte	0x40
 4207 0be0 00       		.byte	0
 4208 0be1 00       		.byte	0
 4209 0be2 00       		.byte	0
ARM GAS  C:\Users\chemi\AppData\Local\Temp\ccvd4c4w.s 			page 94


 4210 0be3 00       		.byte	0
 4211 0be4 00       		.byte	0
 4212 0be5 40       		.byte	0x40
 4213 0be6 8F       		.byte	0x8f
 4214 0be7 40       		.byte	0x40
 4215 0be8 00       		.byte	0
 4216 0be9 00       		.byte	0
 4217 0bea 00       		.byte	0
 4218 0beb 00       		.byte	0
 4219 0bec 00       		.byte	0
 4220 0bed 88       		.byte	0x88
 4221 0bee C3       		.byte	0xc3
 4222 0bef 40       		.byte	0x40
 4223 0bf0 00       		.byte	0
 4224 0bf1 00       		.byte	0
 4225 0bf2 00       		.byte	0
 4226 0bf3 00       		.byte	0
 4227 0bf4 00       		.byte	0
 4228 0bf5 6A       		.byte	0x6a
 4229 0bf6 F8       		.byte	0xf8
 4230 0bf7 40       		.byte	0x40
 4231 0bf8 00       		.byte	0
 4232 0bf9 00       		.byte	0
 4233 0bfa 00       		.byte	0
 4234 0bfb 00       		.byte	0
 4235 0bfc 80       		.byte	0x80
 4236 0bfd 84       		.byte	0x84
 4237 0bfe 2E       		.byte	0x2e
 4238 0bff 41       		.byte	0x41
 4239 0c00 00       		.byte	0
 4240 0c01 00       		.byte	0
 4241 0c02 00       		.byte	0
 4242 0c03 00       		.byte	0
 4243 0c04 D0       		.byte	0xd0
 4244 0c05 12       		.byte	0x12
 4245 0c06 63       		.byte	0x63
 4246 0c07 41       		.byte	0x41
 4247 0c08 00       		.byte	0
 4248 0c09 00       		.byte	0
 4249 0c0a 00       		.byte	0
 4250 0c0b 00       		.byte	0
 4251 0c0c 84       		.byte	0x84
 4252 0c0d D7       		.byte	0xd7
 4253 0c0e 97       		.byte	0x97
 4254 0c0f 41       		.byte	0x41
 4255 0c10 00       		.byte	0
 4256 0c11 00       		.byte	0
 4257 0c12 00       		.byte	0
 4258 0c13 00       		.byte	0
 4259 0c14 65       		.byte	0x65
 4260 0c15 CD       		.byte	0xcd
 4261 0c16 CD       		.byte	0xcd
 4262 0c17 41       		.byte	0x41
 4263 0c18 30       		.uleb128 0x30
 4264 0c19 5C050000 		.4byte	.LASF93
 4265 0c1d 01       		.byte	0x1
 4266 0c1e 3E01     		.2byte	0x13e
ARM GAS  C:\Users\chemi\AppData\Local\Temp\ccvd4c4w.s 			page 95


 4267 0c20 63050000 		.4byte	0x563
 4268 0c24 30       		.uleb128 0x30
 4269 0c25 75030000 		.4byte	.LASF111
 4270 0c29 01       		.byte	0x1
 4271 0c2a 4E01     		.2byte	0x14e
 4272 0c2c 89000000 		.4byte	0x89
 4273 0c30 31       		.uleb128 0x31
 4274 0c31 746D7000 		.ascii	"tmp\000"
 4275 0c35 01       		.byte	0x1
 4276 0c36 4F01     		.2byte	0x14f
 4277 0c38 1A010000 		.4byte	0x11a
 4278 0c3c 30       		.uleb128 0x30
 4279 0c3d AE050000 		.4byte	.LASF112
 4280 0c41 01       		.byte	0x1
 4281 0c42 5001     		.2byte	0x150
 4282 0c44 74000000 		.4byte	0x74
 4283 0c48 33       		.uleb128 0x33
 4284 0c49 5A0C0000 		.4byte	0xc5a
 4285 0c4d 30       		.uleb128 0x30
 4286 0c4e C5010000 		.4byte	.LASF113
 4287 0c52 01       		.byte	0x1
 4288 0c53 7301     		.2byte	0x173
 4289 0c55 9B000000 		.4byte	0x9b
 4290 0c59 00       		.byte	0
 4291 0c5a 33       		.uleb128 0x33
 4292 0c5b 6A0C0000 		.4byte	0xc6a
 4293 0c5f 31       		.uleb128 0x31
 4294 0c60 6900     		.ascii	"i\000"
 4295 0c62 01       		.byte	0x1
 4296 0c63 A701     		.2byte	0x1a7
 4297 0c65 08010000 		.4byte	0x108
 4298 0c69 00       		.byte	0
 4299 0c6a 34       		.uleb128 0x34
 4300 0c6b 31       		.uleb128 0x31
 4301 0c6c 6900     		.ascii	"i\000"
 4302 0c6e 01       		.byte	0x1
 4303 0c6f AD01     		.2byte	0x1ad
 4304 0c71 08010000 		.4byte	0x108
 4305 0c75 00       		.byte	0
 4306 0c76 00       		.byte	0
 4307 0c77 09       		.uleb128 0x9
 4308 0c78 1A010000 		.4byte	0x11a
 4309 0c7c 10       		.uleb128 0x10
 4310 0c7d 770C0000 		.4byte	0xc77
 4311 0c81 8C0C0000 		.4byte	0xc8c
 4312 0c85 11       		.uleb128 0x11
 4313 0c86 28010000 		.4byte	0x128
 4314 0c8a 09       		.byte	0x9
 4315 0c8b 00       		.byte	0
 4316 0c8c 09       		.uleb128 0x9
 4317 0c8d 7C0C0000 		.4byte	0xc7c
 4318 0c91 14       		.uleb128 0x14
 4319 0c92 3C060000 		.4byte	.LASF114
 4320 0c96 01       		.byte	0x1
 4321 0c97 95       		.byte	0x95
 4322 0c98 9B000000 		.4byte	0x9b
 4323 0c9c 03       		.byte	0x3
ARM GAS  C:\Users\chemi\AppData\Local\Temp\ccvd4c4w.s 			page 96


 4324 0c9d C10C0000 		.4byte	0xcc1
 4325 0ca1 15       		.uleb128 0x15
 4326 0ca2 73747200 		.ascii	"str\000"
 4327 0ca6 01       		.byte	0x1
 4328 0ca7 95       		.byte	0x95
 4329 0ca8 35010000 		.4byte	0x135
 4330 0cac 35       		.uleb128 0x35
 4331 0cad 65070000 		.4byte	.LASF115
 4332 0cb1 01       		.byte	0x1
 4333 0cb2 95       		.byte	0x95
 4334 0cb3 08010000 		.4byte	0x108
 4335 0cb7 1F       		.uleb128 0x1f
 4336 0cb8 7300     		.ascii	"s\000"
 4337 0cba 01       		.byte	0x1
 4338 0cbb 97       		.byte	0x97
 4339 0cbc 35010000 		.4byte	0x135
 4340 0cc0 00       		.byte	0
 4341 0cc1 26       		.uleb128 0x26
 4342 0cc2 EC000000 		.4byte	.LASF116
 4343 0cc6 01       		.byte	0x1
 4344 0cc7 BE01     		.2byte	0x1be
 4345 0cc9 89000000 		.4byte	0x89
 4346 0ccd 00000000 		.4byte	.LFB79
 4347 0cd1 74070000 		.4byte	.LFE79-.LFB79
 4348 0cd5 01       		.uleb128 0x1
 4349 0cd6 9C       		.byte	0x9c
 4350 0cd7 9A120000 		.4byte	0x129a
 4351 0cdb 27       		.uleb128 0x27
 4352 0cdc 6F757400 		.ascii	"out\000"
 4353 0ce0 01       		.byte	0x1
 4354 0ce1 BE01     		.2byte	0x1be
 4355 0ce3 DB040000 		.4byte	0x4db
 4356 0ce7 EC060000 		.4byte	.LLST38
 4357 0ceb 28       		.uleb128 0x28
 4358 0cec EC050000 		.4byte	.LASF89
 4359 0cf0 01       		.byte	0x1
 4360 0cf1 BE01     		.2byte	0x1be
 4361 0cf3 2F010000 		.4byte	0x12f
 4362 0cf7 FF060000 		.4byte	.LLST39
 4363 0cfb 28       		.uleb128 0x28
 4364 0cfc 62030000 		.4byte	.LASF90
 4365 0d00 01       		.byte	0x1
 4366 0d01 BE01     		.2byte	0x1be
 4367 0d03 A8070000 		.4byte	0x7a8
 4368 0d07 1F070000 		.4byte	.LLST40
 4369 0d0b 28       		.uleb128 0x28
 4370 0d0c 65050000 		.4byte	.LASF117
 4371 0d10 01       		.byte	0x1
 4372 0d11 BE01     		.2byte	0x1be
 4373 0d13 35010000 		.4byte	0x135
 4374 0d17 3F070000 		.4byte	.LLST41
 4375 0d1b 36       		.uleb128 0x36
 4376 0d1c 766100   		.ascii	"va\000"
 4377 0d1f 01       		.byte	0x1
 4378 0d20 BE01     		.2byte	0x1be
 4379 0d22 FD000000 		.4byte	0xfd
 4380 0d26 02       		.uleb128 0x2
ARM GAS  C:\Users\chemi\AppData\Local\Temp\ccvd4c4w.s 			page 97


 4381 0d27 91       		.byte	0x91
 4382 0d28 00       		.sleb128 0
 4383 0d29 24       		.uleb128 0x24
 4384 0d2a D9060000 		.4byte	.LASF97
 4385 0d2e 01       		.byte	0x1
 4386 0d2f C001     		.2byte	0x1c0
 4387 0d31 9B000000 		.4byte	0x9b
 4388 0d35 CC090000 		.4byte	.LLST42
 4389 0d39 24       		.uleb128 0x24
 4390 0d3a 2E030000 		.4byte	.LASF96
 4391 0d3e 01       		.byte	0x1
 4392 0d3f C001     		.2byte	0x1c0
 4393 0d41 9B000000 		.4byte	0x9b
 4394 0d45 8F0A0000 		.4byte	.LLST43
 4395 0d49 24       		.uleb128 0x24
 4396 0d4a CB050000 		.4byte	.LASF118
 4397 0d4e 01       		.byte	0x1
 4398 0d4f C001     		.2byte	0x1c0
 4399 0d51 9B000000 		.4byte	0x9b
 4400 0d55 EC0A0000 		.4byte	.LLST44
 4401 0d59 23       		.uleb128 0x23
 4402 0d5a 6E00     		.ascii	"n\000"
 4403 0d5c 01       		.byte	0x1
 4404 0d5d C001     		.2byte	0x1c0
 4405 0d5f 9B000000 		.4byte	0x9b
 4406 0d63 560B0000 		.4byte	.LLST45
 4407 0d67 23       		.uleb128 0x23
 4408 0d68 69647800 		.ascii	"idx\000"
 4409 0d6c 01       		.byte	0x1
 4410 0d6d C101     		.2byte	0x1c1
 4411 0d6f 08010000 		.4byte	0x108
 4412 0d73 BE0B0000 		.4byte	.LLST46
 4413 0d77 1E       		.uleb128 0x1e
 4414 0d78 C6000000 		.4byte	.LBB51
 4415 0d7c 1A000000 		.4byte	.LBE51-.LBB51
 4416 0d80 930D0000 		.4byte	0xd93
 4417 0d84 23       		.uleb128 0x23
 4418 0d85 7700     		.ascii	"w\000"
 4419 0d87 01       		.byte	0x1
 4420 0d88 E901     		.2byte	0x1e9
 4421 0d8a 9A120000 		.4byte	0x129a
 4422 0d8e FB0C0000 		.4byte	.LLST47
 4423 0d92 00       		.byte	0
 4424 0d93 37       		.uleb128 0x37
 4425 0d94 E30A0000 		.4byte	0xae3
 4426 0d98 06010000 		.4byte	.LBB52
 4427 0d9c 16000000 		.4byte	.LBE52-.LBB52
 4428 0da0 01       		.byte	0x1
 4429 0da1 FA01     		.2byte	0x1fa
 4430 0da3 C00D0000 		.4byte	0xdc0
 4431 0da7 38       		.uleb128 0x38
 4432 0da8 F30A0000 		.4byte	0xaf3
 4433 0dac 39       		.uleb128 0x39
 4434 0dad 06010000 		.4byte	.LBB53
 4435 0db1 16000000 		.4byte	.LBE53-.LBB53
 4436 0db5 3A       		.uleb128 0x3a
 4437 0db6 FE0A0000 		.4byte	0xafe
ARM GAS  C:\Users\chemi\AppData\Local\Temp\ccvd4c4w.s 			page 98


 4438 0dba 260D0000 		.4byte	.LLST48
 4439 0dbe 00       		.byte	0
 4440 0dbf 00       		.byte	0
 4441 0dc0 1E       		.uleb128 0x1e
 4442 0dc1 20010000 		.4byte	.LBB54
 4443 0dc5 12000000 		.4byte	.LBE54-.LBB54
 4444 0dc9 DE0D0000 		.4byte	0xdde
 4445 0dcd 24       		.uleb128 0x24
 4446 0dce 00000000 		.4byte	.LASF95
 4447 0dd2 01       		.byte	0x1
 4448 0dd3 FD01     		.2byte	0x1fd
 4449 0dd5 9A120000 		.4byte	0x129a
 4450 0dd9 5A0D0000 		.4byte	.LLST49
 4451 0ddd 00       		.byte	0
 4452 0dde 3B       		.uleb128 0x3b
 4453 0ddf 00000000 		.4byte	.Ldebug_ranges0+0
 4454 0de3 EC0E0000 		.4byte	0xeec
 4455 0de7 24       		.uleb128 0x24
 4456 0de8 C0040000 		.4byte	.LASF94
 4457 0dec 01       		.byte	0x1
 4458 0ded 3102     		.2byte	0x231
 4459 0def 9B000000 		.4byte	0x9b
 4460 0df3 850D0000 		.4byte	.LLST50
 4461 0df7 1E       		.uleb128 0x1e
 4462 0df8 2C020000 		.4byte	.LBB56
 4463 0dfc 38000000 		.4byte	.LBE56-.LBB56
 4464 0e00 150E0000 		.4byte	0xe15
 4465 0e04 24       		.uleb128 0x24
 4466 0e05 90020000 		.4byte	.LASF101
 4467 0e09 01       		.byte	0x1
 4468 0e0a 5302     		.2byte	0x253
 4469 0e0c 9F120000 		.4byte	0x129f
 4470 0e10 B10D0000 		.4byte	.LLST51
 4471 0e14 00       		.byte	0
 4472 0e15 1E       		.uleb128 0x1e
 4473 0e16 6E020000 		.4byte	.LBB57
 4474 0e1a 20000000 		.4byte	.LBE57-.LBB57
 4475 0e1e 330E0000 		.4byte	0xe33
 4476 0e22 24       		.uleb128 0x24
 4477 0e23 90020000 		.4byte	.LASF101
 4478 0e27 01       		.byte	0x1
 4479 0e28 5802     		.2byte	0x258
 4480 0e2a A4120000 		.4byte	0x12a4
 4481 0e2e D90D0000 		.4byte	.LLST52
 4482 0e32 00       		.byte	0
 4483 0e33 1E       		.uleb128 0x1e
 4484 0e34 8E020000 		.4byte	.LBB58
 4485 0e38 36000000 		.4byte	.LBE58-.LBB58
 4486 0e3c 510E0000 		.4byte	0xe51
 4487 0e40 24       		.uleb128 0x24
 4488 0e41 90020000 		.4byte	.LASF101
 4489 0e45 01       		.byte	0x1
 4490 0e46 5C02     		.2byte	0x25c
 4491 0e48 9A120000 		.4byte	0x129a
 4492 0e4c EC0D0000 		.4byte	.LLST53
 4493 0e50 00       		.byte	0
 4494 0e51 1E       		.uleb128 0x1e
ARM GAS  C:\Users\chemi\AppData\Local\Temp\ccvd4c4w.s 			page 99


 4495 0e52 28030000 		.4byte	.LBB59
 4496 0e56 36000000 		.4byte	.LBE59-.LBB59
 4497 0e5a 970E0000 		.4byte	0xe97
 4498 0e5e 24       		.uleb128 0x24
 4499 0e5f 90020000 		.4byte	.LASF101
 4500 0e63 01       		.byte	0x1
 4501 0e64 6B02     		.2byte	0x26b
 4502 0e66 A9120000 		.4byte	0x12a9
 4503 0e6a FF0D0000 		.4byte	.LLST54
 4504 0e6e 25       		.uleb128 0x25
 4505 0e6f 5C030000 		.4byte	.LVL182
 4506 0e73 AD070000 		.4byte	0x7ad
 4507 0e77 21       		.uleb128 0x21
 4508 0e78 01       		.uleb128 0x1
 4509 0e79 50       		.byte	0x50
 4510 0e7a 04       		.uleb128 0x4
 4511 0e7b 91       		.byte	0x91
 4512 0e7c 9C7F     		.sleb128 -100
 4513 0e7e 06       		.byte	0x6
 4514 0e7f 21       		.uleb128 0x21
 4515 0e80 01       		.uleb128 0x1
 4516 0e81 51       		.byte	0x51
 4517 0e82 04       		.uleb128 0x4
 4518 0e83 91       		.byte	0x91
 4519 0e84 987F     		.sleb128 -104
 4520 0e86 06       		.byte	0x6
 4521 0e87 21       		.uleb128 0x21
 4522 0e88 01       		.uleb128 0x1
 4523 0e89 52       		.byte	0x52
 4524 0e8a 02       		.uleb128 0x2
 4525 0e8b 75       		.byte	0x75
 4526 0e8c 00       		.sleb128 0
 4527 0e8d 21       		.uleb128 0x21
 4528 0e8e 01       		.uleb128 0x1
 4529 0e8f 53       		.byte	0x53
 4530 0e90 04       		.uleb128 0x4
 4531 0e91 91       		.byte	0x91
 4532 0e92 907F     		.sleb128 -112
 4533 0e94 06       		.byte	0x6
 4534 0e95 00       		.byte	0
 4535 0e96 00       		.byte	0
 4536 0e97 3C       		.uleb128 0x3c
 4537 0e98 F6020000 		.4byte	.LVL176
 4538 0e9c E5080000 		.4byte	0x8e5
 4539 0ea0 C30E0000 		.4byte	0xec3
 4540 0ea4 21       		.uleb128 0x21
 4541 0ea5 01       		.uleb128 0x1
 4542 0ea6 50       		.byte	0x50
 4543 0ea7 04       		.uleb128 0x4
 4544 0ea8 91       		.byte	0x91
 4545 0ea9 9C7F     		.sleb128 -100
 4546 0eab 06       		.byte	0x6
 4547 0eac 21       		.uleb128 0x21
 4548 0ead 01       		.uleb128 0x1
 4549 0eae 51       		.byte	0x51
 4550 0eaf 04       		.uleb128 0x4
 4551 0eb0 91       		.byte	0x91
ARM GAS  C:\Users\chemi\AppData\Local\Temp\ccvd4c4w.s 			page 100


 4552 0eb1 987F     		.sleb128 -104
 4553 0eb3 06       		.byte	0x6
 4554 0eb4 21       		.uleb128 0x21
 4555 0eb5 01       		.uleb128 0x1
 4556 0eb6 52       		.byte	0x52
 4557 0eb7 02       		.uleb128 0x2
 4558 0eb8 75       		.byte	0x75
 4559 0eb9 00       		.sleb128 0
 4560 0eba 21       		.uleb128 0x21
 4561 0ebb 01       		.uleb128 0x1
 4562 0ebc 53       		.byte	0x53
 4563 0ebd 04       		.uleb128 0x4
 4564 0ebe 91       		.byte	0x91
 4565 0ebf 907F     		.sleb128 -112
 4566 0ec1 06       		.byte	0x6
 4567 0ec2 00       		.byte	0
 4568 0ec3 25       		.uleb128 0x25
 4569 0ec4 22030000 		.4byte	.LVL177
 4570 0ec8 AD070000 		.4byte	0x7ad
 4571 0ecc 21       		.uleb128 0x21
 4572 0ecd 01       		.uleb128 0x1
 4573 0ece 50       		.byte	0x50
 4574 0ecf 04       		.uleb128 0x4
 4575 0ed0 91       		.byte	0x91
 4576 0ed1 9C7F     		.sleb128 -100
 4577 0ed3 06       		.byte	0x6
 4578 0ed4 21       		.uleb128 0x21
 4579 0ed5 01       		.uleb128 0x1
 4580 0ed6 51       		.byte	0x51
 4581 0ed7 04       		.uleb128 0x4
 4582 0ed8 91       		.byte	0x91
 4583 0ed9 987F     		.sleb128 -104
 4584 0edb 06       		.byte	0x6
 4585 0edc 21       		.uleb128 0x21
 4586 0edd 01       		.uleb128 0x1
 4587 0ede 52       		.byte	0x52
 4588 0edf 02       		.uleb128 0x2
 4589 0ee0 75       		.byte	0x75
 4590 0ee1 00       		.sleb128 0
 4591 0ee2 21       		.uleb128 0x21
 4592 0ee3 01       		.uleb128 0x1
 4593 0ee4 53       		.byte	0x53
 4594 0ee5 04       		.uleb128 0x4
 4595 0ee6 91       		.byte	0x91
 4596 0ee7 907F     		.sleb128 -112
 4597 0ee9 06       		.byte	0x6
 4598 0eea 00       		.byte	0
 4599 0eeb 00       		.byte	0
 4600 0eec 3B       		.uleb128 0x3b
 4601 0eed 28000000 		.4byte	.Ldebug_ranges0+0x28
 4602 0ef1 AE0F0000 		.4byte	0xfae
 4603 0ef5 23       		.uleb128 0x23
 4604 0ef6 7000     		.ascii	"p\000"
 4605 0ef8 01       		.byte	0x1
 4606 0ef9 8E02     		.2byte	0x28e
 4607 0efb 2F010000 		.4byte	0x12f
 4608 0eff 120E0000 		.4byte	.LLST55
ARM GAS  C:\Users\chemi\AppData\Local\Temp\ccvd4c4w.s 			page 101


 4609 0f03 23       		.uleb128 0x23
 4610 0f04 6C00     		.ascii	"l\000"
 4611 0f06 01       		.byte	0x1
 4612 0f07 8F02     		.2byte	0x28f
 4613 0f09 9B000000 		.4byte	0x9b
 4614 0f0d 600E0000 		.4byte	.LLST56
 4615 0f11 3D       		.uleb128 0x3d
 4616 0f12 910C0000 		.4byte	0xc91
 4617 0f16 80060000 		.4byte	.LBB63
 4618 0f1a 40000000 		.4byte	.Ldebug_ranges0+0x40
 4619 0f1e 01       		.byte	0x1
 4620 0f1f 8F02     		.2byte	0x28f
 4621 0f21 3F0F0000 		.4byte	0xf3f
 4622 0f25 38       		.uleb128 0x38
 4623 0f26 AC0C0000 		.4byte	0xcac
 4624 0f2a 38       		.uleb128 0x38
 4625 0f2b A10C0000 		.4byte	0xca1
 4626 0f2f 3E       		.uleb128 0x3e
 4627 0f30 40000000 		.4byte	.Ldebug_ranges0+0x40
 4628 0f34 3A       		.uleb128 0x3a
 4629 0f35 B70C0000 		.4byte	0xcb7
 4630 0f39 890E0000 		.4byte	.LLST57
 4631 0f3d 00       		.byte	0
 4632 0f3e 00       		.byte	0
 4633 0f3f 3F       		.uleb128 0x3f
 4634 0f40 C2060000 		.4byte	.LVL296
 4635 0f44 02       		.uleb128 0x2
 4636 0f45 75       		.byte	0x75
 4637 0f46 00       		.sleb128 0
 4638 0f47 6B0F0000 		.4byte	0xf6b
 4639 0f4b 21       		.uleb128 0x21
 4640 0f4c 01       		.uleb128 0x1
 4641 0f4d 50       		.byte	0x50
 4642 0f4e 02       		.uleb128 0x2
 4643 0f4f 08       		.byte	0x8
 4644 0f50 20       		.byte	0x20
 4645 0f51 21       		.uleb128 0x21
 4646 0f52 01       		.uleb128 0x1
 4647 0f53 51       		.byte	0x51
 4648 0f54 04       		.uleb128 0x4
 4649 0f55 91       		.byte	0x91
 4650 0f56 987F     		.sleb128 -104
 4651 0f58 06       		.byte	0x6
 4652 0f59 21       		.uleb128 0x21
 4653 0f5a 01       		.uleb128 0x1
 4654 0f5b 52       		.byte	0x52
 4655 0f5c 05       		.uleb128 0x5
 4656 0f5d 7A       		.byte	0x7a
 4657 0f5e 00       		.sleb128 0
 4658 0f5f 77       		.byte	0x77
 4659 0f60 00       		.sleb128 0
 4660 0f61 22       		.byte	0x22
 4661 0f62 21       		.uleb128 0x21
 4662 0f63 01       		.uleb128 0x1
 4663 0f64 53       		.byte	0x53
 4664 0f65 04       		.uleb128 0x4
 4665 0f66 91       		.byte	0x91
ARM GAS  C:\Users\chemi\AppData\Local\Temp\ccvd4c4w.s 			page 102


 4666 0f67 907F     		.sleb128 -112
 4667 0f69 06       		.byte	0x6
 4668 0f6a 00       		.byte	0
 4669 0f6b 3F       		.uleb128 0x3f
 4670 0f6c E2060000 		.4byte	.LVL303
 4671 0f70 02       		.uleb128 0x2
 4672 0f71 75       		.byte	0x75
 4673 0f72 00       		.sleb128 0
 4674 0f73 880F0000 		.4byte	0xf88
 4675 0f77 21       		.uleb128 0x21
 4676 0f78 01       		.uleb128 0x1
 4677 0f79 51       		.byte	0x51
 4678 0f7a 04       		.uleb128 0x4
 4679 0f7b 91       		.byte	0x91
 4680 0f7c 987F     		.sleb128 -104
 4681 0f7e 06       		.byte	0x6
 4682 0f7f 21       		.uleb128 0x21
 4683 0f80 01       		.uleb128 0x1
 4684 0f81 53       		.byte	0x53
 4685 0f82 04       		.uleb128 0x4
 4686 0f83 91       		.byte	0x91
 4687 0f84 907F     		.sleb128 -112
 4688 0f86 06       		.byte	0x6
 4689 0f87 00       		.byte	0
 4690 0f88 40       		.uleb128 0x40
 4691 0f89 10070000 		.4byte	.LVL309
 4692 0f8d 02       		.uleb128 0x2
 4693 0f8e 75       		.byte	0x75
 4694 0f8f 00       		.sleb128 0
 4695 0f90 21       		.uleb128 0x21
 4696 0f91 01       		.uleb128 0x1
 4697 0f92 50       		.byte	0x50
 4698 0f93 02       		.uleb128 0x2
 4699 0f94 08       		.byte	0x8
 4700 0f95 20       		.byte	0x20
 4701 0f96 21       		.uleb128 0x21
 4702 0f97 01       		.uleb128 0x1
 4703 0f98 51       		.byte	0x51
 4704 0f99 04       		.uleb128 0x4
 4705 0f9a 91       		.byte	0x91
 4706 0f9b 987F     		.sleb128 -104
 4707 0f9d 06       		.byte	0x6
 4708 0f9e 21       		.uleb128 0x21
 4709 0f9f 01       		.uleb128 0x1
 4710 0fa0 52       		.byte	0x52
 4711 0fa1 02       		.uleb128 0x2
 4712 0fa2 74       		.byte	0x74
 4713 0fa3 7F       		.sleb128 -1
 4714 0fa4 21       		.uleb128 0x21
 4715 0fa5 01       		.uleb128 0x1
 4716 0fa6 53       		.byte	0x53
 4717 0fa7 04       		.uleb128 0x4
 4718 0fa8 91       		.byte	0x91
 4719 0fa9 907F     		.sleb128 -112
 4720 0fab 06       		.byte	0x6
 4721 0fac 00       		.byte	0
 4722 0fad 00       		.byte	0
ARM GAS  C:\Users\chemi\AppData\Local\Temp\ccvd4c4w.s 			page 103


 4723 0fae 37       		.uleb128 0x37
 4724 0faf 0E0B0000 		.4byte	0xb0e
 4725 0fb3 78030000 		.4byte	.LBB68
 4726 0fb7 80020000 		.4byte	.LBE68-.LBB68
 4727 0fbb 01       		.byte	0x1
 4728 0fbc 7502     		.2byte	0x275
 4729 0fbe 10110000 		.4byte	0x1110
 4730 0fc2 41       		.uleb128 0x41
 4731 0fc3 730B0000 		.4byte	0xb73
 4732 0fc7 9C0E0000 		.4byte	.LLST58
 4733 0fcb 41       		.uleb128 0x41
 4734 0fcc 670B0000 		.4byte	0xb67
 4735 0fd0 BA0E0000 		.4byte	.LLST59
 4736 0fd4 41       		.uleb128 0x41
 4737 0fd5 5B0B0000 		.4byte	0xb5b
 4738 0fd9 CF0E0000 		.4byte	.LLST60
 4739 0fdd 41       		.uleb128 0x41
 4740 0fde 4F0B0000 		.4byte	0xb4f
 4741 0fe2 0B0F0000 		.4byte	.LLST61
 4742 0fe6 38       		.uleb128 0x38
 4743 0fe7 430B0000 		.4byte	0xb43
 4744 0feb 41       		.uleb128 0x41
 4745 0fec 370B0000 		.4byte	0xb37
 4746 0ff0 6A0F0000 		.4byte	.LLST62
 4747 0ff4 38       		.uleb128 0x38
 4748 0ff5 2B0B0000 		.4byte	0xb2b
 4749 0ff9 38       		.uleb128 0x38
 4750 0ffa 1F0B0000 		.4byte	0xb1f
 4751 0ffe 39       		.uleb128 0x39
 4752 0fff 78030000 		.4byte	.LBB69
 4753 1003 80020000 		.4byte	.LBE69-.LBB69
 4754 1007 3A       		.uleb128 0x3a
 4755 1008 7F0B0000 		.4byte	0xb7f
 4756 100c F50F0000 		.4byte	.LLST63
 4757 1010 42       		.uleb128 0x42
 4758 1011 8B0B0000 		.4byte	0xb8b
 4759 1015 03       		.uleb128 0x3
 4760 1016 91       		.byte	0x91
 4761 1017 B87F     		.sleb128 -72
 4762 1019 3A       		.uleb128 0x3a
 4763 101a 970B0000 		.4byte	0xb97
 4764 101e 08100000 		.4byte	.LLST64
 4765 1022 3A       		.uleb128 0x3a
 4766 1023 A30B0000 		.4byte	0xba3
 4767 1027 A3100000 		.4byte	.LLST65
 4768 102b 3A       		.uleb128 0x3a
 4769 102c AF0B0000 		.4byte	0xbaf
 4770 1030 06110000 		.4byte	.LLST66
 4771 1034 3A       		.uleb128 0x3a
 4772 1035 180C0000 		.4byte	0xc18
 4773 1039 22110000 		.4byte	.LLST67
 4774 103d 3A       		.uleb128 0x3a
 4775 103e 240C0000 		.4byte	0xc24
 4776 1042 6F110000 		.4byte	.LLST68
 4777 1046 3A       		.uleb128 0x3a
 4778 1047 300C0000 		.4byte	0xc30
 4779 104b B9110000 		.4byte	.LLST69
ARM GAS  C:\Users\chemi\AppData\Local\Temp\ccvd4c4w.s 			page 104


 4780 104f 3A       		.uleb128 0x3a
 4781 1050 3C0C0000 		.4byte	0xc3c
 4782 1054 DE110000 		.4byte	.LLST70
 4783 1058 42       		.uleb128 0x42
 4784 1059 BB0B0000 		.4byte	0xbbb
 4785 105d 05       		.uleb128 0x5
 4786 105e 03       		.byte	0x3
 4787 105f 00000000 		.4byte	pow10.9154
 4788 1063 3B       		.uleb128 0x3b
 4789 1064 58000000 		.4byte	.Ldebug_ranges0+0x58
 4790 1068 76100000 		.4byte	0x1076
 4791 106c 3A       		.uleb128 0x3a
 4792 106d 4D0C0000 		.4byte	0xc4d
 4793 1071 3F120000 		.4byte	.LLST71
 4794 1075 00       		.byte	0
 4795 1076 1E       		.uleb128 0x1e
 4796 1077 84050000 		.4byte	.LBB72
 4797 107b 1E000000 		.4byte	.LBE72-.LBB72
 4798 107f AE100000 		.4byte	0x10ae
 4799 1083 43       		.uleb128 0x43
 4800 1084 5F0C0000 		.4byte	0xc5f
 4801 1088 40       		.uleb128 0x40
 4802 1089 9E050000 		.4byte	.LVL253
 4803 108d 02       		.uleb128 0x2
 4804 108e 76       		.byte	0x76
 4805 108f 00       		.sleb128 0
 4806 1090 21       		.uleb128 0x21
 4807 1091 01       		.uleb128 0x1
 4808 1092 50       		.byte	0x50
 4809 1093 02       		.uleb128 0x2
 4810 1094 08       		.byte	0x8
 4811 1095 20       		.byte	0x20
 4812 1096 21       		.uleb128 0x21
 4813 1097 01       		.uleb128 0x1
 4814 1098 51       		.byte	0x51
 4815 1099 04       		.uleb128 0x4
 4816 109a 91       		.byte	0x91
 4817 109b 987F     		.sleb128 -104
 4818 109d 06       		.byte	0x6
 4819 109e 21       		.uleb128 0x21
 4820 109f 01       		.uleb128 0x1
 4821 10a0 52       		.byte	0x52
 4822 10a1 02       		.uleb128 0x2
 4823 10a2 79       		.byte	0x79
 4824 10a3 00       		.sleb128 0
 4825 10a4 21       		.uleb128 0x21
 4826 10a5 01       		.uleb128 0x1
 4827 10a6 53       		.byte	0x53
 4828 10a7 04       		.uleb128 0x4
 4829 10a8 91       		.byte	0x91
 4830 10a9 907F     		.sleb128 -112
 4831 10ab 06       		.byte	0x6
 4832 10ac 00       		.byte	0
 4833 10ad 00       		.byte	0
 4834 10ae 1E       		.uleb128 0x1e
 4835 10af C0050000 		.4byte	.LBB73
 4836 10b3 16000000 		.4byte	.LBE73-.LBB73
ARM GAS  C:\Users\chemi\AppData\Local\Temp\ccvd4c4w.s 			page 105


 4837 10b7 E9100000 		.4byte	0x10e9
 4838 10bb 43       		.uleb128 0x43
 4839 10bc 6B0C0000 		.4byte	0xc6b
 4840 10c0 40       		.uleb128 0x40
 4841 10c1 D4050000 		.4byte	.LVL260
 4842 10c5 02       		.uleb128 0x2
 4843 10c6 76       		.byte	0x76
 4844 10c7 00       		.sleb128 0
 4845 10c8 21       		.uleb128 0x21
 4846 10c9 01       		.uleb128 0x1
 4847 10ca 51       		.byte	0x51
 4848 10cb 04       		.uleb128 0x4
 4849 10cc 91       		.byte	0x91
 4850 10cd 987F     		.sleb128 -104
 4851 10cf 06       		.byte	0x6
 4852 10d0 21       		.uleb128 0x21
 4853 10d1 01       		.uleb128 0x1
 4854 10d2 52       		.byte	0x52
 4855 10d3 0B       		.uleb128 0xb
 4856 10d4 7A       		.byte	0x7a
 4857 10d5 00       		.sleb128 0
 4858 10d6 20       		.byte	0x20
 4859 10d7 91       		.byte	0x91
 4860 10d8 A07F     		.sleb128 -96
 4861 10da 06       		.byte	0x6
 4862 10db 22       		.byte	0x22
 4863 10dc 7B       		.byte	0x7b
 4864 10dd 00       		.sleb128 0
 4865 10de 22       		.byte	0x22
 4866 10df 21       		.uleb128 0x21
 4867 10e0 01       		.uleb128 0x1
 4868 10e1 53       		.byte	0x53
 4869 10e2 04       		.uleb128 0x4
 4870 10e3 91       		.byte	0x91
 4871 10e4 907F     		.sleb128 -112
 4872 10e6 06       		.byte	0x6
 4873 10e7 00       		.byte	0
 4874 10e8 00       		.byte	0
 4875 10e9 40       		.uleb128 0x40
 4876 10ea F2050000 		.4byte	.LVL265
 4877 10ee 02       		.uleb128 0x2
 4878 10ef 76       		.byte	0x76
 4879 10f0 00       		.sleb128 0
 4880 10f1 21       		.uleb128 0x21
 4881 10f2 01       		.uleb128 0x1
 4882 10f3 50       		.byte	0x50
 4883 10f4 02       		.uleb128 0x2
 4884 10f5 08       		.byte	0x8
 4885 10f6 20       		.byte	0x20
 4886 10f7 21       		.uleb128 0x21
 4887 10f8 01       		.uleb128 0x1
 4888 10f9 51       		.byte	0x51
 4889 10fa 04       		.uleb128 0x4
 4890 10fb 91       		.byte	0x91
 4891 10fc 987F     		.sleb128 -104
 4892 10fe 06       		.byte	0x6
 4893 10ff 21       		.uleb128 0x21
ARM GAS  C:\Users\chemi\AppData\Local\Temp\ccvd4c4w.s 			page 106


 4894 1100 01       		.uleb128 0x1
 4895 1101 52       		.byte	0x52
 4896 1102 02       		.uleb128 0x2
 4897 1103 74       		.byte	0x74
 4898 1104 7F       		.sleb128 -1
 4899 1105 21       		.uleb128 0x21
 4900 1106 01       		.uleb128 0x1
 4901 1107 53       		.byte	0x53
 4902 1108 04       		.uleb128 0x4
 4903 1109 91       		.byte	0x91
 4904 110a 907F     		.sleb128 -112
 4905 110c 06       		.byte	0x6
 4906 110d 00       		.byte	0
 4907 110e 00       		.byte	0
 4908 110f 00       		.byte	0
 4909 1110 1E       		.uleb128 0x1e
 4910 1111 00060000 		.4byte	.LBB74
 4911 1115 80000000 		.4byte	.LBE74-.LBB74
 4912 1119 A2110000 		.4byte	0x11a2
 4913 111d 23       		.uleb128 0x23
 4914 111e 6C00     		.ascii	"l\000"
 4915 1120 01       		.byte	0x1
 4916 1121 7A02     		.2byte	0x27a
 4917 1123 9B000000 		.4byte	0x9b
 4918 1127 61120000 		.4byte	.LLST72
 4919 112b 3F       		.uleb128 0x3f
 4920 112c 24060000 		.4byte	.LVL276
 4921 1130 02       		.uleb128 0x2
 4922 1131 76       		.byte	0x76
 4923 1132 00       		.sleb128 0
 4924 1133 59110000 		.4byte	0x1159
 4925 1137 21       		.uleb128 0x21
 4926 1138 01       		.uleb128 0x1
 4927 1139 50       		.byte	0x50
 4928 113a 02       		.uleb128 0x2
 4929 113b 08       		.byte	0x8
 4930 113c 20       		.byte	0x20
 4931 113d 21       		.uleb128 0x21
 4932 113e 01       		.uleb128 0x1
 4933 113f 51       		.byte	0x51
 4934 1140 04       		.uleb128 0x4
 4935 1141 91       		.byte	0x91
 4936 1142 987F     		.sleb128 -104
 4937 1144 06       		.byte	0x6
 4938 1145 21       		.uleb128 0x21
 4939 1146 01       		.uleb128 0x1
 4940 1147 52       		.byte	0x52
 4941 1148 07       		.uleb128 0x7
 4942 1149 75       		.byte	0x75
 4943 114a 00       		.sleb128 0
 4944 114b 79       		.byte	0x79
 4945 114c 00       		.sleb128 0
 4946 114d 22       		.byte	0x22
 4947 114e 31       		.byte	0x31
 4948 114f 1C       		.byte	0x1c
 4949 1150 21       		.uleb128 0x21
 4950 1151 01       		.uleb128 0x1
ARM GAS  C:\Users\chemi\AppData\Local\Temp\ccvd4c4w.s 			page 107


 4951 1152 53       		.byte	0x53
 4952 1153 04       		.uleb128 0x4
 4953 1154 91       		.byte	0x91
 4954 1155 907F     		.sleb128 -112
 4955 1157 06       		.byte	0x6
 4956 1158 00       		.byte	0
 4957 1159 3F       		.uleb128 0x3f
 4958 115a 42060000 		.4byte	.LVL281
 4959 115e 02       		.uleb128 0x2
 4960 115f 76       		.byte	0x76
 4961 1160 00       		.sleb128 0
 4962 1161 7C110000 		.4byte	0x117c
 4963 1165 21       		.uleb128 0x21
 4964 1166 01       		.uleb128 0x1
 4965 1167 51       		.byte	0x51
 4966 1168 04       		.uleb128 0x4
 4967 1169 91       		.byte	0x91
 4968 116a 987F     		.sleb128 -104
 4969 116c 06       		.byte	0x6
 4970 116d 21       		.uleb128 0x21
 4971 116e 01       		.uleb128 0x1
 4972 116f 52       		.byte	0x52
 4973 1170 02       		.uleb128 0x2
 4974 1171 75       		.byte	0x75
 4975 1172 00       		.sleb128 0
 4976 1173 21       		.uleb128 0x21
 4977 1174 01       		.uleb128 0x1
 4978 1175 53       		.byte	0x53
 4979 1176 04       		.uleb128 0x4
 4980 1177 91       		.byte	0x91
 4981 1178 907F     		.sleb128 -112
 4982 117a 06       		.byte	0x6
 4983 117b 00       		.byte	0
 4984 117c 40       		.uleb128 0x40
 4985 117d 62060000 		.4byte	.LVL285
 4986 1181 02       		.uleb128 0x2
 4987 1182 76       		.byte	0x76
 4988 1183 00       		.sleb128 0
 4989 1184 21       		.uleb128 0x21
 4990 1185 01       		.uleb128 0x1
 4991 1186 50       		.byte	0x50
 4992 1187 02       		.uleb128 0x2
 4993 1188 08       		.byte	0x8
 4994 1189 20       		.byte	0x20
 4995 118a 21       		.uleb128 0x21
 4996 118b 01       		.uleb128 0x1
 4997 118c 51       		.byte	0x51
 4998 118d 04       		.uleb128 0x4
 4999 118e 91       		.byte	0x91
 5000 118f 987F     		.sleb128 -104
 5001 1191 06       		.byte	0x6
 5002 1192 21       		.uleb128 0x21
 5003 1193 01       		.uleb128 0x1
 5004 1194 52       		.byte	0x52
 5005 1195 02       		.uleb128 0x2
 5006 1196 79       		.byte	0x79
 5007 1197 00       		.sleb128 0
ARM GAS  C:\Users\chemi\AppData\Local\Temp\ccvd4c4w.s 			page 108


 5008 1198 21       		.uleb128 0x21
 5009 1199 01       		.uleb128 0x1
 5010 119a 53       		.byte	0x53
 5011 119b 04       		.uleb128 0x4
 5012 119c 91       		.byte	0x91
 5013 119d 907F     		.sleb128 -112
 5014 119f 06       		.byte	0x6
 5015 11a0 00       		.byte	0
 5016 11a1 00       		.byte	0
 5017 11a2 1E       		.uleb128 0x1e
 5018 11a3 1C070000 		.4byte	.LBB76
 5019 11a7 36000000 		.4byte	.LBE76-.LBB76
 5020 11ab 08120000 		.4byte	0x1208
 5021 11af 24       		.uleb128 0x24
 5022 11b0 0C000000 		.4byte	.LASF119
 5023 11b4 01       		.byte	0x1
 5024 11b5 AB02     		.2byte	0x2ab
 5025 11b7 AE120000 		.4byte	0x12ae
 5026 11bb B1120000 		.4byte	.LLST73
 5027 11bf 25       		.uleb128 0x25
 5028 11c0 44070000 		.4byte	.LVL316
 5029 11c4 AD070000 		.4byte	0x7ad
 5030 11c8 21       		.uleb128 0x21
 5031 11c9 01       		.uleb128 0x1
 5032 11ca 50       		.byte	0x50
 5033 11cb 04       		.uleb128 0x4
 5034 11cc 91       		.byte	0x91
 5035 11cd 9C7F     		.sleb128 -100
 5036 11cf 06       		.byte	0x6
 5037 11d0 21       		.uleb128 0x21
 5038 11d1 01       		.uleb128 0x1
 5039 11d2 51       		.byte	0x51
 5040 11d3 04       		.uleb128 0x4
 5041 11d4 91       		.byte	0x91
 5042 11d5 987F     		.sleb128 -104
 5043 11d7 06       		.byte	0x6
 5044 11d8 21       		.uleb128 0x21
 5045 11d9 01       		.uleb128 0x1
 5046 11da 52       		.byte	0x52
 5047 11db 02       		.uleb128 0x2
 5048 11dc 75       		.byte	0x75
 5049 11dd 00       		.sleb128 0
 5050 11de 21       		.uleb128 0x21
 5051 11df 01       		.uleb128 0x1
 5052 11e0 53       		.byte	0x53
 5053 11e1 04       		.uleb128 0x4
 5054 11e2 91       		.byte	0x91
 5055 11e3 907F     		.sleb128 -112
 5056 11e5 06       		.byte	0x6
 5057 11e6 21       		.uleb128 0x21
 5058 11e7 02       		.uleb128 0x2
 5059 11e8 7D       		.byte	0x7d
 5060 11e9 04       		.sleb128 4
 5061 11ea 01       		.uleb128 0x1
 5062 11eb 30       		.byte	0x30
 5063 11ec 21       		.uleb128 0x21
 5064 11ed 02       		.uleb128 0x2
ARM GAS  C:\Users\chemi\AppData\Local\Temp\ccvd4c4w.s 			page 109


 5065 11ee 7D       		.byte	0x7d
 5066 11ef 08       		.sleb128 8
 5067 11f0 01       		.uleb128 0x1
 5068 11f1 40       		.byte	0x40
 5069 11f2 21       		.uleb128 0x21
 5070 11f3 02       		.uleb128 0x2
 5071 11f4 7D       		.byte	0x7d
 5072 11f5 0C       		.sleb128 12
 5073 11f6 02       		.uleb128 0x2
 5074 11f7 79       		.byte	0x79
 5075 11f8 00       		.sleb128 0
 5076 11f9 21       		.uleb128 0x21
 5077 11fa 02       		.uleb128 0x2
 5078 11fb 7D       		.byte	0x7d
 5079 11fc 10       		.sleb128 16
 5080 11fd 01       		.uleb128 0x1
 5081 11fe 38       		.byte	0x38
 5082 11ff 21       		.uleb128 0x21
 5083 1200 02       		.uleb128 0x2
 5084 1201 7D       		.byte	0x7d
 5085 1202 14       		.sleb128 20
 5086 1203 02       		.uleb128 0x2
 5087 1204 74       		.byte	0x74
 5088 1205 00       		.sleb128 0
 5089 1206 00       		.byte	0
 5090 1207 00       		.byte	0
 5091 1208 37       		.uleb128 0x37
 5092 1209 E30A0000 		.4byte	0xae3
 5093 120d 5A070000 		.4byte	.LBB77
 5094 1211 1A000000 		.4byte	.LBE77-.LBB77
 5095 1215 01       		.byte	0x1
 5096 1216 E601     		.2byte	0x1e6
 5097 1218 35120000 		.4byte	0x1235
 5098 121c 38       		.uleb128 0x38
 5099 121d F30A0000 		.4byte	0xaf3
 5100 1221 39       		.uleb128 0x39
 5101 1222 5A070000 		.4byte	.LBB78
 5102 1226 1A000000 		.4byte	.LBE78-.LBB78
 5103 122a 3A       		.uleb128 0x3a
 5104 122b FE0A0000 		.4byte	0xafe
 5105 122f C5120000 		.4byte	.LLST74
 5106 1233 00       		.byte	0
 5107 1234 00       		.byte	0
 5108 1235 3F       		.uleb128 0x3f
 5109 1236 34000000 		.4byte	.LVL96
 5110 123a 02       		.uleb128 0x2
 5111 123b 75       		.byte	0x75
 5112 123c 00       		.sleb128 0
 5113 123d 58120000 		.4byte	0x1258
 5114 1241 21       		.uleb128 0x21
 5115 1242 01       		.uleb128 0x1
 5116 1243 51       		.byte	0x51
 5117 1244 04       		.uleb128 0x4
 5118 1245 91       		.byte	0x91
 5119 1246 987F     		.sleb128 -104
 5120 1248 06       		.byte	0x6
 5121 1249 21       		.uleb128 0x21
ARM GAS  C:\Users\chemi\AppData\Local\Temp\ccvd4c4w.s 			page 110


 5122 124a 01       		.uleb128 0x1
 5123 124b 52       		.byte	0x52
 5124 124c 02       		.uleb128 0x2
 5125 124d 74       		.byte	0x74
 5126 124e 7F       		.sleb128 -1
 5127 124f 21       		.uleb128 0x21
 5128 1250 01       		.uleb128 0x1
 5129 1251 53       		.byte	0x53
 5130 1252 04       		.uleb128 0x4
 5131 1253 91       		.byte	0x91
 5132 1254 907F     		.sleb128 -112
 5133 1256 06       		.byte	0x6
 5134 1257 00       		.byte	0
 5135 1258 3F       		.uleb128 0x3f
 5136 1259 8E000000 		.4byte	.LVL113
 5137 125d 02       		.uleb128 0x2
 5138 125e 75       		.byte	0x75
 5139 125f 00       		.sleb128 0
 5140 1260 7B120000 		.4byte	0x127b
 5141 1264 21       		.uleb128 0x21
 5142 1265 01       		.uleb128 0x1
 5143 1266 51       		.byte	0x51
 5144 1267 04       		.uleb128 0x4
 5145 1268 91       		.byte	0x91
 5146 1269 987F     		.sleb128 -104
 5147 126b 06       		.byte	0x6
 5148 126c 21       		.uleb128 0x21
 5149 126d 01       		.uleb128 0x1
 5150 126e 52       		.byte	0x52
 5151 126f 02       		.uleb128 0x2
 5152 1270 74       		.byte	0x74
 5153 1271 7F       		.sleb128 -1
 5154 1272 21       		.uleb128 0x21
 5155 1273 01       		.uleb128 0x1
 5156 1274 53       		.byte	0x53
 5157 1275 04       		.uleb128 0x4
 5158 1276 91       		.byte	0x91
 5159 1277 907F     		.sleb128 -112
 5160 1279 06       		.byte	0x6
 5161 127a 00       		.byte	0
 5162 127b 40       		.uleb128 0x40
 5163 127c AC000000 		.4byte	.LVL117
 5164 1280 02       		.uleb128 0x2
 5165 1281 74       		.byte	0x74
 5166 1282 00       		.sleb128 0
 5167 1283 21       		.uleb128 0x21
 5168 1284 01       		.uleb128 0x1
 5169 1285 50       		.byte	0x50
 5170 1286 01       		.uleb128 0x1
 5171 1287 30       		.byte	0x30
 5172 1288 21       		.uleb128 0x21
 5173 1289 01       		.uleb128 0x1
 5174 128a 51       		.byte	0x51
 5175 128b 04       		.uleb128 0x4
 5176 128c 91       		.byte	0x91
 5177 128d 987F     		.sleb128 -104
 5178 128f 06       		.byte	0x6
ARM GAS  C:\Users\chemi\AppData\Local\Temp\ccvd4c4w.s 			page 111


 5179 1290 21       		.uleb128 0x21
 5180 1291 01       		.uleb128 0x1
 5181 1292 53       		.byte	0x53
 5182 1293 04       		.uleb128 0x4
 5183 1294 91       		.byte	0x91
 5184 1295 907F     		.sleb128 -112
 5185 1297 06       		.byte	0x6
 5186 1298 00       		.byte	0
 5187 1299 00       		.byte	0
 5188 129a 09       		.uleb128 0x9
 5189 129b 89000000 		.4byte	0x89
 5190 129f 09       		.uleb128 0x9
 5191 12a0 7B000000 		.4byte	0x7b
 5192 12a4 09       		.uleb128 0x9
 5193 12a5 62000000 		.4byte	0x62
 5194 12a9 09       		.uleb128 0x9
 5195 12aa 9B000000 		.4byte	0x9b
 5196 12ae 09       		.uleb128 0x9
 5197 12af 63050000 		.4byte	0x563
 5198 12b3 44       		.uleb128 0x44
 5199 12b4 B8060000 		.4byte	.LASF120
 5200 12b8 01       		.byte	0x1
 5201 12b9 CF02     		.2byte	0x2cf
 5202 12bb 89000000 		.4byte	0x89
 5203 12bf 00000000 		.4byte	.LFB80
 5204 12c3 28000000 		.4byte	.LFE80-.LFB80
 5205 12c7 01       		.uleb128 0x1
 5206 12c8 9C       		.byte	0x9c
 5207 12c9 36130000 		.4byte	0x1336
 5208 12cd 29       		.uleb128 0x29
 5209 12ce 65050000 		.4byte	.LASF117
 5210 12d2 01       		.byte	0x1
 5211 12d3 CF02     		.2byte	0x2cf
 5212 12d5 35010000 		.4byte	0x135
 5213 12d9 02       		.uleb128 0x2
 5214 12da 91       		.byte	0x91
 5215 12db 70       		.sleb128 -16
 5216 12dc 0E       		.uleb128 0xe
 5217 12dd 2A       		.uleb128 0x2a
 5218 12de 766100   		.ascii	"va\000"
 5219 12e1 01       		.byte	0x1
 5220 12e2 D102     		.2byte	0x2d1
 5221 12e4 FD000000 		.4byte	0xfd
 5222 12e8 02       		.uleb128 0x2
 5223 12e9 91       		.byte	0x91
 5224 12ea 64       		.sleb128 -28
 5225 12eb 45       		.uleb128 0x45
 5226 12ec EC050000 		.4byte	.LASF89
 5227 12f0 01       		.byte	0x1
 5228 12f1 D302     		.2byte	0x2d3
 5229 12f3 36130000 		.4byte	0x1336
 5230 12f7 02       		.uleb128 0x2
 5231 12f8 91       		.byte	0x91
 5232 12f9 60       		.sleb128 -32
 5233 12fa 2A       		.uleb128 0x2a
 5234 12fb 72657400 		.ascii	"ret\000"
 5235 12ff 01       		.byte	0x1
ARM GAS  C:\Users\chemi\AppData\Local\Temp\ccvd4c4w.s 			page 112


 5236 1300 D402     		.2byte	0x2d4
 5237 1302 9A120000 		.4byte	0x129a
 5238 1306 01       		.uleb128 0x1
 5239 1307 50       		.byte	0x50
 5240 1308 25       		.uleb128 0x25
 5241 1309 1A000000 		.4byte	.LVL325
 5242 130d C10C0000 		.4byte	0xcc1
 5243 1311 21       		.uleb128 0x21
 5244 1312 01       		.uleb128 0x1
 5245 1313 50       		.byte	0x50
 5246 1314 05       		.uleb128 0x5
 5247 1315 03       		.byte	0x3
 5248 1316 00000000 		.4byte	_out_char
 5249 131a 21       		.uleb128 0x21
 5250 131b 01       		.uleb128 0x1
 5251 131c 51       		.byte	0x51
 5252 131d 02       		.uleb128 0x2
 5253 131e 91       		.byte	0x91
 5254 131f 40       		.sleb128 -64
 5255 1320 21       		.uleb128 0x21
 5256 1321 01       		.uleb128 0x1
 5257 1322 52       		.byte	0x52
 5258 1323 02       		.uleb128 0x2
 5259 1324 09       		.byte	0x9
 5260 1325 FF       		.byte	0xff
 5261 1326 21       		.uleb128 0x21
 5262 1327 01       		.uleb128 0x1
 5263 1328 53       		.byte	0x53
 5264 1329 03       		.uleb128 0x3
 5265 132a 91       		.byte	0x91
 5266 132b 50       		.sleb128 -48
 5267 132c 06       		.byte	0x6
 5268 132d 21       		.uleb128 0x21
 5269 132e 02       		.uleb128 0x2
 5270 132f 7D       		.byte	0x7d
 5271 1330 00       		.sleb128 0
 5272 1331 02       		.uleb128 0x2
 5273 1332 91       		.byte	0x91
 5274 1333 54       		.sleb128 -44
 5275 1334 00       		.byte	0
 5276 1335 00       		.byte	0
 5277 1336 10       		.uleb128 0x10
 5278 1337 21010000 		.4byte	0x121
 5279 133b 46130000 		.4byte	0x1346
 5280 133f 11       		.uleb128 0x11
 5281 1340 28010000 		.4byte	0x128
 5282 1344 00       		.byte	0
 5283 1345 00       		.byte	0
 5284 1346 44       		.uleb128 0x44
 5285 1347 D5010000 		.4byte	.LASF121
 5286 134b 01       		.byte	0x1
 5287 134c DA02     		.2byte	0x2da
 5288 134e 89000000 		.4byte	0x89
 5289 1352 00000000 		.4byte	.LFB81
 5290 1356 28000000 		.4byte	.LFE81-.LFB81
 5291 135a 01       		.uleb128 0x1
 5292 135b 9C       		.byte	0x9c
ARM GAS  C:\Users\chemi\AppData\Local\Temp\ccvd4c4w.s 			page 113


 5293 135c CB130000 		.4byte	0x13cb
 5294 1360 28       		.uleb128 0x28
 5295 1361 EC050000 		.4byte	.LASF89
 5296 1365 01       		.byte	0x1
 5297 1366 DA02     		.2byte	0x2da
 5298 1368 2F010000 		.4byte	0x12f
 5299 136c E5120000 		.4byte	.LLST75
 5300 1370 29       		.uleb128 0x29
 5301 1371 65050000 		.4byte	.LASF117
 5302 1375 01       		.byte	0x1
 5303 1376 DA02     		.2byte	0x2da
 5304 1378 35010000 		.4byte	0x135
 5305 137c 02       		.uleb128 0x2
 5306 137d 91       		.byte	0x91
 5307 137e 74       		.sleb128 -12
 5308 137f 0E       		.uleb128 0xe
 5309 1380 2A       		.uleb128 0x2a
 5310 1381 766100   		.ascii	"va\000"
 5311 1384 01       		.byte	0x1
 5312 1385 DC02     		.2byte	0x2dc
 5313 1387 FD000000 		.4byte	0xfd
 5314 138b 02       		.uleb128 0x2
 5315 138c 91       		.byte	0x91
 5316 138d 6C       		.sleb128 -20
 5317 138e 2A       		.uleb128 0x2a
 5318 138f 72657400 		.ascii	"ret\000"
 5319 1393 01       		.byte	0x1
 5320 1394 DE02     		.2byte	0x2de
 5321 1396 9A120000 		.4byte	0x129a
 5322 139a 01       		.uleb128 0x1
 5323 139b 50       		.byte	0x50
 5324 139c 25       		.uleb128 0x25
 5325 139d 1A000000 		.4byte	.LVL328
 5326 13a1 C10C0000 		.4byte	0xcc1
 5327 13a5 21       		.uleb128 0x21
 5328 13a6 01       		.uleb128 0x1
 5329 13a7 50       		.byte	0x50
 5330 13a8 05       		.uleb128 0x5
 5331 13a9 03       		.byte	0x3
 5332 13aa 00000000 		.4byte	_out_buffer
 5333 13ae 21       		.uleb128 0x21
 5334 13af 01       		.uleb128 0x1
 5335 13b0 51       		.byte	0x51
 5336 13b1 03       		.uleb128 0x3
 5337 13b2 F3       		.byte	0xf3
 5338 13b3 01       		.uleb128 0x1
 5339 13b4 50       		.byte	0x50
 5340 13b5 21       		.uleb128 0x21
 5341 13b6 01       		.uleb128 0x1
 5342 13b7 52       		.byte	0x52
 5343 13b8 02       		.uleb128 0x2
 5344 13b9 09       		.byte	0x9
 5345 13ba FF       		.byte	0xff
 5346 13bb 21       		.uleb128 0x21
 5347 13bc 01       		.uleb128 0x1
 5348 13bd 53       		.byte	0x53
 5349 13be 03       		.uleb128 0x3
ARM GAS  C:\Users\chemi\AppData\Local\Temp\ccvd4c4w.s 			page 114


 5350 13bf 91       		.byte	0x91
 5351 13c0 5C       		.sleb128 -36
 5352 13c1 06       		.byte	0x6
 5353 13c2 21       		.uleb128 0x21
 5354 13c3 02       		.uleb128 0x2
 5355 13c4 7D       		.byte	0x7d
 5356 13c5 00       		.sleb128 0
 5357 13c6 02       		.uleb128 0x2
 5358 13c7 91       		.byte	0x91
 5359 13c8 60       		.sleb128 -32
 5360 13c9 00       		.byte	0
 5361 13ca 00       		.byte	0
 5362 13cb 44       		.uleb128 0x44
 5363 13cc E2050000 		.4byte	.LASF122
 5364 13d0 01       		.byte	0x1
 5365 13d1 E402     		.2byte	0x2e4
 5366 13d3 89000000 		.4byte	0x89
 5367 13d7 00000000 		.4byte	.LFB82
 5368 13db 28000000 		.4byte	.LFE82-.LFB82
 5369 13df 01       		.uleb128 0x1
 5370 13e0 9C       		.byte	0x9c
 5371 13e1 61140000 		.4byte	0x1461
 5372 13e5 28       		.uleb128 0x28
 5373 13e6 EC050000 		.4byte	.LASF89
 5374 13ea 01       		.byte	0x1
 5375 13eb E402     		.2byte	0x2e4
 5376 13ed 2F010000 		.4byte	0x12f
 5377 13f1 11130000 		.4byte	.LLST76
 5378 13f5 28       		.uleb128 0x28
 5379 13f6 C5010000 		.4byte	.LASF113
 5380 13fa 01       		.byte	0x1
 5381 13fb E402     		.2byte	0x2e4
 5382 13fd 08010000 		.4byte	0x108
 5383 1401 3D130000 		.4byte	.LLST77
 5384 1405 29       		.uleb128 0x29
 5385 1406 65050000 		.4byte	.LASF117
 5386 140a 01       		.byte	0x1
 5387 140b E402     		.2byte	0x2e4
 5388 140d 35010000 		.4byte	0x135
 5389 1411 02       		.uleb128 0x2
 5390 1412 91       		.byte	0x91
 5391 1413 78       		.sleb128 -8
 5392 1414 0E       		.uleb128 0xe
 5393 1415 2A       		.uleb128 0x2a
 5394 1416 766100   		.ascii	"va\000"
 5395 1419 01       		.byte	0x1
 5396 141a E602     		.2byte	0x2e6
 5397 141c FD000000 		.4byte	0xfd
 5398 1420 02       		.uleb128 0x2
 5399 1421 91       		.byte	0x91
 5400 1422 6C       		.sleb128 -20
 5401 1423 2A       		.uleb128 0x2a
 5402 1424 72657400 		.ascii	"ret\000"
 5403 1428 01       		.byte	0x1
 5404 1429 E802     		.2byte	0x2e8
 5405 142b 9A120000 		.4byte	0x129a
 5406 142f 01       		.uleb128 0x1
ARM GAS  C:\Users\chemi\AppData\Local\Temp\ccvd4c4w.s 			page 115


 5407 1430 50       		.byte	0x50
 5408 1431 25       		.uleb128 0x25
 5409 1432 18000000 		.4byte	.LVL332
 5410 1436 C10C0000 		.4byte	0xcc1
 5411 143a 21       		.uleb128 0x21
 5412 143b 01       		.uleb128 0x1
 5413 143c 50       		.byte	0x50
 5414 143d 05       		.uleb128 0x5
 5415 143e 03       		.byte	0x3
 5416 143f 00000000 		.4byte	_out_buffer
 5417 1443 21       		.uleb128 0x21
 5418 1444 01       		.uleb128 0x1
 5419 1445 51       		.byte	0x51
 5420 1446 03       		.uleb128 0x3
 5421 1447 F3       		.byte	0xf3
 5422 1448 01       		.uleb128 0x1
 5423 1449 50       		.byte	0x50
 5424 144a 21       		.uleb128 0x21
 5425 144b 01       		.uleb128 0x1
 5426 144c 52       		.byte	0x52
 5427 144d 03       		.uleb128 0x3
 5428 144e F3       		.byte	0xf3
 5429 144f 01       		.uleb128 0x1
 5430 1450 51       		.byte	0x51
 5431 1451 21       		.uleb128 0x21
 5432 1452 01       		.uleb128 0x1
 5433 1453 53       		.byte	0x53
 5434 1454 03       		.uleb128 0x3
 5435 1455 91       		.byte	0x91
 5436 1456 68       		.sleb128 -24
 5437 1457 06       		.byte	0x6
 5438 1458 21       		.uleb128 0x21
 5439 1459 02       		.uleb128 0x2
 5440 145a 7D       		.byte	0x7d
 5441 145b 00       		.sleb128 0
 5442 145c 02       		.uleb128 0x2
 5443 145d 91       		.byte	0x91
 5444 145e 6C       		.sleb128 -20
 5445 145f 00       		.byte	0
 5446 1460 00       		.byte	0
 5447 1461 44       		.uleb128 0x44
 5448 1462 FF050000 		.4byte	.LASF123
 5449 1466 01       		.byte	0x1
 5450 1467 EE02     		.2byte	0x2ee
 5451 1469 89000000 		.4byte	0x89
 5452 146d 00000000 		.4byte	.LFB83
 5453 1471 1C000000 		.4byte	.LFE83-.LFB83
 5454 1475 01       		.uleb128 0x1
 5455 1476 9C       		.byte	0x9c
 5456 1477 E3140000 		.4byte	0x14e3
 5457 147b 28       		.uleb128 0x28
 5458 147c EC050000 		.4byte	.LASF89
 5459 1480 01       		.byte	0x1
 5460 1481 EE02     		.2byte	0x2ee
 5461 1483 2F010000 		.4byte	0x12f
 5462 1487 69130000 		.4byte	.LLST78
 5463 148b 28       		.uleb128 0x28
ARM GAS  C:\Users\chemi\AppData\Local\Temp\ccvd4c4w.s 			page 116


 5464 148c C5010000 		.4byte	.LASF113
 5465 1490 01       		.byte	0x1
 5466 1491 EE02     		.2byte	0x2ee
 5467 1493 08010000 		.4byte	0x108
 5468 1497 95130000 		.4byte	.LLST79
 5469 149b 28       		.uleb128 0x28
 5470 149c 65050000 		.4byte	.LASF117
 5471 14a0 01       		.byte	0x1
 5472 14a1 EE02     		.2byte	0x2ee
 5473 14a3 35010000 		.4byte	0x135
 5474 14a7 C1130000 		.4byte	.LLST80
 5475 14ab 27       		.uleb128 0x27
 5476 14ac 766100   		.ascii	"va\000"
 5477 14af 01       		.byte	0x1
 5478 14b0 EE02     		.2byte	0x2ee
 5479 14b2 FD000000 		.4byte	0xfd
 5480 14b6 ED130000 		.4byte	.LLST81
 5481 14ba 25       		.uleb128 0x25
 5482 14bb 10000000 		.4byte	.LVL338
 5483 14bf C10C0000 		.4byte	0xcc1
 5484 14c3 21       		.uleb128 0x21
 5485 14c4 01       		.uleb128 0x1
 5486 14c5 50       		.byte	0x50
 5487 14c6 05       		.uleb128 0x5
 5488 14c7 03       		.byte	0x3
 5489 14c8 00000000 		.4byte	_out_buffer
 5490 14cc 21       		.uleb128 0x21
 5491 14cd 01       		.uleb128 0x1
 5492 14ce 51       		.byte	0x51
 5493 14cf 03       		.uleb128 0x3
 5494 14d0 F3       		.byte	0xf3
 5495 14d1 01       		.uleb128 0x1
 5496 14d2 50       		.byte	0x50
 5497 14d3 21       		.uleb128 0x21
 5498 14d4 01       		.uleb128 0x1
 5499 14d5 52       		.byte	0x52
 5500 14d6 03       		.uleb128 0x3
 5501 14d7 F3       		.byte	0xf3
 5502 14d8 01       		.uleb128 0x1
 5503 14d9 51       		.byte	0x51
 5504 14da 21       		.uleb128 0x21
 5505 14db 01       		.uleb128 0x1
 5506 14dc 53       		.byte	0x53
 5507 14dd 03       		.uleb128 0x3
 5508 14de F3       		.byte	0xf3
 5509 14df 01       		.uleb128 0x1
 5510 14e0 52       		.byte	0x52
 5511 14e1 00       		.byte	0
 5512 14e2 00       		.byte	0
 5513 14e3 44       		.uleb128 0x44
 5514 14e4 47060000 		.4byte	.LASF124
 5515 14e8 01       		.byte	0x1
 5516 14e9 F402     		.2byte	0x2f4
 5517 14eb 89000000 		.4byte	0x89
 5518 14ef 00000000 		.4byte	.LFB84
 5519 14f3 2C000000 		.4byte	.LFE84-.LFB84
 5520 14f7 01       		.uleb128 0x1
ARM GAS  C:\Users\chemi\AppData\Local\Temp\ccvd4c4w.s 			page 117


 5521 14f8 9C       		.byte	0x9c
 5522 14f9 86150000 		.4byte	0x1586
 5523 14fd 27       		.uleb128 0x27
 5524 14fe 6F757400 		.ascii	"out\000"
 5525 1502 01       		.byte	0x1
 5526 1503 F402     		.2byte	0x2f4
 5527 1505 37050000 		.4byte	0x537
 5528 1509 00140000 		.4byte	.LLST82
 5529 150d 27       		.uleb128 0x27
 5530 150e 61726700 		.ascii	"arg\000"
 5531 1512 01       		.byte	0x1
 5532 1513 F402     		.2byte	0x2f4
 5533 1515 FB000000 		.4byte	0xfb
 5534 1519 2D140000 		.4byte	.LLST83
 5535 151d 29       		.uleb128 0x29
 5536 151e 65050000 		.4byte	.LASF117
 5537 1522 01       		.byte	0x1
 5538 1523 F402     		.2byte	0x2f4
 5539 1525 35010000 		.4byte	0x135
 5540 1529 02       		.uleb128 0x2
 5541 152a 91       		.byte	0x91
 5542 152b 78       		.sleb128 -8
 5543 152c 0E       		.uleb128 0xe
 5544 152d 2A       		.uleb128 0x2a
 5545 152e 766100   		.ascii	"va\000"
 5546 1531 01       		.byte	0x1
 5547 1532 F602     		.2byte	0x2f6
 5548 1534 FD000000 		.4byte	0xfd
 5549 1538 02       		.uleb128 0x2
 5550 1539 91       		.byte	0x91
 5551 153a 64       		.sleb128 -28
 5552 153b 45       		.uleb128 0x45
 5553 153c 5B040000 		.4byte	.LASF125
 5554 1540 01       		.byte	0x1
 5555 1541 F802     		.2byte	0x2f8
 5556 1543 86150000 		.4byte	0x1586
 5557 1547 02       		.uleb128 0x2
 5558 1548 91       		.byte	0x91
 5559 1549 68       		.sleb128 -24
 5560 154a 2A       		.uleb128 0x2a
 5561 154b 72657400 		.ascii	"ret\000"
 5562 154f 01       		.byte	0x1
 5563 1550 F902     		.2byte	0x2f9
 5564 1552 9A120000 		.4byte	0x129a
 5565 1556 01       		.uleb128 0x1
 5566 1557 50       		.byte	0x50
 5567 1558 25       		.uleb128 0x25
 5568 1559 1E000000 		.4byte	.LVL342
 5569 155d C10C0000 		.4byte	0xcc1
 5570 1561 21       		.uleb128 0x21
 5571 1562 01       		.uleb128 0x1
 5572 1563 50       		.byte	0x50
 5573 1564 05       		.uleb128 0x5
 5574 1565 03       		.byte	0x3
 5575 1566 00000000 		.4byte	_out_fct
 5576 156a 21       		.uleb128 0x21
 5577 156b 01       		.uleb128 0x1
ARM GAS  C:\Users\chemi\AppData\Local\Temp\ccvd4c4w.s 			page 118


 5578 156c 51       		.byte	0x51
 5579 156d 02       		.uleb128 0x2
 5580 156e 91       		.byte	0x91
 5581 156f 58       		.sleb128 -40
 5582 1570 21       		.uleb128 0x21
 5583 1571 01       		.uleb128 0x1
 5584 1572 52       		.byte	0x52
 5585 1573 02       		.uleb128 0x2
 5586 1574 09       		.byte	0x9
 5587 1575 FF       		.byte	0xff
 5588 1576 21       		.uleb128 0x21
 5589 1577 01       		.uleb128 0x1
 5590 1578 53       		.byte	0x53
 5591 1579 03       		.uleb128 0x3
 5592 157a 91       		.byte	0x91
 5593 157b 68       		.sleb128 -24
 5594 157c 06       		.byte	0x6
 5595 157d 21       		.uleb128 0x21
 5596 157e 02       		.uleb128 0x2
 5597 157f 7D       		.byte	0x7d
 5598 1580 00       		.sleb128 0
 5599 1581 02       		.uleb128 0x2
 5600 1582 91       		.byte	0x91
 5601 1583 6C       		.sleb128 -20
 5602 1584 00       		.byte	0
 5603 1585 00       		.byte	0
 5604 1586 09       		.uleb128 0x9
 5605 1587 3D050000 		.4byte	0x53d
 5606 158b 44       		.uleb128 0x44
 5607 158c C6020000 		.4byte	.LASF126
 5608 1590 01       		.byte	0x1
 5609 1591 0303     		.2byte	0x303
 5610 1593 C3000000 		.4byte	0xc3
 5611 1597 00000000 		.4byte	.LFB86
 5612 159b 3E000000 		.4byte	.LFE86-.LFB86
 5613 159f 01       		.uleb128 0x1
 5614 15a0 9C       		.byte	0x9c
 5615 15a1 41160000 		.4byte	0x1641
 5616 15a5 28       		.uleb128 0x28
 5617 15a6 8B020000 		.4byte	.LASF38
 5618 15aa 01       		.byte	0x1
 5619 15ab 0303     		.2byte	0x303
 5620 15ad FB000000 		.4byte	0xfb
 5621 15b1 5A140000 		.4byte	.LLST84
 5622 15b5 28       		.uleb128 0x28
 5623 15b6 EC050000 		.4byte	.LASF89
 5624 15ba 01       		.byte	0x1
 5625 15bb 0303     		.2byte	0x303
 5626 15bd 4B010000 		.4byte	0x14b
 5627 15c1 78140000 		.4byte	.LLST85
 5628 15c5 27       		.uleb128 0x27
 5629 15c6 6C656E00 		.ascii	"len\000"
 5630 15ca 01       		.byte	0x1
 5631 15cb 0303     		.2byte	0x303
 5632 15cd C3000000 		.4byte	0xc3
 5633 15d1 96140000 		.4byte	.LLST86
 5634 15d5 39       		.uleb128 0x39
ARM GAS  C:\Users\chemi\AppData\Local\Temp\ccvd4c4w.s 			page 119


 5635 15d6 0E000000 		.4byte	.LBB79
 5636 15da 28000000 		.4byte	.LBE79-.LBB79
 5637 15de 24       		.uleb128 0x24
 5638 15df 5C030000 		.4byte	.LASF127
 5639 15e3 01       		.byte	0x1
 5640 15e4 0603     		.2byte	0x306
 5641 15e6 AD000000 		.4byte	0xad
 5642 15ea B4140000 		.4byte	.LLST87
 5643 15ee 24       		.uleb128 0x24
 5644 15ef E6020000 		.4byte	.LASF128
 5645 15f3 01       		.byte	0x1
 5646 15f4 0703     		.2byte	0x307
 5647 15f6 AD000000 		.4byte	0xad
 5648 15fa C7140000 		.4byte	.LLST88
 5649 15fe 24       		.uleb128 0x24
 5650 15ff C5010000 		.4byte	.LASF113
 5651 1603 01       		.byte	0x1
 5652 1604 0903     		.2byte	0x309
 5653 1606 AD000000 		.4byte	0xad
 5654 160a E5140000 		.4byte	.LLST89
 5655 160e 46       		.uleb128 0x46
 5656 160f 14000000 		.4byte	.LVL346
 5657 1613 CD170000 		.4byte	0x17cd
 5658 1617 3C       		.uleb128 0x3c
 5659 1618 28000000 		.4byte	.LVL349
 5660 161c C1170000 		.4byte	0x17c1
 5661 1620 30160000 		.4byte	0x1630
 5662 1624 21       		.uleb128 0x21
 5663 1625 01       		.uleb128 0x1
 5664 1626 51       		.byte	0x51
 5665 1627 02       		.uleb128 0x2
 5666 1628 76       		.byte	0x76
 5667 1629 00       		.sleb128 0
 5668 162a 21       		.uleb128 0x21
 5669 162b 01       		.uleb128 0x1
 5670 162c 53       		.byte	0x53
 5671 162d 01       		.uleb128 0x1
 5672 162e 30       		.byte	0x30
 5673 162f 00       		.byte	0
 5674 1630 25       		.uleb128 0x25
 5675 1631 36000000 		.4byte	.LVL353
 5676 1635 D9170000 		.4byte	0x17d9
 5677 1639 21       		.uleb128 0x21
 5678 163a 01       		.uleb128 0x1
 5679 163b 50       		.byte	0x50
 5680 163c 01       		.uleb128 0x1
 5681 163d 32       		.byte	0x32
 5682 163e 00       		.byte	0
 5683 163f 00       		.byte	0
 5684 1640 00       		.byte	0
 5685 1641 44       		.uleb128 0x44
 5686 1642 05040000 		.4byte	.LASF129
 5687 1646 01       		.byte	0x1
 5688 1647 1203     		.2byte	0x312
 5689 1649 C3000000 		.4byte	0xc3
 5690 164d 00000000 		.4byte	.LFB87
 5691 1651 4C000000 		.4byte	.LFE87-.LFB87
ARM GAS  C:\Users\chemi\AppData\Local\Temp\ccvd4c4w.s 			page 120


 5692 1655 01       		.uleb128 0x1
 5693 1656 9C       		.byte	0x9c
 5694 1657 08170000 		.4byte	0x1708
 5695 165b 28       		.uleb128 0x28
 5696 165c 8B020000 		.4byte	.LASF38
 5697 1660 01       		.byte	0x1
 5698 1661 1203     		.2byte	0x312
 5699 1663 FB000000 		.4byte	0xfb
 5700 1667 F8140000 		.4byte	.LLST90
 5701 166b 29       		.uleb128 0x29
 5702 166c 65050000 		.4byte	.LASF117
 5703 1670 01       		.byte	0x1
 5704 1671 1203     		.2byte	0x312
 5705 1673 2F010000 		.4byte	0x12f
 5706 1677 02       		.uleb128 0x2
 5707 1678 91       		.byte	0x91
 5708 1679 74       		.sleb128 -12
 5709 167a 0E       		.uleb128 0xe
 5710 167b 2A       		.uleb128 0x2a
 5711 167c 766100   		.ascii	"va\000"
 5712 167f 01       		.byte	0x1
 5713 1680 1303     		.2byte	0x313
 5714 1682 FD000000 		.4byte	0xfd
 5715 1686 02       		.uleb128 0x2
 5716 1687 91       		.byte	0x91
 5717 1688 5C       		.sleb128 -36
 5718 1689 1E       		.uleb128 0x1e
 5719 168a 14000000 		.4byte	.LBB80
 5720 168e 08000000 		.4byte	.LBE80-.LBB80
 5721 1692 C8160000 		.4byte	0x16c8
 5722 1696 24       		.uleb128 0x24
 5723 1697 EC050000 		.4byte	.LASF89
 5724 169b 01       		.byte	0x1
 5725 169c 1603     		.2byte	0x316
 5726 169e 4B010000 		.4byte	0x14b
 5727 16a2 49150000 		.4byte	.LLST91
 5728 16a6 23       		.uleb128 0x23
 5729 16a7 6C656E00 		.ascii	"len\000"
 5730 16ab 01       		.byte	0x1
 5731 16ac 1703     		.2byte	0x317
 5732 16ae C3000000 		.4byte	0xc3
 5733 16b2 5D150000 		.4byte	.LLST92
 5734 16b6 25       		.uleb128 0x25
 5735 16b7 1C000000 		.4byte	.LVL357
 5736 16bb 8B150000 		.4byte	0x158b
 5737 16bf 21       		.uleb128 0x21
 5738 16c0 01       		.uleb128 0x1
 5739 16c1 50       		.byte	0x50
 5740 16c2 03       		.uleb128 0x3
 5741 16c3 F3       		.byte	0xf3
 5742 16c4 01       		.uleb128 0x1
 5743 16c5 50       		.byte	0x50
 5744 16c6 00       		.byte	0
 5745 16c7 00       		.byte	0
 5746 16c8 39       		.uleb128 0x39
 5747 16c9 22000000 		.4byte	.LBB81
 5748 16cd 14000000 		.4byte	.LBE81-.LBB81
ARM GAS  C:\Users\chemi\AppData\Local\Temp\ccvd4c4w.s 			page 121


 5749 16d1 45       		.uleb128 0x45
 5750 16d2 5B040000 		.4byte	.LASF125
 5751 16d6 01       		.byte	0x1
 5752 16d7 1B03     		.2byte	0x31b
 5753 16d9 86150000 		.4byte	0x1586
 5754 16dd 02       		.uleb128 0x2
 5755 16de 91       		.byte	0x91
 5756 16df 60       		.sleb128 -32
 5757 16e0 25       		.uleb128 0x25
 5758 16e1 36000000 		.4byte	.LVL361
 5759 16e5 C10C0000 		.4byte	0xcc1
 5760 16e9 21       		.uleb128 0x21
 5761 16ea 01       		.uleb128 0x1
 5762 16eb 50       		.byte	0x50
 5763 16ec 05       		.uleb128 0x5
 5764 16ed 03       		.byte	0x3
 5765 16ee 00000000 		.4byte	_out_fct
 5766 16f2 21       		.uleb128 0x21
 5767 16f3 01       		.uleb128 0x1
 5768 16f4 51       		.byte	0x51
 5769 16f5 02       		.uleb128 0x2
 5770 16f6 91       		.byte	0x91
 5771 16f7 48       		.sleb128 -56
 5772 16f8 21       		.uleb128 0x21
 5773 16f9 01       		.uleb128 0x1
 5774 16fa 52       		.byte	0x52
 5775 16fb 02       		.uleb128 0x2
 5776 16fc 09       		.byte	0x9
 5777 16fd FF       		.byte	0xff
 5778 16fe 21       		.uleb128 0x21
 5779 16ff 02       		.uleb128 0x2
 5780 1700 7D       		.byte	0x7d
 5781 1701 00       		.sleb128 0
 5782 1702 02       		.uleb128 0x2
 5783 1703 91       		.byte	0x91
 5784 1704 60       		.sleb128 -32
 5785 1705 00       		.byte	0
 5786 1706 00       		.byte	0
 5787 1707 00       		.byte	0
 5788 1708 2C       		.uleb128 0x2c
 5789 1709 12000000 		.4byte	.LASF131
 5790 170d 01       		.byte	0x1
 5791 170e 2303     		.2byte	0x323
 5792 1710 00000000 		.4byte	.LFB88
 5793 1714 40000000 		.4byte	.LFE88-.LFB88
 5794 1718 01       		.uleb128 0x1
 5795 1719 9C       		.byte	0x9c
 5796 171a 94170000 		.4byte	0x1794
 5797 171e 36       		.uleb128 0x36
 5798 171f 666D7400 		.ascii	"fmt\000"
 5799 1723 01       		.byte	0x1
 5800 1724 2303     		.2byte	0x323
 5801 1726 35010000 		.4byte	0x135
 5802 172a 02       		.uleb128 0x2
 5803 172b 91       		.byte	0x91
 5804 172c 70       		.sleb128 -16
 5805 172d 0E       		.uleb128 0xe
ARM GAS  C:\Users\chemi\AppData\Local\Temp\ccvd4c4w.s 			page 122


 5806 172e 24       		.uleb128 0x24
 5807 172f 8B020000 		.4byte	.LASF38
 5808 1733 01       		.byte	0x1
 5809 1734 2503     		.2byte	0x325
 5810 1736 94170000 		.4byte	0x1794
 5811 173a 7C150000 		.4byte	.LLST93
 5812 173e 45       		.uleb128 0x45
 5813 173f 29070000 		.4byte	.LASF75
 5814 1743 01       		.byte	0x1
 5815 1744 2603     		.2byte	0x326
 5816 1746 FD000000 		.4byte	0xfd
 5817 174a 02       		.uleb128 0x2
 5818 174b 91       		.byte	0x91
 5819 174c 5C       		.sleb128 -36
 5820 174d 39       		.uleb128 0x39
 5821 174e 14000000 		.4byte	.LBB82
 5822 1752 16000000 		.4byte	.LBE82-.LBB82
 5823 1756 45       		.uleb128 0x45
 5824 1757 5B040000 		.4byte	.LASF125
 5825 175b 01       		.byte	0x1
 5826 175c 2903     		.2byte	0x329
 5827 175e 86150000 		.4byte	0x1586
 5828 1762 02       		.uleb128 0x2
 5829 1763 91       		.byte	0x91
 5830 1764 60       		.sleb128 -32
 5831 1765 25       		.uleb128 0x25
 5832 1766 2A000000 		.4byte	.LVL365
 5833 176a C10C0000 		.4byte	0xcc1
 5834 176e 21       		.uleb128 0x21
 5835 176f 01       		.uleb128 0x1
 5836 1770 50       		.byte	0x50
 5837 1771 05       		.uleb128 0x5
 5838 1772 03       		.byte	0x3
 5839 1773 00000000 		.4byte	_out_fct
 5840 1777 21       		.uleb128 0x21
 5841 1778 01       		.uleb128 0x1
 5842 1779 51       		.byte	0x51
 5843 177a 02       		.uleb128 0x2
 5844 177b 91       		.byte	0x91
 5845 177c 40       		.sleb128 -64
 5846 177d 21       		.uleb128 0x21
 5847 177e 01       		.uleb128 0x1
 5848 177f 52       		.byte	0x52
 5849 1780 02       		.uleb128 0x2
 5850 1781 09       		.byte	0x9
 5851 1782 FF       		.byte	0xff
 5852 1783 21       		.uleb128 0x21
 5853 1784 01       		.uleb128 0x1
 5854 1785 53       		.byte	0x53
 5855 1786 03       		.uleb128 0x3
 5856 1787 91       		.byte	0x91
 5857 1788 50       		.sleb128 -48
 5858 1789 06       		.byte	0x6
 5859 178a 21       		.uleb128 0x21
 5860 178b 02       		.uleb128 0x2
 5861 178c 7D       		.byte	0x7d
 5862 178d 00       		.sleb128 0
ARM GAS  C:\Users\chemi\AppData\Local\Temp\ccvd4c4w.s 			page 123


 5863 178e 02       		.uleb128 0x2
 5864 178f 91       		.byte	0x91
 5865 1790 54       		.sleb128 -44
 5866 1791 00       		.byte	0
 5867 1792 00       		.byte	0
 5868 1793 00       		.byte	0
 5869 1794 08       		.uleb128 0x8
 5870 1795 04       		.byte	0x4
 5871 1796 65040000 		.4byte	0x465
 5872 179a 47       		.uleb128 0x47
 5873 179b C9000000 		.4byte	.LASF132
 5874 179f 0E       		.byte	0xe
 5875 17a0 1207     		.2byte	0x712
 5876 17a2 A6170000 		.4byte	0x17a6
 5877 17a6 48       		.uleb128 0x48
 5878 17a7 B8000000 		.4byte	0xb8
 5879 17ab 49       		.uleb128 0x49
 5880 17ac 86040000 		.4byte	.LASF133
 5881 17b0 0F       		.byte	0xf
 5882 17b1 1F       		.byte	0x1f
 5883 17b2 3C030000 		.4byte	0x33c
 5884 17b6 4A       		.uleb128 0x4a
 5885 17b7 51000000 		.4byte	.LASF134
 5886 17bb 51000000 		.4byte	.LASF134
 5887 17bf 10       		.byte	0x10
 5888 17c0 32       		.byte	0x32
 5889 17c1 4B       		.uleb128 0x4b
 5890 17c2 91040000 		.4byte	.LASF135
 5891 17c6 91040000 		.4byte	.LASF135
 5892 17ca 0A       		.byte	0xa
 5893 17cb 3A01     		.2byte	0x13a
 5894 17cd 4B       		.uleb128 0x4b
 5895 17ce 02070000 		.4byte	.LASF136
 5896 17d2 02070000 		.4byte	.LASF136
 5897 17d6 0A       		.byte	0xa
 5898 17d7 BB02     		.2byte	0x2bb
 5899 17d9 4B       		.uleb128 0x4b
 5900 17da 49070000 		.4byte	.LASF137
 5901 17de 49070000 		.4byte	.LASF137
 5902 17e2 07       		.byte	0x7
 5903 17e3 0C03     		.2byte	0x30c
 5904 17e5 00       		.byte	0
 5905              		.section	.debug_abbrev,"",%progbits
 5906              	.Ldebug_abbrev0:
 5907 0000 01       		.uleb128 0x1
 5908 0001 11       		.uleb128 0x11
 5909 0002 01       		.byte	0x1
 5910 0003 25       		.uleb128 0x25
 5911 0004 0E       		.uleb128 0xe
 5912 0005 13       		.uleb128 0x13
 5913 0006 0B       		.uleb128 0xb
 5914 0007 03       		.uleb128 0x3
 5915 0008 0E       		.uleb128 0xe
 5916 0009 1B       		.uleb128 0x1b
 5917 000a 0E       		.uleb128 0xe
 5918 000b 55       		.uleb128 0x55
 5919 000c 17       		.uleb128 0x17
ARM GAS  C:\Users\chemi\AppData\Local\Temp\ccvd4c4w.s 			page 124


 5920 000d 11       		.uleb128 0x11
 5921 000e 01       		.uleb128 0x1
 5922 000f 10       		.uleb128 0x10
 5923 0010 17       		.uleb128 0x17
 5924 0011 00       		.byte	0
 5925 0012 00       		.byte	0
 5926 0013 02       		.uleb128 0x2
 5927 0014 24       		.uleb128 0x24
 5928 0015 00       		.byte	0
 5929 0016 0B       		.uleb128 0xb
 5930 0017 0B       		.uleb128 0xb
 5931 0018 3E       		.uleb128 0x3e
 5932 0019 0B       		.uleb128 0xb
 5933 001a 03       		.uleb128 0x3
 5934 001b 0E       		.uleb128 0xe
 5935 001c 00       		.byte	0
 5936 001d 00       		.byte	0
 5937 001e 03       		.uleb128 0x3
 5938 001f 16       		.uleb128 0x16
 5939 0020 00       		.byte	0
 5940 0021 03       		.uleb128 0x3
 5941 0022 0E       		.uleb128 0xe
 5942 0023 3A       		.uleb128 0x3a
 5943 0024 0B       		.uleb128 0xb
 5944 0025 3B       		.uleb128 0x3b
 5945 0026 0B       		.uleb128 0xb
 5946 0027 49       		.uleb128 0x49
 5947 0028 13       		.uleb128 0x13
 5948 0029 00       		.byte	0
 5949 002a 00       		.byte	0
 5950 002b 04       		.uleb128 0x4
 5951 002c 24       		.uleb128 0x24
 5952 002d 00       		.byte	0
 5953 002e 0B       		.uleb128 0xb
 5954 002f 0B       		.uleb128 0xb
 5955 0030 3E       		.uleb128 0x3e
 5956 0031 0B       		.uleb128 0xb
 5957 0032 03       		.uleb128 0x3
 5958 0033 08       		.uleb128 0x8
 5959 0034 00       		.byte	0
 5960 0035 00       		.byte	0
 5961 0036 05       		.uleb128 0x5
 5962 0037 13       		.uleb128 0x13
 5963 0038 01       		.byte	0x1
 5964 0039 03       		.uleb128 0x3
 5965 003a 0E       		.uleb128 0xe
 5966 003b 0B       		.uleb128 0xb
 5967 003c 0B       		.uleb128 0xb
 5968 003d 3A       		.uleb128 0x3a
 5969 003e 0B       		.uleb128 0xb
 5970 003f 3B       		.uleb128 0x3b
 5971 0040 0B       		.uleb128 0xb
 5972 0041 01       		.uleb128 0x1
 5973 0042 13       		.uleb128 0x13
 5974 0043 00       		.byte	0
 5975 0044 00       		.byte	0
 5976 0045 06       		.uleb128 0x6
ARM GAS  C:\Users\chemi\AppData\Local\Temp\ccvd4c4w.s 			page 125


 5977 0046 0D       		.uleb128 0xd
 5978 0047 00       		.byte	0
 5979 0048 03       		.uleb128 0x3
 5980 0049 0E       		.uleb128 0xe
 5981 004a 49       		.uleb128 0x49
 5982 004b 13       		.uleb128 0x13
 5983 004c 38       		.uleb128 0x38
 5984 004d 0B       		.uleb128 0xb
 5985 004e 34       		.uleb128 0x34
 5986 004f 19       		.uleb128 0x19
 5987 0050 00       		.byte	0
 5988 0051 00       		.byte	0
 5989 0052 07       		.uleb128 0x7
 5990 0053 0F       		.uleb128 0xf
 5991 0054 00       		.byte	0
 5992 0055 0B       		.uleb128 0xb
 5993 0056 0B       		.uleb128 0xb
 5994 0057 00       		.byte	0
 5995 0058 00       		.byte	0
 5996 0059 08       		.uleb128 0x8
 5997 005a 0F       		.uleb128 0xf
 5998 005b 00       		.byte	0
 5999 005c 0B       		.uleb128 0xb
 6000 005d 0B       		.uleb128 0xb
 6001 005e 49       		.uleb128 0x49
 6002 005f 13       		.uleb128 0x13
 6003 0060 00       		.byte	0
 6004 0061 00       		.byte	0
 6005 0062 09       		.uleb128 0x9
 6006 0063 26       		.uleb128 0x26
 6007 0064 00       		.byte	0
 6008 0065 49       		.uleb128 0x49
 6009 0066 13       		.uleb128 0x13
 6010 0067 00       		.byte	0
 6011 0068 00       		.byte	0
 6012 0069 0A       		.uleb128 0xa
 6013 006a 13       		.uleb128 0x13
 6014 006b 00       		.byte	0
 6015 006c 03       		.uleb128 0x3
 6016 006d 0E       		.uleb128 0xe
 6017 006e 3C       		.uleb128 0x3c
 6018 006f 19       		.uleb128 0x19
 6019 0070 00       		.byte	0
 6020 0071 00       		.byte	0
 6021 0072 0B       		.uleb128 0xb
 6022 0073 0D       		.uleb128 0xd
 6023 0074 00       		.byte	0
 6024 0075 03       		.uleb128 0x3
 6025 0076 0E       		.uleb128 0xe
 6026 0077 3A       		.uleb128 0x3a
 6027 0078 0B       		.uleb128 0xb
 6028 0079 3B       		.uleb128 0x3b
 6029 007a 0B       		.uleb128 0xb
 6030 007b 49       		.uleb128 0x49
 6031 007c 13       		.uleb128 0x13
 6032 007d 38       		.uleb128 0x38
 6033 007e 0B       		.uleb128 0xb
ARM GAS  C:\Users\chemi\AppData\Local\Temp\ccvd4c4w.s 			page 126


 6034 007f 00       		.byte	0
 6035 0080 00       		.byte	0
 6036 0081 0C       		.uleb128 0xc
 6037 0082 15       		.uleb128 0x15
 6038 0083 01       		.byte	0x1
 6039 0084 27       		.uleb128 0x27
 6040 0085 19       		.uleb128 0x19
 6041 0086 49       		.uleb128 0x49
 6042 0087 13       		.uleb128 0x13
 6043 0088 01       		.uleb128 0x1
 6044 0089 13       		.uleb128 0x13
 6045 008a 00       		.byte	0
 6046 008b 00       		.byte	0
 6047 008c 0D       		.uleb128 0xd
 6048 008d 05       		.uleb128 0x5
 6049 008e 00       		.byte	0
 6050 008f 49       		.uleb128 0x49
 6051 0090 13       		.uleb128 0x13
 6052 0091 00       		.byte	0
 6053 0092 00       		.byte	0
 6054 0093 0E       		.uleb128 0xe
 6055 0094 18       		.uleb128 0x18
 6056 0095 00       		.byte	0
 6057 0096 00       		.byte	0
 6058 0097 00       		.byte	0
 6059 0098 0F       		.uleb128 0xf
 6060 0099 13       		.uleb128 0x13
 6061 009a 01       		.byte	0x1
 6062 009b 0B       		.uleb128 0xb
 6063 009c 0B       		.uleb128 0xb
 6064 009d 3A       		.uleb128 0x3a
 6065 009e 0B       		.uleb128 0xb
 6066 009f 3B       		.uleb128 0x3b
 6067 00a0 0B       		.uleb128 0xb
 6068 00a1 01       		.uleb128 0x1
 6069 00a2 13       		.uleb128 0x13
 6070 00a3 00       		.byte	0
 6071 00a4 00       		.byte	0
 6072 00a5 10       		.uleb128 0x10
 6073 00a6 01       		.uleb128 0x1
 6074 00a7 01       		.byte	0x1
 6075 00a8 49       		.uleb128 0x49
 6076 00a9 13       		.uleb128 0x13
 6077 00aa 01       		.uleb128 0x1
 6078 00ab 13       		.uleb128 0x13
 6079 00ac 00       		.byte	0
 6080 00ad 00       		.byte	0
 6081 00ae 11       		.uleb128 0x11
 6082 00af 21       		.uleb128 0x21
 6083 00b0 00       		.byte	0
 6084 00b1 49       		.uleb128 0x49
 6085 00b2 13       		.uleb128 0x13
 6086 00b3 2F       		.uleb128 0x2f
 6087 00b4 0B       		.uleb128 0xb
 6088 00b5 00       		.byte	0
 6089 00b6 00       		.byte	0
 6090 00b7 12       		.uleb128 0x12
ARM GAS  C:\Users\chemi\AppData\Local\Temp\ccvd4c4w.s 			page 127


 6091 00b8 0D       		.uleb128 0xd
 6092 00b9 00       		.byte	0
 6093 00ba 03       		.uleb128 0x3
 6094 00bb 08       		.uleb128 0x8
 6095 00bc 3A       		.uleb128 0x3a
 6096 00bd 0B       		.uleb128 0xb
 6097 00be 3B       		.uleb128 0x3b
 6098 00bf 0B       		.uleb128 0xb
 6099 00c0 49       		.uleb128 0x49
 6100 00c1 13       		.uleb128 0x13
 6101 00c2 38       		.uleb128 0x38
 6102 00c3 0B       		.uleb128 0xb
 6103 00c4 00       		.byte	0
 6104 00c5 00       		.byte	0
 6105 00c6 13       		.uleb128 0x13
 6106 00c7 15       		.uleb128 0x15
 6107 00c8 01       		.byte	0x1
 6108 00c9 27       		.uleb128 0x27
 6109 00ca 19       		.uleb128 0x19
 6110 00cb 01       		.uleb128 0x1
 6111 00cc 13       		.uleb128 0x13
 6112 00cd 00       		.byte	0
 6113 00ce 00       		.byte	0
 6114 00cf 14       		.uleb128 0x14
 6115 00d0 2E       		.uleb128 0x2e
 6116 00d1 01       		.byte	0x1
 6117 00d2 03       		.uleb128 0x3
 6118 00d3 0E       		.uleb128 0xe
 6119 00d4 3A       		.uleb128 0x3a
 6120 00d5 0B       		.uleb128 0xb
 6121 00d6 3B       		.uleb128 0x3b
 6122 00d7 0B       		.uleb128 0xb
 6123 00d8 27       		.uleb128 0x27
 6124 00d9 19       		.uleb128 0x19
 6125 00da 49       		.uleb128 0x49
 6126 00db 13       		.uleb128 0x13
 6127 00dc 20       		.uleb128 0x20
 6128 00dd 0B       		.uleb128 0xb
 6129 00de 01       		.uleb128 0x1
 6130 00df 13       		.uleb128 0x13
 6131 00e0 00       		.byte	0
 6132 00e1 00       		.byte	0
 6133 00e2 15       		.uleb128 0x15
 6134 00e3 05       		.uleb128 0x5
 6135 00e4 00       		.byte	0
 6136 00e5 03       		.uleb128 0x3
 6137 00e6 08       		.uleb128 0x8
 6138 00e7 3A       		.uleb128 0x3a
 6139 00e8 0B       		.uleb128 0xb
 6140 00e9 3B       		.uleb128 0x3b
 6141 00ea 0B       		.uleb128 0xb
 6142 00eb 49       		.uleb128 0x49
 6143 00ec 13       		.uleb128 0x13
 6144 00ed 00       		.byte	0
 6145 00ee 00       		.byte	0
 6146 00ef 16       		.uleb128 0x16
 6147 00f0 2E       		.uleb128 0x2e
ARM GAS  C:\Users\chemi\AppData\Local\Temp\ccvd4c4w.s 			page 128


 6148 00f1 01       		.byte	0x1
 6149 00f2 03       		.uleb128 0x3
 6150 00f3 0E       		.uleb128 0xe
 6151 00f4 3A       		.uleb128 0x3a
 6152 00f5 0B       		.uleb128 0xb
 6153 00f6 3B       		.uleb128 0x3b
 6154 00f7 0B       		.uleb128 0xb
 6155 00f8 27       		.uleb128 0x27
 6156 00f9 19       		.uleb128 0x19
 6157 00fa 11       		.uleb128 0x11
 6158 00fb 01       		.uleb128 0x1
 6159 00fc 12       		.uleb128 0x12
 6160 00fd 06       		.uleb128 0x6
 6161 00fe 40       		.uleb128 0x40
 6162 00ff 18       		.uleb128 0x18
 6163 0100 9742     		.uleb128 0x2117
 6164 0102 19       		.uleb128 0x19
 6165 0103 01       		.uleb128 0x1
 6166 0104 13       		.uleb128 0x13
 6167 0105 00       		.byte	0
 6168 0106 00       		.byte	0
 6169 0107 17       		.uleb128 0x17
 6170 0108 05       		.uleb128 0x5
 6171 0109 00       		.byte	0
 6172 010a 03       		.uleb128 0x3
 6173 010b 0E       		.uleb128 0xe
 6174 010c 3A       		.uleb128 0x3a
 6175 010d 0B       		.uleb128 0xb
 6176 010e 3B       		.uleb128 0x3b
 6177 010f 0B       		.uleb128 0xb
 6178 0110 49       		.uleb128 0x49
 6179 0111 13       		.uleb128 0x13
 6180 0112 02       		.uleb128 0x2
 6181 0113 18       		.uleb128 0x18
 6182 0114 00       		.byte	0
 6183 0115 00       		.byte	0
 6184 0116 18       		.uleb128 0x18
 6185 0117 05       		.uleb128 0x5
 6186 0118 00       		.byte	0
 6187 0119 03       		.uleb128 0x3
 6188 011a 08       		.uleb128 0x8
 6189 011b 3A       		.uleb128 0x3a
 6190 011c 0B       		.uleb128 0xb
 6191 011d 3B       		.uleb128 0x3b
 6192 011e 0B       		.uleb128 0xb
 6193 011f 49       		.uleb128 0x49
 6194 0120 13       		.uleb128 0x13
 6195 0121 02       		.uleb128 0x2
 6196 0122 18       		.uleb128 0x18
 6197 0123 00       		.byte	0
 6198 0124 00       		.byte	0
 6199 0125 19       		.uleb128 0x19
 6200 0126 2E       		.uleb128 0x2e
 6201 0127 01       		.byte	0x1
 6202 0128 03       		.uleb128 0x3
 6203 0129 0E       		.uleb128 0xe
 6204 012a 3A       		.uleb128 0x3a
ARM GAS  C:\Users\chemi\AppData\Local\Temp\ccvd4c4w.s 			page 129


 6205 012b 0B       		.uleb128 0xb
 6206 012c 3B       		.uleb128 0x3b
 6207 012d 0B       		.uleb128 0xb
 6208 012e 27       		.uleb128 0x27
 6209 012f 19       		.uleb128 0x19
 6210 0130 11       		.uleb128 0x11
 6211 0131 01       		.uleb128 0x1
 6212 0132 12       		.uleb128 0x12
 6213 0133 06       		.uleb128 0x6
 6214 0134 40       		.uleb128 0x40
 6215 0135 18       		.uleb128 0x18
 6216 0136 01       		.uleb128 0x1
 6217 0137 13       		.uleb128 0x13
 6218 0138 00       		.byte	0
 6219 0139 00       		.byte	0
 6220 013a 1A       		.uleb128 0x1a
 6221 013b 05       		.uleb128 0x5
 6222 013c 00       		.byte	0
 6223 013d 03       		.uleb128 0x3
 6224 013e 0E       		.uleb128 0xe
 6225 013f 3A       		.uleb128 0x3a
 6226 0140 0B       		.uleb128 0xb
 6227 0141 3B       		.uleb128 0x3b
 6228 0142 0B       		.uleb128 0xb
 6229 0143 49       		.uleb128 0x49
 6230 0144 13       		.uleb128 0x13
 6231 0145 02       		.uleb128 0x2
 6232 0146 17       		.uleb128 0x17
 6233 0147 00       		.byte	0
 6234 0148 00       		.byte	0
 6235 0149 1B       		.uleb128 0x1b
 6236 014a 05       		.uleb128 0x5
 6237 014b 00       		.byte	0
 6238 014c 03       		.uleb128 0x3
 6239 014d 08       		.uleb128 0x8
 6240 014e 3A       		.uleb128 0x3a
 6241 014f 0B       		.uleb128 0xb
 6242 0150 3B       		.uleb128 0x3b
 6243 0151 0B       		.uleb128 0xb
 6244 0152 49       		.uleb128 0x49
 6245 0153 13       		.uleb128 0x13
 6246 0154 02       		.uleb128 0x2
 6247 0155 17       		.uleb128 0x17
 6248 0156 00       		.byte	0
 6249 0157 00       		.byte	0
 6250 0158 1C       		.uleb128 0x1c
 6251 0159 2E       		.uleb128 0x2e
 6252 015a 01       		.byte	0x1
 6253 015b 03       		.uleb128 0x3
 6254 015c 0E       		.uleb128 0xe
 6255 015d 3A       		.uleb128 0x3a
 6256 015e 0B       		.uleb128 0xb
 6257 015f 3B       		.uleb128 0x3b
 6258 0160 0B       		.uleb128 0xb
 6259 0161 27       		.uleb128 0x27
 6260 0162 19       		.uleb128 0x19
 6261 0163 49       		.uleb128 0x49
ARM GAS  C:\Users\chemi\AppData\Local\Temp\ccvd4c4w.s 			page 130


 6262 0164 13       		.uleb128 0x13
 6263 0165 11       		.uleb128 0x11
 6264 0166 01       		.uleb128 0x1
 6265 0167 12       		.uleb128 0x12
 6266 0168 06       		.uleb128 0x6
 6267 0169 40       		.uleb128 0x40
 6268 016a 18       		.uleb128 0x18
 6269 016b 9742     		.uleb128 0x2117
 6270 016d 19       		.uleb128 0x19
 6271 016e 01       		.uleb128 0x1
 6272 016f 13       		.uleb128 0x13
 6273 0170 00       		.byte	0
 6274 0171 00       		.byte	0
 6275 0172 1D       		.uleb128 0x1d
 6276 0173 34       		.uleb128 0x34
 6277 0174 00       		.byte	0
 6278 0175 03       		.uleb128 0x3
 6279 0176 0E       		.uleb128 0xe
 6280 0177 3A       		.uleb128 0x3a
 6281 0178 0B       		.uleb128 0xb
 6282 0179 3B       		.uleb128 0x3b
 6283 017a 0B       		.uleb128 0xb
 6284 017b 49       		.uleb128 0x49
 6285 017c 13       		.uleb128 0x13
 6286 017d 02       		.uleb128 0x2
 6287 017e 17       		.uleb128 0x17
 6288 017f 00       		.byte	0
 6289 0180 00       		.byte	0
 6290 0181 1E       		.uleb128 0x1e
 6291 0182 0B       		.uleb128 0xb
 6292 0183 01       		.byte	0x1
 6293 0184 11       		.uleb128 0x11
 6294 0185 01       		.uleb128 0x1
 6295 0186 12       		.uleb128 0x12
 6296 0187 06       		.uleb128 0x6
 6297 0188 01       		.uleb128 0x1
 6298 0189 13       		.uleb128 0x13
 6299 018a 00       		.byte	0
 6300 018b 00       		.byte	0
 6301 018c 1F       		.uleb128 0x1f
 6302 018d 34       		.uleb128 0x34
 6303 018e 00       		.byte	0
 6304 018f 03       		.uleb128 0x3
 6305 0190 08       		.uleb128 0x8
 6306 0191 3A       		.uleb128 0x3a
 6307 0192 0B       		.uleb128 0xb
 6308 0193 3B       		.uleb128 0x3b
 6309 0194 0B       		.uleb128 0xb
 6310 0195 49       		.uleb128 0x49
 6311 0196 13       		.uleb128 0x13
 6312 0197 00       		.byte	0
 6313 0198 00       		.byte	0
 6314 0199 20       		.uleb128 0x20
 6315 019a 898201   		.uleb128 0x4109
 6316 019d 01       		.byte	0x1
 6317 019e 11       		.uleb128 0x11
 6318 019f 01       		.uleb128 0x1
ARM GAS  C:\Users\chemi\AppData\Local\Temp\ccvd4c4w.s 			page 131


 6319 01a0 00       		.byte	0
 6320 01a1 00       		.byte	0
 6321 01a2 21       		.uleb128 0x21
 6322 01a3 8A8201   		.uleb128 0x410a
 6323 01a6 00       		.byte	0
 6324 01a7 02       		.uleb128 0x2
 6325 01a8 18       		.uleb128 0x18
 6326 01a9 9142     		.uleb128 0x2111
 6327 01ab 18       		.uleb128 0x18
 6328 01ac 00       		.byte	0
 6329 01ad 00       		.byte	0
 6330 01ae 22       		.uleb128 0x22
 6331 01af 34       		.uleb128 0x34
 6332 01b0 00       		.byte	0
 6333 01b1 03       		.uleb128 0x3
 6334 01b2 08       		.uleb128 0x8
 6335 01b3 3A       		.uleb128 0x3a
 6336 01b4 0B       		.uleb128 0xb
 6337 01b5 3B       		.uleb128 0x3b
 6338 01b6 0B       		.uleb128 0xb
 6339 01b7 49       		.uleb128 0x49
 6340 01b8 13       		.uleb128 0x13
 6341 01b9 02       		.uleb128 0x2
 6342 01ba 18       		.uleb128 0x18
 6343 01bb 00       		.byte	0
 6344 01bc 00       		.byte	0
 6345 01bd 23       		.uleb128 0x23
 6346 01be 34       		.uleb128 0x34
 6347 01bf 00       		.byte	0
 6348 01c0 03       		.uleb128 0x3
 6349 01c1 08       		.uleb128 0x8
 6350 01c2 3A       		.uleb128 0x3a
 6351 01c3 0B       		.uleb128 0xb
 6352 01c4 3B       		.uleb128 0x3b
 6353 01c5 05       		.uleb128 0x5
 6354 01c6 49       		.uleb128 0x49
 6355 01c7 13       		.uleb128 0x13
 6356 01c8 02       		.uleb128 0x2
 6357 01c9 17       		.uleb128 0x17
 6358 01ca 00       		.byte	0
 6359 01cb 00       		.byte	0
 6360 01cc 24       		.uleb128 0x24
 6361 01cd 34       		.uleb128 0x34
 6362 01ce 00       		.byte	0
 6363 01cf 03       		.uleb128 0x3
 6364 01d0 0E       		.uleb128 0xe
 6365 01d1 3A       		.uleb128 0x3a
 6366 01d2 0B       		.uleb128 0xb
 6367 01d3 3B       		.uleb128 0x3b
 6368 01d4 05       		.uleb128 0x5
 6369 01d5 49       		.uleb128 0x49
 6370 01d6 13       		.uleb128 0x13
 6371 01d7 02       		.uleb128 0x2
 6372 01d8 17       		.uleb128 0x17
 6373 01d9 00       		.byte	0
 6374 01da 00       		.byte	0
 6375 01db 25       		.uleb128 0x25
ARM GAS  C:\Users\chemi\AppData\Local\Temp\ccvd4c4w.s 			page 132


 6376 01dc 898201   		.uleb128 0x4109
 6377 01df 01       		.byte	0x1
 6378 01e0 11       		.uleb128 0x11
 6379 01e1 01       		.uleb128 0x1
 6380 01e2 31       		.uleb128 0x31
 6381 01e3 13       		.uleb128 0x13
 6382 01e4 00       		.byte	0
 6383 01e5 00       		.byte	0
 6384 01e6 26       		.uleb128 0x26
 6385 01e7 2E       		.uleb128 0x2e
 6386 01e8 01       		.byte	0x1
 6387 01e9 03       		.uleb128 0x3
 6388 01ea 0E       		.uleb128 0xe
 6389 01eb 3A       		.uleb128 0x3a
 6390 01ec 0B       		.uleb128 0xb
 6391 01ed 3B       		.uleb128 0x3b
 6392 01ee 05       		.uleb128 0x5
 6393 01ef 27       		.uleb128 0x27
 6394 01f0 19       		.uleb128 0x19
 6395 01f1 49       		.uleb128 0x49
 6396 01f2 13       		.uleb128 0x13
 6397 01f3 11       		.uleb128 0x11
 6398 01f4 01       		.uleb128 0x1
 6399 01f5 12       		.uleb128 0x12
 6400 01f6 06       		.uleb128 0x6
 6401 01f7 40       		.uleb128 0x40
 6402 01f8 18       		.uleb128 0x18
 6403 01f9 9642     		.uleb128 0x2116
 6404 01fb 19       		.uleb128 0x19
 6405 01fc 01       		.uleb128 0x1
 6406 01fd 13       		.uleb128 0x13
 6407 01fe 00       		.byte	0
 6408 01ff 00       		.byte	0
 6409 0200 27       		.uleb128 0x27
 6410 0201 05       		.uleb128 0x5
 6411 0202 00       		.byte	0
 6412 0203 03       		.uleb128 0x3
 6413 0204 08       		.uleb128 0x8
 6414 0205 3A       		.uleb128 0x3a
 6415 0206 0B       		.uleb128 0xb
 6416 0207 3B       		.uleb128 0x3b
 6417 0208 05       		.uleb128 0x5
 6418 0209 49       		.uleb128 0x49
 6419 020a 13       		.uleb128 0x13
 6420 020b 02       		.uleb128 0x2
 6421 020c 17       		.uleb128 0x17
 6422 020d 00       		.byte	0
 6423 020e 00       		.byte	0
 6424 020f 28       		.uleb128 0x28
 6425 0210 05       		.uleb128 0x5
 6426 0211 00       		.byte	0
 6427 0212 03       		.uleb128 0x3
 6428 0213 0E       		.uleb128 0xe
 6429 0214 3A       		.uleb128 0x3a
 6430 0215 0B       		.uleb128 0xb
 6431 0216 3B       		.uleb128 0x3b
 6432 0217 05       		.uleb128 0x5
ARM GAS  C:\Users\chemi\AppData\Local\Temp\ccvd4c4w.s 			page 133


 6433 0218 49       		.uleb128 0x49
 6434 0219 13       		.uleb128 0x13
 6435 021a 02       		.uleb128 0x2
 6436 021b 17       		.uleb128 0x17
 6437 021c 00       		.byte	0
 6438 021d 00       		.byte	0
 6439 021e 29       		.uleb128 0x29
 6440 021f 05       		.uleb128 0x5
 6441 0220 00       		.byte	0
 6442 0221 03       		.uleb128 0x3
 6443 0222 0E       		.uleb128 0xe
 6444 0223 3A       		.uleb128 0x3a
 6445 0224 0B       		.uleb128 0xb
 6446 0225 3B       		.uleb128 0x3b
 6447 0226 05       		.uleb128 0x5
 6448 0227 49       		.uleb128 0x49
 6449 0228 13       		.uleb128 0x13
 6450 0229 02       		.uleb128 0x2
 6451 022a 18       		.uleb128 0x18
 6452 022b 00       		.byte	0
 6453 022c 00       		.byte	0
 6454 022d 2A       		.uleb128 0x2a
 6455 022e 34       		.uleb128 0x34
 6456 022f 00       		.byte	0
 6457 0230 03       		.uleb128 0x3
 6458 0231 08       		.uleb128 0x8
 6459 0232 3A       		.uleb128 0x3a
 6460 0233 0B       		.uleb128 0xb
 6461 0234 3B       		.uleb128 0x3b
 6462 0235 05       		.uleb128 0x5
 6463 0236 49       		.uleb128 0x49
 6464 0237 13       		.uleb128 0x13
 6465 0238 02       		.uleb128 0x2
 6466 0239 18       		.uleb128 0x18
 6467 023a 00       		.byte	0
 6468 023b 00       		.byte	0
 6469 023c 2B       		.uleb128 0x2b
 6470 023d 898201   		.uleb128 0x4109
 6471 0240 00       		.byte	0
 6472 0241 11       		.uleb128 0x11
 6473 0242 01       		.uleb128 0x1
 6474 0243 9542     		.uleb128 0x2115
 6475 0245 19       		.uleb128 0x19
 6476 0246 31       		.uleb128 0x31
 6477 0247 13       		.uleb128 0x13
 6478 0248 00       		.byte	0
 6479 0249 00       		.byte	0
 6480 024a 2C       		.uleb128 0x2c
 6481 024b 2E       		.uleb128 0x2e
 6482 024c 01       		.byte	0x1
 6483 024d 3F       		.uleb128 0x3f
 6484 024e 19       		.uleb128 0x19
 6485 024f 03       		.uleb128 0x3
 6486 0250 0E       		.uleb128 0xe
 6487 0251 3A       		.uleb128 0x3a
 6488 0252 0B       		.uleb128 0xb
 6489 0253 3B       		.uleb128 0x3b
ARM GAS  C:\Users\chemi\AppData\Local\Temp\ccvd4c4w.s 			page 134


 6490 0254 05       		.uleb128 0x5
 6491 0255 27       		.uleb128 0x27
 6492 0256 19       		.uleb128 0x19
 6493 0257 11       		.uleb128 0x11
 6494 0258 01       		.uleb128 0x1
 6495 0259 12       		.uleb128 0x12
 6496 025a 06       		.uleb128 0x6
 6497 025b 40       		.uleb128 0x40
 6498 025c 18       		.uleb128 0x18
 6499 025d 9742     		.uleb128 0x2117
 6500 025f 19       		.uleb128 0x19
 6501 0260 01       		.uleb128 0x1
 6502 0261 13       		.uleb128 0x13
 6503 0262 00       		.byte	0
 6504 0263 00       		.byte	0
 6505 0264 2D       		.uleb128 0x2d
 6506 0265 2E       		.uleb128 0x2e
 6507 0266 01       		.byte	0x1
 6508 0267 03       		.uleb128 0x3
 6509 0268 0E       		.uleb128 0xe
 6510 0269 3A       		.uleb128 0x3a
 6511 026a 0B       		.uleb128 0xb
 6512 026b 3B       		.uleb128 0x3b
 6513 026c 05       		.uleb128 0x5
 6514 026d 27       		.uleb128 0x27
 6515 026e 19       		.uleb128 0x19
 6516 026f 49       		.uleb128 0x49
 6517 0270 13       		.uleb128 0x13
 6518 0271 20       		.uleb128 0x20
 6519 0272 0B       		.uleb128 0xb
 6520 0273 01       		.uleb128 0x1
 6521 0274 13       		.uleb128 0x13
 6522 0275 00       		.byte	0
 6523 0276 00       		.byte	0
 6524 0277 2E       		.uleb128 0x2e
 6525 0278 05       		.uleb128 0x5
 6526 0279 00       		.byte	0
 6527 027a 03       		.uleb128 0x3
 6528 027b 08       		.uleb128 0x8
 6529 027c 3A       		.uleb128 0x3a
 6530 027d 0B       		.uleb128 0xb
 6531 027e 3B       		.uleb128 0x3b
 6532 027f 05       		.uleb128 0x5
 6533 0280 49       		.uleb128 0x49
 6534 0281 13       		.uleb128 0x13
 6535 0282 00       		.byte	0
 6536 0283 00       		.byte	0
 6537 0284 2F       		.uleb128 0x2f
 6538 0285 05       		.uleb128 0x5
 6539 0286 00       		.byte	0
 6540 0287 03       		.uleb128 0x3
 6541 0288 0E       		.uleb128 0xe
 6542 0289 3A       		.uleb128 0x3a
 6543 028a 0B       		.uleb128 0xb
 6544 028b 3B       		.uleb128 0x3b
 6545 028c 05       		.uleb128 0x5
 6546 028d 49       		.uleb128 0x49
ARM GAS  C:\Users\chemi\AppData\Local\Temp\ccvd4c4w.s 			page 135


 6547 028e 13       		.uleb128 0x13
 6548 028f 00       		.byte	0
 6549 0290 00       		.byte	0
 6550 0291 30       		.uleb128 0x30
 6551 0292 34       		.uleb128 0x34
 6552 0293 00       		.byte	0
 6553 0294 03       		.uleb128 0x3
 6554 0295 0E       		.uleb128 0xe
 6555 0296 3A       		.uleb128 0x3a
 6556 0297 0B       		.uleb128 0xb
 6557 0298 3B       		.uleb128 0x3b
 6558 0299 05       		.uleb128 0x5
 6559 029a 49       		.uleb128 0x49
 6560 029b 13       		.uleb128 0x13
 6561 029c 00       		.byte	0
 6562 029d 00       		.byte	0
 6563 029e 31       		.uleb128 0x31
 6564 029f 34       		.uleb128 0x34
 6565 02a0 00       		.byte	0
 6566 02a1 03       		.uleb128 0x3
 6567 02a2 08       		.uleb128 0x8
 6568 02a3 3A       		.uleb128 0x3a
 6569 02a4 0B       		.uleb128 0xb
 6570 02a5 3B       		.uleb128 0x3b
 6571 02a6 05       		.uleb128 0x5
 6572 02a7 49       		.uleb128 0x49
 6573 02a8 13       		.uleb128 0x13
 6574 02a9 00       		.byte	0
 6575 02aa 00       		.byte	0
 6576 02ab 32       		.uleb128 0x32
 6577 02ac 34       		.uleb128 0x34
 6578 02ad 00       		.byte	0
 6579 02ae 03       		.uleb128 0x3
 6580 02af 0E       		.uleb128 0xe
 6581 02b0 3A       		.uleb128 0x3a
 6582 02b1 0B       		.uleb128 0xb
 6583 02b2 3B       		.uleb128 0x3b
 6584 02b3 05       		.uleb128 0x5
 6585 02b4 49       		.uleb128 0x49
 6586 02b5 13       		.uleb128 0x13
 6587 02b6 1C       		.uleb128 0x1c
 6588 02b7 0A       		.uleb128 0xa
 6589 02b8 00       		.byte	0
 6590 02b9 00       		.byte	0
 6591 02ba 33       		.uleb128 0x33
 6592 02bb 0B       		.uleb128 0xb
 6593 02bc 01       		.byte	0x1
 6594 02bd 01       		.uleb128 0x1
 6595 02be 13       		.uleb128 0x13
 6596 02bf 00       		.byte	0
 6597 02c0 00       		.byte	0
 6598 02c1 34       		.uleb128 0x34
 6599 02c2 0B       		.uleb128 0xb
 6600 02c3 01       		.byte	0x1
 6601 02c4 00       		.byte	0
 6602 02c5 00       		.byte	0
 6603 02c6 35       		.uleb128 0x35
ARM GAS  C:\Users\chemi\AppData\Local\Temp\ccvd4c4w.s 			page 136


 6604 02c7 05       		.uleb128 0x5
 6605 02c8 00       		.byte	0
 6606 02c9 03       		.uleb128 0x3
 6607 02ca 0E       		.uleb128 0xe
 6608 02cb 3A       		.uleb128 0x3a
 6609 02cc 0B       		.uleb128 0xb
 6610 02cd 3B       		.uleb128 0x3b
 6611 02ce 0B       		.uleb128 0xb
 6612 02cf 49       		.uleb128 0x49
 6613 02d0 13       		.uleb128 0x13
 6614 02d1 00       		.byte	0
 6615 02d2 00       		.byte	0
 6616 02d3 36       		.uleb128 0x36
 6617 02d4 05       		.uleb128 0x5
 6618 02d5 00       		.byte	0
 6619 02d6 03       		.uleb128 0x3
 6620 02d7 08       		.uleb128 0x8
 6621 02d8 3A       		.uleb128 0x3a
 6622 02d9 0B       		.uleb128 0xb
 6623 02da 3B       		.uleb128 0x3b
 6624 02db 05       		.uleb128 0x5
 6625 02dc 49       		.uleb128 0x49
 6626 02dd 13       		.uleb128 0x13
 6627 02de 02       		.uleb128 0x2
 6628 02df 18       		.uleb128 0x18
 6629 02e0 00       		.byte	0
 6630 02e1 00       		.byte	0
 6631 02e2 37       		.uleb128 0x37
 6632 02e3 1D       		.uleb128 0x1d
 6633 02e4 01       		.byte	0x1
 6634 02e5 31       		.uleb128 0x31
 6635 02e6 13       		.uleb128 0x13
 6636 02e7 11       		.uleb128 0x11
 6637 02e8 01       		.uleb128 0x1
 6638 02e9 12       		.uleb128 0x12
 6639 02ea 06       		.uleb128 0x6
 6640 02eb 58       		.uleb128 0x58
 6641 02ec 0B       		.uleb128 0xb
 6642 02ed 59       		.uleb128 0x59
 6643 02ee 05       		.uleb128 0x5
 6644 02ef 01       		.uleb128 0x1
 6645 02f0 13       		.uleb128 0x13
 6646 02f1 00       		.byte	0
 6647 02f2 00       		.byte	0
 6648 02f3 38       		.uleb128 0x38
 6649 02f4 05       		.uleb128 0x5
 6650 02f5 00       		.byte	0
 6651 02f6 31       		.uleb128 0x31
 6652 02f7 13       		.uleb128 0x13
 6653 02f8 00       		.byte	0
 6654 02f9 00       		.byte	0
 6655 02fa 39       		.uleb128 0x39
 6656 02fb 0B       		.uleb128 0xb
 6657 02fc 01       		.byte	0x1
 6658 02fd 11       		.uleb128 0x11
 6659 02fe 01       		.uleb128 0x1
 6660 02ff 12       		.uleb128 0x12
ARM GAS  C:\Users\chemi\AppData\Local\Temp\ccvd4c4w.s 			page 137


 6661 0300 06       		.uleb128 0x6
 6662 0301 00       		.byte	0
 6663 0302 00       		.byte	0
 6664 0303 3A       		.uleb128 0x3a
 6665 0304 34       		.uleb128 0x34
 6666 0305 00       		.byte	0
 6667 0306 31       		.uleb128 0x31
 6668 0307 13       		.uleb128 0x13
 6669 0308 02       		.uleb128 0x2
 6670 0309 17       		.uleb128 0x17
 6671 030a 00       		.byte	0
 6672 030b 00       		.byte	0
 6673 030c 3B       		.uleb128 0x3b
 6674 030d 0B       		.uleb128 0xb
 6675 030e 01       		.byte	0x1
 6676 030f 55       		.uleb128 0x55
 6677 0310 17       		.uleb128 0x17
 6678 0311 01       		.uleb128 0x1
 6679 0312 13       		.uleb128 0x13
 6680 0313 00       		.byte	0
 6681 0314 00       		.byte	0
 6682 0315 3C       		.uleb128 0x3c
 6683 0316 898201   		.uleb128 0x4109
 6684 0319 01       		.byte	0x1
 6685 031a 11       		.uleb128 0x11
 6686 031b 01       		.uleb128 0x1
 6687 031c 31       		.uleb128 0x31
 6688 031d 13       		.uleb128 0x13
 6689 031e 01       		.uleb128 0x1
 6690 031f 13       		.uleb128 0x13
 6691 0320 00       		.byte	0
 6692 0321 00       		.byte	0
 6693 0322 3D       		.uleb128 0x3d
 6694 0323 1D       		.uleb128 0x1d
 6695 0324 01       		.byte	0x1
 6696 0325 31       		.uleb128 0x31
 6697 0326 13       		.uleb128 0x13
 6698 0327 52       		.uleb128 0x52
 6699 0328 01       		.uleb128 0x1
 6700 0329 55       		.uleb128 0x55
 6701 032a 17       		.uleb128 0x17
 6702 032b 58       		.uleb128 0x58
 6703 032c 0B       		.uleb128 0xb
 6704 032d 59       		.uleb128 0x59
 6705 032e 05       		.uleb128 0x5
 6706 032f 01       		.uleb128 0x1
 6707 0330 13       		.uleb128 0x13
 6708 0331 00       		.byte	0
 6709 0332 00       		.byte	0
 6710 0333 3E       		.uleb128 0x3e
 6711 0334 0B       		.uleb128 0xb
 6712 0335 01       		.byte	0x1
 6713 0336 55       		.uleb128 0x55
 6714 0337 17       		.uleb128 0x17
 6715 0338 00       		.byte	0
 6716 0339 00       		.byte	0
 6717 033a 3F       		.uleb128 0x3f
ARM GAS  C:\Users\chemi\AppData\Local\Temp\ccvd4c4w.s 			page 138


 6718 033b 898201   		.uleb128 0x4109
 6719 033e 01       		.byte	0x1
 6720 033f 11       		.uleb128 0x11
 6721 0340 01       		.uleb128 0x1
 6722 0341 9342     		.uleb128 0x2113
 6723 0343 18       		.uleb128 0x18
 6724 0344 01       		.uleb128 0x1
 6725 0345 13       		.uleb128 0x13
 6726 0346 00       		.byte	0
 6727 0347 00       		.byte	0
 6728 0348 40       		.uleb128 0x40
 6729 0349 898201   		.uleb128 0x4109
 6730 034c 01       		.byte	0x1
 6731 034d 11       		.uleb128 0x11
 6732 034e 01       		.uleb128 0x1
 6733 034f 9342     		.uleb128 0x2113
 6734 0351 18       		.uleb128 0x18
 6735 0352 00       		.byte	0
 6736 0353 00       		.byte	0
 6737 0354 41       		.uleb128 0x41
 6738 0355 05       		.uleb128 0x5
 6739 0356 00       		.byte	0
 6740 0357 31       		.uleb128 0x31
 6741 0358 13       		.uleb128 0x13
 6742 0359 02       		.uleb128 0x2
 6743 035a 17       		.uleb128 0x17
 6744 035b 00       		.byte	0
 6745 035c 00       		.byte	0
 6746 035d 42       		.uleb128 0x42
 6747 035e 34       		.uleb128 0x34
 6748 035f 00       		.byte	0
 6749 0360 31       		.uleb128 0x31
 6750 0361 13       		.uleb128 0x13
 6751 0362 02       		.uleb128 0x2
 6752 0363 18       		.uleb128 0x18
 6753 0364 00       		.byte	0
 6754 0365 00       		.byte	0
 6755 0366 43       		.uleb128 0x43
 6756 0367 34       		.uleb128 0x34
 6757 0368 00       		.byte	0
 6758 0369 31       		.uleb128 0x31
 6759 036a 13       		.uleb128 0x13
 6760 036b 00       		.byte	0
 6761 036c 00       		.byte	0
 6762 036d 44       		.uleb128 0x44
 6763 036e 2E       		.uleb128 0x2e
 6764 036f 01       		.byte	0x1
 6765 0370 3F       		.uleb128 0x3f
 6766 0371 19       		.uleb128 0x19
 6767 0372 03       		.uleb128 0x3
 6768 0373 0E       		.uleb128 0xe
 6769 0374 3A       		.uleb128 0x3a
 6770 0375 0B       		.uleb128 0xb
 6771 0376 3B       		.uleb128 0x3b
 6772 0377 05       		.uleb128 0x5
 6773 0378 27       		.uleb128 0x27
 6774 0379 19       		.uleb128 0x19
ARM GAS  C:\Users\chemi\AppData\Local\Temp\ccvd4c4w.s 			page 139


 6775 037a 49       		.uleb128 0x49
 6776 037b 13       		.uleb128 0x13
 6777 037c 11       		.uleb128 0x11
 6778 037d 01       		.uleb128 0x1
 6779 037e 12       		.uleb128 0x12
 6780 037f 06       		.uleb128 0x6
 6781 0380 40       		.uleb128 0x40
 6782 0381 18       		.uleb128 0x18
 6783 0382 9742     		.uleb128 0x2117
 6784 0384 19       		.uleb128 0x19
 6785 0385 01       		.uleb128 0x1
 6786 0386 13       		.uleb128 0x13
 6787 0387 00       		.byte	0
 6788 0388 00       		.byte	0
 6789 0389 45       		.uleb128 0x45
 6790 038a 34       		.uleb128 0x34
 6791 038b 00       		.byte	0
 6792 038c 03       		.uleb128 0x3
 6793 038d 0E       		.uleb128 0xe
 6794 038e 3A       		.uleb128 0x3a
 6795 038f 0B       		.uleb128 0xb
 6796 0390 3B       		.uleb128 0x3b
 6797 0391 05       		.uleb128 0x5
 6798 0392 49       		.uleb128 0x49
 6799 0393 13       		.uleb128 0x13
 6800 0394 02       		.uleb128 0x2
 6801 0395 18       		.uleb128 0x18
 6802 0396 00       		.byte	0
 6803 0397 00       		.byte	0
 6804 0398 46       		.uleb128 0x46
 6805 0399 898201   		.uleb128 0x4109
 6806 039c 00       		.byte	0
 6807 039d 11       		.uleb128 0x11
 6808 039e 01       		.uleb128 0x1
 6809 039f 31       		.uleb128 0x31
 6810 03a0 13       		.uleb128 0x13
 6811 03a1 00       		.byte	0
 6812 03a2 00       		.byte	0
 6813 03a3 47       		.uleb128 0x47
 6814 03a4 34       		.uleb128 0x34
 6815 03a5 00       		.byte	0
 6816 03a6 03       		.uleb128 0x3
 6817 03a7 0E       		.uleb128 0xe
 6818 03a8 3A       		.uleb128 0x3a
 6819 03a9 0B       		.uleb128 0xb
 6820 03aa 3B       		.uleb128 0x3b
 6821 03ab 05       		.uleb128 0x5
 6822 03ac 49       		.uleb128 0x49
 6823 03ad 13       		.uleb128 0x13
 6824 03ae 3F       		.uleb128 0x3f
 6825 03af 19       		.uleb128 0x19
 6826 03b0 3C       		.uleb128 0x3c
 6827 03b1 19       		.uleb128 0x19
 6828 03b2 00       		.byte	0
 6829 03b3 00       		.byte	0
 6830 03b4 48       		.uleb128 0x48
 6831 03b5 35       		.uleb128 0x35
ARM GAS  C:\Users\chemi\AppData\Local\Temp\ccvd4c4w.s 			page 140


 6832 03b6 00       		.byte	0
 6833 03b7 49       		.uleb128 0x49
 6834 03b8 13       		.uleb128 0x13
 6835 03b9 00       		.byte	0
 6836 03ba 00       		.byte	0
 6837 03bb 49       		.uleb128 0x49
 6838 03bc 34       		.uleb128 0x34
 6839 03bd 00       		.byte	0
 6840 03be 03       		.uleb128 0x3
 6841 03bf 0E       		.uleb128 0xe
 6842 03c0 3A       		.uleb128 0x3a
 6843 03c1 0B       		.uleb128 0xb
 6844 03c2 3B       		.uleb128 0x3b
 6845 03c3 0B       		.uleb128 0xb
 6846 03c4 49       		.uleb128 0x49
 6847 03c5 13       		.uleb128 0x13
 6848 03c6 3F       		.uleb128 0x3f
 6849 03c7 19       		.uleb128 0x19
 6850 03c8 3C       		.uleb128 0x3c
 6851 03c9 19       		.uleb128 0x19
 6852 03ca 00       		.byte	0
 6853 03cb 00       		.byte	0
 6854 03cc 4A       		.uleb128 0x4a
 6855 03cd 2E       		.uleb128 0x2e
 6856 03ce 00       		.byte	0
 6857 03cf 3F       		.uleb128 0x3f
 6858 03d0 19       		.uleb128 0x19
 6859 03d1 3C       		.uleb128 0x3c
 6860 03d2 19       		.uleb128 0x19
 6861 03d3 6E       		.uleb128 0x6e
 6862 03d4 0E       		.uleb128 0xe
 6863 03d5 03       		.uleb128 0x3
 6864 03d6 0E       		.uleb128 0xe
 6865 03d7 3A       		.uleb128 0x3a
 6866 03d8 0B       		.uleb128 0xb
 6867 03d9 3B       		.uleb128 0x3b
 6868 03da 0B       		.uleb128 0xb
 6869 03db 00       		.byte	0
 6870 03dc 00       		.byte	0
 6871 03dd 4B       		.uleb128 0x4b
 6872 03de 2E       		.uleb128 0x2e
 6873 03df 00       		.byte	0
 6874 03e0 3F       		.uleb128 0x3f
 6875 03e1 19       		.uleb128 0x19
 6876 03e2 3C       		.uleb128 0x3c
 6877 03e3 19       		.uleb128 0x19
 6878 03e4 6E       		.uleb128 0x6e
 6879 03e5 0E       		.uleb128 0xe
 6880 03e6 03       		.uleb128 0x3
 6881 03e7 0E       		.uleb128 0xe
 6882 03e8 3A       		.uleb128 0x3a
 6883 03e9 0B       		.uleb128 0xb
 6884 03ea 3B       		.uleb128 0x3b
 6885 03eb 05       		.uleb128 0x5
 6886 03ec 00       		.byte	0
 6887 03ed 00       		.byte	0
 6888 03ee 00       		.byte	0
ARM GAS  C:\Users\chemi\AppData\Local\Temp\ccvd4c4w.s 			page 141


 6889              		.section	.debug_loc,"",%progbits
 6890              	.Ldebug_loc0:
 6891              	.LLST0:
 6892 0000 00000000 		.4byte	.LVL2
 6893 0004 05000000 		.4byte	.LVL5-1
 6894 0008 0100     		.2byte	0x1
 6895 000a 50       		.byte	0x50
 6896 000b 05000000 		.4byte	.LVL5-1
 6897 000f 06000000 		.4byte	.LFE71
 6898 0013 0400     		.2byte	0x4
 6899 0015 F3       		.byte	0xf3
 6900 0016 01       		.uleb128 0x1
 6901 0017 50       		.byte	0x50
 6902 0018 9F       		.byte	0x9f
 6903 0019 00000000 		.4byte	0
 6904 001d 00000000 		.4byte	0
 6905              	.LLST1:
 6906 0021 00000000 		.4byte	.LVL2
 6907 0025 04000000 		.4byte	.LVL4
 6908 0029 0100     		.2byte	0x1
 6909 002b 51       		.byte	0x51
 6910 002c 04000000 		.4byte	.LVL4
 6911 0030 06000000 		.4byte	.LFE71
 6912 0034 0400     		.2byte	0x4
 6913 0036 F3       		.byte	0xf3
 6914 0037 01       		.uleb128 0x1
 6915 0038 51       		.byte	0x51
 6916 0039 9F       		.byte	0x9f
 6917 003a 00000000 		.4byte	0
 6918 003e 00000000 		.4byte	0
 6919              	.LLST2:
 6920 0042 00000000 		.4byte	.LVL2
 6921 0046 05000000 		.4byte	.LVL5-1
 6922 004a 0100     		.2byte	0x1
 6923 004c 52       		.byte	0x52
 6924 004d 05000000 		.4byte	.LVL5-1
 6925 0051 06000000 		.4byte	.LFE71
 6926 0055 0400     		.2byte	0x4
 6927 0057 F3       		.byte	0xf3
 6928 0058 01       		.uleb128 0x1
 6929 0059 52       		.byte	0x52
 6930 005a 9F       		.byte	0x9f
 6931 005b 00000000 		.4byte	0
 6932 005f 00000000 		.4byte	0
 6933              	.LLST3:
 6934 0063 00000000 		.4byte	.LVL2
 6935 0067 02000000 		.4byte	.LVL3
 6936 006b 0100     		.2byte	0x1
 6937 006d 53       		.byte	0x53
 6938 006e 02000000 		.4byte	.LVL3
 6939 0072 06000000 		.4byte	.LFE71
 6940 0076 0400     		.2byte	0x4
 6941 0078 F3       		.byte	0xf3
 6942 0079 01       		.uleb128 0x1
 6943 007a 53       		.byte	0x53
 6944 007b 9F       		.byte	0x9f
 6945 007c 00000000 		.4byte	0
ARM GAS  C:\Users\chemi\AppData\Local\Temp\ccvd4c4w.s 			page 142


 6946 0080 00000000 		.4byte	0
 6947              	.LLST4:
 6948 0084 00000000 		.4byte	.LVL6
 6949 0088 10000000 		.4byte	.LVL8
 6950 008c 0100     		.2byte	0x1
 6951 008e 50       		.byte	0x50
 6952 008f 10000000 		.4byte	.LVL8
 6953 0093 48010000 		.4byte	.LFE75
 6954 0097 0100     		.2byte	0x1
 6955 0099 5B       		.byte	0x5b
 6956 009a 00000000 		.4byte	0
 6957 009e 00000000 		.4byte	0
 6958              	.LLST5:
 6959 00a2 00000000 		.4byte	.LVL6
 6960 00a6 1C000000 		.4byte	.LVL10
 6961 00aa 0100     		.2byte	0x1
 6962 00ac 51       		.byte	0x51
 6963 00ad 1C000000 		.4byte	.LVL10
 6964 00b1 A0000000 		.4byte	.LVL28
 6965 00b5 0200     		.2byte	0x2
 6966 00b7 91       		.byte	0x91
 6967 00b8 4C       		.sleb128 -52
 6968 00b9 A0000000 		.4byte	.LVL28
 6969 00bd AE000000 		.4byte	.LVL32
 6970 00c1 0400     		.2byte	0x4
 6971 00c3 F3       		.byte	0xf3
 6972 00c4 01       		.uleb128 0x1
 6973 00c5 51       		.byte	0x51
 6974 00c6 9F       		.byte	0x9f
 6975 00c7 AE000000 		.4byte	.LVL32
 6976 00cb B0000000 		.4byte	.LVL33
 6977 00cf 0200     		.2byte	0x2
 6978 00d1 91       		.byte	0x91
 6979 00d2 4C       		.sleb128 -52
 6980 00d3 B0000000 		.4byte	.LVL33
 6981 00d7 48010000 		.4byte	.LFE75
 6982 00db 0400     		.2byte	0x4
 6983 00dd F3       		.byte	0xf3
 6984 00de 01       		.uleb128 0x1
 6985 00df 51       		.byte	0x51
 6986 00e0 9F       		.byte	0x9f
 6987 00e1 00000000 		.4byte	0
 6988 00e5 00000000 		.4byte	0
 6989              	.LLST6:
 6990 00e9 00000000 		.4byte	.LVL6
 6991 00ed 1E000000 		.4byte	.LVL11
 6992 00f1 0100     		.2byte	0x1
 6993 00f3 52       		.byte	0x52
 6994 00f4 1E000000 		.4byte	.LVL11
 6995 00f8 E6000000 		.4byte	.LVL43
 6996 00fc 0100     		.2byte	0x1
 6997 00fe 58       		.byte	0x58
 6998 00ff E6000000 		.4byte	.LVL43
 6999 0103 00010000 		.4byte	.LVL46
 7000 0107 0100     		.2byte	0x1
 7001 0109 57       		.byte	0x57
 7002 010a 00010000 		.4byte	.LVL46
ARM GAS  C:\Users\chemi\AppData\Local\Temp\ccvd4c4w.s 			page 143


 7003 010e 04010000 		.4byte	.LVL47
 7004 0112 0100     		.2byte	0x1
 7005 0114 53       		.byte	0x53
 7006 0115 04010000 		.4byte	.LVL47
 7007 0119 0E010000 		.4byte	.LVL49
 7008 011d 0200     		.2byte	0x2
 7009 011f 91       		.byte	0x91
 7010 0120 54       		.sleb128 -44
 7011 0121 14010000 		.4byte	.LVL50
 7012 0125 16010000 		.4byte	.LVL51
 7013 0129 0100     		.2byte	0x1
 7014 012b 52       		.byte	0x52
 7015 012c 26010000 		.4byte	.LVL54
 7016 0130 34010000 		.4byte	.LVL56
 7017 0134 0100     		.2byte	0x1
 7018 0136 52       		.byte	0x52
 7019 0137 34010000 		.4byte	.LVL56
 7020 013b 40010000 		.4byte	.LVL58
 7021 013f 0100     		.2byte	0x1
 7022 0141 54       		.byte	0x54
 7023 0142 40010000 		.4byte	.LVL58
 7024 0146 48010000 		.4byte	.LFE75
 7025 014a 0100     		.2byte	0x1
 7026 014c 52       		.byte	0x52
 7027 014d 00000000 		.4byte	0
 7028 0151 00000000 		.4byte	0
 7029              	.LLST7:
 7030 0155 00000000 		.4byte	.LVL6
 7031 0159 0A000000 		.4byte	.LVL7
 7032 015d 0100     		.2byte	0x1
 7033 015f 53       		.byte	0x53
 7034 0160 0A000000 		.4byte	.LVL7
 7035 0164 48010000 		.4byte	.LFE75
 7036 0168 0100     		.2byte	0x1
 7037 016a 59       		.byte	0x59
 7038 016b 00000000 		.4byte	0
 7039 016f 00000000 		.4byte	0
 7040              	.LLST8:
 7041 0173 00000000 		.4byte	.LVL6
 7042 0177 A0000000 		.4byte	.LVL28
 7043 017b 0200     		.2byte	0x2
 7044 017d 91       		.byte	0x91
 7045 017e 00       		.sleb128 0
 7046 017f AE000000 		.4byte	.LVL32
 7047 0183 B0000000 		.4byte	.LVL33
 7048 0187 0200     		.2byte	0x2
 7049 0189 91       		.byte	0x91
 7050 018a 00       		.sleb128 0
 7051 018b 00000000 		.4byte	0
 7052 018f 00000000 		.4byte	0
 7053              	.LLST9:
 7054 0193 00000000 		.4byte	.LVL6
 7055 0197 2C000000 		.4byte	.LVL12
 7056 019b 0200     		.2byte	0x2
 7057 019d 91       		.byte	0x91
 7058 019e 04       		.sleb128 4
 7059 019f 2C000000 		.4byte	.LVL12
ARM GAS  C:\Users\chemi\AppData\Local\Temp\ccvd4c4w.s 			page 144


 7060 01a3 6C000000 		.4byte	.LVL16
 7061 01a7 0100     		.2byte	0x1
 7062 01a9 54       		.byte	0x54
 7063 01aa 6C000000 		.4byte	.LVL16
 7064 01ae 6E000000 		.4byte	.LVL17
 7065 01b2 0300     		.2byte	0x3
 7066 01b4 74       		.byte	0x74
 7067 01b5 7F       		.sleb128 -1
 7068 01b6 9F       		.byte	0x9f
 7069 01b7 6E000000 		.4byte	.LVL17
 7070 01bb 76000000 		.4byte	.LVL18
 7071 01bf 0100     		.2byte	0x1
 7072 01c1 50       		.byte	0x50
 7073 01c2 76000000 		.4byte	.LVL18
 7074 01c6 78000000 		.4byte	.LVL19
 7075 01ca 0100     		.2byte	0x1
 7076 01cc 54       		.byte	0x54
 7077 01cd 78000000 		.4byte	.LVL19
 7078 01d1 7A000000 		.4byte	.LVL20
 7079 01d5 0100     		.2byte	0x1
 7080 01d7 50       		.byte	0x50
 7081 01d8 7A000000 		.4byte	.LVL20
 7082 01dc 86000000 		.4byte	.LVL21
 7083 01e0 0100     		.2byte	0x1
 7084 01e2 54       		.byte	0x54
 7085 01e3 86000000 		.4byte	.LVL21
 7086 01e7 8A000000 		.4byte	.LVL22
 7087 01eb 0300     		.2byte	0x3
 7088 01ed 74       		.byte	0x74
 7089 01ee 01       		.sleb128 1
 7090 01ef 9F       		.byte	0x9f
 7091 01f0 8A000000 		.4byte	.LVL22
 7092 01f4 8E000000 		.4byte	.LVL23
 7093 01f8 0100     		.2byte	0x1
 7094 01fa 54       		.byte	0x54
 7095 01fb 8E000000 		.4byte	.LVL23
 7096 01ff 92000000 		.4byte	.LVL24
 7097 0203 0300     		.2byte	0x3
 7098 0205 74       		.byte	0x74
 7099 0206 01       		.sleb128 1
 7100 0207 9F       		.byte	0x9f
 7101 0208 92000000 		.4byte	.LVL24
 7102 020c 94000000 		.4byte	.LVL25
 7103 0210 0100     		.2byte	0x1
 7104 0212 50       		.byte	0x50
 7105 0213 94000000 		.4byte	.LVL25
 7106 0217 9C000000 		.4byte	.LVL26
 7107 021b 0100     		.2byte	0x1
 7108 021d 54       		.byte	0x54
 7109 021e 9C000000 		.4byte	.LVL26
 7110 0222 9E000000 		.4byte	.LVL27
 7111 0226 0300     		.2byte	0x3
 7112 0228 74       		.byte	0x74
 7113 0229 01       		.sleb128 1
 7114 022a 9F       		.byte	0x9f
 7115 022b A2000000 		.4byte	.LVL29
 7116 022f A6000000 		.4byte	.LVL30
ARM GAS  C:\Users\chemi\AppData\Local\Temp\ccvd4c4w.s 			page 145


 7117 0233 0100     		.2byte	0x1
 7118 0235 54       		.byte	0x54
 7119 0236 A6000000 		.4byte	.LVL30
 7120 023a AC000000 		.4byte	.LVL31
 7121 023e 0300     		.2byte	0x3
 7122 0240 74       		.byte	0x74
 7123 0241 01       		.sleb128 1
 7124 0242 9F       		.byte	0x9f
 7125 0243 AC000000 		.4byte	.LVL31
 7126 0247 C4000000 		.4byte	.LVL35
 7127 024b 0100     		.2byte	0x1
 7128 024d 54       		.byte	0x54
 7129 024e C4000000 		.4byte	.LVL35
 7130 0252 C8000000 		.4byte	.LVL36
 7131 0256 0300     		.2byte	0x3
 7132 0258 74       		.byte	0x74
 7133 0259 01       		.sleb128 1
 7134 025a 9F       		.byte	0x9f
 7135 025b C8000000 		.4byte	.LVL36
 7136 025f CE000000 		.4byte	.LVL37
 7137 0263 0100     		.2byte	0x1
 7138 0265 56       		.byte	0x56
 7139 0266 CE000000 		.4byte	.LVL37
 7140 026a D2000000 		.4byte	.LVL38
 7141 026e 0100     		.2byte	0x1
 7142 0270 54       		.byte	0x54
 7143 0271 D2000000 		.4byte	.LVL38
 7144 0275 D6000000 		.4byte	.LVL39
 7145 0279 0300     		.2byte	0x3
 7146 027b 74       		.byte	0x74
 7147 027c 01       		.sleb128 1
 7148 027d 9F       		.byte	0x9f
 7149 027e D6000000 		.4byte	.LVL39
 7150 0282 DA000000 		.4byte	.LVL40
 7151 0286 0100     		.2byte	0x1
 7152 0288 54       		.byte	0x54
 7153 0289 DA000000 		.4byte	.LVL40
 7154 028d DC000000 		.4byte	.LVL41
 7155 0291 0300     		.2byte	0x3
 7156 0293 74       		.byte	0x74
 7157 0294 01       		.sleb128 1
 7158 0295 9F       		.byte	0x9f
 7159 0296 E0000000 		.4byte	.LVL42
 7160 029a 2A010000 		.4byte	.LVL55
 7161 029e 0100     		.2byte	0x1
 7162 02a0 54       		.byte	0x54
 7163 02a1 00000000 		.4byte	0
 7164 02a5 00000000 		.4byte	0
 7165              	.LLST10:
 7166 02a9 00000000 		.4byte	.LVL6
 7167 02ad A0000000 		.4byte	.LVL28
 7168 02b1 0200     		.2byte	0x2
 7169 02b3 91       		.byte	0x91
 7170 02b4 08       		.sleb128 8
 7171 02b5 AE000000 		.4byte	.LVL32
 7172 02b9 B0000000 		.4byte	.LVL33
 7173 02bd 0200     		.2byte	0x2
ARM GAS  C:\Users\chemi\AppData\Local\Temp\ccvd4c4w.s 			page 146


 7174 02bf 91       		.byte	0x91
 7175 02c0 08       		.sleb128 8
 7176 02c1 00000000 		.4byte	0
 7177 02c5 00000000 		.4byte	0
 7178              	.LLST11:
 7179 02c9 00000000 		.4byte	.LVL6
 7180 02cd A0000000 		.4byte	.LVL28
 7181 02d1 0200     		.2byte	0x2
 7182 02d3 91       		.byte	0x91
 7183 02d4 0C       		.sleb128 12
 7184 02d5 AE000000 		.4byte	.LVL32
 7185 02d9 B0000000 		.4byte	.LVL33
 7186 02dd 0200     		.2byte	0x2
 7187 02df 91       		.byte	0x91
 7188 02e0 0C       		.sleb128 12
 7189 02e1 00000000 		.4byte	0
 7190 02e5 00000000 		.4byte	0
 7191              	.LLST12:
 7192 02e9 00000000 		.4byte	.LVL6
 7193 02ed A0000000 		.4byte	.LVL28
 7194 02f1 0200     		.2byte	0x2
 7195 02f3 91       		.byte	0x91
 7196 02f4 10       		.sleb128 16
 7197 02f5 AE000000 		.4byte	.LVL32
 7198 02f9 B0000000 		.4byte	.LVL33
 7199 02fd 0200     		.2byte	0x2
 7200 02ff 91       		.byte	0x91
 7201 0300 10       		.sleb128 16
 7202 0301 00000000 		.4byte	0
 7203 0305 00000000 		.4byte	0
 7204              	.LLST13:
 7205 0309 00000000 		.4byte	.LVL6
 7206 030d A0000000 		.4byte	.LVL28
 7207 0311 0200     		.2byte	0x2
 7208 0313 91       		.byte	0x91
 7209 0314 14       		.sleb128 20
 7210 0315 AE000000 		.4byte	.LVL32
 7211 0319 B0000000 		.4byte	.LVL33
 7212 031d 0200     		.2byte	0x2
 7213 031f 91       		.byte	0x91
 7214 0320 14       		.sleb128 20
 7215 0321 00000000 		.4byte	0
 7216 0325 00000000 		.4byte	0
 7217              	.LLST14:
 7218 0329 00000000 		.4byte	.LVL6
 7219 032d A0000000 		.4byte	.LVL28
 7220 0331 0200     		.2byte	0x2
 7221 0333 91       		.byte	0x91
 7222 0334 18       		.sleb128 24
 7223 0335 AE000000 		.4byte	.LVL32
 7224 0339 B0000000 		.4byte	.LVL33
 7225 033d 0200     		.2byte	0x2
 7226 033f 91       		.byte	0x91
 7227 0340 18       		.sleb128 24
 7228 0341 00000000 		.4byte	0
 7229 0345 00000000 		.4byte	0
 7230              	.LLST15:
ARM GAS  C:\Users\chemi\AppData\Local\Temp\ccvd4c4w.s 			page 147


 7231 0349 14000000 		.4byte	.LVL9
 7232 034d 1E000000 		.4byte	.LVL11
 7233 0351 0100     		.2byte	0x1
 7234 0353 52       		.byte	0x52
 7235 0354 1E000000 		.4byte	.LVL11
 7236 0358 E6000000 		.4byte	.LVL43
 7237 035c 0100     		.2byte	0x1
 7238 035e 58       		.byte	0x58
 7239 035f E6000000 		.4byte	.LVL43
 7240 0363 EC000000 		.4byte	.LVL44
 7241 0367 0100     		.2byte	0x1
 7242 0369 57       		.byte	0x57
 7243 036a EC000000 		.4byte	.LVL44
 7244 036e 48010000 		.4byte	.LFE75
 7245 0372 0100     		.2byte	0x1
 7246 0374 58       		.byte	0x58
 7247 0375 00000000 		.4byte	0
 7248 0379 00000000 		.4byte	0
 7249              	.LLST16:
 7250 037d 00000000 		.4byte	.LVL59
 7251 0381 79000000 		.4byte	.LVL68-1
 7252 0385 0100     		.2byte	0x1
 7253 0387 50       		.byte	0x50
 7254 0388 79000000 		.4byte	.LVL68-1
 7255 038c 80000000 		.4byte	.LFE76
 7256 0390 0400     		.2byte	0x4
 7257 0392 F3       		.byte	0xf3
 7258 0393 01       		.uleb128 0x1
 7259 0394 50       		.byte	0x50
 7260 0395 9F       		.byte	0x9f
 7261 0396 00000000 		.4byte	0
 7262 039a 00000000 		.4byte	0
 7263              	.LLST17:
 7264 039e 00000000 		.4byte	.LVL59
 7265 03a2 79000000 		.4byte	.LVL68-1
 7266 03a6 0100     		.2byte	0x1
 7267 03a8 51       		.byte	0x51
 7268 03a9 79000000 		.4byte	.LVL68-1
 7269 03ad 80000000 		.4byte	.LFE76
 7270 03b1 0400     		.2byte	0x4
 7271 03b3 F3       		.byte	0xf3
 7272 03b4 01       		.uleb128 0x1
 7273 03b5 51       		.byte	0x51
 7274 03b6 9F       		.byte	0x9f
 7275 03b7 00000000 		.4byte	0
 7276 03bb 00000000 		.4byte	0
 7277              	.LLST18:
 7278 03bf 00000000 		.4byte	.LVL59
 7279 03c3 79000000 		.4byte	.LVL68-1
 7280 03c7 0100     		.2byte	0x1
 7281 03c9 52       		.byte	0x52
 7282 03ca 79000000 		.4byte	.LVL68-1
 7283 03ce 80000000 		.4byte	.LFE76
 7284 03d2 0400     		.2byte	0x4
 7285 03d4 F3       		.byte	0xf3
 7286 03d5 01       		.uleb128 0x1
 7287 03d6 52       		.byte	0x52
ARM GAS  C:\Users\chemi\AppData\Local\Temp\ccvd4c4w.s 			page 148


 7288 03d7 9F       		.byte	0x9f
 7289 03d8 00000000 		.4byte	0
 7290 03dc 00000000 		.4byte	0
 7291              	.LLST19:
 7292 03e0 00000000 		.4byte	.LVL59
 7293 03e4 79000000 		.4byte	.LVL68-1
 7294 03e8 0100     		.2byte	0x1
 7295 03ea 53       		.byte	0x53
 7296 03eb 79000000 		.4byte	.LVL68-1
 7297 03ef 80000000 		.4byte	.LFE76
 7298 03f3 0400     		.2byte	0x4
 7299 03f5 F3       		.byte	0xf3
 7300 03f6 01       		.uleb128 0x1
 7301 03f7 53       		.byte	0x53
 7302 03f8 9F       		.byte	0x9f
 7303 03f9 00000000 		.4byte	0
 7304 03fd 00000000 		.4byte	0
 7305              	.LLST20:
 7306 0401 00000000 		.4byte	.LVL59
 7307 0405 2C000000 		.4byte	.LVL61
 7308 0409 0200     		.2byte	0x2
 7309 040b 91       		.byte	0x91
 7310 040c 00       		.sleb128 0
 7311 040d 2C000000 		.4byte	.LVL61
 7312 0411 38000000 		.4byte	.LVL62
 7313 0415 0100     		.2byte	0x1
 7314 0417 55       		.byte	0x55
 7315 0418 40000000 		.4byte	.LVL64
 7316 041c 5A000000 		.4byte	.LVL66
 7317 0420 0100     		.2byte	0x1
 7318 0422 55       		.byte	0x55
 7319 0423 5A000000 		.4byte	.LVL66
 7320 0427 5C000000 		.4byte	.LVL67
 7321 042b 0200     		.2byte	0x2
 7322 042d 91       		.byte	0x91
 7323 042e 00       		.sleb128 0
 7324 042f 00000000 		.4byte	0
 7325 0433 00000000 		.4byte	0
 7326              	.LLST21:
 7327 0437 00000000 		.4byte	.LVL59
 7328 043b 14000000 		.4byte	.LVL60
 7329 043f 0200     		.2byte	0x2
 7330 0441 91       		.byte	0x91
 7331 0442 14       		.sleb128 20
 7332 0443 14000000 		.4byte	.LVL60
 7333 0447 80000000 		.4byte	.LFE76
 7334 044b 0100     		.2byte	0x1
 7335 044d 57       		.byte	0x57
 7336 044e 00000000 		.4byte	0
 7337 0452 00000000 		.4byte	0
 7338              	.LLST22:
 7339 0456 00000000 		.4byte	.LVL59
 7340 045a 2C000000 		.4byte	.LVL61
 7341 045e 0200     		.2byte	0x2
 7342 0460 30       		.byte	0x30
 7343 0461 9F       		.byte	0x9f
 7344 0462 2C000000 		.4byte	.LVL61
ARM GAS  C:\Users\chemi\AppData\Local\Temp\ccvd4c4w.s 			page 149


 7345 0466 5A000000 		.4byte	.LVL66
 7346 046a 0100     		.2byte	0x1
 7347 046c 56       		.byte	0x56
 7348 046d 5A000000 		.4byte	.LVL66
 7349 0471 5C000000 		.4byte	.LVL67
 7350 0475 0200     		.2byte	0x2
 7351 0477 30       		.byte	0x30
 7352 0478 9F       		.byte	0x9f
 7353 0479 5C000000 		.4byte	.LVL67
 7354 047d 80000000 		.4byte	.LFE76
 7355 0481 0100     		.2byte	0x1
 7356 0483 56       		.byte	0x56
 7357 0484 00000000 		.4byte	0
 7358 0488 00000000 		.4byte	0
 7359              	.LLST23:
 7360 048c 3A000000 		.4byte	.LVL63
 7361 0490 44000000 		.4byte	.LVL65
 7362 0494 0100     		.2byte	0x1
 7363 0496 54       		.byte	0x54
 7364 0497 00000000 		.4byte	0
 7365 049b 00000000 		.4byte	0
 7366              	.LLST24:
 7367 049f 00000000 		.4byte	.LVL69
 7368 04a3 3A000000 		.4byte	.LVL73
 7369 04a7 0100     		.2byte	0x1
 7370 04a9 50       		.byte	0x50
 7371 04aa 3A000000 		.4byte	.LVL73
 7372 04ae 7A000000 		.4byte	.LVL81
 7373 04b2 0300     		.2byte	0x3
 7374 04b4 91       		.byte	0x91
 7375 04b5 AC7F     		.sleb128 -84
 7376 04b7 7A000000 		.4byte	.LVL81
 7377 04bb 7C000000 		.4byte	.LVL82
 7378 04bf 0100     		.2byte	0x1
 7379 04c1 50       		.byte	0x50
 7380 04c2 7C000000 		.4byte	.LVL82
 7381 04c6 A6000000 		.4byte	.LFE77
 7382 04ca 0300     		.2byte	0x3
 7383 04cc 91       		.byte	0x91
 7384 04cd AC7F     		.sleb128 -84
 7385 04cf 00000000 		.4byte	0
 7386 04d3 00000000 		.4byte	0
 7387              	.LLST25:
 7388 04d7 00000000 		.4byte	.LVL69
 7389 04db 3A000000 		.4byte	.LVL73
 7390 04df 0100     		.2byte	0x1
 7391 04e1 51       		.byte	0x51
 7392 04e2 3A000000 		.4byte	.LVL73
 7393 04e6 7A000000 		.4byte	.LVL81
 7394 04ea 0300     		.2byte	0x3
 7395 04ec 91       		.byte	0x91
 7396 04ed B07F     		.sleb128 -80
 7397 04ef 7A000000 		.4byte	.LVL81
 7398 04f3 7C000000 		.4byte	.LVL82
 7399 04f7 0100     		.2byte	0x1
 7400 04f9 51       		.byte	0x51
 7401 04fa 7C000000 		.4byte	.LVL82
ARM GAS  C:\Users\chemi\AppData\Local\Temp\ccvd4c4w.s 			page 150


 7402 04fe A6000000 		.4byte	.LFE77
 7403 0502 0300     		.2byte	0x3
 7404 0504 91       		.byte	0x91
 7405 0505 B07F     		.sleb128 -80
 7406 0507 00000000 		.4byte	0
 7407 050b 00000000 		.4byte	0
 7408              	.LLST26:
 7409 050f 00000000 		.4byte	.LVL69
 7410 0513 1C000000 		.4byte	.LVL72
 7411 0517 0100     		.2byte	0x1
 7412 0519 52       		.byte	0x52
 7413 051a 1C000000 		.4byte	.LVL72
 7414 051e A6000000 		.4byte	.LFE77
 7415 0522 0100     		.2byte	0x1
 7416 0524 5A       		.byte	0x5a
 7417 0525 00000000 		.4byte	0
 7418 0529 00000000 		.4byte	0
 7419              	.LLST27:
 7420 052d 00000000 		.4byte	.LVL69
 7421 0531 12000000 		.4byte	.LVL70
 7422 0535 0100     		.2byte	0x1
 7423 0537 53       		.byte	0x53
 7424 0538 12000000 		.4byte	.LVL70
 7425 053c A6000000 		.4byte	.LFE77
 7426 0540 0100     		.2byte	0x1
 7427 0542 5B       		.byte	0x5b
 7428 0543 00000000 		.4byte	0
 7429 0547 00000000 		.4byte	0
 7430              	.LLST28:
 7431 054b 00000000 		.4byte	.LVL69
 7432 054f 3A000000 		.4byte	.LVL73
 7433 0553 0200     		.2byte	0x2
 7434 0555 91       		.byte	0x91
 7435 0556 00       		.sleb128 0
 7436 0557 3A000000 		.4byte	.LVL73
 7437 055b 6C000000 		.4byte	.LVL79
 7438 055f 0600     		.2byte	0x6
 7439 0561 58       		.byte	0x58
 7440 0562 93       		.byte	0x93
 7441 0563 04       		.uleb128 0x4
 7442 0564 59       		.byte	0x59
 7443 0565 93       		.byte	0x93
 7444 0566 04       		.uleb128 0x4
 7445 0567 6E000000 		.4byte	.LVL80
 7446 056b 7A000000 		.4byte	.LVL81
 7447 056f 0600     		.2byte	0x6
 7448 0571 58       		.byte	0x58
 7449 0572 93       		.byte	0x93
 7450 0573 04       		.uleb128 0x4
 7451 0574 59       		.byte	0x59
 7452 0575 93       		.byte	0x93
 7453 0576 04       		.uleb128 0x4
 7454 0577 7A000000 		.4byte	.LVL81
 7455 057b 7C000000 		.4byte	.LVL82
 7456 057f 0200     		.2byte	0x2
 7457 0581 91       		.byte	0x91
 7458 0582 00       		.sleb128 0
ARM GAS  C:\Users\chemi\AppData\Local\Temp\ccvd4c4w.s 			page 151


 7459 0583 00000000 		.4byte	0
 7460 0587 00000000 		.4byte	0
 7461              	.LLST29:
 7462 058b 00000000 		.4byte	.LVL69
 7463 058f 18000000 		.4byte	.LVL71
 7464 0593 0200     		.2byte	0x2
 7465 0595 91       		.byte	0x91
 7466 0596 20       		.sleb128 32
 7467 0597 18000000 		.4byte	.LVL71
 7468 059b A6000000 		.4byte	.LFE77
 7469 059f 0100     		.2byte	0x1
 7470 05a1 55       		.byte	0x55
 7471 05a2 00000000 		.4byte	0
 7472 05a6 00000000 		.4byte	0
 7473              	.LLST30:
 7474 05aa 00000000 		.4byte	.LVL69
 7475 05ae 3A000000 		.4byte	.LVL73
 7476 05b2 0200     		.2byte	0x2
 7477 05b4 30       		.byte	0x30
 7478 05b5 9F       		.byte	0x9f
 7479 05b6 3A000000 		.4byte	.LVL73
 7480 05ba 7A000000 		.4byte	.LVL81
 7481 05be 0100     		.2byte	0x1
 7482 05c0 54       		.byte	0x54
 7483 05c1 7A000000 		.4byte	.LVL81
 7484 05c5 7C000000 		.4byte	.LVL82
 7485 05c9 0200     		.2byte	0x2
 7486 05cb 30       		.byte	0x30
 7487 05cc 9F       		.byte	0x9f
 7488 05cd 7C000000 		.4byte	.LVL82
 7489 05d1 A6000000 		.4byte	.LFE77
 7490 05d5 0100     		.2byte	0x1
 7491 05d7 54       		.byte	0x54
 7492 05d8 00000000 		.4byte	0
 7493 05dc 00000000 		.4byte	0
 7494              	.LLST31:
 7495 05e0 48000000 		.4byte	.LVL75
 7496 05e4 50000000 		.4byte	.LVL76
 7497 05e8 0100     		.2byte	0x1
 7498 05ea 52       		.byte	0x52
 7499 05eb 00000000 		.4byte	0
 7500 05ef 00000000 		.4byte	0
 7501              	.LLST32:
 7502 05f3 00000000 		.4byte	.LVL84
 7503 05f7 05000000 		.4byte	.LVL85-1
 7504 05fb 0100     		.2byte	0x1
 7505 05fd 50       		.byte	0x50
 7506 05fe 05000000 		.4byte	.LVL85-1
 7507 0602 06000000 		.4byte	.LVL85
 7508 0606 0400     		.2byte	0x4
 7509 0608 F3       		.byte	0xf3
 7510 0609 01       		.uleb128 0x1
 7511 060a 50       		.byte	0x50
 7512 060b 9F       		.byte	0x9f
 7513 060c 06000000 		.4byte	.LVL85
 7514 0610 08000000 		.4byte	.LFE70
 7515 0614 0100     		.2byte	0x1
ARM GAS  C:\Users\chemi\AppData\Local\Temp\ccvd4c4w.s 			page 152


 7516 0616 50       		.byte	0x50
 7517 0617 00000000 		.4byte	0
 7518 061b 00000000 		.4byte	0
 7519              	.LLST33:
 7520 061f 00000000 		.4byte	.LVL84
 7521 0623 05000000 		.4byte	.LVL85-1
 7522 0627 0100     		.2byte	0x1
 7523 0629 51       		.byte	0x51
 7524 062a 05000000 		.4byte	.LVL85-1
 7525 062e 06000000 		.4byte	.LVL85
 7526 0632 0400     		.2byte	0x4
 7527 0634 F3       		.byte	0xf3
 7528 0635 01       		.uleb128 0x1
 7529 0636 51       		.byte	0x51
 7530 0637 9F       		.byte	0x9f
 7531 0638 06000000 		.4byte	.LVL85
 7532 063c 08000000 		.4byte	.LFE70
 7533 0640 0100     		.2byte	0x1
 7534 0642 51       		.byte	0x51
 7535 0643 00000000 		.4byte	0
 7536 0647 00000000 		.4byte	0
 7537              	.LLST34:
 7538 064b 00000000 		.4byte	.LVL84
 7539 064f 05000000 		.4byte	.LVL85-1
 7540 0653 0100     		.2byte	0x1
 7541 0655 52       		.byte	0x52
 7542 0656 05000000 		.4byte	.LVL85-1
 7543 065a 06000000 		.4byte	.LVL85
 7544 065e 0400     		.2byte	0x4
 7545 0660 F3       		.byte	0xf3
 7546 0661 01       		.uleb128 0x1
 7547 0662 52       		.byte	0x52
 7548 0663 9F       		.byte	0x9f
 7549 0664 06000000 		.4byte	.LVL85
 7550 0668 08000000 		.4byte	.LFE70
 7551 066c 0100     		.2byte	0x1
 7552 066e 52       		.byte	0x52
 7553 066f 00000000 		.4byte	0
 7554 0673 00000000 		.4byte	0
 7555              	.LLST35:
 7556 0677 00000000 		.4byte	.LVL84
 7557 067b 05000000 		.4byte	.LVL85-1
 7558 067f 0100     		.2byte	0x1
 7559 0681 53       		.byte	0x53
 7560 0682 05000000 		.4byte	.LVL85-1
 7561 0686 06000000 		.4byte	.LVL85
 7562 068a 0400     		.2byte	0x4
 7563 068c F3       		.byte	0xf3
 7564 068d 01       		.uleb128 0x1
 7565 068e 53       		.byte	0x53
 7566 068f 9F       		.byte	0x9f
 7567 0690 06000000 		.4byte	.LVL85
 7568 0694 08000000 		.4byte	.LFE70
 7569 0698 0100     		.2byte	0x1
 7570 069a 53       		.byte	0x53
 7571 069b 00000000 		.4byte	0
 7572 069f 00000000 		.4byte	0
ARM GAS  C:\Users\chemi\AppData\Local\Temp\ccvd4c4w.s 			page 153


 7573              	.LLST36:
 7574 06a3 00000000 		.4byte	.LVL86
 7575 06a7 16000000 		.4byte	.LVL88
 7576 06ab 0100     		.2byte	0x1
 7577 06ad 50       		.byte	0x50
 7578 06ae 16000000 		.4byte	.LVL88
 7579 06b2 19000000 		.4byte	.LVL89-1
 7580 06b6 0200     		.2byte	0x2
 7581 06b8 71       		.byte	0x71
 7582 06b9 00       		.sleb128 0
 7583 06ba 19000000 		.4byte	.LVL89-1
 7584 06be 1E000000 		.4byte	.LFE85
 7585 06c2 0200     		.2byte	0x2
 7586 06c4 91       		.byte	0x91
 7587 06c5 77       		.sleb128 -9
 7588 06c6 00000000 		.4byte	0
 7589 06ca 00000000 		.4byte	0
 7590              	.LLST37:
 7591 06ce 00000000 		.4byte	.LVL86
 7592 06d2 14000000 		.4byte	.LVL87
 7593 06d6 0100     		.2byte	0x1
 7594 06d8 51       		.byte	0x51
 7595 06d9 14000000 		.4byte	.LVL87
 7596 06dd 1E000000 		.4byte	.LFE85
 7597 06e1 0100     		.2byte	0x1
 7598 06e3 54       		.byte	0x54
 7599 06e4 00000000 		.4byte	0
 7600 06e8 00000000 		.4byte	0
 7601              	.LLST38:
 7602 06ec 00000000 		.4byte	.LVL90
 7603 06f0 1A000000 		.4byte	.LVL93
 7604 06f4 0100     		.2byte	0x1
 7605 06f6 50       		.byte	0x50
 7606 06f7 00000000 		.4byte	0
 7607 06fb 00000000 		.4byte	0
 7608              	.LLST39:
 7609 06ff 00000000 		.4byte	.LVL90
 7610 0703 1A000000 		.4byte	.LVL93
 7611 0707 0100     		.2byte	0x1
 7612 0709 51       		.byte	0x51
 7613 070a 1A000000 		.4byte	.LVL93
 7614 070e 74070000 		.4byte	.LFE79
 7615 0712 0300     		.2byte	0x3
 7616 0714 91       		.byte	0x91
 7617 0715 987F     		.sleb128 -104
 7618 0717 00000000 		.4byte	0
 7619 071b 00000000 		.4byte	0
 7620              	.LLST40:
 7621 071f 00000000 		.4byte	.LVL90
 7622 0723 0A000000 		.4byte	.LVL91
 7623 0727 0100     		.2byte	0x1
 7624 0729 52       		.byte	0x52
 7625 072a 0A000000 		.4byte	.LVL91
 7626 072e 74070000 		.4byte	.LFE79
 7627 0732 0300     		.2byte	0x3
 7628 0734 91       		.byte	0x91
 7629 0735 907F     		.sleb128 -112
ARM GAS  C:\Users\chemi\AppData\Local\Temp\ccvd4c4w.s 			page 154


 7630 0737 00000000 		.4byte	0
 7631 073b 00000000 		.4byte	0
 7632              	.LLST41:
 7633 073f 00000000 		.4byte	.LVL90
 7634 0743 1A000000 		.4byte	.LVL93
 7635 0747 0100     		.2byte	0x1
 7636 0749 53       		.byte	0x53
 7637 074a 1A000000 		.4byte	.LVL93
 7638 074e 2A000000 		.4byte	.LVL94
 7639 0752 0100     		.2byte	0x1
 7640 0754 53       		.byte	0x53
 7641 0755 2A000000 		.4byte	.LVL94
 7642 0759 34000000 		.4byte	.LVL96
 7643 075d 0300     		.2byte	0x3
 7644 075f 76       		.byte	0x76
 7645 0760 7F       		.sleb128 -1
 7646 0761 9F       		.byte	0x9f
 7647 0762 34000000 		.4byte	.LVL96
 7648 0766 38000000 		.4byte	.LVL97
 7649 076a 0100     		.2byte	0x1
 7650 076c 56       		.byte	0x56
 7651 076d 38000000 		.4byte	.LVL97
 7652 0771 3A000000 		.4byte	.LVL98
 7653 0775 0300     		.2byte	0x3
 7654 0777 73       		.byte	0x73
 7655 0778 01       		.sleb128 1
 7656 0779 9F       		.byte	0x9f
 7657 077a 3A000000 		.4byte	.LVL98
 7658 077e 3C000000 		.4byte	.LVL99
 7659 0782 0100     		.2byte	0x1
 7660 0784 56       		.byte	0x56
 7661 0785 44000000 		.4byte	.LVL100
 7662 0789 56000000 		.4byte	.LVL101
 7663 078d 0100     		.2byte	0x1
 7664 078f 51       		.byte	0x51
 7665 0790 56000000 		.4byte	.LVL101
 7666 0794 58000000 		.4byte	.LVL102
 7667 0798 0100     		.2byte	0x1
 7668 079a 50       		.byte	0x50
 7669 079b 58000000 		.4byte	.LVL102
 7670 079f 64000000 		.4byte	.LVL103
 7671 07a3 0100     		.2byte	0x1
 7672 07a5 51       		.byte	0x51
 7673 07a6 64000000 		.4byte	.LVL103
 7674 07aa 66000000 		.4byte	.LVL104
 7675 07ae 0100     		.2byte	0x1
 7676 07b0 50       		.byte	0x50
 7677 07b1 66000000 		.4byte	.LVL104
 7678 07b5 6A000000 		.4byte	.LVL105
 7679 07b9 0100     		.2byte	0x1
 7680 07bb 51       		.byte	0x51
 7681 07bc 6A000000 		.4byte	.LVL105
 7682 07c0 6C000000 		.4byte	.LVL106
 7683 07c4 0100     		.2byte	0x1
 7684 07c6 50       		.byte	0x50
 7685 07c7 6C000000 		.4byte	.LVL106
 7686 07cb 70000000 		.4byte	.LVL107
ARM GAS  C:\Users\chemi\AppData\Local\Temp\ccvd4c4w.s 			page 155


 7687 07cf 0100     		.2byte	0x1
 7688 07d1 51       		.byte	0x51
 7689 07d2 70000000 		.4byte	.LVL107
 7690 07d6 72000000 		.4byte	.LVL108
 7691 07da 0100     		.2byte	0x1
 7692 07dc 50       		.byte	0x50
 7693 07dd 72000000 		.4byte	.LVL108
 7694 07e1 76000000 		.4byte	.LVL109
 7695 07e5 0100     		.2byte	0x1
 7696 07e7 51       		.byte	0x51
 7697 07e8 76000000 		.4byte	.LVL109
 7698 07ec 78000000 		.4byte	.LVL110
 7699 07f0 0100     		.2byte	0x1
 7700 07f2 50       		.byte	0x50
 7701 07f3 78000000 		.4byte	.LVL110
 7702 07f7 84000000 		.4byte	.LVL111
 7703 07fb 0100     		.2byte	0x1
 7704 07fd 53       		.byte	0x53
 7705 07fe 84000000 		.4byte	.LVL111
 7706 0802 92000000 		.4byte	.LVL114
 7707 0806 0300     		.2byte	0x3
 7708 0808 91       		.byte	0x91
 7709 0809 8C7F     		.sleb128 -116
 7710 080b 92000000 		.4byte	.LVL114
 7711 080f 98000000 		.4byte	.LVL116
 7712 0813 0100     		.2byte	0x1
 7713 0815 53       		.byte	0x53
 7714 0816 B8000000 		.4byte	.LVL119
 7715 081a DC000000 		.4byte	.LVL124
 7716 081e 0100     		.2byte	0x1
 7717 0820 51       		.byte	0x51
 7718 0821 DC000000 		.4byte	.LVL124
 7719 0825 E0000000 		.4byte	.LVL126
 7720 0829 0100     		.2byte	0x1
 7721 082b 50       		.byte	0x50
 7722 082c E0000000 		.4byte	.LVL126
 7723 0830 F4000000 		.4byte	.LVL128
 7724 0834 0100     		.2byte	0x1
 7725 0836 51       		.byte	0x51
 7726 0837 F4000000 		.4byte	.LVL128
 7727 083b 04010000 		.4byte	.LVL129
 7728 083f 0300     		.2byte	0x3
 7729 0841 91       		.byte	0x91
 7730 0842 8C7F     		.sleb128 -116
 7731 0844 04010000 		.4byte	.LVL129
 7732 0848 06010000 		.4byte	.LVL130
 7733 084c 0100     		.2byte	0x1
 7734 084e 52       		.byte	0x52
 7735 084f 06010000 		.4byte	.LVL130
 7736 0853 12010000 		.4byte	.LVL131
 7737 0857 0300     		.2byte	0x3
 7738 0859 91       		.byte	0x91
 7739 085a 8C7F     		.sleb128 -116
 7740 085c 12010000 		.4byte	.LVL131
 7741 0860 1C010000 		.4byte	.LVL134
 7742 0864 0100     		.2byte	0x1
 7743 0866 52       		.byte	0x52
ARM GAS  C:\Users\chemi\AppData\Local\Temp\ccvd4c4w.s 			page 156


 7744 0867 1C010000 		.4byte	.LVL134
 7745 086b 30010000 		.4byte	.LVL139
 7746 086f 0300     		.2byte	0x3
 7747 0871 91       		.byte	0x91
 7748 0872 8C7F     		.sleb128 -116
 7749 0874 30010000 		.4byte	.LVL139
 7750 0878 32010000 		.4byte	.LVL140
 7751 087c 0100     		.2byte	0x1
 7752 087e 53       		.byte	0x53
 7753 087f 32010000 		.4byte	.LVL140
 7754 0883 34010000 		.4byte	.LVL141
 7755 0887 0100     		.2byte	0x1
 7756 0889 51       		.byte	0x51
 7757 088a 34010000 		.4byte	.LVL141
 7758 088e 5A010000 		.4byte	.LVL144
 7759 0892 0300     		.2byte	0x3
 7760 0894 91       		.byte	0x91
 7761 0895 8C7F     		.sleb128 -116
 7762 0897 5A010000 		.4byte	.LVL144
 7763 089b 7A010000 		.4byte	.LVL149
 7764 089f 0700     		.2byte	0x7
 7765 08a1 91       		.byte	0x91
 7766 08a2 8C7F     		.sleb128 -116
 7767 08a4 06       		.byte	0x6
 7768 08a5 23       		.byte	0x23
 7769 08a6 01       		.uleb128 0x1
 7770 08a7 9F       		.byte	0x9f
 7771 08a8 8A010000 		.4byte	.LVL152
 7772 08ac BE010000 		.4byte	.LVL157
 7773 08b0 0300     		.2byte	0x3
 7774 08b2 91       		.byte	0x91
 7775 08b3 8C7F     		.sleb128 -116
 7776 08b5 BE010000 		.4byte	.LVL157
 7777 08b9 D2010000 		.4byte	.LVL158
 7778 08bd 0100     		.2byte	0x1
 7779 08bf 53       		.byte	0x53
 7780 08c0 D2010000 		.4byte	.LVL158
 7781 08c4 D4010000 		.4byte	.LVL159
 7782 08c8 0300     		.2byte	0x3
 7783 08ca 91       		.byte	0x91
 7784 08cb 8C7F     		.sleb128 -116
 7785 08cd D4010000 		.4byte	.LVL159
 7786 08d1 EA010000 		.4byte	.LVL160
 7787 08d5 0100     		.2byte	0x1
 7788 08d7 53       		.byte	0x53
 7789 08d8 EA010000 		.4byte	.LVL160
 7790 08dc FE010000 		.4byte	.LVL162
 7791 08e0 0300     		.2byte	0x3
 7792 08e2 91       		.byte	0x91
 7793 08e3 8C7F     		.sleb128 -116
 7794 08e5 FE010000 		.4byte	.LVL162
 7795 08e9 08020000 		.4byte	.LVL164
 7796 08ed 0100     		.2byte	0x1
 7797 08ef 53       		.byte	0x53
 7798 08f0 08020000 		.4byte	.LVL164
 7799 08f4 10020000 		.4byte	.LVL165
 7800 08f8 0300     		.2byte	0x3
ARM GAS  C:\Users\chemi\AppData\Local\Temp\ccvd4c4w.s 			page 157


 7801 08fa 91       		.byte	0x91
 7802 08fb 8C7F     		.sleb128 -116
 7803 08fd 10020000 		.4byte	.LVL165
 7804 0901 12020000 		.4byte	.LVL166
 7805 0905 0100     		.2byte	0x1
 7806 0907 53       		.byte	0x53
 7807 0908 12020000 		.4byte	.LVL166
 7808 090c 62030000 		.4byte	.LVL184
 7809 0910 0300     		.2byte	0x3
 7810 0912 91       		.byte	0x91
 7811 0913 8C7F     		.sleb128 -116
 7812 0915 62030000 		.4byte	.LVL184
 7813 0919 6C030000 		.4byte	.LVL186
 7814 091d 0100     		.2byte	0x1
 7815 091f 53       		.byte	0x53
 7816 0920 6C030000 		.4byte	.LVL186
 7817 0924 FE050000 		.4byte	.LVL269
 7818 0928 0300     		.2byte	0x3
 7819 092a 91       		.byte	0x91
 7820 092b 8C7F     		.sleb128 -116
 7821 092d FE050000 		.4byte	.LVL269
 7822 0931 08060000 		.4byte	.LVL272
 7823 0935 0100     		.2byte	0x1
 7824 0937 53       		.byte	0x53
 7825 0938 08060000 		.4byte	.LVL272
 7826 093c 2A060000 		.4byte	.LVL278
 7827 0940 0300     		.2byte	0x3
 7828 0942 91       		.byte	0x91
 7829 0943 8C7F     		.sleb128 -116
 7830 0945 2A060000 		.4byte	.LVL278
 7831 0949 2C060000 		.4byte	.LVL279
 7832 094d 0100     		.2byte	0x1
 7833 094f 53       		.byte	0x53
 7834 0950 2C060000 		.4byte	.LVL279
 7835 0954 6C060000 		.4byte	.LVL287
 7836 0958 0300     		.2byte	0x3
 7837 095a 91       		.byte	0x91
 7838 095b 8C7F     		.sleb128 -116
 7839 095d 6C060000 		.4byte	.LVL287
 7840 0961 80060000 		.4byte	.LVL288
 7841 0965 0100     		.2byte	0x1
 7842 0967 53       		.byte	0x53
 7843 0968 80060000 		.4byte	.LVL288
 7844 096c 1A070000 		.4byte	.LVL312
 7845 0970 0300     		.2byte	0x3
 7846 0972 91       		.byte	0x91
 7847 0973 8C7F     		.sleb128 -116
 7848 0975 1A070000 		.4byte	.LVL312
 7849 0979 1E070000 		.4byte	.LVL314
 7850 097d 0100     		.2byte	0x1
 7851 097f 53       		.byte	0x53
 7852 0980 1E070000 		.4byte	.LVL314
 7853 0984 4E070000 		.4byte	.LVL318
 7854 0988 0300     		.2byte	0x3
 7855 098a 91       		.byte	0x91
 7856 098b 8C7F     		.sleb128 -116
 7857 098d 4E070000 		.4byte	.LVL318
ARM GAS  C:\Users\chemi\AppData\Local\Temp\ccvd4c4w.s 			page 158


 7858 0991 52070000 		.4byte	.LVL319
 7859 0995 0100     		.2byte	0x1
 7860 0997 53       		.byte	0x53
 7861 0998 52070000 		.4byte	.LVL319
 7862 099c 58070000 		.4byte	.LVL320
 7863 09a0 0100     		.2byte	0x1
 7864 09a2 51       		.byte	0x51
 7865 09a3 58070000 		.4byte	.LVL320
 7866 09a7 5A070000 		.4byte	.LVL321
 7867 09ab 0100     		.2byte	0x1
 7868 09ad 53       		.byte	0x53
 7869 09ae 5A070000 		.4byte	.LVL321
 7870 09b2 68070000 		.4byte	.LVL322
 7871 09b6 0100     		.2byte	0x1
 7872 09b8 51       		.byte	0x51
 7873 09b9 68070000 		.4byte	.LVL322
 7874 09bd 74070000 		.4byte	.LFE79
 7875 09c1 0100     		.2byte	0x1
 7876 09c3 53       		.byte	0x53
 7877 09c4 00000000 		.4byte	0
 7878 09c8 00000000 		.4byte	0
 7879              	.LLST42:
 7880 09cc 38000000 		.4byte	.LVL97
 7881 09d0 3C000000 		.4byte	.LVL99
 7882 09d4 0200     		.2byte	0x2
 7883 09d6 30       		.byte	0x30
 7884 09d7 9F       		.byte	0x9f
 7885 09d8 44000000 		.4byte	.LVL100
 7886 09dc 88000000 		.4byte	.LVL112
 7887 09e0 0100     		.2byte	0x1
 7888 09e2 54       		.byte	0x54
 7889 09e3 B4000000 		.4byte	.LVL118
 7890 09e7 5A010000 		.4byte	.LVL144
 7891 09eb 0100     		.2byte	0x1
 7892 09ed 54       		.byte	0x54
 7893 09ee 5A010000 		.4byte	.LVL144
 7894 09f2 66010000 		.4byte	.LVL145
 7895 09f6 0700     		.2byte	0x7
 7896 09f8 74       		.byte	0x74
 7897 09f9 00       		.sleb128 0
 7898 09fa 0A       		.byte	0xa
 7899 09fb 0001     		.2byte	0x100
 7900 09fd 21       		.byte	0x21
 7901 09fe 9F       		.byte	0x9f
 7902 09ff 66010000 		.4byte	.LVL145
 7903 0a03 68010000 		.4byte	.LVL146
 7904 0a07 0100     		.2byte	0x1
 7905 0a09 54       		.byte	0x54
 7906 0a0a 68010000 		.4byte	.LVL146
 7907 0a0e 74010000 		.4byte	.LVL147
 7908 0a12 0600     		.2byte	0x6
 7909 0a14 74       		.byte	0x74
 7910 0a15 00       		.sleb128 0
 7911 0a16 08       		.byte	0x8
 7912 0a17 80       		.byte	0x80
 7913 0a18 21       		.byte	0x21
 7914 0a19 9F       		.byte	0x9f
ARM GAS  C:\Users\chemi\AppData\Local\Temp\ccvd4c4w.s 			page 159


 7915 0a1a 74010000 		.4byte	.LVL147
 7916 0a1e 76010000 		.4byte	.LVL148
 7917 0a22 0100     		.2byte	0x1
 7918 0a24 54       		.byte	0x54
 7919 0a25 76010000 		.4byte	.LVL148
 7920 0a29 7A010000 		.4byte	.LVL149
 7921 0a2d 0600     		.2byte	0x6
 7922 0a2f 74       		.byte	0x74
 7923 0a30 00       		.sleb128 0
 7924 0a31 08       		.byte	0x8
 7925 0a32 80       		.byte	0x80
 7926 0a33 21       		.byte	0x21
 7927 0a34 9F       		.byte	0x9f
 7928 0a35 7A010000 		.4byte	.LVL149
 7929 0a39 80010000 		.4byte	.LVL150
 7930 0a3d 0100     		.2byte	0x1
 7931 0a3f 54       		.byte	0x54
 7932 0a40 84010000 		.4byte	.LVL151
 7933 0a44 DE050000 		.4byte	.LVL263
 7934 0a48 0100     		.2byte	0x1
 7935 0a4a 54       		.byte	0x54
 7936 0a4b F6050000 		.4byte	.LVL266
 7937 0a4f F8050000 		.4byte	.LVL267
 7938 0a53 0100     		.2byte	0x1
 7939 0a55 54       		.byte	0x54
 7940 0a56 00060000 		.4byte	.LVL270
 7941 0a5a 04060000 		.4byte	.LVL271
 7942 0a5e 0100     		.2byte	0x1
 7943 0a60 54       		.byte	0x54
 7944 0a61 80060000 		.4byte	.LVL288
 7945 0a65 AA060000 		.4byte	.LVL292
 7946 0a69 0100     		.2byte	0x1
 7947 0a6b 54       		.byte	0x54
 7948 0a6c 1C070000 		.4byte	.LVL313
 7949 0a70 28070000 		.4byte	.LVL315
 7950 0a74 0600     		.2byte	0x6
 7951 0a76 74       		.byte	0x74
 7952 0a77 00       		.sleb128 0
 7953 0a78 08       		.byte	0x8
 7954 0a79 21       		.byte	0x21
 7955 0a7a 21       		.byte	0x21
 7956 0a7b 9F       		.byte	0x9f
 7957 0a7c 28070000 		.4byte	.LVL315
 7958 0a80 74070000 		.4byte	.LFE79
 7959 0a84 0100     		.2byte	0x1
 7960 0a86 54       		.byte	0x54
 7961 0a87 00000000 		.4byte	0
 7962 0a8b 00000000 		.4byte	0
 7963              	.LLST43:
 7964 0a8f 78000000 		.4byte	.LVL110
 7965 0a93 92000000 		.4byte	.LVL114
 7966 0a97 0300     		.2byte	0x3
 7967 0a99 91       		.byte	0x91
 7968 0a9a 947F     		.sleb128 -108
 7969 0a9c B8000000 		.4byte	.LVL119
 7970 0aa0 DA000000 		.4byte	.LVL123
 7971 0aa4 0200     		.2byte	0x2
ARM GAS  C:\Users\chemi\AppData\Local\Temp\ccvd4c4w.s 			page 160


 7972 0aa6 30       		.byte	0x30
 7973 0aa7 9F       		.byte	0x9f
 7974 0aa8 DA000000 		.4byte	.LVL123
 7975 0aac E0000000 		.4byte	.LVL126
 7976 0ab0 0100     		.2byte	0x1
 7977 0ab2 53       		.byte	0x53
 7978 0ab3 E0000000 		.4byte	.LVL126
 7979 0ab7 E4000000 		.4byte	.LVL127
 7980 0abb 0200     		.2byte	0x2
 7981 0abd 30       		.byte	0x30
 7982 0abe 9F       		.byte	0x9f
 7983 0abf E4000000 		.4byte	.LVL127
 7984 0ac3 1C070000 		.4byte	.LVL313
 7985 0ac7 0300     		.2byte	0x3
 7986 0ac9 91       		.byte	0x91
 7987 0aca 947F     		.sleb128 -108
 7988 0acc 1C070000 		.4byte	.LVL313
 7989 0ad0 52070000 		.4byte	.LVL319
 7990 0ad4 0200     		.2byte	0x2
 7991 0ad6 38       		.byte	0x38
 7992 0ad7 9F       		.byte	0x9f
 7993 0ad8 52070000 		.4byte	.LVL319
 7994 0adc 74070000 		.4byte	.LFE79
 7995 0ae0 0200     		.2byte	0x2
 7996 0ae2 30       		.byte	0x30
 7997 0ae3 9F       		.byte	0x9f
 7998 0ae4 00000000 		.4byte	0
 7999 0ae8 00000000 		.4byte	0
 8000              	.LLST44:
 8001 0aec E4000000 		.4byte	.LVL127
 8002 0af0 2C010000 		.4byte	.LVL137
 8003 0af4 0200     		.2byte	0x2
 8004 0af6 30       		.byte	0x30
 8005 0af7 9F       		.byte	0x9f
 8006 0af8 2C010000 		.4byte	.LVL137
 8007 0afc 32010000 		.4byte	.LVL140
 8008 0b00 0100     		.2byte	0x1
 8009 0b02 59       		.byte	0x59
 8010 0b03 32010000 		.4byte	.LVL140
 8011 0b07 38010000 		.4byte	.LVL142
 8012 0b0b 0200     		.2byte	0x2
 8013 0b0d 30       		.byte	0x30
 8014 0b0e 9F       		.byte	0x9f
 8015 0b0f B6030000 		.4byte	.LVL196
 8016 0b13 BE030000 		.4byte	.LVL197
 8017 0b17 0300     		.2byte	0x3
 8018 0b19 79       		.byte	0x79
 8019 0b1a 7E       		.sleb128 -2
 8020 0b1b 9F       		.byte	0x9f
 8021 0b1c BE030000 		.4byte	.LVL197
 8022 0b20 C0030000 		.4byte	.LVL198
 8023 0b24 0300     		.2byte	0x3
 8024 0b26 79       		.byte	0x79
 8025 0b27 7F       		.sleb128 -1
 8026 0b28 9F       		.byte	0x9f
 8027 0b29 B2040000 		.4byte	.LVL228
 8028 0b2d CC040000 		.4byte	.LVL230
ARM GAS  C:\Users\chemi\AppData\Local\Temp\ccvd4c4w.s 			page 161


 8029 0b31 0300     		.2byte	0x3
 8030 0b33 79       		.byte	0x79
 8031 0b34 7E       		.sleb128 -2
 8032 0b35 9F       		.byte	0x9f
 8033 0b36 CC040000 		.4byte	.LVL230
 8034 0b3a D4040000 		.4byte	.LVL231
 8035 0b3e 0300     		.2byte	0x3
 8036 0b40 79       		.byte	0x79
 8037 0b41 7F       		.sleb128 -1
 8038 0b42 9F       		.byte	0x9f
 8039 0b43 E8060000 		.4byte	.LVL305
 8040 0b47 F2060000 		.4byte	.LVL306
 8041 0b4b 0100     		.2byte	0x1
 8042 0b4d 53       		.byte	0x53
 8043 0b4e 00000000 		.4byte	0
 8044 0b52 00000000 		.4byte	0
 8045              	.LLST45:
 8046 0b56 56000000 		.4byte	.LVL101
 8047 0b5a 58000000 		.4byte	.LVL102
 8048 0b5e 0200     		.2byte	0x2
 8049 0b60 31       		.byte	0x31
 8050 0b61 9F       		.byte	0x9f
 8051 0b62 64000000 		.4byte	.LVL103
 8052 0b66 66000000 		.4byte	.LVL104
 8053 0b6a 0200     		.2byte	0x2
 8054 0b6c 31       		.byte	0x31
 8055 0b6d 9F       		.byte	0x9f
 8056 0b6e 6A000000 		.4byte	.LVL105
 8057 0b72 6C000000 		.4byte	.LVL106
 8058 0b76 0200     		.2byte	0x2
 8059 0b78 31       		.byte	0x31
 8060 0b79 9F       		.byte	0x9f
 8061 0b7a 70000000 		.4byte	.LVL107
 8062 0b7e 72000000 		.4byte	.LVL108
 8063 0b82 0200     		.2byte	0x2
 8064 0b84 31       		.byte	0x31
 8065 0b85 9F       		.byte	0x9f
 8066 0b86 76000000 		.4byte	.LVL109
 8067 0b8a 78000000 		.4byte	.LVL110
 8068 0b8e 0200     		.2byte	0x2
 8069 0b90 31       		.byte	0x31
 8070 0b91 9F       		.byte	0x9f
 8071 0b92 78000000 		.4byte	.LVL110
 8072 0b96 92000000 		.4byte	.LVL114
 8073 0b9a 0200     		.2byte	0x2
 8074 0b9c 30       		.byte	0x30
 8075 0b9d 9F       		.byte	0x9f
 8076 0b9e B4000000 		.4byte	.LVL118
 8077 0ba2 B8000000 		.4byte	.LVL119
 8078 0ba6 0200     		.2byte	0x2
 8079 0ba8 31       		.byte	0x31
 8080 0ba9 9F       		.byte	0x9f
 8081 0baa B8000000 		.4byte	.LVL119
 8082 0bae 74070000 		.4byte	.LFE79
 8083 0bb2 0200     		.2byte	0x2
 8084 0bb4 30       		.byte	0x30
 8085 0bb5 9F       		.byte	0x9f
ARM GAS  C:\Users\chemi\AppData\Local\Temp\ccvd4c4w.s 			page 162


 8086 0bb6 00000000 		.4byte	0
 8087 0bba 00000000 		.4byte	0
 8088              	.LLST46:
 8089 0bbe 0E000000 		.4byte	.LVL92
 8090 0bc2 1A000000 		.4byte	.LVL93
 8091 0bc6 0200     		.2byte	0x2
 8092 0bc8 30       		.byte	0x30
 8093 0bc9 9F       		.byte	0x9f
 8094 0bca 1A000000 		.4byte	.LVL93
 8095 0bce 2E000000 		.4byte	.LVL95
 8096 0bd2 0100     		.2byte	0x1
 8097 0bd4 55       		.byte	0x55
 8098 0bd5 2E000000 		.4byte	.LVL95
 8099 0bd9 38000000 		.4byte	.LVL97
 8100 0bdd 0100     		.2byte	0x1
 8101 0bdf 54       		.byte	0x54
 8102 0be0 38000000 		.4byte	.LVL97
 8103 0be4 88000000 		.4byte	.LVL112
 8104 0be8 0100     		.2byte	0x1
 8105 0bea 55       		.byte	0x55
 8106 0beb 88000000 		.4byte	.LVL112
 8107 0bef 96000000 		.4byte	.LVL115
 8108 0bf3 0100     		.2byte	0x1
 8109 0bf5 54       		.byte	0x54
 8110 0bf6 96000000 		.4byte	.LVL115
 8111 0bfa 26030000 		.4byte	.LVL178
 8112 0bfe 0100     		.2byte	0x1
 8113 0c00 55       		.byte	0x55
 8114 0c01 26030000 		.4byte	.LVL178
 8115 0c05 28030000 		.4byte	.LVL179
 8116 0c09 0100     		.2byte	0x1
 8117 0c0b 50       		.byte	0x50
 8118 0c0c 28030000 		.4byte	.LVL179
 8119 0c10 5E030000 		.4byte	.LVL183
 8120 0c14 0100     		.2byte	0x1
 8121 0c16 55       		.byte	0x55
 8122 0c17 5E030000 		.4byte	.LVL183
 8123 0c1b 64030000 		.4byte	.LVL185
 8124 0c1f 0100     		.2byte	0x1
 8125 0c21 50       		.byte	0x50
 8126 0c22 64030000 		.4byte	.LVL185
 8127 0c26 F8050000 		.4byte	.LVL267
 8128 0c2a 0100     		.2byte	0x1
 8129 0c2c 55       		.byte	0x55
 8130 0c2d 00060000 		.4byte	.LVL270
 8131 0c31 08060000 		.4byte	.LVL272
 8132 0c35 0100     		.2byte	0x1
 8133 0c37 55       		.byte	0x55
 8134 0c38 0E060000 		.4byte	.LVL273
 8135 0c3c 1A060000 		.4byte	.LVL275
 8136 0c40 0100     		.2byte	0x1
 8137 0c42 52       		.byte	0x52
 8138 0c43 26060000 		.4byte	.LVL277
 8139 0c47 2A060000 		.4byte	.LVL278
 8140 0c4b 0100     		.2byte	0x1
 8141 0c4d 52       		.byte	0x52
 8142 0c4e 2A060000 		.4byte	.LVL278
ARM GAS  C:\Users\chemi\AppData\Local\Temp\ccvd4c4w.s 			page 163


 8143 0c52 40060000 		.4byte	.LVL280
 8144 0c56 0100     		.2byte	0x1
 8145 0c58 55       		.byte	0x55
 8146 0c59 40060000 		.4byte	.LVL280
 8147 0c5d 58060000 		.4byte	.LVL284
 8148 0c61 0100     		.2byte	0x1
 8149 0c63 59       		.byte	0x59
 8150 0c64 58060000 		.4byte	.LVL284
 8151 0c68 66060000 		.4byte	.LVL286
 8152 0c6c 0100     		.2byte	0x1
 8153 0c6e 54       		.byte	0x54
 8154 0c6f 66060000 		.4byte	.LVL286
 8155 0c73 80060000 		.4byte	.LVL288
 8156 0c77 0100     		.2byte	0x1
 8157 0c79 59       		.byte	0x59
 8158 0c7a 80060000 		.4byte	.LVL288
 8159 0c7e AA060000 		.4byte	.LVL292
 8160 0c82 0100     		.2byte	0x1
 8161 0c84 55       		.byte	0x55
 8162 0c85 B0060000 		.4byte	.LVL293
 8163 0c89 B8060000 		.4byte	.LVL295
 8164 0c8d 0100     		.2byte	0x1
 8165 0c8f 52       		.byte	0x52
 8166 0c90 C6060000 		.4byte	.LVL297
 8167 0c94 CA060000 		.4byte	.LVL298
 8168 0c98 0100     		.2byte	0x1
 8169 0c9a 52       		.byte	0x52
 8170 0c9b CA060000 		.4byte	.LVL298
 8171 0c9f CE060000 		.4byte	.LVL299
 8172 0ca3 0100     		.2byte	0x1
 8173 0ca5 55       		.byte	0x55
 8174 0ca6 D2060000 		.4byte	.LVL300
 8175 0caa DA060000 		.4byte	.LVL302
 8176 0cae 0100     		.2byte	0x1
 8177 0cb0 52       		.byte	0x52
 8178 0cb1 E4060000 		.4byte	.LVL304
 8179 0cb5 FA060000 		.4byte	.LVL307
 8180 0cb9 0100     		.2byte	0x1
 8181 0cbb 52       		.byte	0x52
 8182 0cbc FA060000 		.4byte	.LVL307
 8183 0cc0 04070000 		.4byte	.LVL308
 8184 0cc4 0100     		.2byte	0x1
 8185 0cc6 55       		.byte	0x55
 8186 0cc7 04070000 		.4byte	.LVL308
 8187 0ccb 14070000 		.4byte	.LVL310
 8188 0ccf 0100     		.2byte	0x1
 8189 0cd1 54       		.byte	0x54
 8190 0cd2 14070000 		.4byte	.LVL310
 8191 0cd6 4C070000 		.4byte	.LVL317
 8192 0cda 0100     		.2byte	0x1
 8193 0cdc 55       		.byte	0x55
 8194 0cdd 4C070000 		.4byte	.LVL317
 8195 0ce1 52070000 		.4byte	.LVL319
 8196 0ce5 0100     		.2byte	0x1
 8197 0ce7 50       		.byte	0x50
 8198 0ce8 52070000 		.4byte	.LVL319
 8199 0cec 74070000 		.4byte	.LFE79
ARM GAS  C:\Users\chemi\AppData\Local\Temp\ccvd4c4w.s 			page 164


 8200 0cf0 0100     		.2byte	0x1
 8201 0cf2 55       		.byte	0x55
 8202 0cf3 00000000 		.4byte	0
 8203 0cf7 00000000 		.4byte	0
 8204              	.LLST47:
 8205 0cfb CE000000 		.4byte	.LVL120
 8206 0cff D4000000 		.4byte	.LVL121
 8207 0d03 0100     		.2byte	0x1
 8208 0d05 53       		.byte	0x53
 8209 0d06 D4000000 		.4byte	.LVL121
 8210 0d0a DE000000 		.4byte	.LVL125
 8211 0d0e 0200     		.2byte	0x2
 8212 0d10 78       		.byte	0x78
 8213 0d11 00       		.sleb128 0
 8214 0d12 DE000000 		.4byte	.LVL125
 8215 0d16 E0000000 		.4byte	.LVL126
 8216 0d1a 0200     		.2byte	0x2
 8217 0d1c 72       		.byte	0x72
 8218 0d1d 7C       		.sleb128 -4
 8219 0d1e 00000000 		.4byte	0
 8220 0d22 00000000 		.4byte	0
 8221              	.LLST48:
 8222 0d26 16010000 		.4byte	.LVL132
 8223 0d2a 1A010000 		.4byte	.LVL133
 8224 0d2e 0C00     		.2byte	0xc
 8225 0d30 79       		.byte	0x79
 8226 0d31 50       		.sleb128 -48
 8227 0d32 70       		.byte	0x70
 8228 0d33 00       		.sleb128 0
 8229 0d34 1E       		.byte	0x1e
 8230 0d35 73       		.byte	0x73
 8231 0d36 00       		.sleb128 0
 8232 0d37 22       		.byte	0x22
 8233 0d38 08       		.byte	0x8
 8234 0d39 30       		.byte	0x30
 8235 0d3a 1C       		.byte	0x1c
 8236 0d3b 9F       		.byte	0x9f
 8237 0d3c 1A010000 		.4byte	.LVL133
 8238 0d40 1C010000 		.4byte	.LVL134
 8239 0d44 0C00     		.2byte	0xc
 8240 0d46 70       		.byte	0x70
 8241 0d47 00       		.sleb128 0
 8242 0d48 79       		.byte	0x79
 8243 0d49 00       		.sleb128 0
 8244 0d4a 1E       		.byte	0x1e
 8245 0d4b 73       		.byte	0x73
 8246 0d4c 00       		.sleb128 0
 8247 0d4d 22       		.byte	0x22
 8248 0d4e 08       		.byte	0x8
 8249 0d4f 30       		.byte	0x30
 8250 0d50 1C       		.byte	0x1c
 8251 0d51 9F       		.byte	0x9f
 8252 0d52 00000000 		.4byte	0
 8253 0d56 00000000 		.4byte	0
 8254              	.LLST49:
 8255 0d5a 20010000 		.4byte	.LVL135
 8256 0d5e 28010000 		.4byte	.LVL136
ARM GAS  C:\Users\chemi\AppData\Local\Temp\ccvd4c4w.s 			page 165


 8257 0d62 0200     		.2byte	0x2
 8258 0d64 78       		.byte	0x78
 8259 0d65 00       		.sleb128 0
 8260 0d66 28010000 		.4byte	.LVL136
 8261 0d6a 2E010000 		.4byte	.LVL138
 8262 0d6e 0100     		.2byte	0x1
 8263 0d70 53       		.byte	0x53
 8264 0d71 2E010000 		.4byte	.LVL138
 8265 0d75 32010000 		.4byte	.LVL140
 8266 0d79 0200     		.2byte	0x2
 8267 0d7b 78       		.byte	0x78
 8268 0d7c 7C       		.sleb128 -4
 8269 0d7d 00000000 		.4byte	0
 8270 0d81 00000000 		.4byte	0
 8271              	.LLST50:
 8272 0d85 9C010000 		.4byte	.LVL153
 8273 0d89 A2010000 		.4byte	.LVL155
 8274 0d8d 0200     		.2byte	0x2
 8275 0d8f 40       		.byte	0x40
 8276 0d90 9F       		.byte	0x9f
 8277 0d91 BC010000 		.4byte	.LVL156
 8278 0d95 BE010000 		.4byte	.LVL157
 8279 0d99 0200     		.2byte	0x2
 8280 0d9b 32       		.byte	0x32
 8281 0d9c 9F       		.byte	0x9f
 8282 0d9d FE010000 		.4byte	.LVL162
 8283 0da1 10020000 		.4byte	.LVL165
 8284 0da5 0200     		.2byte	0x2
 8285 0da7 3A       		.byte	0x3a
 8286 0da8 9F       		.byte	0x9f
 8287 0da9 00000000 		.4byte	0
 8288 0dad 00000000 		.4byte	0
 8289              	.LLST51:
 8290 0db1 48020000 		.4byte	.LVL169
 8291 0db5 50020000 		.4byte	.LVL170
 8292 0db9 0600     		.2byte	0x6
 8293 0dbb 50       		.byte	0x50
 8294 0dbc 93       		.byte	0x93
 8295 0dbd 04       		.uleb128 0x4
 8296 0dbe 51       		.byte	0x51
 8297 0dbf 93       		.byte	0x93
 8298 0dc0 04       		.uleb128 0x4
 8299 0dc1 50020000 		.4byte	.LVL170
 8300 0dc5 62020000 		.4byte	.LVL171
 8301 0dc9 0600     		.2byte	0x6
 8302 0dcb 50       		.byte	0x50
 8303 0dcc 93       		.byte	0x93
 8304 0dcd 04       		.uleb128 0x4
 8305 0dce 53       		.byte	0x53
 8306 0dcf 93       		.byte	0x93
 8307 0dd0 04       		.uleb128 0x4
 8308 0dd1 00000000 		.4byte	0
 8309 0dd5 00000000 		.4byte	0
 8310              	.LLST52:
 8311 0dd9 72020000 		.4byte	.LVL172
 8312 0ddd 80020000 		.4byte	.LVL173
 8313 0de1 0100     		.2byte	0x1
ARM GAS  C:\Users\chemi\AppData\Local\Temp\ccvd4c4w.s 			page 166


 8314 0de3 52       		.byte	0x52
 8315 0de4 00000000 		.4byte	0
 8316 0de8 00000000 		.4byte	0
 8317              	.LLST53:
 8318 0dec AE020000 		.4byte	.LVL174
 8319 0df0 BC020000 		.4byte	.LVL175
 8320 0df4 0100     		.2byte	0x1
 8321 0df6 52       		.byte	0x52
 8322 0df7 00000000 		.4byte	0
 8323 0dfb 00000000 		.4byte	0
 8324              	.LLST54:
 8325 0dff 3E030000 		.4byte	.LVL180
 8326 0e03 4E030000 		.4byte	.LVL181
 8327 0e07 0100     		.2byte	0x1
 8328 0e09 52       		.byte	0x52
 8329 0e0a 00000000 		.4byte	0
 8330 0e0e 00000000 		.4byte	0
 8331              	.LLST55:
 8332 0e12 F2010000 		.4byte	.LVL161
 8333 0e16 FE010000 		.4byte	.LVL162
 8334 0e1a 0100     		.2byte	0x1
 8335 0e1c 58       		.byte	0x58
 8336 0e1d 80060000 		.4byte	.LVL288
 8337 0e21 CE060000 		.4byte	.LVL299
 8338 0e25 0100     		.2byte	0x1
 8339 0e27 58       		.byte	0x58
 8340 0e28 D2060000 		.4byte	.LVL300
 8341 0e2c D6060000 		.4byte	.LVL301
 8342 0e30 0100     		.2byte	0x1
 8343 0e32 58       		.byte	0x58
 8344 0e33 D6060000 		.4byte	.LVL301
 8345 0e37 DA060000 		.4byte	.LVL302
 8346 0e3b 0300     		.2byte	0x3
 8347 0e3d 78       		.byte	0x78
 8348 0e3e 7F       		.sleb128 -1
 8349 0e3f 9F       		.byte	0x9f
 8350 0e40 DA060000 		.4byte	.LVL302
 8351 0e44 E4060000 		.4byte	.LVL304
 8352 0e48 0100     		.2byte	0x1
 8353 0e4a 58       		.byte	0x58
 8354 0e4b E4060000 		.4byte	.LVL304
 8355 0e4f 18070000 		.4byte	.LVL311
 8356 0e53 0300     		.2byte	0x3
 8357 0e55 78       		.byte	0x78
 8358 0e56 7F       		.sleb128 -1
 8359 0e57 9F       		.byte	0x9f
 8360 0e58 00000000 		.4byte	0
 8361 0e5c 00000000 		.4byte	0
 8362              	.LLST56:
 8363 0e60 9E060000 		.4byte	.LVL291
 8364 0e64 B6060000 		.4byte	.LVL294
 8365 0e68 0100     		.2byte	0x1
 8366 0e6a 57       		.byte	0x57
 8367 0e6b B6060000 		.4byte	.LVL294
 8368 0e6f CA060000 		.4byte	.LVL298
 8369 0e73 0100     		.2byte	0x1
 8370 0e75 54       		.byte	0x54
ARM GAS  C:\Users\chemi\AppData\Local\Temp\ccvd4c4w.s 			page 167


 8371 0e76 CA060000 		.4byte	.LVL298
 8372 0e7a CE060000 		.4byte	.LVL299
 8373 0e7e 0100     		.2byte	0x1
 8374 0e80 57       		.byte	0x57
 8375 0e81 00000000 		.4byte	0
 8376 0e85 00000000 		.4byte	0
 8377              	.LLST57:
 8378 0e89 80060000 		.4byte	.LVL288
 8379 0e8d 94060000 		.4byte	.LVL290
 8380 0e91 0100     		.2byte	0x1
 8381 0e93 57       		.byte	0x57
 8382 0e94 00000000 		.4byte	0
 8383 0e98 00000000 		.4byte	0
 8384              	.LLST58:
 8385 0e9c 78030000 		.4byte	.LVL187
 8386 0ea0 DE050000 		.4byte	.LVL263
 8387 0ea4 0100     		.2byte	0x1
 8388 0ea6 54       		.byte	0x54
 8389 0ea7 F6050000 		.4byte	.LVL266
 8390 0eab F8050000 		.4byte	.LVL267
 8391 0eaf 0100     		.2byte	0x1
 8392 0eb1 54       		.byte	0x54
 8393 0eb2 00000000 		.4byte	0
 8394 0eb6 00000000 		.4byte	0
 8395              	.LLST59:
 8396 0eba 78030000 		.4byte	.LVL187
 8397 0ebe F8050000 		.4byte	.LVL267
 8398 0ec2 0300     		.2byte	0x3
 8399 0ec4 91       		.byte	0x91
 8400 0ec5 947F     		.sleb128 -108
 8401 0ec7 00000000 		.4byte	0
 8402 0ecb 00000000 		.4byte	0
 8403              	.LLST60:
 8404 0ecf B6030000 		.4byte	.LVL196
 8405 0ed3 BE030000 		.4byte	.LVL197
 8406 0ed7 0300     		.2byte	0x3
 8407 0ed9 79       		.byte	0x79
 8408 0eda 7E       		.sleb128 -2
 8409 0edb 9F       		.byte	0x9f
 8410 0edc BE030000 		.4byte	.LVL197
 8411 0ee0 C0030000 		.4byte	.LVL198
 8412 0ee4 0300     		.2byte	0x3
 8413 0ee6 79       		.byte	0x79
 8414 0ee7 7F       		.sleb128 -1
 8415 0ee8 9F       		.byte	0x9f
 8416 0ee9 B2040000 		.4byte	.LVL228
 8417 0eed CC040000 		.4byte	.LVL230
 8418 0ef1 0300     		.2byte	0x3
 8419 0ef3 79       		.byte	0x79
 8420 0ef4 7E       		.sleb128 -2
 8421 0ef5 9F       		.byte	0x9f
 8422 0ef6 CC040000 		.4byte	.LVL230
 8423 0efa D4040000 		.4byte	.LVL231
 8424 0efe 0300     		.2byte	0x3
 8425 0f00 79       		.byte	0x79
 8426 0f01 7F       		.sleb128 -1
 8427 0f02 9F       		.byte	0x9f
ARM GAS  C:\Users\chemi\AppData\Local\Temp\ccvd4c4w.s 			page 168


 8428 0f03 00000000 		.4byte	0
 8429 0f07 00000000 		.4byte	0
 8430              	.LLST61:
 8431 0f0b 78030000 		.4byte	.LVL187
 8432 0f0f 7E030000 		.4byte	.LVL188
 8433 0f13 0600     		.2byte	0x6
 8434 0f15 52       		.byte	0x52
 8435 0f16 93       		.byte	0x93
 8436 0f17 04       		.uleb128 0x4
 8437 0f18 53       		.byte	0x53
 8438 0f19 93       		.byte	0x93
 8439 0f1a 04       		.uleb128 0x4
 8440 0f1b 7E030000 		.4byte	.LVL188
 8441 0f1f 83030000 		.4byte	.LVL189-1
 8442 0f23 0600     		.2byte	0x6
 8443 0f25 50       		.byte	0x50
 8444 0f26 93       		.byte	0x93
 8445 0f27 04       		.uleb128 0x4
 8446 0f28 51       		.byte	0x51
 8447 0f29 93       		.byte	0x93
 8448 0f2a 04       		.uleb128 0x4
 8449 0f2b 83030000 		.4byte	.LVL189-1
 8450 0f2f 98030000 		.4byte	.LVL192
 8451 0f33 0300     		.2byte	0x3
 8452 0f35 91       		.byte	0x91
 8453 0f36 A07F     		.sleb128 -96
 8454 0f38 98030000 		.4byte	.LVL192
 8455 0f3c 9C030000 		.4byte	.LVL193
 8456 0f40 0600     		.2byte	0x6
 8457 0f42 50       		.byte	0x50
 8458 0f43 93       		.byte	0x93
 8459 0f44 04       		.uleb128 0x4
 8460 0f45 51       		.byte	0x51
 8461 0f46 93       		.byte	0x93
 8462 0f47 04       		.uleb128 0x4
 8463 0f48 9C030000 		.4byte	.LVL193
 8464 0f4c B6050000 		.4byte	.LVL256
 8465 0f50 0300     		.2byte	0x3
 8466 0f52 91       		.byte	0x91
 8467 0f53 A07F     		.sleb128 -96
 8468 0f55 F6050000 		.4byte	.LVL266
 8469 0f59 F8050000 		.4byte	.LVL267
 8470 0f5d 0300     		.2byte	0x3
 8471 0f5f 91       		.byte	0x91
 8472 0f60 A07F     		.sleb128 -96
 8473 0f62 00000000 		.4byte	0
 8474 0f66 00000000 		.4byte	0
 8475              	.LLST62:
 8476 0f6a 78030000 		.4byte	.LVL187
 8477 0f6e 84050000 		.4byte	.LVL251
 8478 0f72 0100     		.2byte	0x1
 8479 0f74 55       		.byte	0x55
 8480 0f75 84050000 		.4byte	.LVL251
 8481 0f79 94050000 		.4byte	.LVL252
 8482 0f7d 0100     		.2byte	0x1
 8483 0f7f 59       		.byte	0x59
 8484 0f80 94050000 		.4byte	.LVL252
ARM GAS  C:\Users\chemi\AppData\Local\Temp\ccvd4c4w.s 			page 169


 8485 0f84 A2050000 		.4byte	.LVL254
 8486 0f88 0100     		.2byte	0x1
 8487 0f8a 5B       		.byte	0x5b
 8488 0f8b A2050000 		.4byte	.LVL254
 8489 0f8f AA050000 		.4byte	.LVL255
 8490 0f93 0100     		.2byte	0x1
 8491 0f95 55       		.byte	0x55
 8492 0f96 AA050000 		.4byte	.LVL255
 8493 0f9a B8050000 		.4byte	.LVL257
 8494 0f9e 0100     		.2byte	0x1
 8495 0fa0 59       		.byte	0x59
 8496 0fa1 C0050000 		.4byte	.LVL258
 8497 0fa5 C8050000 		.4byte	.LVL259
 8498 0fa9 0100     		.2byte	0x1
 8499 0fab 52       		.byte	0x52
 8500 0fac D6050000 		.4byte	.LVL261
 8501 0fb0 DC050000 		.4byte	.LVL262
 8502 0fb4 0100     		.2byte	0x1
 8503 0fb6 52       		.byte	0x52
 8504 0fb7 DC050000 		.4byte	.LVL262
 8505 0fbb DE050000 		.4byte	.LVL263
 8506 0fbf 0B00     		.2byte	0xb
 8507 0fc1 7B       		.byte	0x7b
 8508 0fc2 00       		.sleb128 0
 8509 0fc3 91       		.byte	0x91
 8510 0fc4 A07F     		.sleb128 -96
 8511 0fc6 06       		.byte	0x6
 8512 0fc7 22       		.byte	0x22
 8513 0fc8 7A       		.byte	0x7a
 8514 0fc9 00       		.sleb128 0
 8515 0fca 1C       		.byte	0x1c
 8516 0fcb 9F       		.byte	0x9f
 8517 0fcc DE050000 		.4byte	.LVL263
 8518 0fd0 E8050000 		.4byte	.LVL264
 8519 0fd4 0100     		.2byte	0x1
 8520 0fd6 52       		.byte	0x52
 8521 0fd7 E8050000 		.4byte	.LVL264
 8522 0fdb F6050000 		.4byte	.LVL266
 8523 0fdf 0100     		.2byte	0x1
 8524 0fe1 54       		.byte	0x54
 8525 0fe2 F6050000 		.4byte	.LVL266
 8526 0fe6 F8050000 		.4byte	.LVL267
 8527 0fea 0100     		.2byte	0x1
 8528 0fec 55       		.byte	0x55
 8529 0fed 00000000 		.4byte	0
 8530 0ff1 00000000 		.4byte	0
 8531              	.LLST63:
 8532 0ff5 78030000 		.4byte	.LVL187
 8533 0ff9 FC050000 		.4byte	.LVL268
 8534 0ffd 0100     		.2byte	0x1
 8535 0fff 55       		.byte	0x55
 8536 1000 00000000 		.4byte	0
 8537 1004 00000000 		.4byte	0
 8538              	.LLST64:
 8539 1008 78030000 		.4byte	.LVL187
 8540 100c AC030000 		.4byte	.LVL195
 8541 1010 0200     		.2byte	0x2
ARM GAS  C:\Users\chemi\AppData\Local\Temp\ccvd4c4w.s 			page 170


 8542 1012 30       		.byte	0x30
 8543 1013 9F       		.byte	0x9f
 8544 1014 D6040000 		.4byte	.LVL232
 8545 1018 DE040000 		.4byte	.LVL233
 8546 101c 0100     		.2byte	0x1
 8547 101e 57       		.byte	0x57
 8548 101f DE040000 		.4byte	.LVL233
 8549 1023 E4040000 		.4byte	.LVL234
 8550 1027 0300     		.2byte	0x3
 8551 1029 77       		.byte	0x77
 8552 102a 01       		.sleb128 1
 8553 102b 9F       		.byte	0x9f
 8554 102c E4040000 		.4byte	.LVL234
 8555 1030 F4040000 		.4byte	.LVL236
 8556 1034 0100     		.2byte	0x1
 8557 1036 57       		.byte	0x57
 8558 1037 FA040000 		.4byte	.LVL237
 8559 103b FE040000 		.4byte	.LVL238
 8560 103f 0300     		.2byte	0x3
 8561 1041 77       		.byte	0x77
 8562 1042 01       		.sleb128 1
 8563 1043 9F       		.byte	0x9f
 8564 1044 FE040000 		.4byte	.LVL238
 8565 1048 18050000 		.4byte	.LVL240
 8566 104c 0100     		.2byte	0x1
 8567 104e 57       		.byte	0x57
 8568 104f 48050000 		.4byte	.LVL241
 8569 1053 4A050000 		.4byte	.LVL242
 8570 1057 0100     		.2byte	0x1
 8571 1059 57       		.byte	0x57
 8572 105a 50050000 		.4byte	.LVL243
 8573 105e 58050000 		.4byte	.LVL244
 8574 1062 0300     		.2byte	0x3
 8575 1064 77       		.byte	0x77
 8576 1065 01       		.sleb128 1
 8577 1066 9F       		.byte	0x9f
 8578 1067 60050000 		.4byte	.LVL245
 8579 106b 68050000 		.4byte	.LVL246
 8580 106f 0300     		.2byte	0x3
 8581 1071 77       		.byte	0x77
 8582 1072 01       		.sleb128 1
 8583 1073 9F       		.byte	0x9f
 8584 1074 6C050000 		.4byte	.LVL247
 8585 1078 72050000 		.4byte	.LVL248
 8586 107c 0300     		.2byte	0x3
 8587 107e 77       		.byte	0x77
 8588 107f 01       		.sleb128 1
 8589 1080 9F       		.byte	0x9f
 8590 1081 7A050000 		.4byte	.LVL249
 8591 1085 7C050000 		.4byte	.LVL250
 8592 1089 0300     		.2byte	0x3
 8593 108b 08       		.byte	0x8
 8594 108c 20       		.byte	0x20
 8595 108d 9F       		.byte	0x9f
 8596 108e A2050000 		.4byte	.LVL254
 8597 1092 AA050000 		.4byte	.LVL255
 8598 1096 0300     		.2byte	0x3
ARM GAS  C:\Users\chemi\AppData\Local\Temp\ccvd4c4w.s 			page 171


 8599 1098 08       		.byte	0x8
 8600 1099 20       		.byte	0x20
 8601 109a 9F       		.byte	0x9f
 8602 109b 00000000 		.4byte	0
 8603 109f 00000000 		.4byte	0
 8604              	.LLST65:
 8605 10a3 78030000 		.4byte	.LVL187
 8606 10a7 12040000 		.4byte	.LVL209
 8607 10ab 0A00     		.2byte	0xa
 8608 10ad 9E       		.byte	0x9e
 8609 10ae 08       		.uleb128 0x8
 8610 10af 00000000 		.4byte	0
 8611 10b3 00000000 		.4byte	0
 8612 10b7 12040000 		.4byte	.LVL209
 8613 10bb 15040000 		.4byte	.LVL210-1
 8614 10bf 0600     		.2byte	0x6
 8615 10c1 50       		.byte	0x50
 8616 10c2 93       		.byte	0x93
 8617 10c3 04       		.uleb128 0x4
 8618 10c4 51       		.byte	0x51
 8619 10c5 93       		.byte	0x93
 8620 10c6 04       		.uleb128 0x4
 8621 10c7 15040000 		.4byte	.LVL210-1
 8622 10cb 8C040000 		.4byte	.LVL222
 8623 10cf 0300     		.2byte	0x3
 8624 10d1 91       		.byte	0x91
 8625 10d2 B07F     		.sleb128 -80
 8626 10d4 8C040000 		.4byte	.LVL222
 8627 10d8 AC040000 		.4byte	.LVL226
 8628 10dc 0600     		.2byte	0x6
 8629 10de 59       		.byte	0x59
 8630 10df 93       		.byte	0x93
 8631 10e0 04       		.uleb128 0x4
 8632 10e1 5A       		.byte	0x5a
 8633 10e2 93       		.byte	0x93
 8634 10e3 04       		.uleb128 0x4
 8635 10e4 AC040000 		.4byte	.LVL226
 8636 10e8 F4040000 		.4byte	.LVL236
 8637 10ec 0300     		.2byte	0x3
 8638 10ee 91       		.byte	0x91
 8639 10ef B07F     		.sleb128 -80
 8640 10f1 F6050000 		.4byte	.LVL266
 8641 10f5 F8050000 		.4byte	.LVL267
 8642 10f9 0300     		.2byte	0x3
 8643 10fb 91       		.byte	0x91
 8644 10fc B07F     		.sleb128 -80
 8645 10fe 00000000 		.4byte	0
 8646 1102 00000000 		.4byte	0
 8647              	.LLST66:
 8648 1106 78030000 		.4byte	.LVL187
 8649 110a 00060000 		.4byte	.LVL270
 8650 110e 0A00     		.2byte	0xa
 8651 1110 9E       		.byte	0x9e
 8652 1111 08       		.uleb128 0x8
 8653 1112 0000C0FF 		.4byte	0xffc00000
 8654 1116 FFFFDF41 		.4byte	0x41dfffff
 8655 111a 00000000 		.4byte	0
ARM GAS  C:\Users\chemi\AppData\Local\Temp\ccvd4c4w.s 			page 172


 8656 111e 00000000 		.4byte	0
 8657              	.LLST67:
 8658 1122 78030000 		.4byte	.LVL187
 8659 1126 86030000 		.4byte	.LVL190
 8660 112a 0200     		.2byte	0x2
 8661 112c 30       		.byte	0x30
 8662 112d 9F       		.byte	0x9f
 8663 112e 86030000 		.4byte	.LVL190
 8664 1132 9C030000 		.4byte	.LVL193
 8665 1136 0200     		.2byte	0x2
 8666 1138 31       		.byte	0x31
 8667 1139 9F       		.byte	0x9f
 8668 113a 9C030000 		.4byte	.LVL193
 8669 113e 9E030000 		.4byte	.LVL194
 8670 1142 0200     		.2byte	0x2
 8671 1144 30       		.byte	0x30
 8672 1145 9F       		.byte	0x9f
 8673 1146 9E030000 		.4byte	.LVL194
 8674 114a 84050000 		.4byte	.LVL251
 8675 114e 0100     		.2byte	0x1
 8676 1150 56       		.byte	0x56
 8677 1151 A2050000 		.4byte	.LVL254
 8678 1155 AA050000 		.4byte	.LVL255
 8679 1159 0100     		.2byte	0x1
 8680 115b 56       		.byte	0x56
 8681 115c F6050000 		.4byte	.LVL266
 8682 1160 F8050000 		.4byte	.LVL267
 8683 1164 0100     		.2byte	0x1
 8684 1166 56       		.byte	0x56
 8685 1167 00000000 		.4byte	0
 8686 116b 00000000 		.4byte	0
 8687              	.LLST68:
 8688 116f CC030000 		.4byte	.LVL200
 8689 1173 DB030000 		.4byte	.LVL201-1
 8690 1177 0100     		.2byte	0x1
 8691 1179 50       		.byte	0x50
 8692 117a DB030000 		.4byte	.LVL201-1
 8693 117e 04050000 		.4byte	.LVL239
 8694 1182 0100     		.2byte	0x1
 8695 1184 5B       		.byte	0x5b
 8696 1185 04050000 		.4byte	.LVL239
 8697 1189 18050000 		.4byte	.LVL240
 8698 118d 0100     		.2byte	0x1
 8699 118f 52       		.byte	0x52
 8700 1190 18050000 		.4byte	.LVL240
 8701 1194 84050000 		.4byte	.LVL251
 8702 1198 0100     		.2byte	0x1
 8703 119a 5B       		.byte	0x5b
 8704 119b A2050000 		.4byte	.LVL254
 8705 119f AA050000 		.4byte	.LVL255
 8706 11a3 0100     		.2byte	0x1
 8707 11a5 5B       		.byte	0x5b
 8708 11a6 F6050000 		.4byte	.LVL266
 8709 11aa F8050000 		.4byte	.LVL267
 8710 11ae 0100     		.2byte	0x1
 8711 11b0 5B       		.byte	0x5b
 8712 11b1 00000000 		.4byte	0
ARM GAS  C:\Users\chemi\AppData\Local\Temp\ccvd4c4w.s 			page 173


 8713 11b5 00000000 		.4byte	0
 8714              	.LLST69:
 8715 11b9 F4030000 		.4byte	.LVL204
 8716 11bd F7030000 		.4byte	.LVL205-1
 8717 11c1 0600     		.2byte	0x6
 8718 11c3 50       		.byte	0x50
 8719 11c4 93       		.byte	0x93
 8720 11c5 04       		.uleb128 0x4
 8721 11c6 51       		.byte	0x51
 8722 11c7 93       		.byte	0x93
 8723 11c8 04       		.uleb128 0x4
 8724 11c9 F7030000 		.4byte	.LVL205-1
 8725 11cd 12040000 		.4byte	.LVL209
 8726 11d1 0300     		.2byte	0x3
 8727 11d3 91       		.byte	0x91
 8728 11d4 B07F     		.sleb128 -80
 8729 11d6 00000000 		.4byte	0
 8730 11da 00000000 		.4byte	0
 8731              	.LLST70:
 8732 11de FA030000 		.4byte	.LVL206
 8733 11e2 FD030000 		.4byte	.LVL207-1
 8734 11e6 0100     		.2byte	0x1
 8735 11e8 50       		.byte	0x50
 8736 11e9 FD030000 		.4byte	.LVL207-1
 8737 11ed 30040000 		.4byte	.LVL214
 8738 11f1 0100     		.2byte	0x1
 8739 11f3 5A       		.byte	0x5a
 8740 11f4 30040000 		.4byte	.LVL214
 8741 11f8 3A040000 		.4byte	.LVL216
 8742 11fc 0200     		.2byte	0x2
 8743 11fe 30       		.byte	0x30
 8744 11ff 9F       		.byte	0x9f
 8745 1200 3A040000 		.4byte	.LVL216
 8746 1204 8C040000 		.4byte	.LVL222
 8747 1208 0100     		.2byte	0x1
 8748 120a 5A       		.byte	0x5a
 8749 120b AC040000 		.4byte	.LVL226
 8750 120f C0040000 		.4byte	.LVL229
 8751 1213 0100     		.2byte	0x1
 8752 1215 5A       		.byte	0x5a
 8753 1216 CC040000 		.4byte	.LVL230
 8754 121a D6040000 		.4byte	.LVL232
 8755 121e 0100     		.2byte	0x1
 8756 1220 52       		.byte	0x52
 8757 1221 D6040000 		.4byte	.LVL232
 8758 1225 F4040000 		.4byte	.LVL236
 8759 1229 0100     		.2byte	0x1
 8760 122b 5A       		.byte	0x5a
 8761 122c F6050000 		.4byte	.LVL266
 8762 1230 F8050000 		.4byte	.LVL267
 8763 1234 0100     		.2byte	0x1
 8764 1236 5A       		.byte	0x5a
 8765 1237 00000000 		.4byte	0
 8766 123b 00000000 		.4byte	0
 8767              	.LLST71:
 8768 123f B2040000 		.4byte	.LVL228
 8769 1243 CC040000 		.4byte	.LVL230
ARM GAS  C:\Users\chemi\AppData\Local\Temp\ccvd4c4w.s 			page 174


 8770 1247 0300     		.2byte	0x3
 8771 1249 79       		.byte	0x79
 8772 124a 7E       		.sleb128 -2
 8773 124b 9F       		.byte	0x9f
 8774 124c CC040000 		.4byte	.LVL230
 8775 1250 D4040000 		.4byte	.LVL231
 8776 1254 0300     		.2byte	0x3
 8777 1256 79       		.byte	0x79
 8778 1257 7F       		.sleb128 -1
 8779 1258 9F       		.byte	0x9f
 8780 1259 00000000 		.4byte	0
 8781 125d 00000000 		.4byte	0
 8782              	.LLST72:
 8783 1261 00060000 		.4byte	.LVL270
 8784 1265 08060000 		.4byte	.LVL272
 8785 1269 0200     		.2byte	0x2
 8786 126b 31       		.byte	0x31
 8787 126c 9F       		.byte	0x9f
 8788 126d 0E060000 		.4byte	.LVL273
 8789 1271 12060000 		.4byte	.LVL274
 8790 1275 0300     		.2byte	0x3
 8791 1277 79       		.byte	0x79
 8792 1278 01       		.sleb128 1
 8793 1279 9F       		.byte	0x9f
 8794 127a 12060000 		.4byte	.LVL274
 8795 127e 2A060000 		.4byte	.LVL278
 8796 1282 0100     		.2byte	0x1
 8797 1284 57       		.byte	0x57
 8798 1285 2A060000 		.4byte	.LVL278
 8799 1289 2C060000 		.4byte	.LVL279
 8800 128d 0200     		.2byte	0x2
 8801 128f 31       		.byte	0x31
 8802 1290 9F       		.byte	0x9f
 8803 1291 2C060000 		.4byte	.LVL279
 8804 1295 46060000 		.4byte	.LVL282
 8805 1299 0100     		.2byte	0x1
 8806 129b 57       		.byte	0x57
 8807 129c 46060000 		.4byte	.LVL282
 8808 12a0 48060000 		.4byte	.LVL283
 8809 12a4 0300     		.2byte	0x3
 8810 12a6 77       		.byte	0x77
 8811 12a7 01       		.sleb128 1
 8812 12a8 9F       		.byte	0x9f
 8813 12a9 00000000 		.4byte	0
 8814 12ad 00000000 		.4byte	0
 8815              	.LLST73:
 8816 12b1 1C070000 		.4byte	.LVL313
 8817 12b5 52070000 		.4byte	.LVL319
 8818 12b9 0200     		.2byte	0x2
 8819 12bb 30       		.byte	0x30
 8820 12bc 9F       		.byte	0x9f
 8821 12bd 00000000 		.4byte	0
 8822 12c1 00000000 		.4byte	0
 8823              	.LLST74:
 8824 12c5 5A070000 		.4byte	.LVL321
 8825 12c9 72070000 		.4byte	.LVL323
 8826 12cd 0300     		.2byte	0x3
ARM GAS  C:\Users\chemi\AppData\Local\Temp\ccvd4c4w.s 			page 175


 8827 12cf 91       		.byte	0x91
 8828 12d0 947F     		.sleb128 -108
 8829 12d2 72070000 		.4byte	.LVL323
 8830 12d6 74070000 		.4byte	.LFE79
 8831 12da 0100     		.2byte	0x1
 8832 12dc 52       		.byte	0x52
 8833 12dd 00000000 		.4byte	0
 8834 12e1 00000000 		.4byte	0
 8835              	.LLST75:
 8836 12e5 00000000 		.4byte	.LVL326
 8837 12e9 12000000 		.4byte	.LVL327
 8838 12ed 0100     		.2byte	0x1
 8839 12ef 50       		.byte	0x50
 8840 12f0 12000000 		.4byte	.LVL327
 8841 12f4 19000000 		.4byte	.LVL328-1
 8842 12f8 0100     		.2byte	0x1
 8843 12fa 51       		.byte	0x51
 8844 12fb 19000000 		.4byte	.LVL328-1
 8845 12ff 28000000 		.4byte	.LFE81
 8846 1303 0400     		.2byte	0x4
 8847 1305 F3       		.byte	0xf3
 8848 1306 01       		.uleb128 0x1
 8849 1307 50       		.byte	0x50
 8850 1308 9F       		.byte	0x9f
 8851 1309 00000000 		.4byte	0
 8852 130d 00000000 		.4byte	0
 8853              	.LLST76:
 8854 1311 00000000 		.4byte	.LVL329
 8855 1315 14000000 		.4byte	.LVL331
 8856 1319 0100     		.2byte	0x1
 8857 131b 50       		.byte	0x50
 8858 131c 14000000 		.4byte	.LVL331
 8859 1320 17000000 		.4byte	.LVL332-1
 8860 1324 0100     		.2byte	0x1
 8861 1326 51       		.byte	0x51
 8862 1327 17000000 		.4byte	.LVL332-1
 8863 132b 28000000 		.4byte	.LFE82
 8864 132f 0400     		.2byte	0x4
 8865 1331 F3       		.byte	0xf3
 8866 1332 01       		.uleb128 0x1
 8867 1333 50       		.byte	0x50
 8868 1334 9F       		.byte	0x9f
 8869 1335 00000000 		.4byte	0
 8870 1339 00000000 		.4byte	0
 8871              	.LLST77:
 8872 133d 00000000 		.4byte	.LVL329
 8873 1341 12000000 		.4byte	.LVL330
 8874 1345 0100     		.2byte	0x1
 8875 1347 51       		.byte	0x51
 8876 1348 12000000 		.4byte	.LVL330
 8877 134c 17000000 		.4byte	.LVL332-1
 8878 1350 0100     		.2byte	0x1
 8879 1352 52       		.byte	0x52
 8880 1353 17000000 		.4byte	.LVL332-1
 8881 1357 28000000 		.4byte	.LFE82
 8882 135b 0400     		.2byte	0x4
 8883 135d F3       		.byte	0xf3
ARM GAS  C:\Users\chemi\AppData\Local\Temp\ccvd4c4w.s 			page 176


 8884 135e 01       		.uleb128 0x1
 8885 135f 51       		.byte	0x51
 8886 1360 9F       		.byte	0x9f
 8887 1361 00000000 		.4byte	0
 8888 1365 00000000 		.4byte	0
 8889              	.LLST78:
 8890 1369 00000000 		.4byte	.LVL333
 8891 136d 0C000000 		.4byte	.LVL337
 8892 1371 0100     		.2byte	0x1
 8893 1373 50       		.byte	0x50
 8894 1374 0C000000 		.4byte	.LVL337
 8895 1378 0F000000 		.4byte	.LVL338-1
 8896 137c 0100     		.2byte	0x1
 8897 137e 51       		.byte	0x51
 8898 137f 0F000000 		.4byte	.LVL338-1
 8899 1383 1C000000 		.4byte	.LFE83
 8900 1387 0400     		.2byte	0x4
 8901 1389 F3       		.byte	0xf3
 8902 138a 01       		.uleb128 0x1
 8903 138b 50       		.byte	0x50
 8904 138c 9F       		.byte	0x9f
 8905 138d 00000000 		.4byte	0
 8906 1391 00000000 		.4byte	0
 8907              	.LLST79:
 8908 1395 00000000 		.4byte	.LVL333
 8909 1399 0A000000 		.4byte	.LVL336
 8910 139d 0100     		.2byte	0x1
 8911 139f 51       		.byte	0x51
 8912 13a0 0A000000 		.4byte	.LVL336
 8913 13a4 0F000000 		.4byte	.LVL338-1
 8914 13a8 0100     		.2byte	0x1
 8915 13aa 52       		.byte	0x52
 8916 13ab 0F000000 		.4byte	.LVL338-1
 8917 13af 1C000000 		.4byte	.LFE83
 8918 13b3 0400     		.2byte	0x4
 8919 13b5 F3       		.byte	0xf3
 8920 13b6 01       		.uleb128 0x1
 8921 13b7 51       		.byte	0x51
 8922 13b8 9F       		.byte	0x9f
 8923 13b9 00000000 		.4byte	0
 8924 13bd 00000000 		.4byte	0
 8925              	.LLST80:
 8926 13c1 00000000 		.4byte	.LVL333
 8927 13c5 08000000 		.4byte	.LVL335
 8928 13c9 0100     		.2byte	0x1
 8929 13cb 52       		.byte	0x52
 8930 13cc 08000000 		.4byte	.LVL335
 8931 13d0 0F000000 		.4byte	.LVL338-1
 8932 13d4 0100     		.2byte	0x1
 8933 13d6 53       		.byte	0x53
 8934 13d7 0F000000 		.4byte	.LVL338-1
 8935 13db 1C000000 		.4byte	.LFE83
 8936 13df 0400     		.2byte	0x4
 8937 13e1 F3       		.byte	0xf3
 8938 13e2 01       		.uleb128 0x1
 8939 13e3 52       		.byte	0x52
 8940 13e4 9F       		.byte	0x9f
ARM GAS  C:\Users\chemi\AppData\Local\Temp\ccvd4c4w.s 			page 177


 8941 13e5 00000000 		.4byte	0
 8942 13e9 00000000 		.4byte	0
 8943              	.LLST81:
 8944 13ed 00000000 		.4byte	.LVL333
 8945 13f1 06000000 		.4byte	.LVL334
 8946 13f5 0100     		.2byte	0x1
 8947 13f7 53       		.byte	0x53
 8948 13f8 00000000 		.4byte	0
 8949 13fc 00000000 		.4byte	0
 8950              	.LLST82:
 8951 1400 00000000 		.4byte	.LVL339
 8952 1404 1A000000 		.4byte	.LVL341
 8953 1408 0100     		.2byte	0x1
 8954 140a 50       		.byte	0x50
 8955 140b 1A000000 		.4byte	.LVL341
 8956 140f 1D000000 		.4byte	.LVL342-1
 8957 1413 0200     		.2byte	0x2
 8958 1415 71       		.byte	0x71
 8959 1416 00       		.sleb128 0
 8960 1417 1D000000 		.4byte	.LVL342-1
 8961 141b 2C000000 		.4byte	.LFE84
 8962 141f 0400     		.2byte	0x4
 8963 1421 F3       		.byte	0xf3
 8964 1422 01       		.uleb128 0x1
 8965 1423 50       		.byte	0x50
 8966 1424 9F       		.byte	0x9f
 8967 1425 00000000 		.4byte	0
 8968 1429 00000000 		.4byte	0
 8969              	.LLST83:
 8970 142d 00000000 		.4byte	.LVL339
 8971 1431 14000000 		.4byte	.LVL340
 8972 1435 0100     		.2byte	0x1
 8973 1437 51       		.byte	0x51
 8974 1438 14000000 		.4byte	.LVL340
 8975 143c 1D000000 		.4byte	.LVL342-1
 8976 1440 0200     		.2byte	0x2
 8977 1442 91       		.byte	0x91
 8978 1443 5C       		.sleb128 -36
 8979 1444 1D000000 		.4byte	.LVL342-1
 8980 1448 2C000000 		.4byte	.LFE84
 8981 144c 0400     		.2byte	0x4
 8982 144e F3       		.byte	0xf3
 8983 144f 01       		.uleb128 0x1
 8984 1450 51       		.byte	0x51
 8985 1451 9F       		.byte	0x9f
 8986 1452 00000000 		.4byte	0
 8987 1456 00000000 		.4byte	0
 8988              	.LLST84:
 8989 145a 00000000 		.4byte	.LVL343
 8990 145e 06000000 		.4byte	.LVL344
 8991 1462 0100     		.2byte	0x1
 8992 1464 50       		.byte	0x50
 8993 1465 06000000 		.4byte	.LVL344
 8994 1469 3E000000 		.4byte	.LFE86
 8995 146d 0100     		.2byte	0x1
 8996 146f 55       		.byte	0x55
 8997 1470 00000000 		.4byte	0
ARM GAS  C:\Users\chemi\AppData\Local\Temp\ccvd4c4w.s 			page 178


 8998 1474 00000000 		.4byte	0
 8999              	.LLST85:
 9000 1478 00000000 		.4byte	.LVL343
 9001 147c 0E000000 		.4byte	.LVL345
 9002 1480 0100     		.2byte	0x1
 9003 1482 51       		.byte	0x51
 9004 1483 0E000000 		.4byte	.LVL345
 9005 1487 3E000000 		.4byte	.LFE86
 9006 148b 0100     		.2byte	0x1
 9007 148d 56       		.byte	0x56
 9008 148e 00000000 		.4byte	0
 9009 1492 00000000 		.4byte	0
 9010              	.LLST86:
 9011 1496 00000000 		.4byte	.LVL343
 9012 149a 0E000000 		.4byte	.LVL345
 9013 149e 0100     		.2byte	0x1
 9014 14a0 52       		.byte	0x52
 9015 14a1 0E000000 		.4byte	.LVL345
 9016 14a5 3E000000 		.4byte	.LFE86
 9017 14a9 0100     		.2byte	0x1
 9018 14ab 54       		.byte	0x54
 9019 14ac 00000000 		.4byte	0
 9020 14b0 00000000 		.4byte	0
 9021              	.LLST87:
 9022 14b4 14000000 		.4byte	.LVL346
 9023 14b8 24000000 		.4byte	.LVL348
 9024 14bc 0100     		.2byte	0x1
 9025 14be 50       		.byte	0x50
 9026 14bf 00000000 		.4byte	0
 9027 14c3 00000000 		.4byte	0
 9028              	.LLST88:
 9029 14c7 14000000 		.4byte	.LVL346
 9030 14cb 1E000000 		.4byte	.LVL347
 9031 14cf 0100     		.2byte	0x1
 9032 14d1 54       		.byte	0x54
 9033 14d2 1E000000 		.4byte	.LVL347
 9034 14d6 27000000 		.4byte	.LVL349-1
 9035 14da 0100     		.2byte	0x1
 9036 14dc 52       		.byte	0x52
 9037 14dd 00000000 		.4byte	0
 9038 14e1 00000000 		.4byte	0
 9039              	.LLST89:
 9040 14e5 28000000 		.4byte	.LVL349
 9041 14e9 32000000 		.4byte	.LVL352
 9042 14ed 0100     		.2byte	0x1
 9043 14ef 50       		.byte	0x50
 9044 14f0 00000000 		.4byte	0
 9045 14f4 00000000 		.4byte	0
 9046              	.LLST90:
 9047 14f8 00000000 		.4byte	.LVL354
 9048 14fc 1B000000 		.4byte	.LVL357-1
 9049 1500 0100     		.2byte	0x1
 9050 1502 50       		.byte	0x50
 9051 1503 1B000000 		.4byte	.LVL357-1
 9052 1507 1E000000 		.4byte	.LVL358
 9053 150b 0400     		.2byte	0x4
 9054 150d F3       		.byte	0xf3
ARM GAS  C:\Users\chemi\AppData\Local\Temp\ccvd4c4w.s 			page 179


 9055 150e 01       		.uleb128 0x1
 9056 150f 50       		.byte	0x50
 9057 1510 9F       		.byte	0x9f
 9058 1511 1E000000 		.4byte	.LVL358
 9059 1515 20000000 		.4byte	.LVL359
 9060 1519 0100     		.2byte	0x1
 9061 151b 50       		.byte	0x50
 9062 151c 20000000 		.4byte	.LVL359
 9063 1520 2C000000 		.4byte	.LVL360
 9064 1524 0100     		.2byte	0x1
 9065 1526 51       		.byte	0x51
 9066 1527 2C000000 		.4byte	.LVL360
 9067 152b 35000000 		.4byte	.LVL361-1
 9068 152f 0200     		.2byte	0x2
 9069 1531 91       		.byte	0x91
 9070 1532 4C       		.sleb128 -52
 9071 1533 35000000 		.4byte	.LVL361-1
 9072 1537 4C000000 		.4byte	.LFE87
 9073 153b 0400     		.2byte	0x4
 9074 153d F3       		.byte	0xf3
 9075 153e 01       		.uleb128 0x1
 9076 153f 50       		.byte	0x50
 9077 1540 9F       		.byte	0x9f
 9078 1541 00000000 		.4byte	0
 9079 1545 00000000 		.4byte	0
 9080              	.LLST91:
 9081 1549 14000000 		.4byte	.LVL355
 9082 154d 1B000000 		.4byte	.LVL357-1
 9083 1551 0200     		.2byte	0x2
 9084 1553 91       		.byte	0x91
 9085 1554 60       		.sleb128 -32
 9086 1555 00000000 		.4byte	0
 9087 1559 00000000 		.4byte	0
 9088              	.LLST92:
 9089 155d 14000000 		.4byte	.LVL355
 9090 1561 16000000 		.4byte	.LVL356
 9091 1565 0200     		.2byte	0x2
 9092 1567 72       		.byte	0x72
 9093 1568 04       		.sleb128 4
 9094 1569 16000000 		.4byte	.LVL356
 9095 156d 1B000000 		.4byte	.LVL357-1
 9096 1571 0100     		.2byte	0x1
 9097 1573 52       		.byte	0x52
 9098 1574 00000000 		.4byte	0
 9099 1578 00000000 		.4byte	0
 9100              	.LLST93:
 9101 157c 0C000000 		.4byte	.LVL363
 9102 1580 20000000 		.4byte	.LVL364
 9103 1584 0100     		.2byte	0x1
 9104 1586 52       		.byte	0x52
 9105 1587 20000000 		.4byte	.LVL364
 9106 158b 29000000 		.4byte	.LVL365-1
 9107 158f 0200     		.2byte	0x2
 9108 1591 91       		.byte	0x91
 9109 1592 44       		.sleb128 -60
 9110 1593 00000000 		.4byte	0
 9111 1597 00000000 		.4byte	0
ARM GAS  C:\Users\chemi\AppData\Local\Temp\ccvd4c4w.s 			page 180


 9112              		.section	.debug_aranges,"",%progbits
 9113 0000 9C000000 		.4byte	0x9c
 9114 0004 0200     		.2byte	0x2
 9115 0006 00000000 		.4byte	.Ldebug_info0
 9116 000a 04       		.byte	0x4
 9117 000b 00       		.byte	0
 9118 000c 0000     		.2byte	0
 9119 000e 0000     		.2byte	0
 9120 0010 00000000 		.4byte	.LFB68
 9121 0014 08000000 		.4byte	.LFE68-.LFB68
 9122 0018 00000000 		.4byte	.LFB69
 9123 001c 02000000 		.4byte	.LFE69-.LFB69
 9124 0020 00000000 		.4byte	.LFB71
 9125 0024 06000000 		.4byte	.LFE71-.LFB71
 9126 0028 00000000 		.4byte	.LFB75
 9127 002c 48010000 		.4byte	.LFE75-.LFB75
 9128 0030 00000000 		.4byte	.LFB76
 9129 0034 80000000 		.4byte	.LFE76-.LFB76
 9130 0038 00000000 		.4byte	.LFB77
 9131 003c A6000000 		.4byte	.LFE77-.LFB77
 9132 0040 00000000 		.4byte	.LFB70
 9133 0044 08000000 		.4byte	.LFE70-.LFB70
 9134 0048 00000000 		.4byte	.LFB85
 9135 004c 1E000000 		.4byte	.LFE85-.LFB85
 9136 0050 00000000 		.4byte	.LFB79
 9137 0054 74070000 		.4byte	.LFE79-.LFB79
 9138 0058 00000000 		.4byte	.LFB80
 9139 005c 28000000 		.4byte	.LFE80-.LFB80
 9140 0060 00000000 		.4byte	.LFB81
 9141 0064 28000000 		.4byte	.LFE81-.LFB81
 9142 0068 00000000 		.4byte	.LFB82
 9143 006c 28000000 		.4byte	.LFE82-.LFB82
 9144 0070 00000000 		.4byte	.LFB83
 9145 0074 1C000000 		.4byte	.LFE83-.LFB83
 9146 0078 00000000 		.4byte	.LFB84
 9147 007c 2C000000 		.4byte	.LFE84-.LFB84
 9148 0080 00000000 		.4byte	.LFB86
 9149 0084 3E000000 		.4byte	.LFE86-.LFB86
 9150 0088 00000000 		.4byte	.LFB87
 9151 008c 4C000000 		.4byte	.LFE87-.LFB87
 9152 0090 00000000 		.4byte	.LFB88
 9153 0094 40000000 		.4byte	.LFE88-.LFB88
 9154 0098 00000000 		.4byte	0
 9155 009c 00000000 		.4byte	0
 9156              		.section	.debug_ranges,"",%progbits
 9157              	.Ldebug_ranges0:
 9158 0000 9C010000 		.4byte	.LBB55
 9159 0004 A2010000 		.4byte	.LBE55
 9160 0008 BA010000 		.4byte	.LBB60
 9161 000c BE010000 		.4byte	.LBE60
 9162 0010 D0010000 		.4byte	.LBB61
 9163 0014 D4010000 		.4byte	.LBE61
 9164 0018 FE010000 		.4byte	.LBB67
 9165 001c 64030000 		.4byte	.LBE67
 9166 0020 00000000 		.4byte	0
 9167 0024 00000000 		.4byte	0
 9168 0028 E2010000 		.4byte	.LBB62
ARM GAS  C:\Users\chemi\AppData\Local\Temp\ccvd4c4w.s 			page 181


 9169 002c FE010000 		.4byte	.LBE62
 9170 0030 80060000 		.4byte	.LBB75
 9171 0034 1C070000 		.4byte	.LBE75
 9172 0038 00000000 		.4byte	0
 9173 003c 00000000 		.4byte	0
 9174 0040 80060000 		.4byte	.LBB63
 9175 0044 8C060000 		.4byte	.LBE63
 9176 0048 90060000 		.4byte	.LBB66
 9177 004c 94060000 		.4byte	.LBE66
 9178 0050 00000000 		.4byte	0
 9179 0054 00000000 		.4byte	0
 9180 0058 AC040000 		.4byte	.LBB70
 9181 005c F4040000 		.4byte	.LBE70
 9182 0060 18050000 		.4byte	.LBB71
 9183 0064 1A050000 		.4byte	.LBE71
 9184 0068 00000000 		.4byte	0
 9185 006c 00000000 		.4byte	0
 9186 0070 00000000 		.4byte	.LFB68
 9187 0074 08000000 		.4byte	.LFE68
 9188 0078 00000000 		.4byte	.LFB69
 9189 007c 02000000 		.4byte	.LFE69
 9190 0080 00000000 		.4byte	.LFB71
 9191 0084 06000000 		.4byte	.LFE71
 9192 0088 00000000 		.4byte	.LFB75
 9193 008c 48010000 		.4byte	.LFE75
 9194 0090 00000000 		.4byte	.LFB76
 9195 0094 80000000 		.4byte	.LFE76
 9196 0098 00000000 		.4byte	.LFB77
 9197 009c A6000000 		.4byte	.LFE77
 9198 00a0 00000000 		.4byte	.LFB70
 9199 00a4 08000000 		.4byte	.LFE70
 9200 00a8 00000000 		.4byte	.LFB85
 9201 00ac 1E000000 		.4byte	.LFE85
 9202 00b0 00000000 		.4byte	.LFB79
 9203 00b4 74070000 		.4byte	.LFE79
 9204 00b8 00000000 		.4byte	.LFB80
 9205 00bc 28000000 		.4byte	.LFE80
 9206 00c0 00000000 		.4byte	.LFB81
 9207 00c4 28000000 		.4byte	.LFE81
 9208 00c8 00000000 		.4byte	.LFB82
 9209 00cc 28000000 		.4byte	.LFE82
 9210 00d0 00000000 		.4byte	.LFB83
 9211 00d4 1C000000 		.4byte	.LFE83
 9212 00d8 00000000 		.4byte	.LFB84
 9213 00dc 2C000000 		.4byte	.LFE84
 9214 00e0 00000000 		.4byte	.LFB86
 9215 00e4 3E000000 		.4byte	.LFE86
 9216 00e8 00000000 		.4byte	.LFB87
 9217 00ec 4C000000 		.4byte	.LFE87
 9218 00f0 00000000 		.4byte	.LFB88
 9219 00f4 40000000 		.4byte	.LFE88
 9220 00f8 00000000 		.4byte	0
 9221 00fc 00000000 		.4byte	0
 9222              		.section	.debug_line,"",%progbits
 9223              	.Ldebug_line0:
 9224 0000 98060000 		.section	.debug_str,"MS",%progbits,1
 9224      0200C702 
ARM GAS  C:\Users\chemi\AppData\Local\Temp\ccvd4c4w.s 			page 182


 9224      00000201 
 9224      FB0E0D00 
 9224      01010101 
 9225              	.LASF95:
 9226 0000 70726563 		.ascii	"prec\000"
 9226      00
 9227              	.LASF21:
 9228 0005 73697A65 		.ascii	"size_t\000"
 9228      5F7400
 9229              	.LASF119:
 9230 000c 69735F6C 		.ascii	"is_ll\000"
 9230      6C00
 9231              	.LASF131:
 9232 0012 6D696E5F 		.ascii	"min_debug_prt\000"
 9232      64656275 
 9232      675F7072 
 9232      7400
 9233              	.LASF60:
 9234 0020 636F6D6D 		.ascii	"commandDescription\000"
 9234      616E6444 
 9234      65736372 
 9234      69707469 
 9234      6F6E00
 9235              	.LASF0:
 9236 0033 7369676E 		.ascii	"signed char\000"
 9236      65642063 
 9236      68617200 
 9237              	.LASF3:
 9238 003f 5F5F7569 		.ascii	"__uint8_t\000"
 9238      6E74385F 
 9238      7400
 9239              	.LASF20:
 9240 0049 76615F6C 		.ascii	"va_list\000"
 9240      69737400 
 9241              	.LASF134:
 9242 0051 5F707574 		.ascii	"_putchar\000"
 9242      63686172 
 9242      00
 9243              	.LASF57:
 9244 005a 5F5F5465 		.ascii	"__TermCommandDescriptor__\000"
 9244      726D436F 
 9244      6D6D616E 
 9244      64446573 
 9244      63726970 
 9245              	.LASF55:
 9246 0074 6572726F 		.ascii	"errorPrinter\000"
 9246      72507269 
 9246      6E746572 
 9246      00
 9247              	.LASF104:
 9248 0081 5F6F7574 		.ascii	"_out_char\000"
 9248      5F636861 
 9248      7200
 9249              	.LASF11:
 9250 008b 6C6F6E67 		.ascii	"long long unsigned int\000"
 9250      206C6F6E 
 9250      6720756E 
ARM GAS  C:\Users\chemi\AppData\Local\Temp\ccvd4c4w.s 			page 183


 9250      7369676E 
 9250      65642069 
 9251              	.LASF108:
 9252 00a2 64696666 		.ascii	"diff\000"
 9252      00
 9253              	.LASF36:
 9254 00a7 5F5F5445 		.ascii	"__TERMINAL_HANDLE__\000"
 9254      524D494E 
 9254      414C5F48 
 9254      414E444C 
 9254      455F5F00 
 9255              	.LASF28:
 9256 00bb 51756575 		.ascii	"QueueHandle_t\000"
 9256      6548616E 
 9256      646C655F 
 9256      7400
 9257              	.LASF132:
 9258 00c9 49544D5F 		.ascii	"ITM_RxBuffer\000"
 9258      52784275 
 9258      66666572 
 9258      00
 9259              	.LASF41:
 9260 00d6 63757272 		.ascii	"currAutocompleteCount\000"
 9260      4175746F 
 9260      636F6D70 
 9260      6C657465 
 9260      436F756E 
 9261              	.LASF116:
 9262 00ec 5F76736E 		.ascii	"_vsnprintf\000"
 9262      7072696E 
 9262      746600
 9263              	.LASF10:
 9264 00f7 6C6F6E67 		.ascii	"long long int\000"
 9264      206C6F6E 
 9264      6720696E 
 9264      7400
 9265              	.LASF42:
 9266 0105 63757272 		.ascii	"currProgram\000"
 9266      50726F67 
 9266      72616D00 
 9267              	.LASF58:
 9268 0111 66756E63 		.ascii	"function\000"
 9268      74696F6E 
 9268      00
 9269              	.LASF83:
 9270 011a 7465726D 		.ascii	"term_block\000"
 9270      5F626C6F 
 9270      636B00
 9271              	.LASF46:
 9272 0125 7072696E 		.ascii	"print\000"
 9272      7400
 9273              	.LASF7:
 9274 012b 6C6F6E67 		.ascii	"long int\000"
 9274      20696E74 
 9274      00
 9275              	.LASF29:
 9276 0134 74736B54 		.ascii	"tskTaskControlBlock\000"
ARM GAS  C:\Users\chemi\AppData\Local\Temp\ccvd4c4w.s 			page 184


 9276      61736B43 
 9276      6F6E7472 
 9276      6F6C426C 
 9276      6F636B00 
 9277              	.LASF40:
 9278 0148 63757272 		.ascii	"currBufferLength\000"
 9278      42756666 
 9278      65724C65 
 9278      6E677468 
 9278      00
 9279              	.LASF139:
 9280 0159 2E2E5C63 		.ascii	"..\\common\\ud3core\\helper\\printf.c\000"
 9280      6F6D6D6F 
 9280      6E5C7564 
 9280      33636F72 
 9280      655C6865 
 9281              	.LASF27:
 9282 017b 5461736B 		.ascii	"TaskHandle_t\000"
 9282      48616E64 
 9282      6C655F74 
 9282      00
 9283              	.LASF15:
 9284 0188 75696E74 		.ascii	"uint16_t\000"
 9284      31365F74 
 9284      00
 9285              	.LASF66:
 9286 0191 5465726D 		.ascii	"TermCommandFunction\000"
 9286      436F6D6D 
 9286      616E6446 
 9286      756E6374 
 9286      696F6E00 
 9287              	.LASF23:
 9288 01a5 646F7562 		.ascii	"double\000"
 9288      6C6500
 9289              	.LASF35:
 9290 01ac 5F5F7661 		.ascii	"__va_list\000"
 9290      5F6C6973 
 9290      7400
 9291              	.LASF63:
 9292 01b6 41434861 		.ascii	"ACHandler\000"
 9292      6E646C65 
 9292      7200
 9293              	.LASF141:
 9294 01c0 5F5F6170 		.ascii	"__ap\000"
 9294      00
 9295              	.LASF113:
 9296 01c5 636F756E 		.ascii	"count\000"
 9296      7400
 9297              	.LASF88:
 9298 01cb 63686172 		.ascii	"character\000"
 9298      61637465 
 9298      7200
 9299              	.LASF121:
 9300 01d5 73707269 		.ascii	"sprintf_\000"
 9300      6E74665F 
 9300      00
 9301              	.LASF8:
ARM GAS  C:\Users\chemi\AppData\Local\Temp\ccvd4c4w.s 			page 185


 9302 01de 5F5F7569 		.ascii	"__uint32_t\000"
 9302      6E743332 
 9302      5F7400
 9303              	.LASF138:
 9304 01e9 474E5520 		.ascii	"GNU C99 5.4.1 20160609 (release) [ARM/embedded-5-br"
 9304      43393920 
 9304      352E342E 
 9304      31203230 
 9304      31363036 
 9305 021c 616E6368 		.ascii	"anch revision 237715] -mcpu=cortex-m3 -mthumb -g -O"
 9305      20726576 
 9305      6973696F 
 9305      6E203233 
 9305      37373135 
 9306 024f 73202D73 		.ascii	"s -std=gnu99 -ffunction-sections -ffat-lto-objects\000"
 9306      74643D67 
 9306      6E753939 
 9306      202D6666 
 9306      756E6374 
 9307              	.LASF78:
 9308 0282 706F7274 		.ascii	"port_str\000"
 9308      5F737472 
 9308      00
 9309              	.LASF38:
 9310 028b 706F7274 		.ascii	"port\000"
 9310      00
 9311              	.LASF101:
 9312 0290 76616C75 		.ascii	"value\000"
 9312      6500
 9313              	.LASF142:
 9314 0296 5F6F7574 		.ascii	"_out_fct\000"
 9314      5F666374 
 9314      00
 9315              	.LASF106:
 9316 029f 5F61746F 		.ascii	"_atoi\000"
 9316      6900
 9317              	.LASF13:
 9318 02a5 756E7369 		.ascii	"unsigned int\000"
 9318      676E6564 
 9318      20696E74 
 9318      00
 9319              	.LASF91:
 9320 02b2 5F6F7574 		.ascii	"_out_buffer\000"
 9320      5F627566 
 9320      66657200 
 9321              	.LASF59:
 9322 02be 636F6D6D 		.ascii	"command\000"
 9322      616E6400 
 9323              	.LASF126:
 9324 02c6 73747265 		.ascii	"stream_buffer\000"
 9324      616D5F62 
 9324      75666665 
 9324      7200
 9325              	.LASF9:
 9326 02d4 6C6F6E67 		.ascii	"long unsigned int\000"
 9326      20756E73 
 9326      69676E65 
ARM GAS  C:\Users\chemi\AppData\Local\Temp\ccvd4c4w.s 			page 186


 9326      6420696E 
 9326      7400
 9327              	.LASF128:
 9328 02e6 6C656E5F 		.ascii	"len_t\000"
 9328      7400
 9329              	.LASF43:
 9330 02ec 6175746F 		.ascii	"autocompleteBuffer\000"
 9330      636F6D70 
 9330      6C657465 
 9330      42756666 
 9330      657200
 9331              	.LASF53:
 9332 02ff 6563686F 		.ascii	"echoEnabled\000"
 9332      456E6162 
 9332      6C656400 
 9333              	.LASF45:
 9334 030b 6175746F 		.ascii	"autocompleteStart\000"
 9334      636F6D70 
 9334      6C657465 
 9334      53746172 
 9334      7400
 9335              	.LASF68:
 9336 031d 5465726D 		.ascii	"TermErrorPrinter\000"
 9336      4572726F 
 9336      72507269 
 9336      6E746572 
 9336      00
 9337              	.LASF96:
 9338 032e 77696474 		.ascii	"width\000"
 9338      6800
 9339              	.LASF32:
 9340 0334 53747265 		.ascii	"StreamBufferHandle_t\000"
 9340      616D4275 
 9340      66666572 
 9340      48616E64 
 9340      6C655F74 
 9341              	.LASF5:
 9342 0349 73686F72 		.ascii	"short unsigned int\000"
 9342      7420756E 
 9342      7369676E 
 9342      65642069 
 9342      6E7400
 9343              	.LASF127:
 9344 035c 73706163 		.ascii	"space\000"
 9344      6500
 9345              	.LASF90:
 9346 0362 6D61786C 		.ascii	"maxlen\000"
 9346      656E00
 9347              	.LASF74:
 9348 0369 696E7075 		.ascii	"inputStream\000"
 9348      74537472 
 9348      65616D00 
 9349              	.LASF111:
 9350 0375 77686F6C 		.ascii	"whole\000"
 9350      6500
 9351              	.LASF52:
 9352 037b 65736353 		.ascii	"escSeqBuff\000"
ARM GAS  C:\Users\chemi\AppData\Local\Temp\ccvd4c4w.s 			page 187


 9352      65714275 
 9352      666600
 9353              	.LASF6:
 9354 0386 5F5F696E 		.ascii	"__int32_t\000"
 9354      7433325F 
 9354      7400
 9355              	.LASF92:
 9356 0390 5F6F7574 		.ascii	"_out_null\000"
 9356      5F6E756C 
 9356      6C00
 9357              	.LASF34:
 9358 039a 5445524D 		.ascii	"TERMINAL_HANDLE\000"
 9358      494E414C 
 9358      5F48414E 
 9358      444C4500 
 9359              	.LASF73:
 9360 03aa 7261775F 		.ascii	"raw_input\000"
 9360      696E7075 
 9360      7400
 9361              	.LASF84:
 9362 03b4 74656C65 		.ascii	"telemetry_handle\000"
 9362      6D657472 
 9362      795F6861 
 9362      6E646C65 
 9362      00
 9363              	.LASF25:
 9364 03c5 73697A65 		.ascii	"sizetype\000"
 9364      74797065 
 9364      00
 9365              	.LASF76:
 9366 03ce 61726743 		.ascii	"argCount\000"
 9366      6F756E74 
 9366      00
 9367              	.LASF19:
 9368 03d7 5F5F676E 		.ascii	"__gnuc_va_list\000"
 9368      75635F76 
 9368      615F6C69 
 9368      737400
 9369              	.LASF26:
 9370 03e6 5469636B 		.ascii	"TickType_t\000"
 9370      54797065 
 9370      5F7400
 9371              	.LASF102:
 9372 03f1 64696769 		.ascii	"digit\000"
 9372      7400
 9373              	.LASF61:
 9374 03f7 636F6D6D 		.ascii	"commandLength\000"
 9374      616E644C 
 9374      656E6774 
 9374      6800
 9375              	.LASF129:
 9376 0405 73747265 		.ascii	"stream_printf\000"
 9376      616D5F70 
 9376      72696E74 
 9376      6600
 9377              	.LASF100:
 9378 0413 5F6E746F 		.ascii	"_ntoa_long\000"
ARM GAS  C:\Users\chemi\AppData\Local\Temp\ccvd4c4w.s 			page 188


 9378      615F6C6F 
 9378      6E6700
 9379              	.LASF79:
 9380 041e 706F7274 		.ascii	"port_struct\000"
 9380      5F737472 
 9380      75637400 
 9381              	.LASF18:
 9382 042a 75696E74 		.ascii	"uintptr_t\000"
 9382      7074725F 
 9382      7400
 9383              	.LASF109:
 9384 0434 74687265 		.ascii	"thres_max\000"
 9384      735F6D61 
 9384      7800
 9385              	.LASF98:
 9386 043e 73746172 		.ascii	"start_idx\000"
 9386      745F6964 
 9386      7800
 9387              	.LASF22:
 9388 0448 666C6F61 		.ascii	"float\000"
 9388      7400
 9389              	.LASF72:
 9390 044e 696E7075 		.ascii	"inputHandler\000"
 9390      7448616E 
 9390      646C6572 
 9390      00
 9391              	.LASF125:
 9392 045b 6F75745F 		.ascii	"out_fct_wrap\000"
 9392      6663745F 
 9392      77726170 
 9392      00
 9393              	.LASF56:
 9394 0468 5465726D 		.ascii	"TermCommandDescriptor\000"
 9394      436F6D6D 
 9394      616E6444 
 9394      65736372 
 9394      6970746F 
 9395              	.LASF65:
 9396 047e 6E657874 		.ascii	"nextCmd\000"
 9396      436D6400 
 9397              	.LASF133:
 9398 0486 64656275 		.ascii	"debug_port\000"
 9398      675F706F 
 9398      727400
 9399              	.LASF135:
 9400 0491 78537472 		.ascii	"xStreamBufferSend\000"
 9400      65616D42 
 9400      75666665 
 9400      7253656E 
 9400      6400
 9401              	.LASF85:
 9402 04a3 6F75745F 		.ascii	"out_fct_type\000"
 9402      6663745F 
 9402      74797065 
 9402      00
 9403              	.LASF103:
 9404 04b0 5F6E746F 		.ascii	"_ntoa_long_long\000"
ARM GAS  C:\Users\chemi\AppData\Local\Temp\ccvd4c4w.s 			page 189


 9404      615F6C6F 
 9404      6E675F6C 
 9404      6F6E6700 
 9405              	.LASF94:
 9406 04c0 62617365 		.ascii	"base\000"
 9406      00
 9407              	.LASF30:
 9408 04c5 51756575 		.ascii	"QueueDefinition\000"
 9408      65446566 
 9408      696E6974 
 9408      696F6E00 
 9409              	.LASF87:
 9410 04d5 5F426F6F 		.ascii	"_Bool\000"
 9410      6C00
 9411              	.LASF16:
 9412 04db 696E7433 		.ascii	"int32_t\000"
 9412      325F7400 
 9413              	.LASF1:
 9414 04e3 756E7369 		.ascii	"unsigned char\000"
 9414      676E6564 
 9414      20636861 
 9414      7200
 9415              	.LASF110:
 9416 04f1 706F7731 		.ascii	"pow10\000"
 9416      3000
 9417              	.LASF2:
 9418 04f7 73686F72 		.ascii	"short int\000"
 9418      7420696E 
 9418      7400
 9419              	.LASF67:
 9420 0501 5465726D 		.ascii	"TermCommandInputHandler\000"
 9420      436F6D6D 
 9420      616E6449 
 9420      6E707574 
 9420      48616E64 
 9421              	.LASF50:
 9422 0519 63757272 		.ascii	"currHistoryReadPosition\000"
 9422      48697374 
 9422      6F727952 
 9422      65616450 
 9422      6F736974 
 9423              	.LASF77:
 9424 0531 5465726D 		.ascii	"TermProgram\000"
 9424      50726F67 
 9424      72616D00 
 9425              	.LASF39:
 9426 053d 63757272 		.ascii	"currBufferPosition\000"
 9426      42756666 
 9426      6572506F 
 9426      73697469 
 9426      6F6E00
 9427              	.LASF12:
 9428 0550 5F5F7569 		.ascii	"__uintptr_t\000"
 9428      6E747074 
 9428      725F7400 
 9429              	.LASF93:
 9430 055c 6E656761 		.ascii	"negative\000"
ARM GAS  C:\Users\chemi\AppData\Local\Temp\ccvd4c4w.s 			page 190


 9430      74697665 
 9430      00
 9431              	.LASF117:
 9432 0565 666F726D 		.ascii	"format\000"
 9432      617400
 9433              	.LASF51:
 9434 056c 63757272 		.ascii	"currEscSeqPos\000"
 9434      45736353 
 9434      6571506F 
 9434      7300
 9435              	.LASF86:
 9436 057a 6F75745F 		.ascii	"out_fct_wrap_type\000"
 9436      6663745F 
 9436      77726170 
 9436      5F747970 
 9436      6500
 9437              	.LASF80:
 9438 058c 74797065 		.ascii	"type\000"
 9438      00
 9439              	.LASF107:
 9440 0591 5F66746F 		.ascii	"_ftoa\000"
 9440      6100
 9441              	.LASF31:
 9442 0597 53656D61 		.ascii	"SemaphoreHandle_t\000"
 9442      70686F72 
 9442      6548616E 
 9442      646C655F 
 9442      7400
 9443              	.LASF24:
 9444 05a9 63686172 		.ascii	"char\000"
 9444      00
 9445              	.LASF112:
 9446 05ae 66726163 		.ascii	"frac\000"
 9446      00
 9447              	.LASF99:
 9448 05b3 5F6E746F 		.ascii	"_ntoa_format\000"
 9448      615F666F 
 9448      726D6174 
 9448      00
 9449              	.LASF4:
 9450 05c0 5F5F7569 		.ascii	"__uint16_t\000"
 9450      6E743136 
 9450      5F7400
 9451              	.LASF118:
 9452 05cb 70726563 		.ascii	"precision\000"
 9452      6973696F 
 9452      6E00
 9453              	.LASF47:
 9454 05d5 63757272 		.ascii	"currUserName\000"
 9454      55736572 
 9454      4E616D65 
 9454      00
 9455              	.LASF122:
 9456 05e2 736E7072 		.ascii	"snprintf_\000"
 9456      696E7466 
 9456      5F00
 9457              	.LASF89:
ARM GAS  C:\Users\chemi\AppData\Local\Temp\ccvd4c4w.s 			page 191


 9458 05ec 62756666 		.ascii	"buffer\000"
 9458      657200
 9459              	.LASF54:
 9460 05f3 636D644C 		.ascii	"cmdListHead\000"
 9460      69737448 
 9460      65616400 
 9461              	.LASF123:
 9462 05ff 76736E70 		.ascii	"vsnprintf_\000"
 9462      72696E74 
 9462      665F00
 9463              	.LASF70:
 9464 060a 5465726D 		.ascii	"TermAutoCompHandler\000"
 9464      4175746F 
 9464      436F6D70 
 9464      48616E64 
 9464      6C657200 
 9465              	.LASF71:
 9466 061e 7461736B 		.ascii	"task\000"
 9466      00
 9467              	.LASF44:
 9468 0623 6175746F 		.ascii	"autocompleteBufferLength\000"
 9468      636F6D70 
 9468      6C657465 
 9468      42756666 
 9468      65724C65 
 9469              	.LASF114:
 9470 063c 5F737472 		.ascii	"_strnlen_s\000"
 9470      6E6C656E 
 9470      5F7300
 9471              	.LASF124:
 9472 0647 66637470 		.ascii	"fctprintf\000"
 9472      72696E74 
 9472      6600
 9473              	.LASF130:
 9474 0651 73656E64 		.ascii	"send_stream\000"
 9474      5F737472 
 9474      65616D00 
 9475              	.LASF48:
 9476 065d 68697374 		.ascii	"historyBuffer\000"
 9476      6F727942 
 9476      75666665 
 9476      7200
 9477              	.LASF37:
 9478 066b 696E7075 		.ascii	"inputBuffer\000"
 9478      74427566 
 9478      66657200 
 9479              	.LASF17:
 9480 0677 75696E74 		.ascii	"uint32_t\000"
 9480      33325F74 
 9480      00
 9481              	.LASF140:
 9482 0680 433A5C55 		.ascii	"C:\\Users\\chemi\\UD3_QCW\\UD3_QFN.cydsn\000"
 9482      73657273 
 9482      5C636865 
 9482      6D695C55 
 9482      44335F51 
 9483              	.LASF62:
ARM GAS  C:\Users\chemi\AppData\Local\Temp\ccvd4c4w.s 			page 192


 9484 06a5 6D696E50 		.ascii	"minPermissionLevel\000"
 9484      65726D69 
 9484      7373696F 
 9484      6E4C6576 
 9484      656C00
 9485              	.LASF120:
 9486 06b8 7072696E 		.ascii	"printf_\000"
 9486      74665F00 
 9487              	.LASF14:
 9488 06c0 75696E74 		.ascii	"uint8_t\000"
 9488      385F7400 
 9489              	.LASF82:
 9490 06c8 7465726D 		.ascii	"term_send_alarms\000"
 9490      5F73656E 
 9490      645F616C 
 9490      61726D73 
 9490      00
 9491              	.LASF97:
 9492 06d9 666C6167 		.ascii	"flags\000"
 9492      7300
 9493              	.LASF105:
 9494 06df 5F69735F 		.ascii	"_is_digit\000"
 9494      64696769 
 9494      7400
 9495              	.LASF49:
 9496 06e9 63757272 		.ascii	"currHistoryWritePosition\000"
 9496      48697374 
 9496      6F727957 
 9496      72697465 
 9496      506F7369 
 9497              	.LASF136:
 9498 0702 78537472 		.ascii	"xStreamBufferSpacesAvailable\000"
 9498      65616D42 
 9498      75666665 
 9498      72537061 
 9498      63657341 
 9499              	.LASF81:
 9500 071f 7465726D 		.ascii	"term_mode\000"
 9500      5F6D6F64 
 9500      6500
 9501              	.LASF75:
 9502 0729 61726773 		.ascii	"args\000"
 9502      00
 9503              	.LASF33:
 9504 072e 53747265 		.ascii	"StreamBufferDef_t\000"
 9504      616D4275 
 9504      66666572 
 9504      4465665F 
 9504      7400
 9505              	.LASF64:
 9506 0740 41435061 		.ascii	"ACParams\000"
 9506      72616D73 
 9506      00
 9507              	.LASF137:
 9508 0749 76546173 		.ascii	"vTaskDelay\000"
 9508      6B44656C 
 9508      617900
ARM GAS  C:\Users\chemi\AppData\Local\Temp\ccvd4c4w.s 			page 193


 9509              	.LASF69:
 9510 0754 5465726D 		.ascii	"TermPrintHandler\000"
 9510      5072696E 
 9510      7448616E 
 9510      646C6572 
 9510      00
 9511              	.LASF115:
 9512 0765 6D617873 		.ascii	"maxsize\000"
 9512      697A6500 
 9513              		.ident	"GCC: (GNU Tools for ARM Embedded Processors) 5.4.1 20160609 (release) [ARM/embedded-5-bran
