ARM GAS  C:\Users\chemi\AppData\Local\Temp\ccRavtQY.s 			page 1


   1              		.syntax unified
   2              		.cpu cortex-m3
   3              		.fpu softvfp
   4              		.eabi_attribute 20, 1
   5              		.eabi_attribute 21, 1
   6              		.eabi_attribute 23, 3
   7              		.eabi_attribute 24, 1
   8              		.eabi_attribute 25, 1
   9              		.eabi_attribute 26, 1
  10              		.eabi_attribute 30, 4
  11              		.eabi_attribute 34, 1
  12              		.eabi_attribute 18, 4
  13              		.thumb
  14              		.syntax unified
  15              		.file	"PSBINIT_DMA_dma.c"
  16              		.text
  17              	.Ltext0:
  18              		.cfi_sections	.debug_frame
  19              		.section	.text.PSBINIT_DMA_DmaInitialize,"ax",%progbits
  20              		.align	1
  21              		.global	PSBINIT_DMA_DmaInitialize
  22              		.thumb
  23              		.thumb_func
  24              		.type	PSBINIT_DMA_DmaInitialize, %function
  25              	PSBINIT_DMA_DmaInitialize:
  26              	.LFB0:
  27              		.file 1 "Generated_Source\\PSoC5\\PSBINIT_DMA_dma.c"
   1:Generated_Source\PSoC5/PSBINIT_DMA_dma.c **** /***************************************************************************
   2:Generated_Source\PSoC5/PSBINIT_DMA_dma.c **** * File Name: PSBINIT_DMA_dma.c  
   3:Generated_Source\PSoC5/PSBINIT_DMA_dma.c **** * Version 1.70
   4:Generated_Source\PSoC5/PSBINIT_DMA_dma.c **** *
   5:Generated_Source\PSoC5/PSBINIT_DMA_dma.c **** *  Description:
   6:Generated_Source\PSoC5/PSBINIT_DMA_dma.c **** *   Provides an API for the DMAC component. The API includes functions
   7:Generated_Source\PSoC5/PSBINIT_DMA_dma.c **** *   for the DMA controller, DMA channels and Transfer Descriptors.
   8:Generated_Source\PSoC5/PSBINIT_DMA_dma.c **** *
   9:Generated_Source\PSoC5/PSBINIT_DMA_dma.c **** *
  10:Generated_Source\PSoC5/PSBINIT_DMA_dma.c **** *   Note:
  11:Generated_Source\PSoC5/PSBINIT_DMA_dma.c **** *     This module requires the developer to finish or fill in the auto
  12:Generated_Source\PSoC5/PSBINIT_DMA_dma.c **** *     generated funcions and setup the dma channel and TD's.
  13:Generated_Source\PSoC5/PSBINIT_DMA_dma.c **** *
  14:Generated_Source\PSoC5/PSBINIT_DMA_dma.c **** ********************************************************************************
  15:Generated_Source\PSoC5/PSBINIT_DMA_dma.c **** * Copyright 2008-2010, Cypress Semiconductor Corporation.  All rights reserved.
  16:Generated_Source\PSoC5/PSBINIT_DMA_dma.c **** * You may use this file only in accordance with the license, terms, conditions, 
  17:Generated_Source\PSoC5/PSBINIT_DMA_dma.c **** * disclaimers, and limitations in the end user license agreement accompanying 
  18:Generated_Source\PSoC5/PSBINIT_DMA_dma.c **** * the software package with which this file was provided.
  19:Generated_Source\PSoC5/PSBINIT_DMA_dma.c **** ********************************************************************************/
  20:Generated_Source\PSoC5/PSBINIT_DMA_dma.c **** #include <CYLIB.H>
  21:Generated_Source\PSoC5/PSBINIT_DMA_dma.c **** #include <CYDMAC.H>
  22:Generated_Source\PSoC5/PSBINIT_DMA_dma.c **** #include <PSBINIT_DMA_dma.H>
  23:Generated_Source\PSoC5/PSBINIT_DMA_dma.c **** 
  24:Generated_Source\PSoC5/PSBINIT_DMA_dma.c **** 
  25:Generated_Source\PSoC5/PSBINIT_DMA_dma.c **** 
  26:Generated_Source\PSoC5/PSBINIT_DMA_dma.c **** /****************************************************************************
  27:Generated_Source\PSoC5/PSBINIT_DMA_dma.c **** * 
  28:Generated_Source\PSoC5/PSBINIT_DMA_dma.c **** * The following defines are available in Cyfitter.h
  29:Generated_Source\PSoC5/PSBINIT_DMA_dma.c **** * 
  30:Generated_Source\PSoC5/PSBINIT_DMA_dma.c **** * 
ARM GAS  C:\Users\chemi\AppData\Local\Temp\ccRavtQY.s 			page 2


  31:Generated_Source\PSoC5/PSBINIT_DMA_dma.c **** * 
  32:Generated_Source\PSoC5/PSBINIT_DMA_dma.c **** * PSBINIT_DMA__DRQ_CTL_REG
  33:Generated_Source\PSoC5/PSBINIT_DMA_dma.c **** * 
  34:Generated_Source\PSoC5/PSBINIT_DMA_dma.c **** * 
  35:Generated_Source\PSoC5/PSBINIT_DMA_dma.c **** * PSBINIT_DMA__DRQ_NUMBER
  36:Generated_Source\PSoC5/PSBINIT_DMA_dma.c **** * 
  37:Generated_Source\PSoC5/PSBINIT_DMA_dma.c **** * Number of TD's used by this channel.
  38:Generated_Source\PSoC5/PSBINIT_DMA_dma.c **** * PSBINIT_DMA__NUMBEROF_TDS
  39:Generated_Source\PSoC5/PSBINIT_DMA_dma.c **** * 
  40:Generated_Source\PSoC5/PSBINIT_DMA_dma.c **** * Priority of this channel.
  41:Generated_Source\PSoC5/PSBINIT_DMA_dma.c **** * PSBINIT_DMA__PRIORITY
  42:Generated_Source\PSoC5/PSBINIT_DMA_dma.c **** * 
  43:Generated_Source\PSoC5/PSBINIT_DMA_dma.c **** * True if PSBINIT_DMA_TERMIN_SEL is used.
  44:Generated_Source\PSoC5/PSBINIT_DMA_dma.c **** * PSBINIT_DMA__TERMIN_EN
  45:Generated_Source\PSoC5/PSBINIT_DMA_dma.c **** * 
  46:Generated_Source\PSoC5/PSBINIT_DMA_dma.c **** * TERMIN interrupt line to signal terminate.
  47:Generated_Source\PSoC5/PSBINIT_DMA_dma.c **** * PSBINIT_DMA__TERMIN_SEL
  48:Generated_Source\PSoC5/PSBINIT_DMA_dma.c **** * 
  49:Generated_Source\PSoC5/PSBINIT_DMA_dma.c **** * 
  50:Generated_Source\PSoC5/PSBINIT_DMA_dma.c **** * True if PSBINIT_DMA_TERMOUT0_SEL is used.
  51:Generated_Source\PSoC5/PSBINIT_DMA_dma.c **** * PSBINIT_DMA__TERMOUT0_EN
  52:Generated_Source\PSoC5/PSBINIT_DMA_dma.c **** * 
  53:Generated_Source\PSoC5/PSBINIT_DMA_dma.c **** * 
  54:Generated_Source\PSoC5/PSBINIT_DMA_dma.c **** * TERMOUT0 interrupt line to signal completion.
  55:Generated_Source\PSoC5/PSBINIT_DMA_dma.c **** * PSBINIT_DMA__TERMOUT0_SEL
  56:Generated_Source\PSoC5/PSBINIT_DMA_dma.c **** * 
  57:Generated_Source\PSoC5/PSBINIT_DMA_dma.c **** * 
  58:Generated_Source\PSoC5/PSBINIT_DMA_dma.c **** * True if PSBINIT_DMA_TERMOUT1_SEL is used.
  59:Generated_Source\PSoC5/PSBINIT_DMA_dma.c **** * PSBINIT_DMA__TERMOUT1_EN
  60:Generated_Source\PSoC5/PSBINIT_DMA_dma.c **** * 
  61:Generated_Source\PSoC5/PSBINIT_DMA_dma.c **** * 
  62:Generated_Source\PSoC5/PSBINIT_DMA_dma.c **** * TERMOUT1 interrupt line to signal completion.
  63:Generated_Source\PSoC5/PSBINIT_DMA_dma.c **** * PSBINIT_DMA__TERMOUT1_SEL
  64:Generated_Source\PSoC5/PSBINIT_DMA_dma.c **** * 
  65:Generated_Source\PSoC5/PSBINIT_DMA_dma.c **** ****************************************************************************/
  66:Generated_Source\PSoC5/PSBINIT_DMA_dma.c **** 
  67:Generated_Source\PSoC5/PSBINIT_DMA_dma.c **** 
  68:Generated_Source\PSoC5/PSBINIT_DMA_dma.c **** /* Zero based index of PSBINIT_DMA dma channel */
  69:Generated_Source\PSoC5/PSBINIT_DMA_dma.c **** uint8 PSBINIT_DMA_DmaHandle = DMA_INVALID_CHANNEL;
  70:Generated_Source\PSoC5/PSBINIT_DMA_dma.c **** 
  71:Generated_Source\PSoC5/PSBINIT_DMA_dma.c **** /*********************************************************************
  72:Generated_Source\PSoC5/PSBINIT_DMA_dma.c **** * Function Name: uint8 PSBINIT_DMA_DmaInitalize
  73:Generated_Source\PSoC5/PSBINIT_DMA_dma.c **** **********************************************************************
  74:Generated_Source\PSoC5/PSBINIT_DMA_dma.c **** * Summary:
  75:Generated_Source\PSoC5/PSBINIT_DMA_dma.c **** *   Allocates and initialises a channel of the DMAC to be used by the
  76:Generated_Source\PSoC5/PSBINIT_DMA_dma.c **** *   caller.
  77:Generated_Source\PSoC5/PSBINIT_DMA_dma.c **** *
  78:Generated_Source\PSoC5/PSBINIT_DMA_dma.c **** * Parameters:
  79:Generated_Source\PSoC5/PSBINIT_DMA_dma.c **** *   BurstCount.
  80:Generated_Source\PSoC5/PSBINIT_DMA_dma.c **** *       
  81:Generated_Source\PSoC5/PSBINIT_DMA_dma.c **** *       
  82:Generated_Source\PSoC5/PSBINIT_DMA_dma.c **** *   ReqestPerBurst.
  83:Generated_Source\PSoC5/PSBINIT_DMA_dma.c **** *       
  84:Generated_Source\PSoC5/PSBINIT_DMA_dma.c **** *       
  85:Generated_Source\PSoC5/PSBINIT_DMA_dma.c **** *   UpperSrcAddress.
  86:Generated_Source\PSoC5/PSBINIT_DMA_dma.c **** *       
  87:Generated_Source\PSoC5/PSBINIT_DMA_dma.c **** *       
ARM GAS  C:\Users\chemi\AppData\Local\Temp\ccRavtQY.s 			page 3


  88:Generated_Source\PSoC5/PSBINIT_DMA_dma.c **** *   UpperDestAddress.
  89:Generated_Source\PSoC5/PSBINIT_DMA_dma.c **** *       
  90:Generated_Source\PSoC5/PSBINIT_DMA_dma.c **** *
  91:Generated_Source\PSoC5/PSBINIT_DMA_dma.c **** * Return:
  92:Generated_Source\PSoC5/PSBINIT_DMA_dma.c **** *   The channel that can be used by the caller for DMA activity.
  93:Generated_Source\PSoC5/PSBINIT_DMA_dma.c **** *   DMA_INVALID_CHANNEL (0xFF) if there are no channels left. 
  94:Generated_Source\PSoC5/PSBINIT_DMA_dma.c **** *
  95:Generated_Source\PSoC5/PSBINIT_DMA_dma.c **** *
  96:Generated_Source\PSoC5/PSBINIT_DMA_dma.c **** *******************************************************************/
  97:Generated_Source\PSoC5/PSBINIT_DMA_dma.c **** uint8 PSBINIT_DMA_DmaInitialize(uint8 BurstCount, uint8 ReqestPerBurst, uint16 UpperSrcAddress, uin
  98:Generated_Source\PSoC5/PSBINIT_DMA_dma.c **** {
  28              		.loc 1 98 0
  29              		.cfi_startproc
  30              		@ args = 0, pretend = 0, frame = 0
  31              		@ frame_needed = 0, uses_anonymous_args = 0
  32              	.LVL0:
  33 0000 F7B5     		push	{r0, r1, r2, r4, r5, r6, r7, lr}
  34              		.cfi_def_cfa_offset 32
  35              		.cfi_offset 4, -20
  36              		.cfi_offset 5, -16
  37              		.cfi_offset 6, -12
  38              		.cfi_offset 7, -8
  39              		.cfi_offset 14, -4
  40              		.loc 1 98 0
  41 0002 1646     		mov	r6, r2
  42 0004 1F46     		mov	r7, r3
  99:Generated_Source\PSoC5/PSBINIT_DMA_dma.c **** 
 100:Generated_Source\PSoC5/PSBINIT_DMA_dma.c ****     /* Allocate a DMA channel. */
 101:Generated_Source\PSoC5/PSBINIT_DMA_dma.c ****     PSBINIT_DMA_DmaHandle = (uint8)PSBINIT_DMA__DRQ_NUMBER;
  43              		.loc 1 101 0
  44 0006 0B4C     		ldr	r4, .L2
 102:Generated_Source\PSoC5/PSBINIT_DMA_dma.c **** 
 103:Generated_Source\PSoC5/PSBINIT_DMA_dma.c ****     /* Configure the channel. */
 104:Generated_Source\PSoC5/PSBINIT_DMA_dma.c ****     (void)CyDmaChSetConfiguration(PSBINIT_DMA_DmaHandle,
  45              		.loc 1 104 0
  46 0008 0023     		movs	r3, #0
  47              	.LVL1:
 101:Generated_Source\PSoC5/PSBINIT_DMA_dma.c **** 
  48              		.loc 1 101 0
  49 000a 0425     		movs	r5, #4
  50              		.loc 1 104 0
  51 000c 0193     		str	r3, [sp, #4]
  52 000e 0093     		str	r3, [sp]
  53 0010 0A46     		mov	r2, r1
  54              	.LVL2:
  55 0012 0146     		mov	r1, r0
  56              	.LVL3:
  57 0014 2846     		mov	r0, r5
  58              	.LVL4:
 101:Generated_Source\PSoC5/PSBINIT_DMA_dma.c **** 
  59              		.loc 1 101 0
  60 0016 2570     		strb	r5, [r4]
  61              		.loc 1 104 0
  62 0018 FFF7FEFF 		bl	CyDmaChSetConfiguration
  63              	.LVL5:
 105:Generated_Source\PSoC5/PSBINIT_DMA_dma.c ****                                   BurstCount,
 106:Generated_Source\PSoC5/PSBINIT_DMA_dma.c ****                                   ReqestPerBurst,
ARM GAS  C:\Users\chemi\AppData\Local\Temp\ccRavtQY.s 			page 4


 107:Generated_Source\PSoC5/PSBINIT_DMA_dma.c ****                                   (uint8)PSBINIT_DMA__TERMOUT0_SEL,
 108:Generated_Source\PSoC5/PSBINIT_DMA_dma.c ****                                   (uint8)PSBINIT_DMA__TERMOUT1_SEL,
 109:Generated_Source\PSoC5/PSBINIT_DMA_dma.c ****                                   (uint8)PSBINIT_DMA__TERMIN_SEL);
 110:Generated_Source\PSoC5/PSBINIT_DMA_dma.c **** 
 111:Generated_Source\PSoC5/PSBINIT_DMA_dma.c ****     /* Set the extended address for the transfers */
 112:Generated_Source\PSoC5/PSBINIT_DMA_dma.c ****     (void)CyDmaChSetExtendedAddress(PSBINIT_DMA_DmaHandle, UpperSrcAddress, UpperDestAddress);
  64              		.loc 1 112 0
  65 001c 3A46     		mov	r2, r7
  66 001e 3146     		mov	r1, r6
  67 0020 2078     		ldrb	r0, [r4]	@ zero_extendqisi2
  68 0022 FFF7FEFF 		bl	CyDmaChSetExtendedAddress
  69              	.LVL6:
 113:Generated_Source\PSoC5/PSBINIT_DMA_dma.c **** 
 114:Generated_Source\PSoC5/PSBINIT_DMA_dma.c ****     /* Set the priority for this channel */
 115:Generated_Source\PSoC5/PSBINIT_DMA_dma.c ****     (void)CyDmaChPriority(PSBINIT_DMA_DmaHandle, (uint8)PSBINIT_DMA__PRIORITY);
  70              		.loc 1 115 0
  71 0026 0221     		movs	r1, #2
  72 0028 2078     		ldrb	r0, [r4]	@ zero_extendqisi2
  73 002a FFF7FEFF 		bl	CyDmaChPriority
  74              	.LVL7:
 116:Generated_Source\PSoC5/PSBINIT_DMA_dma.c ****     
 117:Generated_Source\PSoC5/PSBINIT_DMA_dma.c ****     return PSBINIT_DMA_DmaHandle;
 118:Generated_Source\PSoC5/PSBINIT_DMA_dma.c **** }
  75              		.loc 1 118 0
  76 002e 2078     		ldrb	r0, [r4]	@ zero_extendqisi2
  77 0030 03B0     		add	sp, sp, #12
  78              		.cfi_def_cfa_offset 20
  79              		@ sp needed
  80 0032 F0BD     		pop	{r4, r5, r6, r7, pc}
  81              	.L3:
  82              		.align	2
  83              	.L2:
  84 0034 00000000 		.word	.LANCHOR0
  85              		.cfi_endproc
  86              	.LFE0:
  87              		.size	PSBINIT_DMA_DmaInitialize, .-PSBINIT_DMA_DmaInitialize
  88              		.section	.text.PSBINIT_DMA_DmaRelease,"ax",%progbits
  89              		.align	1
  90              		.global	PSBINIT_DMA_DmaRelease
  91              		.thumb
  92              		.thumb_func
  93              		.type	PSBINIT_DMA_DmaRelease, %function
  94              	PSBINIT_DMA_DmaRelease:
  95              	.LFB1:
 119:Generated_Source\PSoC5/PSBINIT_DMA_dma.c **** 
 120:Generated_Source\PSoC5/PSBINIT_DMA_dma.c **** /*********************************************************************
 121:Generated_Source\PSoC5/PSBINIT_DMA_dma.c **** * Function Name: void PSBINIT_DMA_DmaRelease
 122:Generated_Source\PSoC5/PSBINIT_DMA_dma.c **** **********************************************************************
 123:Generated_Source\PSoC5/PSBINIT_DMA_dma.c **** * Summary:
 124:Generated_Source\PSoC5/PSBINIT_DMA_dma.c **** *   Frees the channel associated with PSBINIT_DMA.
 125:Generated_Source\PSoC5/PSBINIT_DMA_dma.c **** *
 126:Generated_Source\PSoC5/PSBINIT_DMA_dma.c **** *
 127:Generated_Source\PSoC5/PSBINIT_DMA_dma.c **** * Parameters:
 128:Generated_Source\PSoC5/PSBINIT_DMA_dma.c **** *   void.
 129:Generated_Source\PSoC5/PSBINIT_DMA_dma.c **** *
 130:Generated_Source\PSoC5/PSBINIT_DMA_dma.c **** *
 131:Generated_Source\PSoC5/PSBINIT_DMA_dma.c **** *
ARM GAS  C:\Users\chemi\AppData\Local\Temp\ccRavtQY.s 			page 5


 132:Generated_Source\PSoC5/PSBINIT_DMA_dma.c **** * Return:
 133:Generated_Source\PSoC5/PSBINIT_DMA_dma.c **** *   void.
 134:Generated_Source\PSoC5/PSBINIT_DMA_dma.c **** *
 135:Generated_Source\PSoC5/PSBINIT_DMA_dma.c **** *******************************************************************/
 136:Generated_Source\PSoC5/PSBINIT_DMA_dma.c **** void PSBINIT_DMA_DmaRelease(void) 
 137:Generated_Source\PSoC5/PSBINIT_DMA_dma.c **** {
  96              		.loc 1 137 0
  97              		.cfi_startproc
  98              		@ args = 0, pretend = 0, frame = 0
  99              		@ frame_needed = 0, uses_anonymous_args = 0
 100              		@ link register save eliminated.
 138:Generated_Source\PSoC5/PSBINIT_DMA_dma.c ****     /* Disable the channel */
 139:Generated_Source\PSoC5/PSBINIT_DMA_dma.c ****     (void)CyDmaChDisable(PSBINIT_DMA_DmaHandle);
 101              		.loc 1 139 0
 102 0000 014B     		ldr	r3, .L5
 103 0002 1878     		ldrb	r0, [r3]	@ zero_extendqisi2
 104 0004 FFF7FEBF 		b	CyDmaChDisable
 105              	.LVL8:
 106              	.L6:
 107              		.align	2
 108              	.L5:
 109 0008 00000000 		.word	.LANCHOR0
 110              		.cfi_endproc
 111              	.LFE1:
 112              		.size	PSBINIT_DMA_DmaRelease, .-PSBINIT_DMA_DmaRelease
 113              		.global	PSBINIT_DMA_DmaHandle
 114              		.data
 115              		.set	.LANCHOR0,. + 0
 116              		.type	PSBINIT_DMA_DmaHandle, %object
 117              		.size	PSBINIT_DMA_DmaHandle, 1
 118              	PSBINIT_DMA_DmaHandle:
 119 0000 FF       		.byte	-1
 120              		.text
 121              	.Letext0:
 122              		.file 2 "Generated_Source\\PSoC5/cytypes.h"
 123              		.file 3 "Generated_Source\\PSoC5/CYDMAC.H"