ARM GAS  C:\Users\chemi\AppData\Local\Temp\ccnzQNjn.s 			page 1


   1              		.syntax unified
   2              		.cpu cortex-m3
   3              		.fpu softvfp
   4              		.eabi_attribute 20, 1
   5              		.eabi_attribute 21, 1
   6              		.eabi_attribute 23, 3
   7              		.eabi_attribute 24, 1
   8              		.eabi_attribute 25, 1
   9              		.eabi_attribute 26, 1
  10              		.eabi_attribute 30, 4
  11              		.eabi_attribute 34, 1
  12              		.eabi_attribute 18, 4
  13              		.thumb
  14              		.syntax unified
  15              		.file	"qcw.c"
  16              		.text
  17              	.Ltext0:
  18              		.cfi_sections	.debug_frame
  19              		.global	__aeabi_ui2f
  20              		.global	__aeabi_fdiv
  21              		.global	__aeabi_i2d
  22              		.global	__aeabi_ddiv
  23              		.global	__aeabi_d2uiz
  24              		.global	__aeabi_d2f
  25              		.global	__aeabi_fcmpgt
  26              		.global	__aeabi_f2uiz
  27              		.global	__aeabi_fadd
  28              		.section	.text.qcw_regenerate_ramp,"ax",%progbits
  29              		.align	1
  30              		.global	qcw_regenerate_ramp
  31              		.thumb
  32              		.thumb_func
  33              		.type	qcw_regenerate_ramp, %function
  34              	qcw_regenerate_ramp:
  35              	.LFB69:
  36              		.file 1 "..\\common\\ud3core\\qcw.c"
   1:..\common\ud3core/qcw.c **** /*
   2:..\common\ud3core/qcw.c ****  * UD3
   3:..\common\ud3core/qcw.c ****  *
   4:..\common\ud3core/qcw.c ****  * Copyright (c) 2018 Jens Kerrinnes
   5:..\common\ud3core/qcw.c ****  * Copyright (c) 2015 Steve Ward
   6:..\common\ud3core/qcw.c ****  *
   7:..\common\ud3core/qcw.c ****  * Permission is hereby granted, free of charge, to any person obtaining a copy of
   8:..\common\ud3core/qcw.c ****  * this software and associated documentation files (the "Software"), to deal in
   9:..\common\ud3core/qcw.c ****  * the Software without restriction, including without limitation the rights to
  10:..\common\ud3core/qcw.c ****  * use, copy, modify, merge, publish, distribute, sublicense, and/or sell copies of
  11:..\common\ud3core/qcw.c ****  * the Software, and to permit persons to whom the Software is furnished to do so,
  12:..\common\ud3core/qcw.c ****  * subject to the following conditions:
  13:..\common\ud3core/qcw.c ****  *
  14:..\common\ud3core/qcw.c ****  * The above copyright notice and this permission notice shall be included in all
  15:..\common\ud3core/qcw.c ****  * copies or substantial portions of the Software.
  16:..\common\ud3core/qcw.c ****  *
  17:..\common\ud3core/qcw.c ****  * THE SOFTWARE IS PROVIDED "AS IS", WITHOUT WARRANTY OF ANY KIND, EXPRESS OR
  18:..\common\ud3core/qcw.c ****  * IMPLIED, INCLUDING BUT NOT LIMITED TO THE WARRANTIES OF MERCHANTABILITY, FITNESS
  19:..\common\ud3core/qcw.c ****  * FOR A PARTICULAR PURPOSE AND NONINFRINGEMENT. IN NO EVENT SHALL THE AUTHORS OR
  20:..\common\ud3core/qcw.c ****  * COPYRIGHT HOLDERS BE LIABLE FOR ANY CLAIM, DAMAGES OR OTHER LIABILITY, WHETHER
  21:..\common\ud3core/qcw.c ****  * IN AN ACTION OF CONTRACT, TORT OR OTHERWISE, ARISING FROM, OUT OF OR IN
ARM GAS  C:\Users\chemi\AppData\Local\Temp\ccnzQNjn.s 			page 2


  22:..\common\ud3core/qcw.c ****  * CONNECTION WITH THE SOFTWARE OR THE USE OR OTHER DEALINGS IN THE SOFTWARE.
  23:..\common\ud3core/qcw.c **** */
  24:..\common\ud3core/qcw.c **** 
  25:..\common\ud3core/qcw.c **** #include <math.h>
  26:..\common\ud3core/qcw.c **** #include <stdlib.h>
  27:..\common\ud3core/qcw.c **** #include "qcw.h"
  28:..\common\ud3core/qcw.c **** #include "interrupter.h"
  29:..\common\ud3core/qcw.c **** #include "hardware.h"
  30:..\common\ud3core/qcw.c **** #include "SignalGenerator.h"
  31:..\common\ud3core/qcw.c **** 
  32:..\common\ud3core/qcw.c **** #include "ZCDtoPWM.h"
  33:..\common\ud3core/qcw.c **** #include "helper/teslaterm.h"
  34:..\common\ud3core/qcw.c **** #include "tasks/tsk_overlay.h"
  35:..\common\ud3core/qcw.c **** #include "tasks/tsk_midi.h"
  36:..\common\ud3core/qcw.c **** #include "telemetry.h"
  37:..\common\ud3core/qcw.c **** 
  38:..\common\ud3core/qcw.c **** TimerHandle_t xQCW_Timer;
  39:..\common\ud3core/qcw.c **** 
  40:..\common\ud3core/qcw.c **** void qcw_handle(){
  41:..\common\ud3core/qcw.c ****     if(ramp.index >= ramp.stop_index){
  42:..\common\ud3core/qcw.c ****         qcw_modulate(0);
  43:..\common\ud3core/qcw.c ****         QCW_enable_Control = 0;
  44:..\common\ud3core/qcw.c ****         params.pwmb_psb_val = 0;
  45:..\common\ud3core/qcw.c ****         ramp.index = 0;
  46:..\common\ud3core/qcw.c ****     }else{
  47:..\common\ud3core/qcw.c ****         qcw_modulate(ramp.data[ramp.index]);
  48:..\common\ud3core/qcw.c ****         ramp.index++;
  49:..\common\ud3core/qcw.c ****     }
  50:..\common\ud3core/qcw.c **** }
  51:..\common\ud3core/qcw.c **** 
  52:..\common\ud3core/qcw.c **** void qcw_regenerate_ramp(){
  37              		.loc 1 52 0
  38              		.cfi_startproc
  39              		@ args = 0, pretend = 0, frame = 16
  40              		@ frame_needed = 0, uses_anonymous_args = 0
  41              	.LVL0:
  42 0000 2DE9F04F 		push	{r4, r5, r6, r7, r8, r9, r10, fp, lr}
  43              		.cfi_def_cfa_offset 36
  44              		.cfi_offset 4, -36
  45              		.cfi_offset 5, -32
  46              		.cfi_offset 6, -28
  47              		.cfi_offset 7, -24
  48              		.cfi_offset 8, -20
  49              		.cfi_offset 9, -16
  50              		.cfi_offset 10, -12
  51              		.cfi_offset 11, -8
  52              		.cfi_offset 14, -4
  53:..\common\ud3core/qcw.c ****     
  54:..\common\ud3core/qcw.c ****     uint8_t toggle =0;
  55:..\common\ud3core/qcw.c ****     float divider = (10.0f / (float)param.qcw_freq) / 0.00025f;  //Frequency in tenths
  53              		.loc 1 55 0
  54 0004 424C     		ldr	r4, .L19
  52:..\common\ud3core/qcw.c ****     
  55              		.loc 1 52 0
  56 0006 85B0     		sub	sp, sp, #20
  57              		.cfi_def_cfa_offset 56
  56:..\common\ud3core/qcw.c ****     uint32_t div = roundf(divider);
ARM GAS  C:\Users\chemi\AppData\Local\Temp\ccnzQNjn.s 			page 3


  58              		.loc 1 56 0
  59 0008 208B     		ldrh	r0, [r4, #24]
  60 000a FFF7FEFF 		bl	__aeabi_ui2f
  61              	.LVL1:
  62 000e 0146     		mov	r1, r0
  63 0010 4048     		ldr	r0, .L19+4
  64 0012 FFF7FEFF 		bl	__aeabi_fdiv
  65              	.LVL2:
  66 0016 4049     		ldr	r1, .L19+8
  67 0018 FFF7FEFF 		bl	__aeabi_fdiv
  68              	.LVL3:
  69 001c FFF7FEFF 		bl	roundf
  70              	.LVL4:
  57:..\common\ud3core/qcw.c ****     
  58:..\common\ud3core/qcw.c ****     uint32_t temp_max = param.qcw_max;
  71              		.loc 1 58 0
  72 0020 94F814B0 		ldrb	fp, [r4, #20]	@ zero_extendqisi2
  59:..\common\ud3core/qcw.c ****     
  60:..\common\ud3core/qcw.c ****     if((temp_max + param.qcw_vol) > 255){
  73              		.loc 1 60 0
  74 0024 94F81A90 		ldrb	r9, [r4, #26]	@ zero_extendqisi2
  75 0028 2546     		mov	r5, r4
  61:..\common\ud3core/qcw.c ****         temp_max -= ((temp_max + param.qcw_vol) - 255);  //Scale the max down to fit the volume
  62:..\common\ud3core/qcw.c ****     }
  63:..\common\ud3core/qcw.c ****     
  64:..\common\ud3core/qcw.c ****     if(ramp.changed){
  76              		.loc 1 64 0
  77 002a 3C4C     		ldr	r4, .L19+12
  60:..\common\ud3core/qcw.c ****         temp_max -= ((temp_max + param.qcw_vol) - 255);  //Scale the max down to fit the volume
  78              		.loc 1 60 0
  79 002c 0BEB0903 		add	r3, fp, r9
  80 0030 FF2B     		cmp	r3, #255
  81              		.loc 1 64 0
  82 0032 2378     		ldrb	r3, [r4]	@ zero_extendqisi2
  56:..\common\ud3core/qcw.c ****     
  83              		.loc 1 56 0
  84 0034 0190     		str	r0, [sp, #4]	@ float
  85              	.LVL5:
  61:..\common\ud3core/qcw.c ****         temp_max -= ((temp_max + param.qcw_vol) - 255);  //Scale the max down to fit the volume
  86              		.loc 1 61 0
  87 0036 88BF     		it	hi
  88 0038 C9F1FF0B 		rsbhi	fp, r9, #255
  89              	.LVL6:
  90              		.loc 1 64 0
  91 003c 002B     		cmp	r3, #0
  92 003e 63D0     		beq	.L1
  93              	.LBB10:
  65:..\common\ud3core/qcw.c ****         float ramp_val = param.qcw_offset;
  94              		.loc 1 65 0
  95 0040 E87C     		ldrb	r0, [r5, #19]	@ zero_extendqisi2
  96              	.LVL7:
  97 0042 FFF7FEFF 		bl	__aeabi_ui2f
  98              	.LVL8:
  66:..\common\ud3core/qcw.c ****         
  67:..\common\ud3core/qcw.c ****         uint32_t max_index = (configuration.max_qcw_pw*10)/MIDI_ISR_US;   
  99              		.loc 1 67 0
 100 0046 364B     		ldr	r3, .L19+16
ARM GAS  C:\Users\chemi\AppData\Local\Temp\ccnzQNjn.s 			page 4


  65:..\common\ud3core/qcw.c ****         float ramp_val = param.qcw_offset;
 101              		.loc 1 65 0
 102 0048 0646     		mov	r6, r0
 103              	.LVL9:
 104              		.loc 1 67 0
 105 004a 1B89     		ldrh	r3, [r3, #8]
 106 004c 0A20     		movs	r0, #10
 107              	.LVL10:
 108 004e 5843     		muls	r0, r3, r0
 109 0050 FFF7FEFF 		bl	__aeabi_i2d
 110              	.LVL11:
 111 0054 0022     		movs	r2, #0
 112 0056 334B     		ldr	r3, .L19+20
 113 0058 FFF7FEFF 		bl	__aeabi_ddiv
 114              	.LVL12:
 115 005c FFF7FEFF 		bl	__aeabi_d2uiz
 116              	.LVL13:
 117 0060 0346     		mov	r3, r0
 118 0062 B0F5C87F 		cmp	r0, #400
 119 0066 28BF     		it	cs
 120 0068 4FF4C873 		movcs	r3, #400
 121 006c 0093     		str	r3, [sp]
 122              	.LVL14:
  68:..\common\ud3core/qcw.c ****         if (max_index > sizeof(ramp.data)) max_index = sizeof(ramp.data);
  69:..\common\ud3core/qcw.c ****         
  70:..\common\ud3core/qcw.c ****         ramp.stop_index = max_index;
 123              		.loc 1 70 0
 124 006e BDF80030 		ldrh	r3, [sp]
 125              	.LVL15:
  71:..\common\ud3core/qcw.c ****         
  72:..\common\ud3core/qcw.c ****         float ramp_increment = param.qcw_ramp / 100.0;
 126              		.loc 1 72 0
 127 0072 288A     		ldrh	r0, [r5, #16]
  70:..\common\ud3core/qcw.c ****         
 128              		.loc 1 70 0
 129 0074 A380     		strh	r3, [r4, #4]	@ movhi
 130              		.loc 1 72 0
 131 0076 FFF7FEFF 		bl	__aeabi_i2d
 132              	.LVL16:
 133 007a 2B4B     		ldr	r3, .L19+24
 134 007c 0022     		movs	r2, #0
 135 007e FFF7FEFF 		bl	__aeabi_ddiv
 136              	.LVL17:
 137 0082 FFF7FEFF 		bl	__aeabi_d2f
 138              	.LVL18:
 139              	.LBB11:
  73:..\common\ud3core/qcw.c ****       
  74:..\common\ud3core/qcw.c ****         for(uint16_t i=0;i<max_index;i++){
  75:..\common\ud3core/qcw.c ****             if(ramp_val > temp_max) ramp_val = temp_max;
  76:..\common\ud3core/qcw.c ****             
  77:..\common\ud3core/qcw.c ****             ramp.data[i]=floorf(ramp_val);
  78:..\common\ud3core/qcw.c ****             if(i>param.qcw_holdoff){
 140              		.loc 1 78 0
 141 0086 AB7C     		ldrb	r3, [r5, #18]	@ zero_extendqisi2
  74:..\common\ud3core/qcw.c ****             if(ramp_val > temp_max) ramp_val = temp_max;
 142              		.loc 1 74 0
 143 0088 0025     		movs	r5, #0
ARM GAS  C:\Users\chemi\AppData\Local\Temp\ccnzQNjn.s 			page 5


 144              	.LBE11:
 145              	.LBE10:
  54:..\common\ud3core/qcw.c ****     float divider = (10.0f / (float)param.qcw_freq) / 0.00025f;  //Frequency in tenths
 146              		.loc 1 54 0
 147 008a AA46     		mov	r10, r5
 148              	.LBB14:
  72:..\common\ud3core/qcw.c ****       
 149              		.loc 1 72 0
 150 008c 0290     		str	r0, [sp, #8]	@ float
 151              	.LVL19:
 152              	.LBB13:
 153              		.loc 1 78 0
 154 008e 0393     		str	r3, [sp, #12]
 155              	.LVL20:
 156              	.L4:
  74:..\common\ud3core/qcw.c ****             if(ramp_val > temp_max) ramp_val = temp_max;
 157              		.loc 1 74 0 discriminator 1
 158 0090 009B     		ldr	r3, [sp]
 159 0092 1FFA85F8 		uxth	r8, r5
 160              	.LVL21:
 161 0096 9845     		cmp	r8, r3
 162 0098 34D2     		bcs	.L18
  75:..\common\ud3core/qcw.c ****             
 163              		.loc 1 75 0
 164 009a 5846     		mov	r0, fp
 165 009c FFF7FEFF 		bl	__aeabi_ui2f
 166              	.LVL22:
 167 00a0 0746     		mov	r7, r0
 168 00a2 0146     		mov	r1, r0
 169 00a4 3046     		mov	r0, r6
 170 00a6 FFF7FEFF 		bl	__aeabi_fcmpgt
 171              	.LVL23:
 172 00aa 00B1     		cbz	r0, .L5
 173 00ac 3E46     		mov	r6, r7
 174              	.LVL24:
 175              	.L5:
  77:..\common\ud3core/qcw.c ****             if(i>param.qcw_holdoff){
 176              		.loc 1 77 0
 177 00ae 3046     		mov	r0, r6
 178 00b0 FFF7FEFF 		bl	floorf
 179              	.LVL25:
 180 00b4 FFF7FEFF 		bl	__aeabi_f2uiz
 181              	.LVL26:
 182 00b8 AFB2     		uxth	r7, r5
 183 00ba E319     		adds	r3, r4, r7
 184 00bc C0B2     		uxtb	r0, r0
 185 00be 9871     		strb	r0, [r3, #6]
 186              		.loc 1 78 0
 187 00c0 039B     		ldr	r3, [sp, #12]
 188 00c2 9845     		cmp	r8, r3
 189 00c4 1CD9     		bls	.L7
  79:..\common\ud3core/qcw.c ****                 ramp_val += ramp_increment;
 190              		.loc 1 79 0
 191 00c6 3046     		mov	r0, r6
 192 00c8 0299     		ldr	r1, [sp, #8]	@ float
 193 00ca FFF7FEFF 		bl	__aeabi_fadd
 194              	.LVL27:
ARM GAS  C:\Users\chemi\AppData\Local\Temp\ccnzQNjn.s 			page 6


 195 00ce 0646     		mov	r6, r0
 196              	.LVL28:
  80:..\common\ud3core/qcw.c ****              
  81:..\common\ud3core/qcw.c ****                 if(param.qcw_vol > 0){
 197              		.loc 1 81 0
 198 00d0 B9F1000F 		cmp	r9, #0
 199 00d4 14D0     		beq	.L7
  82:..\common\ud3core/qcw.c ****                     
  83:..\common\ud3core/qcw.c **** 			        if((i % div) == 0){
 200              		.loc 1 83 0
 201 00d6 0198     		ldr	r0, [sp, #4]	@ float
 202              	.LVL29:
 203 00d8 FFF7FEFF 		bl	__aeabi_f2uiz
 204              	.LVL30:
 205 00dc B8FBF0F3 		udiv	r3, r8, r0
 206 00e0 03FB1080 		mls	r0, r3, r0, r8
 207 00e4 08B9     		cbnz	r0, .L8
  84:..\common\ud3core/qcw.c **** 				        toggle = toggle == 0 ? 1 : 0;
 208              		.loc 1 84 0
 209 00e6 8AF0010A 		eor	r10, r10, #1
 210              	.LVL31:
 211              	.L8:
  85:..\common\ud3core/qcw.c **** 			        }
  86:..\common\ud3core/qcw.c **** 			        if(toggle == 1){
 212              		.loc 1 86 0
 213 00ea BAF1000F 		cmp	r10, #0
 214 00ee 07D0     		beq	.L7
 215              	.LBB12:
  87:..\common\ud3core/qcw.c ****                         uint32_t dat = ramp.data[i];
 216              		.loc 1 87 0
 217 00f0 2744     		add	r7, r7, r4
 218 00f2 BB79     		ldrb	r3, [r7, #6]	@ zero_extendqisi2
 219              	.LVL32:
  88:..\common\ud3core/qcw.c ****                         dat += param.qcw_vol;
 220              		.loc 1 88 0
 221 00f4 4B44     		add	r3, r3, r9
 222              	.LVL33:
  89:..\common\ud3core/qcw.c ****                         if(dat > 255) dat = 255;
  90:..\common\ud3core/qcw.c ****                         ramp.data[i] = dat;
 223              		.loc 1 90 0
 224 00f6 FF2B     		cmp	r3, #255
 225 00f8 28BF     		it	cs
 226 00fa FF23     		movcs	r3, #255
 227              	.LVL34:
 228 00fc DBB2     		uxtb	r3, r3
 229 00fe BB71     		strb	r3, [r7, #6]
 230              	.L7:
 231              	.LVL35:
 232 0100 0135     		adds	r5, r5, #1
 233              	.LVL36:
 234 0102 C5E7     		b	.L4
 235              	.LVL37:
 236              	.L18:
 237              	.LBE12:
 238              	.LBE13:
  91:..\common\ud3core/qcw.c **** 			        }
  92:..\common\ud3core/qcw.c ****                 }   
ARM GAS  C:\Users\chemi\AppData\Local\Temp\ccnzQNjn.s 			page 7


  93:..\common\ud3core/qcw.c ****             }
  94:..\common\ud3core/qcw.c ****             
  95:..\common\ud3core/qcw.c ****         }
  96:..\common\ud3core/qcw.c ****         ramp.changed = pdFALSE;
 239              		.loc 1 96 0
 240 0104 0023     		movs	r3, #0
 241 0106 2370     		strb	r3, [r4]
 242              	.LVL38:
 243              	.L1:
 244              	.LBE14:
  97:..\common\ud3core/qcw.c ****     }
  98:..\common\ud3core/qcw.c **** }
 245              		.loc 1 98 0
 246 0108 05B0     		add	sp, sp, #20
 247              		.cfi_def_cfa_offset 36
 248              		@ sp needed
 249 010a BDE8F08F 		pop	{r4, r5, r6, r7, r8, r9, r10, fp, pc}
 250              	.LVL39:
 251              	.L20:
 252 010e 00BF     		.align	2
 253              	.L19:
 254 0110 00000000 		.word	param
 255 0114 00002041 		.word	1092616192
 256 0118 6F128339 		.word	964891247
 257 011c 00000000 		.word	ramp
 258 0120 00000000 		.word	configuration
 259 0124 00405F40 		.word	1079984128
 260 0128 00005940 		.word	1079574528
 261              		.cfi_endproc
 262              	.LFE69:
 263              		.size	qcw_regenerate_ramp, .-qcw_regenerate_ramp
 264              		.section	.text.qcw_ramp_point,"ax",%progbits
 265              		.align	1
 266              		.global	qcw_ramp_point
 267              		.thumb
 268              		.thumb_func
 269              		.type	qcw_ramp_point, %function
 270              	qcw_ramp_point:
 271              	.LFB71:
  99:..\common\ud3core/qcw.c **** 
 100:..\common\ud3core/qcw.c **** void qcw_cmd_midi_pulse(int32_t volume, int32_t frequencyTenths){
 101:..\common\ud3core/qcw.c ****     param.qcw_freq = frequencyTenths;
 102:..\common\ud3core/qcw.c ****     if(!QCW_enable_Control){
 103:..\common\ud3core/qcw.c ****         ramp.changed = pdTRUE;  
 104:..\common\ud3core/qcw.c ****         qcw_regenerate_ramp();
 105:..\common\ud3core/qcw.c ****         qcw_start();
 106:..\common\ud3core/qcw.c ****     }
 107:..\common\ud3core/qcw.c **** }
 108:..\common\ud3core/qcw.c **** 
 109:..\common\ud3core/qcw.c **** void qcw_ramp_point(uint16_t x,uint8_t y){
 272              		.loc 1 109 0
 273              		.cfi_startproc
 274              		@ args = 0, pretend = 0, frame = 0
 275              		@ frame_needed = 0, uses_anonymous_args = 0
 276              		@ link register save eliminated.
 277              	.LVL40:
 110:..\common\ud3core/qcw.c ****     if(x<sizeof(ramp.data)){
ARM GAS  C:\Users\chemi\AppData\Local\Temp\ccnzQNjn.s 			page 8


 278              		.loc 1 110 0
 279 0000 B0F5C87F 		cmp	r0, #400
 111:..\common\ud3core/qcw.c ****         ramp.data[x] = y;
 280              		.loc 1 111 0
 281 0004 3EBF     		ittt	cc
 282 0006 024B     		ldrcc	r3, .L23
 283 0008 C018     		addcc	r0, r0, r3
 284              	.LVL41:
 285 000a 8171     		strbcc	r1, [r0, #6]
 286 000c 7047     		bx	lr
 287              	.L24:
 288 000e 00BF     		.align	2
 289              	.L23:
 290 0010 00000000 		.word	ramp
 291              		.cfi_endproc
 292              	.LFE71:
 293              		.size	qcw_ramp_point, .-qcw_ramp_point
 294              		.section	.text.qcw_ramp_line,"ax",%progbits
 295              		.align	1
 296              		.global	qcw_ramp_line
 297              		.thumb
 298              		.thumb_func
 299              		.type	qcw_ramp_line, %function
 300              	qcw_ramp_line:
 301              	.LFB72:
 112:..\common\ud3core/qcw.c ****     }
 113:..\common\ud3core/qcw.c **** }
 114:..\common\ud3core/qcw.c **** 
 115:..\common\ud3core/qcw.c **** void qcw_ramp_line(uint16_t x0,uint8_t y0,uint16_t x1, uint8_t y1){
 302              		.loc 1 115 0
 303              		.cfi_startproc
 304              		@ args = 0, pretend = 0, frame = 0
 305              		@ frame_needed = 0, uses_anonymous_args = 0
 306              	.LVL42:
 307 0000 2DE9F043 		push	{r4, r5, r6, r7, r8, r9, lr}
 308              		.cfi_def_cfa_offset 28
 309              		.cfi_offset 4, -28
 310              		.cfi_offset 5, -24
 311              		.cfi_offset 6, -20
 312              		.cfi_offset 7, -16
 313              		.cfi_offset 8, -12
 314              		.cfi_offset 9, -8
 315              		.cfi_offset 14, -4
 116:..\common\ud3core/qcw.c ****     int dx = abs(x1 - x0), sx = x0 < x1 ? 1 : -1;
 316              		.loc 1 116 0
 317 0004 151A     		subs	r5, r2, r0
 318 0006 002D     		cmp	r5, #0
 117:..\common\ud3core/qcw.c **** 	int dy = abs(y1 - y0), sy = y0 < y1 ? 1 : -1;
 319              		.loc 1 117 0
 320 0008 A3EB0106 		sub	r6, r3, r1
 116:..\common\ud3core/qcw.c ****     int dx = abs(x1 - x0), sx = x0 < x1 ? 1 : -1;
 321              		.loc 1 116 0
 322 000c B8BF     		it	lt
 323 000e 6D42     		rsblt	r5, r5, #0
 324              	.LVL43:
 325 0010 8242     		cmp	r2, r0
 326 0012 8CBF     		ite	hi
ARM GAS  C:\Users\chemi\AppData\Local\Temp\ccnzQNjn.s 			page 9


 327 0014 4FF0010C 		movhi	ip, #1
 328 0018 4FF0FF3C 		movls	ip, #-1
 329              	.LVL44:
 330              		.loc 1 117 0
 331 001c 002E     		cmp	r6, #0
 332 001e B8BF     		it	lt
 333 0020 7642     		rsblt	r6, r6, #0
 334              	.LVL45:
 335 0022 8B42     		cmp	r3, r1
 336 0024 8CBF     		ite	hi
 337 0026 4FF0010E 		movhi	lr, #1
 338 002a 4FF0FF3E 		movls	lr, #-1
 339              	.LVL46:
 118:..\common\ud3core/qcw.c **** 	int err = (dx > dy ? dx : -dy) / 2, e2;
 340              		.loc 1 118 0
 341 002e B542     		cmp	r5, r6
 342 0030 08DC     		bgt	.L28
 343              		.loc 1 118 0 is_stmt 0 discriminator 1
 344 0032 0224     		movs	r4, #2
 345 0034 96FBF4F4 		sdiv	r4, r6, r4
 346 0038 6442     		negs	r4, r4
 347              	.L30:
 348              	.LBB15:
 349              	.LBB16:
 111:..\common\ud3core/qcw.c ****     }
 350              		.loc 1 111 0 is_stmt 1
 351 003a DFF84080 		ldr	r8, .L41
 352              	.LBE16:
 353              	.LBE15:
 119:..\common\ud3core/qcw.c ****     
 120:..\common\ud3core/qcw.c **** 	for (;;) {
 121:..\common\ud3core/qcw.c **** 		qcw_ramp_point(x0, y0);
 122:..\common\ud3core/qcw.c **** 		if (x0 == x1 && y0 == y1)
 123:..\common\ud3core/qcw.c **** 			break;
 124:..\common\ud3core/qcw.c **** 		e2 = err;
 125:..\common\ud3core/qcw.c **** 		if (e2 > -dx) {
 354              		.loc 1 125 0
 355 003e C5F10009 		rsb	r9, r5, #0
 356 0042 0CE0     		b	.L29
 357              	.L28:
 118:..\common\ud3core/qcw.c ****     
 358              		.loc 1 118 0 discriminator 2
 359 0044 6C10     		asrs	r4, r5, #1
 360 0046 F8E7     		b	.L30
 361              	.LVL47:
 362              	.L40:
 122:..\common\ud3core/qcw.c **** 			break;
 363              		.loc 1 122 0 discriminator 1
 364 0048 9942     		cmp	r1, r3
 365 004a 15D0     		beq	.L25
 366              	.L32:
 367              	.LVL48:
 368              		.loc 1 125 0
 369 004c 4C45     		cmp	r4, r9
 126:..\common\ud3core/qcw.c **** 			err -= dy;
 127:..\common\ud3core/qcw.c **** 			x0 += sx;
 370              		.loc 1 127 0
ARM GAS  C:\Users\chemi\AppData\Local\Temp\ccnzQNjn.s 			page 10


 371 004e C3BF     		ittte	gt
 372 0050 6044     		addgt	r0, r0, ip
 373              	.LVL49:
 126:..\common\ud3core/qcw.c **** 			err -= dy;
 374              		.loc 1 126 0
 375 0052 A71B     		subgt	r7, r4, r6
 376              	.LVL50:
 377              		.loc 1 127 0
 378 0054 80B2     		uxthgt	r0, r0
 379              	.LVL51:
 380 0056 2746     		movle	r7, r4
 381              	.LVL52:
 128:..\common\ud3core/qcw.c **** 		}
 129:..\common\ud3core/qcw.c **** 		if (e2 < dy) {
 382              		.loc 1 129 0
 383 0058 B442     		cmp	r4, r6
 384 005a 09DB     		blt	.L39
 385              	.L35:
 117:..\common\ud3core/qcw.c **** 	int err = (dx > dy ? dx : -dy) / 2, e2;
 386              		.loc 1 117 0
 387 005c 3C46     		mov	r4, r7
 388              	.LVL53:
 389              	.L29:
 390              	.LBB18:
 391              	.LBB17:
 110:..\common\ud3core/qcw.c ****         ramp.data[x] = y;
 392              		.loc 1 110 0
 393 005e B0F5C87F 		cmp	r0, #400
 111:..\common\ud3core/qcw.c ****     }
 394              		.loc 1 111 0
 395 0062 3CBF     		itt	cc
 396 0064 08EB0007 		addcc	r7, r8, r0
 397 0068 B971     		strbcc	r1, [r7, #6]
 398              	.LVL54:
 399              	.LBE17:
 400              	.LBE18:
 122:..\common\ud3core/qcw.c **** 			break;
 401              		.loc 1 122 0
 402 006a 9042     		cmp	r0, r2
 403 006c EED1     		bne	.L32
 404 006e EBE7     		b	.L40
 405              	.LVL55:
 406              	.L39:
 130:..\common\ud3core/qcw.c **** 			err += dx;
 131:..\common\ud3core/qcw.c **** 			y0 += sy;
 407              		.loc 1 131 0
 408 0070 7144     		add	r1, r1, lr
 409              	.LVL56:
 130:..\common\ud3core/qcw.c **** 			err += dx;
 410              		.loc 1 130 0
 411 0072 2F44     		add	r7, r7, r5
 412              	.LVL57:
 413              		.loc 1 131 0
 414 0074 C9B2     		uxtb	r1, r1
 415              	.LVL58:
 416 0076 F1E7     		b	.L35
 417              	.LVL59:
ARM GAS  C:\Users\chemi\AppData\Local\Temp\ccnzQNjn.s 			page 11


 418              	.L25:
 419 0078 BDE8F083 		pop	{r4, r5, r6, r7, r8, r9, pc}
 420              	.LVL60:
 421              	.L42:
 422              		.align	2
 423              	.L41:
 424 007c 00000000 		.word	ramp
 425              		.cfi_endproc
 426              	.LFE72:
 427              		.size	qcw_ramp_line, .-qcw_ramp_line
 428              		.section	.text.qcw_ramp_visualize,"ax",%progbits
 429              		.align	1
 430              		.global	qcw_ramp_visualize
 431              		.thumb
 432              		.thumb_func
 433              		.type	qcw_ramp_visualize, %function
 434              	qcw_ramp_visualize:
 435              	.LFB73:
 132:..\common\ud3core/qcw.c **** 		}
 133:..\common\ud3core/qcw.c **** 	}
 134:..\common\ud3core/qcw.c **** }
 135:..\common\ud3core/qcw.c **** 
 136:..\common\ud3core/qcw.c **** 
 137:..\common\ud3core/qcw.c **** void qcw_ramp_visualize(CHART *chart, TERMINAL_HANDLE * handle){
 436              		.loc 1 137 0
 437              		.cfi_startproc
 438              		@ args = 0, pretend = 0, frame = 0
 439              		@ frame_needed = 0, uses_anonymous_args = 0
 440              	.LVL61:
 441 0000 2DE9F743 		push	{r0, r1, r2, r4, r5, r6, r7, r8, r9, lr}
 442              		.cfi_def_cfa_offset 40
 443              		.cfi_offset 4, -28
 444              		.cfi_offset 5, -24
 445              		.cfi_offset 6, -20
 446              		.cfi_offset 7, -16
 447              		.cfi_offset 8, -12
 448              		.cfi_offset 9, -8
 449              		.cfi_offset 14, -4
 450              		.loc 1 137 0
 451 0004 0446     		mov	r4, r0
 452 0006 0E46     		mov	r6, r1
 453              	.LBB19:
 138:..\common\ud3core/qcw.c ****     for(uint16_t i = 0; i<sizeof(ramp.data)-1;i++){
 454              		.loc 1 138 0
 455 0008 40F28F18 		movw	r8, #399
 139:..\common\ud3core/qcw.c ****         send_chart_line(chart->offset_x+i,chart->height+chart->offset_y-ramp.data[i],chart->offset_
 456              		.loc 1 139 0
 457 000c 1D4F     		ldr	r7, .L46
 458              	.LBE19:
 137:..\common\ud3core/qcw.c ****     for(uint16_t i = 0; i<sizeof(ramp.data)-1;i++){
 459              		.loc 1 137 0
 460 000e 0025     		movs	r5, #0
 461              	.LBB20:
 462              		.loc 1 139 0
 463 0010 4FF00309 		mov	r9, #3
 464              	.LVL62:
 465              	.L44:
ARM GAS  C:\Users\chemi\AppData\Local\Temp\ccnzQNjn.s 			page 12


 466              		.loc 1 139 0 is_stmt 0 discriminator 3
 467 0014 E388     		ldrh	r3, [r4, #6]
 468 0016 2188     		ldrh	r1, [r4]
 469 0018 A088     		ldrh	r0, [r4, #4]
 470 001a 1944     		add	r1, r1, r3
 471 001c 2844     		add	r0, r0, r5
 472 001e 7B19     		adds	r3, r7, r5
 473 0020 0135     		adds	r5, r5, #1
 474              	.LVL63:
 475 0022 93F806E0 		ldrb	lr, [r3, #6]	@ zero_extendqisi2
 476 0026 7B19     		adds	r3, r7, r5
 477 0028 9B79     		ldrb	r3, [r3, #6]	@ zero_extendqisi2
 478 002a 89B2     		uxth	r1, r1
 479 002c 80B2     		uxth	r0, r0
 480 002e CB1A     		subs	r3, r1, r3
 481 0030 421C     		adds	r2, r0, #1
 482 0032 CEEB0101 		rsb	r1, lr, r1
 483 0036 0196     		str	r6, [sp, #4]
 484 0038 CDF80090 		str	r9, [sp]
 485 003c 9BB2     		uxth	r3, r3
 486 003e 92B2     		uxth	r2, r2
 487 0040 89B2     		uxth	r1, r1
 488 0042 FFF7FEFF 		bl	send_chart_line
 489              	.LVL64:
 138:..\common\ud3core/qcw.c ****     for(uint16_t i = 0; i<sizeof(ramp.data)-1;i++){
 490              		.loc 1 138 0 is_stmt 1 discriminator 3
 491 0046 4545     		cmp	r5, r8
 492 0048 E4D1     		bne	.L44
 493              	.LVL65:
 494              	.LBE20:
 140:..\common\ud3core/qcw.c ****     }
 141:..\common\ud3core/qcw.c ****     uint16_t red_line;
 142:..\common\ud3core/qcw.c ****     red_line = configuration.max_qcw_pw*10 / MIDI_ISR_US;
 495              		.loc 1 142 0
 496 004a 0F4B     		ldr	r3, .L46+4
 143:..\common\ud3core/qcw.c ****     
 144:..\common\ud3core/qcw.c ****     send_chart_line(chart->offset_x+red_line,chart->offset_y,chart->offset_x+red_line,chart->offset
 497              		.loc 1 144 0
 498 004c 0A20     		movs	r0, #10
 499 004e 1B89     		ldrh	r3, [r3, #8]
 500 0050 5843     		muls	r0, r3, r0
 501 0052 FFF7FEFF 		bl	__aeabi_i2d
 502              	.LVL66:
 503 0056 0022     		movs	r2, #0
 504 0058 0C4B     		ldr	r3, .L46+8
 505 005a FFF7FEFF 		bl	__aeabi_ddiv
 506              	.LVL67:
 507 005e FFF7FEFF 		bl	__aeabi_d2uiz
 508              	.LVL68:
 509 0062 A288     		ldrh	r2, [r4, #4]
 510 0064 E188     		ldrh	r1, [r4, #6]
 511 0066 2388     		ldrh	r3, [r4]
 512 0068 1044     		add	r0, r0, r2
 513 006a 82B2     		uxth	r2, r0
 514 006c 0B44     		add	r3, r3, r1
 515 006e 0120     		movs	r0, #1
 516 0070 0090     		str	r0, [sp]
ARM GAS  C:\Users\chemi\AppData\Local\Temp\ccnzQNjn.s 			page 13


 517 0072 0196     		str	r6, [sp, #4]
 518 0074 9BB2     		uxth	r3, r3
 519 0076 1046     		mov	r0, r2
 520 0078 FFF7FEFF 		bl	send_chart_line
 521              	.LVL69:
 145:..\common\ud3core/qcw.c ****     
 146:..\common\ud3core/qcw.c **** }
 522              		.loc 1 146 0
 523 007c 03B0     		add	sp, sp, #12
 524              		.cfi_def_cfa_offset 28
 525              		@ sp needed
 526 007e BDE8F083 		pop	{r4, r5, r6, r7, r8, r9, pc}
 527              	.LVL70:
 528              	.L47:
 529 0082 00BF     		.align	2
 530              	.L46:
 531 0084 00000000 		.word	ramp
 532 0088 00000000 		.word	configuration
 533 008c 00405F40 		.word	1079984128
 534              		.cfi_endproc
 535              	.LFE73:
 536              		.size	qcw_ramp_visualize, .-qcw_ramp_visualize
 537              		.section	.text.qcw_start,"ax",%progbits
 538              		.align	1
 539              		.global	qcw_start
 540              		.thumb
 541              		.thumb_func
 542              		.type	qcw_start, %function
 543              	qcw_start:
 544              	.LFB74:
 147:..\common\ud3core/qcw.c **** 
 148:..\common\ud3core/qcw.c **** void qcw_start(){
 545              		.loc 1 148 0
 546              		.cfi_startproc
 547              		@ args = 0, pretend = 0, frame = 0
 548              		@ frame_needed = 0, uses_anonymous_args = 0
 549              		@ link register save eliminated.
 149:..\common\ud3core/qcw.c ****     if(tt.n.dutycycle.value > configuration.max_qcw_duty) return;  //Don't command a pulse if duty 
 550              		.loc 1 149 0
 551 0000 0A4B     		ldr	r3, .L50
 552 0002 0B4A     		ldr	r2, .L50+4
 553 0004 5B8C     		ldrh	r3, [r3, #34]
 554 0006 D2F8C021 		ldr	r2, [r2, #448]
 555 000a 9A42     		cmp	r2, r3
 556 000c 0DDC     		bgt	.L48
 557              	.LBB23:
 558              	.LBB24:
 150:..\common\ud3core/qcw.c ****        
 151:..\common\ud3core/qcw.c ****     ramp.index=0;
 559              		.loc 1 151 0
 560 000e 094B     		ldr	r3, .L50+8
 561 0010 0022     		movs	r2, #0
 562 0012 5A80     		strh	r2, [r3, #2]	@ movhi
 152:..\common\ud3core/qcw.c **** 	//the next stuff is time sensitive, so disable interrupts to avoid glitches
 153:..\common\ud3core/qcw.c **** 	CyGlobalIntDisable;
 563              		.loc 1 153 0
 564              		.syntax unified
ARM GAS  C:\Users\chemi\AppData\Local\Temp\ccnzQNjn.s 			page 14


 565              	@ 153 "..\common\ud3core\qcw.c" 1
 566 0014 72B6     		CPSID   i
 567              	@ 0 "" 2
 154:..\common\ud3core/qcw.c **** 	//now enable the QCW interrupter
 155:..\common\ud3core/qcw.c **** 	QCW_enable_Control = 1;
 568              		.loc 1 155 0
 569              		.thumb
 570              		.syntax unified
 571 0016 084B     		ldr	r3, .L50+12
 572 0018 0122     		movs	r2, #1
 573 001a 1A70     		strb	r2, [r3]
 156:..\common\ud3core/qcw.c **** 	params.pwmb_psb_val = params.pwm_top - params.pwmb_start_psb_val;
 574              		.loc 1 156 0
 575 001c 074A     		ldr	r2, .L50+16
 576 001e 5389     		ldrh	r3, [r2, #10]
 577 0020 118A     		ldrh	r1, [r2, #16]
 578 0022 5B1A     		subs	r3, r3, r1
 579 0024 9BB2     		uxth	r3, r3
 580 0026 D381     		strh	r3, [r2, #14]	@ movhi
 157:..\common\ud3core/qcw.c **** 	CyGlobalIntEnable;
 581              		.loc 1 157 0
 582              		.syntax unified
 583              	@ 157 "..\common\ud3core\qcw.c" 1
 584 0028 62B6     		CPSIE   i
 585              	@ 0 "" 2
 586              		.thumb
 587              		.syntax unified
 588              	.L48:
 589 002a 7047     		bx	lr
 590              	.L51:
 591              		.align	2
 592              	.L50:
 593 002c 00000000 		.word	configuration
 594 0030 00000000 		.word	tt
 595 0034 00000000 		.word	ramp
 596 0038 79640040 		.word	1073767545
 597 003c 00000000 		.word	params
 598              	.LBE24:
 599              	.LBE23:
 600              		.cfi_endproc
 601              	.LFE74:
 602              		.size	qcw_start, .-qcw_start
 603              		.section	.text.qcw_cmd_midi_pulse,"ax",%progbits
 604              		.align	1
 605              		.global	qcw_cmd_midi_pulse
 606              		.thumb
 607              		.thumb_func
 608              		.type	qcw_cmd_midi_pulse, %function
 609              	qcw_cmd_midi_pulse:
 610              	.LFB70:
 100:..\common\ud3core/qcw.c ****     param.qcw_freq = frequencyTenths;
 611              		.loc 1 100 0
 612              		.cfi_startproc
 613              		@ args = 0, pretend = 0, frame = 0
 614              		@ frame_needed = 0, uses_anonymous_args = 0
 615              	.LVL71:
 616 0000 08B5     		push	{r3, lr}
ARM GAS  C:\Users\chemi\AppData\Local\Temp\ccnzQNjn.s 			page 15


 617              		.cfi_def_cfa_offset 8
 618              		.cfi_offset 3, -8
 619              		.cfi_offset 14, -4
 101:..\common\ud3core/qcw.c ****     if(!QCW_enable_Control){
 620              		.loc 1 101 0
 621 0002 074B     		ldr	r3, .L54
 622 0004 1983     		strh	r1, [r3, #24]	@ movhi
 102:..\common\ud3core/qcw.c ****         ramp.changed = pdTRUE;  
 623              		.loc 1 102 0
 624 0006 074B     		ldr	r3, .L54+4
 625 0008 1B78     		ldrb	r3, [r3]	@ zero_extendqisi2
 626 000a 43B9     		cbnz	r3, .L52
 103:..\common\ud3core/qcw.c ****         qcw_regenerate_ramp();
 627              		.loc 1 103 0
 628 000c 064B     		ldr	r3, .L54+8
 629 000e 0122     		movs	r2, #1
 630 0010 1A70     		strb	r2, [r3]
 104:..\common\ud3core/qcw.c ****         qcw_start();
 631              		.loc 1 104 0
 632 0012 FFF7FEFF 		bl	qcw_regenerate_ramp
 633              	.LVL72:
 107:..\common\ud3core/qcw.c **** 
 634              		.loc 1 107 0
 635 0016 BDE80840 		pop	{r3, lr}
 636              		.cfi_remember_state
 637              		.cfi_restore 14
 638              		.cfi_restore 3
 639              		.cfi_def_cfa_offset 0
 105:..\common\ud3core/qcw.c ****     }
 640              		.loc 1 105 0
 641 001a FFF7FEBF 		b	qcw_start
 642              	.LVL73:
 643              	.L52:
 644              		.cfi_restore_state
 645 001e 08BD     		pop	{r3, pc}
 646              	.L55:
 647              		.align	2
 648              	.L54:
 649 0020 00000000 		.word	param
 650 0024 79640040 		.word	1073767545
 651 0028 00000000 		.word	ramp
 652              		.cfi_endproc
 653              	.LFE70:
 654              		.size	qcw_cmd_midi_pulse, .-qcw_cmd_midi_pulse
 655              		.section	.text.vQCW_Timer_Callback,"ax",%progbits
 656              		.align	1
 657              		.global	vQCW_Timer_Callback
 658              		.thumb
 659              		.thumb_func
 660              		.type	vQCW_Timer_Callback, %function
 661              	vQCW_Timer_Callback:
 662              	.LFB79:
 158:..\common\ud3core/qcw.c **** }
 159:..\common\ud3core/qcw.c **** 
 160:..\common\ud3core/qcw.c **** void qcw_modulate(uint16_t val){
 161:..\common\ud3core/qcw.c ****     //linearize modulation value based on fb_filter_out period
 162:..\common\ud3core/qcw.c **** 	uint16_t shift_period = (val * (params.pwm_top - fb_filter_out)) >> 8;
ARM GAS  C:\Users\chemi\AppData\Local\Temp\ccnzQNjn.s 			page 16


 163:..\common\ud3core/qcw.c **** 	//assign new modulation value to the params.pwmb_psb_val ram
 164:..\common\ud3core/qcw.c **** 	if ((shift_period + params.pwmb_start_psb_val) > (params.pwmb_start_prd - 4)) {
 165:..\common\ud3core/qcw.c **** 		params.pwmb_psb_val = 4;
 166:..\common\ud3core/qcw.c **** 	} else {
 167:..\common\ud3core/qcw.c **** 		params.pwmb_psb_val = params.pwm_top - (shift_period + params.pwmb_start_psb_val);
 168:..\common\ud3core/qcw.c **** 	}  
 169:..\common\ud3core/qcw.c **** }
 170:..\common\ud3core/qcw.c **** 
 171:..\common\ud3core/qcw.c **** void qcw_stop(){
 172:..\common\ud3core/qcw.c ****     QCW_enable_Control = 0;
 173:..\common\ud3core/qcw.c ****     params.pwmb_psb_val = 0;
 174:..\common\ud3core/qcw.c **** }
 175:..\common\ud3core/qcw.c **** 
 176:..\common\ud3core/qcw.c **** uint8_t callback_rampFunction(parameter_entry * params, uint8_t index, TERMINAL_HANDLE * handle){
 177:..\common\ud3core/qcw.c ****     ramp.changed = pdTRUE;
 178:..\common\ud3core/qcw.c ****     if(!QCW_enable_Control){
 179:..\common\ud3core/qcw.c ****         qcw_regenerate_ramp();
 180:..\common\ud3core/qcw.c ****     }
 181:..\common\ud3core/qcw.c ****     
 182:..\common\ud3core/qcw.c ****     return pdPASS;
 183:..\common\ud3core/qcw.c **** }
 184:..\common\ud3core/qcw.c **** 
 185:..\common\ud3core/qcw.c **** 
 186:..\common\ud3core/qcw.c **** 
 187:..\common\ud3core/qcw.c **** uint8_t CMD_ramp(TERMINAL_HANDLE * handle, uint8_t argCount, char ** args){
 188:..\common\ud3core/qcw.c ****     if(argCount==0 || strcmp(args[0], "-?") == 0){
 189:..\common\ud3core/qcw.c ****         ttprintf(   "Usage: ramp line x1 y1 x2 y2\r\n"
 190:..\common\ud3core/qcw.c ****                     "       ramp point x y\r\n"
 191:..\common\ud3core/qcw.c ****                     "       ramp clear\r\n"
 192:..\common\ud3core/qcw.c ****                     "       ramp draw\r\n");
 193:..\common\ud3core/qcw.c ****         return TERM_CMD_EXIT_SUCCESS;
 194:..\common\ud3core/qcw.c ****     } 
 195:..\common\ud3core/qcw.c ****     
 196:..\common\ud3core/qcw.c ****   
 197:..\common\ud3core/qcw.c ****     if(strcmp(args[0], "point") == 0 && argCount == 3){
 198:..\common\ud3core/qcw.c ****         int x = atoi(args[1]);
 199:..\common\ud3core/qcw.c ****         int y = atoi(args[2]);
 200:..\common\ud3core/qcw.c ****         qcw_ramp_point(x,y);
 201:..\common\ud3core/qcw.c ****         return TERM_CMD_EXIT_SUCCESS;
 202:..\common\ud3core/qcw.c ****         
 203:..\common\ud3core/qcw.c ****     } else if(strcmp(args[0], "line") == 0 && argCount == 5){
 204:..\common\ud3core/qcw.c ****         int x0 = atoi(args[1]);
 205:..\common\ud3core/qcw.c ****         int y0 = atoi(args[2]);
 206:..\common\ud3core/qcw.c ****         int x1 = atoi(args[3]);
 207:..\common\ud3core/qcw.c ****         int y1 = atoi(args[4]);
 208:..\common\ud3core/qcw.c ****         qcw_ramp_line(x0,y0,x1,y1);
 209:..\common\ud3core/qcw.c ****         return TERM_CMD_EXIT_SUCCESS;
 210:..\common\ud3core/qcw.c ****         
 211:..\common\ud3core/qcw.c ****     } else if(strcmp(args[0], "clear") == 0){
 212:..\common\ud3core/qcw.c ****         for(uint16_t i = 0; i<sizeof(ramp.data);i++){
 213:..\common\ud3core/qcw.c ****             ramp.data[i] = 0;
 214:..\common\ud3core/qcw.c ****         }
 215:..\common\ud3core/qcw.c ****         return TERM_CMD_EXIT_SUCCESS;
 216:..\common\ud3core/qcw.c ****     } else if(strcmp(args[0], "draw") == 0){
 217:..\common\ud3core/qcw.c ****         port_str * ptr = handle->port;
 218:..\common\ud3core/qcw.c ****         if(ptr->term_mode == PORT_TERM_VT100){
 219:..\common\ud3core/qcw.c ****             ttprintf("Command only available with Teslaterm\r\n");
ARM GAS  C:\Users\chemi\AppData\Local\Temp\ccnzQNjn.s 			page 17


 220:..\common\ud3core/qcw.c ****             return TERM_CMD_EXIT_SUCCESS;
 221:..\common\ud3core/qcw.c ****         }
 222:..\common\ud3core/qcw.c ****         tsk_overlay_chart_stop();
 223:..\common\ud3core/qcw.c ****         send_chart_clear(handle, "QCW ramp");
 224:..\common\ud3core/qcw.c ****         CHART temp;
 225:..\common\ud3core/qcw.c ****         temp.height = RAMP_CHART_HEIGHT;
 226:..\common\ud3core/qcw.c ****         temp.width = RAMP_CHART_WIDTH;
 227:..\common\ud3core/qcw.c ****         temp.offset_x = RAMP_CHART_OFFSET_X;
 228:..\common\ud3core/qcw.c ****         temp.offset_y = RAMP_CHART_OFFSET_Y;
 229:..\common\ud3core/qcw.c ****         temp.div_x = RAMP_CHART_DIV_X;
 230:..\common\ud3core/qcw.c ****         temp.div_y = RAMP_CHART_DIV_Y;
 231:..\common\ud3core/qcw.c ****         
 232:..\common\ud3core/qcw.c ****         tt_chart_init(&temp,handle);
 233:..\common\ud3core/qcw.c ****         qcw_ramp_visualize(&temp,handle);
 234:..\common\ud3core/qcw.c ****         return TERM_CMD_EXIT_SUCCESS;
 235:..\common\ud3core/qcw.c ****     }
 236:..\common\ud3core/qcw.c ****      return TERM_CMD_EXIT_SUCCESS;
 237:..\common\ud3core/qcw.c **** }
 238:..\common\ud3core/qcw.c **** 
 239:..\common\ud3core/qcw.c **** /*****************************************************************************
 240:..\common\ud3core/qcw.c **** * Timer callback for the QCW autofire
 241:..\common\ud3core/qcw.c **** ******************************************************************************/
 242:..\common\ud3core/qcw.c **** void vQCW_Timer_Callback(TimerHandle_t xTimer){
 663              		.loc 1 242 0
 664              		.cfi_startproc
 665              		@ args = 0, pretend = 0, frame = 0
 666              		@ frame_needed = 0, uses_anonymous_args = 0
 667              	.LVL74:
 668 0000 13B5     		push	{r0, r1, r4, lr}
 669              		.cfi_def_cfa_offset 16
 670              		.cfi_offset 4, -8
 671              		.cfi_offset 14, -4
 672              		.loc 1 242 0
 673 0002 0446     		mov	r4, r0
 243:..\common\ud3core/qcw.c ****     qcw_regenerate_ramp();
 674              		.loc 1 243 0
 675 0004 FFF7FEFF 		bl	qcw_regenerate_ramp
 676              	.LVL75:
 244:..\common\ud3core/qcw.c ****     qcw_start();
 677              		.loc 1 244 0
 678 0008 FFF7FEFF 		bl	qcw_start
 679              	.LVL76:
 245:..\common\ud3core/qcw.c ****     if(param.qcw_repeat<100) param.qcw_repeat = 100;
 680              		.loc 1 245 0
 681 000c 074B     		ldr	r3, .L58
 246:..\common\ud3core/qcw.c ****     xTimerChangePeriod( xTimer, param.qcw_repeat / portTICK_PERIOD_MS, 0 );
 682              		.loc 1 246 0
 683 000e 0421     		movs	r1, #4
 245:..\common\ud3core/qcw.c ****     if(param.qcw_repeat<100) param.qcw_repeat = 100;
 684              		.loc 1 245 0
 685 0010 DA8A     		ldrh	r2, [r3, #22]
 686              		.loc 1 246 0
 687 0012 2046     		mov	r0, r4
 245:..\common\ud3core/qcw.c ****     if(param.qcw_repeat<100) param.qcw_repeat = 100;
 688              		.loc 1 245 0
 689 0014 632A     		cmp	r2, #99
 690 0016 9CBF     		itt	ls
ARM GAS  C:\Users\chemi\AppData\Local\Temp\ccnzQNjn.s 			page 18


 691 0018 6422     		movls	r2, #100
 692 001a DA82     		strhls	r2, [r3, #22]	@ movhi
 693              		.loc 1 246 0
 694 001c DA8A     		ldrh	r2, [r3, #22]
 695 001e 0023     		movs	r3, #0
 696 0020 0093     		str	r3, [sp]
 697 0022 FFF7FEFF 		bl	xTimerGenericCommand
 698              	.LVL77:
 247:..\common\ud3core/qcw.c **** }
 699              		.loc 1 247 0
 700 0026 02B0     		add	sp, sp, #8
 701              		.cfi_def_cfa_offset 8
 702              		@ sp needed
 703 0028 10BD     		pop	{r4, pc}
 704              	.LVL78:
 705              	.L59:
 706 002a 00BF     		.align	2
 707              	.L58:
 708 002c 00000000 		.word	param
 709              		.cfi_endproc
 710              	.LFE79:
 711              		.size	vQCW_Timer_Callback, .-vQCW_Timer_Callback
 712              		.section	.text.qcw_modulate,"ax",%progbits
 713              		.align	1
 714              		.global	qcw_modulate
 715              		.thumb
 716              		.thumb_func
 717              		.type	qcw_modulate, %function
 718              	qcw_modulate:
 719              	.LFB75:
 160:..\common\ud3core/qcw.c ****     //linearize modulation value based on fb_filter_out period
 720              		.loc 1 160 0
 721              		.cfi_startproc
 722              		@ args = 0, pretend = 0, frame = 0
 723              		@ frame_needed = 0, uses_anonymous_args = 0
 724              	.LVL79:
 162:..\common\ud3core/qcw.c **** 	//assign new modulation value to the params.pwmb_psb_val ram
 725              		.loc 1 162 0
 726 0000 0E49     		ldr	r1, .L63
 727 0002 0F4A     		ldr	r2, .L63+4
 728 0004 4B89     		ldrh	r3, [r1, #10]
 729 0006 1288     		ldrh	r2, [r2]
 730 0008 9BB2     		uxth	r3, r3
 731 000a 9B1A     		subs	r3, r3, r2
 732 000c 5843     		muls	r0, r3, r0
 733              	.LVL80:
 164:..\common\ud3core/qcw.c **** 		params.pwmb_psb_val = 4;
 734              		.loc 1 164 0
 735 000e CA88     		ldrh	r2, [r1, #6]
 736 0010 0B8A     		ldrh	r3, [r1, #16]
 162:..\common\ud3core/qcw.c **** 	//assign new modulation value to the params.pwmb_psb_val ram
 737              		.loc 1 162 0
 738 0012 0012     		asrs	r0, r0, #8
 739              	.LVL81:
 160:..\common\ud3core/qcw.c ****     //linearize modulation value based on fb_filter_out period
 740              		.loc 1 160 0
 741 0014 10B5     		push	{r4, lr}
ARM GAS  C:\Users\chemi\AppData\Local\Temp\ccnzQNjn.s 			page 19


 742              		.cfi_def_cfa_offset 8
 743              		.cfi_offset 4, -8
 744              		.cfi_offset 14, -4
 164:..\common\ud3core/qcw.c **** 		params.pwmb_psb_val = 4;
 745              		.loc 1 164 0
 746 0016 92B2     		uxth	r2, r2
 747 0018 9BB2     		uxth	r3, r3
 748 001a 84B2     		uxth	r4, r0
 749 001c 033A     		subs	r2, r2, #3
 750 001e 2344     		add	r3, r3, r4
 751 0020 9A42     		cmp	r2, r3
 752 0022 02DC     		bgt	.L61
 165:..\common\ud3core/qcw.c **** 	} else {
 753              		.loc 1 165 0
 754 0024 0423     		movs	r3, #4
 755 0026 CB81     		strh	r3, [r1, #14]	@ movhi
 756 0028 10BD     		pop	{r4, pc}
 757              	.L61:
 167:..\common\ud3core/qcw.c **** 	}  
 758              		.loc 1 167 0
 759 002a 4B89     		ldrh	r3, [r1, #10]
 760 002c 9AB2     		uxth	r2, r3
 761 002e 0B8A     		ldrh	r3, [r1, #16]
 762 0030 9BB2     		uxth	r3, r3
 763 0032 D31A     		subs	r3, r2, r3
 764 0034 181A     		subs	r0, r3, r0
 765              	.LVL82:
 766 0036 80B2     		uxth	r0, r0
 767 0038 C881     		strh	r0, [r1, #14]	@ movhi
 768 003a 10BD     		pop	{r4, pc}
 769              	.LVL83:
 770              	.L64:
 771              		.align	2
 772              	.L63:
 773 003c 00000000 		.word	params
 774 0040 00000000 		.word	fb_filter_out
 775              		.cfi_endproc
 776              	.LFE75:
 777              		.size	qcw_modulate, .-qcw_modulate
 778              		.section	.text.qcw_handle,"ax",%progbits
 779              		.align	1
 780              		.global	qcw_handle
 781              		.thumb
 782              		.thumb_func
 783              		.type	qcw_handle, %function
 784              	qcw_handle:
 785              	.LFB68:
  40:..\common\ud3core/qcw.c ****     if(ramp.index >= ramp.stop_index){
 786              		.loc 1 40 0
 787              		.cfi_startproc
 788              		@ args = 0, pretend = 0, frame = 0
 789              		@ frame_needed = 0, uses_anonymous_args = 0
 790 0000 10B5     		push	{r4, lr}
 791              		.cfi_def_cfa_offset 8
 792              		.cfi_offset 4, -8
 793              		.cfi_offset 14, -4
  41:..\common\ud3core/qcw.c ****         qcw_modulate(0);
ARM GAS  C:\Users\chemi\AppData\Local\Temp\ccnzQNjn.s 			page 20


 794              		.loc 1 41 0
 795 0002 0D4C     		ldr	r4, .L69
 796 0004 6288     		ldrh	r2, [r4, #2]
 797 0006 A388     		ldrh	r3, [r4, #4]
 798 0008 92B2     		uxth	r2, r2
 799 000a 9BB2     		uxth	r3, r3
 800 000c 9A42     		cmp	r2, r3
 801 000e 08D3     		bcc	.L66
  42:..\common\ud3core/qcw.c ****         QCW_enable_Control = 0;
 802              		.loc 1 42 0
 803 0010 0020     		movs	r0, #0
 804 0012 FFF7FEFF 		bl	qcw_modulate
 805              	.LVL84:
  43:..\common\ud3core/qcw.c ****         params.pwmb_psb_val = 0;
 806              		.loc 1 43 0
 807 0016 094A     		ldr	r2, .L69+4
 808 0018 0023     		movs	r3, #0
 809 001a 1370     		strb	r3, [r2]
  44:..\common\ud3core/qcw.c ****         ramp.index = 0;
 810              		.loc 1 44 0
 811 001c 084A     		ldr	r2, .L69+8
 812 001e D381     		strh	r3, [r2, #14]	@ movhi
 813 0020 08E0     		b	.L68
 814              	.L66:
  47:..\common\ud3core/qcw.c ****         ramp.index++;
 815              		.loc 1 47 0
 816 0022 6388     		ldrh	r3, [r4, #2]
 817 0024 9BB2     		uxth	r3, r3
 818 0026 2344     		add	r3, r3, r4
 819 0028 9879     		ldrb	r0, [r3, #6]	@ zero_extendqisi2
 820 002a FFF7FEFF 		bl	qcw_modulate
 821              	.LVL85:
  48:..\common\ud3core/qcw.c ****     }
 822              		.loc 1 48 0
 823 002e 6388     		ldrh	r3, [r4, #2]
 824 0030 0133     		adds	r3, r3, #1
 825 0032 9BB2     		uxth	r3, r3
 826              	.L68:
 827 0034 6380     		strh	r3, [r4, #2]	@ movhi
 828 0036 10BD     		pop	{r4, pc}
 829              	.L70:
 830              		.align	2
 831              	.L69:
 832 0038 00000000 		.word	ramp
 833 003c 79640040 		.word	1073767545
 834 0040 00000000 		.word	params
 835              		.cfi_endproc
 836              	.LFE68:
 837              		.size	qcw_handle, .-qcw_handle
 838              		.section	.text.qcw_stop,"ax",%progbits
 839              		.align	1
 840              		.global	qcw_stop
 841              		.thumb
 842              		.thumb_func
 843              		.type	qcw_stop, %function
 844              	qcw_stop:
 845              	.LFB76:
ARM GAS  C:\Users\chemi\AppData\Local\Temp\ccnzQNjn.s 			page 21


 171:..\common\ud3core/qcw.c ****     QCW_enable_Control = 0;
 846              		.loc 1 171 0
 847              		.cfi_startproc
 848              		@ args = 0, pretend = 0, frame = 0
 849              		@ frame_needed = 0, uses_anonymous_args = 0
 850              		@ link register save eliminated.
 172:..\common\ud3core/qcw.c ****     params.pwmb_psb_val = 0;
 851              		.loc 1 172 0
 852 0000 024A     		ldr	r2, .L72
 853 0002 0023     		movs	r3, #0
 854 0004 1370     		strb	r3, [r2]
 173:..\common\ud3core/qcw.c **** }
 855              		.loc 1 173 0
 856 0006 024A     		ldr	r2, .L72+4
 857 0008 D381     		strh	r3, [r2, #14]	@ movhi
 858 000a 7047     		bx	lr
 859              	.L73:
 860              		.align	2
 861              	.L72:
 862 000c 79640040 		.word	1073767545
 863 0010 00000000 		.word	params
 864              		.cfi_endproc
 865              	.LFE76:
 866              		.size	qcw_stop, .-qcw_stop
 867              		.section	.text.callback_rampFunction,"ax",%progbits
 868              		.align	1
 869              		.global	callback_rampFunction
 870              		.thumb
 871              		.thumb_func
 872              		.type	callback_rampFunction, %function
 873              	callback_rampFunction:
 874              	.LFB77:
 176:..\common\ud3core/qcw.c ****     ramp.changed = pdTRUE;
 875              		.loc 1 176 0
 876              		.cfi_startproc
 877              		@ args = 0, pretend = 0, frame = 0
 878              		@ frame_needed = 0, uses_anonymous_args = 0
 879              	.LVL86:
 880 0000 08B5     		push	{r3, lr}
 881              		.cfi_def_cfa_offset 8
 882              		.cfi_offset 3, -8
 883              		.cfi_offset 14, -4
 177:..\common\ud3core/qcw.c ****     if(!QCW_enable_Control){
 884              		.loc 1 177 0
 885 0002 054B     		ldr	r3, .L76
 886 0004 0122     		movs	r2, #1
 887              	.LVL87:
 888 0006 1A70     		strb	r2, [r3]
 178:..\common\ud3core/qcw.c ****         qcw_regenerate_ramp();
 889              		.loc 1 178 0
 890 0008 044B     		ldr	r3, .L76+4
 891 000a 1B78     		ldrb	r3, [r3]	@ zero_extendqisi2
 892 000c 0BB9     		cbnz	r3, .L75
 179:..\common\ud3core/qcw.c ****     }
 893              		.loc 1 179 0
 894 000e FFF7FEFF 		bl	qcw_regenerate_ramp
 895              	.LVL88:
ARM GAS  C:\Users\chemi\AppData\Local\Temp\ccnzQNjn.s 			page 22


 896              	.L75:
 183:..\common\ud3core/qcw.c **** 
 897              		.loc 1 183 0
 898 0012 0120     		movs	r0, #1
 899 0014 08BD     		pop	{r3, pc}
 900              	.L77:
 901 0016 00BF     		.align	2
 902              	.L76:
 903 0018 00000000 		.word	ramp
 904 001c 79640040 		.word	1073767545
 905              		.cfi_endproc
 906              	.LFE77:
 907              		.size	callback_rampFunction, .-callback_rampFunction
 908              		.section	.text.CMD_ramp,"ax",%progbits
 909              		.align	1
 910              		.global	CMD_ramp
 911              		.thumb
 912              		.thumb_func
 913              		.type	CMD_ramp, %function
 914              	CMD_ramp:
 915              	.LFB78:
 187:..\common\ud3core/qcw.c ****     if(argCount==0 || strcmp(args[0], "-?") == 0){
 916              		.loc 1 187 0
 917              		.cfi_startproc
 918              		@ args = 0, pretend = 0, frame = 16
 919              		@ frame_needed = 0, uses_anonymous_args = 0
 920              	.LVL89:
 921 0000 F0B5     		push	{r4, r5, r6, r7, lr}
 922              		.cfi_def_cfa_offset 20
 923              		.cfi_offset 4, -20
 924              		.cfi_offset 5, -16
 925              		.cfi_offset 6, -12
 926              		.cfi_offset 7, -8
 927              		.cfi_offset 14, -4
 928 0002 0446     		mov	r4, r0
 929 0004 85B0     		sub	sp, sp, #20
 930              		.cfi_def_cfa_offset 40
 187:..\common\ud3core/qcw.c ****     if(argCount==0 || strcmp(args[0], "-?") == 0){
 931              		.loc 1 187 0
 932 0006 1546     		mov	r5, r2
 188:..\common\ud3core/qcw.c ****         ttprintf(   "Usage: ramp line x1 y1 x2 y2\r\n"
 933              		.loc 1 188 0
 934 0008 0F46     		mov	r7, r1
 935 000a 29B1     		cbz	r1, .L79
 188:..\common\ud3core/qcw.c ****         ttprintf(   "Usage: ramp line x1 y1 x2 y2\r\n"
 936              		.loc 1 188 0 is_stmt 0 discriminator 1
 937 000c 1668     		ldr	r6, [r2]
 938 000e 3D49     		ldr	r1, .L95
 939              	.LVL90:
 940 0010 3046     		mov	r0, r6
 941              	.LVL91:
 942 0012 FFF7FEFF 		bl	strcmp
 943              	.LVL92:
 944 0016 18B9     		cbnz	r0, .L80
 945              	.L79:
 189:..\common\ud3core/qcw.c ****                     "       ramp point x y\r\n"
 946              		.loc 1 189 0 is_stmt 1
ARM GAS  C:\Users\chemi\AppData\Local\Temp\ccnzQNjn.s 			page 23


 947 0018 636A     		ldr	r3, [r4, #36]
 948 001a 3B49     		ldr	r1, .L95+4
 949 001c 6068     		ldr	r0, [r4, #4]
 950 001e 4CE0     		b	.L94
 951              	.L80:
 197:..\common\ud3core/qcw.c ****         int x = atoi(args[1]);
 952              		.loc 1 197 0
 953 0020 3A49     		ldr	r1, .L95+8
 954 0022 3046     		mov	r0, r6
 955 0024 FFF7FEFF 		bl	strcmp
 956              	.LVL93:
 957 0028 88B9     		cbnz	r0, .L82
 197:..\common\ud3core/qcw.c ****         int x = atoi(args[1]);
 958              		.loc 1 197 0 is_stmt 0 discriminator 1
 959 002a 032F     		cmp	r7, #3
 960 002c 0FD1     		bne	.L82
 961              	.LBB25:
 198:..\common\ud3core/qcw.c ****         int y = atoi(args[2]);
 962              		.loc 1 198 0 is_stmt 1
 963 002e 6868     		ldr	r0, [r5, #4]
 964 0030 FFF7FEFF 		bl	atoi
 965              	.LVL94:
 966 0034 0446     		mov	r4, r0
 967              	.LVL95:
 199:..\common\ud3core/qcw.c ****         qcw_ramp_point(x,y);
 968              		.loc 1 199 0
 969 0036 A868     		ldr	r0, [r5, #8]
 970              	.LVL96:
 971 0038 FFF7FEFF 		bl	atoi
 972              	.LVL97:
 973              	.LBB26:
 974              	.LBB27:
 110:..\common\ud3core/qcw.c ****         ramp.data[x] = y;
 975              		.loc 1 110 0
 976 003c A3B2     		uxth	r3, r4
 977 003e B3F5C87F 		cmp	r3, #400
 978 0042 5CD2     		bcs	.L81
 111:..\common\ud3core/qcw.c ****     }
 979              		.loc 1 111 0
 980 0044 324A     		ldr	r2, .L95+12
 981              	.LBE27:
 982              	.LBE26:
 200:..\common\ud3core/qcw.c ****         return TERM_CMD_EXIT_SUCCESS;
 983              		.loc 1 200 0
 984 0046 C0B2     		uxtb	r0, r0
 985              	.LVL98:
 986              	.LBB29:
 987              	.LBB28:
 111:..\common\ud3core/qcw.c ****     }
 988              		.loc 1 111 0
 989 0048 1344     		add	r3, r3, r2
 990 004a 9871     		strb	r0, [r3, #6]
 991 004c 57E0     		b	.L81
 992              	.LVL99:
 993              	.L82:
 994              	.LBE28:
 995              	.LBE29:
ARM GAS  C:\Users\chemi\AppData\Local\Temp\ccnzQNjn.s 			page 24


 996              	.LBE25:
 203:..\common\ud3core/qcw.c ****         int x0 = atoi(args[1]);
 997              		.loc 1 203 0
 998 004e 3149     		ldr	r1, .L95+16
 999 0050 3046     		mov	r0, r6
 1000 0052 FFF7FEFF 		bl	strcmp
 1001              	.LVL100:
 1002 0056 B8B9     		cbnz	r0, .L84
 203:..\common\ud3core/qcw.c ****         int x0 = atoi(args[1]);
 1003              		.loc 1 203 0 is_stmt 0 discriminator 1
 1004 0058 052F     		cmp	r7, #5
 1005 005a 15D1     		bne	.L84
 1006              	.LBB30:
 204:..\common\ud3core/qcw.c ****         int y0 = atoi(args[2]);
 1007              		.loc 1 204 0 is_stmt 1
 1008 005c 6868     		ldr	r0, [r5, #4]
 1009 005e FFF7FEFF 		bl	atoi
 1010              	.LVL101:
 1011 0062 0446     		mov	r4, r0
 1012              	.LVL102:
 205:..\common\ud3core/qcw.c ****         int x1 = atoi(args[3]);
 1013              		.loc 1 205 0
 1014 0064 A868     		ldr	r0, [r5, #8]
 1015              	.LVL103:
 1016 0066 FFF7FEFF 		bl	atoi
 1017              	.LVL104:
 1018 006a 0646     		mov	r6, r0
 1019              	.LVL105:
 206:..\common\ud3core/qcw.c ****         int y1 = atoi(args[4]);
 1020              		.loc 1 206 0
 1021 006c E868     		ldr	r0, [r5, #12]
 1022              	.LVL106:
 1023 006e FFF7FEFF 		bl	atoi
 1024              	.LVL107:
 1025 0072 0746     		mov	r7, r0
 1026              	.LVL108:
 207:..\common\ud3core/qcw.c ****         qcw_ramp_line(x0,y0,x1,y1);
 1027              		.loc 1 207 0
 1028 0074 2869     		ldr	r0, [r5, #16]
 1029              	.LVL109:
 1030 0076 FFF7FEFF 		bl	atoi
 1031              	.LVL110:
 208:..\common\ud3core/qcw.c ****         return TERM_CMD_EXIT_SUCCESS;
 1032              		.loc 1 208 0
 1033 007a BAB2     		uxth	r2, r7
 1034 007c C3B2     		uxtb	r3, r0
 1035 007e F1B2     		uxtb	r1, r6
 1036 0080 A0B2     		uxth	r0, r4
 1037              	.LVL111:
 1038 0082 FFF7FEFF 		bl	qcw_ramp_line
 1039              	.LVL112:
 209:..\common\ud3core/qcw.c ****         
 1040              		.loc 1 209 0
 1041 0086 3AE0     		b	.L81
 1042              	.LVL113:
 1043              	.L84:
 1044              	.LBE30:
ARM GAS  C:\Users\chemi\AppData\Local\Temp\ccnzQNjn.s 			page 25


 211:..\common\ud3core/qcw.c ****         for(uint16_t i = 0; i<sizeof(ramp.data);i++){
 1045              		.loc 1 211 0
 1046 0088 2349     		ldr	r1, .L95+20
 1047 008a 3046     		mov	r0, r6
 1048 008c FFF7FEFF 		bl	strcmp
 1049              	.LVL114:
 1050 0090 40B9     		cbnz	r0, .L85
 1051              	.LBB31:
 213:..\common\ud3core/qcw.c ****         }
 1052              		.loc 1 213 0 discriminator 3
 1053 0092 0246     		mov	r2, r0
 1054 0094 1E49     		ldr	r1, .L95+12
 1055              	.L86:
 1056              	.LVL115:
 1057 0096 0B18     		adds	r3, r1, r0
 1058 0098 0130     		adds	r0, r0, #1
 1059              	.LVL116:
 212:..\common\ud3core/qcw.c ****             ramp.data[i] = 0;
 1060              		.loc 1 212 0 discriminator 3
 1061 009a B0F5C87F 		cmp	r0, #400
 213:..\common\ud3core/qcw.c ****         }
 1062              		.loc 1 213 0 discriminator 3
 1063 009e 9A71     		strb	r2, [r3, #6]
 212:..\common\ud3core/qcw.c ****             ramp.data[i] = 0;
 1064              		.loc 1 212 0 discriminator 3
 1065 00a0 F9D1     		bne	.L86
 1066 00a2 2CE0     		b	.L81
 1067              	.L85:
 1068              	.LBE31:
 216:..\common\ud3core/qcw.c ****         port_str * ptr = handle->port;
 1069              		.loc 1 216 0
 1070 00a4 1D49     		ldr	r1, .L95+24
 1071 00a6 3046     		mov	r0, r6
 1072 00a8 FFF7FEFF 		bl	strcmp
 1073              	.LVL117:
 1074 00ac 38BB     		cbnz	r0, .L81
 1075              	.LBB32:
 217:..\common\ud3core/qcw.c ****         if(ptr->term_mode == PORT_TERM_VT100){
 1076              		.loc 1 217 0
 1077 00ae 6068     		ldr	r0, [r4, #4]
 1078              	.LVL118:
 218:..\common\ud3core/qcw.c ****             ttprintf("Command only available with Teslaterm\r\n");
 1079              		.loc 1 218 0
 1080 00b0 8378     		ldrb	r3, [r0, #2]	@ zero_extendqisi2
 1081 00b2 042B     		cmp	r3, #4
 1082 00b4 03D1     		bne	.L88
 219:..\common\ud3core/qcw.c ****             return TERM_CMD_EXIT_SUCCESS;
 1083              		.loc 1 219 0
 1084 00b6 636A     		ldr	r3, [r4, #36]
 1085 00b8 1949     		ldr	r1, .L95+28
 1086              	.LVL119:
 1087              	.L94:
 1088 00ba 9847     		blx	r3
 1089              	.LVL120:
 220:..\common\ud3core/qcw.c ****         }
 1090              		.loc 1 220 0
 1091 00bc 1FE0     		b	.L81
ARM GAS  C:\Users\chemi\AppData\Local\Temp\ccnzQNjn.s 			page 26


 1092              	.LVL121:
 1093              	.L88:
 222:..\common\ud3core/qcw.c ****         send_chart_clear(handle, "QCW ramp");
 1094              		.loc 1 222 0
 1095 00be FFF7FEFF 		bl	tsk_overlay_chart_stop
 1096              	.LVL122:
 223:..\common\ud3core/qcw.c ****         CHART temp;
 1097              		.loc 1 223 0
 1098 00c2 1849     		ldr	r1, .L95+32
 1099 00c4 2046     		mov	r0, r4
 1100 00c6 FFF7FEFF 		bl	send_chart_clear
 1101              	.LVL123:
 225:..\common\ud3core/qcw.c ****         temp.width = RAMP_CHART_WIDTH;
 1102              		.loc 1 225 0
 1103 00ca FF23     		movs	r3, #255
 1104 00cc ADF80430 		strh	r3, [sp, #4]	@ movhi
 226:..\common\ud3core/qcw.c ****         temp.offset_x = RAMP_CHART_OFFSET_X;
 1105              		.loc 1 226 0
 1106 00d0 4FF4C873 		mov	r3, #400
 1107 00d4 ADF80630 		strh	r3, [sp, #6]	@ movhi
 227:..\common\ud3core/qcw.c ****         temp.offset_y = RAMP_CHART_OFFSET_Y;
 1108              		.loc 1 227 0
 1109 00d8 2823     		movs	r3, #40
 1110 00da ADF80830 		strh	r3, [sp, #8]	@ movhi
 228:..\common\ud3core/qcw.c ****         temp.div_x = RAMP_CHART_DIV_X;
 1111              		.loc 1 228 0
 1112 00de 1423     		movs	r3, #20
 1113 00e0 ADF80A30 		strh	r3, [sp, #10]	@ movhi
 232:..\common\ud3core/qcw.c ****         qcw_ramp_visualize(&temp,handle);
 1114              		.loc 1 232 0
 1115 00e4 2146     		mov	r1, r4
 229:..\common\ud3core/qcw.c ****         temp.div_y = RAMP_CHART_DIV_Y;
 1116              		.loc 1 229 0
 1117 00e6 1923     		movs	r3, #25
 232:..\common\ud3core/qcw.c ****         qcw_ramp_visualize(&temp,handle);
 1118              		.loc 1 232 0
 1119 00e8 01A8     		add	r0, sp, #4
 229:..\common\ud3core/qcw.c ****         temp.div_y = RAMP_CHART_DIV_Y;
 1120              		.loc 1 229 0
 1121 00ea ADF80C30 		strh	r3, [sp, #12]	@ movhi
 230:..\common\ud3core/qcw.c ****         
 1122              		.loc 1 230 0
 1123 00ee ADF80E30 		strh	r3, [sp, #14]	@ movhi
 232:..\common\ud3core/qcw.c ****         qcw_ramp_visualize(&temp,handle);
 1124              		.loc 1 232 0
 1125 00f2 FFF7FEFF 		bl	tt_chart_init
 1126              	.LVL124:
 233:..\common\ud3core/qcw.c ****         return TERM_CMD_EXIT_SUCCESS;
 1127              		.loc 1 233 0
 1128 00f6 2146     		mov	r1, r4
 1129 00f8 01A8     		add	r0, sp, #4
 1130 00fa FFF7FEFF 		bl	qcw_ramp_visualize
 1131              	.LVL125:
 1132              	.L81:
 1133              	.LBE32:
 237:..\common\ud3core/qcw.c **** 
 1134              		.loc 1 237 0 discriminator 1
ARM GAS  C:\Users\chemi\AppData\Local\Temp\ccnzQNjn.s 			page 27


 1135 00fe FF20     		movs	r0, #255
 1136 0100 05B0     		add	sp, sp, #20
 1137              		.cfi_def_cfa_offset 20
 1138              		@ sp needed
 1139 0102 F0BD     		pop	{r4, r5, r6, r7, pc}
 1140              	.LVL126:
 1141              	.L96:
 1142              		.align	2
 1143              	.L95:
 1144 0104 00000000 		.word	.LC0
 1145 0108 03000000 		.word	.LC1
 1146 010c 5E000000 		.word	.LC2
 1147 0110 00000000 		.word	ramp
 1148 0114 64000000 		.word	.LC3
 1149 0118 69000000 		.word	.LC4
 1150 011c 6F000000 		.word	.LC5
 1151 0120 74000000 		.word	.LC6
 1152 0124 9C000000 		.word	.LC7
 1153              		.cfi_endproc
 1154              	.LFE78:
 1155              		.size	CMD_ramp, .-CMD_ramp
 1156              		.section	.text.QCW_delete_timer,"ax",%progbits
 1157              		.align	1
 1158              		.global	QCW_delete_timer
 1159              		.thumb
 1160              		.thumb_func
 1161              		.type	QCW_delete_timer, %function
 1162              	QCW_delete_timer:
 1163              	.LFB80:
 248:..\common\ud3core/qcw.c **** 
 249:..\common\ud3core/qcw.c **** BaseType_t QCW_delete_timer(void){
 1164              		.loc 1 249 0
 1165              		.cfi_startproc
 1166              		@ args = 0, pretend = 0, frame = 0
 1167              		@ frame_needed = 0, uses_anonymous_args = 0
 1168 0000 13B5     		push	{r0, r1, r4, lr}
 1169              		.cfi_def_cfa_offset 16
 1170              		.cfi_offset 4, -8
 1171              		.cfi_offset 14, -4
 250:..\common\ud3core/qcw.c ****     if (xQCW_Timer != NULL) {
 1172              		.loc 1 250 0
 1173 0002 094C     		ldr	r4, .L104
 1174 0004 2068     		ldr	r0, [r4]
 1175 0006 08B9     		cbnz	r0, .L98
 1176              	.L100:
 251:..\common\ud3core/qcw.c ****     	if(xTimerDelete(xQCW_Timer, 200 / portTICK_PERIOD_MS) != pdFALSE){
 252:..\common\ud3core/qcw.c ****             xQCW_Timer = NULL;
 253:..\common\ud3core/qcw.c ****             return pdPASS;
 254:..\common\ud3core/qcw.c ****         }else{
 255:..\common\ud3core/qcw.c ****             return pdFAIL;
 256:..\common\ud3core/qcw.c ****         }
 257:..\common\ud3core/qcw.c ****     }else{
 258:..\common\ud3core/qcw.c ****         return pdFAIL;
 1177              		.loc 1 258 0
 1178 0008 0020     		movs	r0, #0
 1179 000a 0BE0     		b	.L99
 1180              	.L98:
ARM GAS  C:\Users\chemi\AppData\Local\Temp\ccnzQNjn.s 			page 28


 251:..\common\ud3core/qcw.c ****     	if(xTimerDelete(xQCW_Timer, 200 / portTICK_PERIOD_MS) != pdFALSE){
 1181              		.loc 1 251 0
 1182 000c C823     		movs	r3, #200
 1183 000e 0093     		str	r3, [sp]
 1184 0010 0023     		movs	r3, #0
 1185 0012 1A46     		mov	r2, r3
 1186 0014 0521     		movs	r1, #5
 1187 0016 FFF7FEFF 		bl	xTimerGenericCommand
 1188              	.LVL127:
 1189 001a 0028     		cmp	r0, #0
 1190 001c F4D0     		beq	.L100
 252:..\common\ud3core/qcw.c ****             return pdPASS;
 1191              		.loc 1 252 0
 1192 001e 0023     		movs	r3, #0
 1193 0020 2360     		str	r3, [r4]
 253:..\common\ud3core/qcw.c ****         }else{
 1194              		.loc 1 253 0
 1195 0022 0120     		movs	r0, #1
 1196              	.L99:
 259:..\common\ud3core/qcw.c ****     }
 260:..\common\ud3core/qcw.c **** }
 1197              		.loc 1 260 0
 1198 0024 02B0     		add	sp, sp, #8
 1199              		.cfi_def_cfa_offset 8
 1200              		@ sp needed
 1201 0026 10BD     		pop	{r4, pc}
 1202              	.L105:
 1203              		.align	2
 1204              	.L104:
 1205 0028 00000000 		.word	xQCW_Timer
 1206              		.cfi_endproc
 1207              	.LFE80:
 1208              		.size	QCW_delete_timer, .-QCW_delete_timer
 1209              		.section	.text.CMD_qcw,"ax",%progbits
 1210              		.align	1
 1211              		.global	CMD_qcw
 1212              		.thumb
 1213              		.thumb_func
 1214              		.type	CMD_qcw, %function
 1215              	CMD_qcw:
 1216              	.LFB81:
 261:..\common\ud3core/qcw.c **** 
 262:..\common\ud3core/qcw.c **** /*****************************************************************************
 263:..\common\ud3core/qcw.c **** * starts the QCW mode. Spawns a timer for the automatic QCW pulses.
 264:..\common\ud3core/qcw.c **** ******************************************************************************/
 265:..\common\ud3core/qcw.c **** uint8_t CMD_qcw(TERMINAL_HANDLE * handle, uint8_t argCount, char ** args){
 1217              		.loc 1 265 0
 1218              		.cfi_startproc
 1219              		@ args = 0, pretend = 0, frame = 0
 1220              		@ frame_needed = 0, uses_anonymous_args = 0
 1221              	.LVL128:
 1222 0000 F7B5     		push	{r0, r1, r2, r4, r5, r6, r7, lr}
 1223              		.cfi_def_cfa_offset 32
 1224              		.cfi_offset 4, -20
 1225              		.cfi_offset 5, -16
 1226              		.cfi_offset 6, -12
 1227              		.cfi_offset 7, -8
ARM GAS  C:\Users\chemi\AppData\Local\Temp\ccnzQNjn.s 			page 29


 1228              		.cfi_offset 14, -4
 1229              		.loc 1 265 0
 1230 0002 0446     		mov	r4, r0
 266:..\common\ud3core/qcw.c ****     if(argCount==0 || strcmp(args[0], "-?") == 0){
 1231              		.loc 1 266 0
 1232 0004 29B1     		cbz	r1, .L107
 1233              		.loc 1 266 0 is_stmt 0 discriminator 1
 1234 0006 1568     		ldr	r5, [r2]
 1235 0008 2949     		ldr	r1, .L121
 1236              	.LVL129:
 1237 000a 2846     		mov	r0, r5
 1238              	.LVL130:
 1239 000c FFF7FEFF 		bl	strcmp
 1240              	.LVL131:
 1241 0010 10B9     		cbnz	r0, .L108
 1242              	.L107:
 267:..\common\ud3core/qcw.c ****         ttprintf("Usage: qcw [start|stop]\r\n");
 1243              		.loc 1 267 0 is_stmt 1
 1244 0012 636A     		ldr	r3, [r4, #36]
 1245 0014 2749     		ldr	r1, .L121+4
 1246 0016 46E0     		b	.L120
 1247              	.L108:
 268:..\common\ud3core/qcw.c ****         return TERM_CMD_EXIT_SUCCESS;
 269:..\common\ud3core/qcw.c ****     }
 270:..\common\ud3core/qcw.c ****     
 271:..\common\ud3core/qcw.c ****     if(configuration.is_qcw == pdFALSE){
 1248              		.loc 1 271 0
 1249 0018 274B     		ldr	r3, .L121+8
 1250 001a 93F85C30 		ldrb	r3, [r3, #92]	@ zero_extendqisi2
 1251 001e 13B9     		cbnz	r3, .L110
 272:..\common\ud3core/qcw.c ****         ttprintf("This is not a QCW coil. Set [qcw_coil] to 1.\r\n");  
 1252              		.loc 1 272 0
 1253 0020 636A     		ldr	r3, [r4, #36]
 1254 0022 2649     		ldr	r1, .L121+12
 1255 0024 3FE0     		b	.L120
 1256              	.L110:
 273:..\common\ud3core/qcw.c ****         return TERM_CMD_EXIT_SUCCESS;
 274:..\common\ud3core/qcw.c ****     }
 275:..\common\ud3core/qcw.c ****     
 276:..\common\ud3core/qcw.c **** 	if(strcmp(args[0], "start") == 0){
 1257              		.loc 1 276 0
 1258 0026 2649     		ldr	r1, .L121+16
 1259 0028 2846     		mov	r0, r5
 1260 002a FFF7FEFF 		bl	strcmp
 1261              	.LVL132:
 1262 002e 38BB     		cbnz	r0, .L111
 277:..\common\ud3core/qcw.c ****         if(param.qcw_repeat>99){
 1263              		.loc 1 277 0
 1264 0030 244B     		ldr	r3, .L121+20
 1265 0032 D98A     		ldrh	r1, [r3, #22]
 1266 0034 6329     		cmp	r1, #99
 1267 0036 1CD9     		bls	.L112
 278:..\common\ud3core/qcw.c ****             if(xQCW_Timer==NULL){
 1268              		.loc 1 278 0
 1269 0038 234F     		ldr	r7, .L121+24
 1270 003a 3D68     		ldr	r5, [r7]
 1271 003c 002D     		cmp	r5, #0
ARM GAS  C:\Users\chemi\AppData\Local\Temp\ccnzQNjn.s 			page 30


 1272 003e 34D1     		bne	.L109
 279:..\common\ud3core/qcw.c ****                 xQCW_Timer = xTimerCreate("QCW-Tmr", param.qcw_repeat / portTICK_PERIOD_MS, pdFALSE
 1273              		.loc 1 279 0
 1274 0040 224B     		ldr	r3, .L121+28
 1275 0042 2A46     		mov	r2, r5
 1276 0044 0093     		str	r3, [sp]
 1277 0046 2248     		ldr	r0, .L121+32
 1278 0048 2B46     		mov	r3, r5
 1279 004a FFF7FEFF 		bl	xTimerCreate
 1280              	.LVL133:
 1281 004e 0646     		mov	r6, r0
 1282 0050 3860     		str	r0, [r7]
 280:..\common\ud3core/qcw.c ****                 if(xQCW_Timer != NULL){
 1283              		.loc 1 280 0
 1284 0052 58B1     		cbz	r0, .L113
 281:..\common\ud3core/qcw.c ****                     xTimerStart(xQCW_Timer, 0);
 1285              		.loc 1 281 0
 1286 0054 FFF7FEFF 		bl	xTaskGetTickCount
 1287              	.LVL134:
 1288 0058 2B46     		mov	r3, r5
 1289 005a 0246     		mov	r2, r0
 1290 005c 0121     		movs	r1, #1
 1291 005e 0095     		str	r5, [sp]
 1292 0060 3046     		mov	r0, r6
 1293 0062 FFF7FEFF 		bl	xTimerGenericCommand
 1294              	.LVL135:
 282:..\common\ud3core/qcw.c ****                     ttprintf("QCW Enabled\r\n");
 1295              		.loc 1 282 0
 1296 0066 636A     		ldr	r3, [r4, #36]
 1297 0068 1A49     		ldr	r1, .L121+36
 1298 006a 1CE0     		b	.L120
 1299              	.L113:
 283:..\common\ud3core/qcw.c ****                 }else{
 284:..\common\ud3core/qcw.c ****                     ttprintf("Cannot create QCW Timer\r\n");
 1300              		.loc 1 284 0
 1301 006c 636A     		ldr	r3, [r4, #36]
 1302 006e 1A49     		ldr	r1, .L121+40
 1303 0070 19E0     		b	.L120
 1304              	.L112:
 285:..\common\ud3core/qcw.c ****                 }
 286:..\common\ud3core/qcw.c ****             }
 287:..\common\ud3core/qcw.c ****         }else{
 288:..\common\ud3core/qcw.c ****             qcw_regenerate_ramp();
 1305              		.loc 1 288 0
 1306 0072 FFF7FEFF 		bl	qcw_regenerate_ramp
 1307              	.LVL136:
 289:..\common\ud3core/qcw.c **** 		    qcw_start();
 1308              		.loc 1 289 0
 1309 0076 FFF7FEFF 		bl	qcw_start
 1310              	.LVL137:
 290:..\common\ud3core/qcw.c ****             ttprintf("QCW single shot\r\n");
 1311              		.loc 1 290 0
 1312 007a 636A     		ldr	r3, [r4, #36]
 1313 007c 1749     		ldr	r1, .L121+44
 1314 007e 12E0     		b	.L120
 1315              	.L111:
 291:..\common\ud3core/qcw.c ****         }
ARM GAS  C:\Users\chemi\AppData\Local\Temp\ccnzQNjn.s 			page 31


 292:..\common\ud3core/qcw.c **** 		
 293:..\common\ud3core/qcw.c **** 		return TERM_CMD_EXIT_SUCCESS;
 294:..\common\ud3core/qcw.c **** 	}
 295:..\common\ud3core/qcw.c **** 	if(strcmp(args[0], "stop") == 0){
 1316              		.loc 1 295 0
 1317 0080 1749     		ldr	r1, .L121+48
 1318 0082 2846     		mov	r0, r5
 1319 0084 FFF7FEFF 		bl	strcmp
 1320              	.LVL138:
 1321 0088 78B9     		cbnz	r0, .L109
 296:..\common\ud3core/qcw.c ****         if (xQCW_Timer != NULL) {
 1322              		.loc 1 296 0
 1323 008a 0F4B     		ldr	r3, .L121+24
 1324 008c 1B68     		ldr	r3, [r3]
 1325 008e 33B1     		cbz	r3, .L115
 297:..\common\ud3core/qcw.c **** 				if(!QCW_delete_timer()){
 1326              		.loc 1 297 0
 1327 0090 FFF7FEFF 		bl	QCW_delete_timer
 1328              	.LVL139:
 1329 0094 18B9     		cbnz	r0, .L115
 298:..\common\ud3core/qcw.c ****                     ttprintf("Cannot delete QCW Timer\r\n");
 1330              		.loc 1 298 0
 1331 0096 636A     		ldr	r3, [r4, #36]
 1332 0098 1249     		ldr	r1, .L121+52
 1333 009a 6068     		ldr	r0, [r4, #4]
 1334 009c 9847     		blx	r3
 1335              	.LVL140:
 1336              	.L115:
 299:..\common\ud3core/qcw.c ****                 }
 300:..\common\ud3core/qcw.c **** 		}
 301:..\common\ud3core/qcw.c ****         qcw_stop();
 1337              		.loc 1 301 0
 1338 009e FFF7FEFF 		bl	qcw_stop
 1339              	.LVL141:
 302:..\common\ud3core/qcw.c **** 		ttprintf("QCW Disabled\r\n");
 1340              		.loc 1 302 0
 1341 00a2 636A     		ldr	r3, [r4, #36]
 1342 00a4 1049     		ldr	r1, .L121+56
 1343              	.L120:
 1344 00a6 6068     		ldr	r0, [r4, #4]
 1345 00a8 9847     		blx	r3
 1346              	.LVL142:
 1347              	.L109:
 303:..\common\ud3core/qcw.c **** 		return TERM_CMD_EXIT_SUCCESS;
 304:..\common\ud3core/qcw.c **** 	}
 305:..\common\ud3core/qcw.c **** 	return TERM_CMD_EXIT_SUCCESS;
 306:..\common\ud3core/qcw.c **** }
 1348              		.loc 1 306 0
 1349 00aa FF20     		movs	r0, #255
 1350 00ac 03B0     		add	sp, sp, #12
 1351              		.cfi_def_cfa_offset 20
 1352              		@ sp needed
 1353 00ae F0BD     		pop	{r4, r5, r6, r7, pc}
 1354              	.LVL143:
 1355              	.L122:
 1356              		.align	2
 1357              	.L121:
ARM GAS  C:\Users\chemi\AppData\Local\Temp\ccnzQNjn.s 			page 32


 1358 00b0 00000000 		.word	.LC0
 1359 00b4 A5000000 		.word	.LC8
 1360 00b8 00000000 		.word	configuration
 1361 00bc BF000000 		.word	.LC9
 1362 00c0 EE000000 		.word	.LC10
 1363 00c4 00000000 		.word	param
 1364 00c8 00000000 		.word	xQCW_Timer
 1365 00cc 00000000 		.word	vQCW_Timer_Callback
 1366 00d0 F4000000 		.word	.LC11
 1367 00d4 FC000000 		.word	.LC12
 1368 00d8 0A010000 		.word	.LC13
 1369 00dc 24010000 		.word	.LC14
 1370 00e0 36010000 		.word	.LC15
 1371 00e4 3B010000 		.word	.LC16
 1372 00e8 55010000 		.word	.LC17
 1373              		.cfi_endproc
 1374              	.LFE81:
 1375              		.size	CMD_qcw, .-CMD_qcw
 1376              		.comm	xQCW_Timer,4,4
 1377              		.comm	ct1_dac_val,3,1
 1378              		.comm	params,26,2
 1379              		.comm	interrupter,12,4
 1380              		.comm	ramp,406,2
 1381              		.section	.rodata.str1.1,"aMS",%progbits,1
 1382              	.LC0:
 1383 0000 2D3F00   		.ascii	"-?\000"
 1384              	.LC1:
 1385 0003 55736167 		.ascii	"Usage: ramp line x1 y1 x2 y2\015\012       ramp poi"
 1385      653A2072 
 1385      616D7020 
 1385      6C696E65 
 1385      20783120 
 1386 0030 6E742078 		.ascii	"nt x y\015\012       ramp clear\015\012       ramp "
 1386      20790D0A 
 1386      20202020 
 1386      20202072 
 1386      616D7020 
 1387 0057 64726177 		.ascii	"draw\015\012\000"
 1387      0D0A00
 1388              	.LC2:
 1389 005e 706F696E 		.ascii	"point\000"
 1389      7400
 1390              	.LC3:
 1391 0064 6C696E65 		.ascii	"line\000"
 1391      00
 1392              	.LC4:
 1393 0069 636C6561 		.ascii	"clear\000"
 1393      7200
 1394              	.LC5:
 1395 006f 64726177 		.ascii	"draw\000"
 1395      00
 1396              	.LC6:
 1397 0074 436F6D6D 		.ascii	"Command only available with Teslaterm\015\012\000"
 1397      616E6420 
 1397      6F6E6C79 
 1397      20617661 
 1397      696C6162 
ARM GAS  C:\Users\chemi\AppData\Local\Temp\ccnzQNjn.s 			page 33


 1398              	.LC7:
 1399 009c 51435720 		.ascii	"QCW ramp\000"
 1399      72616D70 
 1399      00
 1400              	.LC8:
 1401 00a5 55736167 		.ascii	"Usage: qcw [start|stop]\015\012\000"
 1401      653A2071 
 1401      6377205B 
 1401      73746172 
 1401      747C7374 
 1402              	.LC9:
 1403 00bf 54686973 		.ascii	"This is not a QCW coil. Set [qcw_coil] to 1.\015\012"
 1403      20697320 
 1403      6E6F7420 
 1403      61205143 
 1403      5720636F 
 1404 00ed 00       		.ascii	"\000"
 1405              	.LC10:
 1406 00ee 73746172 		.ascii	"start\000"
 1406      7400
 1407              	.LC11:
 1408 00f4 5143572D 		.ascii	"QCW-Tmr\000"
 1408      546D7200 
 1409              	.LC12:
 1410 00fc 51435720 		.ascii	"QCW Enabled\015\012\000"
 1410      456E6162 
 1410      6C65640D 
 1410      0A00
 1411              	.LC13:
 1412 010a 43616E6E 		.ascii	"Cannot create QCW Timer\015\012\000"
 1412      6F742063 
 1412      72656174 
 1412      65205143 
 1412      57205469 
 1413              	.LC14:
 1414 0124 51435720 		.ascii	"QCW single shot\015\012\000"
 1414      73696E67 
 1414      6C652073 
 1414      686F740D 
 1414      0A00
 1415              	.LC15:
 1416 0136 73746F70 		.ascii	"stop\000"
 1416      00
 1417              	.LC16:
 1418 013b 43616E6E 		.ascii	"Cannot delete QCW Timer\015\012\000"
 1418      6F742064 
 1418      656C6574 
 1418      65205143 
 1418      57205469 
 1419              	.LC17:
 1420 0155 51435720 		.ascii	"QCW Disabled\015\012\000"
 1420      44697361 
 1420      626C6564 
 1420      0D0A00
 1421              		.text
 1422              	.Letext0:
 1423              		.file 2 "c:\\program files (x86)\\cypress\\psoc creator\\4.4\\psoc creator\\import\\gnu\\arm\\5.4.
ARM GAS  C:\Users\chemi\AppData\Local\Temp\ccnzQNjn.s 			page 34


 1424              		.file 3 "c:\\program files (x86)\\cypress\\psoc creator\\4.4\\psoc creator\\import\\gnu\\arm\\5.4.
 1425              		.file 4 "Generated_Source\\PSoC5/cytypes.h"
 1426              		.file 5 "..\\common\\rtos\\portable\\GCC\\ARM_CM3/portmacro.h"
 1427              		.file 6 "..\\common\\rtos\\include/task.h"
 1428              		.file 7 "..\\common\\rtos\\include/queue.h"
 1429              		.file 8 "..\\common\\rtos\\include/semphr.h"
 1430              		.file 9 "..\\common\\rtos\\include/stream_buffer.h"
 1431              		.file 10 "..\\common\\tterm/TTerm.h"
 1432              		.file 11 "..\\common\\ud3core\\cli_basic.h"
 1433              		.file 12 "..\\common\\rtos\\include/timers.h"
 1434              		.file 13 "..\\common\\ud3core\\cli_common.h"
 1435              		.file 14 "..\\common\\ud3core\\helper/teslaterm.h"
 1436              		.file 15 "..\\common\\ud3core\\qcw.h"
 1437              		.file 16 "..\\common\\ud3core\\interrupter.h"
 1438              		.file 17 "..\\common\\ud3core\\ZCDtoPWM.h"
 1439              		.file 18 "..\\common\\ud3core\\telemetry.h"
 1440              		.file 19 "Generated_Source\\PSoC5/core_cm3.h"
 1441              		.file 20 "c:\\program files (x86)\\cypress\\psoc creator\\4.4\\psoc creator\\import\\gnu\\arm\\5.4
 1442              		.file 21 "c:\\program files (x86)\\cypress\\psoc creator\\4.4\\psoc creator\\import\\gnu\\arm\\5.4
 1443              		.file 22 "..\\common\\ud3core\\tasks/tsk_overlay.h"
 1444              		.file 23 "c:\\program files (x86)\\cypress\\psoc creator\\4.4\\psoc creator\\import\\gnu\\arm\\5.4