ARM GAS  C:\Users\chemi\AppData\Local\Temp\ccwvslza.s 			page 1


   1              		.syntax unified
   2              		.cpu cortex-m3
   3              		.fpu softvfp
   4              		.eabi_attribute 20, 1
   5              		.eabi_attribute 21, 1
   6              		.eabi_attribute 23, 3
   7              		.eabi_attribute 24, 1
   8              		.eabi_attribute 25, 1
   9              		.eabi_attribute 26, 1
  10              		.eabi_attribute 30, 4
  11              		.eabi_attribute 34, 1
  12              		.eabi_attribute 18, 4
  13              		.thumb
  14              		.syntax unified
  15              		.file	"RingBuffer.c"
  16              		.text
  17              	.Ltext0:
  18              		.cfi_sections	.debug_frame
  19              		.section	.text.RingBuffer_writeToBuffer,"ax",%progbits
  20              		.align	1
  21              		.thumb
  22              		.thumb_func
  23              		.type	RingBuffer_writeToBuffer, %function
  24              	RingBuffer_writeToBuffer:
  25              	.LFB71:
  26              		.file 1 "..\\common\\Modules\\RingBuffer\\RingBuffer.c"
   1:..\common\Modules\RingBuffer/RingBuffer.c **** #include <stdint.h>
   2:..\common\Modules\RingBuffer/RingBuffer.c **** #include <string.h>
   3:..\common\Modules\RingBuffer/RingBuffer.c **** #include "include/RingBuffer.h"
   4:..\common\Modules\RingBuffer/RingBuffer.c **** #include "FreeRTOS.h"
   5:..\common\Modules\RingBuffer/RingBuffer.c **** #include "task.h"
   6:..\common\Modules\RingBuffer/RingBuffer.c **** 
   7:..\common\Modules\RingBuffer/RingBuffer.c **** RingBuffer_t * RingBuffer_create(uint32_t bufferSizeWords, uint32_t dataSize){
   8:..\common\Modules\RingBuffer/RingBuffer.c ****     if(bufferSizeWords < 2 || dataSize == 0) return NULL;
   9:..\common\Modules\RingBuffer/RingBuffer.c ****     
  10:..\common\Modules\RingBuffer/RingBuffer.c ****     //allocate descriptor
  11:..\common\Modules\RingBuffer/RingBuffer.c ****     RingBuffer_t * ret = pvPortMalloc(sizeof(RingBuffer_t));
  12:..\common\Modules\RingBuffer/RingBuffer.c ****     memset(ret, 0, sizeof(RingBuffer_t));
  13:..\common\Modules\RingBuffer/RingBuffer.c ****     
  14:..\common\Modules\RingBuffer/RingBuffer.c ****     //allocate memory
  15:..\common\Modules\RingBuffer/RingBuffer.c ****     ret->mem = pvPortMalloc(bufferSizeWords * dataSize);
  16:..\common\Modules\RingBuffer/RingBuffer.c ****     memset(ret->mem, 0, bufferSizeWords * dataSize);
  17:..\common\Modules\RingBuffer/RingBuffer.c ****     
  18:..\common\Modules\RingBuffer/RingBuffer.c ****     //data sizes
  19:..\common\Modules\RingBuffer/RingBuffer.c ****     ret->memSize = bufferSizeWords * dataSize;
  20:..\common\Modules\RingBuffer/RingBuffer.c ****     ret->dataCount = bufferSizeWords;
  21:..\common\Modules\RingBuffer/RingBuffer.c ****     ret->dataCountLimited = bufferSizeWords;
  22:..\common\Modules\RingBuffer/RingBuffer.c ****     ret->dataSize = dataSize;
  23:..\common\Modules\RingBuffer/RingBuffer.c ****     
  24:..\common\Modules\RingBuffer/RingBuffer.c ****     //pointers are cleared by the memclear operation after descriptor allocation
  25:..\common\Modules\RingBuffer/RingBuffer.c ****     
  26:..\common\Modules\RingBuffer/RingBuffer.c ****     return ret;
  27:..\common\Modules\RingBuffer/RingBuffer.c **** }
  28:..\common\Modules\RingBuffer/RingBuffer.c **** 
  29:..\common\Modules\RingBuffer/RingBuffer.c **** void RingBuffer_delete(RingBuffer_t * buffer){
  30:..\common\Modules\RingBuffer/RingBuffer.c ****     if(buffer == NULL) return;
  31:..\common\Modules\RingBuffer/RingBuffer.c ****     
ARM GAS  C:\Users\chemi\AppData\Local\Temp\ccwvslza.s 			page 2


  32:..\common\Modules\RingBuffer/RingBuffer.c ****     //make sure nothing writes into this buffer while we delete it
  33:..\common\Modules\RingBuffer/RingBuffer.c ****     vTaskEnterCritical();
  34:..\common\Modules\RingBuffer/RingBuffer.c ****     buffer->memSize = 0;
  35:..\common\Modules\RingBuffer/RingBuffer.c ****     
  36:..\common\Modules\RingBuffer/RingBuffer.c ****     //then free memory
  37:..\common\Modules\RingBuffer/RingBuffer.c ****     vPortFree(buffer->mem);
  38:..\common\Modules\RingBuffer/RingBuffer.c ****     vPortFree(buffer);
  39:..\common\Modules\RingBuffer/RingBuffer.c ****     
  40:..\common\Modules\RingBuffer/RingBuffer.c ****     vTaskExitCritical();
  41:..\common\Modules\RingBuffer/RingBuffer.c **** }
  42:..\common\Modules\RingBuffer/RingBuffer.c **** 
  43:..\common\Modules\RingBuffer/RingBuffer.c **** void RingBuffer_setSizeLimit(RingBuffer_t * buffer, uint32_t size){
  44:..\common\Modules\RingBuffer/RingBuffer.c ****     RingBuffer_flush(buffer);
  45:..\common\Modules\RingBuffer/RingBuffer.c ****     
  46:..\common\Modules\RingBuffer/RingBuffer.c ****     if(size > buffer->dataCount) size = buffer->dataCount;
  47:..\common\Modules\RingBuffer/RingBuffer.c ****     buffer->dataCountLimited = size;
  48:..\common\Modules\RingBuffer/RingBuffer.c **** }
  49:..\common\Modules\RingBuffer/RingBuffer.c **** 
  50:..\common\Modules\RingBuffer/RingBuffer.c **** /* thoughts regarding thread safe reading and writing:
  51:..\common\Modules\RingBuffer/RingBuffer.c ****  * 
  52:..\common\Modules\RingBuffer/RingBuffer.c ****  * in order for a read to be valid we need to make sure that the position read has been written com
  53:..\common\Modules\RingBuffer/RingBuffer.c ****  * 
  54:..\common\Modules\RingBuffer/RingBuffer.c ****  * same goes for writing. We must ensure that a write doesn't happen if the position we write to mi
  55:..\common\Modules\RingBuffer/RingBuffer.c ****  * 
  56:..\common\Modules\RingBuffer/RingBuffer.c ****  * TODO this is certainly not valid for the shiftOnOverflow addition, verify and fix potential issu
  57:..\common\Modules\RingBuffer/RingBuffer.c ****  */
  58:..\common\Modules\RingBuffer/RingBuffer.c **** #pragma GCC push_options
  59:..\common\Modules\RingBuffer/RingBuffer.c **** #pragma GCC optimize ("Os")
  60:..\common\Modules\RingBuffer/RingBuffer.c **** 
  61:..\common\Modules\RingBuffer/RingBuffer.c **** static int32_t RingBuffer_writeToBuffer(RingBuffer_t * buffer, void* src, int32_t length, uint32_t 
  27              		.loc 1 61 0
  28              		.cfi_startproc
  29              		@ args = 0, pretend = 0, frame = 0
  30              		@ frame_needed = 0, uses_anonymous_args = 0
  31              	.LVL0:
  32 0000 2DE9F047 		push	{r4, r5, r6, r7, r8, r9, r10, lr}
  33              		.cfi_def_cfa_offset 32
  34              		.cfi_offset 4, -32
  35              		.cfi_offset 5, -28
  36              		.cfi_offset 6, -24
  37              		.cfi_offset 7, -20
  38              		.cfi_offset 8, -16
  39              		.cfi_offset 9, -12
  40              		.cfi_offset 10, -8
  41              		.cfi_offset 14, -4
  62:..\common\Modules\RingBuffer/RingBuffer.c ****     uint32_t currIndex = buffer->writeIndex;
  63:..\common\Modules\RingBuffer/RingBuffer.c ****     uint32_t currItem = 0;
  42              		.loc 1 63 0
  43 0004 0026     		movs	r6, #0
  61:..\common\Modules\RingBuffer/RingBuffer.c ****     uint32_t currIndex = buffer->writeIndex;
  44              		.loc 1 61 0
  45 0006 0446     		mov	r4, r0
  46 0008 8846     		mov	r8, r1
  47 000a 1746     		mov	r7, r2
  48 000c 9946     		mov	r9, r3
  49              	.LBB2:
  64:..\common\Modules\RingBuffer/RingBuffer.c ****     
ARM GAS  C:\Users\chemi\AppData\Local\Temp\ccwvslza.s 			page 3


  65:..\common\Modules\RingBuffer/RingBuffer.c ****     while(currItem < length){
  66:..\common\Modules\RingBuffer/RingBuffer.c ****         //Calculate the pointer from the current index. This is potentially a bit shady? Idk (TODO 
  67:..\common\Modules\RingBuffer/RingBuffer.c ****         void* dstPtr = (void*) ((char*) buffer->mem + currIndex * buffer->dataSize);
  68:..\common\Modules\RingBuffer/RingBuffer.c ****         void* srcPtr = (void*) ((char*) src + currItem * buffer->dataSize);
  69:..\common\Modules\RingBuffer/RingBuffer.c ****             
  70:..\common\Modules\RingBuffer/RingBuffer.c ****         //copy the data
  71:..\common\Modules\RingBuffer/RingBuffer.c ****         memcpy(dstPtr, srcPtr, buffer->dataSize);
  72:..\common\Modules\RingBuffer/RingBuffer.c ****         
  73:..\common\Modules\RingBuffer/RingBuffer.c ****         //go to the next entry
  74:..\common\Modules\RingBuffer/RingBuffer.c ****         currItem++;
  75:..\common\Modules\RingBuffer/RingBuffer.c ****         currIndex++;
  76:..\common\Modules\RingBuffer/RingBuffer.c ****         if(currIndex >= buffer->dataCountLimited) currIndex = 0;
  77:..\common\Modules\RingBuffer/RingBuffer.c ****         
  78:..\common\Modules\RingBuffer/RingBuffer.c ****         //check if we overran the buffer, this should only happen with shiftOnOverflow enabled
  79:..\common\Modules\RingBuffer/RingBuffer.c ****         //TODO fix this? Seems like this wouldn't ever trigger
  80:..\common\Modules\RingBuffer/RingBuffer.c ****         if(shiftOnOverflow && currIndex == buffer->readIndex){
  81:..\common\Modules\RingBuffer/RingBuffer.c ****             //yes, we did overrun. Since shiftOnOverflow is enabled we want to offset the read poin
  82:..\common\Modules\RingBuffer/RingBuffer.c ****             buffer->readIndex++;
  83:..\common\Modules\RingBuffer/RingBuffer.c ****             if(buffer->readIndex >= buffer->dataCountLimited) buffer->readIndex = 0;
  50              		.loc 1 83 0
  51 000e B246     		mov	r10, r6
  52              	.LBE2:
  62:..\common\Modules\RingBuffer/RingBuffer.c ****     uint32_t currItem = 0;
  53              		.loc 1 62 0
  54 0010 C569     		ldr	r5, [r0, #28]
  55              	.LVL1:
  56              	.L2:
  65:..\common\Modules\RingBuffer/RingBuffer.c ****         //Calculate the pointer from the current index. This is potentially a bit shady? Idk (TODO 
  57              		.loc 1 65 0
  58 0012 BE42     		cmp	r6, r7
  59 0014 1FD2     		bcs	.L10
  60              	.LBB3:
  67:..\common\Modules\RingBuffer/RingBuffer.c ****         void* srcPtr = (void*) ((char*) src + currItem * buffer->dataSize);
  61              		.loc 1 67 0
  62 0016 2369     		ldr	r3, [r4, #16]
  63 0018 6068     		ldr	r0, [r4, #4]
  64              	.LVL2:
  68:..\common\Modules\RingBuffer/RingBuffer.c ****             
  65              		.loc 1 68 0
  66 001a 6168     		ldr	r1, [r4, #4]
  67              	.LVL3:
  71:..\common\Modules\RingBuffer/RingBuffer.c ****         
  68              		.loc 1 71 0
  69 001c 00FB0530 		mla	r0, r0, r5, r3
  70              	.LVL4:
  71 0020 01FB0681 		mla	r1, r1, r6, r8
  72              	.LVL5:
  73 0024 6268     		ldr	r2, [r4, #4]
  74 0026 FFF7FEFF 		bl	memcpy
  75              	.LVL6:
  76:..\common\Modules\RingBuffer/RingBuffer.c ****         
  76              		.loc 1 76 0
  77 002a E368     		ldr	r3, [r4, #12]
  75:..\common\Modules\RingBuffer/RingBuffer.c ****         if(currIndex >= buffer->dataCountLimited) currIndex = 0;
  78              		.loc 1 75 0
  79 002c 0135     		adds	r5, r5, #1
  80              	.LVL7:
ARM GAS  C:\Users\chemi\AppData\Local\Temp\ccwvslza.s 			page 4


  74:..\common\Modules\RingBuffer/RingBuffer.c ****         currIndex++;
  81              		.loc 1 74 0
  82 002e 0136     		adds	r6, r6, #1
  83              	.LVL8:
  76:..\common\Modules\RingBuffer/RingBuffer.c ****         
  84              		.loc 1 76 0
  85 0030 9D42     		cmp	r5, r3
  86 0032 28BF     		it	cs
  87 0034 0025     		movcs	r5, #0
  88              	.LVL9:
  80:..\common\Modules\RingBuffer/RingBuffer.c ****             //yes, we did overrun. Since shiftOnOverflow is enabled we want to offset the read poin
  89              		.loc 1 80 0
  90 0036 B9F1000F 		cmp	r9, #0
  91 003a EAD0     		beq	.L2
  80:..\common\Modules\RingBuffer/RingBuffer.c ****             //yes, we did overrun. Since shiftOnOverflow is enabled we want to offset the read poin
  92              		.loc 1 80 0 is_stmt 0 discriminator 1
  93 003c 6369     		ldr	r3, [r4, #20]
  94 003e 9D42     		cmp	r5, r3
  95 0040 E7D1     		bne	.L2
  82:..\common\Modules\RingBuffer/RingBuffer.c ****             if(buffer->readIndex >= buffer->dataCountLimited) buffer->readIndex = 0;
  96              		.loc 1 82 0 is_stmt 1
  97 0042 6269     		ldr	r2, [r4, #20]
  98 0044 0132     		adds	r2, r2, #1
  99 0046 6261     		str	r2, [r4, #20]
 100              		.loc 1 83 0
 101 0048 6269     		ldr	r2, [r4, #20]
 102 004a E368     		ldr	r3, [r4, #12]
 103 004c 9A42     		cmp	r2, r3
 104 004e 28BF     		it	cs
 105 0050 C4F814A0 		strcs	r10, [r4, #20]
 106 0054 DDE7     		b	.L2
 107              	.L10:
 108              	.LBE3:
  84:..\common\Modules\RingBuffer/RingBuffer.c ****         }
  85:..\common\Modules\RingBuffer/RingBuffer.c ****     }
  86:..\common\Modules\RingBuffer/RingBuffer.c ****     
  87:..\common\Modules\RingBuffer/RingBuffer.c ****     //and finally increase the write index
  88:..\common\Modules\RingBuffer/RingBuffer.c ****     buffer->writeIndex = currIndex;
 109              		.loc 1 88 0
 110 0056 E561     		str	r5, [r4, #28]
  89:..\common\Modules\RingBuffer/RingBuffer.c ****     return length;
  90:..\common\Modules\RingBuffer/RingBuffer.c **** }
 111              		.loc 1 90 0
 112 0058 3846     		mov	r0, r7
 113 005a BDE8F087 		pop	{r4, r5, r6, r7, r8, r9, r10, pc}
 114              		.cfi_endproc
 115              	.LFE71:
 116              		.size	RingBuffer_writeToBuffer, .-RingBuffer_writeToBuffer
 117              		.section	.text.RingBuffer_create,"ax",%progbits
 118              		.align	1
 119              		.global	RingBuffer_create
 120              		.thumb
 121              		.thumb_func
 122              		.type	RingBuffer_create, %function
 123              	RingBuffer_create:
 124              	.LFB68:
   7:..\common\Modules\RingBuffer/RingBuffer.c ****     if(bufferSizeWords < 2 || dataSize == 0) return NULL;
ARM GAS  C:\Users\chemi\AppData\Local\Temp\ccwvslza.s 			page 5


 125              		.loc 1 7 0
 126              		.cfi_startproc
 127              		@ args = 0, pretend = 0, frame = 0
 128              		@ frame_needed = 0, uses_anonymous_args = 0
 129              	.LVL10:
   8:..\common\Modules\RingBuffer/RingBuffer.c ****     
 130              		.loc 1 8 0
 131 0000 0128     		cmp	r0, #1
   7:..\common\Modules\RingBuffer/RingBuffer.c ****     if(bufferSizeWords < 2 || dataSize == 0) return NULL;
 132              		.loc 1 7 0
 133 0002 F8B5     		push	{r3, r4, r5, r6, r7, lr}
 134              		.cfi_def_cfa_offset 24
 135              		.cfi_offset 3, -24
 136              		.cfi_offset 4, -20
 137              		.cfi_offset 5, -16
 138              		.cfi_offset 6, -12
 139              		.cfi_offset 7, -8
 140              		.cfi_offset 14, -4
   7:..\common\Modules\RingBuffer/RingBuffer.c ****     if(bufferSizeWords < 2 || dataSize == 0) return NULL;
 141              		.loc 1 7 0
 142 0004 0646     		mov	r6, r0
 143 0006 0C46     		mov	r4, r1
   8:..\common\Modules\RingBuffer/RingBuffer.c ****     
 144              		.loc 1 8 0
 145 0008 19D9     		bls	.L13
   8:..\common\Modules\RingBuffer/RingBuffer.c ****     
 146              		.loc 1 8 0 is_stmt 0 discriminator 2
 147 000a D1B1     		cbz	r1, .L14
  11:..\common\Modules\RingBuffer/RingBuffer.c ****     memset(ret, 0, sizeof(RingBuffer_t));
 148              		.loc 1 11 0 is_stmt 1
 149 000c 2020     		movs	r0, #32
 150              	.LVL11:
 151 000e FFF7FEFF 		bl	pvPortMalloc
 152              	.LVL12:
  15:..\common\Modules\RingBuffer/RingBuffer.c ****     memset(ret->mem, 0, bufferSizeWords * dataSize);
 153              		.loc 1 15 0
 154 0012 04FB06F7 		mul	r7, r4, r6
  12:..\common\Modules\RingBuffer/RingBuffer.c ****     
 155              		.loc 1 12 0
 156 0016 2022     		movs	r2, #32
 157 0018 0021     		movs	r1, #0
  11:..\common\Modules\RingBuffer/RingBuffer.c ****     memset(ret, 0, sizeof(RingBuffer_t));
 158              		.loc 1 11 0
 159 001a 0546     		mov	r5, r0
 160              	.LVL13:
  12:..\common\Modules\RingBuffer/RingBuffer.c ****     
 161              		.loc 1 12 0
 162 001c FFF7FEFF 		bl	memset
 163              	.LVL14:
  15:..\common\Modules\RingBuffer/RingBuffer.c ****     memset(ret->mem, 0, bufferSizeWords * dataSize);
 164              		.loc 1 15 0
 165 0020 3846     		mov	r0, r7
 166 0022 FFF7FEFF 		bl	pvPortMalloc
 167              	.LVL15:
 168 0026 2861     		str	r0, [r5, #16]
  16:..\common\Modules\RingBuffer/RingBuffer.c ****     
 169              		.loc 1 16 0
ARM GAS  C:\Users\chemi\AppData\Local\Temp\ccwvslza.s 			page 6


 170 0028 2869     		ldr	r0, [r5, #16]
 171 002a 3A46     		mov	r2, r7
 172 002c 0021     		movs	r1, #0
 173 002e FFF7FEFF 		bl	memset
 174              	.LVL16:
  19:..\common\Modules\RingBuffer/RingBuffer.c ****     ret->dataCount = bufferSizeWords;
 175              		.loc 1 19 0
 176 0032 2F60     		str	r7, [r5]
  26:..\common\Modules\RingBuffer/RingBuffer.c **** }
 177              		.loc 1 26 0
 178 0034 2846     		mov	r0, r5
  20:..\common\Modules\RingBuffer/RingBuffer.c ****     ret->dataCountLimited = bufferSizeWords;
 179              		.loc 1 20 0
 180 0036 AE60     		str	r6, [r5, #8]
  21:..\common\Modules\RingBuffer/RingBuffer.c ****     ret->dataSize = dataSize;
 181              		.loc 1 21 0
 182 0038 EE60     		str	r6, [r5, #12]
  22:..\common\Modules\RingBuffer/RingBuffer.c ****     
 183              		.loc 1 22 0
 184 003a 6C60     		str	r4, [r5, #4]
  26:..\common\Modules\RingBuffer/RingBuffer.c **** }
 185              		.loc 1 26 0
 186 003c F8BD     		pop	{r3, r4, r5, r6, r7, pc}
 187              	.LVL17:
 188              	.L13:
   8:..\common\Modules\RingBuffer/RingBuffer.c ****     
 189              		.loc 1 8 0
 190 003e 0020     		movs	r0, #0
 191              	.LVL18:
 192 0040 F8BD     		pop	{r3, r4, r5, r6, r7, pc}
 193              	.LVL19:
 194              	.L14:
 195 0042 0846     		mov	r0, r1
 196              	.LVL20:
  27:..\common\Modules\RingBuffer/RingBuffer.c **** 
 197              		.loc 1 27 0
 198 0044 F8BD     		pop	{r3, r4, r5, r6, r7, pc}
 199              		.cfi_endproc
 200              	.LFE68:
 201              		.size	RingBuffer_create, .-RingBuffer_create
 202              		.section	.text.RingBuffer_delete,"ax",%progbits
 203              		.align	1
 204              		.global	RingBuffer_delete
 205              		.thumb
 206              		.thumb_func
 207              		.type	RingBuffer_delete, %function
 208              	RingBuffer_delete:
 209              	.LFB69:
  29:..\common\Modules\RingBuffer/RingBuffer.c ****     if(buffer == NULL) return;
 210              		.loc 1 29 0
 211              		.cfi_startproc
 212              		@ args = 0, pretend = 0, frame = 0
 213              		@ frame_needed = 0, uses_anonymous_args = 0
 214              	.LVL21:
 215 0000 10B5     		push	{r4, lr}
 216              		.cfi_def_cfa_offset 8
 217              		.cfi_offset 4, -8
ARM GAS  C:\Users\chemi\AppData\Local\Temp\ccwvslza.s 			page 7


 218              		.cfi_offset 14, -4
  30:..\common\Modules\RingBuffer/RingBuffer.c ****     
 219              		.loc 1 30 0
 220 0002 0446     		mov	r4, r0
 221 0004 68B1     		cbz	r0, .L15
  33:..\common\Modules\RingBuffer/RingBuffer.c ****     buffer->memSize = 0;
 222              		.loc 1 33 0
 223 0006 FFF7FEFF 		bl	vTaskEnterCritical
 224              	.LVL22:
  34:..\common\Modules\RingBuffer/RingBuffer.c ****     
 225              		.loc 1 34 0
 226 000a 0023     		movs	r3, #0
 227 000c 2360     		str	r3, [r4]
  37:..\common\Modules\RingBuffer/RingBuffer.c ****     vPortFree(buffer);
 228              		.loc 1 37 0
 229 000e 2069     		ldr	r0, [r4, #16]
 230 0010 FFF7FEFF 		bl	vPortFree
 231              	.LVL23:
  38:..\common\Modules\RingBuffer/RingBuffer.c ****     
 232              		.loc 1 38 0
 233 0014 2046     		mov	r0, r4
 234 0016 FFF7FEFF 		bl	vPortFree
 235              	.LVL24:
  41:..\common\Modules\RingBuffer/RingBuffer.c **** 
 236              		.loc 1 41 0
 237 001a BDE81040 		pop	{r4, lr}
 238              		.cfi_remember_state
 239              		.cfi_restore 14
 240              		.cfi_restore 4
 241              		.cfi_def_cfa_offset 0
 242              	.LVL25:
  40:..\common\Modules\RingBuffer/RingBuffer.c **** }
 243              		.loc 1 40 0
 244 001e FFF7FEBF 		b	vTaskExitCritical
 245              	.LVL26:
 246              	.L15:
 247              		.cfi_restore_state
 248 0022 10BD     		pop	{r4, pc}
 249              		.cfi_endproc
 250              	.LFE69:
 251              		.size	RingBuffer_delete, .-RingBuffer_delete
 252              		.section	.text.RingBuffer_writeSingleWord,"ax",%progbits
 253              		.align	1
 254              		.global	RingBuffer_writeSingleWord
 255              		.thumb
 256              		.thumb_func
 257              		.type	RingBuffer_writeSingleWord, %function
 258              	RingBuffer_writeSingleWord:
 259              	.LFB72:
  91:..\common\Modules\RingBuffer/RingBuffer.c **** 
  92:..\common\Modules\RingBuffer/RingBuffer.c **** int32_t RingBuffer_writeSingleWord(RingBuffer_t * buffer, void* src){
 260              		.loc 1 92 0
 261              		.cfi_startproc
 262              		@ args = 0, pretend = 0, frame = 0
 263              		@ frame_needed = 0, uses_anonymous_args = 0
 264              	.LVL27:
  93:..\common\Modules\RingBuffer/RingBuffer.c ****     if(buffer == NULL || src == NULL) return -1;
ARM GAS  C:\Users\chemi\AppData\Local\Temp\ccwvslza.s 			page 8


 265              		.loc 1 93 0
 266 0000 90B1     		cbz	r0, .L20
  92:..\common\Modules\RingBuffer/RingBuffer.c ****     if(buffer == NULL || src == NULL) return -1;
 267              		.loc 1 92 0 discriminator 2
 268 0002 38B5     		push	{r3, r4, r5, lr}
 269              		.cfi_def_cfa_offset 16
 270              		.cfi_offset 3, -16
 271              		.cfi_offset 4, -12
 272              		.cfi_offset 5, -8
 273              		.cfi_offset 14, -4
 274              		.loc 1 93 0 discriminator 2
 275 0004 99B1     		cbz	r1, .L21
 276 0006 0446     		mov	r4, r0
  94:..\common\Modules\RingBuffer/RingBuffer.c ****     
  95:..\common\Modules\RingBuffer/RingBuffer.c ****     uint32_t currIndex = buffer->writeIndex;
 277              		.loc 1 95 0
 278 0008 C569     		ldr	r5, [r0, #28]
 279              	.LVL28:
  96:..\common\Modules\RingBuffer/RingBuffer.c ****     
  97:..\common\Modules\RingBuffer/RingBuffer.c ****     //Calculate the pointer from the current index. This is potentially a bit shady? Idk (TODO eval
  98:..\common\Modules\RingBuffer/RingBuffer.c ****     void* dstPtr = (void*) ((char*) buffer->mem + currIndex * buffer->dataSize);
 280              		.loc 1 98 0
 281 000a 0369     		ldr	r3, [r0, #16]
 282 000c 4068     		ldr	r0, [r0, #4]
 283              	.LVL29:
  99:..\common\Modules\RingBuffer/RingBuffer.c **** 
 100:..\common\Modules\RingBuffer/RingBuffer.c ****     //copy the data
 101:..\common\Modules\RingBuffer/RingBuffer.c ****     memcpy(dstPtr, src, buffer->dataSize);
 284              		.loc 1 101 0
 285 000e 6268     		ldr	r2, [r4, #4]
 286 0010 00FB0530 		mla	r0, r0, r5, r3
 287              	.LVL30:
 288 0014 FFF7FEFF 		bl	memcpy
 289              	.LVL31:
 102:..\common\Modules\RingBuffer/RingBuffer.c **** 
 103:..\common\Modules\RingBuffer/RingBuffer.c ****     currIndex++;
 104:..\common\Modules\RingBuffer/RingBuffer.c ****     if(currIndex >= buffer->dataCountLimited) currIndex = 0;
 290              		.loc 1 104 0
 291 0018 E268     		ldr	r2, [r4, #12]
 103:..\common\Modules\RingBuffer/RingBuffer.c ****     if(currIndex >= buffer->dataCountLimited) currIndex = 0;
 292              		.loc 1 103 0
 293 001a 6B1C     		adds	r3, r5, #1
 294              	.LVL32:
 295              		.loc 1 104 0
 296 001c 9342     		cmp	r3, r2
 297 001e 28BF     		it	cs
 298 0020 0023     		movcs	r3, #0
 299              	.LVL33:
 105:..\common\Modules\RingBuffer/RingBuffer.c ****     
 106:..\common\Modules\RingBuffer/RingBuffer.c ****     //and finally increase the write index
 107:..\common\Modules\RingBuffer/RingBuffer.c ****     buffer->writeIndex = currIndex;
 108:..\common\Modules\RingBuffer/RingBuffer.c ****     
 109:..\common\Modules\RingBuffer/RingBuffer.c ****     return 1;
 300              		.loc 1 109 0
 301 0022 0120     		movs	r0, #1
 107:..\common\Modules\RingBuffer/RingBuffer.c ****     
 302              		.loc 1 107 0
ARM GAS  C:\Users\chemi\AppData\Local\Temp\ccwvslza.s 			page 9


 303 0024 E361     		str	r3, [r4, #28]
 304              		.loc 1 109 0
 305 0026 38BD     		pop	{r3, r4, r5, pc}
 306              	.LVL34:
 307              	.L20:
 308              		.cfi_def_cfa_offset 0
 309              		.cfi_restore 3
 310              		.cfi_restore 4
 311              		.cfi_restore 5
 312              		.cfi_restore 14
  93:..\common\Modules\RingBuffer/RingBuffer.c ****     
 313              		.loc 1 93 0
 314 0028 4FF0FF30 		mov	r0, #-1
 315              	.LVL35:
 110:..\common\Modules\RingBuffer/RingBuffer.c **** }
 316              		.loc 1 110 0
 317 002c 7047     		bx	lr
 318              	.LVL36:
 319              	.L21:
 320              		.cfi_def_cfa_offset 16
 321              		.cfi_offset 3, -16
 322              		.cfi_offset 4, -12
 323              		.cfi_offset 5, -8
 324              		.cfi_offset 14, -4
  93:..\common\Modules\RingBuffer/RingBuffer.c ****     
 325              		.loc 1 93 0
 326 002e 4FF0FF30 		mov	r0, #-1
 327              	.LVL37:
 328              		.loc 1 110 0
 329 0032 38BD     		pop	{r3, r4, r5, pc}
 330              		.cfi_endproc
 331              	.LFE72:
 332              		.size	RingBuffer_writeSingleWord, .-RingBuffer_writeSingleWord
 333              		.section	.text.RingBuffer_startIndexedPeek,"ax",%progbits
 334              		.align	1
 335              		.global	RingBuffer_startIndexedPeek
 336              		.thumb
 337              		.thumb_func
 338              		.type	RingBuffer_startIndexedPeek, %function
 339              	RingBuffer_startIndexedPeek:
 340              	.LFB79:
 111:..\common\Modules\RingBuffer/RingBuffer.c **** 
 112:..\common\Modules\RingBuffer/RingBuffer.c **** int32_t RingBuffer_writeFromISR(RingBuffer_t * buffer, void* src, int32_t length, uint32_t shiftOnO
 113:..\common\Modules\RingBuffer/RingBuffer.c ****     if(buffer == NULL || src == NULL) return -1;
 114:..\common\Modules\RingBuffer/RingBuffer.c ****     
 115:..\common\Modules\RingBuffer/RingBuffer.c ****     //make sure there is enough space in the buffer
 116:..\common\Modules\RingBuffer/RingBuffer.c ****     if(!shiftOnOverflow && RingBuffer_getSpaceCount(buffer) < length){
 117:..\common\Modules\RingBuffer/RingBuffer.c ****         //nope there isn't, return with an error
 118:..\common\Modules\RingBuffer/RingBuffer.c ****         //TODO maybe only write some data now?
 119:..\common\Modules\RingBuffer/RingBuffer.c ****         return -1;
 120:..\common\Modules\RingBuffer/RingBuffer.c ****     }
 121:..\common\Modules\RingBuffer/RingBuffer.c ****     
 122:..\common\Modules\RingBuffer/RingBuffer.c ****     return RingBuffer_writeToBuffer(buffer, src, length, shiftOnOverflow);
 123:..\common\Modules\RingBuffer/RingBuffer.c **** }
 124:..\common\Modules\RingBuffer/RingBuffer.c **** 
 125:..\common\Modules\RingBuffer/RingBuffer.c **** int32_t RingBuffer_write(RingBuffer_t * buffer, void* src, int32_t length, uint32_t shiftOnOverflow
 126:..\common\Modules\RingBuffer/RingBuffer.c ****     if(buffer == NULL || src == NULL) return -1;
ARM GAS  C:\Users\chemi\AppData\Local\Temp\ccwvslza.s 			page 10


 127:..\common\Modules\RingBuffer/RingBuffer.c ****     
 128:..\common\Modules\RingBuffer/RingBuffer.c ****     //make sure there is enough space in the buffer
 129:..\common\Modules\RingBuffer/RingBuffer.c ****     if(!shiftOnOverflow && RingBuffer_getSpaceCount(buffer) < length){
 130:..\common\Modules\RingBuffer/RingBuffer.c ****         //nope there isn't, return with an error
 131:..\common\Modules\RingBuffer/RingBuffer.c ****         //TODO maybe only write some data now?
 132:..\common\Modules\RingBuffer/RingBuffer.c ****         return -1;
 133:..\common\Modules\RingBuffer/RingBuffer.c ****     }
 134:..\common\Modules\RingBuffer/RingBuffer.c ****     
 135:..\common\Modules\RingBuffer/RingBuffer.c ****     //make sure we don't get interrupted while touching the data (?° ?? ?°) WHY github oh why do yo
 136:..\common\Modules\RingBuffer/RingBuffer.c ****     taskENTER_CRITICAL();
 137:..\common\Modules\RingBuffer/RingBuffer.c ****     
 138:..\common\Modules\RingBuffer/RingBuffer.c ****     int32_t ret = RingBuffer_writeToBuffer(buffer, src, length, shiftOnOverflow);
 139:..\common\Modules\RingBuffer/RingBuffer.c ****     
 140:..\common\Modules\RingBuffer/RingBuffer.c ****     //and release the status again
 141:..\common\Modules\RingBuffer/RingBuffer.c ****     taskEXIT_CRITICAL();
 142:..\common\Modules\RingBuffer/RingBuffer.c ****     
 143:..\common\Modules\RingBuffer/RingBuffer.c ****     return ret;
 144:..\common\Modules\RingBuffer/RingBuffer.c **** }
 145:..\common\Modules\RingBuffer/RingBuffer.c **** 
 146:..\common\Modules\RingBuffer/RingBuffer.c **** int32_t RingBuffer_read(RingBuffer_t * buffer, void* dst, uint32_t length){
 147:..\common\Modules\RingBuffer/RingBuffer.c ****     if(buffer == NULL || dst == NULL || buffer->memSize == 0) return -1;
 148:..\common\Modules\RingBuffer/RingBuffer.c ****    
 149:..\common\Modules\RingBuffer/RingBuffer.c ****     //make sure there is enough data to read
 150:..\common\Modules\RingBuffer/RingBuffer.c ****     if(RingBuffer_getDataCount(buffer) < length){
 151:..\common\Modules\RingBuffer/RingBuffer.c ****         //return with an error
 152:..\common\Modules\RingBuffer/RingBuffer.c ****         //TODO also check if we might want to only read the available data here
 153:..\common\Modules\RingBuffer/RingBuffer.c ****         return -1;
 154:..\common\Modules\RingBuffer/RingBuffer.c ****     }
 155:..\common\Modules\RingBuffer/RingBuffer.c ****     
 156:..\common\Modules\RingBuffer/RingBuffer.c ****     //make sure we don't get interrupted while touching the data (?° ?? ?°)
 157:..\common\Modules\RingBuffer/RingBuffer.c ****     taskENTER_CRITICAL();
 158:..\common\Modules\RingBuffer/RingBuffer.c ****     
 159:..\common\Modules\RingBuffer/RingBuffer.c ****     uint32_t currIndex = buffer->readIndex;
 160:..\common\Modules\RingBuffer/RingBuffer.c ****     uint32_t currItem = 0;
 161:..\common\Modules\RingBuffer/RingBuffer.c ****     
 162:..\common\Modules\RingBuffer/RingBuffer.c ****     while(currItem < length){
 163:..\common\Modules\RingBuffer/RingBuffer.c ****         //Calculate the pointer from the current index. This is potentially a bit shady? Idk (TODO 
 164:..\common\Modules\RingBuffer/RingBuffer.c ****         void* dstPtr = (void*) ((char*) dst + currItem * buffer->dataSize);
 165:..\common\Modules\RingBuffer/RingBuffer.c ****         void* srcPtr = (void*) ((char*) buffer->mem + currIndex * buffer->dataSize);
 166:..\common\Modules\RingBuffer/RingBuffer.c **** 
 167:..\common\Modules\RingBuffer/RingBuffer.c ****         //copy the data
 168:..\common\Modules\RingBuffer/RingBuffer.c ****         memcpy(dstPtr, srcPtr, buffer->dataSize);
 169:..\common\Modules\RingBuffer/RingBuffer.c ****         
 170:..\common\Modules\RingBuffer/RingBuffer.c ****         //go to the next entry
 171:..\common\Modules\RingBuffer/RingBuffer.c ****         currItem++;
 172:..\common\Modules\RingBuffer/RingBuffer.c ****         currIndex++;
 173:..\common\Modules\RingBuffer/RingBuffer.c ****         if(currIndex >= buffer->dataCountLimited) currIndex = 0;
 174:..\common\Modules\RingBuffer/RingBuffer.c ****     }
 175:..\common\Modules\RingBuffer/RingBuffer.c ****     
 176:..\common\Modules\RingBuffer/RingBuffer.c ****     //and finally update the read index
 177:..\common\Modules\RingBuffer/RingBuffer.c ****     buffer->readIndex = currIndex;
 178:..\common\Modules\RingBuffer/RingBuffer.c ****     
 179:..\common\Modules\RingBuffer/RingBuffer.c ****     //and release the status again
 180:..\common\Modules\RingBuffer/RingBuffer.c ****     taskEXIT_CRITICAL();
 181:..\common\Modules\RingBuffer/RingBuffer.c ****     
 182:..\common\Modules\RingBuffer/RingBuffer.c ****     return length;
 183:..\common\Modules\RingBuffer/RingBuffer.c **** }
ARM GAS  C:\Users\chemi\AppData\Local\Temp\ccwvslza.s 			page 11


 184:..\common\Modules\RingBuffer/RingBuffer.c **** 
 185:..\common\Modules\RingBuffer/RingBuffer.c **** //gets the pointer to the next elements in a buffer
 186:..\common\Modules\RingBuffer/RingBuffer.c **** //WARNING: this function is not write over safe => if the buffer overflows while using the pointer 
 187:..\common\Modules\RingBuffer/RingBuffer.c **** int32_t RingBuffer_readBufferPointer(RingBuffer_t * buffer, void** dst, uint32_t length){
 188:..\common\Modules\RingBuffer/RingBuffer.c ****     if(buffer == NULL || dst == NULL || buffer->memSize == 0) return -1;
 189:..\common\Modules\RingBuffer/RingBuffer.c ****    
 190:..\common\Modules\RingBuffer/RingBuffer.c ****     //make sure there is enough data to read
 191:..\common\Modules\RingBuffer/RingBuffer.c ****     if(RingBuffer_getDataCount(buffer) < length){
 192:..\common\Modules\RingBuffer/RingBuffer.c ****         //return with an error
 193:..\common\Modules\RingBuffer/RingBuffer.c ****         //TODO also check if we might want to only read the available data here
 194:..\common\Modules\RingBuffer/RingBuffer.c ****         return -1;
 195:..\common\Modules\RingBuffer/RingBuffer.c ****     }
 196:..\common\Modules\RingBuffer/RingBuffer.c ****     
 197:..\common\Modules\RingBuffer/RingBuffer.c ****     //check if we would cross the end of the buffer
 198:..\common\Modules\RingBuffer/RingBuffer.c ****     if(buffer->readIndex + length > buffer->dataCountLimited) return -1;
 199:..\common\Modules\RingBuffer/RingBuffer.c ****     
 200:..\common\Modules\RingBuffer/RingBuffer.c ****     //make sure we don't get interrupted while touching the data (?° ?? ?°)
 201:..\common\Modules\RingBuffer/RingBuffer.c ****     vTaskEnterCritical();
 202:..\common\Modules\RingBuffer/RingBuffer.c ****     
 203:..\common\Modules\RingBuffer/RingBuffer.c ****     //get pointer to current data segment
 204:..\common\Modules\RingBuffer/RingBuffer.c ****     *dst = (void*) ((char*) buffer->mem + buffer->readIndex * buffer->dataSize);
 205:..\common\Modules\RingBuffer/RingBuffer.c ****     
 206:..\common\Modules\RingBuffer/RingBuffer.c ****     //and then update the read index
 207:..\common\Modules\RingBuffer/RingBuffer.c ****     //WARNING this is the step after which the write routing sees the memory pointed to by the buff
 208:..\common\Modules\RingBuffer/RingBuffer.c ****     //        IT WILL OVERWRITE IT IF IT RUNS ACROSS IT
 209:..\common\Modules\RingBuffer/RingBuffer.c ****     buffer->readIndex += length;
 210:..\common\Modules\RingBuffer/RingBuffer.c ****     if(buffer->readIndex == buffer->dataCountLimited) buffer->readIndex = 0;
 211:..\common\Modules\RingBuffer/RingBuffer.c ****     
 212:..\common\Modules\RingBuffer/RingBuffer.c ****     //and release the status again
 213:..\common\Modules\RingBuffer/RingBuffer.c ****     vTaskExitCritical();
 214:..\common\Modules\RingBuffer/RingBuffer.c ****     
 215:..\common\Modules\RingBuffer/RingBuffer.c ****     return length;
 216:..\common\Modules\RingBuffer/RingBuffer.c **** }
 217:..\common\Modules\RingBuffer/RingBuffer.c **** 
 218:..\common\Modules\RingBuffer/RingBuffer.c **** //have a look at the buffer at an indexed offset from readIndex
 219:..\common\Modules\RingBuffer/RingBuffer.c **** int32_t RingBuffer_peek(RingBuffer_t * buffer, void* dst, uint32_t index, uint32_t length){
 220:..\common\Modules\RingBuffer/RingBuffer.c ****     if(buffer == NULL || dst == NULL || buffer->memSize == 0) return -1;
 221:..\common\Modules\RingBuffer/RingBuffer.c ****     
 222:..\common\Modules\RingBuffer/RingBuffer.c ****     //check if there is enough data to even get to the index
 223:..\common\Modules\RingBuffer/RingBuffer.c ****     int32_t currDataCount = RingBuffer_getDataCount(buffer);
 224:..\common\Modules\RingBuffer/RingBuffer.c ****     if(index+1 > currDataCount) return -1;
 225:..\common\Modules\RingBuffer/RingBuffer.c ****     
 226:..\common\Modules\RingBuffer/RingBuffer.c ****     //limit read length to available data
 227:..\common\Modules\RingBuffer/RingBuffer.c ****     if(length > currDataCount - index) length = currDataCount - index;
 228:..\common\Modules\RingBuffer/RingBuffer.c ****     
 229:..\common\Modules\RingBuffer/RingBuffer.c ****     //make sure we don't get interrupted while touching the data
 230:..\common\Modules\RingBuffer/RingBuffer.c ****     vTaskEnterCritical();
 231:..\common\Modules\RingBuffer/RingBuffer.c ****     
 232:..\common\Modules\RingBuffer/RingBuffer.c ****     //calculate new offset
 233:..\common\Modules\RingBuffer/RingBuffer.c ****     uint32_t currIndex = buffer->readIndex + index;
 234:..\common\Modules\RingBuffer/RingBuffer.c ****     if(currIndex >= buffer->dataCountLimited){ 
 235:..\common\Modules\RingBuffer/RingBuffer.c ****         currIndex -= buffer->dataCountLimited;
 236:..\common\Modules\RingBuffer/RingBuffer.c ****     }
 237:..\common\Modules\RingBuffer/RingBuffer.c ****     uint32_t currItem = 0;
 238:..\common\Modules\RingBuffer/RingBuffer.c ****     
 239:..\common\Modules\RingBuffer/RingBuffer.c ****     while(currItem < length){
 240:..\common\Modules\RingBuffer/RingBuffer.c ****         //Calculate the pointer from the current index. This is potentially a bit shady? Idk (TODO 
ARM GAS  C:\Users\chemi\AppData\Local\Temp\ccwvslza.s 			page 12


 241:..\common\Modules\RingBuffer/RingBuffer.c ****         void* dstPtr = (void*) ((char*) dst + currItem * buffer->dataSize);
 242:..\common\Modules\RingBuffer/RingBuffer.c ****         void* srcPtr = (void*) ((char*) buffer->mem + currIndex * buffer->dataSize);
 243:..\common\Modules\RingBuffer/RingBuffer.c **** 
 244:..\common\Modules\RingBuffer/RingBuffer.c ****         //copy the data
 245:..\common\Modules\RingBuffer/RingBuffer.c ****         memcpy(dstPtr, srcPtr, buffer->dataSize);
 246:..\common\Modules\RingBuffer/RingBuffer.c ****         
 247:..\common\Modules\RingBuffer/RingBuffer.c ****         //go to the next entry
 248:..\common\Modules\RingBuffer/RingBuffer.c ****         currItem++;
 249:..\common\Modules\RingBuffer/RingBuffer.c ****         currIndex++;
 250:..\common\Modules\RingBuffer/RingBuffer.c ****         if(currIndex >= buffer->dataCountLimited) currIndex = 0;
 251:..\common\Modules\RingBuffer/RingBuffer.c ****     }
 252:..\common\Modules\RingBuffer/RingBuffer.c ****     
 253:..\common\Modules\RingBuffer/RingBuffer.c ****     //DON'T update any indices... after all we are only peeking at the data
 254:..\common\Modules\RingBuffer/RingBuffer.c ****     
 255:..\common\Modules\RingBuffer/RingBuffer.c ****     //and release the status again
 256:..\common\Modules\RingBuffer/RingBuffer.c ****     vTaskExitCritical();
 257:..\common\Modules\RingBuffer/RingBuffer.c ****     
 258:..\common\Modules\RingBuffer/RingBuffer.c ****     return length;
 259:..\common\Modules\RingBuffer/RingBuffer.c **** }
 260:..\common\Modules\RingBuffer/RingBuffer.c **** 
 261:..\common\Modules\RingBuffer/RingBuffer.c **** int32_t RingBuffer_readFromISR(RingBuffer_t * buffer, void* dst, int32_t length){
 262:..\common\Modules\RingBuffer/RingBuffer.c ****     if(buffer == NULL || dst == NULL || buffer->memSize == 0) return -1;
 263:..\common\Modules\RingBuffer/RingBuffer.c ****    
 264:..\common\Modules\RingBuffer/RingBuffer.c ****     //make sure there is enough data to read
 265:..\common\Modules\RingBuffer/RingBuffer.c ****     if(RingBuffer_getDataCount(buffer) < length){
 266:..\common\Modules\RingBuffer/RingBuffer.c ****         //return with an error
 267:..\common\Modules\RingBuffer/RingBuffer.c ****         //TODO also check if we might want to read only the available data here
 268:..\common\Modules\RingBuffer/RingBuffer.c ****         return -1;
 269:..\common\Modules\RingBuffer/RingBuffer.c ****     }
 270:..\common\Modules\RingBuffer/RingBuffer.c ****     
 271:..\common\Modules\RingBuffer/RingBuffer.c ****     uint32_t currIndex = buffer->readIndex;
 272:..\common\Modules\RingBuffer/RingBuffer.c ****     uint32_t currItem = 0;
 273:..\common\Modules\RingBuffer/RingBuffer.c ****     
 274:..\common\Modules\RingBuffer/RingBuffer.c ****     while(currItem < length){
 275:..\common\Modules\RingBuffer/RingBuffer.c ****         //Calculate the pointer from the current index. This is potentially a bit shady? Idk (TODO 
 276:..\common\Modules\RingBuffer/RingBuffer.c ****         void* dstPtr = (void*) ((char*) dst + currItem * buffer->dataSize);
 277:..\common\Modules\RingBuffer/RingBuffer.c ****         void* srcPtr = (void*) ((char*) buffer->mem + currIndex * buffer->dataSize);
 278:..\common\Modules\RingBuffer/RingBuffer.c **** 
 279:..\common\Modules\RingBuffer/RingBuffer.c ****         //copy the data
 280:..\common\Modules\RingBuffer/RingBuffer.c ****         memcpy(dstPtr, srcPtr, buffer->dataSize);
 281:..\common\Modules\RingBuffer/RingBuffer.c ****         
 282:..\common\Modules\RingBuffer/RingBuffer.c ****         //go to the next entry
 283:..\common\Modules\RingBuffer/RingBuffer.c ****         currItem++;
 284:..\common\Modules\RingBuffer/RingBuffer.c ****         currIndex++;
 285:..\common\Modules\RingBuffer/RingBuffer.c ****         if(currIndex >= buffer->dataCountLimited) currIndex = 0;
 286:..\common\Modules\RingBuffer/RingBuffer.c ****     }
 287:..\common\Modules\RingBuffer/RingBuffer.c ****     
 288:..\common\Modules\RingBuffer/RingBuffer.c ****     //and finally update the read index
 289:..\common\Modules\RingBuffer/RingBuffer.c ****     buffer->readIndex = currIndex;
 290:..\common\Modules\RingBuffer/RingBuffer.c ****     
 291:..\common\Modules\RingBuffer/RingBuffer.c ****     return length;
 292:..\common\Modules\RingBuffer/RingBuffer.c **** }
 293:..\common\Modules\RingBuffer/RingBuffer.c **** 
 294:..\common\Modules\RingBuffer/RingBuffer.c **** void RingBuffer_startIndexedPeek(RingBuffer_t * buffer){
 341              		.loc 1 294 0
 342              		.cfi_startproc
 343              		@ args = 0, pretend = 0, frame = 0
ARM GAS  C:\Users\chemi\AppData\Local\Temp\ccwvslza.s 			page 13


 344              		@ frame_needed = 0, uses_anonymous_args = 0
 345              		@ link register save eliminated.
 346              	.LVL38:
 295:..\common\Modules\RingBuffer/RingBuffer.c ****     //remember the read pointer we are at now so we can access the buffer by index from this point 
 296:..\common\Modules\RingBuffer/RingBuffer.c ****     buffer->startIndex = buffer->readIndex;
 347              		.loc 1 296 0
 348 0000 4369     		ldr	r3, [r0, #20]
 349 0002 8361     		str	r3, [r0, #24]
 350 0004 7047     		bx	lr
 351              		.cfi_endproc
 352              	.LFE79:
 353              		.size	RingBuffer_startIndexedPeek, .-RingBuffer_startIndexedPeek
 354              		.section	.text.RingBuffer_indexedPeek,"ax",%progbits
 355              		.align	1
 356              		.global	RingBuffer_indexedPeek
 357              		.thumb
 358              		.thumb_func
 359              		.type	RingBuffer_indexedPeek, %function
 360              	RingBuffer_indexedPeek:
 361              	.LFB80:
 297:..\common\Modules\RingBuffer/RingBuffer.c **** }
 298:..\common\Modules\RingBuffer/RingBuffer.c **** 
 299:..\common\Modules\RingBuffer/RingBuffer.c **** void* RingBuffer_indexedPeek(RingBuffer_t * buffer, uint32_t index){
 362              		.loc 1 299 0
 363              		.cfi_startproc
 364              		@ args = 0, pretend = 0, frame = 0
 365              		@ frame_needed = 0, uses_anonymous_args = 0
 366              		@ link register save eliminated.
 367              	.LVL39:
 300:..\common\Modules\RingBuffer/RingBuffer.c ****     //user requests access to data at a specified index
 301:..\common\Modules\RingBuffer/RingBuffer.c ****     
 302:..\common\Modules\RingBuffer/RingBuffer.c ****     //buffer index to access
 303:..\common\Modules\RingBuffer/RingBuffer.c ****     int32_t targetIndex = index + buffer->startIndex;
 368              		.loc 1 303 0
 369 0000 8369     		ldr	r3, [r0, #24]
 370 0002 1944     		add	r1, r1, r3
 371              	.LVL40:
 372              	.L25:
 304:..\common\Modules\RingBuffer/RingBuffer.c ****     while(targetIndex >= buffer->dataCountLimited) targetIndex -= buffer->dataCountLimited; //acces
 373              		.loc 1 304 0 discriminator 1
 374 0004 C368     		ldr	r3, [r0, #12]
 375 0006 8B42     		cmp	r3, r1
 376 0008 02D8     		bhi	.L33
 377              		.loc 1 304 0 is_stmt 0 discriminator 2
 378 000a C368     		ldr	r3, [r0, #12]
 379 000c C91A     		subs	r1, r1, r3
 380              	.LVL41:
 381 000e F9E7     		b	.L25
 382              	.L33:
 305:..\common\Modules\RingBuffer/RingBuffer.c ****     
 306:..\common\Modules\RingBuffer/RingBuffer.c ****     //Check if the index is currently part of valid data
 307:..\common\Modules\RingBuffer/RingBuffer.c ****     if(buffer->writeIndex > buffer->readIndex){
 383              		.loc 1 307 0 is_stmt 1
 384 0010 C269     		ldr	r2, [r0, #28]
 385 0012 4369     		ldr	r3, [r0, #20]
 386 0014 9A42     		cmp	r2, r3
 387 0016 06DD     		ble	.L27
ARM GAS  C:\Users\chemi\AppData\Local\Temp\ccwvslza.s 			page 14


 308:..\common\Modules\RingBuffer/RingBuffer.c ****         //write index hasn't yet looped around => check if we are inbetween the two values. If not 
 309:..\common\Modules\RingBuffer/RingBuffer.c ****         if(targetIndex < buffer->readIndex || targetIndex >= buffer->writeIndex) return NULL;
 388              		.loc 1 309 0
 389 0018 4369     		ldr	r3, [r0, #20]
 390 001a 9942     		cmp	r1, r3
 391 001c 0EDB     		blt	.L32
 392              		.loc 1 309 0 is_stmt 0 discriminator 2
 393 001e C369     		ldr	r3, [r0, #28]
 394 0020 9942     		cmp	r1, r3
 395 0022 06DB     		blt	.L29
 396 0024 0AE0     		b	.L32
 397              	.L27:
 310:..\common\Modules\RingBuffer/RingBuffer.c ****     }else{
 311:..\common\Modules\RingBuffer/RingBuffer.c ****         //write index has yet looped around => check opposite of the other case. If not return NULL
 312:..\common\Modules\RingBuffer/RingBuffer.c ****         if(targetIndex >= buffer->writeIndex && !(targetIndex > buffer->readIndex)) return NULL;
 398              		.loc 1 312 0 is_stmt 1
 399 0026 C369     		ldr	r3, [r0, #28]
 400 0028 9942     		cmp	r1, r3
 401 002a 02DB     		blt	.L29
 402              		.loc 1 312 0 is_stmt 0 discriminator 1
 403 002c 4369     		ldr	r3, [r0, #20]
 404 002e 9942     		cmp	r1, r3
 405 0030 04DD     		ble	.L32
 406              	.L29:
 313:..\common\Modules\RingBuffer/RingBuffer.c ****     }
 314:..\common\Modules\RingBuffer/RingBuffer.c ****     
 315:..\common\Modules\RingBuffer/RingBuffer.c ****     //data should be valid => return pointer to it
 316:..\common\Modules\RingBuffer/RingBuffer.c ****     return (void*) ((char*) buffer->mem + targetIndex * buffer->dataSize);
 407              		.loc 1 316 0 is_stmt 1
 408 0032 0369     		ldr	r3, [r0, #16]
 409 0034 4068     		ldr	r0, [r0, #4]
 410              	.LVL42:
 411 0036 00FB0130 		mla	r0, r0, r1, r3
 412 003a 7047     		bx	lr
 413              	.LVL43:
 414              	.L32:
 309:..\common\Modules\RingBuffer/RingBuffer.c ****     }else{
 415              		.loc 1 309 0
 416 003c 0020     		movs	r0, #0
 417              	.LVL44:
 317:..\common\Modules\RingBuffer/RingBuffer.c **** }
 418              		.loc 1 317 0
 419 003e 7047     		bx	lr
 420              		.cfi_endproc
 421              	.LFE80:
 422              		.size	RingBuffer_indexedPeek, .-RingBuffer_indexedPeek
 423              		.section	.text.RingBuffer_flush,"ax",%progbits
 424              		.align	1
 425              		.global	RingBuffer_flush
 426              		.thumb
 427              		.thumb_func
 428              		.type	RingBuffer_flush, %function
 429              	RingBuffer_flush:
 430              	.LFB81:
 318:..\common\Modules\RingBuffer/RingBuffer.c **** 
 319:..\common\Modules\RingBuffer/RingBuffer.c **** void RingBuffer_flush(RingBuffer_t * buffer){
 431              		.loc 1 319 0
ARM GAS  C:\Users\chemi\AppData\Local\Temp\ccwvslza.s 			page 15


 432              		.cfi_startproc
 433              		@ args = 0, pretend = 0, frame = 0
 434              		@ frame_needed = 0, uses_anonymous_args = 0
 435              		@ link register save eliminated.
 436              	.LVL45:
 320:..\common\Modules\RingBuffer/RingBuffer.c ****     buffer->readIndex = buffer->writeIndex = 0;
 437              		.loc 1 320 0
 438 0000 0023     		movs	r3, #0
 439 0002 C361     		str	r3, [r0, #28]
 440 0004 4361     		str	r3, [r0, #20]
 441 0006 7047     		bx	lr
 442              		.cfi_endproc
 443              	.LFE81:
 444              		.size	RingBuffer_flush, .-RingBuffer_flush
 445              		.section	.text.RingBuffer_setSizeLimit,"ax",%progbits
 446              		.align	1
 447              		.global	RingBuffer_setSizeLimit
 448              		.thumb
 449              		.thumb_func
 450              		.type	RingBuffer_setSizeLimit, %function
 451              	RingBuffer_setSizeLimit:
 452              	.LFB70:
  43:..\common\Modules\RingBuffer/RingBuffer.c ****     RingBuffer_flush(buffer);
 453              		.loc 1 43 0
 454              		.cfi_startproc
 455              		@ args = 0, pretend = 0, frame = 0
 456              		@ frame_needed = 0, uses_anonymous_args = 0
 457              	.LVL46:
 458 0000 08B5     		push	{r3, lr}
 459              		.cfi_def_cfa_offset 8
 460              		.cfi_offset 3, -8
 461              		.cfi_offset 14, -4
  44:..\common\Modules\RingBuffer/RingBuffer.c ****     
 462              		.loc 1 44 0
 463 0002 FFF7FEFF 		bl	RingBuffer_flush
 464              	.LVL47:
  46:..\common\Modules\RingBuffer/RingBuffer.c ****     buffer->dataCountLimited = size;
 465              		.loc 1 46 0
 466 0006 8368     		ldr	r3, [r0, #8]
 467 0008 8B42     		cmp	r3, r1
 468 000a 38BF     		it	cc
 469 000c 8168     		ldrcc	r1, [r0, #8]
 470              	.LVL48:
  47:..\common\Modules\RingBuffer/RingBuffer.c **** }
 471              		.loc 1 47 0
 472 000e C160     		str	r1, [r0, #12]
 473 0010 08BD     		pop	{r3, pc}
 474              		.cfi_endproc
 475              	.LFE70:
 476              		.size	RingBuffer_setSizeLimit, .-RingBuffer_setSizeLimit
 477              		.section	.text.RingBuffer_size,"ax",%progbits
 478              		.align	1
 479              		.global	RingBuffer_size
 480              		.thumb
 481              		.thumb_func
 482              		.type	RingBuffer_size, %function
 483              	RingBuffer_size:
ARM GAS  C:\Users\chemi\AppData\Local\Temp\ccwvslza.s 			page 16


 484              	.LFB82:
 321:..\common\Modules\RingBuffer/RingBuffer.c **** }
 322:..\common\Modules\RingBuffer/RingBuffer.c **** 
 323:..\common\Modules\RingBuffer/RingBuffer.c **** uint32_t RingBuffer_size(RingBuffer_t * buffer){
 485              		.loc 1 323 0
 486              		.cfi_startproc
 487              		@ args = 0, pretend = 0, frame = 0
 488              		@ frame_needed = 0, uses_anonymous_args = 0
 489              		@ link register save eliminated.
 490              	.LVL49:
 324:..\common\Modules\RingBuffer/RingBuffer.c ****     return buffer->dataCountLimited;
 491              		.loc 1 324 0
 492 0000 C068     		ldr	r0, [r0, #12]
 493              	.LVL50:
 325:..\common\Modules\RingBuffer/RingBuffer.c **** }
 494              		.loc 1 325 0
 495 0002 7047     		bx	lr
 496              		.cfi_endproc
 497              	.LFE82:
 498              		.size	RingBuffer_size, .-RingBuffer_size
 499              		.section	.text.RingBuffer_sizeInBytes,"ax",%progbits
 500              		.align	1
 501              		.global	RingBuffer_sizeInBytes
 502              		.thumb
 503              		.thumb_func
 504              		.type	RingBuffer_sizeInBytes, %function
 505              	RingBuffer_sizeInBytes:
 506              	.LFB83:
 326:..\common\Modules\RingBuffer/RingBuffer.c **** 
 327:..\common\Modules\RingBuffer/RingBuffer.c **** uint32_t RingBuffer_sizeInBytes(RingBuffer_t * buffer){
 507              		.loc 1 327 0
 508              		.cfi_startproc
 509              		@ args = 0, pretend = 0, frame = 0
 510              		@ frame_needed = 0, uses_anonymous_args = 0
 511              		@ link register save eliminated.
 512              	.LVL51:
 328:..\common\Modules\RingBuffer/RingBuffer.c ****     return buffer->memSize;
 513              		.loc 1 328 0
 514 0000 0068     		ldr	r0, [r0]
 515              	.LVL52:
 329:..\common\Modules\RingBuffer/RingBuffer.c **** }
 516              		.loc 1 329 0
 517 0002 7047     		bx	lr
 518              		.cfi_endproc
 519              	.LFE83:
 520              		.size	RingBuffer_sizeInBytes, .-RingBuffer_sizeInBytes
 521              		.section	.text.RingBuffer_getDataCount,"ax",%progbits
 522              		.align	1
 523              		.global	RingBuffer_getDataCount
 524              		.thumb
 525              		.thumb_func
 526              		.type	RingBuffer_getDataCount, %function
 527              	RingBuffer_getDataCount:
 528              	.LFB84:
 330:..\common\Modules\RingBuffer/RingBuffer.c **** 
 331:..\common\Modules\RingBuffer/RingBuffer.c **** int32_t RingBuffer_getDataCount(RingBuffer_t * buffer){
 529              		.loc 1 331 0
ARM GAS  C:\Users\chemi\AppData\Local\Temp\ccwvslza.s 			page 17


 530              		.cfi_startproc
 531              		@ args = 0, pretend = 0, frame = 0
 532              		@ frame_needed = 0, uses_anonymous_args = 0
 533              		@ link register save eliminated.
 534              	.LVL53:
 332:..\common\Modules\RingBuffer/RingBuffer.c ****     int32_t dataCount = buffer->writeIndex - buffer->readIndex;
 535              		.loc 1 332 0
 536 0000 C369     		ldr	r3, [r0, #28]
 537 0002 4269     		ldr	r2, [r0, #20]
 538              	.LVL54:
 333:..\common\Modules\RingBuffer/RingBuffer.c ****     if(dataCount < 0) dataCount += buffer->dataCountLimited;
 539              		.loc 1 333 0
 540 0004 9B1A     		subs	r3, r3, r2
 541              	.LVL55:
 542 0006 44BF     		itt	mi
 543 0008 C268     		ldrmi	r2, [r0, #12]
 544 000a 9B18     		addmi	r3, r3, r2
 545              	.LVL56:
 334:..\common\Modules\RingBuffer/RingBuffer.c ****     return dataCount;
 335:..\common\Modules\RingBuffer/RingBuffer.c **** }
 546              		.loc 1 335 0
 547 000c 1846     		mov	r0, r3
 548              	.LVL57:
 549 000e 7047     		bx	lr
 550              		.cfi_endproc
 551              	.LFE84:
 552              		.size	RingBuffer_getDataCount, .-RingBuffer_getDataCount
 553              		.section	.text.RingBuffer_read,"ax",%progbits
 554              		.align	1
 555              		.global	RingBuffer_read
 556              		.thumb
 557              		.thumb_func
 558              		.type	RingBuffer_read, %function
 559              	RingBuffer_read:
 560              	.LFB75:
 146:..\common\Modules\RingBuffer/RingBuffer.c ****     if(buffer == NULL || dst == NULL || buffer->memSize == 0) return -1;
 561              		.loc 1 146 0
 562              		.cfi_startproc
 563              		@ args = 0, pretend = 0, frame = 0
 564              		@ frame_needed = 0, uses_anonymous_args = 0
 565              	.LVL58:
 147:..\common\Modules\RingBuffer/RingBuffer.c ****    
 566              		.loc 1 147 0
 567 0000 60B3     		cbz	r0, .L55
 147:..\common\Modules\RingBuffer/RingBuffer.c ****    
 568              		.loc 1 147 0 is_stmt 0 discriminator 2
 569 0002 59B3     		cbz	r1, .L55
 147:..\common\Modules\RingBuffer/RingBuffer.c ****    
 570              		.loc 1 147 0 discriminator 4
 571 0004 0368     		ldr	r3, [r0]
 146:..\common\Modules\RingBuffer/RingBuffer.c ****     if(buffer == NULL || dst == NULL || buffer->memSize == 0) return -1;
 572              		.loc 1 146 0 is_stmt 1 discriminator 4
 573 0006 2DE9F041 		push	{r4, r5, r6, r7, r8, lr}
 574              		.cfi_def_cfa_offset 24
 575              		.cfi_offset 4, -24
 576              		.cfi_offset 5, -20
 577              		.cfi_offset 6, -16
ARM GAS  C:\Users\chemi\AppData\Local\Temp\ccwvslza.s 			page 18


 578              		.cfi_offset 7, -12
 579              		.cfi_offset 8, -8
 580              		.cfi_offset 14, -4
 581 000a 0446     		mov	r4, r0
 147:..\common\Modules\RingBuffer/RingBuffer.c ****    
 582              		.loc 1 147 0 discriminator 4
 583 000c 1BB9     		cbnz	r3, .L56
 584              	.LVL59:
 585              	.L44:
 147:..\common\Modules\RingBuffer/RingBuffer.c ****    
 586              		.loc 1 147 0 is_stmt 0
 587 000e 4FF0FF30 		mov	r0, #-1
 588 0012 BDE8F081 		pop	{r4, r5, r6, r7, r8, pc}
 589              	.LVL60:
 590              	.L56:
 591 0016 9046     		mov	r8, r2
 592 0018 0F46     		mov	r7, r1
 150:..\common\Modules\RingBuffer/RingBuffer.c ****         //return with an error
 593              		.loc 1 150 0 is_stmt 1
 594 001a FFF7FEFF 		bl	RingBuffer_getDataCount
 595              	.LVL61:
 596 001e 4045     		cmp	r0, r8
 597 0020 F5D3     		bcc	.L44
 157:..\common\Modules\RingBuffer/RingBuffer.c ****     
 598              		.loc 1 157 0
 599 0022 FFF7FEFF 		bl	vPortEnterCritical
 600              	.LVL62:
 159:..\common\Modules\RingBuffer/RingBuffer.c ****     uint32_t currItem = 0;
 601              		.loc 1 159 0
 602 0026 6669     		ldr	r6, [r4, #20]
 603              	.LVL63:
 160:..\common\Modules\RingBuffer/RingBuffer.c ****     
 604              		.loc 1 160 0
 605 0028 0025     		movs	r5, #0
 606              	.LVL64:
 607              	.L45:
 162:..\common\Modules\RingBuffer/RingBuffer.c ****         //Calculate the pointer from the current index. This is potentially a bit shady? Idk (TODO 
 608              		.loc 1 162 0
 609 002a 4545     		cmp	r5, r8
 610 002c 10D0     		beq	.L57
 611              	.LBB4:
 164:..\common\Modules\RingBuffer/RingBuffer.c ****         void* srcPtr = (void*) ((char*) buffer->mem + currIndex * buffer->dataSize);
 612              		.loc 1 164 0
 613 002e 6068     		ldr	r0, [r4, #4]
 614              	.LVL65:
 165:..\common\Modules\RingBuffer/RingBuffer.c **** 
 615              		.loc 1 165 0
 616 0030 2369     		ldr	r3, [r4, #16]
 617 0032 6168     		ldr	r1, [r4, #4]
 618              	.LVL66:
 168:..\common\Modules\RingBuffer/RingBuffer.c ****         
 619              		.loc 1 168 0
 620 0034 00FB0570 		mla	r0, r0, r5, r7
 621              	.LVL67:
 622 0038 01FB0631 		mla	r1, r1, r6, r3
 623              	.LVL68:
 624 003c 6268     		ldr	r2, [r4, #4]
ARM GAS  C:\Users\chemi\AppData\Local\Temp\ccwvslza.s 			page 19


 625 003e FFF7FEFF 		bl	memcpy
 626              	.LVL69:
 173:..\common\Modules\RingBuffer/RingBuffer.c ****     }
 627              		.loc 1 173 0
 628 0042 E368     		ldr	r3, [r4, #12]
 172:..\common\Modules\RingBuffer/RingBuffer.c ****         if(currIndex >= buffer->dataCountLimited) currIndex = 0;
 629              		.loc 1 172 0
 630 0044 0136     		adds	r6, r6, #1
 631              	.LVL70:
 171:..\common\Modules\RingBuffer/RingBuffer.c ****         currIndex++;
 632              		.loc 1 171 0
 633 0046 0135     		adds	r5, r5, #1
 634              	.LVL71:
 173:..\common\Modules\RingBuffer/RingBuffer.c ****     }
 635              		.loc 1 173 0
 636 0048 9E42     		cmp	r6, r3
 637 004a 28BF     		it	cs
 638 004c 0026     		movcs	r6, #0
 639              	.LVL72:
 640 004e ECE7     		b	.L45
 641              	.LVL73:
 642              	.L57:
 643              	.LBE4:
 177:..\common\Modules\RingBuffer/RingBuffer.c ****     
 644              		.loc 1 177 0
 645 0050 6661     		str	r6, [r4, #20]
 180:..\common\Modules\RingBuffer/RingBuffer.c ****     
 646              		.loc 1 180 0
 647 0052 FFF7FEFF 		bl	vPortExitCritical
 648              	.LVL74:
 182:..\common\Modules\RingBuffer/RingBuffer.c **** }
 649              		.loc 1 182 0
 650 0056 2846     		mov	r0, r5
 183:..\common\Modules\RingBuffer/RingBuffer.c **** 
 651              		.loc 1 183 0
 652 0058 BDE8F081 		pop	{r4, r5, r6, r7, r8, pc}
 653              	.LVL75:
 654              	.L55:
 655              		.cfi_def_cfa_offset 0
 656              		.cfi_restore 4
 657              		.cfi_restore 5
 658              		.cfi_restore 6
 659              		.cfi_restore 7
 660              		.cfi_restore 8
 661              		.cfi_restore 14
 147:..\common\Modules\RingBuffer/RingBuffer.c ****    
 662              		.loc 1 147 0
 663 005c 4FF0FF30 		mov	r0, #-1
 664              	.LVL76:
 183:..\common\Modules\RingBuffer/RingBuffer.c **** 
 665              		.loc 1 183 0
 666 0060 7047     		bx	lr
 667              		.cfi_endproc
 668              	.LFE75:
 669              		.size	RingBuffer_read, .-RingBuffer_read
 670              		.section	.text.RingBuffer_readBufferPointer,"ax",%progbits
 671              		.align	1
ARM GAS  C:\Users\chemi\AppData\Local\Temp\ccwvslza.s 			page 20


 672              		.global	RingBuffer_readBufferPointer
 673              		.thumb
 674              		.thumb_func
 675              		.type	RingBuffer_readBufferPointer, %function
 676              	RingBuffer_readBufferPointer:
 677              	.LFB76:
 187:..\common\Modules\RingBuffer/RingBuffer.c ****     if(buffer == NULL || dst == NULL || buffer->memSize == 0) return -1;
 678              		.loc 1 187 0
 679              		.cfi_startproc
 680              		@ args = 0, pretend = 0, frame = 0
 681              		@ frame_needed = 0, uses_anonymous_args = 0
 682              	.LVL77:
 188:..\common\Modules\RingBuffer/RingBuffer.c ****    
 683              		.loc 1 188 0
 684 0000 38B3     		cbz	r0, .L70
 188:..\common\Modules\RingBuffer/RingBuffer.c ****    
 685              		.loc 1 188 0 is_stmt 0 discriminator 2
 686 0002 31B3     		cbz	r1, .L70
 188:..\common\Modules\RingBuffer/RingBuffer.c ****    
 687              		.loc 1 188 0 discriminator 4
 688 0004 0368     		ldr	r3, [r0]
 187:..\common\Modules\RingBuffer/RingBuffer.c ****     if(buffer == NULL || dst == NULL || buffer->memSize == 0) return -1;
 689              		.loc 1 187 0 is_stmt 1 discriminator 4
 690 0006 70B5     		push	{r4, r5, r6, lr}
 691              		.cfi_def_cfa_offset 16
 692              		.cfi_offset 4, -16
 693              		.cfi_offset 5, -12
 694              		.cfi_offset 6, -8
 695              		.cfi_offset 14, -4
 696 0008 0446     		mov	r4, r0
 188:..\common\Modules\RingBuffer/RingBuffer.c ****    
 697              		.loc 1 188 0 discriminator 4
 698 000a 13B9     		cbnz	r3, .L71
 699              	.LVL78:
 700              	.L61:
 188:..\common\Modules\RingBuffer/RingBuffer.c ****    
 701              		.loc 1 188 0 is_stmt 0
 702 000c 4FF0FF30 		mov	r0, #-1
 703 0010 70BD     		pop	{r4, r5, r6, pc}
 704              	.LVL79:
 705              	.L71:
 706 0012 1546     		mov	r5, r2
 707 0014 0E46     		mov	r6, r1
 191:..\common\Modules\RingBuffer/RingBuffer.c ****         //return with an error
 708              		.loc 1 191 0 is_stmt 1
 709 0016 FFF7FEFF 		bl	RingBuffer_getDataCount
 710              	.LVL80:
 711 001a A842     		cmp	r0, r5
 712 001c F6D3     		bcc	.L61
 198:..\common\Modules\RingBuffer/RingBuffer.c ****     
 713              		.loc 1 198 0
 714 001e 6369     		ldr	r3, [r4, #20]
 715 0020 E268     		ldr	r2, [r4, #12]
 716 0022 2B44     		add	r3, r3, r5
 717 0024 9342     		cmp	r3, r2
 718 0026 F1D8     		bhi	.L61
 201:..\common\Modules\RingBuffer/RingBuffer.c ****     
ARM GAS  C:\Users\chemi\AppData\Local\Temp\ccwvslza.s 			page 21


 719              		.loc 1 201 0
 720 0028 FFF7FEFF 		bl	vTaskEnterCritical
 721              	.LVL81:
 204:..\common\Modules\RingBuffer/RingBuffer.c ****     
 722              		.loc 1 204 0
 723 002c 2369     		ldr	r3, [r4, #16]
 724 002e 6269     		ldr	r2, [r4, #20]
 725 0030 6168     		ldr	r1, [r4, #4]
 726 0032 01FB0233 		mla	r3, r1, r2, r3
 727 0036 3360     		str	r3, [r6]
 209:..\common\Modules\RingBuffer/RingBuffer.c ****     if(buffer->readIndex == buffer->dataCountLimited) buffer->readIndex = 0;
 728              		.loc 1 209 0
 729 0038 6369     		ldr	r3, [r4, #20]
 730 003a 2B44     		add	r3, r3, r5
 731 003c 6361     		str	r3, [r4, #20]
 210:..\common\Modules\RingBuffer/RingBuffer.c ****     
 732              		.loc 1 210 0
 733 003e 6269     		ldr	r2, [r4, #20]
 734 0040 E368     		ldr	r3, [r4, #12]
 735 0042 9A42     		cmp	r2, r3
 736 0044 04BF     		itt	eq
 737 0046 0023     		moveq	r3, #0
 738 0048 6361     		streq	r3, [r4, #20]
 213:..\common\Modules\RingBuffer/RingBuffer.c ****     
 739              		.loc 1 213 0
 740 004a FFF7FEFF 		bl	vTaskExitCritical
 741              	.LVL82:
 215:..\common\Modules\RingBuffer/RingBuffer.c **** }
 742              		.loc 1 215 0
 743 004e 2846     		mov	r0, r5
 216:..\common\Modules\RingBuffer/RingBuffer.c **** 
 744              		.loc 1 216 0
 745 0050 70BD     		pop	{r4, r5, r6, pc}
 746              	.LVL83:
 747              	.L70:
 748              		.cfi_def_cfa_offset 0
 749              		.cfi_restore 4
 750              		.cfi_restore 5
 751              		.cfi_restore 6
 752              		.cfi_restore 14
 188:..\common\Modules\RingBuffer/RingBuffer.c ****    
 753              		.loc 1 188 0
 754 0052 4FF0FF30 		mov	r0, #-1
 755              	.LVL84:
 216:..\common\Modules\RingBuffer/RingBuffer.c **** 
 756              		.loc 1 216 0
 757 0056 7047     		bx	lr
 758              		.cfi_endproc
 759              	.LFE76:
 760              		.size	RingBuffer_readBufferPointer, .-RingBuffer_readBufferPointer
 761              		.section	.text.RingBuffer_peek,"ax",%progbits
 762              		.align	1
 763              		.global	RingBuffer_peek
 764              		.thumb
 765              		.thumb_func
 766              		.type	RingBuffer_peek, %function
 767              	RingBuffer_peek:
ARM GAS  C:\Users\chemi\AppData\Local\Temp\ccwvslza.s 			page 22


 768              	.LFB77:
 219:..\common\Modules\RingBuffer/RingBuffer.c ****     if(buffer == NULL || dst == NULL || buffer->memSize == 0) return -1;
 769              		.loc 1 219 0
 770              		.cfi_startproc
 771              		@ args = 0, pretend = 0, frame = 0
 772              		@ frame_needed = 0, uses_anonymous_args = 0
 773              	.LVL85:
 220:..\common\Modules\RingBuffer/RingBuffer.c ****     
 774              		.loc 1 220 0
 775 0000 0028     		cmp	r0, #0
 776 0002 3AD0     		beq	.L87
 220:..\common\Modules\RingBuffer/RingBuffer.c ****     
 777              		.loc 1 220 0 is_stmt 0 discriminator 2
 778 0004 0029     		cmp	r1, #0
 779 0006 38D0     		beq	.L87
 219:..\common\Modules\RingBuffer/RingBuffer.c ****     if(buffer == NULL || dst == NULL || buffer->memSize == 0) return -1;
 780              		.loc 1 219 0 is_stmt 1 discriminator 4
 781 0008 2DE9F041 		push	{r4, r5, r6, r7, r8, lr}
 782              		.cfi_def_cfa_offset 24
 783              		.cfi_offset 4, -24
 784              		.cfi_offset 5, -20
 785              		.cfi_offset 6, -16
 786              		.cfi_offset 7, -12
 787              		.cfi_offset 8, -8
 788              		.cfi_offset 14, -4
 220:..\common\Modules\RingBuffer/RingBuffer.c ****     
 789              		.loc 1 220 0 discriminator 4
 790 000c 0468     		ldr	r4, [r0]
 791 000e 0546     		mov	r5, r0
 792 0010 1CB9     		cbnz	r4, .L88
 793              	.LVL86:
 794              	.L75:
 220:..\common\Modules\RingBuffer/RingBuffer.c ****     
 795              		.loc 1 220 0 is_stmt 0
 796 0012 4FF0FF30 		mov	r0, #-1
 797 0016 BDE8F081 		pop	{r4, r5, r6, r7, r8, pc}
 798              	.LVL87:
 799              	.L88:
 800 001a 1446     		mov	r4, r2
 801 001c 1E46     		mov	r6, r3
 802 001e 8846     		mov	r8, r1
 223:..\common\Modules\RingBuffer/RingBuffer.c ****     if(index+1 > currDataCount) return -1;
 803              		.loc 1 223 0 is_stmt 1
 804 0020 FFF7FEFF 		bl	RingBuffer_getDataCount
 805              	.LVL88:
 224:..\common\Modules\RingBuffer/RingBuffer.c ****     
 806              		.loc 1 224 0
 807 0024 631C     		adds	r3, r4, #1
 808 0026 8342     		cmp	r3, r0
 809 0028 F3D8     		bhi	.L75
 227:..\common\Modules\RingBuffer/RingBuffer.c ****     
 810              		.loc 1 227 0
 811 002a 001B     		subs	r0, r0, r4
 812              	.LVL89:
 813 002c 8642     		cmp	r6, r0
 814 002e 28BF     		it	cs
 815 0030 0646     		movcs	r6, r0
ARM GAS  C:\Users\chemi\AppData\Local\Temp\ccwvslza.s 			page 23


 816              	.LVL90:
 230:..\common\Modules\RingBuffer/RingBuffer.c ****     
 817              		.loc 1 230 0
 818 0032 FFF7FEFF 		bl	vTaskEnterCritical
 819              	.LVL91:
 233:..\common\Modules\RingBuffer/RingBuffer.c ****     if(currIndex >= buffer->dataCountLimited){ 
 820              		.loc 1 233 0
 821 0036 6A69     		ldr	r2, [r5, #20]
 234:..\common\Modules\RingBuffer/RingBuffer.c ****         currIndex -= buffer->dataCountLimited;
 822              		.loc 1 234 0
 823 0038 EB68     		ldr	r3, [r5, #12]
 233:..\common\Modules\RingBuffer/RingBuffer.c ****     if(currIndex >= buffer->dataCountLimited){ 
 824              		.loc 1 233 0
 825 003a 1444     		add	r4, r4, r2
 826              	.LVL92:
 234:..\common\Modules\RingBuffer/RingBuffer.c ****         currIndex -= buffer->dataCountLimited;
 827              		.loc 1 234 0
 828 003c 9C42     		cmp	r4, r3
 235:..\common\Modules\RingBuffer/RingBuffer.c ****     }
 829              		.loc 1 235 0
 830 003e 28BF     		it	cs
 831 0040 EB68     		ldrcs	r3, [r5, #12]
 832              	.LBB5:
 250:..\common\Modules\RingBuffer/RingBuffer.c ****     }
 833              		.loc 1 250 0
 834 0042 4FF00007 		mov	r7, #0
 835              	.LBE5:
 235:..\common\Modules\RingBuffer/RingBuffer.c ****     }
 836              		.loc 1 235 0
 837 0046 28BF     		it	cs
 838 0048 E41A     		subcs	r4, r4, r3
 839              	.LVL93:
 840              	.L77:
 239:..\common\Modules\RingBuffer/RingBuffer.c ****         //Calculate the pointer from the current index. This is potentially a bit shady? Idk (TODO 
 841              		.loc 1 239 0
 842 004a BE42     		cmp	r6, r7
 843 004c 10D0     		beq	.L89
 844              	.LBB6:
 241:..\common\Modules\RingBuffer/RingBuffer.c ****         void* srcPtr = (void*) ((char*) buffer->mem + currIndex * buffer->dataSize);
 845              		.loc 1 241 0
 846 004e 6868     		ldr	r0, [r5, #4]
 847              	.LVL94:
 242:..\common\Modules\RingBuffer/RingBuffer.c **** 
 848              		.loc 1 242 0
 849 0050 2B69     		ldr	r3, [r5, #16]
 850 0052 6968     		ldr	r1, [r5, #4]
 851              	.LVL95:
 245:..\common\Modules\RingBuffer/RingBuffer.c ****         
 852              		.loc 1 245 0
 853 0054 00FB0780 		mla	r0, r0, r7, r8
 854              	.LVL96:
 855 0058 01FB0431 		mla	r1, r1, r4, r3
 856              	.LVL97:
 857 005c 6A68     		ldr	r2, [r5, #4]
 858 005e FFF7FEFF 		bl	memcpy
 859              	.LVL98:
 250:..\common\Modules\RingBuffer/RingBuffer.c ****     }
ARM GAS  C:\Users\chemi\AppData\Local\Temp\ccwvslza.s 			page 24


 860              		.loc 1 250 0
 861 0062 EB68     		ldr	r3, [r5, #12]
 249:..\common\Modules\RingBuffer/RingBuffer.c ****         if(currIndex >= buffer->dataCountLimited) currIndex = 0;
 862              		.loc 1 249 0
 863 0064 0134     		adds	r4, r4, #1
 864              	.LVL99:
 248:..\common\Modules\RingBuffer/RingBuffer.c ****         currIndex++;
 865              		.loc 1 248 0
 866 0066 0137     		adds	r7, r7, #1
 867              	.LVL100:
 250:..\common\Modules\RingBuffer/RingBuffer.c ****     }
 868              		.loc 1 250 0
 869 0068 9C42     		cmp	r4, r3
 870 006a 28BF     		it	cs
 871 006c 0024     		movcs	r4, #0
 872              	.LVL101:
 873 006e ECE7     		b	.L77
 874              	.LVL102:
 875              	.L89:
 876              	.LBE6:
 256:..\common\Modules\RingBuffer/RingBuffer.c ****     
 877              		.loc 1 256 0
 878 0070 FFF7FEFF 		bl	vTaskExitCritical
 879              	.LVL103:
 258:..\common\Modules\RingBuffer/RingBuffer.c **** }
 880              		.loc 1 258 0
 881 0074 3046     		mov	r0, r6
 259:..\common\Modules\RingBuffer/RingBuffer.c **** 
 882              		.loc 1 259 0
 883 0076 BDE8F081 		pop	{r4, r5, r6, r7, r8, pc}
 884              	.LVL104:
 885              	.L87:
 886              		.cfi_def_cfa_offset 0
 887              		.cfi_restore 4
 888              		.cfi_restore 5
 889              		.cfi_restore 6
 890              		.cfi_restore 7
 891              		.cfi_restore 8
 892              		.cfi_restore 14
 220:..\common\Modules\RingBuffer/RingBuffer.c ****     
 893              		.loc 1 220 0
 894 007a 4FF0FF30 		mov	r0, #-1
 895              	.LVL105:
 259:..\common\Modules\RingBuffer/RingBuffer.c **** 
 896              		.loc 1 259 0
 897 007e 7047     		bx	lr
 898              		.cfi_endproc
 899              	.LFE77:
 900              		.size	RingBuffer_peek, .-RingBuffer_peek
 901              		.section	.text.RingBuffer_readFromISR,"ax",%progbits
 902              		.align	1
 903              		.global	RingBuffer_readFromISR
 904              		.thumb
 905              		.thumb_func
 906              		.type	RingBuffer_readFromISR, %function
 907              	RingBuffer_readFromISR:
 908              	.LFB78:
ARM GAS  C:\Users\chemi\AppData\Local\Temp\ccwvslza.s 			page 25


 261:..\common\Modules\RingBuffer/RingBuffer.c ****     if(buffer == NULL || dst == NULL || buffer->memSize == 0) return -1;
 909              		.loc 1 261 0
 910              		.cfi_startproc
 911              		@ args = 0, pretend = 0, frame = 0
 912              		@ frame_needed = 0, uses_anonymous_args = 0
 913              	.LVL106:
 262:..\common\Modules\RingBuffer/RingBuffer.c ****    
 914              		.loc 1 262 0
 915 0000 40B3     		cbz	r0, .L104
 262:..\common\Modules\RingBuffer/RingBuffer.c ****    
 916              		.loc 1 262 0 is_stmt 0 discriminator 2
 917 0002 39B3     		cbz	r1, .L104
 262:..\common\Modules\RingBuffer/RingBuffer.c ****    
 918              		.loc 1 262 0 discriminator 4
 919 0004 0368     		ldr	r3, [r0]
 261:..\common\Modules\RingBuffer/RingBuffer.c ****     if(buffer == NULL || dst == NULL || buffer->memSize == 0) return -1;
 920              		.loc 1 261 0 is_stmt 1 discriminator 4
 921 0006 2DE9F041 		push	{r4, r5, r6, r7, r8, lr}
 922              		.cfi_def_cfa_offset 24
 923              		.cfi_offset 4, -24
 924              		.cfi_offset 5, -20
 925              		.cfi_offset 6, -16
 926              		.cfi_offset 7, -12
 927              		.cfi_offset 8, -8
 928              		.cfi_offset 14, -4
 929 000a 0446     		mov	r4, r0
 262:..\common\Modules\RingBuffer/RingBuffer.c ****    
 930              		.loc 1 262 0 discriminator 4
 931 000c 1BB9     		cbnz	r3, .L105
 932              	.LVL107:
 933              	.L93:
 262:..\common\Modules\RingBuffer/RingBuffer.c ****    
 934              		.loc 1 262 0 is_stmt 0
 935 000e 4FF0FF30 		mov	r0, #-1
 936 0012 BDE8F081 		pop	{r4, r5, r6, r7, r8, pc}
 937              	.LVL108:
 938              	.L105:
 939 0016 1546     		mov	r5, r2
 940 0018 8846     		mov	r8, r1
 265:..\common\Modules\RingBuffer/RingBuffer.c ****         //return with an error
 941              		.loc 1 265 0 is_stmt 1
 942 001a FFF7FEFF 		bl	RingBuffer_getDataCount
 943              	.LVL109:
 944 001e A842     		cmp	r0, r5
 945 0020 F5DB     		blt	.L93
 271:..\common\Modules\RingBuffer/RingBuffer.c ****     uint32_t currItem = 0;
 946              		.loc 1 271 0
 947 0022 6669     		ldr	r6, [r4, #20]
 948              	.LVL110:
 272:..\common\Modules\RingBuffer/RingBuffer.c ****     
 949              		.loc 1 272 0
 950 0024 0027     		movs	r7, #0
 951              	.LVL111:
 952              	.L94:
 274:..\common\Modules\RingBuffer/RingBuffer.c ****         //Calculate the pointer from the current index. This is potentially a bit shady? Idk (TODO 
 953              		.loc 1 274 0
 954 0026 AF42     		cmp	r7, r5
ARM GAS  C:\Users\chemi\AppData\Local\Temp\ccwvslza.s 			page 26


 955 0028 10D2     		bcs	.L106
 956              	.LBB7:
 276:..\common\Modules\RingBuffer/RingBuffer.c ****         void* srcPtr = (void*) ((char*) buffer->mem + currIndex * buffer->dataSize);
 957              		.loc 1 276 0
 958 002a 6068     		ldr	r0, [r4, #4]
 959              	.LVL112:
 277:..\common\Modules\RingBuffer/RingBuffer.c **** 
 960              		.loc 1 277 0
 961 002c 2369     		ldr	r3, [r4, #16]
 962 002e 6168     		ldr	r1, [r4, #4]
 963              	.LVL113:
 280:..\common\Modules\RingBuffer/RingBuffer.c ****         
 964              		.loc 1 280 0
 965 0030 00FB0780 		mla	r0, r0, r7, r8
 966              	.LVL114:
 967 0034 01FB0631 		mla	r1, r1, r6, r3
 968              	.LVL115:
 969 0038 6268     		ldr	r2, [r4, #4]
 970 003a FFF7FEFF 		bl	memcpy
 971              	.LVL116:
 285:..\common\Modules\RingBuffer/RingBuffer.c ****     }
 972              		.loc 1 285 0
 973 003e E368     		ldr	r3, [r4, #12]
 284:..\common\Modules\RingBuffer/RingBuffer.c ****         if(currIndex >= buffer->dataCountLimited) currIndex = 0;
 974              		.loc 1 284 0
 975 0040 0136     		adds	r6, r6, #1
 976              	.LVL117:
 283:..\common\Modules\RingBuffer/RingBuffer.c ****         currIndex++;
 977              		.loc 1 283 0
 978 0042 0137     		adds	r7, r7, #1
 979              	.LVL118:
 285:..\common\Modules\RingBuffer/RingBuffer.c ****     }
 980              		.loc 1 285 0
 981 0044 9E42     		cmp	r6, r3
 982 0046 28BF     		it	cs
 983 0048 0026     		movcs	r6, #0
 984              	.LVL119:
 985 004a ECE7     		b	.L94
 986              	.LVL120:
 987              	.L106:
 988              	.LBE7:
 289:..\common\Modules\RingBuffer/RingBuffer.c ****     
 989              		.loc 1 289 0
 990 004c 6661     		str	r6, [r4, #20]
 291:..\common\Modules\RingBuffer/RingBuffer.c **** }
 991              		.loc 1 291 0
 992 004e 2846     		mov	r0, r5
 292:..\common\Modules\RingBuffer/RingBuffer.c **** 
 993              		.loc 1 292 0
 994 0050 BDE8F081 		pop	{r4, r5, r6, r7, r8, pc}
 995              	.LVL121:
 996              	.L104:
 997              		.cfi_def_cfa_offset 0
 998              		.cfi_restore 4
 999              		.cfi_restore 5
 1000              		.cfi_restore 6
 1001              		.cfi_restore 7
ARM GAS  C:\Users\chemi\AppData\Local\Temp\ccwvslza.s 			page 27


 1002              		.cfi_restore 8
 1003              		.cfi_restore 14
 262:..\common\Modules\RingBuffer/RingBuffer.c ****    
 1004              		.loc 1 262 0
 1005 0054 4FF0FF30 		mov	r0, #-1
 1006              	.LVL122:
 292:..\common\Modules\RingBuffer/RingBuffer.c **** 
 1007              		.loc 1 292 0
 1008 0058 7047     		bx	lr
 1009              		.cfi_endproc
 1010              	.LFE78:
 1011              		.size	RingBuffer_readFromISR, .-RingBuffer_readFromISR
 1012              		.section	.text.RingBuffer_getSpaceCount,"ax",%progbits
 1013              		.align	1
 1014              		.global	RingBuffer_getSpaceCount
 1015              		.thumb
 1016              		.thumb_func
 1017              		.type	RingBuffer_getSpaceCount, %function
 1018              	RingBuffer_getSpaceCount:
 1019              	.LFB85:
 336:..\common\Modules\RingBuffer/RingBuffer.c **** 
 337:..\common\Modules\RingBuffer/RingBuffer.c **** int32_t RingBuffer_getSpaceCount(RingBuffer_t * buffer){
 1020              		.loc 1 337 0
 1021              		.cfi_startproc
 1022              		@ args = 0, pretend = 0, frame = 0
 1023              		@ frame_needed = 0, uses_anonymous_args = 0
 1024              		@ link register save eliminated.
 1025              	.LVL123:
 338:..\common\Modules\RingBuffer/RingBuffer.c ****     int32_t dataCount = buffer->readIndex - buffer->writeIndex - 1;
 1026              		.loc 1 338 0
 1027 0000 4369     		ldr	r3, [r0, #20]
 1028 0002 C269     		ldr	r2, [r0, #28]
 1029 0004 9B1A     		subs	r3, r3, r2
 1030              	.LVL124:
 339:..\common\Modules\RingBuffer/RingBuffer.c ****     if(dataCount < 0) dataCount += buffer->dataCountLimited;
 1031              		.loc 1 339 0
 1032 0006 013B     		subs	r3, r3, #1
 1033              	.LVL125:
 1034 0008 44BF     		itt	mi
 1035 000a C268     		ldrmi	r2, [r0, #12]
 1036 000c 9B18     		addmi	r3, r3, r2
 1037              	.LVL126:
 340:..\common\Modules\RingBuffer/RingBuffer.c ****     return dataCount;
 341:..\common\Modules\RingBuffer/RingBuffer.c **** }
 1038              		.loc 1 341 0
 1039 000e 1846     		mov	r0, r3
 1040              	.LVL127:
 1041 0010 7047     		bx	lr
 1042              		.cfi_endproc
 1043              	.LFE85:
 1044              		.size	RingBuffer_getSpaceCount, .-RingBuffer_getSpaceCount
 1045              		.section	.text.RingBuffer_writeFromISR,"ax",%progbits
 1046              		.align	1
 1047              		.global	RingBuffer_writeFromISR
 1048              		.thumb
 1049              		.thumb_func
 1050              		.type	RingBuffer_writeFromISR, %function
ARM GAS  C:\Users\chemi\AppData\Local\Temp\ccwvslza.s 			page 28


 1051              	RingBuffer_writeFromISR:
 1052              	.LFB73:
 112:..\common\Modules\RingBuffer/RingBuffer.c ****     if(buffer == NULL || src == NULL) return -1;
 1053              		.loc 1 112 0
 1054              		.cfi_startproc
 1055              		@ args = 0, pretend = 0, frame = 0
 1056              		@ frame_needed = 0, uses_anonymous_args = 0
 1057              	.LVL128:
 113:..\common\Modules\RingBuffer/RingBuffer.c ****     
 1058              		.loc 1 113 0
 1059 0000 98B1     		cbz	r0, .L119
 113:..\common\Modules\RingBuffer/RingBuffer.c ****     
 1060              		.loc 1 113 0 is_stmt 0 discriminator 2
 1061 0002 91B1     		cbz	r1, .L119
 112:..\common\Modules\RingBuffer/RingBuffer.c ****     if(buffer == NULL || src == NULL) return -1;
 1062              		.loc 1 112 0 is_stmt 1
 1063 0004 70B5     		push	{r4, r5, r6, lr}
 1064              		.cfi_def_cfa_offset 16
 1065              		.cfi_offset 4, -16
 1066              		.cfi_offset 5, -12
 1067              		.cfi_offset 6, -8
 1068              		.cfi_offset 14, -4
 1069 0006 0646     		mov	r6, r0
 1070 0008 1D46     		mov	r5, r3
 1071 000a 1446     		mov	r4, r2
 116:..\common\Modules\RingBuffer/RingBuffer.c ****         //nope there isn't, return with an error
 1072              		.loc 1 116 0
 1073 000c 33B1     		cbz	r3, .L113
 1074              	.LVL129:
 1075              	.L114:
 122:..\common\Modules\RingBuffer/RingBuffer.c **** }
 1076              		.loc 1 122 0
 1077 000e 2B46     		mov	r3, r5
 1078 0010 2246     		mov	r2, r4
 1079 0012 3046     		mov	r0, r6
 123:..\common\Modules\RingBuffer/RingBuffer.c **** 
 1080              		.loc 1 123 0
 1081 0014 BDE87040 		pop	{r4, r5, r6, lr}
 1082              		.cfi_remember_state
 1083              		.cfi_restore 14
 1084              		.cfi_restore 6
 1085              		.cfi_restore 5
 1086              		.cfi_restore 4
 1087              		.cfi_def_cfa_offset 0
 1088              	.LVL130:
 122:..\common\Modules\RingBuffer/RingBuffer.c **** }
 1089              		.loc 1 122 0
 1090 0018 FFF7FEBF 		b	RingBuffer_writeToBuffer
 1091              	.LVL131:
 1092              	.L113:
 1093              		.cfi_restore_state
 116:..\common\Modules\RingBuffer/RingBuffer.c ****         //nope there isn't, return with an error
 1094              		.loc 1 116 0 discriminator 1
 1095 001c FFF7FEFF 		bl	RingBuffer_getSpaceCount
 1096              	.LVL132:
 1097 0020 A042     		cmp	r0, r4
 1098 0022 F4DA     		bge	.L114
ARM GAS  C:\Users\chemi\AppData\Local\Temp\ccwvslza.s 			page 29


 123:..\common\Modules\RingBuffer/RingBuffer.c **** 
 1099              		.loc 1 123 0
 1100 0024 4FF0FF30 		mov	r0, #-1
 1101 0028 70BD     		pop	{r4, r5, r6, pc}
 1102              	.LVL133:
 1103              	.L119:
 1104              		.cfi_def_cfa_offset 0
 1105              		.cfi_restore 4
 1106              		.cfi_restore 5
 1107              		.cfi_restore 6
 1108              		.cfi_restore 14
 1109 002a 4FF0FF30 		mov	r0, #-1
 1110              	.LVL134:
 1111 002e 7047     		bx	lr
 1112              		.cfi_endproc
 1113              	.LFE73:
 1114              		.size	RingBuffer_writeFromISR, .-RingBuffer_writeFromISR
 1115              		.section	.text.RingBuffer_write,"ax",%progbits
 1116              		.align	1
 1117              		.global	RingBuffer_write
 1118              		.thumb
 1119              		.thumb_func
 1120              		.type	RingBuffer_write, %function
 1121              	RingBuffer_write:
 1122              	.LFB74:
 125:..\common\Modules\RingBuffer/RingBuffer.c ****     if(buffer == NULL || src == NULL) return -1;
 1123              		.loc 1 125 0
 1124              		.cfi_startproc
 1125              		@ args = 0, pretend = 0, frame = 0
 1126              		@ frame_needed = 0, uses_anonymous_args = 0
 1127              	.LVL135:
 126:..\common\Modules\RingBuffer/RingBuffer.c ****     
 1128              		.loc 1 126 0
 1129 0000 D0B1     		cbz	r0, .L130
 126:..\common\Modules\RingBuffer/RingBuffer.c ****     
 1130              		.loc 1 126 0 is_stmt 0 discriminator 2
 1131 0002 C9B1     		cbz	r1, .L130
 125:..\common\Modules\RingBuffer/RingBuffer.c ****     if(buffer == NULL || src == NULL) return -1;
 1132              		.loc 1 125 0 is_stmt 1
 1133 0004 F8B5     		push	{r3, r4, r5, r6, r7, lr}
 1134              		.cfi_def_cfa_offset 24
 1135              		.cfi_offset 3, -24
 1136              		.cfi_offset 4, -20
 1137              		.cfi_offset 5, -16
 1138              		.cfi_offset 6, -12
 1139              		.cfi_offset 7, -8
 1140              		.cfi_offset 14, -4
 1141 0006 0746     		mov	r7, r0
 1142 0008 1E46     		mov	r6, r3
 1143 000a 1446     		mov	r4, r2
 1144 000c 0D46     		mov	r5, r1
 129:..\common\Modules\RingBuffer/RingBuffer.c ****         //nope there isn't, return with an error
 1145              		.loc 1 129 0
 1146 000e 63B1     		cbz	r3, .L124
 1147              	.LVL136:
 1148              	.L125:
 136:..\common\Modules\RingBuffer/RingBuffer.c ****     
ARM GAS  C:\Users\chemi\AppData\Local\Temp\ccwvslza.s 			page 30


 1149              		.loc 1 136 0
 1150 0010 FFF7FEFF 		bl	vPortEnterCritical
 1151              	.LVL137:
 138:..\common\Modules\RingBuffer/RingBuffer.c ****     
 1152              		.loc 1 138 0
 1153 0014 2246     		mov	r2, r4
 1154 0016 3346     		mov	r3, r6
 1155 0018 2946     		mov	r1, r5
 1156 001a 3846     		mov	r0, r7
 1157 001c FFF7FEFF 		bl	RingBuffer_writeToBuffer
 1158              	.LVL138:
 1159 0020 0446     		mov	r4, r0
 1160              	.LVL139:
 141:..\common\Modules\RingBuffer/RingBuffer.c ****     
 1161              		.loc 1 141 0
 1162 0022 FFF7FEFF 		bl	vPortExitCritical
 1163              	.LVL140:
 143:..\common\Modules\RingBuffer/RingBuffer.c **** }
 1164              		.loc 1 143 0
 1165 0026 2046     		mov	r0, r4
 1166 0028 F8BD     		pop	{r3, r4, r5, r6, r7, pc}
 1167              	.LVL141:
 1168              	.L124:
 129:..\common\Modules\RingBuffer/RingBuffer.c ****         //nope there isn't, return with an error
 1169              		.loc 1 129 0 discriminator 1
 1170 002a FFF7FEFF 		bl	RingBuffer_getSpaceCount
 1171              	.LVL142:
 1172 002e A042     		cmp	r0, r4
 1173 0030 EEDA     		bge	.L125
 126:..\common\Modules\RingBuffer/RingBuffer.c ****     
 1174              		.loc 1 126 0
 1175 0032 4FF0FF30 		mov	r0, #-1
 1176 0036 F8BD     		pop	{r3, r4, r5, r6, r7, pc}
 1177              	.LVL143:
 1178              	.L130:
 1179              		.cfi_def_cfa_offset 0
 1180              		.cfi_restore 3
 1181              		.cfi_restore 4
 1182              		.cfi_restore 5
 1183              		.cfi_restore 6
 1184              		.cfi_restore 7
 1185              		.cfi_restore 14
 1186 0038 4FF0FF30 		mov	r0, #-1
 1187              	.LVL144:
 144:..\common\Modules\RingBuffer/RingBuffer.c **** 
 1188              		.loc 1 144 0
 1189 003c 7047     		bx	lr
 1190              		.cfi_endproc
 1191              	.LFE74:
 1192              		.size	RingBuffer_write, .-RingBuffer_write
 1193              		.text
 1194              	.Letext0:
 1195              		.file 2 "c:\\program files (x86)\\cypress\\psoc creator\\4.4\\psoc creator\\import\\gnu\\arm\\5.4.
 1196              		.file 3 "c:\\program files (x86)\\cypress\\psoc creator\\4.4\\psoc creator\\import\\gnu\\arm\\5.4.
 1197              		.file 4 "..\\common\\Modules\\RingBuffer\\include/RingBuffer.h"
 1198              		.file 5 "..\\common\\rtos\\include/portable.h"
 1199              		.file 6 "..\\common\\rtos\\portable\\GCC\\ARM_CM3/portmacro.h"
ARM GAS  C:\Users\chemi\AppData\Local\Temp\ccwvslza.s 			page 31


 1200              		.file 7 "Generated_Source\\PSoC5/core_cm3.h"