ARM GAS  C:\Users\chemi\AppData\Local\Temp\cc7LUjKT.s 			page 1


   1              		.syntax unified
   2              		.cpu cortex-m3
   3              		.fpu softvfp
   4              		.eabi_attribute 20, 1
   5              		.eabi_attribute 21, 1
   6              		.eabi_attribute 23, 3
   7              		.eabi_attribute 24, 1
   8              		.eabi_attribute 25, 1
   9              		.eabi_attribute 26, 1
  10              		.eabi_attribute 30, 4
  11              		.eabi_attribute 34, 1
  12              		.eabi_attribute 18, 4
  13              		.thumb
  14              		.syntax unified
  15              		.file	"Sample_Hold_1_PM.c"
  16              		.text
  17              	.Ltext0:
  18              		.cfi_sections	.debug_frame
  19              		.section	.text.Sample_Hold_1_SaveConfig,"ax",%progbits
  20              		.align	1
  21              		.global	Sample_Hold_1_SaveConfig
  22              		.thumb
  23              		.thumb_func
  24              		.type	Sample_Hold_1_SaveConfig, %function
  25              	Sample_Hold_1_SaveConfig:
  26              	.LFB5:
  27              		.cfi_startproc
  28              		@ args = 0, pretend = 0, frame = 0
  29              		@ frame_needed = 0, uses_anonymous_args = 0
  30              		@ link register save eliminated.
  31 0000 7047     		bx	lr
  32              		.cfi_endproc
  33              	.LFE5:
  34              		.size	Sample_Hold_1_SaveConfig, .-Sample_Hold_1_SaveConfig
  35              		.section	.text.Sample_Hold_1_RestoreConfig,"ax",%progbits
  36              		.align	1
  37              		.global	Sample_Hold_1_RestoreConfig
  38              		.thumb
  39              		.thumb_func
  40              		.type	Sample_Hold_1_RestoreConfig, %function
  41              	Sample_Hold_1_RestoreConfig:
  42              	.LFB1:
  43              		.file 1 "Generated_Source\\PSoC5\\Sample_Hold_1_PM.c"
   1:Generated_Source\PSoC5/Sample_Hold_1_PM.c **** /*******************************************************************************
   2:Generated_Source\PSoC5/Sample_Hold_1_PM.c **** * File Name: Sample_Hold_1.c
   3:Generated_Source\PSoC5/Sample_Hold_1_PM.c **** * Version 1.40
   4:Generated_Source\PSoC5/Sample_Hold_1_PM.c **** *
   5:Generated_Source\PSoC5/Sample_Hold_1_PM.c **** * Description:
   6:Generated_Source\PSoC5/Sample_Hold_1_PM.c **** *  This file provides the power manager source code to the API for 
   7:Generated_Source\PSoC5/Sample_Hold_1_PM.c **** *  the SAMPLE/TRACK AND HOLD component.
   8:Generated_Source\PSoC5/Sample_Hold_1_PM.c **** *
   9:Generated_Source\PSoC5/Sample_Hold_1_PM.c **** * Note:
  10:Generated_Source\PSoC5/Sample_Hold_1_PM.c **** *  None
  11:Generated_Source\PSoC5/Sample_Hold_1_PM.c **** *
  12:Generated_Source\PSoC5/Sample_Hold_1_PM.c **** ********************************************************************************
  13:Generated_Source\PSoC5/Sample_Hold_1_PM.c **** * Copyright 2008-2012, Cypress Semiconductor Corporation.  All rights reserved.
  14:Generated_Source\PSoC5/Sample_Hold_1_PM.c **** * You may use this file only in accordance with the license, terms, conditions, 
ARM GAS  C:\Users\chemi\AppData\Local\Temp\cc7LUjKT.s 			page 2


  15:Generated_Source\PSoC5/Sample_Hold_1_PM.c **** * disclaimers, and limitations in the end user license agreement accompanying 
  16:Generated_Source\PSoC5/Sample_Hold_1_PM.c **** * the software package with which this file was provided.
  17:Generated_Source\PSoC5/Sample_Hold_1_PM.c **** *******************************************************************************/
  18:Generated_Source\PSoC5/Sample_Hold_1_PM.c **** 
  19:Generated_Source\PSoC5/Sample_Hold_1_PM.c **** #include "Sample_Hold_1.h"
  20:Generated_Source\PSoC5/Sample_Hold_1_PM.c **** 
  21:Generated_Source\PSoC5/Sample_Hold_1_PM.c **** static Sample_Hold_1_backupStruct  Sample_Hold_1_backup;
  22:Generated_Source\PSoC5/Sample_Hold_1_PM.c **** 
  23:Generated_Source\PSoC5/Sample_Hold_1_PM.c **** 
  24:Generated_Source\PSoC5/Sample_Hold_1_PM.c **** /*******************************************************************************
  25:Generated_Source\PSoC5/Sample_Hold_1_PM.c **** * Function Name: Sample_Hold_1_SaveConfig
  26:Generated_Source\PSoC5/Sample_Hold_1_PM.c **** ********************************************************************************
  27:Generated_Source\PSoC5/Sample_Hold_1_PM.c **** *
  28:Generated_Source\PSoC5/Sample_Hold_1_PM.c **** * Summary:
  29:Generated_Source\PSoC5/Sample_Hold_1_PM.c **** *  Saves the current user configuration.
  30:Generated_Source\PSoC5/Sample_Hold_1_PM.c **** *  
  31:Generated_Source\PSoC5/Sample_Hold_1_PM.c **** * Parameters:  
  32:Generated_Source\PSoC5/Sample_Hold_1_PM.c **** *  void.
  33:Generated_Source\PSoC5/Sample_Hold_1_PM.c **** *
  34:Generated_Source\PSoC5/Sample_Hold_1_PM.c **** * Return: 
  35:Generated_Source\PSoC5/Sample_Hold_1_PM.c **** *  void.
  36:Generated_Source\PSoC5/Sample_Hold_1_PM.c **** *
  37:Generated_Source\PSoC5/Sample_Hold_1_PM.c **** *******************************************************************************/
  38:Generated_Source\PSoC5/Sample_Hold_1_PM.c **** void Sample_Hold_1_SaveConfig(void) 
  39:Generated_Source\PSoC5/Sample_Hold_1_PM.c **** {
  40:Generated_Source\PSoC5/Sample_Hold_1_PM.c ****     /* Nothing to save before entering into sleep mode as all the registers used 
  41:Generated_Source\PSoC5/Sample_Hold_1_PM.c ****        here are retention registers. */
  42:Generated_Source\PSoC5/Sample_Hold_1_PM.c **** }
  43:Generated_Source\PSoC5/Sample_Hold_1_PM.c **** 
  44:Generated_Source\PSoC5/Sample_Hold_1_PM.c **** 
  45:Generated_Source\PSoC5/Sample_Hold_1_PM.c **** /*******************************************************************************
  46:Generated_Source\PSoC5/Sample_Hold_1_PM.c **** * Function Name: Sample_Hold_1_RestoreConfig
  47:Generated_Source\PSoC5/Sample_Hold_1_PM.c **** ********************************************************************************
  48:Generated_Source\PSoC5/Sample_Hold_1_PM.c **** *
  49:Generated_Source\PSoC5/Sample_Hold_1_PM.c **** * Summary:
  50:Generated_Source\PSoC5/Sample_Hold_1_PM.c **** *  Restores the current user configuration.
  51:Generated_Source\PSoC5/Sample_Hold_1_PM.c **** *
  52:Generated_Source\PSoC5/Sample_Hold_1_PM.c **** * Parameters:  
  53:Generated_Source\PSoC5/Sample_Hold_1_PM.c **** *  void.
  54:Generated_Source\PSoC5/Sample_Hold_1_PM.c **** *
  55:Generated_Source\PSoC5/Sample_Hold_1_PM.c **** * Return: 
  56:Generated_Source\PSoC5/Sample_Hold_1_PM.c **** *  void
  57:Generated_Source\PSoC5/Sample_Hold_1_PM.c **** *
  58:Generated_Source\PSoC5/Sample_Hold_1_PM.c **** *******************************************************************************/
  59:Generated_Source\PSoC5/Sample_Hold_1_PM.c **** void Sample_Hold_1_RestoreConfig(void) 
  60:Generated_Source\PSoC5/Sample_Hold_1_PM.c **** {
  44              		.loc 1 60 0
  45              		.cfi_startproc
  46              		@ args = 0, pretend = 0, frame = 0
  47              		@ frame_needed = 0, uses_anonymous_args = 0
  48              		@ link register save eliminated.
  49 0000 7047     		bx	lr
  50              		.cfi_endproc
  51              	.LFE1:
  52              		.size	Sample_Hold_1_RestoreConfig, .-Sample_Hold_1_RestoreConfig
  53              		.section	.text.Sample_Hold_1_Sleep,"ax",%progbits
  54              		.align	1
ARM GAS  C:\Users\chemi\AppData\Local\Temp\cc7LUjKT.s 			page 3


  55              		.global	Sample_Hold_1_Sleep
  56              		.thumb
  57              		.thumb_func
  58              		.type	Sample_Hold_1_Sleep, %function
  59              	Sample_Hold_1_Sleep:
  60              	.LFB2:
  61:Generated_Source\PSoC5/Sample_Hold_1_PM.c ****     /* Nothing to restore */
  62:Generated_Source\PSoC5/Sample_Hold_1_PM.c **** }
  63:Generated_Source\PSoC5/Sample_Hold_1_PM.c **** 
  64:Generated_Source\PSoC5/Sample_Hold_1_PM.c **** 
  65:Generated_Source\PSoC5/Sample_Hold_1_PM.c **** /*******************************************************************************
  66:Generated_Source\PSoC5/Sample_Hold_1_PM.c **** * Function Name: Sample_Hold_1_Sleep
  67:Generated_Source\PSoC5/Sample_Hold_1_PM.c **** ********************************************************************************
  68:Generated_Source\PSoC5/Sample_Hold_1_PM.c **** *
  69:Generated_Source\PSoC5/Sample_Hold_1_PM.c **** * Summary:
  70:Generated_Source\PSoC5/Sample_Hold_1_PM.c **** *  Disables block's operation and saves its configuration. Should be called 
  71:Generated_Source\PSoC5/Sample_Hold_1_PM.c **** *  just prior to entering sleep.
  72:Generated_Source\PSoC5/Sample_Hold_1_PM.c **** *  
  73:Generated_Source\PSoC5/Sample_Hold_1_PM.c **** * Parameters:  
  74:Generated_Source\PSoC5/Sample_Hold_1_PM.c **** *  None
  75:Generated_Source\PSoC5/Sample_Hold_1_PM.c **** *
  76:Generated_Source\PSoC5/Sample_Hold_1_PM.c **** * Return: 
  77:Generated_Source\PSoC5/Sample_Hold_1_PM.c **** *  None
  78:Generated_Source\PSoC5/Sample_Hold_1_PM.c **** *
  79:Generated_Source\PSoC5/Sample_Hold_1_PM.c **** * Global variables:
  80:Generated_Source\PSoC5/Sample_Hold_1_PM.c **** *  Sample_Hold_1_backup:  The structure field 'enableState' is modified 
  81:Generated_Source\PSoC5/Sample_Hold_1_PM.c **** *  depending on the enable state of the block before entering to sleep mode.
  82:Generated_Source\PSoC5/Sample_Hold_1_PM.c **** *
  83:Generated_Source\PSoC5/Sample_Hold_1_PM.c **** *******************************************************************************/
  84:Generated_Source\PSoC5/Sample_Hold_1_PM.c **** void Sample_Hold_1_Sleep(void) 
  85:Generated_Source\PSoC5/Sample_Hold_1_PM.c **** {
  61              		.loc 1 85 0
  62              		.cfi_startproc
  63              		@ args = 0, pretend = 0, frame = 0
  64              		@ frame_needed = 0, uses_anonymous_args = 0
  65              		@ link register save eliminated.
  86:Generated_Source\PSoC5/Sample_Hold_1_PM.c ****     /* Save TIA enable state */
  87:Generated_Source\PSoC5/Sample_Hold_1_PM.c ****     if((Sample_Hold_1_PM_ACT_CFG_REG & Sample_Hold_1_ACT_PWR_EN) != 0u)
  66              		.loc 1 87 0
  67 0000 064B     		ldr	r3, .L6
  68 0002 074A     		ldr	r2, .L6+4
  69 0004 1B78     		ldrb	r3, [r3]	@ zero_extendqisi2
  70 0006 03F00203 		and	r3, r3, #2
  71 000a 03F0FF01 		and	r1, r3, #255
  72 000e 1BB1     		cbz	r3, .L4
  88:Generated_Source\PSoC5/Sample_Hold_1_PM.c ****     {
  89:Generated_Source\PSoC5/Sample_Hold_1_PM.c ****         /* Component is enabled */
  90:Generated_Source\PSoC5/Sample_Hold_1_PM.c ****         Sample_Hold_1_backup.enableState = 1u;
  73              		.loc 1 90 0
  74 0010 0123     		movs	r3, #1
  75 0012 1370     		strb	r3, [r2]
  91:Generated_Source\PSoC5/Sample_Hold_1_PM.c ****         /* Stop the configuration */
  92:Generated_Source\PSoC5/Sample_Hold_1_PM.c ****         Sample_Hold_1_Stop();
  76              		.loc 1 92 0
  77 0014 FFF7FEBF 		b	Sample_Hold_1_Stop
  78              	.LVL0:
  79              	.L4:
ARM GAS  C:\Users\chemi\AppData\Local\Temp\cc7LUjKT.s 			page 4


  93:Generated_Source\PSoC5/Sample_Hold_1_PM.c ****     }
  94:Generated_Source\PSoC5/Sample_Hold_1_PM.c ****     else
  95:Generated_Source\PSoC5/Sample_Hold_1_PM.c ****     {
  96:Generated_Source\PSoC5/Sample_Hold_1_PM.c ****         /* Component is disabled */
  97:Generated_Source\PSoC5/Sample_Hold_1_PM.c ****         Sample_Hold_1_backup.enableState = 0u;
  80              		.loc 1 97 0
  81 0018 1170     		strb	r1, [r2]
  82 001a 7047     		bx	lr
  83              	.L7:
  84              		.align	2
  85              	.L6:
  86 001c A9430040 		.word	1073759145
  87 0020 00000000 		.word	.LANCHOR0
  88              		.cfi_endproc
  89              	.LFE2:
  90              		.size	Sample_Hold_1_Sleep, .-Sample_Hold_1_Sleep
  91              		.section	.text.Sample_Hold_1_Wakeup,"ax",%progbits
  92              		.align	1
  93              		.global	Sample_Hold_1_Wakeup
  94              		.thumb
  95              		.thumb_func
  96              		.type	Sample_Hold_1_Wakeup, %function
  97              	Sample_Hold_1_Wakeup:
  98              	.LFB3:
  98:Generated_Source\PSoC5/Sample_Hold_1_PM.c ****     }
  99:Generated_Source\PSoC5/Sample_Hold_1_PM.c ****     /* Saves the user configuration */
 100:Generated_Source\PSoC5/Sample_Hold_1_PM.c ****     Sample_Hold_1_SaveConfig();
 101:Generated_Source\PSoC5/Sample_Hold_1_PM.c **** }
 102:Generated_Source\PSoC5/Sample_Hold_1_PM.c **** 
 103:Generated_Source\PSoC5/Sample_Hold_1_PM.c **** 
 104:Generated_Source\PSoC5/Sample_Hold_1_PM.c **** /*******************************************************************************
 105:Generated_Source\PSoC5/Sample_Hold_1_PM.c **** * Function Name: Sample_Hold_1_Wakeup
 106:Generated_Source\PSoC5/Sample_Hold_1_PM.c **** ********************************************************************************
 107:Generated_Source\PSoC5/Sample_Hold_1_PM.c **** *
 108:Generated_Source\PSoC5/Sample_Hold_1_PM.c **** * Summary:
 109:Generated_Source\PSoC5/Sample_Hold_1_PM.c **** *  Enables block's operation and restores its configuration. Should be called
 110:Generated_Source\PSoC5/Sample_Hold_1_PM.c **** *  just after awaking from sleep.
 111:Generated_Source\PSoC5/Sample_Hold_1_PM.c **** *  
 112:Generated_Source\PSoC5/Sample_Hold_1_PM.c **** * Parameters:  
 113:Generated_Source\PSoC5/Sample_Hold_1_PM.c **** *  None
 114:Generated_Source\PSoC5/Sample_Hold_1_PM.c **** *
 115:Generated_Source\PSoC5/Sample_Hold_1_PM.c **** * Return: 
 116:Generated_Source\PSoC5/Sample_Hold_1_PM.c **** *  void
 117:Generated_Source\PSoC5/Sample_Hold_1_PM.c **** *
 118:Generated_Source\PSoC5/Sample_Hold_1_PM.c **** * Global variables:
 119:Generated_Source\PSoC5/Sample_Hold_1_PM.c **** *  Sample_Hold_1_backup:  The structure field 'enableState' is used to 
 120:Generated_Source\PSoC5/Sample_Hold_1_PM.c **** *  restore the enable state of block after wakeup from sleep mode.
 121:Generated_Source\PSoC5/Sample_Hold_1_PM.c **** *
 122:Generated_Source\PSoC5/Sample_Hold_1_PM.c **** *******************************************************************************/
 123:Generated_Source\PSoC5/Sample_Hold_1_PM.c **** void Sample_Hold_1_Wakeup(void) 
 124:Generated_Source\PSoC5/Sample_Hold_1_PM.c **** {
  99              		.loc 1 124 0
 100              		.cfi_startproc
 101              		@ args = 0, pretend = 0, frame = 0
 102              		@ frame_needed = 0, uses_anonymous_args = 0
 103              		@ link register save eliminated.
 125:Generated_Source\PSoC5/Sample_Hold_1_PM.c ****     /* Restore the user configuration */
ARM GAS  C:\Users\chemi\AppData\Local\Temp\cc7LUjKT.s 			page 5


 126:Generated_Source\PSoC5/Sample_Hold_1_PM.c ****     Sample_Hold_1_RestoreConfig();
 127:Generated_Source\PSoC5/Sample_Hold_1_PM.c ****     
 128:Generated_Source\PSoC5/Sample_Hold_1_PM.c ****     /* Enable's the component operation */
 129:Generated_Source\PSoC5/Sample_Hold_1_PM.c ****     if(Sample_Hold_1_backup.enableState == 1u)
 104              		.loc 1 129 0
 105 0000 034B     		ldr	r3, .L10
 106 0002 1B78     		ldrb	r3, [r3]	@ zero_extendqisi2
 107 0004 012B     		cmp	r3, #1
 108 0006 01D1     		bne	.L8
 130:Generated_Source\PSoC5/Sample_Hold_1_PM.c ****     {
 131:Generated_Source\PSoC5/Sample_Hold_1_PM.c ****         Sample_Hold_1_Enable();
 109              		.loc 1 131 0
 110 0008 FFF7FEBF 		b	Sample_Hold_1_Enable
 111              	.LVL1:
 112              	.L8:
 113 000c 7047     		bx	lr
 114              	.L11:
 115 000e 00BF     		.align	2
 116              	.L10:
 117 0010 00000000 		.word	.LANCHOR0
 118              		.cfi_endproc
 119              	.LFE3:
 120              		.size	Sample_Hold_1_Wakeup, .-Sample_Hold_1_Wakeup
 121              		.bss
 122              		.set	.LANCHOR0,. + 0
 123              		.type	Sample_Hold_1_backup, %object
 124              		.size	Sample_Hold_1_backup, 4
 125              	Sample_Hold_1_backup:
 126 0000 00000000 		.space	4
 127              		.text
 128              	.Letext0:
 129              		.file 2 "Generated_Source\\PSoC5\\cytypes.h"
 130              		.file 3 "Generated_Source\\PSoC5\\Sample_Hold_1.h"