ARM GAS  C:\Users\chemi\AppData\Local\Temp\cc9aswBM.s 			page 1


   1              		.syntax unified
   2              		.cpu cortex-m3
   3              		.fpu softvfp
   4              		.eabi_attribute 20, 1
   5              		.eabi_attribute 21, 1
   6              		.eabi_attribute 23, 3
   7              		.eabi_attribute 24, 1
   8              		.eabi_attribute 25, 1
   9              		.eabi_attribute 26, 1
  10              		.eabi_attribute 30, 4
  11              		.eabi_attribute 34, 1
  12              		.eabi_attribute 18, 4
  13              		.thumb
  14              		.syntax unified
  15              		.file	"Sample_Hold_1.c"
  16              		.text
  17              	.Ltext0:
  18              		.cfi_sections	.debug_frame
  19              		.section	.text.Sample_Hold_1_Enable,"ax",%progbits
  20              		.align	1
  21              		.global	Sample_Hold_1_Enable
  22              		.thumb
  23              		.thumb_func
  24              		.type	Sample_Hold_1_Enable, %function
  25              	Sample_Hold_1_Enable:
  26              	.LFB1:
  27              		.file 1 "Generated_Source\\PSoC5\\Sample_Hold_1.c"
   1:Generated_Source\PSoC5/Sample_Hold_1.c **** /*******************************************************************************
   2:Generated_Source\PSoC5/Sample_Hold_1.c **** * File Name: Sample_Hold_1.c
   3:Generated_Source\PSoC5/Sample_Hold_1.c **** * Version 1.40
   4:Generated_Source\PSoC5/Sample_Hold_1.c **** *
   5:Generated_Source\PSoC5/Sample_Hold_1.c **** * Description:
   6:Generated_Source\PSoC5/Sample_Hold_1.c **** *  This file provides the source code to the API for the SAMPLE/TRACK AND HOLD 
   7:Generated_Source\PSoC5/Sample_Hold_1.c **** *  component.
   8:Generated_Source\PSoC5/Sample_Hold_1.c **** *
   9:Generated_Source\PSoC5/Sample_Hold_1.c **** * Note:
  10:Generated_Source\PSoC5/Sample_Hold_1.c **** *  None
  11:Generated_Source\PSoC5/Sample_Hold_1.c **** *
  12:Generated_Source\PSoC5/Sample_Hold_1.c **** ********************************************************************************
  13:Generated_Source\PSoC5/Sample_Hold_1.c **** * Copyright 2008-2012, Cypress Semiconductor Corporation.  All rights reserved.
  14:Generated_Source\PSoC5/Sample_Hold_1.c **** * You may use this file only in accordance with the license, terms, conditions, 
  15:Generated_Source\PSoC5/Sample_Hold_1.c **** * disclaimers, and limitations in the end user license agreement accompanying 
  16:Generated_Source\PSoC5/Sample_Hold_1.c **** * the software package with which this file was provided.
  17:Generated_Source\PSoC5/Sample_Hold_1.c **** *******************************************************************************/
  18:Generated_Source\PSoC5/Sample_Hold_1.c **** 
  19:Generated_Source\PSoC5/Sample_Hold_1.c **** #include "Sample_Hold_1.h"
  20:Generated_Source\PSoC5/Sample_Hold_1.c **** 
  21:Generated_Source\PSoC5/Sample_Hold_1.c **** #if (!CY_PSOC5A)
  22:Generated_Source\PSoC5/Sample_Hold_1.c ****     #if (CYDEV_VARIABLE_VDDA == 1u)
  23:Generated_Source\PSoC5/Sample_Hold_1.c ****         #include "CyScBoostClk.h"
  24:Generated_Source\PSoC5/Sample_Hold_1.c ****     #endif /* (CYDEV_VARIABLE_VDDA == 1u) */
  25:Generated_Source\PSoC5/Sample_Hold_1.c **** #endif /* (!CY_PSOC5A) */
  26:Generated_Source\PSoC5/Sample_Hold_1.c **** 
  27:Generated_Source\PSoC5/Sample_Hold_1.c **** uint8 Sample_Hold_1_initVar = 0u;
  28:Generated_Source\PSoC5/Sample_Hold_1.c **** 
  29:Generated_Source\PSoC5/Sample_Hold_1.c **** /* static Sample_Hold_1_backupStruct  Sample_Hold_1_backup; */
  30:Generated_Source\PSoC5/Sample_Hold_1.c **** #if (CY_PSOC5A)
ARM GAS  C:\Users\chemi\AppData\Local\Temp\cc9aswBM.s 			page 2


  31:Generated_Source\PSoC5/Sample_Hold_1.c ****     static Sample_Hold_1_backupStruct  Sample_Hold_1_P5backup;
  32:Generated_Source\PSoC5/Sample_Hold_1.c **** #endif /* CY_PSOC5A */
  33:Generated_Source\PSoC5/Sample_Hold_1.c **** 
  34:Generated_Source\PSoC5/Sample_Hold_1.c **** 
  35:Generated_Source\PSoC5/Sample_Hold_1.c **** 
  36:Generated_Source\PSoC5/Sample_Hold_1.c **** /*******************************************************************************   
  37:Generated_Source\PSoC5/Sample_Hold_1.c **** * Function Name: Sample_Hold_1_Init
  38:Generated_Source\PSoC5/Sample_Hold_1.c **** ********************************************************************************
  39:Generated_Source\PSoC5/Sample_Hold_1.c **** *
  40:Generated_Source\PSoC5/Sample_Hold_1.c **** * Summary:
  41:Generated_Source\PSoC5/Sample_Hold_1.c **** *  Initialize component's parameters to the parameters set by user in the 
  42:Generated_Source\PSoC5/Sample_Hold_1.c **** *  customizer of the component placed onto schematic. Usually called in 
  43:Generated_Source\PSoC5/Sample_Hold_1.c **** *  Sample_Hold_1_Start().
  44:Generated_Source\PSoC5/Sample_Hold_1.c **** *
  45:Generated_Source\PSoC5/Sample_Hold_1.c **** * Parameters:
  46:Generated_Source\PSoC5/Sample_Hold_1.c **** *  void
  47:Generated_Source\PSoC5/Sample_Hold_1.c **** *
  48:Generated_Source\PSoC5/Sample_Hold_1.c **** * Return:
  49:Generated_Source\PSoC5/Sample_Hold_1.c **** *  void
  50:Generated_Source\PSoC5/Sample_Hold_1.c **** *
  51:Generated_Source\PSoC5/Sample_Hold_1.c **** *******************************************************************************/
  52:Generated_Source\PSoC5/Sample_Hold_1.c **** void Sample_Hold_1_Init(void) 
  53:Generated_Source\PSoC5/Sample_Hold_1.c **** {   
  54:Generated_Source\PSoC5/Sample_Hold_1.c ****     /* Configure SC Block based on selected Sample/Track type */
  55:Generated_Source\PSoC5/Sample_Hold_1.c ****     #if (Sample_Hold_1_SAMPLE_TRACK_MODE == Sample_Hold_1_SAMPLEANDHOLD) /* Sample and hold mode */
  56:Generated_Source\PSoC5/Sample_Hold_1.c ****         /* SC Block mode -  - SCxx_CR0[3:1] */
  57:Generated_Source\PSoC5/Sample_Hold_1.c ****         Sample_Hold_1_CR0_REG = Sample_Hold_1_MODE_SAMPLEANDHOLD;
  58:Generated_Source\PSoC5/Sample_Hold_1.c ****         
  59:Generated_Source\PSoC5/Sample_Hold_1.c ****         /* SC Block CR1 */ 
  60:Generated_Source\PSoC5/Sample_Hold_1.c ****         Sample_Hold_1_CR1_REG = (Sample_Hold_1_COMP_4P35PF  |
  61:Generated_Source\PSoC5/Sample_Hold_1.c ****                                 Sample_Hold_1_GAIN_0DB);
  62:Generated_Source\PSoC5/Sample_Hold_1.c ****         #if(Sample_Hold_1_SAMPLE_CLOCK_EDGE == Sample_Hold_1_EDGE_POSITIVENEGATIVE)
  63:Generated_Source\PSoC5/Sample_Hold_1.c ****             Sample_Hold_1_CR1_REG =  Sample_Hold_1_CR1_REG  | Sample_Hold_1_DIV2_DISABLE ;
  64:Generated_Source\PSoC5/Sample_Hold_1.c ****         #else
  65:Generated_Source\PSoC5/Sample_Hold_1.c ****             Sample_Hold_1_CR1_REG =  Sample_Hold_1_CR1_REG  | Sample_Hold_1_DIV2_ENABLE ;
  66:Generated_Source\PSoC5/Sample_Hold_1.c ****         #endif
  67:Generated_Source\PSoC5/Sample_Hold_1.c ****          
  68:Generated_Source\PSoC5/Sample_Hold_1.c ****         #if(Sample_Hold_1_VREF_TYPE == Sample_Hold_1_EXTERNAL)
  69:Generated_Source\PSoC5/Sample_Hold_1.c ****             Sample_Hold_1_CR2_REG = Sample_Hold_1_BIAS_LOW |
  70:Generated_Source\PSoC5/Sample_Hold_1.c ****                                        Sample_Hold_1_REDC_00 | 
  71:Generated_Source\PSoC5/Sample_Hold_1.c ****                                        Sample_Hold_1_GNDVREF_DI;
  72:Generated_Source\PSoC5/Sample_Hold_1.c ****         #else
  73:Generated_Source\PSoC5/Sample_Hold_1.c ****             Sample_Hold_1_CR2_REG = Sample_Hold_1_BIAS_LOW |
  74:Generated_Source\PSoC5/Sample_Hold_1.c ****                                        Sample_Hold_1_REDC_00 | 
  75:Generated_Source\PSoC5/Sample_Hold_1.c ****                                        Sample_Hold_1_GNDVREF_E;
  76:Generated_Source\PSoC5/Sample_Hold_1.c ****         #endif
  77:Generated_Source\PSoC5/Sample_Hold_1.c ****     #else
  78:Generated_Source\PSoC5/Sample_Hold_1.c ****         /* Track and Hold Mode */
  79:Generated_Source\PSoC5/Sample_Hold_1.c ****         /* SC Block mode -  - SCxx_CR0[3:1] */
  80:Generated_Source\PSoC5/Sample_Hold_1.c ****         Sample_Hold_1_CR0_REG = Sample_Hold_1_MODE_TRACKANDHOLD; 
  81:Generated_Source\PSoC5/Sample_Hold_1.c ****         
  82:Generated_Source\PSoC5/Sample_Hold_1.c ****         /* SC Block CR1 */ 
  83:Generated_Source\PSoC5/Sample_Hold_1.c ****         Sample_Hold_1_CR1_REG = Sample_Hold_1_COMP_4P35PF  |
  84:Generated_Source\PSoC5/Sample_Hold_1.c ****                                    Sample_Hold_1_DIV2_ENABLE |
  85:Generated_Source\PSoC5/Sample_Hold_1.c ****                                    Sample_Hold_1_GAIN_0DB;
  86:Generated_Source\PSoC5/Sample_Hold_1.c ****                                 
  87:Generated_Source\PSoC5/Sample_Hold_1.c ****         /* SC Block CR2 */
ARM GAS  C:\Users\chemi\AppData\Local\Temp\cc9aswBM.s 			page 3


  88:Generated_Source\PSoC5/Sample_Hold_1.c ****         Sample_Hold_1_CR2_REG = Sample_Hold_1_BIAS_LOW |
  89:Generated_Source\PSoC5/Sample_Hold_1.c ****                                    Sample_Hold_1_REDC_00 |
  90:Generated_Source\PSoC5/Sample_Hold_1.c ****                                    Sample_Hold_1_GNDVREF_E;
  91:Generated_Source\PSoC5/Sample_Hold_1.c ****     #endif /* end if - Sample/Track Type */
  92:Generated_Source\PSoC5/Sample_Hold_1.c ****     
  93:Generated_Source\PSoC5/Sample_Hold_1.c ****     /* Enable SC Block clocking */
  94:Generated_Source\PSoC5/Sample_Hold_1.c ****     Sample_Hold_1_CLK_REG |= Sample_Hold_1_CLK_EN;
  95:Generated_Source\PSoC5/Sample_Hold_1.c ****     
  96:Generated_Source\PSoC5/Sample_Hold_1.c ****     /* Set default power */
  97:Generated_Source\PSoC5/Sample_Hold_1.c ****     Sample_Hold_1_SetPower(Sample_Hold_1_INIT_POWER);
  98:Generated_Source\PSoC5/Sample_Hold_1.c **** }
  99:Generated_Source\PSoC5/Sample_Hold_1.c **** 
 100:Generated_Source\PSoC5/Sample_Hold_1.c **** 
 101:Generated_Source\PSoC5/Sample_Hold_1.c **** /*******************************************************************************   
 102:Generated_Source\PSoC5/Sample_Hold_1.c **** * Function Name: Sample_Hold_1_Enable
 103:Generated_Source\PSoC5/Sample_Hold_1.c **** ********************************************************************************
 104:Generated_Source\PSoC5/Sample_Hold_1.c **** *
 105:Generated_Source\PSoC5/Sample_Hold_1.c **** * Summary:
 106:Generated_Source\PSoC5/Sample_Hold_1.c **** *  Enables the Sample/Track and Hold block operation
 107:Generated_Source\PSoC5/Sample_Hold_1.c **** *
 108:Generated_Source\PSoC5/Sample_Hold_1.c **** * Parameters:
 109:Generated_Source\PSoC5/Sample_Hold_1.c **** *  void
 110:Generated_Source\PSoC5/Sample_Hold_1.c **** *
 111:Generated_Source\PSoC5/Sample_Hold_1.c **** * Return:
 112:Generated_Source\PSoC5/Sample_Hold_1.c **** *  void
 113:Generated_Source\PSoC5/Sample_Hold_1.c **** *
 114:Generated_Source\PSoC5/Sample_Hold_1.c **** *******************************************************************************/
 115:Generated_Source\PSoC5/Sample_Hold_1.c **** void Sample_Hold_1_Enable(void) 
 116:Generated_Source\PSoC5/Sample_Hold_1.c **** {
  28              		.loc 1 116 0
  29              		.cfi_startproc
  30              		@ args = 0, pretend = 0, frame = 0
  31              		@ frame_needed = 0, uses_anonymous_args = 0
  32              		@ link register save eliminated.
 117:Generated_Source\PSoC5/Sample_Hold_1.c ****     /* This is to restore the value of register CR1 and CR2 which is saved 
 118:Generated_Source\PSoC5/Sample_Hold_1.c ****       in prior to the modifications in stop() API */
 119:Generated_Source\PSoC5/Sample_Hold_1.c ****     #if (CY_PSOC5A)
 120:Generated_Source\PSoC5/Sample_Hold_1.c ****         if(Sample_Hold_1_P5backup.enableState == 1u)
 121:Generated_Source\PSoC5/Sample_Hold_1.c ****         {
 122:Generated_Source\PSoC5/Sample_Hold_1.c ****             Sample_Hold_1_CR1_REG = Sample_Hold_1_P5backup.scCR1Reg;
 123:Generated_Source\PSoC5/Sample_Hold_1.c ****             Sample_Hold_1_CR2_REG = Sample_Hold_1_P5backup.scCR2Reg;
 124:Generated_Source\PSoC5/Sample_Hold_1.c ****             Sample_Hold_1_P5backup.enableState = 0u;
 125:Generated_Source\PSoC5/Sample_Hold_1.c ****         }
 126:Generated_Source\PSoC5/Sample_Hold_1.c ****     #endif /* CY_PSOC5A */
 127:Generated_Source\PSoC5/Sample_Hold_1.c ****     
 128:Generated_Source\PSoC5/Sample_Hold_1.c ****     /* Enable power to SC block in active mode */
 129:Generated_Source\PSoC5/Sample_Hold_1.c ****     Sample_Hold_1_PM_ACT_CFG_REG |= Sample_Hold_1_ACT_PWR_EN;
  33              		.loc 1 129 0
  34 0000 084A     		ldr	r2, .L2
  35 0002 1378     		ldrb	r3, [r2]	@ zero_extendqisi2
  36 0004 43F00203 		orr	r3, r3, #2
  37 0008 1370     		strb	r3, [r2]
 130:Generated_Source\PSoC5/Sample_Hold_1.c ****     
 131:Generated_Source\PSoC5/Sample_Hold_1.c ****     /* Enable power to SC block in Alternative active mode */
 132:Generated_Source\PSoC5/Sample_Hold_1.c ****     Sample_Hold_1_PM_STBY_CFG_REG |= Sample_Hold_1_STBY_PWR_EN;
  38              		.loc 1 132 0
  39 000a 137C     		ldrb	r3, [r2, #16]	@ zero_extendqisi2
ARM GAS  C:\Users\chemi\AppData\Local\Temp\cc9aswBM.s 			page 4


  40 000c 43F00203 		orr	r3, r3, #2
  41 0010 1374     		strb	r3, [r2, #16]
 133:Generated_Source\PSoC5/Sample_Hold_1.c **** 
 134:Generated_Source\PSoC5/Sample_Hold_1.c ****     Sample_Hold_1_PUMP_CR1_REG |= Sample_Hold_1_PUMP_CR1_SC_CLKSEL;
  42              		.loc 1 134 0
  43 0012 02F5A652 		add	r2, r2, #5312
  44 0016 0E32     		adds	r2, r2, #14
  45 0018 1378     		ldrb	r3, [r2]	@ zero_extendqisi2
  46 001a 43F08003 		orr	r3, r3, #128
  47 001e 1370     		strb	r3, [r2]
  48 0020 7047     		bx	lr
  49              	.L3:
  50 0022 00BF     		.align	2
  51              	.L2:
  52 0024 A9430040 		.word	1073759145
  53              		.cfi_endproc
  54              	.LFE1:
  55              		.size	Sample_Hold_1_Enable, .-Sample_Hold_1_Enable
  56              		.section	.text.Sample_Hold_1_Stop,"ax",%progbits
  57              		.align	1
  58              		.global	Sample_Hold_1_Stop
  59              		.thumb
  60              		.thumb_func
  61              		.type	Sample_Hold_1_Stop, %function
  62              	Sample_Hold_1_Stop:
  63              	.LFB3:
 135:Generated_Source\PSoC5/Sample_Hold_1.c ****     
 136:Generated_Source\PSoC5/Sample_Hold_1.c ****     #if (!CY_PSOC5A)
 137:Generated_Source\PSoC5/Sample_Hold_1.c ****         #if (CYDEV_VARIABLE_VDDA == 1u)
 138:Generated_Source\PSoC5/Sample_Hold_1.c ****             if(CyScPumpEnabled == 1u)
 139:Generated_Source\PSoC5/Sample_Hold_1.c ****             {
 140:Generated_Source\PSoC5/Sample_Hold_1.c ****                 Sample_Hold_1_BSTCLK_REG &= (uint8)(~Sample_Hold_1_BST_CLK_INDEX_MASK);
 141:Generated_Source\PSoC5/Sample_Hold_1.c ****                 Sample_Hold_1_BSTCLK_REG |= Sample_Hold_1_BST_CLK_EN | CyScBoostClk__INDEX;
 142:Generated_Source\PSoC5/Sample_Hold_1.c ****                 Sample_Hold_1_SC_MISC_REG |= Sample_Hold_1_PUMP_FORCE;
 143:Generated_Source\PSoC5/Sample_Hold_1.c ****                 CyScBoostClk_Start();
 144:Generated_Source\PSoC5/Sample_Hold_1.c ****             }
 145:Generated_Source\PSoC5/Sample_Hold_1.c ****             else
 146:Generated_Source\PSoC5/Sample_Hold_1.c ****             {
 147:Generated_Source\PSoC5/Sample_Hold_1.c ****                 Sample_Hold_1_BSTCLK_REG &= (uint8)(~Sample_Hold_1_BST_CLK_EN);
 148:Generated_Source\PSoC5/Sample_Hold_1.c ****                 Sample_Hold_1_SC_MISC_REG &= (uint8)(~Sample_Hold_1_PUMP_FORCE);
 149:Generated_Source\PSoC5/Sample_Hold_1.c ****             }
 150:Generated_Source\PSoC5/Sample_Hold_1.c ****         #endif /* (CYDEV_VARIABLE_VDDA == 1u) */
 151:Generated_Source\PSoC5/Sample_Hold_1.c ****     #endif /* (!CY_PSOC5A) */
 152:Generated_Source\PSoC5/Sample_Hold_1.c **** }
 153:Generated_Source\PSoC5/Sample_Hold_1.c **** 
 154:Generated_Source\PSoC5/Sample_Hold_1.c **** 
 155:Generated_Source\PSoC5/Sample_Hold_1.c **** /*******************************************************************************
 156:Generated_Source\PSoC5/Sample_Hold_1.c **** * Function Name: Sample_Hold_1_Start
 157:Generated_Source\PSoC5/Sample_Hold_1.c **** ********************************************************************************
 158:Generated_Source\PSoC5/Sample_Hold_1.c **** *
 159:Generated_Source\PSoC5/Sample_Hold_1.c **** * Summary:
 160:Generated_Source\PSoC5/Sample_Hold_1.c **** *  The start function initializes the Sample and Hold with the default values, 
 161:Generated_Source\PSoC5/Sample_Hold_1.c **** *  and sets the power to the given level.  A power level of 0, is the same as 
 162:Generated_Source\PSoC5/Sample_Hold_1.c **** *  executing the stop function.
 163:Generated_Source\PSoC5/Sample_Hold_1.c **** *
 164:Generated_Source\PSoC5/Sample_Hold_1.c **** * Parameters:
 165:Generated_Source\PSoC5/Sample_Hold_1.c **** *  void
ARM GAS  C:\Users\chemi\AppData\Local\Temp\cc9aswBM.s 			page 5


 166:Generated_Source\PSoC5/Sample_Hold_1.c **** *
 167:Generated_Source\PSoC5/Sample_Hold_1.c **** * Return:
 168:Generated_Source\PSoC5/Sample_Hold_1.c **** *  void
 169:Generated_Source\PSoC5/Sample_Hold_1.c **** *
 170:Generated_Source\PSoC5/Sample_Hold_1.c **** *******************************************************************************/
 171:Generated_Source\PSoC5/Sample_Hold_1.c **** void Sample_Hold_1_Start(void) 
 172:Generated_Source\PSoC5/Sample_Hold_1.c **** {
 173:Generated_Source\PSoC5/Sample_Hold_1.c ****     /* If not Initialized then initialize all required hardware and software */
 174:Generated_Source\PSoC5/Sample_Hold_1.c ****     if(Sample_Hold_1_initVar == 0u)
 175:Generated_Source\PSoC5/Sample_Hold_1.c ****     {
 176:Generated_Source\PSoC5/Sample_Hold_1.c ****         Sample_Hold_1_Init();
 177:Generated_Source\PSoC5/Sample_Hold_1.c ****         Sample_Hold_1_initVar = 1u;
 178:Generated_Source\PSoC5/Sample_Hold_1.c ****     }
 179:Generated_Source\PSoC5/Sample_Hold_1.c ****     Sample_Hold_1_Enable();
 180:Generated_Source\PSoC5/Sample_Hold_1.c **** }
 181:Generated_Source\PSoC5/Sample_Hold_1.c **** 
 182:Generated_Source\PSoC5/Sample_Hold_1.c **** 
 183:Generated_Source\PSoC5/Sample_Hold_1.c **** /*******************************************************************************
 184:Generated_Source\PSoC5/Sample_Hold_1.c **** * Function Name: Sample_Hold_1_Stop
 185:Generated_Source\PSoC5/Sample_Hold_1.c **** ********************************************************************************
 186:Generated_Source\PSoC5/Sample_Hold_1.c **** *
 187:Generated_Source\PSoC5/Sample_Hold_1.c **** * Summary:
 188:Generated_Source\PSoC5/Sample_Hold_1.c **** *  Powers down amplifier to lowest power state.
 189:Generated_Source\PSoC5/Sample_Hold_1.c **** *
 190:Generated_Source\PSoC5/Sample_Hold_1.c **** * Parameters:
 191:Generated_Source\PSoC5/Sample_Hold_1.c **** *  void
 192:Generated_Source\PSoC5/Sample_Hold_1.c **** *
 193:Generated_Source\PSoC5/Sample_Hold_1.c **** * Return:
 194:Generated_Source\PSoC5/Sample_Hold_1.c **** *  void
 195:Generated_Source\PSoC5/Sample_Hold_1.c **** *
 196:Generated_Source\PSoC5/Sample_Hold_1.c **** *******************************************************************************/
 197:Generated_Source\PSoC5/Sample_Hold_1.c **** void Sample_Hold_1_Stop(void) 
 198:Generated_Source\PSoC5/Sample_Hold_1.c **** {   
  64              		.loc 1 198 0
  65              		.cfi_startproc
  66              		@ args = 0, pretend = 0, frame = 0
  67              		@ frame_needed = 0, uses_anonymous_args = 0
  68              		@ link register save eliminated.
 199:Generated_Source\PSoC5/Sample_Hold_1.c ****     /* Disble power to the Amp in Active mode template */
 200:Generated_Source\PSoC5/Sample_Hold_1.c ****     Sample_Hold_1_PM_ACT_CFG_REG &= (uint8)(~Sample_Hold_1_ACT_PWR_EN);
  69              		.loc 1 200 0
  70 0000 044A     		ldr	r2, .L5
  71 0002 1378     		ldrb	r3, [r2]	@ zero_extendqisi2
  72 0004 03F0FD03 		and	r3, r3, #253
  73 0008 1370     		strb	r3, [r2]
 201:Generated_Source\PSoC5/Sample_Hold_1.c **** 
 202:Generated_Source\PSoC5/Sample_Hold_1.c ****     /* Disble power to the Amp in Alternative Active mode template */
 203:Generated_Source\PSoC5/Sample_Hold_1.c ****     Sample_Hold_1_PM_STBY_CFG_REG &= (uint8)(~Sample_Hold_1_STBY_PWR_EN);
  74              		.loc 1 203 0
  75 000a 137C     		ldrb	r3, [r2, #16]	@ zero_extendqisi2
  76 000c 03F0FD03 		and	r3, r3, #253
  77 0010 1374     		strb	r3, [r2, #16]
  78 0012 7047     		bx	lr
  79              	.L6:
  80              		.align	2
  81              	.L5:
  82 0014 A9430040 		.word	1073759145
ARM GAS  C:\Users\chemi\AppData\Local\Temp\cc9aswBM.s 			page 6


  83              		.cfi_endproc
  84              	.LFE3:
  85              		.size	Sample_Hold_1_Stop, .-Sample_Hold_1_Stop
  86              		.section	.text.Sample_Hold_1_SetPower,"ax",%progbits
  87              		.align	1
  88              		.global	Sample_Hold_1_SetPower
  89              		.thumb
  90              		.thumb_func
  91              		.type	Sample_Hold_1_SetPower, %function
  92              	Sample_Hold_1_SetPower:
  93              	.LFB4:
 204:Generated_Source\PSoC5/Sample_Hold_1.c ****     
 205:Generated_Source\PSoC5/Sample_Hold_1.c ****     #if (!CY_PSOC5A)
 206:Generated_Source\PSoC5/Sample_Hold_1.c ****         #if (CYDEV_VARIABLE_VDDA == 1u)
 207:Generated_Source\PSoC5/Sample_Hold_1.c ****             Sample_Hold_1_BSTCLK_REG &= (uint8)(~Sample_Hold_1_BST_CLK_EN);
 208:Generated_Source\PSoC5/Sample_Hold_1.c ****             /* Disable pumps only if there aren't any SC block in use */
 209:Generated_Source\PSoC5/Sample_Hold_1.c ****             if ((Sample_Hold_1_PM_ACT_CFG_REG & Sample_Hold_1_PM_ACT_CFG_MASK) == 0u)
 210:Generated_Source\PSoC5/Sample_Hold_1.c ****             {
 211:Generated_Source\PSoC5/Sample_Hold_1.c ****                 Sample_Hold_1_SC_MISC_REG &= (uint8)(~Sample_Hold_1_PUMP_FORCE);
 212:Generated_Source\PSoC5/Sample_Hold_1.c ****                 Sample_Hold_1_PUMP_CR1_REG &= (uint8)(~Sample_Hold_1_PUMP_CR1_SC_CLKSEL);
 213:Generated_Source\PSoC5/Sample_Hold_1.c ****                 CyScBoostClk_Stop();
 214:Generated_Source\PSoC5/Sample_Hold_1.c ****             }
 215:Generated_Source\PSoC5/Sample_Hold_1.c ****         #endif /* CYDEV_VARIABLE_VDDA == 1u */
 216:Generated_Source\PSoC5/Sample_Hold_1.c ****     #endif /* (CY_PSOC3 || CY_PSOC5LP) */
 217:Generated_Source\PSoC5/Sample_Hold_1.c ****  
 218:Generated_Source\PSoC5/Sample_Hold_1.c ****     /* This sets Sample and hold in zero current mode and output routes are valid */
 219:Generated_Source\PSoC5/Sample_Hold_1.c ****     #if (CY_PSOC5A)
 220:Generated_Source\PSoC5/Sample_Hold_1.c ****         Sample_Hold_1_P5backup.scCR1Reg = Sample_Hold_1_CR1_REG;
 221:Generated_Source\PSoC5/Sample_Hold_1.c ****         Sample_Hold_1_P5backup.scCR2Reg = Sample_Hold_1_CR2_REG;
 222:Generated_Source\PSoC5/Sample_Hold_1.c ****         Sample_Hold_1_CR1_REG = 0x00u;
 223:Generated_Source\PSoC5/Sample_Hold_1.c ****         Sample_Hold_1_CR2_REG = 0x00u;
 224:Generated_Source\PSoC5/Sample_Hold_1.c ****         Sample_Hold_1_P5backup.enableState = 1u;
 225:Generated_Source\PSoC5/Sample_Hold_1.c ****     #endif /* CY_PSOC5A */
 226:Generated_Source\PSoC5/Sample_Hold_1.c **** }
 227:Generated_Source\PSoC5/Sample_Hold_1.c **** 
 228:Generated_Source\PSoC5/Sample_Hold_1.c **** 
 229:Generated_Source\PSoC5/Sample_Hold_1.c **** /*******************************************************************************
 230:Generated_Source\PSoC5/Sample_Hold_1.c **** * Function Name: Sample_Hold_1_SetPower
 231:Generated_Source\PSoC5/Sample_Hold_1.c **** ********************************************************************************
 232:Generated_Source\PSoC5/Sample_Hold_1.c **** *
 233:Generated_Source\PSoC5/Sample_Hold_1.c **** * Summary:
 234:Generated_Source\PSoC5/Sample_Hold_1.c **** *  Set the power of the Sample/Track and Hold.
 235:Generated_Source\PSoC5/Sample_Hold_1.c **** *
 236:Generated_Source\PSoC5/Sample_Hold_1.c **** * Parameters:
 237:Generated_Source\PSoC5/Sample_Hold_1.c **** *  power: Sets power level between (0) and (3) high power
 238:Generated_Source\PSoC5/Sample_Hold_1.c **** *
 239:Generated_Source\PSoC5/Sample_Hold_1.c **** * Return:
 240:Generated_Source\PSoC5/Sample_Hold_1.c **** *  void
 241:Generated_Source\PSoC5/Sample_Hold_1.c **** *
 242:Generated_Source\PSoC5/Sample_Hold_1.c **** *******************************************************************************/
 243:Generated_Source\PSoC5/Sample_Hold_1.c **** void Sample_Hold_1_SetPower(uint8 power) 
 244:Generated_Source\PSoC5/Sample_Hold_1.c **** {
  94              		.loc 1 244 0
  95              		.cfi_startproc
  96              		@ args = 0, pretend = 0, frame = 0
  97              		@ frame_needed = 0, uses_anonymous_args = 0
  98              		@ link register save eliminated.
ARM GAS  C:\Users\chemi\AppData\Local\Temp\cc9aswBM.s 			page 7


  99              	.LVL0:
 245:Generated_Source\PSoC5/Sample_Hold_1.c ****     uint8 tmpCR;
 246:Generated_Source\PSoC5/Sample_Hold_1.c **** 
 247:Generated_Source\PSoC5/Sample_Hold_1.c ****     /* Sets drive bits in SC Block Control Register 1:  SCxx_CR[1:0] */
 248:Generated_Source\PSoC5/Sample_Hold_1.c ****     tmpCR = Sample_Hold_1_CR1_REG & (uint8)(~Sample_Hold_1_DRIVE_MASK);
 100              		.loc 1 248 0
 101 0000 044A     		ldr	r2, .L8
 249:Generated_Source\PSoC5/Sample_Hold_1.c ****     tmpCR |= (power & Sample_Hold_1_DRIVE_MASK);
 102              		.loc 1 249 0
 103 0002 00F00300 		and	r0, r0, #3
 104              	.LVL1:
 248:Generated_Source\PSoC5/Sample_Hold_1.c ****     tmpCR |= (power & Sample_Hold_1_DRIVE_MASK);
 105              		.loc 1 248 0
 106 0006 1378     		ldrb	r3, [r2]	@ zero_extendqisi2
 107 0008 03F0FC03 		and	r3, r3, #252
 108              	.LVL2:
 109              		.loc 1 249 0
 110 000c 1843     		orrs	r0, r0, r3
 111              	.LVL3:
 250:Generated_Source\PSoC5/Sample_Hold_1.c ****     Sample_Hold_1_CR1_REG = tmpCR;
 112              		.loc 1 250 0
 113 000e 1070     		strb	r0, [r2]
 114 0010 7047     		bx	lr
 115              	.L9:
 116 0012 00BF     		.align	2
 117              	.L8:
 118 0014 05580040 		.word	1073764357
 119              		.cfi_endproc
 120              	.LFE4:
 121              		.size	Sample_Hold_1_SetPower, .-Sample_Hold_1_SetPower
 122              		.section	.text.Sample_Hold_1_Init,"ax",%progbits
 123              		.align	1
 124              		.global	Sample_Hold_1_Init
 125              		.thumb
 126              		.thumb_func
 127              		.type	Sample_Hold_1_Init, %function
 128              	Sample_Hold_1_Init:
 129              	.LFB0:
  53:Generated_Source\PSoC5/Sample_Hold_1.c ****     /* Configure SC Block based on selected Sample/Track type */
 130              		.loc 1 53 0
 131              		.cfi_startproc
 132              		@ args = 0, pretend = 0, frame = 0
 133              		@ frame_needed = 0, uses_anonymous_args = 0
 134              		@ link register save eliminated.
  80:Generated_Source\PSoC5/Sample_Hold_1.c ****         
 135              		.loc 1 80 0
 136 0000 074B     		ldr	r3, .L11
 137 0002 0E22     		movs	r2, #14
 138 0004 1A70     		strb	r2, [r3]
  83:Generated_Source\PSoC5/Sample_Hold_1.c ****                                    Sample_Hold_1_DIV2_ENABLE |
 139              		.loc 1 83 0
 140 0006 1822     		movs	r2, #24
 141 0008 5A70     		strb	r2, [r3, #1]
  88:Generated_Source\PSoC5/Sample_Hold_1.c ****                                    Sample_Hold_1_REDC_00 |
 142              		.loc 1 88 0
 143 000a 8122     		movs	r2, #129
 144 000c 9A70     		strb	r2, [r3, #2]
ARM GAS  C:\Users\chemi\AppData\Local\Temp\cc9aswBM.s 			page 8


  94:Generated_Source\PSoC5/Sample_Hold_1.c ****     
 145              		.loc 1 94 0
 146 000e 054A     		ldr	r2, .L11+4
  97:Generated_Source\PSoC5/Sample_Hold_1.c **** }
 147              		.loc 1 97 0
 148 0010 0320     		movs	r0, #3
  94:Generated_Source\PSoC5/Sample_Hold_1.c ****     
 149              		.loc 1 94 0
 150 0012 1378     		ldrb	r3, [r2]	@ zero_extendqisi2
 151 0014 43F00803 		orr	r3, r3, #8
 152 0018 1370     		strb	r3, [r2]
  97:Generated_Source\PSoC5/Sample_Hold_1.c **** }
 153              		.loc 1 97 0
 154 001a FFF7FEBF 		b	Sample_Hold_1_SetPower
 155              	.LVL4:
 156              	.L12:
 157 001e 00BF     		.align	2
 158              	.L11:
 159 0020 04580040 		.word	1073764356
 160 0024 1B5A0040 		.word	1073764891
 161              		.cfi_endproc
 162              	.LFE0:
 163              		.size	Sample_Hold_1_Init, .-Sample_Hold_1_Init
 164              		.section	.text.Sample_Hold_1_Start,"ax",%progbits
 165              		.align	1
 166              		.global	Sample_Hold_1_Start
 167              		.thumb
 168              		.thumb_func
 169              		.type	Sample_Hold_1_Start, %function
 170              	Sample_Hold_1_Start:
 171              	.LFB2:
 172:Generated_Source\PSoC5/Sample_Hold_1.c ****     /* If not Initialized then initialize all required hardware and software */
 172              		.loc 1 172 0
 173              		.cfi_startproc
 174              		@ args = 0, pretend = 0, frame = 0
 175              		@ frame_needed = 0, uses_anonymous_args = 0
 176 0000 08B5     		push	{r3, lr}
 177              		.cfi_def_cfa_offset 8
 178              		.cfi_offset 3, -8
 179              		.cfi_offset 14, -4
 174:Generated_Source\PSoC5/Sample_Hold_1.c ****     {
 180              		.loc 1 174 0
 181 0002 0549     		ldr	r1, .L16
 182 0004 0B78     		ldrb	r3, [r1]	@ zero_extendqisi2
 183 0006 1BB9     		cbnz	r3, .L14
 176:Generated_Source\PSoC5/Sample_Hold_1.c ****         Sample_Hold_1_initVar = 1u;
 184              		.loc 1 176 0
 185 0008 FFF7FEFF 		bl	Sample_Hold_1_Init
 186              	.LVL5:
 177:Generated_Source\PSoC5/Sample_Hold_1.c ****     }
 187              		.loc 1 177 0
 188 000c 0123     		movs	r3, #1
 189 000e 0B70     		strb	r3, [r1]
 190              	.L14:
 180:Generated_Source\PSoC5/Sample_Hold_1.c **** 
 191              		.loc 1 180 0
 192 0010 BDE80840 		pop	{r3, lr}
ARM GAS  C:\Users\chemi\AppData\Local\Temp\cc9aswBM.s 			page 9


 193              		.cfi_restore 14
 194              		.cfi_restore 3
 195              		.cfi_def_cfa_offset 0
 179:Generated_Source\PSoC5/Sample_Hold_1.c **** }
 196              		.loc 1 179 0
 197 0014 FFF7FEBF 		b	Sample_Hold_1_Enable
 198              	.LVL6:
 199              	.L17:
 200              		.align	2
 201              	.L16:
 202 0018 00000000 		.word	.LANCHOR0
 203              		.cfi_endproc
 204              	.LFE2:
 205              		.size	Sample_Hold_1_Start, .-Sample_Hold_1_Start
 206              		.global	Sample_Hold_1_initVar
 207              		.bss
 208              		.set	.LANCHOR0,. + 0
 209              		.type	Sample_Hold_1_initVar, %object
 210              		.size	Sample_Hold_1_initVar, 1
 211              	Sample_Hold_1_initVar:
 212 0000 00       		.space	1
 213              		.text
 214              	.Letext0:
 215              		.file 2 "Generated_Source\\PSoC5\\cytypes.h"