ARM GAS  C:\Users\chemi\AppData\Local\Temp\cc2tezmJ.s 			page 1


   1              		.syntax unified
   2              		.cpu cortex-m3
   3              		.fpu softvfp
   4              		.eabi_attribute 20, 1
   5              		.eabi_attribute 21, 1
   6              		.eabi_attribute 23, 3
   7              		.eabi_attribute 24, 1
   8              		.eabi_attribute 25, 1
   9              		.eabi_attribute 26, 1
  10              		.eabi_attribute 30, 4
  11              		.eabi_attribute 34, 1
  12              		.eabi_attribute 18, 4
  13              		.thumb
  14              		.syntax unified
  15              		.file	"SidFilter.c"
  16              		.text
  17              	.Ltext0:
  18              		.cfi_sections	.debug_frame
  19              		.section	.text.SidFilter_updateVoice,"ax",%progbits
  20              		.align	1
  21              		.global	SidFilter_updateVoice
  22              		.thumb
  23              		.thumb_func
  24              		.type	SidFilter_updateVoice, %function
  25              	SidFilter_updateVoice:
  26              	.LFB68:
  27              		.file 1 "..\\common\\vms\\SidFilter.c"
   1:..\common\vms/SidFilter.c **** /*
   2:..\common\vms/SidFilter.c ****  * File:   MidiFilter.c
   3:..\common\vms/SidFilter.c ****  * Author: Thorb
   4:..\common\vms/SidFilter.c ****  *
   5:..\common\vms/SidFilter.c ****  * Created on 12 September 2023, 23:15
   6:..\common\vms/SidFilter.c ****  */
   7:..\common\vms/SidFilter.c **** 
   8:..\common\vms/SidFilter.c **** #include "NoteMapper.h"
   9:..\common\vms/SidFilter.c **** #include "MidiFilter.h"
  10:..\common\vms/SidFilter.c **** #include "TTerm.h"
  11:..\common\vms/SidFilter.c **** #include "SidProcessor.h"
  12:..\common\vms/SidFilter.c **** #include "tasks/tsk_sid.h"
  13:..\common\vms/SidFilter.c **** #include "interrupter.h"
  14:..\common\vms/SidFilter.c **** #include "cli_common.h"
  15:..\common\vms/SidFilter.c **** 
  16:..\common\vms/SidFilter.c **** SIDFilterData_t SID_filterData = {
  17:..\common\vms/SidFilter.c ****     .channelVolume = {[0 ... N_SIDCHANNEL-1] = MAX_VOL},
  18:..\common\vms/SidFilter.c ****     .hpvEnabled = {[0 ... N_SIDCHANNEL-1] = 1},
  19:..\common\vms/SidFilter.c ****     .flags = 0,
  20:..\common\vms/SidFilter.c ****     .noiseVolume = 10000, //set to 20% = (6553 >> 15) as a default
  21:..\common\vms/SidFilter.c ****     .hpvEnabledGlobally = 0
  22:..\common\vms/SidFilter.c **** };
  23:..\common\vms/SidFilter.c **** 
  24:..\common\vms/SidFilter.c **** //test if selected wave is sqare and noise is off
  25:..\common\vms/SidFilter.c **** #define SID_IS_HPV_AVAILABLE(FLAGS) ((FLAGS & SID_FRAME_FLAG_SQUARE) && !(FLAGS & SID_FRAME_FLAG_NO
  26:..\common\vms/SidFilter.c **** 
  27:..\common\vms/SidFilter.c **** void SidFilter_updateVoice(uint32_t channel, SIDChannelData_t * channelData){
  28              		.loc 1 27 0
  29              		.cfi_startproc
  30              		@ args = 0, pretend = 0, frame = 0
ARM GAS  C:\Users\chemi\AppData\Local\Temp\cc2tezmJ.s 			page 2


  31              		@ frame_needed = 0, uses_anonymous_args = 0
  32              	.LVL0:
  28:..\common\vms/SidFilter.c ****     
  29:..\common\vms/SidFilter.c ****     //is this voice even on?
  30:..\common\vms/SidFilter.c ****     if(    channelData->currentEnvelopeVolume != 0      //adsr volume > 0?
  33              		.loc 1 30 0
  34 0000 0B6A     		ldr	r3, [r1, #32]
  27:..\common\vms/SidFilter.c ****     
  35              		.loc 1 27 0
  36 0002 2DE9F341 		push	{r0, r1, r4, r5, r6, r7, r8, lr}
  37              		.cfi_def_cfa_offset 32
  38              		.cfi_offset 4, -24
  39              		.cfi_offset 5, -20
  40              		.cfi_offset 6, -16
  41              		.cfi_offset 7, -12
  42              		.cfi_offset 8, -8
  43              		.cfi_offset 14, -4
  27:..\common\vms/SidFilter.c ****     
  44              		.loc 1 27 0
  45 0006 0446     		mov	r4, r0
  46              		.loc 1 30 0
  47 0008 002B     		cmp	r3, #0
  48 000a 57D0     		beq	.L2
  31:..\common\vms/SidFilter.c ****         && channelData->frequency_dHz != 0              //frequency not set to 0 (done when resetti
  49              		.loc 1 31 0
  50 000c 0869     		ldr	r0, [r1, #16]
  51              	.LVL1:
  52 000e 0028     		cmp	r0, #0
  53 0010 54D0     		beq	.L2
  32:..\common\vms/SidFilter.c ****         && !(channelData->flags & SID_FRAME_FLAG_TEST)  //test bit not set, that would have the sid
  54              		.loc 1 32 0
  55 0012 4A68     		ldr	r2, [r1, #4]
  56 0014 D606     		lsls	r6, r2, #27
  57 0016 51D4     		bmi	.L2
  33:..\common\vms/SidFilter.c ****         && SID_filterData.channelVolume[channel] != 0   //master volume for the channel > 0?
  58              		.loc 1 33 0
  59 0018 2E4E     		ldr	r6, .L27
  60 001a 56F824E0 		ldr	lr, [r6, r4, lsl #2]
  61 001e BEF1000F 		cmp	lr, #0
  62 0022 4BD0     		beq	.L2
  34:..\common\vms/SidFilter.c ****         && (channel != 2 || !(channelData->flags & SID_FRAME_FLAG_CH3OFF))  //check for ch3off bit,
  63              		.loc 1 34 0
  64 0024 022C     		cmp	r4, #2
  65 0026 01D1     		bne	.L3
  66              		.loc 1 34 0 is_stmt 0 discriminator 1
  67 0028 D505     		lsls	r5, r2, #23
  68 002a 47D4     		bmi	.L2
  69              	.L3:
  70              	.LBB2:
  35:..\common\vms/SidFilter.c ****     ){
  36:..\common\vms/SidFilter.c ****         //yes
  37:..\common\vms/SidFilter.c ****         
  38:..\common\vms/SidFilter.c ****         //calculate ontime 
  39:..\common\vms/SidFilter.c ****             uint32_t ontime = param.pw;
  40:..\common\vms/SidFilter.c ****         
  41:..\common\vms/SidFilter.c ****         //calculate frequency
  42:..\common\vms/SidFilter.c ****             uint32_t frequency_dHz = channelData->frequency_dHz; //not much to calc :)
ARM GAS  C:\Users\chemi\AppData\Local\Temp\cc2tezmJ.s 			page 3


  43:..\common\vms/SidFilter.c ****     
  44:..\common\vms/SidFilter.c ****         //calculate volume. Starting from max and scaling down with every parameter we have
  45:..\common\vms/SidFilter.c ****             uint32_t totalVolume = MAX_VOL;
  46:..\common\vms/SidFilter.c ****             
  47:..\common\vms/SidFilter.c ****             //channel ADSR
  48:..\common\vms/SidFilter.c ****             if(channelData->currentEnvelopeVolume != MAX_VOL) totalVolume = (totalVolume * channelD
  71              		.loc 1 48 0 is_stmt 1
  72 002c 47F6FF77 		movw	r7, #32767
  73 0030 BB42     		cmp	r3, r7
  74 0032 1ABF     		itte	ne
  75 0034 C3EBC333 		rsbne	r3, r3, r3, lsl #15
  76 0038 DB0B     		lsrne	r3, r3, #15
  45:..\common\vms/SidFilter.c ****             
  77              		.loc 1 45 0
  78 003a 3B46     		moveq	r3, r7
  49:..\common\vms/SidFilter.c ****             
  50:..\common\vms/SidFilter.c ****             //channel filter and master volume
  51:..\common\vms/SidFilter.c ****             if(SID_filterData.channelVolume[channel] != MAX_VOL) totalVolume = (totalVolume * SID_f
  79              		.loc 1 51 0
  80 003c BE45     		cmp	lr, r7
  81 003e 18BF     		it	ne
  82 0040 0EFB03F3 		mulne	r3, lr, r3
  39:..\common\vms/SidFilter.c ****         
  83              		.loc 1 39 0
  84 0044 244D     		ldr	r5, .L27+4
  85              		.loc 1 51 0
  86 0046 18BF     		it	ne
  87 0048 DB0B     		lsrne	r3, r3, #15
  52:..\common\vms/SidFilter.c ****             
  53:..\common\vms/SidFilter.c ****             //noise volume (if noise is on)
  54:..\common\vms/SidFilter.c ****             if((channelData->flags & SID_FRAME_FLAG_NOISE) && (SID_filterData.noiseVolume != MAX_VO
  88              		.loc 1 54 0
  89 004a 12F00102 		ands	r2, r2, #1
  39:..\common\vms/SidFilter.c ****         
  90              		.loc 1 39 0
  91 004e 2D88     		ldrh	r5, [r5]
  92              	.LVL2:
  93              		.loc 1 54 0
  94 0050 06D0     		beq	.L6
  95              		.loc 1 54 0 is_stmt 0 discriminator 1
  96 0052 47F6FF7E 		movw	lr, #32767
  97 0056 F769     		ldr	r7, [r6, #28]
  98 0058 7745     		cmp	r7, lr
  99 005a 1CBF     		itt	ne
 100 005c 7B43     		mulne	r3, r7, r3
 101              	.LVL3:
 102 005e DB0B     		lsrne	r3, r3, #15
 103              	.LVL4:
 104              	.L6:
 105 0060 47F6FF77 		movw	r7, #32767
  55:..\common\vms/SidFilter.c ****             
  56:..\common\vms/SidFilter.c ****             totalVolume += (channelData->frequency_dHz>>3);
 106              		.loc 1 56 0 is_stmt 1
 107 0064 03EBD003 		add	r3, r3, r0, lsr #3
 108              	.LVL5:
 109 0068 9F42     		cmp	r7, r3
 110 006a 28BF     		it	cs
ARM GAS  C:\Users\chemi\AppData\Local\Temp\cc2tezmJ.s 			page 4


 111 006c 1F46     		movcs	r7, r3
 112              	.LVL6:
  57:..\common\vms/SidFilter.c ****             if(totalVolume > MAX_VOL) totalVolume = MAX_VOL;
  58:..\common\vms/SidFilter.c ****             
  59:..\common\vms/SidFilter.c ****             //half volume scale for hpv is done in hpv calc code
  60:..\common\vms/SidFilter.c ****    
  61:..\common\vms/SidFilter.c ****         //calculate hpv stuff
  62:..\common\vms/SidFilter.c ****             uint32_t hpvCount = 0;
  63:..\common\vms/SidFilter.c ****             uint32_t hpvPhase = 0;
  64:..\common\vms/SidFilter.c ****             uint32_t hpvVolume = totalVolume;
  65:..\common\vms/SidFilter.c ****             
  66:..\common\vms/SidFilter.c ****             //is hpv even required?
  67:..\common\vms/SidFilter.c ****             //TODO evaluate having a hpv enable for every voice
  68:..\common\vms/SidFilter.c ****             if(SID_IS_HPV_AVAILABLE(channelData->flags)){ // && (SID_filterData.hpvEnabled[channel]
 113              		.loc 1 68 0
 114 006e 4B68     		ldr	r3, [r1, #4]
 115 0070 03F00703 		and	r3, r3, #7
 116 0074 022B     		cmp	r3, #2
 117 0076 06D1     		bne	.L11
 118              		.loc 1 68 0 is_stmt 0 discriminator 1
 119 0078 366A     		ldr	r6, [r6, #32]
 120 007a 2EB1     		cbz	r6, .L12
 121              	.LVL7:
  69:..\common\vms/SidFilter.c ****                 //yes => enable and calc phase
  70:..\common\vms/SidFilter.c ****                 hpvCount = 1; 
  71:..\common\vms/SidFilter.c ****                 hpvPhase = channelData->pulsewidth >> 4;
 122              		.loc 1 71 0 is_stmt 1
 123 007c 4E69     		ldr	r6, [r1, #20]
  70:..\common\vms/SidFilter.c ****                 hpvPhase = channelData->pulsewidth >> 4;
 124              		.loc 1 70 0
 125 007e 4FF00108 		mov	r8, #1
 126              		.loc 1 71 0
 127 0082 3609     		lsrs	r6, r6, #4
 128              	.LVL8:
 129 0084 01E0     		b	.L7
 130              	.LVL9:
 131              	.L11:
  63:..\common\vms/SidFilter.c ****             uint32_t hpvVolume = totalVolume;
 132              		.loc 1 63 0
 133 0086 0026     		movs	r6, #0
 134              	.L12:
  62:..\common\vms/SidFilter.c ****             uint32_t hpvPhase = 0;
 135              		.loc 1 62 0
 136 0088 B046     		mov	r8, r6
 137              	.LVL10:
 138              	.L7:
  72:..\common\vms/SidFilter.c ****                 
  73:..\common\vms/SidFilter.c ****                 //also scale volume down by half
  74:..\common\vms/SidFilter.c ****                 //TODO evaluate how good this actually sounds
  75:..\common\vms/SidFilter.c ****                 //totalVolume = totalVolume >> 1;
  76:..\common\vms/SidFilter.c ****                 //ontime = ontime >> 1;
  77:..\common\vms/SidFilter.c ****                 
  78:..\common\vms/SidFilter.c ****                 
  79:..\common\vms/SidFilter.c ****                 //start scaling down the volume starting from 1kHz to 1,8192kHz. Above 1,8192kHz HP
  80:..\common\vms/SidFilter.c ****                 if(channelData->frequency_dHz > 10000){
  81:..\common\vms/SidFilter.c ****                     hpvVolume = (hpvVolume * (18192 - channelData->frequency_dHz)) >> 13;
  82:..\common\vms/SidFilter.c ****                 }else if(channelData->frequency_dHz >= 18192){
ARM GAS  C:\Users\chemi\AppData\Local\Temp\cc2tezmJ.s 			page 5


  83:..\common\vms/SidFilter.c ****                     hpvVolume = 0;
  84:..\common\vms/SidFilter.c ****                 }
  85:..\common\vms/SidFilter.c ****             }
  86:..\common\vms/SidFilter.c ****             
  87:..\common\vms/SidFilter.c ****         //is noise required?
  88:..\common\vms/SidFilter.c ****             uint32_t noiseAmplitude = 0;
  89:..\common\vms/SidFilter.c ****             
  90:..\common\vms/SidFilter.c ****             if(channelData->flags & SID_FRAME_FLAG_NOISE){
 139              		.loc 1 90 0
 140 008a 3AB1     		cbz	r2, .L8
 141              	.LVL11:
  91:..\common\vms/SidFilter.c ****                 //yes => set noise target
  92:..\common\vms/SidFilter.c ****                 noiseAmplitude = 80;
  93:..\common\vms/SidFilter.c ****                 
  94:..\common\vms/SidFilter.c ****                 /*
  95:..\common\vms/SidFilter.c ****                     we will want to scale the frequency back a little too
  96:..\common\vms/SidFilter.c ****                 
  97:..\common\vms/SidFilter.c ****                 
  98:..\common\vms/SidFilter.c ****                     how the frequency is scaled:
  99:..\common\vms/SidFilter.c ****                     
 100:..\common\vms/SidFilter.c ****                     in the earlier code we used the function newFreq = sqrt(freq*2) * 40; whis is p
 101:..\common\vms/SidFilter.c ****                 
 102:..\common\vms/SidFilter.c ****                     now however I don't, so we will approximate linearly. The graph looks kinda lik
 103:..\common\vms/SidFilter.c ****                 
 104:..\common\vms/SidFilter.c ****                     y = m*x + b;
 105:..\common\vms/SidFilter.c ****                 
 106:..\common\vms/SidFilter.c ****                     b = 2000;
 107:..\common\vms/SidFilter.c ****                     m = 3000Hz / 20000Hz = 0.15 = 2458 / 16384 = 2458 >> 14
 108:..\common\vms/SidFilter.c ****                 
 109:..\common\vms/SidFilter.c ****                     and then everything needs to be x10 due ti the frequency being in dHz
 110:..\common\vms/SidFilter.c ****                         
 111:..\common\vms/SidFilter.c ****                     //TODO actually evaluate how this sounds
 112:..\common\vms/SidFilter.c ****                 */
 113:..\common\vms/SidFilter.c ****                 
 114:..\common\vms/SidFilter.c ****                 frequency_dHz = 20000 + ((frequency_dHz * 24576) >> 14);
 142              		.loc 1 114 0
 143 008c 4FF4C043 		mov	r3, #24576
 144 0090 5843     		muls	r0, r3, r0
 145              	.LVL12:
 146 0092 800B     		lsrs	r0, r0, #14
 147 0094 00F59C40 		add	r0, r0, #19968
 148 0098 2030     		adds	r0, r0, #32
 149              	.LVL13:
  92:..\common\vms/SidFilter.c ****                 
 150              		.loc 1 92 0
 151 009a 5022     		movs	r2, #80
 152              	.LVL14:
 153              	.L8:
 115:..\common\vms/SidFilter.c ****                 
 116:..\common\vms/SidFilter.c ****                 
 117:..\common\vms/SidFilter.c ****             }
 118:..\common\vms/SidFilter.c ****             
 119:..\common\vms/SidFilter.c ****         //and finally update siggen
 120:..\common\vms/SidFilter.c ****             SigGen_setVoiceSID(channel, 1, ontime, totalVolume, frequency_dHz, noiseAmplitude);
 154              		.loc 1 120 0
 155 009c 8DE80500 		stmia	sp, {r0, r2}
 156 00a0 3B46     		mov	r3, r7
ARM GAS  C:\Users\chemi\AppData\Local\Temp\cc2tezmJ.s 			page 6


 157 00a2 2A46     		mov	r2, r5
 158              	.LVL15:
 159 00a4 2046     		mov	r0, r4
 160              	.LVL16:
 161 00a6 0121     		movs	r1, #1
 162              	.LVL17:
 163 00a8 FFF7FEFF 		bl	SigGen_setVoiceSID
 164              	.LVL18:
 121:..\common\vms/SidFilter.c ****             SigGen_setHyperVoiceSID(channel, hpvCount, ontime, totalVolume, hpvPhase);
 165              		.loc 1 121 0
 166 00ac 0096     		str	r6, [sp]
 167 00ae 3B46     		mov	r3, r7
 168 00b0 2A46     		mov	r2, r5
 169 00b2 4146     		mov	r1, r8
 170 00b4 2046     		mov	r0, r4
 171 00b6 FFF7FEFF 		bl	SigGen_setHyperVoiceSID
 172              	.LVL19:
 173              	.LBE2:
  35:..\common\vms/SidFilter.c ****         //yes
 174              		.loc 1 35 0
 175 00ba 07E0     		b	.L1
 176              	.LVL20:
 177              	.L2:
 122:..\common\vms/SidFilter.c ****             
 123:..\common\vms/SidFilter.c ****     }else{
 124:..\common\vms/SidFilter.c ****         //no, channel muted. Just switch it off in siggen
 125:..\common\vms/SidFilter.c ****         SigGen_setVoiceSID(channel, 0, 0, 0, 0, 0);
 178              		.loc 1 125 0
 179 00bc 0023     		movs	r3, #0
 180 00be 0193     		str	r3, [sp, #4]
 181 00c0 0093     		str	r3, [sp]
 182 00c2 1A46     		mov	r2, r3
 183 00c4 1946     		mov	r1, r3
 184              	.LVL21:
 185 00c6 2046     		mov	r0, r4
 186 00c8 FFF7FEFF 		bl	SigGen_setVoiceSID
 187              	.LVL22:
 188              	.L1:
 126:..\common\vms/SidFilter.c ****     }
 127:..\common\vms/SidFilter.c ****     
 128:..\common\vms/SidFilter.c **** }...
 189              		.loc 1 128 0
 190 00cc 02B0     		add	sp, sp, #8
 191              		.cfi_def_cfa_offset 24
 192              		@ sp needed
 193 00ce BDE8F081 		pop	{r4, r5, r6, r7, r8, pc}
 194              	.LVL23:
 195              	.L28:
 196 00d2 00BF     		.align	2
 197              	.L27:
 198 00d4 00000000 		.word	.LANCHOR0
 199 00d8 00000000 		.word	param
 200              		.cfi_endproc
 201              	.LFE68:
 202              		.size	SidFilter_updateVoice, .-SidFilter_updateVoice
 203              		.global	SID_filterData
 204              		.comm	interrupter,12,4
ARM GAS  C:\Users\chemi\AppData\Local\Temp\cc2tezmJ.s 			page 7


 205              		.data
 206              		.align	2
 207              		.set	.LANCHOR0,. + 0
 208              		.type	SID_filterData, %object
 209              		.size	SID_filterData, 36
 210              	SID_filterData:
 211 0000 FF7F0000 		.word	32767
 212 0004 FF7F0000 		.word	32767
 213 0008 FF7F0000 		.word	32767
 214 000c 01000000 		.word	1
 215 0010 01000000 		.word	1
 216 0014 01000000 		.word	1
 217 0018 00000000 		.word	0
 218 001c 10270000 		.word	10000
 219 0020 00000000 		.word	0
 220              		.text
 221              	.Letext0:
 222              		.file 2 "c:\\program files (x86)\\cypress\\psoc creator\\4.4\\psoc creator\\import\\gnu\\arm\\5.4.
 223              		.file 3 "c:\\program files (x86)\\cypress\\psoc creator\\4.4\\psoc creator\\import\\gnu\\arm\\5.4.
 224              		.file 4 "..\\common\\ud3core/tasks/tsk_sid.h"
 225              		.file 5 "..\\common\\rtos\\include/timers.h"
 226              		.file 6 "..\\common\\ud3core/interrupter.h"
 227              		.file 7 "..\\common\\ud3core/cli_common.h"
 228              		.file 8 "Generated_Source\\PSoC5/core_cm3.h"
 229              		.file 9 "..\\common\\ud3core/SignalGenerator.h"