ARM GAS  C:\Users\chemi\AppData\Local\Temp\ccctKiRT.s 			page 1


   1              		.syntax unified
   2              		.cpu cortex-m3
   3              		.fpu softvfp
   4              		.eabi_attribute 20, 1
   5              		.eabi_attribute 21, 1
   6              		.eabi_attribute 23, 3
   7              		.eabi_attribute 24, 1
   8              		.eabi_attribute 25, 1
   9              		.eabi_attribute 26, 1
  10              		.eabi_attribute 30, 4
  11              		.eabi_attribute 34, 1
  12              		.eabi_attribute 18, 4
  13              		.thumb
  14              		.syntax unified
  15              		.file	"SidProcessor.c"
  16              		.text
  17              	.Ltext0:
  18              		.cfi_sections	.debug_frame
  19              		.section	.text.SidProcessor_resetSid,"ax",%progbits
  20              		.align	1
  21              		.global	SidProcessor_resetSid
  22              		.thumb
  23              		.thumb_func
  24              		.type	SidProcessor_resetSid, %function
  25              	SidProcessor_resetSid:
  26              	.LFB68:
  27              		.file 1 "..\\common\\vms\\SidProcessor.c"
   1:..\common\vms/SidProcessor.c **** #include "SidProcessor.h"
   2:..\common\vms/SidProcessor.c **** #include <device.h>
   3:..\common\vms/SidProcessor.c **** #include <stdint.h>
   4:..\common\vms/SidProcessor.c **** #include "queue.h"
   5:..\common\vms/SidProcessor.c **** #include "telemetry.h"
   6:..\common\vms/SidProcessor.c **** #include "clock.h"
   7:..\common\vms/SidProcessor.c **** #include "qcw.h"
   8:..\common\vms/SidProcessor.c **** #include "tasks/tsk_sid.h"
   9:..\common\vms/SidProcessor.c **** #include "SidFilter.h"
  10:..\common\vms/SidProcessor.c **** #include <stdlib.h>
  11:..\common\vms/SidProcessor.c **** 
  12:..\common\vms/SidProcessor.c **** static const uint32_t ADSR_speedLut_A[] = {65535, 16384, 8192, 5459, 3449, 2341, 1928, 1638, 1311, 
  13:..\common\vms/SidProcessor.c **** static const uint32_t ADSR_speedLut_DR[] = {39779, 57846, 61571, 62865, 63836, 64378, 64581, 64723,
  14:..\common\vms/SidProcessor.c **** 	
  15:..\common\vms/SidProcessor.c **** static SIDChannelData_t channelData[N_SIDCHANNEL];
  16:..\common\vms/SidProcessor.c **** 
  17:..\common\vms/SidProcessor.c **** void SidProcessor_resetSid(){
  28              		.loc 1 17 0
  29              		.cfi_startproc
  30              		@ args = 0, pretend = 0, frame = 0
  31              		@ frame_needed = 0, uses_anonymous_args = 0
  32              	.LVL0:
  33 0000 70B5     		push	{r4, r5, r6, lr}
  34              		.cfi_def_cfa_offset 16
  35              		.cfi_offset 4, -16
  36              		.cfi_offset 5, -12
  37              		.cfi_offset 6, -8
  38              		.cfi_offset 14, -4
  39              	.LBB2:
  18:..\common\vms/SidProcessor.c ****     //flush frame buffer
ARM GAS  C:\Users\chemi\AppData\Local\Temp\ccctKiRT.s 			page 2


  19:..\common\vms/SidProcessor.c ****     //TODO figure out why this doesn't work :(
  20:..\common\vms/SidProcessor.c ****     //xQueueReset(qSID);
  21:..\common\vms/SidProcessor.c ****     
  22:..\common\vms/SidProcessor.c ****     //and reset all channels
  23:..\common\vms/SidProcessor.c ****     for(uint32_t i = 0; i < N_SIDCHANNEL; i ++){
  40              		.loc 1 23 0
  41 0002 0024     		movs	r4, #0
  24:..\common\vms/SidProcessor.c ****         channelData[i].flags = 0;
  42              		.loc 1 24 0
  43 0004 2646     		mov	r6, r4
  44 0006 064D     		ldr	r5, .L5
  45              	.LVL1:
  46              	.L2:
  25:..\common\vms/SidProcessor.c ****         
  26:..\common\vms/SidProcessor.c ****         channelData[i].frequency_dHz = 0;
  27:..\common\vms/SidProcessor.c ****         
  28:..\common\vms/SidProcessor.c ****         SidFilter_updateVoice(i, &channelData[i]);
  47              		.loc 1 28 0 discriminator 3
  48 0008 2946     		mov	r1, r5
  49 000a 2046     		mov	r0, r4
  23:..\common\vms/SidProcessor.c ****         channelData[i].flags = 0;
  50              		.loc 1 23 0 discriminator 3
  51 000c 0134     		adds	r4, r4, #1
  52              	.LVL2:
  24:..\common\vms/SidProcessor.c ****         channelData[i].flags = 0;
  53              		.loc 1 24 0 discriminator 3
  54 000e 6E60     		str	r6, [r5, #4]
  26:..\common\vms/SidProcessor.c ****         
  55              		.loc 1 26 0 discriminator 3
  56 0010 2E61     		str	r6, [r5, #16]
  57              		.loc 1 28 0 discriminator 3
  58 0012 FFF7FEFF 		bl	SidFilter_updateVoice
  59              	.LVL3:
  23:..\common\vms/SidProcessor.c ****         channelData[i].flags = 0;
  60              		.loc 1 23 0 discriminator 3
  61 0016 032C     		cmp	r4, #3
  62 0018 05F12405 		add	r5, r5, #36
  63 001c F4D1     		bne	.L2
  64              	.LBE2:
  29:..\common\vms/SidProcessor.c ****     }
  30:..\common\vms/SidProcessor.c **** }
  65              		.loc 1 30 0
  66 001e 70BD     		pop	{r4, r5, r6, pc}
  67              	.LVL4:
  68              	.L6:
  69              		.align	2
  70              	.L5:
  71 0020 00000000 		.word	.LANCHOR0
  72              		.cfi_endproc
  73              	.LFE68:
  74              		.size	SidProcessor_resetSid, .-SidProcessor_resetSid
  75              		.section	.text.SID_getChannelData,"ax",%progbits
  76              		.align	1
  77              		.global	SID_getChannelData
  78              		.thumb
  79              		.thumb_func
  80              		.type	SID_getChannelData, %function
ARM GAS  C:\Users\chemi\AppData\Local\Temp\ccctKiRT.s 			page 3


  81              	SID_getChannelData:
  82              	.LFB69:
  31:..\common\vms/SidProcessor.c **** 
  32:..\common\vms/SidProcessor.c **** SIDChannelData_t * SID_getChannelData(){
  83              		.loc 1 32 0
  84              		.cfi_startproc
  85              		@ args = 0, pretend = 0, frame = 0
  86              		@ frame_needed = 0, uses_anonymous_args = 0
  87              		@ link register save eliminated.
  33:..\common\vms/SidProcessor.c ****     return channelData;
  34:..\common\vms/SidProcessor.c **** }
  88              		.loc 1 34 0
  89 0000 0048     		ldr	r0, .L8
  90 0002 7047     		bx	lr
  91              	.L9:
  92              		.align	2
  93              	.L8:
  94 0004 00000000 		.word	.LANCHOR0
  95              		.cfi_endproc
  96              	.LFE69:
  97              		.size	SID_getChannelData, .-SID_getChannelData
  98              		.section	.text.SID_getWaveName,"ax",%progbits
  99              		.align	1
 100              		.global	SID_getWaveName
 101              		.thumb
 102              		.thumb_func
 103              		.type	SID_getWaveName, %function
 104              	SID_getWaveName:
 105              	.LFB70:
  35:..\common\vms/SidProcessor.c **** 
  36:..\common\vms/SidProcessor.c **** const char * SID_getWaveName(SIDChannelData_t * data){
 106              		.loc 1 36 0
 107              		.cfi_startproc
 108              		@ args = 0, pretend = 0, frame = 0
 109              		@ frame_needed = 0, uses_anonymous_args = 0
 110              		@ link register save eliminated.
 111              	.LVL5:
  37:..\common\vms/SidProcessor.c ****     if(data->flags & SID_FRAME_FLAG_NOISE) return "NOISE";
 112              		.loc 1 37 0
 113 0000 4368     		ldr	r3, [r0, #4]
 114 0002 D807     		lsls	r0, r3, #31
 115              	.LVL6:
 116 0004 0AD4     		bmi	.L12
  38:..\common\vms/SidProcessor.c ****     if(data->flags & SID_FRAME_FLAG_SQUARE) return "SQUARE";
 117              		.loc 1 38 0
 118 0006 9907     		lsls	r1, r3, #30
 119 0008 0AD4     		bmi	.L13
  39:..\common\vms/SidProcessor.c ****     if(data->flags & SID_FRAME_FLAG_SAWTOOTH) return "SAWTOOTH";
 120              		.loc 1 39 0
 121 000a 5A07     		lsls	r2, r3, #29
 122 000c 0AD4     		bmi	.L14
  40:..\common\vms/SidProcessor.c ****     if(data->flags & SID_FRAME_FLAG_TRIANGLE) return "TRIANGLE";
 123              		.loc 1 40 0
 124 000e 13F0080F 		tst	r3, #8
  41:..\common\vms/SidProcessor.c ****     
  42:..\common\vms/SidProcessor.c ****     return "?";
 125              		.loc 1 42 0
ARM GAS  C:\Users\chemi\AppData\Local\Temp\ccctKiRT.s 			page 4


 126 0012 054B     		ldr	r3, .L16
 127 0014 0548     		ldr	r0, .L16+4
 128 0016 18BF     		it	ne
 129 0018 1846     		movne	r0, r3
 130 001a 7047     		bx	lr
 131              	.L12:
  37:..\common\vms/SidProcessor.c ****     if(data->flags & SID_FRAME_FLAG_SQUARE) return "SQUARE";
 132              		.loc 1 37 0
 133 001c 0448     		ldr	r0, .L16+8
 134 001e 7047     		bx	lr
 135              	.L13:
  38:..\common\vms/SidProcessor.c ****     if(data->flags & SID_FRAME_FLAG_SAWTOOTH) return "SAWTOOTH";
 136              		.loc 1 38 0
 137 0020 0448     		ldr	r0, .L16+12
 138 0022 7047     		bx	lr
 139              	.L14:
  39:..\common\vms/SidProcessor.c ****     if(data->flags & SID_FRAME_FLAG_TRIANGLE) return "TRIANGLE";
 140              		.loc 1 39 0
 141 0024 0448     		ldr	r0, .L16+16
  43:..\common\vms/SidProcessor.c **** }
 142              		.loc 1 43 0
 143 0026 7047     		bx	lr
 144              	.L17:
 145              		.align	2
 146              	.L16:
 147 0028 16000000 		.word	.LC3
 148 002c 1F000000 		.word	.LC4
 149 0030 00000000 		.word	.LC0
 150 0034 06000000 		.word	.LC1
 151 0038 0D000000 		.word	.LC2
 152              		.cfi_endproc
 153              	.LFE70:
 154              		.size	SID_getWaveName, .-SID_getWaveName
 155              		.section	.text.SidProcessor_handleFrame,"ax",%progbits
 156              		.align	1
 157              		.global	SidProcessor_handleFrame
 158              		.thumb
 159              		.thumb_func
 160              		.type	SidProcessor_handleFrame, %function
 161              	SidProcessor_handleFrame:
 162              	.LFB71:
  44:..\common\vms/SidProcessor.c **** 
  45:..\common\vms/SidProcessor.c **** void SidProcessor_handleFrame(SIDFrame_t * frame){
 163              		.loc 1 45 0
 164              		.cfi_startproc
 165              		@ args = 0, pretend = 0, frame = 0
 166              		@ frame_needed = 0, uses_anonymous_args = 0
 167              	.LVL7:
 168 0000 2DE9F041 		push	{r4, r5, r6, r7, r8, lr}
 169              		.cfi_def_cfa_offset 24
 170              		.cfi_offset 4, -24
 171              		.cfi_offset 5, -20
 172              		.cfi_offset 6, -16
 173              		.cfi_offset 7, -12
 174              		.cfi_offset 8, -8
 175              		.cfi_offset 14, -4
  46:..\common\vms/SidProcessor.c ****     //is the frame NULL? if that is the case then a timeout occured and we need to KILL EVERYTHING
ARM GAS  C:\Users\chemi\AppData\Local\Temp\ccctKiRT.s 			page 5


  47:..\common\vms/SidProcessor.c ****     
  48:..\common\vms/SidProcessor.c ****     if(frame == NULL){
 176              		.loc 1 48 0
 177 0004 18B9     		cbnz	r0, .L19
  49:..\common\vms/SidProcessor.c ****         //reset all sid stuff
  50:..\common\vms/SidProcessor.c ****         SidProcessor_resetSid();
  51:..\common\vms/SidProcessor.c ****         
  52:..\common\vms/SidProcessor.c ****         return;
  53:..\common\vms/SidProcessor.c ****     }
  54:..\common\vms/SidProcessor.c ****     
  55:..\common\vms/SidProcessor.c ****     //we got a sid frame. Process it and update the voice.
  56:..\common\vms/SidProcessor.c ****     for(uint32_t i = 0; i < N_SIDCHANNEL; i ++){
  57:..\common\vms/SidProcessor.c ****         channelData[i].flags = frame->flags[i];
  58:..\common\vms/SidProcessor.c ****     
  59:..\common\vms/SidProcessor.c ****         channelData[i].attack = frame->attack[i];
  60:..\common\vms/SidProcessor.c ****         channelData[i].decay = frame->decay[i];
  61:..\common\vms/SidProcessor.c ****         channelData[i].sustainVolume = frame->sustain[i] * 2184;   //scale sustain volume into the 
  62:..\common\vms/SidProcessor.c ****         channelData[i].release = frame->release[i];
  63:..\common\vms/SidProcessor.c ****         
  64:..\common\vms/SidProcessor.c ****         channelData[i].frequency_dHz = frame->frequency_dHz[i];
  65:..\common\vms/SidProcessor.c ****         channelData[i].pulsewidth = frame->pulsewidth[i];
  66:..\common\vms/SidProcessor.c ****         
  67:..\common\vms/SidProcessor.c ****         //why only update the voice after we received a new register frame? well thats because we c
  68:..\common\vms/SidProcessor.c ****         //is still plenty for updating interrupter parameters
  69:..\common\vms/SidProcessor.c ****         SidFilter_updateVoice(i, &channelData[i]);
  70:..\common\vms/SidProcessor.c ****     }
  71:..\common\vms/SidProcessor.c **** }
 178              		.loc 1 71 0
 179 0006 BDE8F041 		pop	{r4, r5, r6, r7, r8, lr}
 180              		.cfi_remember_state
 181              		.cfi_restore 14
 182              		.cfi_restore 8
 183              		.cfi_restore 7
 184              		.cfi_restore 6
 185              		.cfi_restore 5
 186              		.cfi_restore 4
 187              		.cfi_def_cfa_offset 0
  50:..\common\vms/SidProcessor.c ****         
 188              		.loc 1 50 0
 189 000a FFF7FEBF 		b	SidProcessor_resetSid
 190              	.LVL8:
 191              	.L19:
 192              		.cfi_restore_state
 193 000e 0446     		mov	r4, r0
 194 0010 144D     		ldr	r5, .L22
 195 0012 00F11C08 		add	r8, r0, #28
 196 0016 00F12807 		add	r7, r0, #40
  48:..\common\vms/SidProcessor.c ****         //reset all sid stuff
 197              		.loc 1 48 0
 198 001a 0026     		movs	r6, #0
 199              	.LVL9:
 200              	.L20:
 201              	.LBB3:
  57:..\common\vms/SidProcessor.c ****     
 202              		.loc 1 57 0 discriminator 3
 203 001c 2388     		ldrh	r3, [r4]
  69:..\common\vms/SidProcessor.c ****     }
ARM GAS  C:\Users\chemi\AppData\Local\Temp\ccctKiRT.s 			page 6


 204              		.loc 1 69 0 discriminator 3
 205 001e 2946     		mov	r1, r5
  57:..\common\vms/SidProcessor.c ****     
 206              		.loc 1 57 0 discriminator 3
 207 0020 6B60     		str	r3, [r5, #4]
  59:..\common\vms/SidProcessor.c ****         channelData[i].decay = frame->decay[i];
 208              		.loc 1 59 0 discriminator 3
 209 0022 E388     		ldrh	r3, [r4, #6]
  69:..\common\vms/SidProcessor.c ****     }
 210              		.loc 1 69 0 discriminator 3
 211 0024 3046     		mov	r0, r6
  59:..\common\vms/SidProcessor.c ****         channelData[i].decay = frame->decay[i];
 212              		.loc 1 59 0 discriminator 3
 213 0026 2B81     		strh	r3, [r5, #8]	@ movhi
  60:..\common\vms/SidProcessor.c ****         channelData[i].sustainVolume = frame->sustain[i] * 2184;   //scale sustain volume into the 
 214              		.loc 1 60 0 discriminator 3
 215 0028 A389     		ldrh	r3, [r4, #12]
  56:..\common\vms/SidProcessor.c ****         channelData[i].flags = frame->flags[i];
 216              		.loc 1 56 0 discriminator 3
 217 002a 0136     		adds	r6, r6, #1
 218              	.LVL10:
  60:..\common\vms/SidProcessor.c ****         channelData[i].sustainVolume = frame->sustain[i] * 2184;   //scale sustain volume into the 
 219              		.loc 1 60 0 discriminator 3
 220 002c 6B81     		strh	r3, [r5, #10]	@ movhi
  61:..\common\vms/SidProcessor.c ****         channelData[i].release = frame->release[i];
 221              		.loc 1 61 0 discriminator 3
 222 002e 638A     		ldrh	r3, [r4, #18]
 223 0030 2435     		adds	r5, r5, #36
 224 0032 03EB0312 		add	r2, r3, r3, lsl #4
 225 0036 03EB0213 		add	r3, r3, r2, lsl #4
 226 003a DB00     		lsls	r3, r3, #3
 227 003c 25F8183C 		strh	r3, [r5, #-24]	@ movhi
  62:..\common\vms/SidProcessor.c ****         
 228              		.loc 1 62 0 discriminator 3
 229 0040 238B     		ldrh	r3, [r4, #24]
 230 0042 0234     		adds	r4, r4, #2
 231 0044 25F8163C 		strh	r3, [r5, #-22]	@ movhi
  64:..\common\vms/SidProcessor.c ****         channelData[i].pulsewidth = frame->pulsewidth[i];
 232              		.loc 1 64 0 discriminator 3
 233 0048 58F8043F 		ldr	r3, [r8, #4]!
 234 004c 45F8143C 		str	r3, [r5, #-20]
  65:..\common\vms/SidProcessor.c ****         
 235              		.loc 1 65 0 discriminator 3
 236 0050 57F8043F 		ldr	r3, [r7, #4]!
 237 0054 45F8103C 		str	r3, [r5, #-16]
  69:..\common\vms/SidProcessor.c ****     }
 238              		.loc 1 69 0 discriminator 3
 239 0058 FFF7FEFF 		bl	SidFilter_updateVoice
 240              	.LVL11:
  56:..\common\vms/SidProcessor.c ****         channelData[i].flags = frame->flags[i];
 241              		.loc 1 56 0 discriminator 3
 242 005c 032E     		cmp	r6, #3
 243 005e DDD1     		bne	.L20
 244              	.LBE3:
 245              		.loc 1 71 0
 246 0060 BDE8F081 		pop	{r4, r5, r6, r7, r8, pc}
 247              	.LVL12:
ARM GAS  C:\Users\chemi\AppData\Local\Temp\ccctKiRT.s 			page 7


 248              	.L23:
 249              		.align	2
 250              	.L22:
 251 0064 00000000 		.word	.LANCHOR0
 252              		.cfi_endproc
 253              	.LFE71:
 254              		.size	SidProcessor_handleFrame, .-SidProcessor_handleFrame
 255              		.section	.text.SidProcessor_runADSR,"ax",%progbits
 256              		.align	1
 257              		.global	SidProcessor_runADSR
 258              		.thumb
 259              		.thumb_func
 260              		.type	SidProcessor_runADSR, %function
 261              	SidProcessor_runADSR:
 262              	.LFB72:
  72:..\common\vms/SidProcessor.c **** 
  73:..\common\vms/SidProcessor.c **** //run through all channels and calculate ADSR. This is currently designed to run every millisecond
  74:..\common\vms/SidProcessor.c **** //TODO maybe make this slower?
  75:..\common\vms/SidProcessor.c **** void SidProcessor_runADSR(){
 263              		.loc 1 75 0
 264              		.cfi_startproc
 265              		@ args = 0, pretend = 0, frame = 0
 266              		@ frame_needed = 0, uses_anonymous_args = 0
 267              	.LVL13:
 268 0000 2DE9F04F 		push	{r4, r5, r6, r7, r8, r9, r10, fp, lr}
 269              		.cfi_def_cfa_offset 36
 270              		.cfi_offset 4, -36
 271              		.cfi_offset 5, -32
 272              		.cfi_offset 6, -28
 273              		.cfi_offset 7, -24
 274              		.cfi_offset 8, -20
 275              		.cfi_offset 9, -16
 276              		.cfi_offset 10, -12
 277              		.cfi_offset 11, -8
 278              		.cfi_offset 14, -4
 279              	.LBB4:
  76:..\common\vms/SidProcessor.c ****     for(uint32_t currentChannel = 0; currentChannel < N_SIDCHANNEL; currentChannel++){
  77:..\common\vms/SidProcessor.c ****         
  78:..\common\vms/SidProcessor.c ****         //what state are we in?
  79:..\common\vms/SidProcessor.c ****         switch(channelData[currentChannel].adsrState) {
  80:..\common\vms/SidProcessor.c ****             //ADSR IDLE / channel off => check if the gate was just turned on
  81:..\common\vms/SidProcessor.c ****         	case ADSR_IDLE:
  82:..\common\vms/SidProcessor.c ****         		if(channelData[currentChannel].flags & SID_FRAME_FLAG_GATE) channelData[currentChannel].a
  83:..\common\vms/SidProcessor.c ****         		channelData[currentChannel].currentEnvelopeVolume = 0;
  84:..\common\vms/SidProcessor.c ****         		break;
  85:..\common\vms/SidProcessor.c ****         		
  86:..\common\vms/SidProcessor.c ****             //Attack => linearly increase volume until we reach either MAX_VOL if a decay would hap
  87:..\common\vms/SidProcessor.c ****         	case ADSR_ATTACK:
  88:..\common\vms/SidProcessor.c ****                 //is the channel still active?
  89:..\common\vms/SidProcessor.c ****                 if(!(channelData[currentChannel].flags & SID_FRAME_FLAG_GATE)) { 
  90:..\common\vms/SidProcessor.c ****                     //no actually :( Switch to release mode and make sure to remember what volume w
  91:..\common\vms/SidProcessor.c ****         			channelData[currentChannel].adsrState = ADSR_RELEASE;
  92:..\common\vms/SidProcessor.c ****         			channelData[currentChannel].currentEnvelopeStartValue = channelData[currentChannel].curr
  93:..\common\vms/SidProcessor.c ****         			channelData[currentChannel].currentEnvelopeFactor = MAX_VOL;
  94:..\common\vms/SidProcessor.c ****         			break;
  95:..\common\vms/SidProcessor.c ****         		}
  96:..\common\vms/SidProcessor.c ****                 
ARM GAS  C:\Users\chemi\AppData\Local\Temp\ccctKiRT.s 			page 8


  97:..\common\vms/SidProcessor.c ****                 //increase current volume. Speed is given by attack parameter
  98:..\common\vms/SidProcessor.c ****         		channelData[currentChannel].currentEnvelopeVolume += ADSR_speedLut_A[channelData[currentC
  99:..\common\vms/SidProcessor.c ****                 
 100:..\common\vms/SidProcessor.c ****                 //what threshold do we need to compare against? If we reached or exceeded it set to
 101:..\common\vms/SidProcessor.c ****         		if(channelData[currentChannel].decay > 0) {
 102:..\common\vms/SidProcessor.c ****                     //decay is enabled => we must reach 100% volume 
 103:..\common\vms/SidProcessor.c ****         			if(channelData[currentChannel].currentEnvelopeVolume >= MAX_VOL) {
 104:..\common\vms/SidProcessor.c ****         				channelData[currentChannel].adsrState = ADSR_DECAY;
 105:..\common\vms/SidProcessor.c ****         				channelData[currentChannel].currentEnvelopeFactor = MAX_VOL;
 106:..\common\vms/SidProcessor.c ****         				channelData[currentChannel].currentEnvelopeVolume = MAX_VOL;
 107:..\common\vms/SidProcessor.c ****         			}
 108:..\common\vms/SidProcessor.c ****         		}else {
 109:..\common\vms/SidProcessor.c ****                     //decay is enabled => we only need to reach the sustain level
 110:..\common\vms/SidProcessor.c ****         			if(channelData[currentChannel].currentEnvelopeVolume >= channelData[currentChannel].sust
 111:..\common\vms/SidProcessor.c ****         				channelData[currentChannel].adsrState = ADSR_SUSTAIN;
 112:..\common\vms/SidProcessor.c ****         				channelData[currentChannel].currentEnvelopeFactor = MAX_VOL;
 113:..\common\vms/SidProcessor.c ****         				channelData[currentChannel].currentEnvelopeVolume = channelData[currentChannel].sustain
 114:..\common\vms/SidProcessor.c ****         			}
 115:..\common\vms/SidProcessor.c ****         		}
 116:..\common\vms/SidProcessor.c ****         		break;
 117:..\common\vms/SidProcessor.c ****         		
 118:..\common\vms/SidProcessor.c ****             //decay => exponentially reduce volume from max_vol (attack target) to the sustain valu
 119:..\common\vms/SidProcessor.c ****         	case ADSR_DECAY:
 120:..\common\vms/SidProcessor.c ****                 //is the channel still active?
 121:..\common\vms/SidProcessor.c ****         		if(!(channelData[currentChannel].flags & SID_FRAME_FLAG_GATE)){ 
 122:..\common\vms/SidProcessor.c ****                     //no actually :( Switch to release mode and make sure to remember what volume w
 123:..\common\vms/SidProcessor.c ****         			channelData[currentChannel].adsrState = ADSR_RELEASE;
 124:..\common\vms/SidProcessor.c ****         			channelData[currentChannel].currentEnvelopeStartValue = channelData[currentChannel].curr
 125:..\common\vms/SidProcessor.c ****         			channelData[currentChannel].currentEnvelopeFactor = MAX_VOL;
 126:..\common\vms/SidProcessor.c ****         			break;
 127:..\common\vms/SidProcessor.c ****         		}
 128:..\common\vms/SidProcessor.c ****                 
 129:..\common\vms/SidProcessor.c ****                 //exponentially decrease volume at speed given by the decay parameter
 130:..\common\vms/SidProcessor.c ****         		channelData[currentChannel].currentEnvelopeFactor = (channelData[currentChannel].currentE
 131:..\common\vms/SidProcessor.c ****                 
 132:..\common\vms/SidProcessor.c ****                 //check if we reached the target
 133:..\common\vms/SidProcessor.c ****         		if(channelData[currentChannel].currentEnvelopeFactor <= 3500) {
 134:..\common\vms/SidProcessor.c ****                     //yes sustain volume reached => go to next state
 135:..\common\vms/SidProcessor.c ****         			channelData[currentChannel].adsrState = ADSR_SUSTAIN;
 136:..\common\vms/SidProcessor.c ****         			channelData[currentChannel].currentEnvelopeVolume = channelData[currentChannel].sustainV
 137:..\common\vms/SidProcessor.c ****         		}else{
 138:..\common\vms/SidProcessor.c ****                     //no not yet => update adsr volume
 139:..\common\vms/SidProcessor.c ****                     //This is equal to the exponential start volume (MAX_VOL in this case) minus th
 140:..\common\vms/SidProcessor.c ****             		channelData[currentChannel].currentEnvelopeVolume = channelData[currentChannel].susta
 141:..\common\vms/SidProcessor.c ****                 }
 142:..\common\vms/SidProcessor.c ****         		break;
 143:..\common\vms/SidProcessor.c ****         		
 144:..\common\vms/SidProcessor.c ****         	case ADSR_SUSTAIN:
 145:..\common\vms/SidProcessor.c ****                 //is the channel still active?
 146:..\common\vms/SidProcessor.c ****         		if(!(channelData[currentChannel].flags & SID_FRAME_FLAG_GATE)){ 
 147:..\common\vms/SidProcessor.c ****                     //no. Switch to release mode and make sure to remember what volume we reached
 148:..\common\vms/SidProcessor.c ****         			channelData[currentChannel].adsrState = ADSR_RELEASE;
 149:..\common\vms/SidProcessor.c ****         			channelData[currentChannel].currentEnvelopeStartValue = channelData[currentChannel].curr
 150:..\common\vms/SidProcessor.c ****         			channelData[currentChannel].currentEnvelopeFactor = MAX_VOL;
 151:..\common\vms/SidProcessor.c ****         		}
 152:..\common\vms/SidProcessor.c ****         		break;
 153:..\common\vms/SidProcessor.c ****         		
ARM GAS  C:\Users\chemi\AppData\Local\Temp\ccctKiRT.s 			page 9


 154:..\common\vms/SidProcessor.c ****         	case ADSR_RELEASE:
 155:..\common\vms/SidProcessor.c ****                 //is the channel still inactive?
 156:..\common\vms/SidProcessor.c ****         		if(channelData[currentChannel].flags & SID_FRAME_FLAG_GATE) { 
 157:..\common\vms/SidProcessor.c ****                     //no, note turned on again. Restart adsr with the attack state
 158:..\common\vms/SidProcessor.c ****         			channelData[currentChannel].adsrState = ADSR_ATTACK;
 159:..\common\vms/SidProcessor.c ****         			channelData[currentChannel].currentEnvelopeStartValue = channelData[currentChannel].curr
 160:..\common\vms/SidProcessor.c ****         			channelData[currentChannel].currentEnvelopeFactor = MAX_VOL;
 280              		.loc 1 160 0
 281 0004 47F6FF71 		movw	r1, #32767
 103:..\common\vms/SidProcessor.c ****         				channelData[currentChannel].adsrState = ADSR_DECAY;
 282              		.loc 1 103 0
 283 0008 47F6FE79 		movw	r9, #32766
 284 000c 414B     		ldr	r3, .L50
 161:..\common\vms/SidProcessor.c ****         			break;
 162:..\common\vms/SidProcessor.c ****         		}
 163:..\common\vms/SidProcessor.c ****                 
 164:..\common\vms/SidProcessor.c ****                 //exponentially decrease volume at speed given by the release parameter
 165:..\common\vms/SidProcessor.c ****         		channelData[currentChannel].currentEnvelopeFactor = (channelData[currentChannel].currentE
 285              		.loc 1 165 0
 286 000e 424C     		ldr	r4, .L50+4
 287 0010 03F16C0A 		add	r10, r3, #108
 158:..\common\vms/SidProcessor.c ****         			channelData[currentChannel].currentEnvelopeStartValue = channelData[currentChannel].curr
 288              		.loc 1 158 0
 289 0014 0127     		movs	r7, #1
 148:..\common\vms/SidProcessor.c ****         			channelData[currentChannel].currentEnvelopeStartValue = channelData[currentChannel].curr
 290              		.loc 1 148 0
 291 0016 0425     		movs	r5, #4
 135:..\common\vms/SidProcessor.c ****         			channelData[currentChannel].currentEnvelopeVolume = channelData[currentChannel].sustainV
 292              		.loc 1 135 0
 293 0018 4FF0030E 		mov	lr, #3
 104:..\common\vms/SidProcessor.c ****         				channelData[currentChannel].currentEnvelopeFactor = MAX_VOL;
 294              		.loc 1 104 0
 295 001c 4FF00208 		mov	r8, #2
  83:..\common\vms/SidProcessor.c ****         		break;
 296              		.loc 1 83 0
 297 0020 4FF0000C 		mov	ip, #0
 298              	.LVL14:
 299              	.L41:
  79:..\common\vms/SidProcessor.c ****             //ADSR IDLE / channel off => check if the gate was just turned on
 300              		.loc 1 79 0
 301 0024 13F8082C 		ldrb	r2, [r3, #-8]	@ zero_extendqisi2
 302 0028 042A     		cmp	r2, #4
 303 002a 6ED8     		bhi	.L25
 304 002c DFE802F0 		tbb	[pc, r2]
 305              	.L27:
 306 0030 03       		.byte	(.L26-.L27)/2
 307 0031 0C       		.byte	(.L28-.L27)/2
 308 0032 2A       		.byte	(.L29-.L27)/2
 309 0033 48       		.byte	(.L30-.L27)/2
 310 0034 4F       		.byte	(.L31-.L27)/2
 311 0035 00       		.p2align 1
 312              	.L26:
  82:..\common\vms/SidProcessor.c ****         		channelData[currentChannel].currentEnvelopeVolume = 0;
 313              		.loc 1 82 0
 314 0036 53F8042C 		ldr	r2, [r3, #-4]
  83:..\common\vms/SidProcessor.c ****         		break;
 315              		.loc 1 83 0
ARM GAS  C:\Users\chemi\AppData\Local\Temp\ccctKiRT.s 			page 10


 316 003a C3F818C0 		str	ip, [r3, #24]
  82:..\common\vms/SidProcessor.c ****         		channelData[currentChannel].currentEnvelopeVolume = 0;
 317              		.loc 1 82 0
 318 003e 1606     		lsls	r6, r2, #24
 319 0040 48BF     		it	mi
 320 0042 03F8087C 		strbmi	r7, [r3, #-8]
  84:..\common\vms/SidProcessor.c ****         		
 321              		.loc 1 84 0
 322 0046 60E0     		b	.L25
 323              	.L28:
  89:..\common\vms/SidProcessor.c ****                     //no actually :( Switch to release mode and make sure to remember what volume w
 324              		.loc 1 89 0
 325 0048 53F8042C 		ldr	r2, [r3, #-4]
 326 004c 12F0800F 		tst	r2, #128
 327 0050 9A69     		ldr	r2, [r3, #24]
 328 0052 02D1     		bne	.L33
  91:..\common\vms/SidProcessor.c ****         			channelData[currentChannel].currentEnvelopeStartValue = channelData[currentChannel].curr
 329              		.loc 1 91 0
 330 0054 03F8085C 		strb	r5, [r3, #-8]
 331 0058 41E0     		b	.L48
 332              	.L33:
  98:..\common\vms/SidProcessor.c ****                 
 333              		.loc 1 98 0
 334 005a 1888     		ldrh	r0, [r3]
 335 005c 54F82000 		ldr	r0, [r4, r0, lsl #2]
 336 0060 0244     		add	r2, r2, r0
 101:..\common\vms/SidProcessor.c ****                     //decay is enabled => we must reach 100% volume 
 337              		.loc 1 101 0
 338 0062 5888     		ldrh	r0, [r3, #2]
  98:..\common\vms/SidProcessor.c ****                 
 339              		.loc 1 98 0
 340 0064 9A61     		str	r2, [r3, #24]
 101:..\common\vms/SidProcessor.c ****                     //decay is enabled => we must reach 100% volume 
 341              		.loc 1 101 0
 342 0066 30B1     		cbz	r0, .L34
 103:..\common\vms/SidProcessor.c ****         				channelData[currentChannel].adsrState = ADSR_DECAY;
 343              		.loc 1 103 0
 344 0068 4A45     		cmp	r2, r9
 345 006a 4ED9     		bls	.L25
 104:..\common\vms/SidProcessor.c ****         				channelData[currentChannel].currentEnvelopeFactor = MAX_VOL;
 346              		.loc 1 104 0
 347 006c 03F8088C 		strb	r8, [r3, #-8]
 105:..\common\vms/SidProcessor.c ****         				channelData[currentChannel].currentEnvelopeVolume = MAX_VOL;
 348              		.loc 1 105 0
 349 0070 1961     		str	r1, [r3, #16]
 106:..\common\vms/SidProcessor.c ****         			}
 350              		.loc 1 106 0
 351 0072 9961     		str	r1, [r3, #24]
 352 0074 49E0     		b	.L25
 353              	.L34:
 110:..\common\vms/SidProcessor.c ****         				channelData[currentChannel].adsrState = ADSR_SUSTAIN;
 354              		.loc 1 110 0
 355 0076 9888     		ldrh	r0, [r3, #4]
 356 0078 8242     		cmp	r2, r0
 357 007a 46D3     		bcc	.L25
 111:..\common\vms/SidProcessor.c ****         				channelData[currentChannel].currentEnvelopeFactor = MAX_VOL;
 358              		.loc 1 111 0
ARM GAS  C:\Users\chemi\AppData\Local\Temp\ccctKiRT.s 			page 11


 359 007c 03F808EC 		strb	lr, [r3, #-8]
 112:..\common\vms/SidProcessor.c ****         				channelData[currentChannel].currentEnvelopeVolume = channelData[currentChannel].sustain
 360              		.loc 1 112 0
 361 0080 1961     		str	r1, [r3, #16]
 362 0082 41E0     		b	.L46
 363              	.L29:
 121:..\common\vms/SidProcessor.c ****                     //no actually :( Switch to release mode and make sure to remember what volume w
 364              		.loc 1 121 0
 365 0084 53F8042C 		ldr	r2, [r3, #-4]
 366 0088 1006     		lsls	r0, r2, #24
 367 008a 1DD5     		bpl	.L49
 130:..\common\vms/SidProcessor.c ****                 
 368              		.loc 1 130 0
 369 008c 5A88     		ldrh	r2, [r3, #2]
 370 008e 04EB8202 		add	r2, r4, r2, lsl #2
 371 0092 106C     		ldr	r0, [r2, #64]
 372 0094 1A69     		ldr	r2, [r3, #16]
 373 0096 4243     		muls	r2, r0, r2
 133:..\common\vms/SidProcessor.c ****                     //yes sustain volume reached => go to next state
 374              		.loc 1 133 0
 375 0098 40F6AC50 		movw	r0, #3500
 130:..\common\vms/SidProcessor.c ****                 
 376              		.loc 1 130 0
 377 009c 120C     		lsrs	r2, r2, #16
 133:..\common\vms/SidProcessor.c ****                     //yes sustain volume reached => go to next state
 378              		.loc 1 133 0
 379 009e 8242     		cmp	r2, r0
 130:..\common\vms/SidProcessor.c ****                 
 380              		.loc 1 130 0
 381 00a0 1A61     		str	r2, [r3, #16]
 382 00a2 9888     		ldrh	r0, [r3, #4]
 133:..\common\vms/SidProcessor.c ****                     //yes sustain volume reached => go to next state
 383              		.loc 1 133 0
 384 00a4 02D8     		bhi	.L38
 135:..\common\vms/SidProcessor.c ****         			channelData[currentChannel].currentEnvelopeVolume = channelData[currentChannel].sustainV
 385              		.loc 1 135 0
 386 00a6 03F808EC 		strb	lr, [r3, #-8]
 387 00aa 2DE0     		b	.L46
 388              	.L38:
 140:..\common\vms/SidProcessor.c ****                 }
 389              		.loc 1 140 0
 390 00ac C0F5FF4B 		rsb	fp, r0, #32640
 391 00b0 0BF17F0B 		add	fp, fp, #127
 392 00b4 02FB0BF2 		mul	r2, r2, fp
 393 00b8 00EBD232 		add	r2, r0, r2, lsr #15
 394 00bc 9A61     		str	r2, [r3, #24]
 395 00be 24E0     		b	.L25
 396              	.L30:
 146:..\common\vms/SidProcessor.c ****                     //no. Switch to release mode and make sure to remember what volume we reached
 397              		.loc 1 146 0
 398 00c0 53F8042C 		ldr	r2, [r3, #-4]
 399 00c4 1206     		lsls	r2, r2, #24
 400 00c6 20D4     		bmi	.L25
 401              	.L49:
 148:..\common\vms/SidProcessor.c ****         			channelData[currentChannel].currentEnvelopeStartValue = channelData[currentChannel].curr
 402              		.loc 1 148 0
 403 00c8 03F8085C 		strb	r5, [r3, #-8]
ARM GAS  C:\Users\chemi\AppData\Local\Temp\ccctKiRT.s 			page 12


 404 00cc 06E0     		b	.L47
 405              	.L31:
 156:..\common\vms/SidProcessor.c ****                     //no, note turned on again. Restart adsr with the attack state
 406              		.loc 1 156 0
 407 00ce 53F8042C 		ldr	r2, [r3, #-4]
 408 00d2 12F08000 		ands	r0, r2, #128
 409 00d6 05D0     		beq	.L39
 158:..\common\vms/SidProcessor.c ****         			channelData[currentChannel].currentEnvelopeStartValue = channelData[currentChannel].curr
 410              		.loc 1 158 0
 411 00d8 03F8087C 		strb	r7, [r3, #-8]
 412              	.L47:
 159:..\common\vms/SidProcessor.c ****         			channelData[currentChannel].currentEnvelopeFactor = MAX_VOL;
 413              		.loc 1 159 0
 414 00dc 9A69     		ldr	r2, [r3, #24]
 415              	.L48:
 416 00de 5A61     		str	r2, [r3, #20]
 160:..\common\vms/SidProcessor.c ****         			break;
 417              		.loc 1 160 0
 418 00e0 1961     		str	r1, [r3, #16]
 161:..\common\vms/SidProcessor.c ****         		}
 419              		.loc 1 161 0
 420 00e2 12E0     		b	.L25
 421              	.L39:
 422              		.loc 1 165 0
 423 00e4 DA88     		ldrh	r2, [r3, #6]
 424 00e6 1E69     		ldr	r6, [r3, #16]
 425 00e8 04EB8202 		add	r2, r4, r2, lsl #2
 426 00ec 126C     		ldr	r2, [r2, #64]
 427 00ee 7243     		muls	r2, r6, r2
 166:..\common\vms/SidProcessor.c ****                 
 167:..\common\vms/SidProcessor.c ****                 //check if we reached the target
 168:..\common\vms/SidProcessor.c ****         		if(channelData[currentChannel].currentEnvelopeFactor <= 3500) {
 428              		.loc 1 168 0
 429 00f0 40F6AC56 		movw	r6, #3500
 165:..\common\vms/SidProcessor.c ****                 
 430              		.loc 1 165 0
 431 00f4 120C     		lsrs	r2, r2, #16
 432              		.loc 1 168 0
 433 00f6 B242     		cmp	r2, r6
 169:..\common\vms/SidProcessor.c ****                     //yes => go to idle mode
 170:..\common\vms/SidProcessor.c ****         			channelData[currentChannel].adsrState = ADSR_IDLE;
 171:..\common\vms/SidProcessor.c ****         			channelData[currentChannel].currentEnvelopeVolume = 0;
 172:..\common\vms/SidProcessor.c ****         		}else{
 173:..\common\vms/SidProcessor.c ****                     //no => update volume
 174:..\common\vms/SidProcessor.c ****                     //equal to a exponential decay down to zero from currentEnvelopeStartValue
 175:..\common\vms/SidProcessor.c ****                     channelData[currentChannel].currentEnvelopeVolume = (channelData[currentChannel
 434              		.loc 1 175 0
 435 00f8 88BF     		it	hi
 436 00fa 5869     		ldrhi	r0, [r3, #20]
 165:..\common\vms/SidProcessor.c ****                 
 437              		.loc 1 165 0
 438 00fc 1A61     		str	r2, [r3, #16]
 439              		.loc 1 175 0
 440 00fe 8ABF     		itet	hi
 441 0100 5043     		mulhi	r0, r0, r2
 170:..\common\vms/SidProcessor.c ****         			channelData[currentChannel].currentEnvelopeVolume = 0;
 442              		.loc 1 170 0
ARM GAS  C:\Users\chemi\AppData\Local\Temp\ccctKiRT.s 			page 13


 443 0102 03F8080C 		strbls	r0, [r3, #-8]
 444              		.loc 1 175 0
 445 0106 C00B     		lsrhi	r0, r0, #15
 446              	.L46:
 447 0108 9861     		str	r0, [r3, #24]
 448              	.L25:
 449 010a 2433     		adds	r3, r3, #36
  76:..\common\vms/SidProcessor.c ****         
 450              		.loc 1 76 0 discriminator 2
 451 010c 5345     		cmp	r3, r10
 452 010e 89D1     		bne	.L41
 453              	.LBE4:
 176:..\common\vms/SidProcessor.c ****                 }
 177:..\common\vms/SidProcessor.c ****         		break;
 178:..\common\vms/SidProcessor.c ****     	}
 179:..\common\vms/SidProcessor.c ****     }
 180:..\common\vms/SidProcessor.c **** }...
 454              		.loc 1 180 0
 455 0110 BDE8F08F 		pop	{r4, r5, r6, r7, r8, r9, r10, fp, pc}
 456              	.L51:
 457              		.align	2
 458              	.L50:
 459 0114 08000000 		.word	.LANCHOR0+8
 460 0118 00000000 		.word	.LANCHOR1
 461              		.cfi_endproc
 462              	.LFE72:
 463              		.size	SidProcessor_runADSR, .-SidProcessor_runADSR
 464              		.comm	ramp,406,2
 465              		.comm	interrupter,12,4
 466              		.section	.rodata
 467              		.align	2
 468              		.set	.LANCHOR1,. + 0
 469              		.type	ADSR_speedLut_A, %object
 470              		.size	ADSR_speedLut_A, 64
 471              	ADSR_speedLut_A:
 472 0000 FFFF0000 		.word	65535
 473 0004 00400000 		.word	16384
 474 0008 00200000 		.word	8192
 475 000c 53150000 		.word	5459
 476 0010 790D0000 		.word	3449
 477 0014 25090000 		.word	2341
 478 0018 88070000 		.word	1928
 479 001c 66060000 		.word	1638
 480 0020 1F050000 		.word	1311
 481 0024 0C020000 		.word	524
 482 0028 06010000 		.word	262
 483 002c A4000000 		.word	164
 484 0030 83000000 		.word	131
 485 0034 2C000000 		.word	44
 486 0038 1A000000 		.word	26
 487 003c 10000000 		.word	16
 488              		.type	ADSR_speedLut_DR, %object
 489              		.size	ADSR_speedLut_DR, 64
 490              	ADSR_speedLut_DR:
 491 0040 639B0000 		.word	39779
 492 0044 F6E10000 		.word	57846
 493 0048 83F00000 		.word	61571
ARM GAS  C:\Users\chemi\AppData\Local\Temp\ccctKiRT.s 			page 14


 494 004c 91F50000 		.word	62865
 495 0050 5CF90000 		.word	63836
 496 0054 7AFB0000 		.word	64378
 497 0058 45FC0000 		.word	64581
 498 005c D3FC0000 		.word	64723
 499 0060 75FD0000 		.word	64885
 500 0064 FBFE0000 		.word	65275
 501 0068 7DFF0000 		.word	65405
 502 006c AEFF0000 		.word	65454
 503 0070 BFFF0000 		.word	65471
 504 0074 EAFF0000 		.word	65514
 505 0078 F3FF0000 		.word	65523
 506 007c F8FF0000 		.word	65528
 507              		.section	.rodata.str1.1,"aMS",%progbits,1
 508              	.LC0:
 509 0000 4E4F4953 		.ascii	"NOISE\000"
 509      4500
 510              	.LC1:
 511 0006 53515541 		.ascii	"SQUARE\000"
 511      524500
 512              	.LC2:
 513 000d 53415754 		.ascii	"SAWTOOTH\000"
 513      4F4F5448 
 513      00
 514              	.LC3:
 515 0016 54524941 		.ascii	"TRIANGLE\000"
 515      4E474C45 
 515      00
 516              	.LC4:
 517 001f 3F00     		.ascii	"?\000"
 518              		.bss
 519              		.align	2
 520              		.set	.LANCHOR0,. + 0
 521              		.type	channelData, %object
 522              		.size	channelData, 108
 523              	channelData:
 524 0000 00000000 		.space	108
 524      00000000 
 524      00000000 
 524      00000000 
 524      00000000 
 525              		.text
 526              	.Letext0:
 527              		.file 2 "c:\\program files (x86)\\cypress\\psoc creator\\4.4\\psoc creator\\import\\gnu\\arm\\5.4.
 528              		.file 3 "c:\\program files (x86)\\cypress\\psoc creator\\4.4\\psoc creator\\import\\gnu\\arm\\5.4.
 529              		.file 4 "..\\common\\ud3core/tasks/tsk_sid.h"
 530              		.file 5 "..\\common\\rtos\\include/timers.h"
 531              		.file 6 "..\\common\\ud3core/interrupter.h"
 532              		.file 7 "..\\common\\ud3core/qcw.h"
 533              		.file 8 "Generated_Source\\PSoC5/core_cm3.h"
 534              		.file 9 "..\\common\\vms\\SidFilter.h"