ARM GAS  C:\Users\chemi\AppData\Local\Temp\ccbZzKkH.s 			page 1


   1              		.syntax unified
   2              		.cpu cortex-m3
   3              		.fpu softvfp
   4              		.eabi_attribute 20, 1
   5              		.eabi_attribute 21, 1
   6              		.eabi_attribute 23, 3
   7              		.eabi_attribute 24, 1
   8              		.eabi_attribute 25, 1
   9              		.eabi_attribute 26, 1
  10              		.eabi_attribute 30, 4
  11              		.eabi_attribute 34, 1
  12              		.eabi_attribute 18, 4
  13              		.thumb
  14              		.syntax unified
  15              		.file	"SignalGenerator.c"
  16              		.text
  17              	.Ltext0:
  18              		.cfi_sections	.debug_frame
  19              		.section	.text.SigGen_setHyperVoiceParams,"ax",%progbits
  20              		.align	1
  21              		.thumb
  22              		.thumb_func
  23              		.type	SigGen_setHyperVoiceParams, %function
  24              	SigGen_setHyperVoiceParams:
  25              	.LFB73:
  26              		.file 1 "..\\common\\ud3core\\SignalGenerator.c"
   1:..\common\ud3core/SignalGenerator.c **** /*
   2:..\common\ud3core/SignalGenerator.c ****  * UD3 - NVM
   3:..\common\ud3core/SignalGenerator.c ****  *
   4:..\common\ud3core/SignalGenerator.c ****  * Copyright (c) 2021 Jens Kerrinnes
   5:..\common\ud3core/SignalGenerator.c ****  *
   6:..\common\ud3core/SignalGenerator.c ****  * Permission is hereby granted, free of charge, to any person obtaining a copy of
   7:..\common\ud3core/SignalGenerator.c ****  * this software and associated documentation files (the "Software"), to deal in
   8:..\common\ud3core/SignalGenerator.c ****  * the Software without restriction, including without limitation the rights to
   9:..\common\ud3core/SignalGenerator.c ****  * use, copy, modify, merge, publish, distribute, sublicense, and/or sell copies of
  10:..\common\ud3core/SignalGenerator.c ****  * the Software, and to permit persons to whom the Software is furnished to do so,
  11:..\common\ud3core/SignalGenerator.c ****  * subject to the following conditions:
  12:..\common\ud3core/SignalGenerator.c ****  *
  13:..\common\ud3core/SignalGenerator.c ****  * The above copyright notice and this permission notice shall be included in all
  14:..\common\ud3core/SignalGenerator.c ****  * copies or substantial portions of the Software.
  15:..\common\ud3core/SignalGenerator.c ****  *
  16:..\common\ud3core/SignalGenerator.c ****  * THE SOFTWARE IS PROVIDED "AS IS", WITHOUT WARRANTY OF ANY KIND, EXPRESS OR
  17:..\common\ud3core/SignalGenerator.c ****  * IMPLIED, INCLUDING BUT NOT LIMITED TO THE WARRANTIES OF MERCHANTABILITY, FITNESS
  18:..\common\ud3core/SignalGenerator.c ****  * FOR A PARTICULAR PURPOSE AND NONINFRINGEMENT. IN NO EVENT SHALL THE AUTHORS OR
  19:..\common\ud3core/SignalGenerator.c ****  * COPYRIGHT HOLDERS BE LIABLE FOR ANY CLAIM, DAMAGES OR OTHER LIABILITY, WHETHER
  20:..\common\ud3core/SignalGenerator.c ****  * IN AN ACTION OF CONTRACT, TORT OR OTHERWISE, ARISING FROM, OUT OF OR IN
  21:..\common\ud3core/SignalGenerator.c ****  * CONNECTION WITH THE SOFTWARE OR THE USE OR OTHER DEALINGS IN THE SOFTWARE.
  22:..\common\ud3core/SignalGenerator.c **** */
  23:..\common\ud3core/SignalGenerator.c **** 
  24:..\common\ud3core/SignalGenerator.c **** #include <stdlib.h>
  25:..\common\ud3core/SignalGenerator.c **** #include <limits.h>
  26:..\common\ud3core/SignalGenerator.c **** #include <cytypes.h>
  27:..\common\ud3core/SignalGenerator.c **** 
  28:..\common\ud3core/SignalGenerator.c **** #include "clock.h"
  29:..\common\ud3core/SignalGenerator.c **** #include "qcw.h"
  30:..\common\ud3core/SignalGenerator.c **** #include "ZCDtoPWM.h"
  31:..\common\ud3core/SignalGenerator.c **** #include "cli_common.h"
ARM GAS  C:\Users\chemi\AppData\Local\Temp\ccbZzKkH.s 			page 2


  32:..\common\ud3core/SignalGenerator.c **** 
  33:..\common\ud3core/SignalGenerator.c **** #include "FreeRTOS.h"
  34:..\common\ud3core/SignalGenerator.c **** #include "task.h"
  35:..\common\ud3core/SignalGenerator.c **** #include "SignalGenerator.h"
  36:..\common\ud3core/SignalGenerator.c **** #include "DutyCompressor.h"
  37:..\common\ud3core/SignalGenerator.c **** #include "RingBuffer/include/RingBuffer.h"
  38:..\common\ud3core/SignalGenerator.c **** #include "interrupter.h"
  39:..\common\ud3core/SignalGenerator.c **** #include "tasks/tsk_cli.h"
  40:..\common\ud3core/SignalGenerator.c **** #include "telemetry.h"
  41:..\common\ud3core/SignalGenerator.c **** #ifdef SIMULATOR
  42:..\common\ud3core/SignalGenerator.c **** #include "tsk_audio.h"
  43:..\common\ud3core/SignalGenerator.c **** #endif
  44:..\common\ud3core/SignalGenerator.c **** 
  45:..\common\ud3core/SignalGenerator.c **** //static int32_t SigGen_otDeriv = 0;
  46:..\common\ud3core/SignalGenerator.c **** //static int32_t SigGen_otCurveStart = 0;
  47:..\common\ud3core/SignalGenerator.c **** static int32_t SigGen_minOt = 0;
  48:..\common\ud3core/SignalGenerator.c **** 
  49:..\common\ud3core/SignalGenerator.c **** static SigGen_taskData_t * taskData;
  50:..\common\ud3core/SignalGenerator.c **** 
  51:..\common\ud3core/SignalGenerator.c **** //static uint32_t isOutputInErrorState = 0;
  52:..\common\ud3core/SignalGenerator.c **** 
  53:..\common\ud3core/SignalGenerator.c **** static void SigGen_task(void * params);
  54:..\common\ud3core/SignalGenerator.c **** 
  55:..\common\ud3core/SignalGenerator.c **** static uint32_t masterVolume = MAX_VOL;
  56:..\common\ud3core/SignalGenerator.c **** static uint8_t synthMode = SYNTH_OFF;
  57:..\common\ud3core/SignalGenerator.c **** 
  58:..\common\ud3core/SignalGenerator.c **** //current pulse the timer is waiting to run
  59:..\common\ud3core/SignalGenerator.c **** static SigGen_pulseData_t readPulse;
  60:..\common\ud3core/SignalGenerator.c **** 
  61:..\common\ud3core/SignalGenerator.c **** uint32_t VoiceFlags[SIGGEN_VOICECOUNT];
  62:..\common\ud3core/SignalGenerator.c **** 
  63:..\common\ud3core/SignalGenerator.c **** static uint32_t isEnabled = 1;
  64:..\common\ud3core/SignalGenerator.c **** 
  65:..\common\ud3core/SignalGenerator.c **** static volatile uint32_t voicesToEradicate = 0;
  66:..\common\ud3core/SignalGenerator.c **** 
  67:..\common\ud3core/SignalGenerator.c **** #define SIGGEN_MS_TO_PERIOD_COUNT(X) (X) * 32000
  68:..\common\ud3core/SignalGenerator.c **** #define SIGGEN_US_TO_PERIOD_COUNT(X) (X) * 32
  69:..\common\ud3core/SignalGenerator.c **** #define SIGGEN_PERIOD_COUNT_TO_US(X) (X) >> 5 // >> 5 = /32
  70:..\common\ud3core/SignalGenerator.c **** #define SIGGEN_US_TO_OT_COUNT(X) (X)
  71:..\common\ud3core/SignalGenerator.c **** #define SIGGEN_VOLUME_TO_CURRENT_DAC_VALUE(X) (params.min_tr_cl_dac_val + (((X) * params.diff_tr_cl
  72:..\common\ud3core/SignalGenerator.c **** 
  73:..\common\ud3core/SignalGenerator.c **** #define SIGGEN_CLEAR_LONG_PULSE 0x8000
  74:..\common\ud3core/SignalGenerator.c **** #define SIGGEN_ERADICATE_REQUIRED 0xff  //TODO maybe make this dynamic? Depending on the voice coun
  75:..\common\ud3core/SignalGenerator.c **** 
  76:..\common\ud3core/SignalGenerator.c **** #define SIGGEN_LONG_DELAY_THRESHOLD_ms 2
  77:..\common\ud3core/SignalGenerator.c **** 
  78:..\common\ud3core/SignalGenerator.c **** #define SigGen_isTimerRunning() (interrupterTimebase_ReadControlRegister() & interrupterTimebase_CT
  79:..\common\ud3core/SignalGenerator.c **** #define SigGen_startTimer() interrupterTimebase_WriteControlRegister(interrupterTimebase_ReadContro
  80:..\common\ud3core/SignalGenerator.c **** #define SigGen_stopTimer() interrupterTimebase_WriteControlRegister(interrupterTimebase_ReadControl
  81:..\common\ud3core/SignalGenerator.c **** 
  82:..\common\ud3core/SignalGenerator.c **** #define SigGen_isTimerISREnabled() interrupterIRQ_GetState()
  83:..\common\ud3core/SignalGenerator.c **** #define SigGen_disableTimerISR() interrupterIRQ_Disable()
  84:..\common\ud3core/SignalGenerator.c **** #define SigGen_enableTimerISR() interrupterIRQ_Enable()
  85:..\common\ud3core/SignalGenerator.c **** 
  86:..\common\ud3core/SignalGenerator.c **** #define SIGGEN_GET_PULSE(VOICE, TARGETPULSE) TARGETPULSE.current = VOICE.pulseVolume; TARGETPULSE.p
  87:..\common\ud3core/SignalGenerator.c **** #define SIGGEN_GET_PULSE_HPV(VOICE, TARGETPULSE) TARGETPULSE.current = VOICE.hpvVolume; TARGETPULSE
  88:..\common\ud3core/SignalGenerator.c **** #define SIGGEN_COPY_PULSE(TARGETPULSE, SRCPULSE) TARGETPULSE.current = SRCPULSE.current; TARGETPULS
ARM GAS  C:\Users\chemi\AppData\Local\Temp\ccbZzKkH.s 			page 3


  89:..\common\ud3core/SignalGenerator.c **** 
  90:..\common\ud3core/SignalGenerator.c **** static void SigGen_setHyperVoiceParams(uint32_t voice, uint32_t count, uint32_t pulseWidth, uint32_
  91:..\common\ud3core/SignalGenerator.c **** static void SigGen_setVoiceParams(uint32_t voice, uint32_t enabled, int32_t pulseWidth, int32_t vol
  92:..\common\ud3core/SignalGenerator.c **** 
  93:..\common\ud3core/SignalGenerator.c **** uint32_t IsOkToPrint = 0;
  94:..\common\ud3core/SignalGenerator.c **** 
  95:..\common\ud3core/SignalGenerator.c **** CY_ISR(isr_synth) {   
  96:..\common\ud3core/SignalGenerator.c ****     clock_tick();
  97:..\common\ud3core/SignalGenerator.c ****     if(QCW_enable_Control){
  98:..\common\ud3core/SignalGenerator.c ****         qcw_handle();
  99:..\common\ud3core/SignalGenerator.c ****         return;
 100:..\common\ud3core/SignalGenerator.c ****     }
 101:..\common\ud3core/SignalGenerator.c **** }
 102:..\common\ud3core/SignalGenerator.c ****     
 103:..\common\ud3core/SignalGenerator.c **** CY_ISR(SigGen_PulseTimerISR){
 104:..\common\ud3core/SignalGenerator.c ****     interrupterTimebase_ReadStatusRegister();
 105:..\common\ud3core/SignalGenerator.c ****     interrupterIRQ_ClearPending();
 106:..\common\ud3core/SignalGenerator.c ****     
 107:..\common\ud3core/SignalGenerator.c ****     //start the previous pulse
 108:..\common\ud3core/SignalGenerator.c ****     if(!(readPulse.current == 0 || readPulse.onTime == 0)){
 109:..\common\ud3core/SignalGenerator.c ****         if(configuration.is_qcw == 0 || synthMode == SYNTH_TR){ //Don't command a pulse in QCW mode
 110:..\common\ud3core/SignalGenerator.c ****             interrupter_oneshotRaw(readPulse.onTime, readPulse.current);
 111:..\common\ud3core/SignalGenerator.c ****         }
 112:..\common\ud3core/SignalGenerator.c ****     }
 113:..\common\ud3core/SignalGenerator.c ****     
 114:..\common\ud3core/SignalGenerator.c ****     //try to read the next pulse
 115:..\common\ud3core/SignalGenerator.c ****     while(1){
 116:..\common\ud3core/SignalGenerator.c ****         if(RingBuffer_readFromISR(taskData->pulseBuffer, (void*)&readPulse, 1) == 1){
 117:..\common\ud3core/SignalGenerator.c ****             //check if we got valid pulse and if not retry
 118:..\common\ud3core/SignalGenerator.c ****             if(readPulse.period == 0){ 
 119:..\common\ud3core/SignalGenerator.c ****                 readPulse.period = 1;
 120:..\common\ud3core/SignalGenerator.c ****                 continue;
 121:..\common\ud3core/SignalGenerator.c ****             }
 122:..\common\ud3core/SignalGenerator.c ****             
 123:..\common\ud3core/SignalGenerator.c ****             //and finally reduce the buffer size
 124:..\common\ud3core/SignalGenerator.c ****             taskData->bufferLengthInCounts -= readPulse.period;
 125:..\common\ud3core/SignalGenerator.c ****             
 126:..\common\ud3core/SignalGenerator.c ****             if(readPulse.period < SIGGEN_MIN_PERIOD){ 
 127:..\common\ud3core/SignalGenerator.c ****                 //TODO evaluate occurance of this happening. Should be impossible and if it does ha
 128:..\common\ud3core/SignalGenerator.c ****                 readPulse.period = SIGGEN_MIN_PERIOD;
 129:..\common\ud3core/SignalGenerator.c ****             }
 130:..\common\ud3core/SignalGenerator.c ****             
 131:..\common\ud3core/SignalGenerator.c ****             //load timer registers
 132:..\common\ud3core/SignalGenerator.c ****             interrupterTimebase_WriteCompare(readPulse.period);
 133:..\common\ud3core/SignalGenerator.c ****             
 134:..\common\ud3core/SignalGenerator.c ****             //we got a valid time => exit loop
 135:..\common\ud3core/SignalGenerator.c ****             break;
 136:..\common\ud3core/SignalGenerator.c **** 
 137:..\common\ud3core/SignalGenerator.c ****             //is the timer already running longer than the period? if so make it trigger as soon as
 138:..\common\ud3core/SignalGenerator.c ****             //TODO evaluate if this is actually neccessary. After all the timer compare mode is set
 139:..\common\ud3core/SignalGenerator.c ****         }else{
 140:..\common\ud3core/SignalGenerator.c ****             //no more pulses in the buffer or other error. Turn off the timer 
 141:..\common\ud3core/SignalGenerator.c ****             SigGen_stopTimer();
 142:..\common\ud3core/SignalGenerator.c ****             
 143:..\common\ud3core/SignalGenerator.c ****             //also there is no way that there is still some time left in the buffer... clear it jus
 144:..\common\ud3core/SignalGenerator.c ****             taskData->bufferLengthInCounts = 0;
 145:..\common\ud3core/SignalGenerator.c ****             
ARM GAS  C:\Users\chemi\AppData\Local\Temp\ccbZzKkH.s 			page 4


 146:..\common\ud3core/SignalGenerator.c ****             //no more pulses could be read out => jsut exit from the loop
 147:..\common\ud3core/SignalGenerator.c ****             break;
 148:..\common\ud3core/SignalGenerator.c ****         }
 149:..\common\ud3core/SignalGenerator.c ****         
 150:..\common\ud3core/SignalGenerator.c ****     }
 151:..\common\ud3core/SignalGenerator.c **** }
 152:..\common\ud3core/SignalGenerator.c **** 
 153:..\common\ud3core/SignalGenerator.c **** uint8_t callback_siggen(parameter_entry * params, uint8_t index, TERMINAL_HANDLE * handle){
 154:..\common\ud3core/SignalGenerator.c ****     //update minimum OT parameter
 155:..\common\ud3core/SignalGenerator.c ****     SigGen_minOt = (configuration.max_tr_pw * configuration.SigGen_minOtOffset) / 100;
 156:..\common\ud3core/SignalGenerator.c ****     
 157:..\common\ud3core/SignalGenerator.c ****     return pdPASS;
 158:..\common\ud3core/SignalGenerator.c **** }
 159:..\common\ud3core/SignalGenerator.c **** 
 160:..\common\ud3core/SignalGenerator.c **** void SigGen_init(){
 161:..\common\ud3core/SignalGenerator.c ****     //initialize flags needed for masking voices
 162:..\common\ud3core/SignalGenerator.c ****     for(uint32_t i = 0; i < SIGGEN_VOICECOUNT; i++){
 163:..\common\ud3core/SignalGenerator.c ****         VoiceFlags[i] = 1<<i;
 164:..\common\ud3core/SignalGenerator.c ****     }
 165:..\common\ud3core/SignalGenerator.c ****     
 166:..\common\ud3core/SignalGenerator.c ****     SigGen_taskData_t * data = pvPortMalloc(sizeof(SigGen_taskData_t));
 167:..\common\ud3core/SignalGenerator.c ****     memset((void *)data, 0, sizeof(SigGen_taskData_t));
 168:..\common\ud3core/SignalGenerator.c ****     taskData = data;
 169:..\common\ud3core/SignalGenerator.c ****     
 170:..\common\ud3core/SignalGenerator.c ****     //create pulse buffer
 171:..\common\ud3core/SignalGenerator.c ****     data->pulseBuffer = RingBuffer_create(64, sizeof(SigGen_pulseData_t));
 172:..\common\ud3core/SignalGenerator.c ****     
 173:..\common\ud3core/SignalGenerator.c ****     //initialize timers
 174:..\common\ud3core/SignalGenerator.c ****     
 175:..\common\ud3core/SignalGenerator.c ****     //Timer 2&3 generate the signal period. 32Bit mode, no prescaler
 176:..\common\ud3core/SignalGenerator.c ****     interrupterTimebase_Init();
 177:..\common\ud3core/SignalGenerator.c ****     interrupterIRQ_StartEx(SigGen_PulseTimerISR);
 178:..\common\ud3core/SignalGenerator.c ****     
 179:..\common\ud3core/SignalGenerator.c ****     isr_midi_StartEx(isr_synth);
 180:..\common\ud3core/SignalGenerator.c ****     
 181:..\common\ud3core/SignalGenerator.c ****     xTaskCreate(SigGen_task, "SigGen", configMINIMAL_STACK_SIZE+128, (void*) data, tskIDLE_PRIORITY
 182:..\common\ud3core/SignalGenerator.c **** }
 183:..\common\ud3core/SignalGenerator.c **** 
 184:..\common\ud3core/SignalGenerator.c **** //calculate the dutycycle and return it in percent
 185:..\common\ud3core/SignalGenerator.c **** uint32_t SigGen_getCurrDuty(){
 186:..\common\ud3core/SignalGenerator.c ****     uint32_t totalDuty = 0; //DER TOTAAALE TASTGRAD
 187:..\common\ud3core/SignalGenerator.c ****     
 188:..\common\ud3core/SignalGenerator.c ****     //calculate dutycycle of every voice and add it to the total dutycycle
 189:..\common\ud3core/SignalGenerator.c ****     for(uint32_t currVoice = 0; currVoice < SIGGEN_VOICECOUNT; currVoice++){
 190:..\common\ud3core/SignalGenerator.c ****         if(!taskData->voice[currVoice].enabled) continue;
 191:..\common\ud3core/SignalGenerator.c ****         
 192:..\common\ud3core/SignalGenerator.c ****         //dutycycle = frequency * pulseWidth; pulsewidth calculation from volume already takes the 
 193:..\common\ud3core/SignalGenerator.c ****         
 194:..\common\ud3core/SignalGenerator.c ****         //scale to correct for the error from A: microseconds to seconds of OT, B: 10ths of a hertz
 195:..\common\ud3core/SignalGenerator.c ****         uint32_t ourDuty = (taskData->voice[currVoice].pulseWidth_us * taskData->voice[currVoice].f
 196:..\common\ud3core/SignalGenerator.c ****         
 197:..\common\ud3core/SignalGenerator.c ****         //is hypervoice on? if so add the duty from the second pulse
 198:..\common\ud3core/SignalGenerator.c ****         if(taskData->voice[currVoice].hpvCount != 0 && taskData->voice[currVoice].noiseAmplitude ==
 199:..\common\ud3core/SignalGenerator.c ****             //TODO actually respect the hpv divider in the duty calculation
 200:..\common\ud3core/SignalGenerator.c ****             //scale to correct for the error from A: microseconds to seconds of OT, B: 10ths of a h
 201:..\common\ud3core/SignalGenerator.c ****             ourDuty += ((taskData->voice[currVoice].pulseWidth_us / taskData->voice[currVoice].hpvC
 202:..\common\ud3core/SignalGenerator.c ****         }
ARM GAS  C:\Users\chemi\AppData\Local\Temp\ccbZzKkH.s 			page 5


 203:..\common\ud3core/SignalGenerator.c ****         totalDuty += ourDuty;
 204:..\common\ud3core/SignalGenerator.c ****     }
 205:..\common\ud3core/SignalGenerator.c ****     
 206:..\common\ud3core/SignalGenerator.c ****     //scale current duty by the compressor volume
 207:..\common\ud3core/SignalGenerator.c ****     if(Comp_getGain() != COMP_UNITYGAIN) totalDuty = (totalDuty * Comp_getGain()) >> 15;
 208:..\common\ud3core/SignalGenerator.c ****     
 209:..\common\ud3core/SignalGenerator.c ****     return totalDuty;
 210:..\common\ud3core/SignalGenerator.c **** }
 211:..\common\ud3core/SignalGenerator.c **** 
 212:..\common\ud3core/SignalGenerator.c **** //phase is 0-100% fixed point with a maximum of 1024=1
 213:..\common\ud3core/SignalGenerator.c **** static void SigGen_setHyperVoiceParams(uint32_t voice, uint32_t count, uint32_t pulseWidth, uint32_
  27              		.loc 1 213 0
  28              		.cfi_startproc
  29              		@ args = 4, pretend = 0, frame = 0
  30              		@ frame_needed = 0, uses_anonymous_args = 0
  31              	.LVL0:
  32 0000 F0B5     		push	{r4, r5, r6, r7, lr}
  33              		.cfi_def_cfa_offset 20
  34              		.cfi_offset 4, -20
  35              		.cfi_offset 5, -16
  36              		.cfi_offset 6, -12
  37              		.cfi_offset 7, -8
  38              		.cfi_offset 14, -4
  39              		.loc 1 213 0
  40 0002 059D     		ldr	r5, [sp, #20]
  41 0004 DFF868E0 		ldr	lr, .L13+4
 214:..\common\ud3core/SignalGenerator.c ****     if(count == 0 || taskData->voice[voice].noiseAmplitude || masterVolume == 0 || volume == 0){
  42              		.loc 1 214 0
  43 0008 51B1     		cbz	r1, .L2
  44              		.loc 1 214 0 is_stmt 0 discriminator 1
  45 000a DEF80060 		ldr	r6, [lr]
  46 000e 6824     		movs	r4, #104
  47 0010 04FB0064 		mla	r4, r4, r0, r6
  48 0014 276B     		ldr	r7, [r4, #48]
  49 0016 1FB9     		cbnz	r7, .L2
  50              		.loc 1 214 0 discriminator 2
  51 0018 144F     		ldr	r7, .L13
  52 001a 3F68     		ldr	r7, [r7]
  53 001c 07B1     		cbz	r7, .L2
  54              		.loc 1 214 0 discriminator 3
  55 001e 83B9     		cbnz	r3, .L3
  56              	.L2:
 215:..\common\ud3core/SignalGenerator.c ****         taskData->voice[voice].limitedHpvPulseWidth_us = 0;
  57              		.loc 1 215 0 is_stmt 1
  58 0020 DEF80020 		ldr	r2, [lr]
  59              	.LVL1:
  60 0024 6823     		movs	r3, #104
  61              	.LVL2:
  62 0026 03FB0020 		mla	r0, r3, r0, r2
  63              	.LVL3:
  64 002a 0023     		movs	r3, #0
  65 002c C365     		str	r3, [r0, #92]
 216:..\common\ud3core/SignalGenerator.c ****         taskData->voice[voice].hpvPulseWidth_us = 0;
  66              		.loc 1 216 0
  67 002e 8365     		str	r3, [r0, #88]
 217:..\common\ud3core/SignalGenerator.c ****         
 218:..\common\ud3core/SignalGenerator.c ****         taskData->voice[voice].limitedHpvCount = 0;
ARM GAS  C:\Users\chemi\AppData\Local\Temp\ccbZzKkH.s 			page 6


  68              		.loc 1 218 0
  69 0030 4362     		str	r3, [r0, #36]
 219:..\common\ud3core/SignalGenerator.c ****         taskData->voice[voice].hpvCount = 0;
  70              		.loc 1 219 0
  71 0032 0362     		str	r3, [r0, #32]
 220:..\common\ud3core/SignalGenerator.c ****         taskData->voice[voice].hpvVolume = 0;
  72              		.loc 1 220 0
  73 0034 0364     		str	r3, [r0, #64]
 221:..\common\ud3core/SignalGenerator.c ****         taskData->voice[voice].initialHpvVolume = 0;
  74              		.loc 1 221 0
  75 0036 C364     		str	r3, [r0, #76]
 222:..\common\ud3core/SignalGenerator.c ****         taskData->voice[voice].hpvPhase = 0;
  76              		.loc 1 222 0
  77 0038 C363     		str	r3, [r0, #60]
 223:..\common\ud3core/SignalGenerator.c ****         taskData->voice[voice].currHPVDivider = INT_MAX;
  78              		.loc 1 223 0
  79 003a 6FF00043 		mvn	r3, #-2147483648
  80 003e C360     		str	r3, [r0, #12]
 224:..\common\ud3core/SignalGenerator.c ****         return;
  81              		.loc 1 224 0
  82 0040 F0BD     		pop	{r4, r5, r6, r7, pc}
  83              	.LVL4:
  84              	.L3:
 225:..\common\ud3core/SignalGenerator.c ****     }
 226:..\common\ud3core/SignalGenerator.c ****     
 227:..\common\ud3core/SignalGenerator.c ****     taskData->voice[voice].initialHpvVolume = volume;
  85              		.loc 1 227 0
  86 0042 E364     		str	r3, [r4, #76]
 228:..\common\ud3core/SignalGenerator.c ****     taskData->voice[voice].hpvVolume = (volume * masterVolume) >> 15;
  87              		.loc 1 228 0
  88 0044 7B43     		muls	r3, r7, r3
  89              	.LVL5:
  90 0046 DB0B     		lsrs	r3, r3, #15
  91 0048 2364     		str	r3, [r4, #64]
  92              	.LVL6:
 229:..\common\ud3core/SignalGenerator.c ****     taskData->voice[voice].hpvPulseWidth_us = pulseWidth;
  93              		.loc 1 229 0
  94 004a A265     		str	r2, [r4, #88]
 230:..\common\ud3core/SignalGenerator.c ****     taskData->voice[voice].hpvPhase = (count > 0) ? phase : 0;
  95              		.loc 1 230 0
  96 004c E563     		str	r5, [r4, #60]
 231:..\common\ud3core/SignalGenerator.c ****     taskData->voice[voice].hpvCount = count;
  97              		.loc 1 231 0
  98 004e 2162     		str	r1, [r4, #32]
 232:..\common\ud3core/SignalGenerator.c ****     
 233:..\common\ud3core/SignalGenerator.c ****     if(taskData->voice[voice].currHPVDivider > taskData->voice[voice].hpvCount) taskData->voice[voi
  99              		.loc 1 233 0
 100 0050 E268     		ldr	r2, [r4, #12]
 101              	.LVL7:
 102 0052 236A     		ldr	r3, [r4, #32]
 103 0054 9A42     		cmp	r2, r3
 104 0056 C4BF     		itt	gt
 105 0058 236A     		ldrgt	r3, [r4, #32]
 106 005a E360     		strgt	r3, [r4, #12]
 234:..\common\ud3core/SignalGenerator.c ****     
 235:..\common\ud3core/SignalGenerator.c ****     taskData->voice[voice].hpvOffset = (count > 0) ? (phase * taskData->voice[voice].period) >> 10 
 107              		.loc 1 235 0
ARM GAS  C:\Users\chemi\AppData\Local\Temp\ccbZzKkH.s 			page 7


 108 005c 6823     		movs	r3, #104
 109 005e 03FB0060 		mla	r0, r3, r0, r6
 110              	.LVL8:
 111 0062 0369     		ldr	r3, [r0, #16]
 112 0064 5D43     		muls	r5, r3, r5
 113 0066 AD0A     		lsrs	r5, r5, #10
 114 0068 C561     		str	r5, [r0, #28]
 115 006a F0BD     		pop	{r4, r5, r6, r7, pc}
 116              	.LVL9:
 117              	.L14:
 118              		.align	2
 119              	.L13:
 120 006c 00000000 		.word	.LANCHOR1
 121 0070 00000000 		.word	.LANCHOR0
 122              		.cfi_endproc
 123              	.LFE73:
 124              		.size	SigGen_setHyperVoiceParams, .-SigGen_setHyperVoiceParams
 125              		.section	.text.isr_synth,"ax",%progbits
 126              		.align	1
 127              		.global	isr_synth
 128              		.thumb
 129              		.thumb_func
 130              		.type	isr_synth, %function
 131              	isr_synth:
 132              	.LFB68:
  95:..\common\ud3core/SignalGenerator.c ****     clock_tick();
 133              		.loc 1 95 0
 134              		.cfi_startproc
 135              		@ args = 0, pretend = 0, frame = 0
 136              		@ frame_needed = 0, uses_anonymous_args = 0
 137 0000 08B5     		push	{r3, lr}
 138              		.cfi_def_cfa_offset 8
 139              		.cfi_offset 3, -8
 140              		.cfi_offset 14, -4
  96:..\common\ud3core/SignalGenerator.c ****     if(QCW_enable_Control){
 141              		.loc 1 96 0
 142 0002 FFF7FEFF 		bl	clock_tick
 143              	.LVL10:
  97:..\common\ud3core/SignalGenerator.c ****         qcw_handle();
 144              		.loc 1 97 0
 145 0006 044B     		ldr	r3, .L17
 146 0008 1B78     		ldrb	r3, [r3]	@ zero_extendqisi2
 147 000a 1BB1     		cbz	r3, .L15
 101:..\common\ud3core/SignalGenerator.c ****     
 148              		.loc 1 101 0
 149 000c BDE80840 		pop	{r3, lr}
 150              		.cfi_remember_state
 151              		.cfi_restore 14
 152              		.cfi_restore 3
 153              		.cfi_def_cfa_offset 0
  98:..\common\ud3core/SignalGenerator.c ****         return;
 154              		.loc 1 98 0
 155 0010 FFF7FEBF 		b	qcw_handle
 156              	.LVL11:
 157              	.L15:
 158              		.cfi_restore_state
 159 0014 08BD     		pop	{r3, pc}
ARM GAS  C:\Users\chemi\AppData\Local\Temp\ccbZzKkH.s 			page 8


 160              	.L18:
 161 0016 00BF     		.align	2
 162              	.L17:
 163 0018 79640040 		.word	1073767545
 164              		.cfi_endproc
 165              	.LFE68:
 166              		.size	isr_synth, .-isr_synth
 167              		.section	.text.SigGen_PulseTimerISR,"ax",%progbits
 168              		.align	1
 169              		.global	SigGen_PulseTimerISR
 170              		.thumb
 171              		.thumb_func
 172              		.type	SigGen_PulseTimerISR, %function
 173              	SigGen_PulseTimerISR:
 174              	.LFB69:
 103:..\common\ud3core/SignalGenerator.c ****     interrupterTimebase_ReadStatusRegister();
 175              		.loc 1 103 0
 176              		.cfi_startproc
 177              		@ args = 0, pretend = 0, frame = 0
 178              		@ frame_needed = 0, uses_anonymous_args = 0
 179 0000 70B5     		push	{r4, r5, r6, lr}
 180              		.cfi_def_cfa_offset 16
 181              		.cfi_offset 4, -16
 182              		.cfi_offset 5, -12
 183              		.cfi_offset 6, -8
 184              		.cfi_offset 14, -4
 108:..\common\ud3core/SignalGenerator.c ****         if(configuration.is_qcw == 0 || synthMode == SYNTH_TR){ //Don't command a pulse in QCW mode
 185              		.loc 1 108 0
 186 0002 214C     		ldr	r4, .L35
 104:..\common\ud3core/SignalGenerator.c ****     interrupterIRQ_ClearPending();
 187              		.loc 1 104 0
 188 0004 FFF7FEFF 		bl	interrupterTimebase_ReadStatusRegister
 189              	.LVL12:
 105:..\common\ud3core/SignalGenerator.c ****     
 190              		.loc 1 105 0
 191 0008 FFF7FEFF 		bl	interrupterIRQ_ClearPending
 192              	.LVL13:
 108:..\common\ud3core/SignalGenerator.c ****         if(configuration.is_qcw == 0 || synthMode == SYNTH_TR){ //Don't command a pulse in QCW mode
 193              		.loc 1 108 0
 194 000c E368     		ldr	r3, [r4, #12]
 195 000e 63B1     		cbz	r3, .L20
 108:..\common\ud3core/SignalGenerator.c ****         if(configuration.is_qcw == 0 || synthMode == SYNTH_TR){ //Don't command a pulse in QCW mode
 196              		.loc 1 108 0 is_stmt 0 discriminator 1
 197 0010 A368     		ldr	r3, [r4, #8]
 198 0012 53B1     		cbz	r3, .L20
 109:..\common\ud3core/SignalGenerator.c ****             interrupter_oneshotRaw(readPulse.onTime, readPulse.current);
 199              		.loc 1 109 0 is_stmt 1
 200 0014 1D4B     		ldr	r3, .L35+4
 201 0016 93F85C30 		ldrb	r3, [r3, #92]	@ zero_extendqisi2
 202 001a 13B1     		cbz	r3, .L21
 109:..\common\ud3core/SignalGenerator.c ****             interrupter_oneshotRaw(readPulse.onTime, readPulse.current);
 203              		.loc 1 109 0 is_stmt 0 discriminator 1
 204 001c 237C     		ldrb	r3, [r4, #16]	@ zero_extendqisi2
 205 001e 032B     		cmp	r3, #3
 206 0020 03D1     		bne	.L20
 207              	.L21:
 110:..\common\ud3core/SignalGenerator.c ****         }
ARM GAS  C:\Users\chemi\AppData\Local\Temp\ccbZzKkH.s 			page 9


 208              		.loc 1 110 0 is_stmt 1
 209 0022 A068     		ldr	r0, [r4, #8]
 210 0024 E168     		ldr	r1, [r4, #12]
 211 0026 FFF7FEFF 		bl	interrupter_oneshotRaw
 212              	.LVL14:
 213              	.L20:
 116:..\common\ud3core/SignalGenerator.c ****             //check if we got valid pulse and if not retry
 214              		.loc 1 116 0
 215 002a 174E     		ldr	r6, .L35
 216              	.L24:
 217 002c 2368     		ldr	r3, [r4]
 218 002e 164D     		ldr	r5, .L35
 219 0030 D3F87402 		ldr	r0, [r3, #628]
 220 0034 0122     		movs	r2, #1
 221 0036 291D     		adds	r1, r5, #4
 222 0038 FFF7FEFF 		bl	RingBuffer_readFromISR
 223              	.LVL15:
 224 003c 0128     		cmp	r0, #1
 225 003e 16D1     		bne	.L22
 118:..\common\ud3core/SignalGenerator.c ****                 readPulse.period = 1;
 226              		.loc 1 118 0
 227 0040 7368     		ldr	r3, [r6, #4]
 228 0042 0BB9     		cbnz	r3, .L23
 119:..\common\ud3core/SignalGenerator.c ****                 continue;
 229              		.loc 1 119 0
 230 0044 7060     		str	r0, [r6, #4]
 150:..\common\ud3core/SignalGenerator.c **** }
 231              		.loc 1 150 0
 232 0046 F1E7     		b	.L24
 233              	.L23:
 124:..\common\ud3core/SignalGenerator.c ****             
 234              		.loc 1 124 0
 235 0048 2A68     		ldr	r2, [r5]
 236 004a 6968     		ldr	r1, [r5, #4]
 237 004c D2F87032 		ldr	r3, [r2, #624]
 238 0050 5B1A     		subs	r3, r3, r1
 239 0052 C2F87032 		str	r3, [r2, #624]
 126:..\common\ud3core/SignalGenerator.c ****                 //TODO evaluate occurance of this happening. Should be impossible and if it does ha
 240              		.loc 1 126 0
 241 0056 6B68     		ldr	r3, [r5, #4]
 242 0058 B3F57A7F 		cmp	r3, #1000
 128:..\common\ud3core/SignalGenerator.c ****             }
 243              		.loc 1 128 0
 244 005c BCBF     		itt	lt
 245 005e 4FF47A73 		movlt	r3, #1000
 246 0062 6B60     		strlt	r3, [r5, #4]
 132:..\common\ud3core/SignalGenerator.c ****             
 247              		.loc 1 132 0
 248 0064 6068     		ldr	r0, [r4, #4]
 151:..\common\ud3core/SignalGenerator.c **** 
 249              		.loc 1 151 0
 250 0066 BDE87040 		pop	{r4, r5, r6, lr}
 251              		.cfi_remember_state
 252              		.cfi_restore 14
 253              		.cfi_restore 6
 254              		.cfi_restore 5
 255              		.cfi_restore 4
ARM GAS  C:\Users\chemi\AppData\Local\Temp\ccbZzKkH.s 			page 10


 256              		.cfi_def_cfa_offset 0
 132:..\common\ud3core/SignalGenerator.c ****             
 257              		.loc 1 132 0
 258 006a FFF7FEBF 		b	interrupterTimebase_WriteCompare
 259              	.LVL16:
 260              	.L22:
 261              		.cfi_restore_state
 141:..\common\ud3core/SignalGenerator.c ****             
 262              		.loc 1 141 0
 263 006e FFF7FEFF 		bl	interrupterTimebase_ReadControlRegister
 264              	.LVL17:
 265 0072 00F07F00 		and	r0, r0, #127
 266 0076 FFF7FEFF 		bl	interrupterTimebase_WriteControlRegister
 267              	.LVL18:
 268 007a FFF7FEFF 		bl	interrupterIRQ_Disable
 269              	.LVL19:
 144:..\common\ud3core/SignalGenerator.c ****             
 270              		.loc 1 144 0
 271 007e 2B68     		ldr	r3, [r5]
 272 0080 0022     		movs	r2, #0
 273 0082 C3F87022 		str	r2, [r3, #624]
 274 0086 70BD     		pop	{r4, r5, r6, pc}
 275              	.L36:
 276              		.align	2
 277              	.L35:
 278 0088 00000000 		.word	.LANCHOR0
 279 008c 00000000 		.word	configuration
 280              		.cfi_endproc
 281              	.LFE69:
 282              		.size	SigGen_PulseTimerISR, .-SigGen_PulseTimerISR
 283              		.section	.text.getFixedDutyOntime,"ax",%progbits
 284              		.align	1
 285              		.thumb
 286              		.thumb_func
 287              		.type	getFixedDutyOntime, %function
 288              	getFixedDutyOntime:
 289              	.LFB76:
 236:..\common\ud3core/SignalGenerator.c **** }
 237:..\common\ud3core/SignalGenerator.c **** 
 238:..\common\ud3core/SignalGenerator.c **** uint32_t SigGen_isVoiceOn(uint32_t voice){
 239:..\common\ud3core/SignalGenerator.c ****     return taskData->voice[voice].enabled;
 240:..\common\ud3core/SignalGenerator.c **** }
 241:..\common\ud3core/SignalGenerator.c **** 
 242:..\common\ud3core/SignalGenerator.c **** uint8_t divder = 0xff;
 243:..\common\ud3core/SignalGenerator.c **** 
 244:..\common\ud3core/SignalGenerator.c **** static void SigGen_setVoiceParams(uint32_t voice, uint32_t enabled, int32_t pulseWidth, int32_t vol
 245:..\common\ud3core/SignalGenerator.c ****     IsOkToPrint = 1;
 246:..\common\ud3core/SignalGenerator.c ****     
 247:..\common\ud3core/SignalGenerator.c ****     //if(--divder == 0) TERM_printDebug(min_handle[1], "set voice freq=%d, ontime=%d\r\n", frequenc
 248:..\common\ud3core/SignalGenerator.c ****     
 249:..\common\ud3core/SignalGenerator.c ****     //check if voice is switching on
 250:..\common\ud3core/SignalGenerator.c ****     uint32_t willBeOn = enabled && (volume != 0) && (frequencyTenths != 0);
 251:..\common\ud3core/SignalGenerator.c ****     
 252:..\common\ud3core/SignalGenerator.c ****     //is the voice switching on?
 253:..\common\ud3core/SignalGenerator.c ****     if(!taskData->voice[voice].enabled && willBeOn){
 254:..\common\ud3core/SignalGenerator.c ****         //yes => reset the timebase for the note
 255:..\common\ud3core/SignalGenerator.c ****         taskData->voice[voice].counter = 0;
ARM GAS  C:\Users\chemi\AppData\Local\Temp\ccbZzKkH.s 			page 11


 256:..\common\ud3core/SignalGenerator.c ****         if(configuration.is_qcw && synthMode != SYNTH_TR){
 257:..\common\ud3core/SignalGenerator.c ****             qcw_cmd_midi_pulse(volume, frequencyTenths);   
 258:..\common\ud3core/SignalGenerator.c ****         }
 259:..\common\ud3core/SignalGenerator.c ****     }
 260:..\common\ud3core/SignalGenerator.c ****     
 261:..\common\ud3core/SignalGenerator.c ****     taskData->voice[voice].enabled = willBeOn;
 262:..\common\ud3core/SignalGenerator.c ****     
 263:..\common\ud3core/SignalGenerator.c ****     if(!taskData->voice[voice].enabled || masterVolume == 0){ 
 264:..\common\ud3core/SignalGenerator.c ****         taskData->voice[voice].enabled = 0;
 265:..\common\ud3core/SignalGenerator.c ****         taskData->voice[voice].limitedEnabled = 0;
 266:..\common\ud3core/SignalGenerator.c ****         
 267:..\common\ud3core/SignalGenerator.c ****         //make sure to update the duty limiter
 268:..\common\ud3core/SignalGenerator.c ****         SigGen_limit();
 269:..\common\ud3core/SignalGenerator.c **** 		return;
 270:..\common\ud3core/SignalGenerator.c **** 	}
 271:..\common\ud3core/SignalGenerator.c ****     
 272:..\common\ud3core/SignalGenerator.c ****     taskData->voice[voice].initialPulseVolume = volume;
 273:..\common\ud3core/SignalGenerator.c ****     
 274:..\common\ud3core/SignalGenerator.c ****     taskData->voice[voice].pulseVolume = (volume * masterVolume) >> 15;
 275:..\common\ud3core/SignalGenerator.c ****     
 276:..\common\ud3core/SignalGenerator.c ****     taskData->voice[voice].pulseWidth_us = pulseWidth;
 277:..\common\ud3core/SignalGenerator.c ****     taskData->voice[voice].frequencyTenths = frequencyTenths;
 278:..\common\ud3core/SignalGenerator.c ****     
 279:..\common\ud3core/SignalGenerator.c ****     
 280:..\common\ud3core/SignalGenerator.c ****     taskData->voice[voice].period = 10000000 / frequencyTenths;
 281:..\common\ud3core/SignalGenerator.c ****     //TODO perhaps reset the counter if the period that was on it before was much longer than the c
 282:..\common\ud3core/SignalGenerator.c ****     
 283:..\common\ud3core/SignalGenerator.c ****     if(noiseAmplitude > (taskData->voice[voice].period >> 1)){
 284:..\common\ud3core/SignalGenerator.c ****         taskData->voice[voice].noiseAmplitude = taskData->voice[voice].period >> 1;
 285:..\common\ud3core/SignalGenerator.c ****     }else{
 286:..\common\ud3core/SignalGenerator.c ****         taskData->voice[voice].noiseAmplitude = noiseAmplitude;
 287:..\common\ud3core/SignalGenerator.c ****     }
 288:..\common\ud3core/SignalGenerator.c ****     
 289:..\common\ud3core/SignalGenerator.c ****     //is burst on?
 290:..\common\ud3core/SignalGenerator.c ****     if(burstOff_us > 0){
 291:..\common\ud3core/SignalGenerator.c ****         //yes, setup burst counter
 292:..\common\ud3core/SignalGenerator.c ****         int32_t burstPeriod_us = burstOn_us + burstOff_us;
 293:..\common\ud3core/SignalGenerator.c ****         taskData->voice[voice].burstPeriod = burstPeriod_us;
 294:..\common\ud3core/SignalGenerator.c ****         if(taskData->voice[voice].burstCounter > taskData->voice[voice].burstPeriod) taskData->voic
 295:..\common\ud3core/SignalGenerator.c ****         
 296:..\common\ud3core/SignalGenerator.c ****         //the burst ontime is a comparison for > burstOt, so in order to get the correct ontime the
 297:..\common\ud3core/SignalGenerator.c ****         taskData->voice[voice].burstOt = burstPeriod_us - burstOn_us;
 298:..\common\ud3core/SignalGenerator.c ****     }else{
 299:..\common\ud3core/SignalGenerator.c ****         taskData->voice[voice].burstPeriod = 0;
 300:..\common\ud3core/SignalGenerator.c ****         taskData->voice[voice].burstCounter = 0;
 301:..\common\ud3core/SignalGenerator.c ****     }
 302:..\common\ud3core/SignalGenerator.c ****     
 303:..\common\ud3core/SignalGenerator.c ****     //re calculate hypervoice parameters
 304:..\common\ud3core/SignalGenerator.c ****     if(taskData->voice[voice].hpvCount != 0) SigGen_setHyperVoiceParams(voice, taskData->voice[voic
 305:..\common\ud3core/SignalGenerator.c ****     
 306:..\common\ud3core/SignalGenerator.c ****     SigGen_limit();
 307:..\common\ud3core/SignalGenerator.c **** }
 308:..\common\ud3core/SignalGenerator.c **** 
 309:..\common\ud3core/SignalGenerator.c **** static uint32_t getFixedDutyOntime(int32_t pulseWidth, int32_t frequencyTenths, uint32_t noiseOn){
 290              		.loc 1 309 0
 291              		.cfi_startproc
 292              		@ args = 0, pretend = 0, frame = 0
ARM GAS  C:\Users\chemi\AppData\Local\Temp\ccbZzKkH.s 			page 12


 293              		@ frame_needed = 0, uses_anonymous_args = 0
 294              	.LVL20:
 310:..\common\ud3core/SignalGenerator.c ****     //check for maximum frequency
 311:..\common\ud3core/SignalGenerator.c ****     if(frequencyTenths > 200000 || frequencyTenths == 0) return 0;
 295              		.loc 1 311 0
 296 0000 104B     		ldr	r3, .L45
 309:..\common\ud3core/SignalGenerator.c ****     //check for maximum frequency
 297              		.loc 1 309 0
 298 0002 70B5     		push	{r4, r5, r6, lr}
 299              		.cfi_def_cfa_offset 16
 300              		.cfi_offset 4, -16
 301              		.cfi_offset 5, -12
 302              		.cfi_offset 6, -8
 303              		.cfi_offset 14, -4
 304              		.loc 1 311 0
 305 0004 9942     		cmp	r1, r3
 306 0006 19DC     		bgt	.L40
 307              		.loc 1 311 0 is_stmt 0 discriminator 2
 308 0008 D1B1     		cbz	r1, .L41
 309              	.LVL21:
 310              	.LBB9:
 311              	.LBB10:
 312:..\common\ud3core/SignalGenerator.c ****     
 313:..\common\ud3core/SignalGenerator.c ****     //uint32_t ot = ((SigGen_otCurveStart + ((frequencyTenths * SigGen_otDeriv) >> 16)) * pulseWidt
 314:..\common\ud3core/SignalGenerator.c ****     
 315:..\common\ud3core/SignalGenerator.c ****     //TERM_printDebug(min_handle[1], "Calc ot for freq=%ddHz val=%dus\r\n", frequencyTenths, ot);
 316:..\common\ud3core/SignalGenerator.c ****     
 317:..\common\ud3core/SignalGenerator.c ****     //return ot;
 318:..\common\ud3core/SignalGenerator.c ****     
 319:..\common\ud3core/SignalGenerator.c ****     //calculate the pulsewidth we need to achive the target dutycycle
 320:..\common\ud3core/SignalGenerator.c ****     
 321:..\common\ud3core/SignalGenerator.c ****     //target dutycycle is scaled 0-max_tr_duty with the ontime slider
 322:..\common\ud3core/SignalGenerator.c ****     
 323:..\common\ud3core/SignalGenerator.c ****     //targetDuty = max_duty * (pw/max_tr_pw)
 324:..\common\ud3core/SignalGenerator.c ****     
 325:..\common\ud3core/SignalGenerator.c ****     //target ontime = targetDuty / target frequency = max_duty * (pw/max_tr_pw) * 1/targetFrequency
 326:..\common\ud3core/SignalGenerator.c ****     //target ontime_us = targetDuty / target frequency = max_duty * (pw/max_tr_pw) * 1/targetFreque
 327:..\common\ud3core/SignalGenerator.c ****     
 328:..\common\ud3core/SignalGenerator.c ****     //units:                 [us]        [thousands - 1/10%]                       [us]
 329:..\common\ud3core/SignalGenerator.c ****     //                                   [         1/1000 %          ]
 330:..\common\ud3core/SignalGenerator.c ****     //                     [                                  1/1000 %                            ]
 331:..\common\ud3core/SignalGenerator.c ****     //                     [                                  1/1000 %                            ]
 332:..\common\ud3core/SignalGenerator.c ****     //                     [                                  1/10000 %  aka 0.1ppm                
 333:..\common\ud3core/SignalGenerator.c ****     //                     [                                  1/10000 %  aka 0.1ppm                
 334:..\common\ud3core/SignalGenerator.c ****     //                     [                                  1/10000 %  aka 0.1ppm                
 335:..\common\ud3core/SignalGenerator.c ****     //                     [                                               us                      
 336:..\common\ud3core/SignalGenerator.c ****     int32_t targetOt_us = ((((pulseWidth * configuration.max_tr_duty * 100) / (configuration.max_tr
 312              		.loc 1 336 0 is_stmt 1
 313 000a 0F4B     		ldr	r3, .L45+4
 314 000c 6425     		movs	r5, #100
 315 000e 1C8C     		ldrh	r4, [r3, #32]
 316 0010 9E88     		ldrh	r6, [r3, #4]
 317 0012 4443     		muls	r4, r0, r4
 318 0014 6C43     		muls	r4, r5, r4
 319 0016 94FBF6F4 		sdiv	r4, r4, r6
 320 001a 6C43     		muls	r4, r5, r4
 321 001c 94FBF1F3 		sdiv	r3, r4, r1
ARM GAS  C:\Users\chemi\AppData\Local\Temp\ccbZzKkH.s 			page 13


 322              	.LVL22:
 337:..\common\ud3core/SignalGenerator.c ****     
 338:..\common\ud3core/SignalGenerator.c ****     
 339:..\common\ud3core/SignalGenerator.c ****     if(noiseOn) targetOt_us = ((targetOt_us * 3) >> 1);
 323              		.loc 1 339 0
 324 0020 12B1     		cbz	r2, .L39
 325 0022 03EB4303 		add	r3, r3, r3, lsl #1
 326              	.LVL23:
 327 0026 5B10     		asrs	r3, r3, #1
 328              	.LVL24:
 329              	.L39:
 340:..\common\ud3core/SignalGenerator.c ****     
 341:..\common\ud3core/SignalGenerator.c ****     if(targetOt_us < SigGen_minOt) targetOt_us = SigGen_minOt;
 330              		.loc 1 341 0
 331 0028 084A     		ldr	r2, .L45+8
 332              	.LVL25:
 342:..\common\ud3core/SignalGenerator.c ****     
 343:..\common\ud3core/SignalGenerator.c ****     //TODO perhaps start reducing this as we approach a very low volume?
 344:..\common\ud3core/SignalGenerator.c ****     
 345:..\common\ud3core/SignalGenerator.c ****     //would that exceed the maximum pw?
 346:..\common\ud3core/SignalGenerator.c ****     if(targetOt_us > configuration.max_tr_pw) targetOt_us = configuration.max_tr_pw;
 347:..\common\ud3core/SignalGenerator.c ****     
 348:..\common\ud3core/SignalGenerator.c ****     return targetOt_us;
 333              		.loc 1 348 0
 334 002a 3046     		mov	r0, r6
 335              	.LVL26:
 341:..\common\ud3core/SignalGenerator.c ****     
 336              		.loc 1 341 0
 337 002c 5169     		ldr	r1, [r2, #20]
 338              	.LVL27:
 339 002e 9942     		cmp	r1, r3
 340 0030 B8BF     		it	lt
 341 0032 1946     		movlt	r1, r3
 342              	.LVL28:
 343              		.loc 1 348 0
 344 0034 8E42     		cmp	r6, r1
 345 0036 A8BF     		it	ge
 346 0038 0846     		movge	r0, r1
 347              	.LVL29:
 348 003a 70BD     		pop	{r4, r5, r6, pc}
 349              	.LVL30:
 350              	.L40:
 351              	.LBE10:
 352              	.LBE9:
 311:..\common\ud3core/SignalGenerator.c ****     
 353              		.loc 1 311 0
 354 003c 0020     		movs	r0, #0
 355              	.LVL31:
 356 003e 70BD     		pop	{r4, r5, r6, pc}
 357              	.LVL32:
 358              	.L41:
 359 0040 0846     		mov	r0, r1
 360              	.LVL33:
 349:..\common\ud3core/SignalGenerator.c **** }
 361              		.loc 1 349 0
 362 0042 70BD     		pop	{r4, r5, r6, pc}
 363              	.L46:
ARM GAS  C:\Users\chemi\AppData\Local\Temp\ccbZzKkH.s 			page 14


 364              		.align	2
 365              	.L45:
 366 0044 400D0300 		.word	200000
 367 0048 00000000 		.word	configuration
 368 004c 00000000 		.word	.LANCHOR0
 369              		.cfi_endproc
 370              	.LFE76:
 371              		.size	getFixedDutyOntime, .-getFixedDutyOntime
 372              		.section	.text.SigGen_task,"ax",%progbits
 373              		.align	1
 374              		.thumb
 375              		.thumb_func
 376              		.type	SigGen_task, %function
 377              	SigGen_task:
 378              	.LFB88:
 350:..\common\ud3core/SignalGenerator.c **** 
 351:..\common\ud3core/SignalGenerator.c **** //wrappers for writing the voice configs from the different synthesizer modes
 352:..\common\ud3core/SignalGenerator.c **** void SigGen_setVoiceVMS(uint32_t voice, uint32_t enabled, int32_t pulseWidth, int32_t volume, int32
 353:..\common\ud3core/SignalGenerator.c ****     if(synthMode != SYNTH_MIDI) return;
 354:..\common\ud3core/SignalGenerator.c ****     
 355:..\common\ud3core/SignalGenerator.c ****     SigGen_setVoiceParams(voice, enabled, getFixedDutyOntime(pulseWidth, frequencyTenths, noiseAmpl
 356:..\common\ud3core/SignalGenerator.c **** }
 357:..\common\ud3core/SignalGenerator.c **** void SigGen_setHyperVoiceVMS(uint32_t voice, uint32_t count, uint32_t pulseWidth, uint32_t volume, 
 358:..\common\ud3core/SignalGenerator.c ****     if(synthMode != SYNTH_MIDI) return;
 359:..\common\ud3core/SignalGenerator.c ****     SigGen_setHyperVoiceParams(voice, count, getFixedDutyOntime(pulseWidth, taskData->voice[voice].
 360:..\common\ud3core/SignalGenerator.c **** }
 361:..\common\ud3core/SignalGenerator.c **** 
 362:..\common\ud3core/SignalGenerator.c **** void SigGen_setVoiceSID(uint32_t voice, uint32_t enabled, int32_t pulseWidth, int32_t volume, int32
 363:..\common\ud3core/SignalGenerator.c ****     if(synthMode != SYNTH_SID) return;
 364:..\common\ud3core/SignalGenerator.c ****     SigGen_setVoiceParams(voice, enabled, getFixedDutyOntime(pulseWidth, frequencyTenths, noiseAmpl
 365:..\common\ud3core/SignalGenerator.c **** }
 366:..\common\ud3core/SignalGenerator.c **** 
 367:..\common\ud3core/SignalGenerator.c **** void SigGen_setHyperVoiceSID(uint32_t voice, uint32_t count, uint32_t pulseWidth, uint32_t volume, 
 368:..\common\ud3core/SignalGenerator.c ****     if(synthMode != SYNTH_SID) return;
 369:..\common\ud3core/SignalGenerator.c ****     SigGen_setHyperVoiceParams(voice, count, getFixedDutyOntime(pulseWidth, taskData->voice[voice].
 370:..\common\ud3core/SignalGenerator.c **** }
 371:..\common\ud3core/SignalGenerator.c **** 
 372:..\common\ud3core/SignalGenerator.c **** void SigGen_setVoiceTR(uint32_t enabled, int32_t pulseWidth, int32_t volume, int32_t frequencyTenth
 373:..\common\ud3core/SignalGenerator.c ****     if(synthMode != SYNTH_TR) return;
 374:..\common\ud3core/SignalGenerator.c ****     
 375:..\common\ud3core/SignalGenerator.c ****     //TR mode always uses voice 0 without noise
 376:..\common\ud3core/SignalGenerator.c ****     SigGen_setVoiceParams(0, enabled, pulseWidth, volume, frequencyTenths, 0, burstOn_us, burstOff_
 377:..\common\ud3core/SignalGenerator.c **** }
 378:..\common\ud3core/SignalGenerator.c **** 
 379:..\common\ud3core/SignalGenerator.c **** void SigGen_limit(){
 380:..\common\ud3core/SignalGenerator.c ****     //get current dutycycle
 381:..\common\ud3core/SignalGenerator.c ****     uint32_t currDuty = SigGen_getCurrDuty();
 382:..\common\ud3core/SignalGenerator.c ****     
 383:..\common\ud3core/SignalGenerator.c ****     //get maximum dutycycle
 384:..\common\ud3core/SignalGenerator.c ****     uint32_t maxDuty = configuration.max_tr_duty / 10;
 385:..\common\ud3core/SignalGenerator.c ****     
 386:..\common\ud3core/SignalGenerator.c ****     uint32_t ontimeScale = MAX_VOL;
 387:..\common\ud3core/SignalGenerator.c ****     
 388:..\common\ud3core/SignalGenerator.c ****     //scale maxDuty with the hard limit override. Default maxDutyOffset=64 => maximum factor = 256/
 389:..\common\ud3core/SignalGenerator.c ****     //BUT only do so if we aren't in TR mode. If we are then the duty limit is a hard one
 390:..\common\ud3core/SignalGenerator.c ****     if(synthMode != SYNTH_TR && Comp_getMaxDutyOffset() != 64) maxDuty = (maxDuty * Comp_getMaxDuty
 391:..\common\ud3core/SignalGenerator.c ****     
ARM GAS  C:\Users\chemi\AppData\Local\Temp\ccbZzKkH.s 			page 15


 392:..\common\ud3core/SignalGenerator.c ****     //make sure the value isn't too high
 393:..\common\ud3core/SignalGenerator.c ****     if(maxDuty > 99) maxDuty = 99;
 394:..\common\ud3core/SignalGenerator.c ****     
 395:..\common\ud3core/SignalGenerator.c ****     /* about the scaling (I admit this is weird):
 396:..\common\ud3core/SignalGenerator.c ****      * 
 397:..\common\ud3core/SignalGenerator.c ****      * The Dutycycle is a number between 0 and 1 that indicates for how long a signal is on in rela
 398:..\common\ud3core/SignalGenerator.c ****      * 
 399:..\common\ud3core/SignalGenerator.c ****      * In this code however the config parameters as well as the return from SigGen_getCurrDuty() i
 400:..\common\ud3core/SignalGenerator.c ****      * Earlier versions of the code also had some weirdness with the units. The Frequency in the fu
 401:..\common\ud3core/SignalGenerator.c ****      * 
 402:..\common\ud3core/SignalGenerator.c ****      * This version now also corrects the microsecond error so the values returned are all in even 
 403:..\common\ud3core/SignalGenerator.c ****      */
 404:..\common\ud3core/SignalGenerator.c ****     
 405:..\common\ud3core/SignalGenerator.c ****     //do we need to reduce the ontime of all of the notes?
 406:..\common\ud3core/SignalGenerator.c ****     if(currDuty > maxDuty){
 407:..\common\ud3core/SignalGenerator.c ****         //yes! Reduce the scaling factor
 408:..\common\ud3core/SignalGenerator.c ****         
 409:..\common\ud3core/SignalGenerator.c ****         ontimeScale = (maxDuty * MAX_VOL) / currDuty;
 410:..\common\ud3core/SignalGenerator.c ****     }else{
 411:..\common\ud3core/SignalGenerator.c ****         //TODO perhaps add duty limiter active flag?
 412:..\common\ud3core/SignalGenerator.c ****     }
 413:..\common\ud3core/SignalGenerator.c ****     
 414:..\common\ud3core/SignalGenerator.c ****     //reset active voice count
 415:..\common\ud3core/SignalGenerator.c ****     tt.n.midi_voices.value = 0;
 416:..\common\ud3core/SignalGenerator.c ****     
 417:..\common\ud3core/SignalGenerator.c ****     //TODO evaluate if this is thread safe, if not make it so (as requested by the captain)
 418:..\common\ud3core/SignalGenerator.c ****     for(uint32_t currVoice = 0; currVoice < SIGGEN_VOICECOUNT; currVoice++){
 419:..\common\ud3core/SignalGenerator.c ****         //if a voice is disabled we don't need to change anything
 420:..\common\ud3core/SignalGenerator.c ****         if(!taskData->voice[currVoice].enabled){ 
 421:..\common\ud3core/SignalGenerator.c ****             taskData->voice[currVoice].limitedEnabled = 0;
 422:..\common\ud3core/SignalGenerator.c ****             continue;
 423:..\common\ud3core/SignalGenerator.c ****         }
 424:..\common\ud3core/SignalGenerator.c ****         
 425:..\common\ud3core/SignalGenerator.c ****         //linearly scale the ontime down
 426:..\common\ud3core/SignalGenerator.c ****         uint32_t onTime = taskData->voice[currVoice].pulseWidth_us;
 427:..\common\ud3core/SignalGenerator.c ****         onTime = (onTime * ontimeScale) >> 15;
 428:..\common\ud3core/SignalGenerator.c ****         if(Comp_getGain() != COMP_UNITYGAIN) onTime = (onTime * Comp_getGain()) >> 15;
 429:..\common\ud3core/SignalGenerator.c ****         taskData->voice[currVoice].limitedPulseWidth_us = onTime;
 430:..\common\ud3core/SignalGenerator.c ****         taskData->voice[currVoice].limitedPeriod = taskData->voice[currVoice].period;
 431:..\common\ud3core/SignalGenerator.c ****         
 432:..\common\ud3core/SignalGenerator.c ****         //make sure to reset the counter to prevent a previously played lower note from slowing dow
 433:..\common\ud3core/SignalGenerator.c ****         if(taskData->voice[currVoice].counter > taskData->voice[currVoice].limitedPeriod) taskData-
 434:..\common\ud3core/SignalGenerator.c ****         
 435:..\common\ud3core/SignalGenerator.c ****         //is HPV enabled? if so we need to scale that too
 436:..\common\ud3core/SignalGenerator.c ****         if(taskData->voice[currVoice].hpvCount != 0 && taskData->voice[currVoice].noiseAmplitude ==
 437:..\common\ud3core/SignalGenerator.c ****             onTime = taskData->voice[currVoice].hpvPulseWidth_us;
 438:..\common\ud3core/SignalGenerator.c ****             onTime = (onTime * ontimeScale) >> 15;
 439:..\common\ud3core/SignalGenerator.c ****             if(Comp_getGain() != COMP_UNITYGAIN) onTime = (onTime * Comp_getGain()) >> 15;
 440:..\common\ud3core/SignalGenerator.c ****             taskData->voice[currVoice].limitedHpvPulseWidth_us = onTime;
 441:..\common\ud3core/SignalGenerator.c ****             
 442:..\common\ud3core/SignalGenerator.c ****             taskData->voice[currVoice].limitedHpvCount = taskData->voice[currVoice].hpvCount;
 443:..\common\ud3core/SignalGenerator.c ****         }else{
 444:..\common\ud3core/SignalGenerator.c ****             taskData->voice[currVoice].limitedHpvPulseWidth_us = 0;
 445:..\common\ud3core/SignalGenerator.c ****         }
 446:..\common\ud3core/SignalGenerator.c ****         
 447:..\common\ud3core/SignalGenerator.c ****         taskData->voice[currVoice].limitedEnabled = taskData->voice[currVoice].enabled;
 448:..\common\ud3core/SignalGenerator.c ****         
ARM GAS  C:\Users\chemi\AppData\Local\Temp\ccbZzKkH.s 			page 16


 449:..\common\ud3core/SignalGenerator.c ****         //at this point the voice must be on => increment voice count
 450:..\common\ud3core/SignalGenerator.c ****         tt.n.midi_voices.value ++;
 451:..\common\ud3core/SignalGenerator.c ****     }
 452:..\common\ud3core/SignalGenerator.c **** }
 453:..\common\ud3core/SignalGenerator.c **** 
 454:..\common\ud3core/SignalGenerator.c **** void SigGen_switchSynthMode(uint8_t newMode){
 455:..\common\ud3core/SignalGenerator.c ****     //kill output when changing synth mode
 456:..\common\ud3core/SignalGenerator.c ****     SigGen_killAudio();
 457:..\common\ud3core/SignalGenerator.c ****     
 458:..\common\ud3core/SignalGenerator.c ****     //set new mode
 459:..\common\ud3core/SignalGenerator.c ****     synthMode = newMode;
 460:..\common\ud3core/SignalGenerator.c ****     
 461:..\common\ud3core/SignalGenerator.c ****     //what state are we changing to? TODO figure out is we actually need to change anything here :D
 462:..\common\ud3core/SignalGenerator.c ****     switch(newMode){
 463:..\common\ud3core/SignalGenerator.c ****         case SYNTH_MIDI:
 464:..\common\ud3core/SignalGenerator.c ****             
 465:..\common\ud3core/SignalGenerator.c ****             break;
 466:..\common\ud3core/SignalGenerator.c ****         case SYNTH_SID:
 467:..\common\ud3core/SignalGenerator.c ****         
 468:..\common\ud3core/SignalGenerator.c ****             break;
 469:..\common\ud3core/SignalGenerator.c ****         case SYNTH_MIDI_QCW:
 470:..\common\ud3core/SignalGenerator.c ****         case SYNTH_SID_QCW:
 471:..\common\ud3core/SignalGenerator.c ****         
 472:..\common\ud3core/SignalGenerator.c ****             //TODO implement this... for now we just assume state was set to "off"
 473:..\common\ud3core/SignalGenerator.c ****         
 474:..\common\ud3core/SignalGenerator.c ****         case SYNTH_OFF:
 475:..\common\ud3core/SignalGenerator.c ****         
 476:..\common\ud3core/SignalGenerator.c ****             break;
 477:..\common\ud3core/SignalGenerator.c ****         case SYNTH_TR:
 478:..\common\ud3core/SignalGenerator.c ****         
 479:..\common\ud3core/SignalGenerator.c ****             break;
 480:..\common\ud3core/SignalGenerator.c ****     }
 481:..\common\ud3core/SignalGenerator.c **** }
 482:..\common\ud3core/SignalGenerator.c **** 
 483:..\common\ud3core/SignalGenerator.c **** void SigGen_setMasterVol(uint32_t newVolume){
 484:..\common\ud3core/SignalGenerator.c ****     if(newVolume > MAX_VOL) return;
 485:..\common\ud3core/SignalGenerator.c ****     masterVolume = newVolume;
 486:..\common\ud3core/SignalGenerator.c ****     
 487:..\common\ud3core/SignalGenerator.c ****     //did we just get muted?
 488:..\common\ud3core/SignalGenerator.c ****     if(masterVolume > 0){
 489:..\common\ud3core/SignalGenerator.c ****         //no => update all voices
 490:..\common\ud3core/SignalGenerator.c ****         for(uint32_t i = 0; i < SIGGEN_VOICECOUNT; i++){
 491:..\common\ud3core/SignalGenerator.c ****             taskData->voice[i].hpvVolume = (taskData->voice[i].initialHpvVolume * masterVolume) >> 
 492:..\common\ud3core/SignalGenerator.c ****             taskData->voice[i].pulseVolume = (taskData->voice[i].initialPulseVolume * masterVolume)
 493:..\common\ud3core/SignalGenerator.c ****         }
 494:..\common\ud3core/SignalGenerator.c ****         SigGen_setOutputEnabled(1);
 495:..\common\ud3core/SignalGenerator.c ****     }else{
 496:..\common\ud3core/SignalGenerator.c ****         //yes => pause generation
 497:..\common\ud3core/SignalGenerator.c ****         SigGen_setOutputEnabled(0);
 498:..\common\ud3core/SignalGenerator.c ****     }
 499:..\common\ud3core/SignalGenerator.c **** }
 500:..\common\ud3core/SignalGenerator.c **** 
 501:..\common\ud3core/SignalGenerator.c **** void SigGen_setOutputEnabled(uint32_t en){
 502:..\common\ud3core/SignalGenerator.c **** 	isEnabled = en;
 503:..\common\ud3core/SignalGenerator.c **** 	if(!en) SigGen_killAudio();
 504:..\common\ud3core/SignalGenerator.c **** }
 505:..\common\ud3core/SignalGenerator.c **** 
ARM GAS  C:\Users\chemi\AppData\Local\Temp\ccbZzKkH.s 			page 17


 506:..\common\ud3core/SignalGenerator.c **** void SigGen_killAudio(){
 507:..\common\ud3core/SignalGenerator.c ****     // This can only happen during UD3 startup
 508:..\common\ud3core/SignalGenerator.c ****     if (!taskData) { return; }
 509:..\common\ud3core/SignalGenerator.c ****     //TODO evaluate if this is actually thread safe
 510:..\common\ud3core/SignalGenerator.c ****     
 511:..\common\ud3core/SignalGenerator.c **** 	//disable all voices
 512:..\common\ud3core/SignalGenerator.c ****     for(uint32_t currVoice = 0; currVoice < SIGGEN_VOICECOUNT; currVoice++){
 513:..\common\ud3core/SignalGenerator.c ****         taskData->voice[currVoice].enabled = 0;
 514:..\common\ud3core/SignalGenerator.c ****         taskData->voice[currVoice].limitedEnabled = 0;
 515:..\common\ud3core/SignalGenerator.c ****         taskData->voice[currVoice].hpvCount = 0;
 516:..\common\ud3core/SignalGenerator.c ****         taskData->voice[currVoice].limitedHpvCount = 0;
 517:..\common\ud3core/SignalGenerator.c ****     }
 518:..\common\ud3core/SignalGenerator.c ****     
 519:..\common\ud3core/SignalGenerator.c ****     //kill the timer
 520:..\common\ud3core/SignalGenerator.c ****     SigGen_stopTimer();
 521:..\common\ud3core/SignalGenerator.c ****     
 522:..\common\ud3core/SignalGenerator.c ****     //reset the buffer, which must be done with the timer interrupt disabled to prevent intereferen
 523:..\common\ud3core/SignalGenerator.c ****     SigGen_disableTimerISR();
 524:..\common\ud3core/SignalGenerator.c ****     RingBuffer_flush(taskData->pulseBuffer);
 525:..\common\ud3core/SignalGenerator.c ****     taskData->bufferLengthInCounts = 0;
 526:..\common\ud3core/SignalGenerator.c ****     SigGen_enableTimerISR();
 527:..\common\ud3core/SignalGenerator.c ****     
 528:..\common\ud3core/SignalGenerator.c ****     tt.n.midi_voices.value = 0;
 529:..\common\ud3core/SignalGenerator.c **** }
 530:..\common\ud3core/SignalGenerator.c **** 
 531:..\common\ud3core/SignalGenerator.c **** volatile uint32_t adding = 0;
 532:..\common\ud3core/SignalGenerator.c **** 
 533:..\common\ud3core/SignalGenerator.c **** SigGen_pulseData_t currPulse;
 534:..\common\ud3core/SignalGenerator.c ****     
 535:..\common\ud3core/SignalGenerator.c **** volatile uint32_t compDebug = 0;
 536:..\common\ud3core/SignalGenerator.c **** 
 537:..\common\ud3core/SignalGenerator.c **** static void SigGen_overlayPulse(SigGen_pulseData_t * pulse, int32_t newVolume, int32_t newOntime){
 538:..\common\ud3core/SignalGenerator.c ****     //a pulse was triggered and we need to decide how to overlay it with any potentially already tr
 539:..\common\ud3core/SignalGenerator.c ****     
 540:..\common\ud3core/SignalGenerator.c ****     //ways in which we can scale this:
 541:..\common\ud3core/SignalGenerator.c ****     /*
 542:..\common\ud3core/SignalGenerator.c ****         
 543:..\common\ud3core/SignalGenerator.c ****         Ontime:
 544:..\common\ud3core/SignalGenerator.c ****             Highest
 545:..\common\ud3core/SignalGenerator.c ****             Lowest
 546:..\common\ud3core/SignalGenerator.c ****             Sum
 547:..\common\ud3core/SignalGenerator.c ****             Average
 548:..\common\ud3core/SignalGenerator.c ****             ->Loudest pulse
 549:..\common\ud3core/SignalGenerator.c ****             Quitest pulse
 550:..\common\ud3core/SignalGenerator.c ****             
 551:..\common\ud3core/SignalGenerator.c ****             
 552:..\common\ud3core/SignalGenerator.c ****         Volume:
 553:..\common\ud3core/SignalGenerator.c ****             Highest
 554:..\common\ud3core/SignalGenerator.c ****             Lowest
 555:..\common\ud3core/SignalGenerator.c ****             Sum
 556:..\common\ud3core/SignalGenerator.c ****             Average
 557:..\common\ud3core/SignalGenerator.c ****             ->Loudest pulse
 558:..\common\ud3core/SignalGenerator.c ****             Quitest pulse
 559:..\common\ud3core/SignalGenerator.c ****     
 560:..\common\ud3core/SignalGenerator.c ****     
 561:..\common\ud3core/SignalGenerator.c ****     */
 562:..\common\ud3core/SignalGenerator.c ****     
ARM GAS  C:\Users\chemi\AppData\Local\Temp\ccbZzKkH.s 			page 18


 563:..\common\ud3core/SignalGenerator.c ****     
 564:..\common\ud3core/SignalGenerator.c ****     if(newOntime > pulse->onTime) pulse->onTime = newOntime;
 565:..\common\ud3core/SignalGenerator.c ****     
 566:..\common\ud3core/SignalGenerator.c ****     pulse->current += newVolume;
 567:..\common\ud3core/SignalGenerator.c ****     
 568:..\common\ud3core/SignalGenerator.c ****     /*if(newVolume > pulse->current){
 569:..\common\ud3core/SignalGenerator.c ****         pulse->onTime = newOntime; //if(pulseWidth < data->voice[currVoice].limitedPulseWidth_us)
 570:..\common\ud3core/SignalGenerator.c ****         pulse->current = newVolume;
 571:..\common\ud3core/SignalGenerator.c ****     }*/
 572:..\common\ud3core/SignalGenerator.c **** }
 573:..\common\ud3core/SignalGenerator.c ****     
 574:..\common\ud3core/SignalGenerator.c **** static void SigGen_task(void * callData){
 379              		.loc 1 574 0
 380              		.cfi_startproc
 381              		@ args = 0, pretend = 0, frame = 40
 382              		@ frame_needed = 0, uses_anonymous_args = 0
 383              	.LVL34:
 384 0000 2DE9F04F 		push	{r4, r5, r6, r7, r8, r9, r10, fp, lr}
 385              		.cfi_def_cfa_offset 36
 386              		.cfi_offset 4, -36
 387              		.cfi_offset 5, -32
 388              		.cfi_offset 6, -28
 389              		.cfi_offset 7, -24
 390              		.cfi_offset 8, -20
 391              		.cfi_offset 9, -16
 392              		.cfi_offset 10, -12
 393              		.cfi_offset 11, -8
 394              		.cfi_offset 14, -4
 395 0004 0446     		mov	r4, r0
 396              	.LVL35:
 575:..\common\ud3core/SignalGenerator.c ****     volatile SigGen_taskData_t * data = (SigGen_taskData_t *) callData;
 576:..\common\ud3core/SignalGenerator.c ****     
 577:..\common\ud3core/SignalGenerator.c ****     currPulse.onTime = 0;
 397              		.loc 1 577 0
 398 0006 A54B     		ldr	r3, .L159
 399 0008 0022     		movs	r2, #0
 400 000a 5A60     		str	r2, [r3, #4]
 574:..\common\ud3core/SignalGenerator.c ****     volatile SigGen_taskData_t * data = (SigGen_taskData_t *) callData;
 401              		.loc 1 574 0
 402 000c 8BB0     		sub	sp, sp, #44
 403              		.cfi_def_cfa_offset 80
 578:..\common\ud3core/SignalGenerator.c ****     currPulse.period = 0xf;
 404              		.loc 1 578 0
 405 000e 0F22     		movs	r2, #15
 406 0010 DFF890B2 		ldr	fp, .L159+8
 407 0014 1A60     		str	r2, [r3]
 408 0016 0093     		str	r3, [sp]
 409              	.LVL36:
 410              	.L48:
 579:..\common\ud3core/SignalGenerator.c ****     
 580:..\common\ud3core/SignalGenerator.c ****     while(1){
 581:..\common\ud3core/SignalGenerator.c ****         vTaskDelay(1);
 411              		.loc 1 581 0
 412 0018 0120     		movs	r0, #1
 413 001a FFF7FEFF 		bl	vTaskDelay
 414              	.LVL37:
 582:..\common\ud3core/SignalGenerator.c ****         //uint32_t noVoicesEnabled = 1;
ARM GAS  C:\Users\chemi\AppData\Local\Temp\ccbZzKkH.s 			page 19


 583:..\common\ud3core/SignalGenerator.c **** 		
 584:..\common\ud3core/SignalGenerator.c **** 		if(!isEnabled) continue;
 415              		.loc 1 584 0
 416 001e A04B     		ldr	r3, .L159+4
 417 0020 5B68     		ldr	r3, [r3, #4]
 418 0022 002B     		cmp	r3, #0
 419 0024 F8D0     		beq	.L48
 420              	.L49:
 585:..\common\ud3core/SignalGenerator.c ****               
 586:..\common\ud3core/SignalGenerator.c ****         //check if the buffer is running low
 587:..\common\ud3core/SignalGenerator.c ****         while(data->bufferLengthInCounts < SIGGEN_MS_TO_PERIOD_COUNT(1)){
 421              		.loc 1 587 0
 422 0026 D4F87032 		ldr	r3, [r4, #624]
 423 002a B3F5FA4F 		cmp	r3, #32000
 424 002e 6EDA     		bge	.L103
 425              	.LVL38:
 426              	.LBB26:
 588:..\common\ud3core/SignalGenerator.c ****         
 589:..\common\ud3core/SignalGenerator.c ****             //calculate time from current pulse to next pulse
 590:..\common\ud3core/SignalGenerator.c ****         
 591:..\common\ud3core/SignalGenerator.c ****             //find next pulse to be triggered
 592:..\common\ud3core/SignalGenerator.c ****             int32_t nextVoice = 0xffff;
 427              		.loc 1 592 0
 428 0030 4FF6FF78 		movw	r8, #65535
 593:..\common\ud3core/SignalGenerator.c ****             SigGen_pulseData_t nextPulse = {.current = 0, . onTime = 0, .period = INT_MAX};
 429              		.loc 1 593 0
 430 0034 6FF00043 		mvn	r3, #-2147483648
 431 0038 0793     		str	r3, [sp, #28]
 432 003a 0023     		movs	r3, #0
 433 003c 0893     		str	r3, [sp, #32]
 434 003e 04AD     		add	r5, sp, #16
 435 0040 0993     		str	r3, [sp, #36]
 436 0042 0AAA     		add	r2, sp, #40
 437 0044 12E90700 		ldmdb	r2, {r0, r1, r2}
 438              	.LBB27:
 594:..\common\ud3core/SignalGenerator.c ****             
 595:..\common\ud3core/SignalGenerator.c ****             for(uint32_t currVoice = 0; currVoice < SIGGEN_VOICECOUNT; currVoice++){
 596:..\common\ud3core/SignalGenerator.c ****                 //if we are in TR mode then only voice 1 is active and all others can be ignored
 597:..\common\ud3core/SignalGenerator.c ****                 if(synthMode == SYNTH_TR && currVoice >= 1) break;
 598:..\common\ud3core/SignalGenerator.c **** 
 599:..\common\ud3core/SignalGenerator.c ****                 //if no other enabled voice was found so far, then the current one is the one with 
 600:..\common\ud3core/SignalGenerator.c ****                 if(nextVoice == 0xffff){
 439              		.loc 1 600 0
 440 0048 4746     		mov	r7, r8
 441              	.LBE27:
 593:..\common\ud3core/SignalGenerator.c ****             SigGen_pulseData_t nextPulse = {.current = 0, . onTime = 0, .period = INT_MAX};
 442              		.loc 1 593 0
 443 004a 85E80700 		stmia	r5, {r0, r1, r2}
 444              	.LVL39:
 445              	.LBB28:
 601:..\common\ud3core/SignalGenerator.c ****                     if(data->voice[currVoice].limitedEnabled && data->voice[currVoice].limitedPulse
 602:..\common\ud3core/SignalGenerator.c ****                         nextVoice = currVoice;
 603:..\common\ud3core/SignalGenerator.c ****                         
 604:..\common\ud3core/SignalGenerator.c ****                         //will the next pulse be a hypervoice pulse or not?
 605:..\common\ud3core/SignalGenerator.c ****                         if(data->voice[currVoice].currHPVDivider == 0 && data->voice[currVoice].cur
 606:..\common\ud3core/SignalGenerator.c ****                             //yes, set the timeToNextPulse to the hpv counter
 607:..\common\ud3core/SignalGenerator.c ****                             nextPulse.period = data->voice[currVoice].currHPVCounter;
ARM GAS  C:\Users\chemi\AppData\Local\Temp\ccbZzKkH.s 			page 20


 608:..\common\ud3core/SignalGenerator.c ****                         }else{
 609:..\common\ud3core/SignalGenerator.c ****                             //no set it to the normal counter
 610:..\common\ud3core/SignalGenerator.c ****                             nextPulse.period = data->voice[currVoice].counter;
 611:..\common\ud3core/SignalGenerator.c ****                         }
 612:..\common\ud3core/SignalGenerator.c ****                     }
 613:..\common\ud3core/SignalGenerator.c **** 
 614:..\common\ud3core/SignalGenerator.c ****                 //is the current voice's timer expiring sooner than that of the current nextVoice? 
 615:..\common\ud3core/SignalGenerator.c ****                 }else{
 616:..\common\ud3core/SignalGenerator.c ****                     if(data->voice[currVoice].limitedEnabled && data->voice[currVoice].limitedPulse
 617:..\common\ud3core/SignalGenerator.c ****                         if((data->voice[currVoice].counter < nextPulse.period) || (data->voice[curr
 618:..\common\ud3core/SignalGenerator.c ****                             nextVoice = currVoice;
 619:..\common\ud3core/SignalGenerator.c **** 
 620:..\common\ud3core/SignalGenerator.c ****                             //will the next pulse be a hypervoice pulse or not?
 621:..\common\ud3core/SignalGenerator.c ****                             if(data->voice[currVoice].currHPVDivider == 0 && data->voice[currVoice]
 622:..\common\ud3core/SignalGenerator.c ****                                 //yes, set the timeToNextPulse to the hpv counter
 623:..\common\ud3core/SignalGenerator.c ****                                 nextPulse.period = data->voice[currVoice].currHPVCounter;
 624:..\common\ud3core/SignalGenerator.c ****                             }else{
 625:..\common\ud3core/SignalGenerator.c ****                                 //no set it to the normal counter
 626:..\common\ud3core/SignalGenerator.c ****                                 nextPulse.period = data->voice[currVoice].counter;
 627:..\common\ud3core/SignalGenerator.c ****                             }
 628:..\common\ud3core/SignalGenerator.c ****                         }
 629:..\common\ud3core/SignalGenerator.c ****                     }
 630:..\common\ud3core/SignalGenerator.c ****                 }
 631:..\common\ud3core/SignalGenerator.c ****                 
 632:..\common\ud3core/SignalGenerator.c ****                 //we also need to reset the alreadyTriggered flag for later
 633:..\common\ud3core/SignalGenerator.c ****                 data->voice[currVoice].alreadyTriggered = 0;
 446              		.loc 1 633 0
 447 004e 1D46     		mov	r5, r3
 597:..\common\ud3core/SignalGenerator.c **** 
 448              		.loc 1 597 0
 449 0050 944A     		ldr	r2, .L159+8
 450 0052 167C     		ldrb	r6, [r2, #16]	@ zero_extendqisi2
 451 0054 6822     		movs	r2, #104
 452              	.LVL40:
 453              	.L57:
 454 0056 032E     		cmp	r6, #3
 455 0058 01D1     		bne	.L50
 597:..\common\ud3core/SignalGenerator.c **** 
 456              		.loc 1 597 0 is_stmt 0 discriminator 1
 457 005a 002B     		cmp	r3, #0
 458 005c 53D1     		bne	.L51
 459              	.L50:
 600:..\common\ud3core/SignalGenerator.c ****                     if(data->voice[currVoice].limitedEnabled && data->voice[currVoice].limitedPulse
 460              		.loc 1 600 0 is_stmt 1
 461 005e B845     		cmp	r8, r7
 462 0060 1CD1     		bne	.L52
 601:..\common\ud3core/SignalGenerator.c ****                     if(data->voice[currVoice].limitedEnabled && data->voice[currVoice].limitedPulse
 463              		.loc 1 601 0
 464 0062 02FB03F0 		mul	r0, r2, r3
 465 0066 2118     		adds	r1, r4, r0
 466 0068 D1F82CE0 		ldr	lr, [r1, #44]
 467 006c BEF1000F 		cmp	lr, #0
 468 0070 43D0     		beq	.L53
 601:..\common\ud3core/SignalGenerator.c ****                     if(data->voice[currVoice].limitedEnabled && data->voice[currVoice].limitedPulse
 469              		.loc 1 601 0 is_stmt 0 discriminator 1
 470 0072 D1F854E0 		ldr	lr, [r1, #84]
 471 0076 BEF1000F 		cmp	lr, #0
ARM GAS  C:\Users\chemi\AppData\Local\Temp\ccbZzKkH.s 			page 21


 472 007a 3ED0     		beq	.L53
 605:..\common\ud3core/SignalGenerator.c ****                             //yes, set the timeToNextPulse to the hpv counter
 473              		.loc 1 605 0 is_stmt 1
 474 007c D1F80CE0 		ldr	lr, [r1, #12]
 602:..\common\ud3core/SignalGenerator.c ****                         
 475              		.loc 1 602 0
 476 0080 9846     		mov	r8, r3
 477              	.LVL41:
 605:..\common\ud3core/SignalGenerator.c ****                             //yes, set the timeToNextPulse to the hpv counter
 478              		.loc 1 605 0
 479 0082 BEF1000F 		cmp	lr, #0
 480 0086 06D1     		bne	.L54
 481              	.LVL42:
 605:..\common\ud3core/SignalGenerator.c ****                             //yes, set the timeToNextPulse to the hpv counter
 482              		.loc 1 605 0 is_stmt 0 discriminator 1
 483 0088 D1F808E0 		ldr	lr, [r1, #8]
 484 008c 2058     		ldr	r0, [r4, r0]
 485 008e 8645     		cmp	lr, r0
 486 0090 01DA     		bge	.L54
 607:..\common\ud3core/SignalGenerator.c ****                         }else{
 487              		.loc 1 607 0 is_stmt 1
 488 0092 8968     		ldr	r1, [r1, #8]
 489 0094 30E0     		b	.L155
 490              	.L54:
 610:..\common\ud3core/SignalGenerator.c ****                         }
 491              		.loc 1 610 0
 492 0096 02FB03F1 		mul	r1, r2, r3
 493 009a 2CE0     		b	.L56
 494              	.LVL43:
 495              	.L52:
 616:..\common\ud3core/SignalGenerator.c ****                         if((data->voice[currVoice].counter < nextPulse.period) || (data->voice[curr
 496              		.loc 1 616 0
 497 009c 02FB03F1 		mul	r1, r2, r3
 498 00a0 6018     		adds	r0, r4, r1
 499 00a2 D0F82CE0 		ldr	lr, [r0, #44]
 500 00a6 BEF1000F 		cmp	lr, #0
 501 00aa 26D0     		beq	.L53
 616:..\common\ud3core/SignalGenerator.c ****                         if((data->voice[currVoice].counter < nextPulse.period) || (data->voice[curr
 502              		.loc 1 616 0 is_stmt 0 discriminator 1
 503 00ac D0F854E0 		ldr	lr, [r0, #84]
 504 00b0 BEF1000F 		cmp	lr, #0
 505 00b4 21D0     		beq	.L53
 617:..\common\ud3core/SignalGenerator.c ****                             nextVoice = currVoice;
 506              		.loc 1 617 0 is_stmt 1
 507 00b6 54F801C0 		ldr	ip, [r4, r1]
 508 00ba DDF810E0 		ldr	lr, [sp, #16]
 509 00be F445     		cmp	ip, lr
 510 00c0 09DB     		blt	.L55
 617:..\common\ud3core/SignalGenerator.c ****                             nextVoice = currVoice;
 511              		.loc 1 617 0 is_stmt 0 discriminator 1
 512 00c2 D0F80CE0 		ldr	lr, [r0, #12]
 513 00c6 BEF1000F 		cmp	lr, #0
 514 00ca 16D1     		bne	.L53
 617:..\common\ud3core/SignalGenerator.c ****                             nextVoice = currVoice;
 515              		.loc 1 617 0 discriminator 2
 516 00cc D0F808E0 		ldr	lr, [r0, #8]
 517 00d0 0498     		ldr	r0, [sp, #16]
ARM GAS  C:\Users\chemi\AppData\Local\Temp\ccbZzKkH.s 			page 22


 518 00d2 8645     		cmp	lr, r0
 519 00d4 11DA     		bge	.L53
 520              	.L55:
 621:..\common\ud3core/SignalGenerator.c ****                                 //yes, set the timeToNextPulse to the hpv counter
 521              		.loc 1 621 0 is_stmt 1
 522 00d6 02FB0340 		mla	r0, r2, r3, r4
 523 00da D0F80CE0 		ldr	lr, [r0, #12]
 618:..\common\ud3core/SignalGenerator.c **** 
 524              		.loc 1 618 0
 525 00de 9846     		mov	r8, r3
 526              	.LVL44:
 621:..\common\ud3core/SignalGenerator.c ****                                 //yes, set the timeToNextPulse to the hpv counter
 527              		.loc 1 621 0
 528 00e0 BEF1000F 		cmp	lr, #0
 529 00e4 07D1     		bne	.L56
 530              	.LVL45:
 621:..\common\ud3core/SignalGenerator.c ****                                 //yes, set the timeToNextPulse to the hpv counter
 531              		.loc 1 621 0 is_stmt 0 discriminator 1
 532 00e6 D0F808C0 		ldr	ip, [r0, #8]
 533 00ea 54F801E0 		ldr	lr, [r4, r1]
 534 00ee F445     		cmp	ip, lr
 535 00f0 01DA     		bge	.L56
 623:..\common\ud3core/SignalGenerator.c ****                             }else{
 536              		.loc 1 623 0 is_stmt 1
 537 00f2 8168     		ldr	r1, [r0, #8]
 538 00f4 00E0     		b	.L155
 539              	.L56:
 626:..\common\ud3core/SignalGenerator.c ****                             }
 540              		.loc 1 626 0
 541 00f6 6158     		ldr	r1, [r4, r1]
 542              	.L155:
 543 00f8 0491     		str	r1, [sp, #16]
 544              	.LVL46:
 545              	.L53:
 546              		.loc 1 633 0 discriminator 2
 547 00fa 02FB0341 		mla	r1, r2, r3, r4
 595:..\common\ud3core/SignalGenerator.c ****                 //if we are in TR mode then only voice 1 is active and all others can be ignored
 548              		.loc 1 595 0 discriminator 2
 549 00fe 0133     		adds	r3, r3, #1
 550              	.LVL47:
 551 0100 062B     		cmp	r3, #6
 552              		.loc 1 633 0 discriminator 2
 553 0102 4D63     		str	r5, [r1, #52]
 595:..\common\ud3core/SignalGenerator.c ****                 //if we are in TR mode then only voice 1 is active and all others can be ignored
 554              		.loc 1 595 0 discriminator 2
 555 0104 A7D1     		bne	.L57
 556              	.L51:
 557              	.LBE28:
 634:..\common\ud3core/SignalGenerator.c ****             }
 635:..\common\ud3core/SignalGenerator.c ****             
 636:..\common\ud3core/SignalGenerator.c ****             if(nextVoice == 0xffff){ 
 558              		.loc 1 636 0
 559 0106 4FF6FF73 		movw	r3, #65535
 560              	.LVL48:
 561 010a 9845     		cmp	r8, r3
 562 010c 05D1     		bne	.L58
 563              	.LVL49:
ARM GAS  C:\Users\chemi\AppData\Local\Temp\ccbZzKkH.s 			page 23


 564              	.L103:
 565              	.LBE26:
 637:..\common\ud3core/SignalGenerator.c ****                 //if no voice is enabled we can just break out of the loop as no more data can be g
 638:..\common\ud3core/SignalGenerator.c ****                 break;
 639:..\common\ud3core/SignalGenerator.c ****             }
 640:..\common\ud3core/SignalGenerator.c ****             
 641:..\common\ud3core/SignalGenerator.c ****             //figure out how long the maximum delay we can add to the buffer without it becoming la
 642:..\common\ud3core/SignalGenerator.c ****             int32_t maxPeriod_us = SIGGEN_PERIOD_COUNT_TO_US(((SIGGEN_MS_TO_PERIOD_COUNT(SIGGEN_LON
 643:..\common\ud3core/SignalGenerator.c ****             
 644:..\common\ud3core/SignalGenerator.c ****             //is the time longer? If so just limit it to the maximum
 645:..\common\ud3core/SignalGenerator.c ****             //if we do this then no voice will trigger a pulse and all pulse parameters will remain
 646:..\common\ud3core/SignalGenerator.c ****             //the timer interrupt will check for this and ignore the pulse as if it was one that ha
 647:..\common\ud3core/SignalGenerator.c ****             if(nextPulse.period > maxPeriod_us) nextPulse.period = maxPeriod_us;
 648:..\common\ud3core/SignalGenerator.c ****             
 649:..\common\ud3core/SignalGenerator.c ****             //noVoicesEnabled = 0;
 650:..\common\ud3core/SignalGenerator.c **** 
 651:..\common\ud3core/SignalGenerator.c ****             //now the voice of which the timer expires next is indexed by nextVoice, propagate the 
 652:..\common\ud3core/SignalGenerator.c ****             for(uint32_t currVoice = 0; currVoice < SIGGEN_VOICECOUNT; currVoice++){
 653:..\common\ud3core/SignalGenerator.c ****                 //if we are in TR mode then only voice 1 is active and all others can be ignored
 654:..\common\ud3core/SignalGenerator.c ****                 if(synthMode == SYNTH_TR && currVoice >= 1) break;
 655:..\common\ud3core/SignalGenerator.c ****                 
 656:..\common\ud3core/SignalGenerator.c ****                 if(data->voice[currVoice].limitedEnabled){ 
 657:..\common\ud3core/SignalGenerator.c ****                     //decrement frequency timer
 658:..\common\ud3core/SignalGenerator.c ****                     data->voice[currVoice].counter -= nextPulse.period;
 659:..\common\ud3core/SignalGenerator.c ****                     
 660:..\common\ud3core/SignalGenerator.c ****                     //decrement burst timer if burst is active
 661:..\common\ud3core/SignalGenerator.c ****                     if(data->voice[currVoice].burstPeriod != 0) data->voice[currVoice].burstCounter
 662:..\common\ud3core/SignalGenerator.c ****                     
 663:..\common\ud3core/SignalGenerator.c ****                     //decrement hpv timer if hpv is active
 664:..\common\ud3core/SignalGenerator.c ****                     if(data->voice[currVoice].currHPVDivider == 0) data->voice[currVoice].currHPVCo
 665:..\common\ud3core/SignalGenerator.c **** 
 666:..\common\ud3core/SignalGenerator.c ****                     //check if a pulse needs to be sent because this timer expired (turned to 0)
 667:..\common\ud3core/SignalGenerator.c ****                     if(data->voice[currVoice].counter <= 0){ 
 668:..\common\ud3core/SignalGenerator.c ****                         //reset the counter. If noise is enabled we add a random offset to this
 669:..\common\ud3core/SignalGenerator.c ****                         
 670:..\common\ud3core/SignalGenerator.c ****                         //first make sure that the period is actually large enough to get the count
 671:..\common\ud3core/SignalGenerator.c ****                         if(data->voice[currVoice].limitedPeriod < -data->voice[currVoice].counter){
 672:..\common\ud3core/SignalGenerator.c ****                             //no its not... just reset the counter to zero. Best we can do :(
 673:..\common\ud3core/SignalGenerator.c ****                             data->voice[currVoice].counter = 0;
 674:..\common\ud3core/SignalGenerator.c ****                         }else{
 675:..\common\ud3core/SignalGenerator.c ****                             //yep data seems valid. Add the period to the counter
 676:..\common\ud3core/SignalGenerator.c ****                             data->voice[currVoice].counter += data->voice[currVoice].limitedPeriod;
 677:..\common\ud3core/SignalGenerator.c ****                         }
 678:..\common\ud3core/SignalGenerator.c ****                         
 679:..\common\ud3core/SignalGenerator.c ****                         if(data->voice[currVoice].noiseAmplitude){
 680:..\common\ud3core/SignalGenerator.c ****                             //generate 32bit random number
 681:..\common\ud3core/SignalGenerator.c ****                             int32_t randomizer = rand()*rand();
 682:..\common\ud3core/SignalGenerator.c ****                             //limit frequency change to 0.5-2.0x fBase or whatever noise Amplitude 
 683:..\common\ud3core/SignalGenerator.c ****                             int32_t noiseLimit = (data->voice[currVoice].noiseAmplitude > data->voi
 684:..\common\ud3core/SignalGenerator.c ****                             randomizer = (randomizer & noiseLimit) - (noiseLimit>>1);
 685:..\common\ud3core/SignalGenerator.c ****                             if(abs(randomizer) < data->voice[currVoice].counter) data->voice[currVo
 686:..\common\ud3core/SignalGenerator.c ****                         }  //TODO verify use of "&" as randomizer scaling
 687:..\common\ud3core/SignalGenerator.c **** 
 688:..\common\ud3core/SignalGenerator.c ****                         //overlay current pulse
 689:..\common\ud3core/SignalGenerator.c ****                         SigGen_overlayPulse(&nextPulse, data->voice[currVoice].pulseVolume, data->v
 690:..\common\ud3core/SignalGenerator.c **** 
 691:..\common\ud3core/SignalGenerator.c ****                         //block timer for this iteration
ARM GAS  C:\Users\chemi\AppData\Local\Temp\ccbZzKkH.s 			page 24


 692:..\common\ud3core/SignalGenerator.c ****                         data->voice[currVoice].alreadyTriggered = 1;
 693:..\common\ud3core/SignalGenerator.c ****                         
 694:..\common\ud3core/SignalGenerator.c ****                         //update HPV divider if it is enabled
 695:..\common\ud3core/SignalGenerator.c ****                         if(data->voice[currVoice].limitedHpvCount != 0 && !data->voice[currVoice].n
 696:..\common\ud3core/SignalGenerator.c ****                             
 697:..\common\ud3core/SignalGenerator.c ****                             //it is enabled, reduce divider count if its not already zero
 698:..\common\ud3core/SignalGenerator.c ****                             if(data->voice[currVoice].currHPVDivider > 0)  data->voice[currVoice].c
 699:..\common\ud3core/SignalGenerator.c **** 
 700:..\common\ud3core/SignalGenerator.c ****                             //reached the pulse to have HPV
 701:..\common\ud3core/SignalGenerator.c ****                             if(data->voice[currVoice].currHPVDivider == 0){
 702:..\common\ud3core/SignalGenerator.c ****                                 //reset counter to the correct offset
 703:..\common\ud3core/SignalGenerator.c ****                                 data->voice[currVoice].currHPVCounter = data->voice[currVoice].hpvO
 704:..\common\ud3core/SignalGenerator.c ****                             }
 705:..\common\ud3core/SignalGenerator.c ****                         }
 706:..\common\ud3core/SignalGenerator.c ****                         
 707:..\common\ud3core/SignalGenerator.c ****                     }
 708:..\common\ud3core/SignalGenerator.c ****                     
 709:..\common\ud3core/SignalGenerator.c ****                     if(data->voice[currVoice].currHPVDivider == 0 && data->voice[currVoice].currHPV
 710:..\common\ud3core/SignalGenerator.c ****                         //HPV pulse was just triggered. Process it like a normal one, but also upda
 711:..\common\ud3core/SignalGenerator.c ****                         
 712:..\common\ud3core/SignalGenerator.c ****                         //unlike a normal pulse a HPV pulse isn't continuous, it will disable itsel
 713:..\common\ud3core/SignalGenerator.c ****                         data->voice[currVoice].currHPVCounter = INT_MAX;
 714:..\common\ud3core/SignalGenerator.c ****                         
 715:..\common\ud3core/SignalGenerator.c ****                         //is HPV still supposed to be on?
 716:..\common\ud3core/SignalGenerator.c ****                         if(data->voice[currVoice].limitedHpvCount != 0 && !data->voice[currVoice].n
 717:..\common\ud3core/SignalGenerator.c ****                             //yes :)
 718:..\common\ud3core/SignalGenerator.c ****                             data->voice[currVoice].currHPVDivider = data->voice[currVoice].limitedH
 719:..\common\ud3core/SignalGenerator.c ****                         }else{
 720:..\common\ud3core/SignalGenerator.c ****                             data->voice[currVoice].currHPVDivider = INT_MAX;
 721:..\common\ud3core/SignalGenerator.c ****                         }
 722:..\common\ud3core/SignalGenerator.c ****                                 
 723:..\common\ud3core/SignalGenerator.c ****                         //overlay current pulse
 724:..\common\ud3core/SignalGenerator.c ****                         SigGen_overlayPulse(&nextPulse, data->voice[currVoice].hpvVolume, data->voi
 725:..\common\ud3core/SignalGenerator.c **** 
 726:..\common\ud3core/SignalGenerator.c ****                         //block timer for this iteration
 727:..\common\ud3core/SignalGenerator.c ****                         data->voice[currVoice].alreadyTriggered = 1;
 728:..\common\ud3core/SignalGenerator.c ****                     }
 729:..\common\ud3core/SignalGenerator.c ****                     
 730:..\common\ud3core/SignalGenerator.c ****                     if(data->voice[currVoice].burstPeriod != 0 && data->voice[currVoice].burstCount
 731:..\common\ud3core/SignalGenerator.c ****                         //burst period timer just rolled over. Reset it
 732:..\common\ud3core/SignalGenerator.c ****                         data->voice[currVoice].burstCounter += data->voice[currVoice].burstPeriod;
 733:..\common\ud3core/SignalGenerator.c ****                     }
 734:..\common\ud3core/SignalGenerator.c **** 
 735:..\common\ud3core/SignalGenerator.c ****                     configASSERT(data->voice[currVoice].counter >= 0);
 736:..\common\ud3core/SignalGenerator.c ****                 }
 737:..\common\ud3core/SignalGenerator.c ****             }
 738:..\common\ud3core/SignalGenerator.c ****             
 739:..\common\ud3core/SignalGenerator.c ****             //find timers that would trigger within the ontime or holdoff time of the current pulse
 740:..\common\ud3core/SignalGenerator.c ****             
 741:..\common\ud3core/SignalGenerator.c **** 			//check if any other timers would trigger within the ontime and or the holdoff time
 742:..\common\ud3core/SignalGenerator.c ****             for(uint32_t currVoice = 0; currVoice < SIGGEN_VOICECOUNT; currVoice++){
 743:..\common\ud3core/SignalGenerator.c ****                 //if we are in TR mode then only voice 1 is active and all others can be ignored
 744:..\common\ud3core/SignalGenerator.c ****                 if(synthMode == SYNTH_TR && currVoice >= 1) break;
 745:..\common\ud3core/SignalGenerator.c ****                 
 746:..\common\ud3core/SignalGenerator.c ****                 int32_t currentMinimumPeriod = (nextPulse.onTime + param.offtime);
 747:..\common\ud3core/SignalGenerator.c ****                 
 748:..\common\ud3core/SignalGenerator.c ****                 if(data->voice[currVoice].limitedEnabled){ 
ARM GAS  C:\Users\chemi\AppData\Local\Temp\ccbZzKkH.s 			page 25


 749:..\common\ud3core/SignalGenerator.c ****                     //would the note pulse occur within the pulse or during the holdoff time after 
 750:..\common\ud3core/SignalGenerator.c ****                     if(data->voice[currVoice].counter < currentMinimumPeriod){ 
 751:..\common\ud3core/SignalGenerator.c ****                         
 752:..\common\ud3core/SignalGenerator.c ****                         data->voice[currVoice].counter += data->voice[currVoice].limitedPeriod;
 753:..\common\ud3core/SignalGenerator.c ****                         
 754:..\common\ud3core/SignalGenerator.c ****                         if(data->voice[currVoice].noiseAmplitude){
 755:..\common\ud3core/SignalGenerator.c ****                             //generate 32bit random number
 756:..\common\ud3core/SignalGenerator.c ****                             int32_t randomizer = rand()*rand();
 757:..\common\ud3core/SignalGenerator.c ****                             //limit frequency change to 0.5-2.0x fBase or whatever noise Amplitude 
 758:..\common\ud3core/SignalGenerator.c ****                             int32_t noiseLimit = (data->voice[currVoice].noiseAmplitude > data->voi
 759:..\common\ud3core/SignalGenerator.c ****                             randomizer = (randomizer & noiseLimit) - (noiseLimit>>1);
 760:..\common\ud3core/SignalGenerator.c ****                             if(abs(randomizer) < data->voice[currVoice].counter) data->voice[currVo
 761:..\common\ud3core/SignalGenerator.c ****                         }  //TODO verify use of "&" as randomizer scaling
 762:..\common\ud3core/SignalGenerator.c ****                         
 763:..\common\ud3core/SignalGenerator.c ****                         //did this timer already trigger during this pulse length? If so we just sk
 764:..\common\ud3core/SignalGenerator.c ****                         if(!data->voice[currVoice].alreadyTriggered){
 765:..\common\ud3core/SignalGenerator.c ****                             //overlay current pulse
 766:..\common\ud3core/SignalGenerator.c ****                             SigGen_overlayPulse(&nextPulse, data->voice[currVoice].pulseVolume, dat
 767:..\common\ud3core/SignalGenerator.c **** 
 768:..\common\ud3core/SignalGenerator.c ****                             //block timer for this iteration
 769:..\common\ud3core/SignalGenerator.c ****                             data->voice[currVoice].alreadyTriggered = 1;
 770:..\common\ud3core/SignalGenerator.c **** 
 771:..\common\ud3core/SignalGenerator.c ****                             //and finally go back to the start of the list
 772:..\common\ud3core/SignalGenerator.c ****                             currVoice = 0;
 773:..\common\ud3core/SignalGenerator.c ****                         }
 774:..\common\ud3core/SignalGenerator.c ****                     }
 775:..\common\ud3core/SignalGenerator.c ****                     
 776:..\common\ud3core/SignalGenerator.c ****                     //would the voices HPV pulse trigger during the deadtime?
 777:..\common\ud3core/SignalGenerator.c ****                     if(data->voice[currVoice].currHPVDivider == 0 && data->voice[currVoice].currHPV
 778:..\common\ud3core/SignalGenerator.c ****                         //disable HPV counter
 779:..\common\ud3core/SignalGenerator.c ****                         data->voice[currVoice].currHPVCounter = INT_MAX;
 780:..\common\ud3core/SignalGenerator.c ****                         
 781:..\common\ud3core/SignalGenerator.c ****                         //is HPV still supposed to be on?
 782:..\common\ud3core/SignalGenerator.c ****                         if(data->voice[currVoice].limitedHpvCount != 0 && !data->voice[currVoice].n
 783:..\common\ud3core/SignalGenerator.c ****                             //yes :)
 784:..\common\ud3core/SignalGenerator.c ****                             data->voice[currVoice].currHPVDivider = data->voice[currVoice].limitedH
 785:..\common\ud3core/SignalGenerator.c ****                         }else{
 786:..\common\ud3core/SignalGenerator.c ****                             //no :(
 787:..\common\ud3core/SignalGenerator.c ****                             data->voice[currVoice].currHPVDivider = INT_MAX;
 788:..\common\ud3core/SignalGenerator.c ****                         }
 789:..\common\ud3core/SignalGenerator.c ****                         
 790:..\common\ud3core/SignalGenerator.c ****                         //did this timer already trigger during this pulse length? If so we just sk
 791:..\common\ud3core/SignalGenerator.c ****                         if(!data->voice[currVoice].alreadyTriggered){
 792:..\common\ud3core/SignalGenerator.c ****                             //no => add the pulse volume to the current one. Check if the width is 
 793:..\common\ud3core/SignalGenerator.c ****                             
 794:..\common\ud3core/SignalGenerator.c ****                             //overlay current pulse
 795:..\common\ud3core/SignalGenerator.c ****                             SigGen_overlayPulse(&nextPulse, data->voice[currVoice].hpvVolume, data-
 796:..\common\ud3core/SignalGenerator.c **** 
 797:..\common\ud3core/SignalGenerator.c ****                             //block timer for this iteration
 798:..\common\ud3core/SignalGenerator.c ****                             data->voice[currVoice].alreadyTriggered = 1;
 799:..\common\ud3core/SignalGenerator.c **** 
 800:..\common\ud3core/SignalGenerator.c ****                             //and finally go back to the start of the list
 801:..\common\ud3core/SignalGenerator.c ****                             currVoice = 0;
 802:..\common\ud3core/SignalGenerator.c ****                         }
 803:..\common\ud3core/SignalGenerator.c ****                     }
 804:..\common\ud3core/SignalGenerator.c ****                 }
 805:..\common\ud3core/SignalGenerator.c ****             }
ARM GAS  C:\Users\chemi\AppData\Local\Temp\ccbZzKkH.s 			page 26


 806:..\common\ud3core/SignalGenerator.c ****             
 807:..\common\ud3core/SignalGenerator.c ****             //limit volume of pulse
 808:..\common\ud3core/SignalGenerator.c ****             if(nextPulse.onTime > MAX_VOL) nextPulse.onTime = MAX_VOL;
 809:..\common\ud3core/SignalGenerator.c ****             
 810:..\common\ud3core/SignalGenerator.c ****             //check if the voice fron which the pulse originates is muted due to burst off time. If
 811:..\common\ud3core/SignalGenerator.c ****             //we still need to add it however to prevent the buffer from running dry and the load e
 812:..\common\ud3core/SignalGenerator.c ****             if(data->voice[nextVoice].burstPeriod != 0 && data->voice[nextVoice].burstCounter < dat
 813:..\common\ud3core/SignalGenerator.c ****                 nextPulse.onTime = 0;
 814:..\common\ud3core/SignalGenerator.c ****                 nextPulse.current = 0;
 815:..\common\ud3core/SignalGenerator.c ****             }
 816:..\common\ud3core/SignalGenerator.c ****             
 817:..\common\ud3core/SignalGenerator.c ****             //we were here
 818:..\common\ud3core/SignalGenerator.c ****             //convert the period, volume and ontime to the values that will need to be written into
 819:..\common\ud3core/SignalGenerator.c ****             currPulse.period = SIGGEN_US_TO_PERIOD_COUNT(nextPulse.period);
 820:..\common\ud3core/SignalGenerator.c ****             currPulse.onTime = SIGGEN_US_TO_OT_COUNT(nextPulse.onTime);
 821:..\common\ud3core/SignalGenerator.c ****             currPulse.current = SIGGEN_VOLUME_TO_CURRENT_DAC_VALUE(nextPulse.current);
 822:..\common\ud3core/SignalGenerator.c ****             
 823:..\common\ud3core/SignalGenerator.c ****             //write it into the buffer
 824:..\common\ud3core/SignalGenerator.c ****             if(RingBuffer_write(data->pulseBuffer, (void*)&currPulse, 1, 0) != 1){
 825:..\common\ud3core/SignalGenerator.c ****                 //write failed, not enough space available...
 826:..\common\ud3core/SignalGenerator.c ****                 //TODO maybe send an alarm?
 827:..\common\ud3core/SignalGenerator.c ****                 
 828:..\common\ud3core/SignalGenerator.c ****                 //theoretically it might be cleverer to continue; here, but that could create a sit
 829:..\common\ud3core/SignalGenerator.c ****                 break;
 830:..\common\ud3core/SignalGenerator.c ****             }else{
 831:..\common\ud3core/SignalGenerator.c ****                 //increase the buffersize
 832:..\common\ud3core/SignalGenerator.c ****                 SigGen_disableTimerISR();
 833:..\common\ud3core/SignalGenerator.c ****                 data->bufferLengthInCounts += currPulse.period;
 834:..\common\ud3core/SignalGenerator.c ****                 SigGen_enableTimerISR();
 835:..\common\ud3core/SignalGenerator.c ****             }
 836:..\common\ud3core/SignalGenerator.c ****         }
 837:..\common\ud3core/SignalGenerator.c ****         
 838:..\common\ud3core/SignalGenerator.c ****         //it is possible that the timer is turned of at this point in the code but a pulse is waiti
 839:..\common\ud3core/SignalGenerator.c ****         if(!SigGen_isTimerRunning() && RingBuffer_getDataCount(data->pulseBuffer) > 0){
 566              		.loc 1 839 0
 567 010e FFF7FEFF 		bl	interrupterTimebase_ReadControlRegister
 568              	.LVL50:
 569 0112 0306     		lsls	r3, r0, #24
 570 0114 40F18381 		bpl	.L59
 571 0118 7EE7     		b	.L48
 572              	.LVL51:
 573              	.L58:
 574              	.LBB52:
 642:..\common\ud3core/SignalGenerator.c ****             
 575              		.loc 1 642 0
 576 011a D4F87032 		ldr	r3, [r4, #624]
 647:..\common\ud3core/SignalGenerator.c ****             
 577              		.loc 1 647 0
 578 011e 049A     		ldr	r2, [sp, #16]
 642:..\common\ud3core/SignalGenerator.c ****             
 579              		.loc 1 642 0
 580 0120 C3F57A43 		rsb	r3, r3, #64000
 581 0124 5B11     		asrs	r3, r3, #5
 582              	.LVL52:
 647:..\common\ud3core/SignalGenerator.c ****             
 583              		.loc 1 647 0
 584 0126 9342     		cmp	r3, r2
ARM GAS  C:\Users\chemi\AppData\Local\Temp\ccbZzKkH.s 			page 27


 585 0128 B8BF     		it	lt
 586 012a 0493     		strlt	r3, [sp, #16]
 587              	.LVL53:
 592:..\common\ud3core/SignalGenerator.c ****             SigGen_pulseData_t nextPulse = {.current = 0, . onTime = 0, .period = INT_MAX};
 588              		.loc 1 592 0
 589 012c 0025     		movs	r5, #0
 590              	.LBB29:
 656:..\common\ud3core/SignalGenerator.c ****                     //decrement frequency timer
 591              		.loc 1 656 0
 592 012e 6826     		movs	r6, #104
 713:..\common\ud3core/SignalGenerator.c ****                         
 593              		.loc 1 713 0
 594 0130 6FF00042 		mvn	r2, #-2147483648
 727:..\common\ud3core/SignalGenerator.c ****                     }
 595              		.loc 1 727 0
 596 0134 0121     		movs	r1, #1
 597              	.LVL54:
 598              	.L85:
 654:..\common\ud3core/SignalGenerator.c ****                 
 599              		.loc 1 654 0
 600 0136 9BF81030 		ldrb	r3, [fp, #16]	@ zero_extendqisi2
 601 013a 032B     		cmp	r3, #3
 602 013c 05D1     		bne	.L62
 654:..\common\ud3core/SignalGenerator.c ****                 
 603              		.loc 1 654 0 is_stmt 0 discriminator 1
 604 013e 25B1     		cbz	r5, .L62
 605              	.L86:
 606              	.LVL55:
 607              	.LBE29:
 592:..\common\ud3core/SignalGenerator.c ****             SigGen_pulseData_t nextPulse = {.current = 0, . onTime = 0, .period = INT_MAX};
 608              		.loc 1 592 0 is_stmt 1
 609 0140 0025     		movs	r5, #0
 610              	.LVL56:
 611              	.LBB35:
 612              	.LBB36:
 748:..\common\ud3core/SignalGenerator.c ****                     //would the note pulse occur within the pulse or during the holdoff time after 
 613              		.loc 1 748 0
 614 0142 6827     		movs	r7, #104
 779:..\common\ud3core/SignalGenerator.c ****                         
 615              		.loc 1 779 0
 616 0144 6FF00042 		mvn	r2, #-2147483648
 617 0148 BAE0     		b	.L63
 618              	.LVL57:
 619              	.L62:
 620              	.LBE36:
 621              	.LBE35:
 622              	.LBB49:
 656:..\common\ud3core/SignalGenerator.c ****                     //decrement frequency timer
 623              		.loc 1 656 0
 624 014a 06FB05F7 		mul	r7, r6, r5
 625 014e 04EB070A 		add	r10, r4, r7
 626 0152 DAF82C30 		ldr	r3, [r10, #44]
 627 0156 002B     		cmp	r3, #0
 628 0158 00F09A80 		beq	.L65
 658:..\common\ud3core/SignalGenerator.c ****                     
 629              		.loc 1 658 0
 630 015c 0498     		ldr	r0, [sp, #16]
ARM GAS  C:\Users\chemi\AppData\Local\Temp\ccbZzKkH.s 			page 28


 631 015e E359     		ldr	r3, [r4, r7]
 632 0160 1B1A     		subs	r3, r3, r0
 633 0162 E351     		str	r3, [r4, r7]
 661:..\common\ud3core/SignalGenerator.c ****                     
 634              		.loc 1 661 0
 635 0164 DAF86030 		ldr	r3, [r10, #96]
 636 0168 2BB1     		cbz	r3, .L66
 661:..\common\ud3core/SignalGenerator.c ****                     
 637              		.loc 1 661 0 is_stmt 0 discriminator 1
 638 016a 0498     		ldr	r0, [sp, #16]
 639 016c DAF80430 		ldr	r3, [r10, #4]
 640 0170 1B1A     		subs	r3, r3, r0
 641 0172 CAF80430 		str	r3, [r10, #4]
 642              	.L66:
 664:..\common\ud3core/SignalGenerator.c **** 
 643              		.loc 1 664 0 is_stmt 1
 644 0176 06FB0543 		mla	r3, r6, r5, r4
 645 017a D868     		ldr	r0, [r3, #12]
 646 017c 28B9     		cbnz	r0, .L67
 664:..\common\ud3core/SignalGenerator.c **** 
 647              		.loc 1 664 0 is_stmt 0 discriminator 1
 648 017e DDF810E0 		ldr	lr, [sp, #16]
 649 0182 9868     		ldr	r0, [r3, #8]
 650 0184 CEEB0000 		rsb	r0, lr, r0
 651 0188 9860     		str	r0, [r3, #8]
 652              	.L67:
 667:..\common\ud3core/SignalGenerator.c ****                         //reset the counter. If noise is enabled we add a random offset to this
 653              		.loc 1 667 0 is_stmt 1
 654 018a E359     		ldr	r3, [r4, r7]
 655 018c 002B     		cmp	r3, #0
 656 018e 51DC     		bgt	.L69
 671:..\common\ud3core/SignalGenerator.c ****                             //no its not... just reset the counter to zero. Best we can do :(
 657              		.loc 1 671 0
 658 0190 06FB0540 		mla	r0, r6, r5, r4
 659 0194 D0F814E0 		ldr	lr, [r0, #20]
 660 0198 E359     		ldr	r3, [r4, r7]
 661 019a 5B42     		negs	r3, r3
 662 019c 9E45     		cmp	lr, r3
 676:..\common\ud3core/SignalGenerator.c ****                         }
 663              		.loc 1 676 0
 664 019e A5BF     		ittet	ge
 665 01a0 4069     		ldrge	r0, [r0, #20]
 666 01a2 E359     		ldrge	r3, [r4, r7]
 673:..\common\ud3core/SignalGenerator.c ****                         }else{
 667              		.loc 1 673 0
 668 01a4 0023     		movlt	r3, #0
 676:..\common\ud3core/SignalGenerator.c ****                         }
 669              		.loc 1 676 0
 670 01a6 1B18     		addge	r3, r3, r0
 671 01a8 E351     		str	r3, [r4, r7]
 679:..\common\ud3core/SignalGenerator.c ****                             //generate 32bit random number
 672              		.loc 1 679 0
 673 01aa 06FB0543 		mla	r3, r6, r5, r4
 674 01ae 186B     		ldr	r0, [r3, #48]
 675 01b0 08B3     		cbz	r0, .L73
 676 01b2 0391     		str	r1, [sp, #12]
 677 01b4 0292     		str	r2, [sp, #8]
ARM GAS  C:\Users\chemi\AppData\Local\Temp\ccbZzKkH.s 			page 29


 678 01b6 0193     		str	r3, [sp, #4]
 679              	.LBB30:
 681:..\common\ud3core/SignalGenerator.c ****                             //limit frequency change to 0.5-2.0x fBase or whatever noise Amplitude 
 680              		.loc 1 681 0
 681 01b8 FFF7FEFF 		bl	rand
 682              	.LVL58:
 683 01bc 8146     		mov	r9, r0
 684 01be FFF7FEFF 		bl	rand
 685              	.LVL59:
 683:..\common\ud3core/SignalGenerator.c ****                             randomizer = (randomizer & noiseLimit) - (noiseLimit>>1);
 686              		.loc 1 683 0
 687 01c2 019B     		ldr	r3, [sp, #4]
 681:..\common\ud3core/SignalGenerator.c ****                             //limit frequency change to 0.5-2.0x fBase or whatever noise Amplitude 
 688              		.loc 1 681 0
 689 01c4 00FB09F0 		mul	r0, r0, r9
 690              	.LVL60:
 683:..\common\ud3core/SignalGenerator.c ****                             randomizer = (randomizer & noiseLimit) - (noiseLimit>>1);
 691              		.loc 1 683 0
 692 01c8 D3F830C0 		ldr	ip, [r3, #48]
 693 01cc D3F814E0 		ldr	lr, [r3, #20]
 694 01d0 029A     		ldr	r2, [sp, #8]
 695 01d2 F445     		cmp	ip, lr
 696 01d4 CCBF     		ite	gt
 697 01d6 5B69     		ldrgt	r3, [r3, #20]
 698 01d8 1B6B     		ldrle	r3, [r3, #48]
 699              	.LVL61:
 700 01da 0399     		ldr	r1, [sp, #12]
 684:..\common\ud3core/SignalGenerator.c ****                             if(abs(randomizer) < data->voice[currVoice].counter) data->voice[currVo
 701              		.loc 1 684 0
 702 01dc 1840     		ands	r0, r0, r3
 703              	.LVL62:
 704 01de A0EB6300 		sub	r0, r0, r3, asr #1
 705              	.LVL63:
 685:..\common\ud3core/SignalGenerator.c ****                         }  //TODO verify use of "&" as randomizer scaling
 706              		.loc 1 685 0
 707 01e2 80EAE07E 		eor	lr, r0, r0, asr #31
 708 01e6 E359     		ldr	r3, [r4, r7]
 709              	.LVL64:
 710 01e8 AEEBE07E 		sub	lr, lr, r0, asr #31
 711 01ec 9E45     		cmp	lr, r3
 712 01ee BEBF     		ittt	lt
 713 01f0 E359     		ldrlt	r3, [r4, r7]
 714 01f2 C018     		addlt	r0, r0, r3
 715              	.LVL65:
 716 01f4 E051     		strlt	r0, [r4, r7]
 717              	.L73:
 718              	.LBE30:
 689:..\common\ud3core/SignalGenerator.c **** 
 719              		.loc 1 689 0
 720 01f6 06FB0543 		mla	r3, r6, r5, r4
 721 01fa 5F6C     		ldr	r7, [r3, #68]
 722 01fc 586D     		ldr	r0, [r3, #84]
 723              	.LVL66:
 724              	.LBB31:
 725              	.LBB32:
 564:..\common\ud3core/SignalGenerator.c ****     
 726              		.loc 1 564 0
ARM GAS  C:\Users\chemi\AppData\Local\Temp\ccbZzKkH.s 			page 30


 727 01fe 059B     		ldr	r3, [sp, #20]
 728 0200 9842     		cmp	r0, r3
 729 0202 C8BF     		it	gt
 730 0204 0590     		strgt	r0, [sp, #20]
 566:..\common\ud3core/SignalGenerator.c ****     
 731              		.loc 1 566 0
 732 0206 069B     		ldr	r3, [sp, #24]
 733 0208 3B44     		add	r3, r3, r7
 734 020a 0693     		str	r3, [sp, #24]
 735              	.LVL67:
 736              	.LBE32:
 737              	.LBE31:
 692:..\common\ud3core/SignalGenerator.c ****                         
 738              		.loc 1 692 0
 739 020c 06FB0543 		mla	r3, r6, r5, r4
 740 0210 5963     		str	r1, [r3, #52]
 695:..\common\ud3core/SignalGenerator.c ****                             
 741              		.loc 1 695 0
 742 0212 586A     		ldr	r0, [r3, #36]
 743 0214 70B1     		cbz	r0, .L69
 695:..\common\ud3core/SignalGenerator.c ****                             
 744              		.loc 1 695 0 is_stmt 0 discriminator 1
 745 0216 186B     		ldr	r0, [r3, #48]
 746 0218 60B9     		cbnz	r0, .L69
 698:..\common\ud3core/SignalGenerator.c **** 
 747              		.loc 1 698 0 is_stmt 1
 748 021a D868     		ldr	r0, [r3, #12]
 749 021c 0028     		cmp	r0, #0
 750 021e C2BF     		ittt	gt
 751 0220 D868     		ldrgt	r0, [r3, #12]
 752 0222 00F1FF30 		addgt	r0, r0, #-1
 753 0226 D860     		strgt	r0, [r3, #12]
 701:..\common\ud3core/SignalGenerator.c ****                                 //reset counter to the correct offset
 754              		.loc 1 701 0
 755 0228 06FB0543 		mla	r3, r6, r5, r4
 756 022c D868     		ldr	r0, [r3, #12]
 757 022e 08B9     		cbnz	r0, .L69
 703:..\common\ud3core/SignalGenerator.c ****                             }
 758              		.loc 1 703 0
 759 0230 D869     		ldr	r0, [r3, #28]
 760 0232 9860     		str	r0, [r3, #8]
 761              	.L69:
 709:..\common\ud3core/SignalGenerator.c ****                         //HPV pulse was just triggered. Process it like a normal one, but also upda
 762              		.loc 1 709 0
 763 0234 06FB0543 		mla	r3, r6, r5, r4
 764 0238 D868     		ldr	r0, [r3, #12]
 765 023a D8B9     		cbnz	r0, .L80
 709:..\common\ud3core/SignalGenerator.c ****                         //HPV pulse was just triggered. Process it like a normal one, but also upda
 766              		.loc 1 709 0 is_stmt 0 discriminator 1
 767 023c 9868     		ldr	r0, [r3, #8]
 768 023e 0028     		cmp	r0, #0
 769 0240 18DC     		bgt	.L80
 713:..\common\ud3core/SignalGenerator.c ****                         
 770              		.loc 1 713 0 is_stmt 1
 771 0242 9A60     		str	r2, [r3, #8]
 716:..\common\ud3core/SignalGenerator.c ****                             //yes :)
 772              		.loc 1 716 0
ARM GAS  C:\Users\chemi\AppData\Local\Temp\ccbZzKkH.s 			page 31


 773 0244 586A     		ldr	r0, [r3, #36]
 774 0246 20B1     		cbz	r0, .L81
 716:..\common\ud3core/SignalGenerator.c ****                             //yes :)
 775              		.loc 1 716 0 is_stmt 0 discriminator 1
 776 0248 186B     		ldr	r0, [r3, #48]
 777 024a 10B9     		cbnz	r0, .L81
 718:..\common\ud3core/SignalGenerator.c ****                         }else{
 778              		.loc 1 718 0 is_stmt 1
 779 024c 586A     		ldr	r0, [r3, #36]
 780 024e D860     		str	r0, [r3, #12]
 781 0250 02E0     		b	.L82
 782              	.L81:
 720:..\common\ud3core/SignalGenerator.c ****                         }
 783              		.loc 1 720 0
 784 0252 06FB0543 		mla	r3, r6, r5, r4
 785 0256 DA60     		str	r2, [r3, #12]
 786              	.L82:
 724:..\common\ud3core/SignalGenerator.c **** 
 787              		.loc 1 724 0
 788 0258 06FB0543 		mla	r3, r6, r5, r4
 789 025c 1F6C     		ldr	r7, [r3, #64]
 790 025e D86D     		ldr	r0, [r3, #92]
 791              	.LVL68:
 792              	.LBB33:
 793              	.LBB34:
 564:..\common\ud3core/SignalGenerator.c ****     
 794              		.loc 1 564 0
 795 0260 059B     		ldr	r3, [sp, #20]
 796 0262 8342     		cmp	r3, r0
 797 0264 B8BF     		it	lt
 798 0266 0590     		strlt	r0, [sp, #20]
 566:..\common\ud3core/SignalGenerator.c ****     
 799              		.loc 1 566 0
 800 0268 069B     		ldr	r3, [sp, #24]
 801 026a 3B44     		add	r3, r3, r7
 802 026c 0693     		str	r3, [sp, #24]
 803              	.LVL69:
 804              	.LBE34:
 805              	.LBE33:
 727:..\common\ud3core/SignalGenerator.c ****                     }
 806              		.loc 1 727 0
 807 026e 06FB0543 		mla	r3, r6, r5, r4
 808 0272 5963     		str	r1, [r3, #52]
 809              	.L80:
 730:..\common\ud3core/SignalGenerator.c ****                         //burst period timer just rolled over. Reset it
 810              		.loc 1 730 0
 811 0274 06FB0543 		mla	r3, r6, r5, r4
 812 0278 186E     		ldr	r0, [r3, #96]
 813 027a 48B1     		cbz	r0, .L65
 730:..\common\ud3core/SignalGenerator.c ****                         //burst period timer just rolled over. Reset it
 814              		.loc 1 730 0 is_stmt 0 discriminator 1
 815 027c DAF80400 		ldr	r0, [r10, #4]
 816 0280 0028     		cmp	r0, #0
 732:..\common\ud3core/SignalGenerator.c ****                     }
 817              		.loc 1 732 0 is_stmt 1 discriminator 1
 818 0282 DFBF     		itttt	le
 819 0284 186E     		ldrle	r0, [r3, #96]
ARM GAS  C:\Users\chemi\AppData\Local\Temp\ccbZzKkH.s 			page 32


 820 0286 DAF80430 		ldrle	r3, [r10, #4]
 821 028a 1B18     		addle	r3, r3, r0
 822 028c CAF80430 		strle	r3, [r10, #4]
 823              	.L65:
 652:..\common\ud3core/SignalGenerator.c ****                 //if we are in TR mode then only voice 1 is active and all others can be ignored
 824              		.loc 1 652 0 discriminator 2
 825 0290 0135     		adds	r5, r5, #1
 826              	.LVL70:
 827 0292 062D     		cmp	r5, #6
 828 0294 7FF44FAF 		bne	.L85
 829 0298 52E7     		b	.L86
 830              	.L160:
 831 029a 00BF     		.align	2
 832              	.L159:
 833 029c 00000000 		.word	currPulse
 834 02a0 00000000 		.word	.LANCHOR1
 835 02a4 00000000 		.word	.LANCHOR0
 836              	.LVL71:
 837              	.L158:
 838              	.LBE49:
 839              	.LBB50:
 840              	.LBB46:
 744:..\common\ud3core/SignalGenerator.c ****                 
 841              		.loc 1 744 0 discriminator 1
 842 02a8 7DB9     		cbnz	r5, .L101
 843              	.L87:
 748:..\common\ud3core/SignalGenerator.c ****                     //would the note pulse occur within the pulse or during the holdoff time after 
 844              		.loc 1 748 0
 845 02aa 07FB05F9 		mul	r9, r7, r5
 846 02ae 04EB090A 		add	r10, r4, r9
 746:..\common\ud3core/SignalGenerator.c ****                 
 847              		.loc 1 746 0
 848 02b2 059B     		ldr	r3, [sp, #20]
 849              	.LVL72:
 748:..\common\ud3core/SignalGenerator.c ****                     //would the note pulse occur within the pulse or during the holdoff time after 
 850              		.loc 1 748 0
 851 02b4 DAF82C10 		ldr	r1, [r10, #44]
 852 02b8 79B9     		cbnz	r1, .L157
 853              	.LVL73:
 854              	.L90:
 855              	.LBE46:
 742:..\common\ud3core/SignalGenerator.c ****                 //if we are in TR mode then only voice 1 is active and all others can be ignored
 856              		.loc 1 742 0 discriminator 2
 857 02ba 0135     		adds	r5, r5, #1
 858              	.LVL74:
 859 02bc 062D     		cmp	r5, #6
 860 02be 04D0     		beq	.L101
 861              	.LVL75:
 862              	.L63:
 863              	.LBB47:
 744:..\common\ud3core/SignalGenerator.c ****                 
 864              		.loc 1 744 0
 865 02c0 9BF81030 		ldrb	r3, [fp, #16]	@ zero_extendqisi2
 866 02c4 032B     		cmp	r3, #3
 867 02c6 F0D1     		bne	.L87
 868 02c8 EEE7     		b	.L158
 869              	.L101:
ARM GAS  C:\Users\chemi\AppData\Local\Temp\ccbZzKkH.s 			page 33


 870              	.LBE47:
 871              	.LBE50:
 808:..\common\ud3core/SignalGenerator.c ****             
 872              		.loc 1 808 0
 873 02ca 059B     		ldr	r3, [sp, #20]
 874 02cc B3F5004F 		cmp	r3, #32768
 875 02d0 71DB     		blt	.L89
 808:..\common\ud3core/SignalGenerator.c ****             
 876              		.loc 1 808 0 is_stmt 0 discriminator 1
 877 02d2 47F6FF73 		movw	r3, #32767
 878 02d6 0593     		str	r3, [sp, #20]
 879 02d8 6DE0     		b	.L89
 880              	.LVL76:
 881              	.L157:
 882              	.LBB51:
 883              	.LBB48:
 746:..\common\ud3core/SignalGenerator.c ****                 
 884              		.loc 1 746 0 is_stmt 1
 885 02da 6B49     		ldr	r1, .L161
 886 02dc C989     		ldrh	r1, [r1, #14]
 887 02de 0B44     		add	r3, r3, r1
 888              	.LVL77:
 750:..\common\ud3core/SignalGenerator.c ****                         
 889              		.loc 1 750 0
 890 02e0 54F80910 		ldr	r1, [r4, r9]
 891 02e4 8B42     		cmp	r3, r1
 892 02e6 3FDD     		ble	.L91
 752:..\common\ud3core/SignalGenerator.c ****                         
 893              		.loc 1 752 0
 894 02e8 DAF81400 		ldr	r0, [r10, #20]
 895 02ec 54F80910 		ldr	r1, [r4, r9]
 896 02f0 0144     		add	r1, r1, r0
 897 02f2 44F80910 		str	r1, [r4, r9]
 754:..\common\ud3core/SignalGenerator.c ****                             //generate 32bit random number
 898              		.loc 1 754 0
 899 02f6 DAF83010 		ldr	r1, [r10, #48]
 900 02fa 19B3     		cbz	r1, .L93
 901 02fc 0292     		str	r2, [sp, #8]
 902 02fe 0193     		str	r3, [sp, #4]
 903              	.LBB37:
 756:..\common\ud3core/SignalGenerator.c ****                             //limit frequency change to 0.5-2.0x fBase or whatever noise Amplitude 
 904              		.loc 1 756 0
 905 0300 FFF7FEFF 		bl	rand
 906              	.LVL78:
 907 0304 0646     		mov	r6, r0
 908 0306 FFF7FEFF 		bl	rand
 909              	.LVL79:
 910 030a 7043     		muls	r0, r6, r0
 911              	.LVL80:
 758:..\common\ud3core/SignalGenerator.c ****                             randomizer = (randomizer & noiseLimit) - (noiseLimit>>1);
 912              		.loc 1 758 0
 913 030c DAF83060 		ldr	r6, [r10, #48]
 914 0310 DAF81410 		ldr	r1, [r10, #20]
 915 0314 019B     		ldr	r3, [sp, #4]
 916 0316 8E42     		cmp	r6, r1
 917 0318 CCBF     		ite	gt
 918 031a DAF81410 		ldrgt	r1, [r10, #20]
ARM GAS  C:\Users\chemi\AppData\Local\Temp\ccbZzKkH.s 			page 34


 919 031e DAF83010 		ldrle	r1, [r10, #48]
 920              	.LVL81:
 921 0322 029A     		ldr	r2, [sp, #8]
 759:..\common\ud3core/SignalGenerator.c ****                             if(abs(randomizer) < data->voice[currVoice].counter) data->voice[currVo
 922              		.loc 1 759 0
 923 0324 0840     		ands	r0, r0, r1
 924              	.LVL82:
 925 0326 A0EB6100 		sub	r0, r0, r1, asr #1
 926              	.LVL83:
 760:..\common\ud3core/SignalGenerator.c ****                         }  //TODO verify use of "&" as randomizer scaling
 927              		.loc 1 760 0
 928 032a 80EAE076 		eor	r6, r0, r0, asr #31
 929 032e 54F80910 		ldr	r1, [r4, r9]
 930              	.LVL84:
 931 0332 A6EBE076 		sub	r6, r6, r0, asr #31
 932 0336 8E42     		cmp	r6, r1
 933 0338 BEBF     		ittt	lt
 934 033a 54F80960 		ldrlt	r6, [r4, r9]
 935 033e 8019     		addlt	r0, r0, r6
 936              	.LVL85:
 937 0340 44F80900 		strlt	r0, [r4, r9]
 938              	.L93:
 939              	.LBE37:
 764:..\common\ud3core/SignalGenerator.c ****                             //overlay current pulse
 940              		.loc 1 764 0
 941 0344 07FB0540 		mla	r0, r7, r5, r4
 942 0348 416B     		ldr	r1, [r0, #52]
 943 034a 69B9     		cbnz	r1, .L91
 766:..\common\ud3core/SignalGenerator.c **** 
 944              		.loc 1 766 0
 945 034c 466C     		ldr	r6, [r0, #68]
 946 034e 416D     		ldr	r1, [r0, #84]
 947              	.LVL86:
 948              	.LBB38:
 949              	.LBB39:
 564:..\common\ud3core/SignalGenerator.c ****     
 950              		.loc 1 564 0
 951 0350 0598     		ldr	r0, [sp, #20]
 952              	.LBE39:
 953              	.LBE38:
 769:..\common\ud3core/SignalGenerator.c **** 
 954              		.loc 1 769 0
 955 0352 07FB0545 		mla	r5, r7, r5, r4
 956              	.LVL87:
 957              	.LBB41:
 958              	.LBB40:
 564:..\common\ud3core/SignalGenerator.c ****     
 959              		.loc 1 564 0
 960 0356 8842     		cmp	r0, r1
 961 0358 B8BF     		it	lt
 962 035a 0591     		strlt	r1, [sp, #20]
 566:..\common\ud3core/SignalGenerator.c ****     
 963              		.loc 1 566 0
 964 035c 0699     		ldr	r1, [sp, #24]
 965              	.LVL88:
 966 035e 3144     		add	r1, r1, r6
 967 0360 0691     		str	r1, [sp, #24]
ARM GAS  C:\Users\chemi\AppData\Local\Temp\ccbZzKkH.s 			page 35


 968              	.LVL89:
 969              	.LBE40:
 970              	.LBE41:
 769:..\common\ud3core/SignalGenerator.c **** 
 971              		.loc 1 769 0
 972 0362 0121     		movs	r1, #1
 973 0364 6963     		str	r1, [r5, #52]
 974              	.LVL90:
 772:..\common\ud3core/SignalGenerator.c ****                         }
 975              		.loc 1 772 0
 976 0366 0025     		movs	r5, #0
 977              	.LVL91:
 978              	.L91:
 777:..\common\ud3core/SignalGenerator.c ****                         //disable HPV counter
 979              		.loc 1 777 0
 980 0368 07FB0541 		mla	r1, r7, r5, r4
 981 036c C868     		ldr	r0, [r1, #12]
 982 036e 0028     		cmp	r0, #0
 983 0370 A3D1     		bne	.L90
 777:..\common\ud3core/SignalGenerator.c ****                         //disable HPV counter
 984              		.loc 1 777 0 is_stmt 0 discriminator 1
 985 0372 8868     		ldr	r0, [r1, #8]
 986 0374 8342     		cmp	r3, r0
 987 0376 A0DB     		blt	.L90
 779:..\common\ud3core/SignalGenerator.c ****                         
 988              		.loc 1 779 0 is_stmt 1
 989 0378 8A60     		str	r2, [r1, #8]
 782:..\common\ud3core/SignalGenerator.c ****                             //yes :)
 990              		.loc 1 782 0
 991 037a 4B6A     		ldr	r3, [r1, #36]
 992 037c 23B1     		cbz	r3, .L98
 782:..\common\ud3core/SignalGenerator.c ****                             //yes :)
 993              		.loc 1 782 0 is_stmt 0 discriminator 1
 994 037e 0B6B     		ldr	r3, [r1, #48]
 995 0380 13B9     		cbnz	r3, .L98
 784:..\common\ud3core/SignalGenerator.c ****                         }else{
 996              		.loc 1 784 0 is_stmt 1
 997 0382 4B6A     		ldr	r3, [r1, #36]
 998 0384 CB60     		str	r3, [r1, #12]
 999 0386 02E0     		b	.L99
 1000              	.L98:
 787:..\common\ud3core/SignalGenerator.c ****                         }
 1001              		.loc 1 787 0
 1002 0388 07FB0543 		mla	r3, r7, r5, r4
 1003 038c DA60     		str	r2, [r3, #12]
 1004              	.L99:
 791:..\common\ud3core/SignalGenerator.c ****                             //no => add the pulse volume to the current one. Check if the width is 
 1005              		.loc 1 791 0
 1006 038e 07FB0541 		mla	r1, r7, r5, r4
 1007 0392 4B6B     		ldr	r3, [r1, #52]
 1008 0394 002B     		cmp	r3, #0
 1009 0396 90D1     		bne	.L90
 795:..\common\ud3core/SignalGenerator.c **** 
 1010              		.loc 1 795 0
 1011 0398 086C     		ldr	r0, [r1, #64]
 1012 039a CB6D     		ldr	r3, [r1, #92]
 1013              	.LVL92:
ARM GAS  C:\Users\chemi\AppData\Local\Temp\ccbZzKkH.s 			page 36


 1014              	.LBB42:
 1015              	.LBB43:
 564:..\common\ud3core/SignalGenerator.c ****     
 1016              		.loc 1 564 0
 1017 039c 0599     		ldr	r1, [sp, #20]
 1018              	.LBE43:
 1019              	.LBE42:
 798:..\common\ud3core/SignalGenerator.c **** 
 1020              		.loc 1 798 0
 1021 039e 07FB0545 		mla	r5, r7, r5, r4
 1022              	.LVL93:
 1023              	.LBB45:
 1024              	.LBB44:
 564:..\common\ud3core/SignalGenerator.c ****     
 1025              		.loc 1 564 0
 1026 03a2 9942     		cmp	r1, r3
 1027 03a4 B8BF     		it	lt
 1028 03a6 0593     		strlt	r3, [sp, #20]
 566:..\common\ud3core/SignalGenerator.c ****     
 1029              		.loc 1 566 0
 1030 03a8 069B     		ldr	r3, [sp, #24]
 1031              	.LVL94:
 1032 03aa 0344     		add	r3, r3, r0
 1033 03ac 0693     		str	r3, [sp, #24]
 1034              	.LVL95:
 1035              	.LBE44:
 1036              	.LBE45:
 798:..\common\ud3core/SignalGenerator.c **** 
 1037              		.loc 1 798 0
 1038 03ae 0123     		movs	r3, #1
 1039 03b0 6B63     		str	r3, [r5, #52]
 1040              	.LVL96:
 801:..\common\ud3core/SignalGenerator.c ****                         }
 1041              		.loc 1 801 0
 1042 03b2 0025     		movs	r5, #0
 1043 03b4 81E7     		b	.L90
 1044              	.LVL97:
 1045              	.L89:
 1046              	.LBE48:
 1047              	.LBE51:
 812:..\common\ud3core/SignalGenerator.c ****                 nextPulse.onTime = 0;
 1048              		.loc 1 812 0
 1049 03b6 6823     		movs	r3, #104
 1050 03b8 03FB0848 		mla	r8, r3, r8, r4
 1051              	.LVL98:
 1052 03bc D8F86030 		ldr	r3, [r8, #96]
 1053 03c0 43B1     		cbz	r3, .L102
 812:..\common\ud3core/SignalGenerator.c ****                 nextPulse.onTime = 0;
 1054              		.loc 1 812 0 is_stmt 0 discriminator 1
 1055 03c2 D8F80420 		ldr	r2, [r8, #4]
 1056 03c6 D8F86430 		ldr	r3, [r8, #100]
 1057 03ca 9A42     		cmp	r2, r3
 813:..\common\ud3core/SignalGenerator.c ****                 nextPulse.current = 0;
 1058              		.loc 1 813 0 is_stmt 1 discriminator 1
 1059 03cc BEBF     		ittt	lt
 1060 03ce 0023     		movlt	r3, #0
 1061 03d0 0593     		strlt	r3, [sp, #20]
ARM GAS  C:\Users\chemi\AppData\Local\Temp\ccbZzKkH.s 			page 37


 814:..\common\ud3core/SignalGenerator.c ****             }
 1062              		.loc 1 814 0 discriminator 1
 1063 03d2 0693     		strlt	r3, [sp, #24]
 1064              	.L102:
 819:..\common\ud3core/SignalGenerator.c ****             currPulse.onTime = SIGGEN_US_TO_OT_COUNT(nextPulse.onTime);
 1065              		.loc 1 819 0
 1066 03d4 049B     		ldr	r3, [sp, #16]
 1067 03d6 009A     		ldr	r2, [sp]
 1068 03d8 5B01     		lsls	r3, r3, #5
 1069 03da 1360     		str	r3, [r2]
 820:..\common\ud3core/SignalGenerator.c ****             currPulse.current = SIGGEN_VOLUME_TO_CURRENT_DAC_VALUE(nextPulse.current);
 1070              		.loc 1 820 0
 1071 03dc 059B     		ldr	r3, [sp, #20]
 821:..\common\ud3core/SignalGenerator.c ****             
 1072              		.loc 1 821 0
 1073 03de 2B49     		ldr	r1, .L161+4
 820:..\common\ud3core/SignalGenerator.c ****             currPulse.current = SIGGEN_VOLUME_TO_CURRENT_DAC_VALUE(nextPulse.current);
 1074              		.loc 1 820 0
 1075 03e0 5360     		str	r3, [r2, #4]
 821:..\common\ud3core/SignalGenerator.c ****             
 1076              		.loc 1 821 0
 1077 03e2 0A7D     		ldrb	r2, [r1, #20]	@ zero_extendqisi2
 1078 03e4 069B     		ldr	r3, [sp, #24]
 1079 03e6 497D     		ldrb	r1, [r1, #21]	@ zero_extendqisi2
 819:..\common\ud3core/SignalGenerator.c ****             currPulse.onTime = SIGGEN_US_TO_OT_COUNT(nextPulse.onTime);
 1080              		.loc 1 819 0
 1081 03e8 294D     		ldr	r5, .L161+8
 1082              	.LVL99:
 821:..\common\ud3core/SignalGenerator.c ****             
 1083              		.loc 1 821 0
 1084 03ea 4B43     		muls	r3, r1, r3
 1085 03ec 02EBE333 		add	r3, r2, r3, asr #15
 1086 03f0 009A     		ldr	r2, [sp]
 824:..\common\ud3core/SignalGenerator.c ****                 //write failed, not enough space available...
 1087              		.loc 1 824 0
 1088 03f2 2946     		mov	r1, r5
 821:..\common\ud3core/SignalGenerator.c ****             
 1089              		.loc 1 821 0
 1090 03f4 9360     		str	r3, [r2, #8]
 824:..\common\ud3core/SignalGenerator.c ****                 //write failed, not enough space available...
 1091              		.loc 1 824 0
 1092 03f6 D4F87402 		ldr	r0, [r4, #628]
 1093 03fa 0023     		movs	r3, #0
 1094 03fc 0122     		movs	r2, #1
 1095 03fe FFF7FEFF 		bl	RingBuffer_write
 1096              	.LVL100:
 1097 0402 0128     		cmp	r0, #1
 1098 0404 7FF483AE 		bne	.L103
 832:..\common\ud3core/SignalGenerator.c ****                 data->bufferLengthInCounts += currPulse.period;
 1099              		.loc 1 832 0
 1100 0408 FFF7FEFF 		bl	interrupterIRQ_Disable
 1101              	.LVL101:
 833:..\common\ud3core/SignalGenerator.c ****                 SigGen_enableTimerISR();
 1102              		.loc 1 833 0
 1103 040c 2A68     		ldr	r2, [r5]
 1104 040e D4F87032 		ldr	r3, [r4, #624]
 1105 0412 1344     		add	r3, r3, r2
ARM GAS  C:\Users\chemi\AppData\Local\Temp\ccbZzKkH.s 			page 38


 1106 0414 C4F87032 		str	r3, [r4, #624]
 834:..\common\ud3core/SignalGenerator.c ****             }
 1107              		.loc 1 834 0
 1108 0418 FFF7FEFF 		bl	interrupterIRQ_Enable
 1109              	.LVL102:
 1110 041c 03E6     		b	.L49
 1111              	.L59:
 1112              	.LBE52:
 1113              		.loc 1 839 0 discriminator 1
 1114 041e D4F87402 		ldr	r0, [r4, #628]
 1115 0422 FFF7FEFF 		bl	RingBuffer_getDataCount
 1116              	.LVL103:
 1117 0426 0028     		cmp	r0, #0
 1118 0428 7FF7F6AD 		ble	.L48
 840:..\common\ud3core/SignalGenerator.c ****             //time is off but pulses are waiting. Load the first pulse and start the timer
 841:..\common\ud3core/SignalGenerator.c ****             
 842:..\common\ud3core/SignalGenerator.c ****             //get the next pulse
 843:..\common\ud3core/SignalGenerator.c ****             if(RingBuffer_read(data->pulseBuffer, (void*)&readPulse, 1) == 1){
 1119              		.loc 1 843 0
 1120 042c D4F87402 		ldr	r0, [r4, #628]
 1121 0430 0122     		movs	r2, #1
 1122 0432 1849     		ldr	r1, .L161+12
 1123 0434 FFF7FEFF 		bl	RingBuffer_read
 1124              	.LVL104:
 1125 0438 0128     		cmp	r0, #1
 1126 043a 7FF4EDAD 		bne	.L48
 844:..\common\ud3core/SignalGenerator.c ****                 taskData->bufferLengthInCounts -= readPulse.period;
 1127              		.loc 1 844 0
 1128 043e DBF80020 		ldr	r2, [fp]
 1129 0442 DBF80410 		ldr	r1, [fp, #4]
 1130 0446 D2F87032 		ldr	r3, [r2, #624]
 845:..\common\ud3core/SignalGenerator.c ****                 
 846:..\common\ud3core/SignalGenerator.c ****                 if(readPulse.period < SIGGEN_MIN_PERIOD) readPulse.period = SIGGEN_MIN_PERIOD;
 847:..\common\ud3core/SignalGenerator.c ****                 
 848:..\common\ud3core/SignalGenerator.c ****                 //reset counter to trigger asap
 849:..\common\ud3core/SignalGenerator.c ****                 interrupterTimebase_WriteCounter(0);
 1131              		.loc 1 849 0
 1132 044a 0020     		movs	r0, #0
 844:..\common\ud3core/SignalGenerator.c ****                 taskData->bufferLengthInCounts -= readPulse.period;
 1133              		.loc 1 844 0
 1134 044c 5B1A     		subs	r3, r3, r1
 1135 044e C2F87032 		str	r3, [r2, #624]
 846:..\common\ud3core/SignalGenerator.c ****                 
 1136              		.loc 1 846 0
 1137 0452 DBF80430 		ldr	r3, [fp, #4]
 1138 0456 B3F57A7F 		cmp	r3, #1000
 1139 045a BCBF     		itt	lt
 1140 045c 4FF47A73 		movlt	r3, #1000
 1141 0460 CBF80430 		strlt	r3, [fp, #4]
 1142              		.loc 1 849 0
 1143 0464 FFF7FEFF 		bl	interrupterTimebase_WriteCounter
 1144              	.LVL105:
 850:..\common\ud3core/SignalGenerator.c ****                 
 851:..\common\ud3core/SignalGenerator.c ****                 //load timer registers
 852:..\common\ud3core/SignalGenerator.c ****                 interrupterTimebase_WriteCompare(readPulse.period);
 1145              		.loc 1 852 0
 1146 0468 0B4B     		ldr	r3, .L161+16
ARM GAS  C:\Users\chemi\AppData\Local\Temp\ccbZzKkH.s 			page 39


 1147 046a 5868     		ldr	r0, [r3, #4]
 1148 046c FFF7FEFF 		bl	interrupterTimebase_WriteCompare
 1149              	.LVL106:
 853:..\common\ud3core/SignalGenerator.c ****                 
 854:..\common\ud3core/SignalGenerator.c ****                 //clear the irq incase its still pending
 855:..\common\ud3core/SignalGenerator.c ****                 interrupterIRQ_ClearPending();
 1150              		.loc 1 855 0
 1151 0470 FFF7FEFF 		bl	interrupterIRQ_ClearPending
 1152              	.LVL107:
 856:..\common\ud3core/SignalGenerator.c ****                 
 857:..\common\ud3core/SignalGenerator.c ****                 //and finally re-enable the timer
 858:..\common\ud3core/SignalGenerator.c ****                 SigGen_startTimer();
 1153              		.loc 1 858 0
 1154 0474 FFF7FEFF 		bl	interrupterTimebase_ReadControlRegister
 1155              	.LVL108:
 1156 0478 60F07F00 		orn	r0, r0, #127
 1157 047c C0B2     		uxtb	r0, r0
 1158 047e FFF7FEFF 		bl	interrupterTimebase_WriteControlRegister
 1159              	.LVL109:
 1160 0482 FFF7FEFF 		bl	interrupterIRQ_Enable
 1161              	.LVL110:
 1162 0486 C7E5     		b	.L48
 1163              	.L162:
 1164              		.align	2
 1165              	.L161:
 1166 0488 00000000 		.word	param
 1167 048c 00000000 		.word	params
 1168 0490 00000000 		.word	currPulse
 1169 0494 04000000 		.word	.LANCHOR0+4
 1170 0498 00000000 		.word	.LANCHOR0
 1171              		.cfi_endproc
 1172              	.LFE88:
 1173              		.size	SigGen_task, .-SigGen_task
 1174              		.section	.text.callback_siggen,"ax",%progbits
 1175              		.align	1
 1176              		.global	callback_siggen
 1177              		.thumb
 1178              		.thumb_func
 1179              		.type	callback_siggen, %function
 1180              	callback_siggen:
 1181              	.LFB70:
 153:..\common\ud3core/SignalGenerator.c ****     //update minimum OT parameter
 1182              		.loc 1 153 0
 1183              		.cfi_startproc
 1184              		@ args = 0, pretend = 0, frame = 0
 1185              		@ frame_needed = 0, uses_anonymous_args = 0
 1186              		@ link register save eliminated.
 1187              	.LVL111:
 155:..\common\ud3core/SignalGenerator.c ****     
 1188              		.loc 1 155 0
 1189 0000 054A     		ldr	r2, .L164
 1190              	.LVL112:
 158:..\common\ud3core/SignalGenerator.c **** 
 1191              		.loc 1 158 0
 1192 0002 0120     		movs	r0, #1
 1193              	.LVL113:
 155:..\common\ud3core/SignalGenerator.c ****     
ARM GAS  C:\Users\chemi\AppData\Local\Temp\ccbZzKkH.s 			page 40


 1194              		.loc 1 155 0
 1195 0004 9188     		ldrh	r1, [r2, #4]
 1196              	.LVL114:
 1197 0006 92F87330 		ldrb	r3, [r2, #115]	@ zero_extendqisi2
 1198 000a 6422     		movs	r2, #100
 1199 000c 4B43     		muls	r3, r1, r3
 1200 000e 93FBF2F3 		sdiv	r3, r3, r2
 1201 0012 024A     		ldr	r2, .L164+4
 1202 0014 5361     		str	r3, [r2, #20]
 158:..\common\ud3core/SignalGenerator.c **** 
 1203              		.loc 1 158 0
 1204 0016 7047     		bx	lr
 1205              	.L165:
 1206              		.align	2
 1207              	.L164:
 1208 0018 00000000 		.word	configuration
 1209 001c 00000000 		.word	.LANCHOR0
 1210              		.cfi_endproc
 1211              	.LFE70:
 1212              		.size	callback_siggen, .-callback_siggen
 1213              		.section	.text.SigGen_init,"ax",%progbits
 1214              		.align	1
 1215              		.global	SigGen_init
 1216              		.thumb
 1217              		.thumb_func
 1218              		.type	SigGen_init, %function
 1219              	SigGen_init:
 1220              	.LFB71:
 160:..\common\ud3core/SignalGenerator.c ****     //initialize flags needed for masking voices
 1221              		.loc 1 160 0
 1222              		.cfi_startproc
 1223              		@ args = 0, pretend = 0, frame = 0
 1224              		@ frame_needed = 0, uses_anonymous_args = 0
 1225              	.LVL115:
 1226              	.LBB53:
 163:..\common\ud3core/SignalGenerator.c ****     }
 1227              		.loc 1 163 0
 1228 0000 184B     		ldr	r3, .L167
 1229              	.LBE53:
 160:..\common\ud3core/SignalGenerator.c ****     //initialize flags needed for masking voices
 1230              		.loc 1 160 0
 1231 0002 37B5     		push	{r0, r1, r2, r4, r5, lr}
 1232              		.cfi_def_cfa_offset 24
 1233              		.cfi_offset 4, -12
 1234              		.cfi_offset 5, -8
 1235              		.cfi_offset 14, -4
 1236              	.LBB54:
 163:..\common\ud3core/SignalGenerator.c ****     }
 1237              		.loc 1 163 0
 1238 0004 0425     		movs	r5, #4
 1239 0006 0122     		movs	r2, #1
 1240 0008 0224     		movs	r4, #2
 1241 000a 83E83400 		stmia	r3, {r2, r4, r5}
 1242              	.LVL116:
 1243 000e 0822     		movs	r2, #8
 1244 0010 DA60     		str	r2, [r3, #12]
 1245              	.LVL117:
ARM GAS  C:\Users\chemi\AppData\Local\Temp\ccbZzKkH.s 			page 41


 1246 0012 1022     		movs	r2, #16
 1247 0014 1A61     		str	r2, [r3, #16]
 1248              	.LVL118:
 1249              	.LBE54:
 166:..\common\ud3core/SignalGenerator.c ****     memset((void *)data, 0, sizeof(SigGen_taskData_t));
 1250              		.loc 1 166 0
 1251 0016 4FF42370 		mov	r0, #652
 1252              	.LBB55:
 163:..\common\ud3core/SignalGenerator.c ****     }
 1253              		.loc 1 163 0
 1254 001a 2022     		movs	r2, #32
 1255 001c 5A61     		str	r2, [r3, #20]
 1256              	.LVL119:
 1257              	.LBE55:
 166:..\common\ud3core/SignalGenerator.c ****     memset((void *)data, 0, sizeof(SigGen_taskData_t));
 1258              		.loc 1 166 0
 1259 001e FFF7FEFF 		bl	pvPortMalloc
 1260              	.LVL120:
 1261 0022 0446     		mov	r4, r0
 1262              	.LVL121:
 167:..\common\ud3core/SignalGenerator.c ****     taskData = data;
 1263              		.loc 1 167 0
 1264 0024 4FF42372 		mov	r2, #652
 1265 0028 0021     		movs	r1, #0
 1266 002a FFF7FEFF 		bl	memset
 1267              	.LVL122:
 168:..\common\ud3core/SignalGenerator.c ****     
 1268              		.loc 1 168 0
 1269 002e 0E4B     		ldr	r3, .L167+4
 171:..\common\ud3core/SignalGenerator.c ****     
 1270              		.loc 1 171 0
 1271 0030 0C21     		movs	r1, #12
 1272 0032 4020     		movs	r0, #64
 168:..\common\ud3core/SignalGenerator.c ****     
 1273              		.loc 1 168 0
 1274 0034 1C60     		str	r4, [r3]
 171:..\common\ud3core/SignalGenerator.c ****     
 1275              		.loc 1 171 0
 1276 0036 FFF7FEFF 		bl	RingBuffer_create
 1277              	.LVL123:
 1278 003a C4F87402 		str	r0, [r4, #628]
 176:..\common\ud3core/SignalGenerator.c ****     interrupterIRQ_StartEx(SigGen_PulseTimerISR);
 1279              		.loc 1 176 0
 1280 003e FFF7FEFF 		bl	interrupterTimebase_Init
 1281              	.LVL124:
 177:..\common\ud3core/SignalGenerator.c ****     
 1282              		.loc 1 177 0
 1283 0042 0A48     		ldr	r0, .L167+8
 1284 0044 FFF7FEFF 		bl	interrupterIRQ_StartEx
 1285              	.LVL125:
 179:..\common\ud3core/SignalGenerator.c ****     
 1286              		.loc 1 179 0
 1287 0048 0948     		ldr	r0, .L167+12
 1288 004a FFF7FEFF 		bl	isr_midi_StartEx
 1289              	.LVL126:
 181:..\common\ud3core/SignalGenerator.c **** }
 1290              		.loc 1 181 0
ARM GAS  C:\Users\chemi\AppData\Local\Temp\ccbZzKkH.s 			page 42


 1291 004e 0023     		movs	r3, #0
 1292 0050 0193     		str	r3, [sp, #4]
 1293 0052 0095     		str	r5, [sp]
 1294 0054 2346     		mov	r3, r4
 1295 0056 E422     		movs	r2, #228
 1296 0058 0649     		ldr	r1, .L167+16
 1297 005a 0748     		ldr	r0, .L167+20
 1298 005c FFF7FEFF 		bl	xTaskCreate
 1299              	.LVL127:
 182:..\common\ud3core/SignalGenerator.c **** 
 1300              		.loc 1 182 0
 1301 0060 03B0     		add	sp, sp, #12
 1302              		.cfi_def_cfa_offset 12
 1303              		@ sp needed
 1304 0062 30BD     		pop	{r4, r5, pc}
 1305              	.LVL128:
 1306              	.L168:
 1307              		.align	2
 1308              	.L167:
 1309 0064 00000000 		.word	VoiceFlags
 1310 0068 00000000 		.word	.LANCHOR0
 1311 006c 00000000 		.word	SigGen_PulseTimerISR
 1312 0070 00000000 		.word	isr_synth
 1313 0074 00000000 		.word	.LC0
 1314 0078 00000000 		.word	SigGen_task
 1315              		.cfi_endproc
 1316              	.LFE71:
 1317              		.size	SigGen_init, .-SigGen_init
 1318              		.section	.text.SigGen_getCurrDuty,"ax",%progbits
 1319              		.align	1
 1320              		.global	SigGen_getCurrDuty
 1321              		.thumb
 1322              		.thumb_func
 1323              		.type	SigGen_getCurrDuty, %function
 1324              	SigGen_getCurrDuty:
 1325              	.LFB72:
 185:..\common\ud3core/SignalGenerator.c ****     uint32_t totalDuty = 0; //DER TOTAAALE TASTGRAD
 1326              		.loc 1 185 0
 1327              		.cfi_startproc
 1328              		@ args = 0, pretend = 0, frame = 0
 1329              		@ frame_needed = 0, uses_anonymous_args = 0
 1330              	.LVL129:
 1331 0000 F8B5     		push	{r3, r4, r5, r6, r7, lr}
 1332              		.cfi_def_cfa_offset 24
 1333              		.cfi_offset 3, -24
 1334              		.cfi_offset 4, -20
 1335              		.cfi_offset 5, -16
 1336              		.cfi_offset 6, -12
 1337              		.cfi_offset 7, -8
 1338              		.cfi_offset 14, -4
 1339              	.LBB56:
 189:..\common\ud3core/SignalGenerator.c ****         if(!taskData->voice[currVoice].enabled) continue;
 1340              		.loc 1 189 0
 1341 0002 0025     		movs	r5, #0
 1342              	.LBE56:
 186:..\common\ud3core/SignalGenerator.c ****     
 1343              		.loc 1 186 0
ARM GAS  C:\Users\chemi\AppData\Local\Temp\ccbZzKkH.s 			page 43


 1344 0004 2C46     		mov	r4, r5
 1345              	.LBB58:
 1346              	.LBB57:
 190:..\common\ud3core/SignalGenerator.c ****         
 1347              		.loc 1 190 0
 1348 0006 164B     		ldr	r3, .L181
 195:..\common\ud3core/SignalGenerator.c ****         
 1349              		.loc 1 195 0
 1350 0008 164E     		ldr	r6, .L181+4
 190:..\common\ud3core/SignalGenerator.c ****         
 1351              		.loc 1 190 0
 1352 000a 1F68     		ldr	r7, [r3]
 1353 000c 4FF0680E 		mov	lr, #104
 1354              	.LVL130:
 1355              	.L172:
 1356 0010 0EFB0573 		mla	r3, lr, r5, r7
 1357 0014 9A6A     		ldr	r2, [r3, #40]
 1358 0016 9AB1     		cbz	r2, .L170
 195:..\common\ud3core/SignalGenerator.c ****         
 1359              		.loc 1 195 0
 1360 0018 196D     		ldr	r1, [r3, #80]
 1361 001a 9A6B     		ldr	r2, [r3, #56]
 1362 001c 4A43     		muls	r2, r1, r2
 198:..\common\ud3core/SignalGenerator.c ****             //TODO actually respect the hpv divider in the duty calculation
 1363              		.loc 1 198 0
 1364 001e 196A     		ldr	r1, [r3, #32]
 195:..\common\ud3core/SignalGenerator.c ****         
 1365              		.loc 1 195 0
 1366 0020 92FBF6F2 		sdiv	r2, r2, r6
 1367              	.LVL131:
 198:..\common\ud3core/SignalGenerator.c ****             //TODO actually respect the hpv divider in the duty calculation
 1368              		.loc 1 198 0
 1369 0024 59B1     		cbz	r1, .L171
 198:..\common\ud3core/SignalGenerator.c ****             //TODO actually respect the hpv divider in the duty calculation
 1370              		.loc 1 198 0 is_stmt 0 discriminator 1
 1371 0026 196B     		ldr	r1, [r3, #48]
 1372 0028 49B9     		cbnz	r1, .L171
 201:..\common\ud3core/SignalGenerator.c ****         }
 1373              		.loc 1 201 0 is_stmt 1
 1374 002a 186D     		ldr	r0, [r3, #80]
 1375 002c D3F820C0 		ldr	ip, [r3, #32]
 1376 0030 996B     		ldr	r1, [r3, #56]
 1377 0032 90FBFCF3 		sdiv	r3, r0, ip
 1378 0036 4B43     		muls	r3, r1, r3
 1379 0038 93FBF6F3 		sdiv	r3, r3, r6
 1380 003c 1A44     		add	r2, r2, r3
 1381              	.LVL132:
 1382              	.L171:
 203:..\common\ud3core/SignalGenerator.c ****     }
 1383              		.loc 1 203 0
 1384 003e 1444     		add	r4, r4, r2
 1385              	.LVL133:
 1386              	.L170:
 1387              	.LBE57:
 189:..\common\ud3core/SignalGenerator.c ****         if(!taskData->voice[currVoice].enabled) continue;
 1388              		.loc 1 189 0 discriminator 2
 1389 0040 0135     		adds	r5, r5, #1
ARM GAS  C:\Users\chemi\AppData\Local\Temp\ccbZzKkH.s 			page 44


 1390              	.LVL134:
 1391 0042 062D     		cmp	r5, #6
 1392 0044 E4D1     		bne	.L172
 1393              	.LBE58:
 207:..\common\ud3core/SignalGenerator.c ****     
 1394              		.loc 1 207 0
 1395 0046 FFF7FEFF 		bl	Comp_getGain
 1396              	.LVL135:
 1397 004a 47F6FF73 		movw	r3, #32767
 1398 004e 9842     		cmp	r0, r3
 1399 0050 03D0     		beq	.L173
 207:..\common\ud3core/SignalGenerator.c ****     
 1400              		.loc 1 207 0 is_stmt 0 discriminator 1
 1401 0052 FFF7FEFF 		bl	Comp_getGain
 1402              	.LVL136:
 1403 0056 6043     		muls	r0, r4, r0
 1404 0058 C40B     		lsrs	r4, r0, #15
 1405              	.LVL137:
 1406              	.L173:
 210:..\common\ud3core/SignalGenerator.c **** 
 1407              		.loc 1 210 0 is_stmt 1
 1408 005a 2046     		mov	r0, r4
 1409 005c F8BD     		pop	{r3, r4, r5, r6, r7, pc}
 1410              	.LVL138:
 1411              	.L182:
 1412 005e 00BF     		.align	2
 1413              	.L181:
 1414 0060 00000000 		.word	.LANCHOR0
 1415 0064 A0860100 		.word	100000
 1416              		.cfi_endproc
 1417              	.LFE72:
 1418              		.size	SigGen_getCurrDuty, .-SigGen_getCurrDuty
 1419              		.section	.text.SigGen_isVoiceOn,"ax",%progbits
 1420              		.align	1
 1421              		.global	SigGen_isVoiceOn
 1422              		.thumb
 1423              		.thumb_func
 1424              		.type	SigGen_isVoiceOn, %function
 1425              	SigGen_isVoiceOn:
 1426              	.LFB74:
 238:..\common\ud3core/SignalGenerator.c ****     return taskData->voice[voice].enabled;
 1427              		.loc 1 238 0
 1428              		.cfi_startproc
 1429              		@ args = 0, pretend = 0, frame = 0
 1430              		@ frame_needed = 0, uses_anonymous_args = 0
 1431              		@ link register save eliminated.
 1432              	.LVL139:
 239:..\common\ud3core/SignalGenerator.c **** }
 1433              		.loc 1 239 0
 1434 0000 034B     		ldr	r3, .L184
 1435 0002 1A68     		ldr	r2, [r3]
 1436 0004 6823     		movs	r3, #104
 1437 0006 03FB0020 		mla	r0, r3, r0, r2
 1438              	.LVL140:
 1439 000a 806A     		ldr	r0, [r0, #40]
 240:..\common\ud3core/SignalGenerator.c **** 
 1440              		.loc 1 240 0
ARM GAS  C:\Users\chemi\AppData\Local\Temp\ccbZzKkH.s 			page 45


 1441 000c 7047     		bx	lr
 1442              	.L185:
 1443 000e 00BF     		.align	2
 1444              	.L184:
 1445 0010 00000000 		.word	.LANCHOR0
 1446              		.cfi_endproc
 1447              	.LFE74:
 1448              		.size	SigGen_isVoiceOn, .-SigGen_isVoiceOn
 1449              		.section	.text.SigGen_setHyperVoiceVMS,"ax",%progbits
 1450              		.align	1
 1451              		.global	SigGen_setHyperVoiceVMS
 1452              		.thumb
 1453              		.thumb_func
 1454              		.type	SigGen_setHyperVoiceVMS, %function
 1455              	SigGen_setHyperVoiceVMS:
 1456              	.LFB78:
 357:..\common\ud3core/SignalGenerator.c ****     if(synthMode != SYNTH_MIDI) return;
 1457              		.loc 1 357 0
 1458              		.cfi_startproc
 1459              		@ args = 4, pretend = 0, frame = 0
 1460              		@ frame_needed = 0, uses_anonymous_args = 0
 1461              	.LVL141:
 1462 0000 2DE9F041 		push	{r4, r5, r6, r7, r8, lr}
 1463              		.cfi_def_cfa_offset 24
 1464              		.cfi_offset 4, -24
 1465              		.cfi_offset 5, -20
 1466              		.cfi_offset 6, -16
 1467              		.cfi_offset 7, -12
 1468              		.cfi_offset 8, -8
 1469              		.cfi_offset 14, -4
 357:..\common\ud3core/SignalGenerator.c ****     if(synthMode != SYNTH_MIDI) return;
 1470              		.loc 1 357 0
 1471 0004 0446     		mov	r4, r0
 1472 0006 1046     		mov	r0, r2
 1473              	.LVL142:
 358:..\common\ud3core/SignalGenerator.c ****     SigGen_setHyperVoiceParams(voice, count, getFixedDutyOntime(pulseWidth, taskData->voice[voice].
 1474              		.loc 1 358 0
 1475 0008 0C4A     		ldr	r2, .L188
 1476              	.LVL143:
 357:..\common\ud3core/SignalGenerator.c ****     if(synthMode != SYNTH_MIDI) return;
 1477              		.loc 1 357 0
 1478 000a 1E46     		mov	r6, r3
 358:..\common\ud3core/SignalGenerator.c ****     SigGen_setHyperVoiceParams(voice, count, getFixedDutyOntime(pulseWidth, taskData->voice[voice].
 1479              		.loc 1 358 0
 1480 000c 137C     		ldrb	r3, [r2, #16]	@ zero_extendqisi2
 1481              	.LVL144:
 357:..\common\ud3core/SignalGenerator.c ****     if(synthMode != SYNTH_MIDI) return;
 1482              		.loc 1 357 0
 1483 000e 0D46     		mov	r5, r1
 358:..\common\ud3core/SignalGenerator.c ****     SigGen_setHyperVoiceParams(voice, count, getFixedDutyOntime(pulseWidth, taskData->voice[voice].
 1484              		.loc 1 358 0
 1485 0010 012B     		cmp	r3, #1
 357:..\common\ud3core/SignalGenerator.c ****     if(synthMode != SYNTH_MIDI) return;
 1486              		.loc 1 357 0
 1487 0012 069F     		ldr	r7, [sp, #24]
 358:..\common\ud3core/SignalGenerator.c ****     SigGen_setHyperVoiceParams(voice, count, getFixedDutyOntime(pulseWidth, taskData->voice[voice].
 1488              		.loc 1 358 0
ARM GAS  C:\Users\chemi\AppData\Local\Temp\ccbZzKkH.s 			page 46


 1489 0014 10D1     		bne	.L186
 359:..\common\ud3core/SignalGenerator.c **** }
 1490              		.loc 1 359 0
 1491 0016 1368     		ldr	r3, [r2]
 1492 0018 6822     		movs	r2, #104
 1493 001a 02FB0432 		mla	r2, r2, r4, r3
 1494 001e 916B     		ldr	r1, [r2, #56]
 1495              	.LVL145:
 1496 0020 0022     		movs	r2, #0
 1497 0022 FFF7FEFF 		bl	getFixedDutyOntime
 1498              	.LVL146:
 1499 0026 0697     		str	r7, [sp, #24]
 1500 0028 3346     		mov	r3, r6
 1501 002a 0246     		mov	r2, r0
 1502 002c 2946     		mov	r1, r5
 1503 002e 2046     		mov	r0, r4
 360:..\common\ud3core/SignalGenerator.c **** 
 1504              		.loc 1 360 0
 1505 0030 BDE8F041 		pop	{r4, r5, r6, r7, r8, lr}
 1506              		.cfi_remember_state
 1507              		.cfi_restore 14
 1508              		.cfi_restore 8
 1509              		.cfi_restore 7
 1510              		.cfi_restore 6
 1511              		.cfi_restore 5
 1512              		.cfi_restore 4
 1513              		.cfi_def_cfa_offset 0
 1514              	.LVL147:
 359:..\common\ud3core/SignalGenerator.c **** }
 1515              		.loc 1 359 0
 1516 0034 FFF7FEBF 		b	SigGen_setHyperVoiceParams
 1517              	.LVL148:
 1518              	.L186:
 1519              		.cfi_restore_state
 1520 0038 BDE8F081 		pop	{r4, r5, r6, r7, r8, pc}
 1521              	.LVL149:
 1522              	.L189:
 1523              		.align	2
 1524              	.L188:
 1525 003c 00000000 		.word	.LANCHOR0
 1526              		.cfi_endproc
 1527              	.LFE78:
 1528              		.size	SigGen_setHyperVoiceVMS, .-SigGen_setHyperVoiceVMS
 1529              		.section	.text.SigGen_setHyperVoiceSID,"ax",%progbits
 1530              		.align	1
 1531              		.global	SigGen_setHyperVoiceSID
 1532              		.thumb
 1533              		.thumb_func
 1534              		.type	SigGen_setHyperVoiceSID, %function
 1535              	SigGen_setHyperVoiceSID:
 1536              	.LFB80:
 367:..\common\ud3core/SignalGenerator.c ****     if(synthMode != SYNTH_SID) return;
 1537              		.loc 1 367 0
 1538              		.cfi_startproc
 1539              		@ args = 4, pretend = 0, frame = 0
 1540              		@ frame_needed = 0, uses_anonymous_args = 0
 1541              	.LVL150:
ARM GAS  C:\Users\chemi\AppData\Local\Temp\ccbZzKkH.s 			page 47


 1542 0000 2DE9F041 		push	{r4, r5, r6, r7, r8, lr}
 1543              		.cfi_def_cfa_offset 24
 1544              		.cfi_offset 4, -24
 1545              		.cfi_offset 5, -20
 1546              		.cfi_offset 6, -16
 1547              		.cfi_offset 7, -12
 1548              		.cfi_offset 8, -8
 1549              		.cfi_offset 14, -4
 367:..\common\ud3core/SignalGenerator.c ****     if(synthMode != SYNTH_SID) return;
 1550              		.loc 1 367 0
 1551 0004 0446     		mov	r4, r0
 1552 0006 1046     		mov	r0, r2
 1553              	.LVL151:
 368:..\common\ud3core/SignalGenerator.c ****     SigGen_setHyperVoiceParams(voice, count, getFixedDutyOntime(pulseWidth, taskData->voice[voice].
 1554              		.loc 1 368 0
 1555 0008 0C4A     		ldr	r2, .L192
 1556              	.LVL152:
 367:..\common\ud3core/SignalGenerator.c ****     if(synthMode != SYNTH_SID) return;
 1557              		.loc 1 367 0
 1558 000a 1E46     		mov	r6, r3
 368:..\common\ud3core/SignalGenerator.c ****     SigGen_setHyperVoiceParams(voice, count, getFixedDutyOntime(pulseWidth, taskData->voice[voice].
 1559              		.loc 1 368 0
 1560 000c 137C     		ldrb	r3, [r2, #16]	@ zero_extendqisi2
 1561              	.LVL153:
 367:..\common\ud3core/SignalGenerator.c ****     if(synthMode != SYNTH_SID) return;
 1562              		.loc 1 367 0
 1563 000e 0D46     		mov	r5, r1
 368:..\common\ud3core/SignalGenerator.c ****     SigGen_setHyperVoiceParams(voice, count, getFixedDutyOntime(pulseWidth, taskData->voice[voice].
 1564              		.loc 1 368 0
 1565 0010 022B     		cmp	r3, #2
 367:..\common\ud3core/SignalGenerator.c ****     if(synthMode != SYNTH_SID) return;
 1566              		.loc 1 367 0
 1567 0012 069F     		ldr	r7, [sp, #24]
 368:..\common\ud3core/SignalGenerator.c ****     SigGen_setHyperVoiceParams(voice, count, getFixedDutyOntime(pulseWidth, taskData->voice[voice].
 1568              		.loc 1 368 0
 1569 0014 10D1     		bne	.L190
 369:..\common\ud3core/SignalGenerator.c **** }
 1570              		.loc 1 369 0
 1571 0016 1368     		ldr	r3, [r2]
 1572 0018 6822     		movs	r2, #104
 1573 001a 02FB0432 		mla	r2, r2, r4, r3
 1574 001e 916B     		ldr	r1, [r2, #56]
 1575              	.LVL154:
 1576 0020 0022     		movs	r2, #0
 1577 0022 FFF7FEFF 		bl	getFixedDutyOntime
 1578              	.LVL155:
 1579 0026 0697     		str	r7, [sp, #24]
 1580 0028 3346     		mov	r3, r6
 1581 002a 0246     		mov	r2, r0
 1582 002c 2946     		mov	r1, r5
 1583 002e 2046     		mov	r0, r4
 370:..\common\ud3core/SignalGenerator.c **** 
 1584              		.loc 1 370 0
 1585 0030 BDE8F041 		pop	{r4, r5, r6, r7, r8, lr}
 1586              		.cfi_remember_state
 1587              		.cfi_restore 14
 1588              		.cfi_restore 8
ARM GAS  C:\Users\chemi\AppData\Local\Temp\ccbZzKkH.s 			page 48


 1589              		.cfi_restore 7
 1590              		.cfi_restore 6
 1591              		.cfi_restore 5
 1592              		.cfi_restore 4
 1593              		.cfi_def_cfa_offset 0
 1594              	.LVL156:
 369:..\common\ud3core/SignalGenerator.c **** }
 1595              		.loc 1 369 0
 1596 0034 FFF7FEBF 		b	SigGen_setHyperVoiceParams
 1597              	.LVL157:
 1598              	.L190:
 1599              		.cfi_restore_state
 1600 0038 BDE8F081 		pop	{r4, r5, r6, r7, r8, pc}
 1601              	.LVL158:
 1602              	.L193:
 1603              		.align	2
 1604              	.L192:
 1605 003c 00000000 		.word	.LANCHOR0
 1606              		.cfi_endproc
 1607              	.LFE80:
 1608              		.size	SigGen_setHyperVoiceSID, .-SigGen_setHyperVoiceSID
 1609              		.section	.text.SigGen_limit,"ax",%progbits
 1610              		.align	1
 1611              		.global	SigGen_limit
 1612              		.thumb
 1613              		.thumb_func
 1614              		.type	SigGen_limit, %function
 1615              	SigGen_limit:
 1616              	.LFB82:
 379:..\common\ud3core/SignalGenerator.c ****     //get current dutycycle
 1617              		.loc 1 379 0
 1618              		.cfi_startproc
 1619              		@ args = 0, pretend = 0, frame = 0
 1620              		@ frame_needed = 0, uses_anonymous_args = 0
 1621 0000 2DE9F84F 		push	{r3, r4, r5, r6, r7, r8, r9, r10, fp, lr}
 1622              		.cfi_def_cfa_offset 40
 1623              		.cfi_offset 3, -40
 1624              		.cfi_offset 4, -36
 1625              		.cfi_offset 5, -32
 1626              		.cfi_offset 6, -28
 1627              		.cfi_offset 7, -24
 1628              		.cfi_offset 8, -20
 1629              		.cfi_offset 9, -16
 1630              		.cfi_offset 10, -12
 1631              		.cfi_offset 11, -8
 1632              		.cfi_offset 14, -4
 381:..\common\ud3core/SignalGenerator.c ****     
 1633              		.loc 1 381 0
 1634 0004 FFF7FEFF 		bl	SigGen_getCurrDuty
 1635              	.LVL159:
 384:..\common\ud3core/SignalGenerator.c ****     
 1636              		.loc 1 384 0
 1637 0008 394B     		ldr	r3, .L216
 390:..\common\ud3core/SignalGenerator.c ****     
 1638              		.loc 1 390 0
 1639 000a 3A4F     		ldr	r7, .L216+4
 384:..\common\ud3core/SignalGenerator.c ****     
ARM GAS  C:\Users\chemi\AppData\Local\Temp\ccbZzKkH.s 			page 49


 1640              		.loc 1 384 0
 1641 000c 1B8C     		ldrh	r3, [r3, #32]
 1642 000e 0A25     		movs	r5, #10
 1643 0010 B3FBF5F5 		udiv	r5, r3, r5
 390:..\common\ud3core/SignalGenerator.c ****     
 1644              		.loc 1 390 0
 1645 0014 3B7C     		ldrb	r3, [r7, #16]	@ zero_extendqisi2
 381:..\common\ud3core/SignalGenerator.c ****     
 1646              		.loc 1 381 0
 1647 0016 0446     		mov	r4, r0
 1648              	.LVL160:
 390:..\common\ud3core/SignalGenerator.c ****     
 1649              		.loc 1 390 0
 1650 0018 032B     		cmp	r3, #3
 1651 001a 07D0     		beq	.L195
 390:..\common\ud3core/SignalGenerator.c ****     
 1652              		.loc 1 390 0 is_stmt 0 discriminator 1
 1653 001c FFF7FEFF 		bl	Comp_getMaxDutyOffset
 1654              	.LVL161:
 1655 0020 4028     		cmp	r0, #64
 1656 0022 03D0     		beq	.L195
 390:..\common\ud3core/SignalGenerator.c ****     
 1657              		.loc 1 390 0 discriminator 2
 1658 0024 FFF7FEFF 		bl	Comp_getMaxDutyOffset
 1659              	.LVL162:
 1660 0028 6843     		muls	r0, r5, r0
 1661 002a 8509     		lsrs	r5, r0, #6
 1662              	.LVL163:
 1663              	.L195:
 1664 002c 632D     		cmp	r5, #99
 1665 002e 28BF     		it	cs
 1666 0030 6325     		movcs	r5, #99
 1667              	.LVL164:
 415:..\common\ud3core/SignalGenerator.c ****     
 1668              		.loc 1 415 0 is_stmt 1
 1669 0032 314B     		ldr	r3, .L216+8
 406:..\common\ud3core/SignalGenerator.c ****         //yes! Reduce the scaling factor
 1670              		.loc 1 406 0
 1671 0034 A542     		cmp	r5, r4
 1672              	.LBB59:
 1673              	.LBB60:
 420:..\common\ud3core/SignalGenerator.c ****             taskData->voice[currVoice].limitedEnabled = 0;
 1674              		.loc 1 420 0
 1675 0036 4FF06808 		mov	r8, #104
 1676              	.LBE60:
 1677              	.LBE59:
 386:..\common\ud3core/SignalGenerator.c ****     
 1678              		.loc 1 386 0
 1679 003a 28BF     		it	cs
 1680 003c 47F6FF74 		movwcs	r4, #32767
 1681              	.LVL165:
 1682 0040 9946     		mov	r9, r3
 1683              	.LBB63:
 1684              	.LBB61:
 428:..\common\ud3core/SignalGenerator.c ****         taskData->voice[currVoice].limitedPulseWidth_us = onTime;
 1685              		.loc 1 428 0
 1686 0042 47F6FF7A 		movw	r10, #32767
ARM GAS  C:\Users\chemi\AppData\Local\Temp\ccbZzKkH.s 			page 50


 1687 0046 C346     		mov	fp, r8
 1688              	.LBE61:
 1689              	.LBE63:
 409:..\common\ud3core/SignalGenerator.c ****     }else{
 1690              		.loc 1 409 0
 1691 0048 3CBF     		itt	cc
 1692 004a C5EBC535 		rsbcc	r5, r5, r5, lsl #15
 1693              	.LVL166:
 1694 004e B5FBF4F4 		udivcc	r4, r5, r4
 1695              	.LVL167:
 415:..\common\ud3core/SignalGenerator.c ****     
 1696              		.loc 1 415 0
 1697 0052 0025     		movs	r5, #0
 1698 0054 C3F84051 		str	r5, [r3, #320]
 1699              	.LVL168:
 1700              	.L204:
 1701              	.LBB64:
 1702              	.LBB62:
 420:..\common\ud3core/SignalGenerator.c ****             taskData->voice[currVoice].limitedEnabled = 0;
 1703              		.loc 1 420 0
 1704 0058 3B68     		ldr	r3, [r7]
 1705 005a 08FB0533 		mla	r3, r8, r5, r3
 1706 005e 9A6A     		ldr	r2, [r3, #40]
 1707 0060 0AB9     		cbnz	r2, .L197
 421:..\common\ud3core/SignalGenerator.c ****             continue;
 1708              		.loc 1 421 0
 1709 0062 DA62     		str	r2, [r3, #44]
 422:..\common\ud3core/SignalGenerator.c ****         }
 1710              		.loc 1 422 0
 1711 0064 3FE0     		b	.L198
 1712              	.L197:
 426:..\common\ud3core/SignalGenerator.c ****         onTime = (onTime * ontimeScale) >> 15;
 1713              		.loc 1 426 0
 1714 0066 1E6D     		ldr	r6, [r3, #80]
 1715              	.LVL169:
 428:..\common\ud3core/SignalGenerator.c ****         taskData->voice[currVoice].limitedPulseWidth_us = onTime;
 1716              		.loc 1 428 0
 1717 0068 FFF7FEFF 		bl	Comp_getGain
 1718              	.LVL170:
 427:..\common\ud3core/SignalGenerator.c ****         if(Comp_getGain() != COMP_UNITYGAIN) onTime = (onTime * Comp_getGain()) >> 15;
 1719              		.loc 1 427 0
 1720 006c 6643     		muls	r6, r4, r6
 1721              	.LVL171:
 428:..\common\ud3core/SignalGenerator.c ****         taskData->voice[currVoice].limitedPulseWidth_us = onTime;
 1722              		.loc 1 428 0
 1723 006e 5045     		cmp	r0, r10
 427:..\common\ud3core/SignalGenerator.c ****         if(Comp_getGain() != COMP_UNITYGAIN) onTime = (onTime * Comp_getGain()) >> 15;
 1724              		.loc 1 427 0
 1725 0070 4FEAD636 		lsr	r6, r6, #15
 1726              	.LVL172:
 428:..\common\ud3core/SignalGenerator.c ****         taskData->voice[currVoice].limitedPulseWidth_us = onTime;
 1727              		.loc 1 428 0
 1728 0074 03D0     		beq	.L199
 428:..\common\ud3core/SignalGenerator.c ****         taskData->voice[currVoice].limitedPulseWidth_us = onTime;
 1729              		.loc 1 428 0 is_stmt 0 discriminator 1
 1730 0076 FFF7FEFF 		bl	Comp_getGain
 1731              	.LVL173:
ARM GAS  C:\Users\chemi\AppData\Local\Temp\ccbZzKkH.s 			page 51


 1732 007a 7043     		muls	r0, r6, r0
 1733 007c C60B     		lsrs	r6, r0, #15
 1734              	.LVL174:
 1735              	.L199:
 429:..\common\ud3core/SignalGenerator.c ****         taskData->voice[currVoice].limitedPeriod = taskData->voice[currVoice].period;
 1736              		.loc 1 429 0 is_stmt 1
 1737 007e 08FB05F1 		mul	r1, r8, r5
 1738 0082 3B68     		ldr	r3, [r7]
 1739 0084 5A18     		adds	r2, r3, r1
 1740 0086 5665     		str	r6, [r2, #84]
 430:..\common\ud3core/SignalGenerator.c ****         
 1741              		.loc 1 430 0
 1742 0088 1069     		ldr	r0, [r2, #16]
 1743 008a 5061     		str	r0, [r2, #20]
 433:..\common\ud3core/SignalGenerator.c ****         
 1744              		.loc 1 433 0
 1745 008c 5E58     		ldr	r6, [r3, r1]
 1746              	.LVL175:
 1747 008e 5069     		ldr	r0, [r2, #20]
 1748 0090 8642     		cmp	r6, r0
 1749 0092 C4BF     		itt	gt
 1750 0094 5269     		ldrgt	r2, [r2, #20]
 1751 0096 5A50     		strgt	r2, [r3, r1]
 436:..\common\ud3core/SignalGenerator.c ****             onTime = taskData->voice[currVoice].hpvPulseWidth_us;
 1752              		.loc 1 436 0
 1753 0098 0BFB0532 		mla	r2, fp, r5, r3
 1754 009c 116A     		ldr	r1, [r2, #32]
 1755 009e A1B1     		cbz	r1, .L201
 436:..\common\ud3core/SignalGenerator.c ****             onTime = taskData->voice[currVoice].hpvPulseWidth_us;
 1756              		.loc 1 436 0 is_stmt 0 discriminator 1
 1757 00a0 116B     		ldr	r1, [r2, #48]
 1758 00a2 91B9     		cbnz	r1, .L201
 437:..\common\ud3core/SignalGenerator.c ****             onTime = (onTime * ontimeScale) >> 15;
 1759              		.loc 1 437 0 is_stmt 1
 1760 00a4 966D     		ldr	r6, [r2, #88]
 1761              	.LVL176:
 439:..\common\ud3core/SignalGenerator.c ****             taskData->voice[currVoice].limitedHpvPulseWidth_us = onTime;
 1762              		.loc 1 439 0
 1763 00a6 FFF7FEFF 		bl	Comp_getGain
 1764              	.LVL177:
 438:..\common\ud3core/SignalGenerator.c ****             if(Comp_getGain() != COMP_UNITYGAIN) onTime = (onTime * Comp_getGain()) >> 15;
 1765              		.loc 1 438 0
 1766 00aa 6643     		muls	r6, r4, r6
 1767              	.LVL178:
 439:..\common\ud3core/SignalGenerator.c ****             taskData->voice[currVoice].limitedHpvPulseWidth_us = onTime;
 1768              		.loc 1 439 0
 1769 00ac 5045     		cmp	r0, r10
 438:..\common\ud3core/SignalGenerator.c ****             if(Comp_getGain() != COMP_UNITYGAIN) onTime = (onTime * Comp_getGain()) >> 15;
 1770              		.loc 1 438 0
 1771 00ae 4FEAD636 		lsr	r6, r6, #15
 1772              	.LVL179:
 439:..\common\ud3core/SignalGenerator.c ****             taskData->voice[currVoice].limitedHpvPulseWidth_us = onTime;
 1773              		.loc 1 439 0
 1774 00b2 03D0     		beq	.L202
 439:..\common\ud3core/SignalGenerator.c ****             taskData->voice[currVoice].limitedHpvPulseWidth_us = onTime;
 1775              		.loc 1 439 0 is_stmt 0 discriminator 1
 1776 00b4 FFF7FEFF 		bl	Comp_getGain
ARM GAS  C:\Users\chemi\AppData\Local\Temp\ccbZzKkH.s 			page 52


 1777              	.LVL180:
 1778 00b8 7043     		muls	r0, r6, r0
 1779 00ba C60B     		lsrs	r6, r0, #15
 1780              	.LVL181:
 1781              	.L202:
 440:..\common\ud3core/SignalGenerator.c ****             
 1782              		.loc 1 440 0 is_stmt 1
 1783 00bc 3B68     		ldr	r3, [r7]
 1784 00be 08FB0533 		mla	r3, r8, r5, r3
 1785 00c2 DE65     		str	r6, [r3, #92]
 442:..\common\ud3core/SignalGenerator.c ****         }else{
 1786              		.loc 1 442 0
 1787 00c4 1A6A     		ldr	r2, [r3, #32]
 1788 00c6 5A62     		str	r2, [r3, #36]
 1789 00c8 03E0     		b	.L203
 1790              	.LVL182:
 1791              	.L201:
 444:..\common\ud3core/SignalGenerator.c ****         }
 1792              		.loc 1 444 0
 1793 00ca 08FB0533 		mla	r3, r8, r5, r3
 1794 00ce 0022     		movs	r2, #0
 1795 00d0 DA65     		str	r2, [r3, #92]
 1796              	.L203:
 447:..\common\ud3core/SignalGenerator.c ****         
 1797              		.loc 1 447 0
 1798 00d2 3B68     		ldr	r3, [r7]
 1799 00d4 08FB0533 		mla	r3, r8, r5, r3
 1800 00d8 9A6A     		ldr	r2, [r3, #40]
 1801 00da DA62     		str	r2, [r3, #44]
 450:..\common\ud3core/SignalGenerator.c ****     }
 1802              		.loc 1 450 0
 1803 00dc D9F84031 		ldr	r3, [r9, #320]
 1804 00e0 0133     		adds	r3, r3, #1
 1805 00e2 C9F84031 		str	r3, [r9, #320]
 1806              	.L198:
 1807              	.LBE62:
 418:..\common\ud3core/SignalGenerator.c ****         //if a voice is disabled we don't need to change anything
 1808              		.loc 1 418 0 discriminator 2
 1809 00e6 0135     		adds	r5, r5, #1
 1810              	.LVL183:
 1811 00e8 062D     		cmp	r5, #6
 1812 00ea B5D1     		bne	.L204
 1813              	.LBE64:
 452:..\common\ud3core/SignalGenerator.c **** 
 1814              		.loc 1 452 0
 1815 00ec BDE8F88F 		pop	{r3, r4, r5, r6, r7, r8, r9, r10, fp, pc}
 1816              	.LVL184:
 1817              	.L217:
 1818              		.align	2
 1819              	.L216:
 1820 00f0 00000000 		.word	configuration
 1821 00f4 00000000 		.word	.LANCHOR0
 1822 00f8 00000000 		.word	tt
 1823              		.cfi_endproc
 1824              	.LFE82:
 1825              		.size	SigGen_limit, .-SigGen_limit
 1826              		.section	.text.SigGen_setVoiceParams,"ax",%progbits
ARM GAS  C:\Users\chemi\AppData\Local\Temp\ccbZzKkH.s 			page 53


 1827              		.align	1
 1828              		.thumb
 1829              		.thumb_func
 1830              		.type	SigGen_setVoiceParams, %function
 1831              	SigGen_setVoiceParams:
 1832              	.LFB75:
 244:..\common\ud3core/SignalGenerator.c ****     IsOkToPrint = 1;
 1833              		.loc 1 244 0
 1834              		.cfi_startproc
 1835              		@ args = 16, pretend = 0, frame = 8
 1836              		@ frame_needed = 0, uses_anonymous_args = 0
 1837              	.LVL185:
 1838 0000 2DE9F04F 		push	{r4, r5, r6, r7, r8, r9, r10, fp, lr}
 1839              		.cfi_def_cfa_offset 36
 1840              		.cfi_offset 4, -36
 1841              		.cfi_offset 5, -32
 1842              		.cfi_offset 6, -28
 1843              		.cfi_offset 7, -24
 1844              		.cfi_offset 8, -20
 1845              		.cfi_offset 9, -16
 1846              		.cfi_offset 10, -12
 1847              		.cfi_offset 11, -8
 1848              		.cfi_offset 14, -4
 245:..\common\ud3core/SignalGenerator.c ****     
 1849              		.loc 1 245 0
 1850 0004 3E4C     		ldr	r4, .L248
 244:..\common\ud3core/SignalGenerator.c ****     IsOkToPrint = 1;
 1851              		.loc 1 244 0
 1852 0006 85B0     		sub	sp, sp, #20
 1853              		.cfi_def_cfa_offset 56
 244:..\common\ud3core/SignalGenerator.c ****     IsOkToPrint = 1;
 1854              		.loc 1 244 0
 1855 0008 9346     		mov	fp, r2
 1856 000a 1F46     		mov	r7, r3
 1857 000c 0FAA     		add	r2, sp, #60
 1858              	.LVL186:
 245:..\common\ud3core/SignalGenerator.c ****     
 1859              		.loc 1 245 0
 1860 000e 0123     		movs	r3, #1
 1861              	.LVL187:
 244:..\common\ud3core/SignalGenerator.c ****     IsOkToPrint = 1;
 1862              		.loc 1 244 0
 1863 0010 0546     		mov	r5, r0
 1864 0012 92E80405 		ldmia	r2, {r2, r8, r10}
 1865              	.LVL188:
 1866 0016 DDF83890 		ldr	r9, [sp, #56]
 245:..\common\ud3core/SignalGenerator.c ****     
 1867              		.loc 1 245 0
 1868 001a A361     		str	r3, [r4, #24]
 250:..\common\ud3core/SignalGenerator.c ****     
 1869              		.loc 1 250 0
 1870 001c 29B1     		cbz	r1, .L231
 250:..\common\ud3core/SignalGenerator.c ****     
 1871              		.loc 1 250 0 is_stmt 0 discriminator 1
 1872 001e 37B1     		cbz	r7, .L232
 250:..\common\ud3core/SignalGenerator.c ****     
 1873              		.loc 1 250 0 discriminator 3
ARM GAS  C:\Users\chemi\AppData\Local\Temp\ccbZzKkH.s 			page 54


 1874 0020 19F10006 		adds	r6, r9, #0
 1875 0024 18BF     		it	ne
 1876 0026 0126     		movne	r6, #1
 1877 0028 02E0     		b	.L219
 1878              	.L231:
 250:..\common\ud3core/SignalGenerator.c ****     
 1879              		.loc 1 250 0
 1880 002a 0E46     		mov	r6, r1
 1881 002c 00E0     		b	.L219
 1882              	.L232:
 1883 002e 3E46     		mov	r6, r7
 1884              	.L219:
 1885              	.LVL189:
 253:..\common\ud3core/SignalGenerator.c ****         //yes => reset the timebase for the note
 1886              		.loc 1 253 0 is_stmt 1 discriminator 8
 1887 0030 6823     		movs	r3, #104
 1888 0032 6B43     		muls	r3, r5, r3
 1889 0034 2168     		ldr	r1, [r4]
 1890              	.LVL190:
 1891 0036 C818     		adds	r0, r1, r3
 1892              	.LVL191:
 1893 0038 806A     		ldr	r0, [r0, #40]
 1894 003a 78B9     		cbnz	r0, .L221
 253:..\common\ud3core/SignalGenerator.c ****         //yes => reset the timebase for the note
 1895              		.loc 1 253 0 is_stmt 0 discriminator 1
 1896 003c 76B1     		cbz	r6, .L221
 255:..\common\ud3core/SignalGenerator.c ****         if(configuration.is_qcw && synthMode != SYNTH_TR){
 1897              		.loc 1 255 0 is_stmt 1
 1898 003e C850     		str	r0, [r1, r3]
 256:..\common\ud3core/SignalGenerator.c ****             qcw_cmd_midi_pulse(volume, frequencyTenths);   
 1899              		.loc 1 256 0
 1900 0040 304B     		ldr	r3, .L248+4
 1901 0042 93F85C30 		ldrb	r3, [r3, #92]	@ zero_extendqisi2
 1902 0046 4BB1     		cbz	r3, .L221
 256:..\common\ud3core/SignalGenerator.c ****             qcw_cmd_midi_pulse(volume, frequencyTenths);   
 1903              		.loc 1 256 0 is_stmt 0 discriminator 1
 1904 0048 2D4B     		ldr	r3, .L248
 1905 004a 1B7C     		ldrb	r3, [r3, #16]	@ zero_extendqisi2
 1906 004c 032B     		cmp	r3, #3
 1907 004e 05D0     		beq	.L221
 257:..\common\ud3core/SignalGenerator.c ****         }
 1908              		.loc 1 257 0 is_stmt 1
 1909 0050 4946     		mov	r1, r9
 1910 0052 3846     		mov	r0, r7
 1911 0054 0392     		str	r2, [sp, #12]
 1912 0056 FFF7FEFF 		bl	qcw_cmd_midi_pulse
 1913              	.LVL192:
 1914 005a 039A     		ldr	r2, [sp, #12]
 1915              	.L221:
 261:..\common\ud3core/SignalGenerator.c ****     
 1916              		.loc 1 261 0
 1917 005c 2068     		ldr	r0, [r4]
 1918 005e 6824     		movs	r4, #104
 1919 0060 04FB0504 		mla	r4, r4, r5, r0
 1920 0064 A662     		str	r6, [r4, #40]
 263:..\common\ud3core/SignalGenerator.c ****         taskData->voice[voice].enabled = 0;
 1921              		.loc 1 263 0
ARM GAS  C:\Users\chemi\AppData\Local\Temp\ccbZzKkH.s 			page 55


 1922 0066 A36A     		ldr	r3, [r4, #40]
 1923 0068 13B1     		cbz	r3, .L223
 263:..\common\ud3core/SignalGenerator.c ****         taskData->voice[voice].enabled = 0;
 1924              		.loc 1 263 0 is_stmt 0 discriminator 1
 1925 006a 274B     		ldr	r3, .L248+8
 1926 006c 1B68     		ldr	r3, [r3]
 1927 006e 33B9     		cbnz	r3, .L224
 1928              	.L223:
 264:..\common\ud3core/SignalGenerator.c ****         taskData->voice[voice].limitedEnabled = 0;
 1929              		.loc 1 264 0 is_stmt 1
 1930 0070 6823     		movs	r3, #104
 1931 0072 03FB0500 		mla	r0, r3, r5, r0
 1932 0076 0023     		movs	r3, #0
 1933 0078 8362     		str	r3, [r0, #40]
 265:..\common\ud3core/SignalGenerator.c ****         
 1934              		.loc 1 265 0
 1935 007a C362     		str	r3, [r0, #44]
 1936 007c 3AE0     		b	.L230
 1937              	.L224:
 274:..\common\ud3core/SignalGenerator.c ****     
 1938              		.loc 1 274 0
 1939 007e 7B43     		muls	r3, r7, r3
 1940 0080 DB0B     		lsrs	r3, r3, #15
 272:..\common\ud3core/SignalGenerator.c ****     
 1941              		.loc 1 272 0
 1942 0082 A764     		str	r7, [r4, #72]
 274:..\common\ud3core/SignalGenerator.c ****     
 1943              		.loc 1 274 0
 1944 0084 6364     		str	r3, [r4, #68]
 280:..\common\ud3core/SignalGenerator.c ****     //TODO perhaps reset the counter if the period that was on it before was much longer than the c
 1945              		.loc 1 280 0
 1946 0086 214B     		ldr	r3, .L248+12
 276:..\common\ud3core/SignalGenerator.c ****     taskData->voice[voice].frequencyTenths = frequencyTenths;
 1947              		.loc 1 276 0
 1948 0088 C4F850B0 		str	fp, [r4, #80]
 280:..\common\ud3core/SignalGenerator.c ****     //TODO perhaps reset the counter if the period that was on it before was much longer than the c
 1949              		.loc 1 280 0
 1950 008c 93FBF9F3 		sdiv	r3, r3, r9
 277:..\common\ud3core/SignalGenerator.c ****     
 1951              		.loc 1 277 0
 1952 0090 C4F83890 		str	r9, [r4, #56]
 280:..\common\ud3core/SignalGenerator.c ****     //TODO perhaps reset the counter if the period that was on it before was much longer than the c
 1953              		.loc 1 280 0
 1954 0094 2361     		str	r3, [r4, #16]
 283:..\common\ud3core/SignalGenerator.c ****         taskData->voice[voice].noiseAmplitude = taskData->voice[voice].period >> 1;
 1955              		.loc 1 283 0
 1956 0096 2369     		ldr	r3, [r4, #16]
 1957 0098 B2EB630F 		cmp	r2, r3, asr #1
 284:..\common\ud3core/SignalGenerator.c ****     }else{
 1958              		.loc 1 284 0
 1959 009c C9BF     		itett	gt
 1960 009e 2369     		ldrgt	r3, [r4, #16]
 286:..\common\ud3core/SignalGenerator.c ****     }
 1961              		.loc 1 286 0
 1962 00a0 2263     		strle	r2, [r4, #48]
 284:..\common\ud3core/SignalGenerator.c ****     }else{
 1963              		.loc 1 284 0
ARM GAS  C:\Users\chemi\AppData\Local\Temp\ccbZzKkH.s 			page 56


 1964 00a2 5B10     		asrgt	r3, r3, #1
 1965 00a4 2363     		strgt	r3, [r4, #48]
 290:..\common\ud3core/SignalGenerator.c ****         //yes, setup burst counter
 1966              		.loc 1 290 0
 1967 00a6 BAF1000F 		cmp	r10, #0
 1968 00aa 4FF06803 		mov	r3, #104
 1969 00ae 0FDD     		ble	.L227
 1970              	.LBB65:
 293:..\common\ud3core/SignalGenerator.c ****         if(taskData->voice[voice].burstCounter > taskData->voice[voice].burstPeriod) taskData->voic
 1971              		.loc 1 293 0
 1972 00b0 03FB0503 		mla	r3, r3, r5, r0
 292:..\common\ud3core/SignalGenerator.c ****         taskData->voice[voice].burstPeriod = burstPeriod_us;
 1973              		.loc 1 292 0
 1974 00b4 0AEB0802 		add	r2, r10, r8
 1975              	.LVL193:
 293:..\common\ud3core/SignalGenerator.c ****         if(taskData->voice[voice].burstCounter > taskData->voice[voice].burstPeriod) taskData->voic
 1976              		.loc 1 293 0
 1977 00b8 1A66     		str	r2, [r3, #96]
 294:..\common\ud3core/SignalGenerator.c ****         
 1978              		.loc 1 294 0
 1979 00ba 5C68     		ldr	r4, [r3, #4]
 1980 00bc 196E     		ldr	r1, [r3, #96]
 1981 00be 8C42     		cmp	r4, r1
 1982 00c0 C8BF     		it	gt
 1983 00c2 5A60     		strgt	r2, [r3, #4]
 297:..\common\ud3core/SignalGenerator.c ****     }else{
 1984              		.loc 1 297 0
 1985 00c4 6823     		movs	r3, #104
 1986 00c6 03FB0503 		mla	r3, r3, r5, r0
 1987 00ca C3F864A0 		str	r10, [r3, #100]
 1988              	.LBE65:
 1989 00ce 04E0     		b	.L229
 1990              	.LVL194:
 1991              	.L227:
 299:..\common\ud3core/SignalGenerator.c ****         taskData->voice[voice].burstCounter = 0;
 1992              		.loc 1 299 0
 1993 00d0 03FB0503 		mla	r3, r3, r5, r0
 1994 00d4 0022     		movs	r2, #0
 1995 00d6 1A66     		str	r2, [r3, #96]
 300:..\common\ud3core/SignalGenerator.c ****     }
 1996              		.loc 1 300 0
 1997 00d8 5A60     		str	r2, [r3, #4]
 1998              	.L229:
 304:..\common\ud3core/SignalGenerator.c ****     
 1999              		.loc 1 304 0
 2000 00da 6823     		movs	r3, #104
 2001 00dc 03FB0500 		mla	r0, r3, r5, r0
 2002 00e0 036A     		ldr	r3, [r0, #32]
 2003 00e2 3BB1     		cbz	r3, .L230
 304:..\common\ud3core/SignalGenerator.c ****     
 2004              		.loc 1 304 0 is_stmt 0 discriminator 1
 2005 00e4 016A     		ldr	r1, [r0, #32]
 2006 00e6 826D     		ldr	r2, [r0, #88]
 2007 00e8 036C     		ldr	r3, [r0, #64]
 2008 00ea C06B     		ldr	r0, [r0, #60]
 2009 00ec 0090     		str	r0, [sp]
 2010 00ee 2846     		mov	r0, r5
ARM GAS  C:\Users\chemi\AppData\Local\Temp\ccbZzKkH.s 			page 57


 2011 00f0 FFF7FEFF 		bl	SigGen_setHyperVoiceParams
 2012              	.LVL195:
 2013              	.L230:
 307:..\common\ud3core/SignalGenerator.c **** 
 2014              		.loc 1 307 0 is_stmt 1
 2015 00f4 05B0     		add	sp, sp, #20
 2016              		.cfi_def_cfa_offset 36
 2017              		@ sp needed
 2018 00f6 BDE8F04F 		pop	{r4, r5, r6, r7, r8, r9, r10, fp, lr}
 2019              		.cfi_restore 14
 2020              		.cfi_restore 11
 2021              		.cfi_restore 10
 2022              		.cfi_restore 9
 2023              		.cfi_restore 8
 2024              		.cfi_restore 7
 2025              		.cfi_restore 6
 2026              		.cfi_restore 5
 2027              		.cfi_restore 4
 2028              		.cfi_def_cfa_offset 0
 2029              	.LVL196:
 306:..\common\ud3core/SignalGenerator.c **** }
 2030              		.loc 1 306 0
 2031 00fa FFF7FEBF 		b	SigGen_limit
 2032              	.LVL197:
 2033              	.L249:
 2034 00fe 00BF     		.align	2
 2035              	.L248:
 2036 0100 00000000 		.word	.LANCHOR0
 2037 0104 00000000 		.word	configuration
 2038 0108 00000000 		.word	.LANCHOR1
 2039 010c 80969800 		.word	10000000
 2040              		.cfi_endproc
 2041              	.LFE75:
 2042              		.size	SigGen_setVoiceParams, .-SigGen_setVoiceParams
 2043              		.section	.text.SigGen_setVoiceVMS,"ax",%progbits
 2044              		.align	1
 2045              		.global	SigGen_setVoiceVMS
 2046              		.thumb
 2047              		.thumb_func
 2048              		.type	SigGen_setVoiceVMS, %function
 2049              	SigGen_setVoiceVMS:
 2050              	.LFB77:
 352:..\common\ud3core/SignalGenerator.c ****     if(synthMode != SYNTH_MIDI) return;
 2051              		.loc 1 352 0
 2052              		.cfi_startproc
 2053              		@ args = 16, pretend = 0, frame = 0
 2054              		@ frame_needed = 0, uses_anonymous_args = 0
 2055              	.LVL198:
 2056 0000 2DE9F047 		push	{r4, r5, r6, r7, r8, r9, r10, lr}
 2057              		.cfi_def_cfa_offset 32
 2058              		.cfi_offset 4, -32
 2059              		.cfi_offset 5, -28
 2060              		.cfi_offset 6, -24
 2061              		.cfi_offset 7, -20
 2062              		.cfi_offset 8, -16
 2063              		.cfi_offset 9, -12
 2064              		.cfi_offset 10, -8
ARM GAS  C:\Users\chemi\AppData\Local\Temp\ccbZzKkH.s 			page 58


 2065              		.cfi_offset 14, -4
 352:..\common\ud3core/SignalGenerator.c ****     if(synthMode != SYNTH_MIDI) return;
 2066              		.loc 1 352 0
 2067 0004 9846     		mov	r8, r3
 353:..\common\ud3core/SignalGenerator.c ****     
 2068              		.loc 1 353 0
 2069 0006 104B     		ldr	r3, .L252
 2070              	.LVL199:
 352:..\common\ud3core/SignalGenerator.c ****     if(synthMode != SYNTH_MIDI) return;
 2071              		.loc 1 352 0
 2072 0008 08AC     		add	r4, sp, #32
 2073              	.LVL200:
 353:..\common\ud3core/SignalGenerator.c ****     
 2074              		.loc 1 353 0
 2075 000a 1B7C     		ldrb	r3, [r3, #16]	@ zero_extendqisi2
 352:..\common\ud3core/SignalGenerator.c ****     if(synthMode != SYNTH_MIDI) return;
 2076              		.loc 1 352 0
 2077 000c 0646     		mov	r6, r0
 2078 000e 94E83006 		ldmia	r4, {r4, r5, r9, r10}
 2079              	.LVL201:
 353:..\common\ud3core/SignalGenerator.c ****     
 2080              		.loc 1 353 0
 2081 0012 012B     		cmp	r3, #1
 352:..\common\ud3core/SignalGenerator.c ****     if(synthMode != SYNTH_MIDI) return;
 2082              		.loc 1 352 0
 2083 0014 0F46     		mov	r7, r1
 2084 0016 1046     		mov	r0, r2
 2085              	.LVL202:
 353:..\common\ud3core/SignalGenerator.c ****     
 2086              		.loc 1 353 0
 2087 0018 14D1     		bne	.L250
 355:..\common\ud3core/SignalGenerator.c **** }
 2088              		.loc 1 355 0
 2089 001a 002D     		cmp	r5, #0
 2090 001c 2146     		mov	r1, r4
 2091              	.LVL203:
 2092 001e D4BF     		ite	le
 2093 0020 0022     		movle	r2, #0
 2094              	.LVL204:
 2095 0022 0122     		movgt	r2, #1
 2096 0024 FFF7FEFF 		bl	getFixedDutyOntime
 2097              	.LVL205:
 2098 0028 CDF82CA0 		str	r10, [sp, #44]
 2099 002c CDF82890 		str	r9, [sp, #40]
 2100 0030 0995     		str	r5, [sp, #36]
 2101 0032 0894     		str	r4, [sp, #32]
 2102 0034 4346     		mov	r3, r8
 2103 0036 0246     		mov	r2, r0
 2104 0038 3946     		mov	r1, r7
 2105 003a 3046     		mov	r0, r6
 356:..\common\ud3core/SignalGenerator.c **** void SigGen_setHyperVoiceVMS(uint32_t voice, uint32_t count, uint32_t pulseWidth, uint32_t volume, 
 2106              		.loc 1 356 0
 2107 003c BDE8F047 		pop	{r4, r5, r6, r7, r8, r9, r10, lr}
 2108              		.cfi_remember_state
 2109              		.cfi_restore 14
 2110              		.cfi_restore 10
 2111              		.cfi_restore 9
ARM GAS  C:\Users\chemi\AppData\Local\Temp\ccbZzKkH.s 			page 59


 2112              		.cfi_restore 8
 2113              		.cfi_restore 7
 2114              		.cfi_restore 6
 2115              		.cfi_restore 5
 2116              		.cfi_restore 4
 2117              		.cfi_def_cfa_offset 0
 2118              	.LVL206:
 355:..\common\ud3core/SignalGenerator.c **** }
 2119              		.loc 1 355 0
 2120 0040 FFF7FEBF 		b	SigGen_setVoiceParams
 2121              	.LVL207:
 2122              	.L250:
 2123              		.cfi_restore_state
 2124 0044 BDE8F087 		pop	{r4, r5, r6, r7, r8, r9, r10, pc}
 2125              	.LVL208:
 2126              	.L253:
 2127              		.align	2
 2128              	.L252:
 2129 0048 00000000 		.word	.LANCHOR0
 2130              		.cfi_endproc
 2131              	.LFE77:
 2132              		.size	SigGen_setVoiceVMS, .-SigGen_setVoiceVMS
 2133              		.section	.text.SigGen_setVoiceSID,"ax",%progbits
 2134              		.align	1
 2135              		.global	SigGen_setVoiceSID
 2136              		.thumb
 2137              		.thumb_func
 2138              		.type	SigGen_setVoiceSID, %function
 2139              	SigGen_setVoiceSID:
 2140              	.LFB79:
 362:..\common\ud3core/SignalGenerator.c ****     if(synthMode != SYNTH_SID) return;
 2141              		.loc 1 362 0
 2142              		.cfi_startproc
 2143              		@ args = 8, pretend = 0, frame = 0
 2144              		@ frame_needed = 0, uses_anonymous_args = 0
 2145              	.LVL209:
 2146 0000 2DE9FF41 		push	{r0, r1, r2, r3, r4, r5, r6, r7, r8, lr}
 2147              		.cfi_def_cfa_offset 40
 2148              		.cfi_offset 4, -24
 2149              		.cfi_offset 5, -20
 2150              		.cfi_offset 6, -16
 2151              		.cfi_offset 7, -12
 2152              		.cfi_offset 8, -8
 2153              		.cfi_offset 14, -4
 362:..\common\ud3core/SignalGenerator.c ****     if(synthMode != SYNTH_SID) return;
 2154              		.loc 1 362 0
 2155 0004 9846     		mov	r8, r3
 363:..\common\ud3core/SignalGenerator.c ****     SigGen_setVoiceParams(voice, enabled, getFixedDutyOntime(pulseWidth, frequencyTenths, noiseAmpl
 2156              		.loc 1 363 0
 2157 0006 0F4B     		ldr	r3, .L256
 2158              	.LVL210:
 362:..\common\ud3core/SignalGenerator.c ****     if(synthMode != SYNTH_SID) return;
 2159              		.loc 1 362 0
 2160 0008 0646     		mov	r6, r0
 363:..\common\ud3core/SignalGenerator.c ****     SigGen_setVoiceParams(voice, enabled, getFixedDutyOntime(pulseWidth, frequencyTenths, noiseAmpl
 2161              		.loc 1 363 0
 2162 000a 1B7C     		ldrb	r3, [r3, #16]	@ zero_extendqisi2
ARM GAS  C:\Users\chemi\AppData\Local\Temp\ccbZzKkH.s 			page 60


 362:..\common\ud3core/SignalGenerator.c ****     if(synthMode != SYNTH_SID) return;
 2163              		.loc 1 362 0
 2164 000c 0F46     		mov	r7, r1
 363:..\common\ud3core/SignalGenerator.c ****     SigGen_setVoiceParams(voice, enabled, getFixedDutyOntime(pulseWidth, frequencyTenths, noiseAmpl
 2165              		.loc 1 363 0
 2166 000e 022B     		cmp	r3, #2
 362:..\common\ud3core/SignalGenerator.c ****     if(synthMode != SYNTH_SID) return;
 2167              		.loc 1 362 0
 2168 0010 1046     		mov	r0, r2
 2169              	.LVL211:
 2170 0012 0A9C     		ldr	r4, [sp, #40]
 2171 0014 0B9D     		ldr	r5, [sp, #44]
 363:..\common\ud3core/SignalGenerator.c ****     SigGen_setVoiceParams(voice, enabled, getFixedDutyOntime(pulseWidth, frequencyTenths, noiseAmpl
 2172              		.loc 1 363 0
 2173 0016 11D1     		bne	.L254
 364:..\common\ud3core/SignalGenerator.c **** }
 2174              		.loc 1 364 0
 2175 0018 002D     		cmp	r5, #0
 2176 001a D4BF     		ite	le
 2177 001c 0022     		movle	r2, #0
 2178              	.LVL212:
 2179 001e 0122     		movgt	r2, #1
 2180 0020 2146     		mov	r1, r4
 2181              	.LVL213:
 2182 0022 FFF7FEFF 		bl	getFixedDutyOntime
 2183              	.LVL214:
 2184 0026 0022     		movs	r2, #0
 2185 0028 0392     		str	r2, [sp, #12]
 2186 002a 0292     		str	r2, [sp, #8]
 2187 002c 8DE83000 		stmia	sp, {r4, r5}
 2188 0030 0246     		mov	r2, r0
 2189 0032 4346     		mov	r3, r8
 2190 0034 3946     		mov	r1, r7
 2191 0036 3046     		mov	r0, r6
 2192 0038 FFF7FEFF 		bl	SigGen_setVoiceParams
 2193              	.LVL215:
 2194              	.L254:
 365:..\common\ud3core/SignalGenerator.c **** 
 2195              		.loc 1 365 0
 2196 003c 04B0     		add	sp, sp, #16
 2197              		.cfi_def_cfa_offset 24
 2198              		@ sp needed
 2199 003e BDE8F081 		pop	{r4, r5, r6, r7, r8, pc}
 2200              	.LVL216:
 2201              	.L257:
 2202 0042 00BF     		.align	2
 2203              	.L256:
 2204 0044 00000000 		.word	.LANCHOR0
 2205              		.cfi_endproc
 2206              	.LFE79:
 2207              		.size	SigGen_setVoiceSID, .-SigGen_setVoiceSID
 2208              		.section	.text.SigGen_setVoiceTR,"ax",%progbits
 2209              		.align	1
 2210              		.global	SigGen_setVoiceTR
 2211              		.thumb
 2212              		.thumb_func
 2213              		.type	SigGen_setVoiceTR, %function
ARM GAS  C:\Users\chemi\AppData\Local\Temp\ccbZzKkH.s 			page 61


 2214              	SigGen_setVoiceTR:
 2215              	.LFB81:
 372:..\common\ud3core/SignalGenerator.c ****     if(synthMode != SYNTH_TR) return;
 2216              		.loc 1 372 0
 2217              		.cfi_startproc
 2218              		@ args = 8, pretend = 0, frame = 0
 2219              		@ frame_needed = 0, uses_anonymous_args = 0
 2220              	.LVL217:
 2221 0000 1FB5     		push	{r0, r1, r2, r3, r4, lr}
 2222              		.cfi_def_cfa_offset 24
 2223              		.cfi_offset 4, -8
 2224              		.cfi_offset 14, -4
 372:..\common\ud3core/SignalGenerator.c ****     if(synthMode != SYNTH_TR) return;
 2225              		.loc 1 372 0
 2226 0002 0446     		mov	r4, r0
 373:..\common\ud3core/SignalGenerator.c ****     
 2227              		.loc 1 373 0
 2228 0004 0848     		ldr	r0, .L260
 2229              	.LVL218:
 2230 0006 007C     		ldrb	r0, [r0, #16]	@ zero_extendqisi2
 2231 0008 0328     		cmp	r0, #3
 2232 000a 0BD1     		bne	.L258
 376:..\common\ud3core/SignalGenerator.c **** }
 2233              		.loc 1 376 0
 2234 000c 0798     		ldr	r0, [sp, #28]
 2235 000e 0093     		str	r3, [sp]
 2236 0010 0390     		str	r0, [sp, #12]
 2237 0012 0698     		ldr	r0, [sp, #24]
 2238 0014 1346     		mov	r3, r2
 2239              	.LVL219:
 2240 0016 0290     		str	r0, [sp, #8]
 2241 0018 0020     		movs	r0, #0
 2242 001a 0A46     		mov	r2, r1
 2243              	.LVL220:
 2244 001c 0190     		str	r0, [sp, #4]
 2245 001e 2146     		mov	r1, r4
 2246              	.LVL221:
 2247 0020 FFF7FEFF 		bl	SigGen_setVoiceParams
 2248              	.LVL222:
 2249              	.L258:
 377:..\common\ud3core/SignalGenerator.c **** 
 2250              		.loc 1 377 0
 2251 0024 04B0     		add	sp, sp, #16
 2252              		.cfi_def_cfa_offset 8
 2253              		@ sp needed
 2254 0026 10BD     		pop	{r4, pc}
 2255              	.LVL223:
 2256              	.L261:
 2257              		.align	2
 2258              	.L260:
 2259 0028 00000000 		.word	.LANCHOR0
 2260              		.cfi_endproc
 2261              	.LFE81:
 2262              		.size	SigGen_setVoiceTR, .-SigGen_setVoiceTR
 2263              		.section	.text.SigGen_killAudio,"ax",%progbits
 2264              		.align	1
 2265              		.global	SigGen_killAudio
ARM GAS  C:\Users\chemi\AppData\Local\Temp\ccbZzKkH.s 			page 62


 2266              		.thumb
 2267              		.thumb_func
 2268              		.type	SigGen_killAudio, %function
 2269              	SigGen_killAudio:
 2270              	.LFB86:
 506:..\common\ud3core/SignalGenerator.c ****     // This can only happen during UD3 startup
 2271              		.loc 1 506 0
 2272              		.cfi_startproc
 2273              		@ args = 0, pretend = 0, frame = 0
 2274              		@ frame_needed = 0, uses_anonymous_args = 0
 2275 0000 70B5     		push	{r4, r5, r6, lr}
 2276              		.cfi_def_cfa_offset 16
 2277              		.cfi_offset 4, -16
 2278              		.cfi_offset 5, -12
 2279              		.cfi_offset 6, -8
 2280              		.cfi_offset 14, -4
 508:..\common\ud3core/SignalGenerator.c ****     //TODO evaluate if this is actually thread safe
 2281              		.loc 1 508 0
 2282 0002 144C     		ldr	r4, .L269
 2283 0004 2068     		ldr	r0, [r4]
 2284 0006 20B3     		cbz	r0, .L262
 2285 0008 0023     		movs	r3, #0
 2286              	.LBB66:
 513:..\common\ud3core/SignalGenerator.c ****         taskData->voice[currVoice].limitedEnabled = 0;
 2287              		.loc 1 513 0 discriminator 3
 2288 000a 1946     		mov	r1, r3
 2289 000c 6826     		movs	r6, #104
 2290              	.L264:
 2291              	.LVL224:
 2292 000e 06FB0302 		mla	r2, r6, r3, r0
 512:..\common\ud3core/SignalGenerator.c ****         taskData->voice[currVoice].enabled = 0;
 2293              		.loc 1 512 0 discriminator 3
 2294 0012 0133     		adds	r3, r3, #1
 2295              	.LVL225:
 2296 0014 062B     		cmp	r3, #6
 513:..\common\ud3core/SignalGenerator.c ****         taskData->voice[currVoice].limitedEnabled = 0;
 2297              		.loc 1 513 0 discriminator 3
 2298 0016 9162     		str	r1, [r2, #40]
 2299 0018 4FF00005 		mov	r5, #0
 514:..\common\ud3core/SignalGenerator.c ****         taskData->voice[currVoice].hpvCount = 0;
 2300              		.loc 1 514 0 discriminator 3
 2301 001c D162     		str	r1, [r2, #44]
 515:..\common\ud3core/SignalGenerator.c ****         taskData->voice[currVoice].limitedHpvCount = 0;
 2302              		.loc 1 515 0 discriminator 3
 2303 001e 1162     		str	r1, [r2, #32]
 516:..\common\ud3core/SignalGenerator.c ****     }
 2304              		.loc 1 516 0 discriminator 3
 2305 0020 5162     		str	r1, [r2, #36]
 512:..\common\ud3core/SignalGenerator.c ****         taskData->voice[currVoice].enabled = 0;
 2306              		.loc 1 512 0 discriminator 3
 2307 0022 F4D1     		bne	.L264
 2308              	.LBE66:
 520:..\common\ud3core/SignalGenerator.c ****     
 2309              		.loc 1 520 0
 2310 0024 FFF7FEFF 		bl	interrupterTimebase_ReadControlRegister
 2311              	.LVL226:
 2312 0028 00F07F00 		and	r0, r0, #127
ARM GAS  C:\Users\chemi\AppData\Local\Temp\ccbZzKkH.s 			page 63


 2313 002c FFF7FEFF 		bl	interrupterTimebase_WriteControlRegister
 2314              	.LVL227:
 2315 0030 FFF7FEFF 		bl	interrupterIRQ_Disable
 2316              	.LVL228:
 523:..\common\ud3core/SignalGenerator.c ****     RingBuffer_flush(taskData->pulseBuffer);
 2317              		.loc 1 523 0
 2318 0034 FFF7FEFF 		bl	interrupterIRQ_Disable
 2319              	.LVL229:
 524:..\common\ud3core/SignalGenerator.c ****     taskData->bufferLengthInCounts = 0;
 2320              		.loc 1 524 0
 2321 0038 2368     		ldr	r3, [r4]
 2322 003a D3F87402 		ldr	r0, [r3, #628]
 2323 003e FFF7FEFF 		bl	RingBuffer_flush
 2324              	.LVL230:
 525:..\common\ud3core/SignalGenerator.c ****     SigGen_enableTimerISR();
 2325              		.loc 1 525 0
 2326 0042 2368     		ldr	r3, [r4]
 2327 0044 C3F87052 		str	r5, [r3, #624]
 526:..\common\ud3core/SignalGenerator.c ****     
 2328              		.loc 1 526 0
 2329 0048 FFF7FEFF 		bl	interrupterIRQ_Enable
 2330              	.LVL231:
 528:..\common\ud3core/SignalGenerator.c **** }
 2331              		.loc 1 528 0
 2332 004c 024B     		ldr	r3, .L269+4
 2333 004e C3F84051 		str	r5, [r3, #320]
 2334              	.L262:
 2335 0052 70BD     		pop	{r4, r5, r6, pc}
 2336              	.L270:
 2337              		.align	2
 2338              	.L269:
 2339 0054 00000000 		.word	.LANCHOR0
 2340 0058 00000000 		.word	tt
 2341              		.cfi_endproc
 2342              	.LFE86:
 2343              		.size	SigGen_killAudio, .-SigGen_killAudio
 2344              		.section	.text.SigGen_switchSynthMode,"ax",%progbits
 2345              		.align	1
 2346              		.global	SigGen_switchSynthMode
 2347              		.thumb
 2348              		.thumb_func
 2349              		.type	SigGen_switchSynthMode, %function
 2350              	SigGen_switchSynthMode:
 2351              	.LFB83:
 454:..\common\ud3core/SignalGenerator.c ****     //kill output when changing synth mode
 2352              		.loc 1 454 0
 2353              		.cfi_startproc
 2354              		@ args = 0, pretend = 0, frame = 0
 2355              		@ frame_needed = 0, uses_anonymous_args = 0
 2356              	.LVL232:
 2357 0000 10B5     		push	{r4, lr}
 2358              		.cfi_def_cfa_offset 8
 2359              		.cfi_offset 4, -8
 2360              		.cfi_offset 14, -4
 454:..\common\ud3core/SignalGenerator.c ****     //kill output when changing synth mode
 2361              		.loc 1 454 0
 2362 0002 0446     		mov	r4, r0
ARM GAS  C:\Users\chemi\AppData\Local\Temp\ccbZzKkH.s 			page 64


 456:..\common\ud3core/SignalGenerator.c ****     
 2363              		.loc 1 456 0
 2364 0004 FFF7FEFF 		bl	SigGen_killAudio
 2365              	.LVL233:
 459:..\common\ud3core/SignalGenerator.c ****     
 2366              		.loc 1 459 0
 2367 0008 014B     		ldr	r3, .L272
 2368 000a 1C74     		strb	r4, [r3, #16]
 2369 000c 10BD     		pop	{r4, pc}
 2370              	.L273:
 2371 000e 00BF     		.align	2
 2372              	.L272:
 2373 0010 00000000 		.word	.LANCHOR0
 2374              		.cfi_endproc
 2375              	.LFE83:
 2376              		.size	SigGen_switchSynthMode, .-SigGen_switchSynthMode
 2377              		.section	.text.SigGen_setOutputEnabled,"ax",%progbits
 2378              		.align	1
 2379              		.global	SigGen_setOutputEnabled
 2380              		.thumb
 2381              		.thumb_func
 2382              		.type	SigGen_setOutputEnabled, %function
 2383              	SigGen_setOutputEnabled:
 2384              	.LFB85:
 501:..\common\ud3core/SignalGenerator.c **** 	isEnabled = en;
 2385              		.loc 1 501 0
 2386              		.cfi_startproc
 2387              		@ args = 0, pretend = 0, frame = 0
 2388              		@ frame_needed = 0, uses_anonymous_args = 0
 2389              		@ link register save eliminated.
 2390              	.LVL234:
 502:..\common\ud3core/SignalGenerator.c **** 	if(!en) SigGen_killAudio();
 2391              		.loc 1 502 0
 2392 0000 024B     		ldr	r3, .L276
 2393 0002 5860     		str	r0, [r3, #4]
 503:..\common\ud3core/SignalGenerator.c **** }
 2394              		.loc 1 503 0
 2395 0004 08B9     		cbnz	r0, .L274
 503:..\common\ud3core/SignalGenerator.c **** }
 2396              		.loc 1 503 0 is_stmt 0 discriminator 1
 2397 0006 FFF7FEBF 		b	SigGen_killAudio
 2398              	.LVL235:
 2399              	.L274:
 2400 000a 7047     		bx	lr
 2401              	.L277:
 2402              		.align	2
 2403              	.L276:
 2404 000c 00000000 		.word	.LANCHOR1
 2405              		.cfi_endproc
 2406              	.LFE85:
 2407              		.size	SigGen_setOutputEnabled, .-SigGen_setOutputEnabled
 2408              		.section	.text.SigGen_setMasterVol,"ax",%progbits
 2409              		.align	1
 2410              		.global	SigGen_setMasterVol
 2411              		.thumb
 2412              		.thumb_func
 2413              		.type	SigGen_setMasterVol, %function
ARM GAS  C:\Users\chemi\AppData\Local\Temp\ccbZzKkH.s 			page 65


 2414              	SigGen_setMasterVol:
 2415              	.LFB84:
 483:..\common\ud3core/SignalGenerator.c ****     if(newVolume > MAX_VOL) return;
 2416              		.loc 1 483 0 is_stmt 1
 2417              		.cfi_startproc
 2418              		@ args = 0, pretend = 0, frame = 0
 2419              		@ frame_needed = 0, uses_anonymous_args = 0
 2420              		@ link register save eliminated.
 2421              	.LVL236:
 484:..\common\ud3core/SignalGenerator.c ****     masterVolume = newVolume;
 2422              		.loc 1 484 0
 2423 0000 B0F5004F 		cmp	r0, #32768
 483:..\common\ud3core/SignalGenerator.c ****     if(newVolume > MAX_VOL) return;
 2424              		.loc 1 483 0
 2425 0004 70B4     		push	{r4, r5, r6}
 2426              		.cfi_def_cfa_offset 12
 2427              		.cfi_offset 4, -12
 2428              		.cfi_offset 5, -8
 2429              		.cfi_offset 6, -4
 484:..\common\ud3core/SignalGenerator.c ****     masterVolume = newVolume;
 2430              		.loc 1 484 0
 2431 0006 1DD2     		bcs	.L278
 485:..\common\ud3core/SignalGenerator.c ****     
 2432              		.loc 1 485 0
 2433 0008 0F4B     		ldr	r3, .L283
 2434 000a 1860     		str	r0, [r3]
 2435 000c 1C46     		mov	r4, r3
 488:..\common\ud3core/SignalGenerator.c ****         //no => update all voices
 2436              		.loc 1 488 0
 2437 000e A8B1     		cbz	r0, .L280
 2438              	.LBB67:
 491:..\common\ud3core/SignalGenerator.c ****             taskData->voice[i].pulseVolume = (taskData->voice[i].initialPulseVolume * masterVolume)
 2439              		.loc 1 491 0
 2440 0010 0E4B     		ldr	r3, .L283+4
 2441 0012 0022     		movs	r2, #0
 2442 0014 1D68     		ldr	r5, [r3]
 2443 0016 6826     		movs	r6, #104
 2444              	.L281:
 2445              	.LVL237:
 491:..\common\ud3core/SignalGenerator.c ****             taskData->voice[i].pulseVolume = (taskData->voice[i].initialPulseVolume * masterVolume)
 2446              		.loc 1 491 0 is_stmt 0 discriminator 3
 2447 0018 06FB0251 		mla	r1, r6, r2, r5
 2448 001c CB6C     		ldr	r3, [r1, #76]
 490:..\common\ud3core/SignalGenerator.c ****             taskData->voice[i].hpvVolume = (taskData->voice[i].initialHpvVolume * masterVolume) >> 
 2449              		.loc 1 490 0 is_stmt 1 discriminator 3
 2450 001e 0132     		adds	r2, r2, #1
 2451              	.LVL238:
 491:..\common\ud3core/SignalGenerator.c ****             taskData->voice[i].pulseVolume = (taskData->voice[i].initialPulseVolume * masterVolume)
 2452              		.loc 1 491 0 discriminator 3
 2453 0020 4343     		muls	r3, r0, r3
 2454 0022 DB0B     		lsrs	r3, r3, #15
 2455 0024 0B64     		str	r3, [r1, #64]
 492:..\common\ud3core/SignalGenerator.c ****         }
 2456              		.loc 1 492 0 discriminator 3
 2457 0026 8B6C     		ldr	r3, [r1, #72]
 490:..\common\ud3core/SignalGenerator.c ****             taskData->voice[i].hpvVolume = (taskData->voice[i].initialHpvVolume * masterVolume) >> 
 2458              		.loc 1 490 0 discriminator 3
ARM GAS  C:\Users\chemi\AppData\Local\Temp\ccbZzKkH.s 			page 66


 2459 0028 062A     		cmp	r2, #6
 492:..\common\ud3core/SignalGenerator.c ****         }
 2460              		.loc 1 492 0 discriminator 3
 2461 002a 00FB03F3 		mul	r3, r0, r3
 2462 002e 4FEAD333 		lsr	r3, r3, #15
 2463 0032 4B64     		str	r3, [r1, #68]
 490:..\common\ud3core/SignalGenerator.c ****             taskData->voice[i].hpvVolume = (taskData->voice[i].initialHpvVolume * masterVolume) >> 
 2464              		.loc 1 490 0 discriminator 3
 2465 0034 F0D1     		bne	.L281
 2466              	.LVL239:
 2467              	.LBE67:
 2468              	.LBB68:
 2469              	.LBB69:
 502:..\common\ud3core/SignalGenerator.c **** 	if(!en) SigGen_killAudio();
 2470              		.loc 1 502 0
 2471 0036 0123     		movs	r3, #1
 2472 0038 6360     		str	r3, [r4, #4]
 2473 003a 03E0     		b	.L278
 2474              	.LVL240:
 2475              	.L280:
 2476              	.LBE69:
 2477              	.LBE68:
 499:..\common\ud3core/SignalGenerator.c **** 
 2478              		.loc 1 499 0
 2479 003c 70BC     		pop	{r4, r5, r6}
 2480              		.cfi_remember_state
 2481              		.cfi_restore 6
 2482              		.cfi_restore 5
 2483              		.cfi_restore 4
 2484              		.cfi_def_cfa_offset 0
 2485              	.LBB70:
 2486              	.LBB71:
 502:..\common\ud3core/SignalGenerator.c **** 	if(!en) SigGen_killAudio();
 2487              		.loc 1 502 0
 2488 003e 5860     		str	r0, [r3, #4]
 503:..\common\ud3core/SignalGenerator.c **** }
 2489              		.loc 1 503 0
 2490 0040 FFF7FEBF 		b	SigGen_killAudio
 2491              	.LVL241:
 2492              	.L278:
 2493              		.cfi_restore_state
 2494              	.LBE71:
 2495              	.LBE70:
 499:..\common\ud3core/SignalGenerator.c **** 
 2496              		.loc 1 499 0
 2497 0044 70BC     		pop	{r4, r5, r6}
 2498              		.cfi_restore 6
 2499              		.cfi_restore 5
 2500              		.cfi_restore 4
 2501              		.cfi_def_cfa_offset 0
 2502 0046 7047     		bx	lr
 2503              	.L284:
 2504              		.align	2
 2505              	.L283:
 2506 0048 00000000 		.word	.LANCHOR1
 2507 004c 00000000 		.word	.LANCHOR0
 2508              		.cfi_endproc
ARM GAS  C:\Users\chemi\AppData\Local\Temp\ccbZzKkH.s 			page 67


 2509              	.LFE84:
 2510              		.size	SigGen_setMasterVol, .-SigGen_setMasterVol
 2511              		.global	compDebug
 2512              		.comm	currPulse,12,4
 2513              		.global	adding
 2514              		.global	divder
 2515              		.global	IsOkToPrint
 2516              		.comm	VoiceFlags,24,4
 2517              		.comm	interrupter,12,4
 2518              		.comm	ct1_dac_val,3,1
 2519              		.comm	params,26,2
 2520              		.comm	ramp,406,2
 2521              		.section	.rodata.str1.1,"aMS",%progbits,1
 2522              	.LC0:
 2523 0000 53696747 		.ascii	"SigGen\000"
 2523      656E00
 2524              		.data
 2525              		.align	2
 2526              		.set	.LANCHOR1,. + 0
 2527              		.type	masterVolume, %object
 2528              		.size	masterVolume, 4
 2529              	masterVolume:
 2530 0000 FF7F0000 		.word	32767
 2531              		.type	isEnabled, %object
 2532              		.size	isEnabled, 4
 2533              	isEnabled:
 2534 0004 01000000 		.word	1
 2535              		.type	divder, %object
 2536              		.size	divder, 1
 2537              	divder:
 2538 0008 FF       		.byte	-1
 2539              		.bss
 2540              		.align	2
 2541              		.set	.LANCHOR0,. + 0
 2542              		.type	taskData, %object
 2543              		.size	taskData, 4
 2544              	taskData:
 2545 0000 00000000 		.space	4
 2546              		.type	readPulse, %object
 2547              		.size	readPulse, 12
 2548              	readPulse:
 2549 0004 00000000 		.space	12
 2549      00000000 
 2549      00000000 
 2550              		.type	synthMode, %object
 2551              		.size	synthMode, 1
 2552              	synthMode:
 2553 0010 00       		.space	1
 2554 0011 000000   		.space	3
 2555              		.type	SigGen_minOt, %object
 2556              		.size	SigGen_minOt, 4
 2557              	SigGen_minOt:
 2558 0014 00000000 		.space	4
 2559              		.type	IsOkToPrint, %object
 2560              		.size	IsOkToPrint, 4
 2561              	IsOkToPrint:
 2562 0018 00000000 		.space	4
ARM GAS  C:\Users\chemi\AppData\Local\Temp\ccbZzKkH.s 			page 68


 2563              		.type	compDebug, %object
 2564              		.size	compDebug, 4
 2565              	compDebug:
 2566 001c 00000000 		.space	4
 2567              		.type	adding, %object
 2568              		.size	adding, 4
 2569              	adding:
 2570 0020 00000000 		.space	4
 2571              		.type	voicesToEradicate, %object
 2572              		.size	voicesToEradicate, 4
 2573              	voicesToEradicate:
 2574 0024 00000000 		.space	4
 2575              		.text
 2576              	.Letext0:
 2577              		.file 2 "c:\\program files (x86)\\cypress\\psoc creator\\4.4\\psoc creator\\import\\gnu\\arm\\5.4.
 2578              		.file 3 "c:\\program files (x86)\\cypress\\psoc creator\\4.4\\psoc creator\\import\\gnu\\arm\\5.4.
 2579              		.file 4 "Generated_Source\\PSoC5/cytypes.h"
 2580              		.file 5 "..\\common\\rtos\\portable\\GCC\\ARM_CM3/portmacro.h"
 2581              		.file 6 "..\\common\\rtos\\include/task.h"
 2582              		.file 7 "..\\common\\rtos\\include/stream_buffer.h"
 2583              		.file 8 "..\\common\\tterm/TTerm.h"
 2584              		.file 9 "..\\common\\ud3core\\cli_basic.h"
 2585              		.file 10 "..\\common\\rtos\\include/timers.h"
 2586              		.file 11 "..\\common\\ud3core\\cli_common.h"
 2587              		.file 12 "..\\common\\ud3core\\qcw.h"
 2588              		.file 13 "..\\common\\ud3core\\ZCDtoPWM.h"
 2589              		.file 14 "..\\common\\Modules/RingBuffer/include/RingBuffer.h"
 2590              		.file 15 "..\\common\\ud3core\\SignalGenerator.h"
 2591              		.file 16 "..\\common\\ud3core\\interrupter.h"
 2592              		.file 17 "..\\common\\ud3core\\telemetry.h"
 2593              		.file 18 "Generated_Source\\PSoC5/core_cm3.h"
 2594              		.file 19 "..\\common\\ud3core\\clock.h"
 2595              		.file 20 "Generated_Source\\PSoC5/interrupterTimebase.h"
 2596              		.file 21 "Generated_Source\\PSoC5/interrupterIRQ.h"
 2597              		.file 22 "c:\\program files (x86)\\cypress\\psoc creator\\4.4\\psoc creator\\import\\gnu\\arm\\5.4
 2598              		.file 23 "..\\common\\rtos\\include/portable.h"
 2599              		.file 24 "Generated_Source\\PSoC5/isr_midi.h"
 2600              		.file 25 "..\\common\\vms/DutyCompressor.h"