ARM GAS  C:\Users\chemi\AppData\Local\Temp\ccbZzKkH.s 			page 1


   1              		.syntax unified
   2              		.cpu cortex-m3
   3              		.fpu softvfp
   4              		.eabi_attribute 20, 1
   5              		.eabi_attribute 21, 1
   6              		.eabi_attribute 23, 3
   7              		.eabi_attribute 24, 1
   8              		.eabi_attribute 25, 1
   9              		.eabi_attribute 26, 1
  10              		.eabi_attribute 30, 4
  11              		.eabi_attribute 34, 1
  12              		.eabi_attribute 18, 4
  13              		.thumb
  14              		.syntax unified
  15              		.file	"SignalGenerator.c"
  16              		.text
  17              	.Ltext0:
  18              		.cfi_sections	.debug_frame
  19              		.section	.text.SigGen_setHyperVoiceParams,"ax",%progbits
  20              		.align	1
  21              		.thumb
  22              		.thumb_func
  23              		.type	SigGen_setHyperVoiceParams, %function
  24              	SigGen_setHyperVoiceParams:
  25              	.LFB73:
  26              		.file 1 "..\\common\\ud3core\\SignalGenerator.c"
   1:..\common\ud3core/SignalGenerator.c **** /*
   2:..\common\ud3core/SignalGenerator.c ****  * UD3 - NVM
   3:..\common\ud3core/SignalGenerator.c ****  *
   4:..\common\ud3core/SignalGenerator.c ****  * Copyright (c) 2021 Jens Kerrinnes
   5:..\common\ud3core/SignalGenerator.c ****  *
   6:..\common\ud3core/SignalGenerator.c ****  * Permission is hereby granted, free of charge, to any person obtaining a copy of
   7:..\common\ud3core/SignalGenerator.c ****  * this software and associated documentation files (the "Software"), to deal in
   8:..\common\ud3core/SignalGenerator.c ****  * the Software without restriction, including without limitation the rights to
   9:..\common\ud3core/SignalGenerator.c ****  * use, copy, modify, merge, publish, distribute, sublicense, and/or sell copies of
  10:..\common\ud3core/SignalGenerator.c ****  * the Software, and to permit persons to whom the Software is furnished to do so,
  11:..\common\ud3core/SignalGenerator.c ****  * subject to the following conditions:
  12:..\common\ud3core/SignalGenerator.c ****  *
  13:..\common\ud3core/SignalGenerator.c ****  * The above copyright notice and this permission notice shall be included in all
  14:..\common\ud3core/SignalGenerator.c ****  * copies or substantial portions of the Software.
  15:..\common\ud3core/SignalGenerator.c ****  *
  16:..\common\ud3core/SignalGenerator.c ****  * THE SOFTWARE IS PROVIDED "AS IS", WITHOUT WARRANTY OF ANY KIND, EXPRESS OR
  17:..\common\ud3core/SignalGenerator.c ****  * IMPLIED, INCLUDING BUT NOT LIMITED TO THE WARRANTIES OF MERCHANTABILITY, FITNESS
  18:..\common\ud3core/SignalGenerator.c ****  * FOR A PARTICULAR PURPOSE AND NONINFRINGEMENT. IN NO EVENT SHALL THE AUTHORS OR
  19:..\common\ud3core/SignalGenerator.c ****  * COPYRIGHT HOLDERS BE LIABLE FOR ANY CLAIM, DAMAGES OR OTHER LIABILITY, WHETHER
  20:..\common\ud3core/SignalGenerator.c ****  * IN AN ACTION OF CONTRACT, TORT OR OTHERWISE, ARISING FROM, OUT OF OR IN
  21:..\common\ud3core/SignalGenerator.c ****  * CONNECTION WITH THE SOFTWARE OR THE USE OR OTHER DEALINGS IN THE SOFTWARE.
  22:..\common\ud3core/SignalGenerator.c **** */
  23:..\common\ud3core/SignalGenerator.c **** 
  24:..\common\ud3core/SignalGenerator.c **** #include <stdlib.h>
  25:..\common\ud3core/SignalGenerator.c **** #include <limits.h>
  26:..\common\ud3core/SignalGenerator.c **** #include <cytypes.h>
  27:..\common\ud3core/SignalGenerator.c **** 
  28:..\common\ud3core/SignalGenerator.c **** #include "clock.h"
  29:..\common\ud3core/SignalGenerator.c **** #include "qcw.h"
  30:..\common\ud3core/SignalGenerator.c **** #include "ZCDtoPWM.h"
  31:..\common\ud3core/SignalGenerator.c **** #include "cli_common.h"
ARM GAS  C:\Users\chemi\AppData\Local\Temp\ccbZzKkH.s 			page 2


  32:..\common\ud3core/SignalGenerator.c **** 
  33:..\common\ud3core/SignalGenerator.c **** #include "FreeRTOS.h"
  34:..\common\ud3core/SignalGenerator.c **** #include "task.h"
  35:..\common\ud3core/SignalGenerator.c **** #include "SignalGenerator.h"
  36:..\common\ud3core/SignalGenerator.c **** #include "DutyCompressor.h"
  37:..\common\ud3core/SignalGenerator.c **** #include "RingBuffer/include/RingBuffer.h"
  38:..\common\ud3core/SignalGenerator.c **** #include "interrupter.h"
  39:..\common\ud3core/SignalGenerator.c **** #include "tasks/tsk_cli.h"
  40:..\common\ud3core/SignalGenerator.c **** #include "telemetry.h"
  41:..\common\ud3core/SignalGenerator.c **** #ifdef SIMULATOR
  42:..\common\ud3core/SignalGenerator.c **** #include "tsk_audio.h"
  43:..\common\ud3core/SignalGenerator.c **** #endif
  44:..\common\ud3core/SignalGenerator.c **** 
  45:..\common\ud3core/SignalGenerator.c **** //static int32_t SigGen_otDeriv = 0;
  46:..\common\ud3core/SignalGenerator.c **** //static int32_t SigGen_otCurveStart = 0;
  47:..\common\ud3core/SignalGenerator.c **** static int32_t SigGen_minOt = 0;
  48:..\common\ud3core/SignalGenerator.c **** 
  49:..\common\ud3core/SignalGenerator.c **** static SigGen_taskData_t * taskData;
  50:..\common\ud3core/SignalGenerator.c **** 
  51:..\common\ud3core/SignalGenerator.c **** //static uint32_t isOutputInErrorState = 0;
  52:..\common\ud3core/SignalGenerator.c **** 
  53:..\common\ud3core/SignalGenerator.c **** static void SigGen_task(void * params);
  54:..\common\ud3core/SignalGenerator.c **** 
  55:..\common\ud3core/SignalGenerator.c **** static uint32_t masterVolume = MAX_VOL;
  56:..\common\ud3core/SignalGenerator.c **** static uint8_t synthMode = SYNTH_OFF;
  57:..\common\ud3core/SignalGenerator.c **** 
  58:..\common\ud3core/SignalGenerator.c **** //current pulse the timer is waiting to run
  59:..\common\ud3core/SignalGenerator.c **** static SigGen_pulseData_t readPulse;
  60:..\common\ud3core/SignalGenerator.c **** 
  61:..\common\ud3core/SignalGenerator.c **** uint32_t VoiceFlags[SIGGEN_VOICECOUNT];
  62:..\common\ud3core/SignalGenerator.c **** 
  63:..\common\ud3core/SignalGenerator.c **** static uint32_t isEnabled = 1;
  64:..\common\ud3core/SignalGenerator.c **** 
  65:..\common\ud3core/SignalGenerator.c **** static volatile uint32_t voicesToEradicate = 0;
  66:..\common\ud3core/SignalGenerator.c **** 
  67:..\common\ud3core/SignalGenerator.c **** #define SIGGEN_MS_TO_PERIOD_COUNT(X) (X) * 32000
  68:..\common\ud3core/SignalGenerator.c **** #define SIGGEN_US_TO_PERIOD_COUNT(X) (X) * 32
  69:..\common\ud3core/SignalGenerator.c **** #define SIGGEN_PERIOD_COUNT_TO_US(X) (X) >> 5 // >> 5 = /32
  70:..\common\ud3core/SignalGenerator.c **** #define SIGGEN_US_TO_OT_COUNT(X) (X)
  71:..\common\ud3core/SignalGenerator.c **** #define SIGGEN_VOLUME_TO_CURRENT_DAC_VALUE(X) (params.min_tr_cl_dac_val + (((X) * params.diff_tr_cl
  72:..\common\ud3core/SignalGenerator.c **** 
  73:..\common\ud3core/SignalGenerator.c **** #define SIGGEN_CLEAR_LONG_PULSE 0x8000
  74:..\common\ud3core/SignalGenerator.c **** #define SIGGEN_ERADICATE_REQUIRED 0xff  //TODO maybe make this dynamic? Depending on the voice coun
  75:..\common\ud3core/SignalGenerator.c **** 
  76:..\common\ud3core/SignalGenerator.c **** #define SIGGEN_LONG_DELAY_THRESHOLD_ms 2
  77:..\common\ud3core/SignalGenerator.c **** 
  78:..\common\ud3core/SignalGenerator.c **** #define SigGen_isTimerRunning() (interrupterTimebase_ReadControlRegister() & interrupterTimebase_CT
  79:..\common\ud3core/SignalGenerator.c **** #define SigGen_startTimer() interrupterTimebase_WriteControlRegister(interrupterTimebase_ReadContro
  80:..\common\ud3core/SignalGenerator.c **** #define SigGen_stopTimer() interrupterTimebase_WriteControlRegister(interrupterTimebase_ReadControl
  81:..\common\ud3core/SignalGenerator.c **** 
  82:..\common\ud3core/SignalGenerator.c **** #define SigGen_isTimerISREnabled() interrupterIRQ_GetState()
  83:..\common\ud3core/SignalGenerator.c **** #define SigGen_disableTimerISR() interrupterIRQ_Disable()
  84:..\common\ud3core/SignalGenerator.c **** #define SigGen_enableTimerISR() interrupterIRQ_Enable()
  85:..\common\ud3core/SignalGenerator.c **** 
  86:..\common\ud3core/SignalGenerator.c **** #define SIGGEN_GET_PULSE(VOICE, TARGETPULSE) TARGETPULSE.current = VOICE.pulseVolume; TARGETPULSE.p
  87:..\common\ud3core/SignalGenerator.c **** #define SIGGEN_GET_PULSE_HPV(VOICE, TARGETPULSE) TARGETPULSE.current = VOICE.hpvVolume; TARGETPULSE
  88:..\common\ud3core/SignalGenerator.c **** #define SIGGEN_COPY_PULSE(TARGETPULSE, SRCPULSE) TARGETPULSE.current = SRCPULSE.current; TARGETPULS
ARM GAS  C:\Users\chemi\AppData\Local\Temp\ccbZzKkH.s 			page 3


  89:..\common\ud3core/SignalGenerator.c **** 
  90:..\common\ud3core/SignalGenerator.c **** static void SigGen_setHyperVoiceParams(uint32_t voice, uint32_t count, uint32_t pulseWidth, uint32_
  91:..\common\ud3core/SignalGenerator.c **** static void SigGen_setVoiceParams(uint32_t voice, uint32_t enabled, int32_t pulseWidth, int32_t vol
  92:..\common\ud3core/SignalGenerator.c **** 
  93:..\common\ud3core/SignalGenerator.c **** uint32_t IsOkToPrint = 0;
  94:..\common\ud3core/SignalGenerator.c **** 
  95:..\common\ud3core/SignalGenerator.c **** CY_ISR(isr_synth) {   
  96:..\common\ud3core/SignalGenerator.c ****     clock_tick();
  97:..\common\ud3core/SignalGenerator.c ****     if(QCW_enable_Control){
  98:..\common\ud3core/SignalGenerator.c ****         qcw_handle();
  99:..\common\ud3core/SignalGenerator.c ****         return;
 100:..\common\ud3core/SignalGenerator.c ****     }
 101:..\common\ud3core/SignalGenerator.c **** }
 102:..\common\ud3core/SignalGenerator.c ****     
 103:..\common\ud3core/SignalGenerator.c **** CY_ISR(SigGen_PulseTimerISR){
 104:..\common\ud3core/SignalGenerator.c ****     interrupterTimebase_ReadStatusRegister();
 105:..\common\ud3core/SignalGenerator.c ****     interrupterIRQ_ClearPending();
 106:..\common\ud3core/SignalGenerator.c ****     
 107:..\common\ud3core/SignalGenerator.c ****     //start the previous pulse
 108:..\common\ud3core/SignalGenerator.c ****     if(!(readPulse.current == 0 || readPulse.onTime == 0)){
 109:..\common\ud3core/SignalGenerator.c ****         if(configuration.is_qcw == 0 || synthMode == SYNTH_TR){ //Don't command a pulse in QCW mode
 110:..\common\ud3core/SignalGenerator.c ****             interrupter_oneshotRaw(readPulse.onTime, readPulse.current);
 111:..\common\ud3core/SignalGenerator.c ****         }
 112:..\common\ud3core/SignalGenerator.c ****     }
 113:..\common\ud3core/SignalGenerator.c ****     
 114:..\common\ud3core/SignalGenerator.c ****     //try to read the next pulse
 115:..\common\ud3core/SignalGenerator.c ****     while(1){
 116:..\common\ud3core/SignalGenerator.c ****         if(RingBuffer_readFromISR(taskData->pulseBuffer, (void*)&readPulse, 1) == 1){
 117:..\common\ud3core/SignalGenerator.c ****             //check if we got valid pulse and if not retry
 118:..\common\ud3core/SignalGenerator.c ****             if(readPulse.period == 0){ 
 119:..\common\ud3core/SignalGenerator.c ****                 readPulse.period = 1;
 120:..\common\ud3core/SignalGenerator.c ****                 continue;
 121:..\common\ud3core/SignalGenerator.c ****             }
 122:..\common\ud3core/SignalGenerator.c ****             
 123:..\common\ud3core/SignalGenerator.c ****             //and finally reduce the buffer size
 124:..\common\ud3core/SignalGenerator.c ****             taskData->bufferLengthInCounts -= readPulse.period;
 125:..\common\ud3core/SignalGenerator.c ****             
 126:..\common\ud3core/SignalGenerator.c ****             if(readPulse.period < SIGGEN_MIN_PERIOD){ 
 127:..\common\ud3core/SignalGenerator.c ****                 //TODO evaluate occurance of this happening. Should be impossible and if it does ha
 128:..\common\ud3core/SignalGenerator.c ****                 readPulse.period = SIGGEN_MIN_PERIOD;
 129:..\common\ud3core/SignalGenerator.c ****             }
 130:..\common\ud3core/SignalGenerator.c ****             
 131:..\common\ud3core/SignalGenerator.c ****             //load timer registers
 132:..\common\ud3core/SignalGenerator.c ****             interrupterTimebase_WriteCompare(readPulse.period);
 133:..\common\ud3core/SignalGenerator.c ****             
 134:..\common\ud3core/SignalGenerator.c ****             //we got a valid time => exit loop
 135:..\common\ud3core/SignalGenerator.c ****             break;
 136:..\common\ud3core/SignalGenerator.c **** 
 137:..\common\ud3core/SignalGenerator.c ****             //is the timer already running longer than the period? if so make it trigger as soon as
 138:..\common\ud3core/SignalGenerator.c ****             //TODO evaluate if this is actually neccessary. After all the timer compare mode is set
 139:..\common\ud3core/SignalGenerator.c ****         }else{
 140:..\common\ud3core/SignalGenerator.c ****             //no more pulses in the buffer or other error. Turn off the timer 
 141:..\common\ud3core/SignalGenerator.c ****             SigGen_stopTimer();
 142:..\common\ud3core/SignalGenerator.c ****             
 143:..\common\ud3core/SignalGenerator.c ****             //also there is no way that there is still some time left in the buffer... clear it jus
 144:..\common\ud3core/SignalGenerator.c ****             taskData->bufferLengthInCounts = 0;
 145:..\common\ud3core/SignalGenerator.c ****             
ARM GAS  C:\Users\chemi\AppData\Local\Temp\ccbZzKkH.s 			page 4


 146:..\common\ud3core/SignalGenerator.c ****             //no more pulses could be read out => jsut exit from the loop
 147:..\common\ud3core/SignalGenerator.c ****             break;
 148:..\common\ud3core/SignalGenerator.c ****         }
 149:..\common\ud3core/SignalGenerator.c ****         
 150:..\common\ud3core/SignalGenerator.c ****     }
 151:..\common\ud3core/SignalGenerator.c **** }
 152:..\common\ud3core/SignalGenerator.c **** 
 153:..\common\ud3core/SignalGenerator.c **** uint8_t callback_siggen(parameter_entry * params, uint8_t index, TERMINAL_HANDLE * handle){
 154:..\common\ud3core/SignalGenerator.c ****     //update minimum OT parameter
 155:..\common\ud3core/SignalGenerator.c ****     SigGen_minOt = (configuration.max_tr_pw * configuration.SigGen_minOtOffset) / 100;
 156:..\common\ud3core/SignalGenerator.c ****     
 157:..\common\ud3core/SignalGenerator.c ****     return pdPASS;
 158:..\common\ud3core/SignalGenerator.c **** }
 159:..\common\ud3core/SignalGenerator.c **** 
 160:..\common\ud3core/SignalGenerator.c **** void SigGen_init(){
 161:..\common\ud3core/SignalGenerator.c ****     //initialize flags needed for masking voices
 162:..\common\ud3core/SignalGenerator.c ****     for(uint32_t i = 0; i < SIGGEN_VOICECOUNT; i++){
 163:..\common\ud3core/SignalGenerator.c ****         VoiceFlags[i] = 1<<i;
 164:..\common\ud3core/SignalGenerator.c ****     }
 165:..\common\ud3core/SignalGenerator.c ****     
 166:..\common\ud3core/SignalGenerator.c ****     SigGen_taskData_t * data = pvPortMalloc(sizeof(SigGen_taskData_t));
 167:..\common\ud3core/SignalGenerator.c ****     memset((void *)data, 0, sizeof(SigGen_taskData_t));
 168:..\common\ud3core/SignalGenerator.c ****     taskData = data;
 169:..\common\ud3core/SignalGenerator.c ****     
 170:..\common\ud3core/SignalGenerator.c ****     //create pulse buffer
 171:..\common\ud3core/SignalGenerator.c ****     data->pulseBuffer = RingBuffer_create(64, sizeof(SigGen_pulseData_t));
 172:..\common\ud3core/SignalGenerator.c ****     
 173:..\common\ud3core/SignalGenerator.c ****     //initialize timers
 174:..\common\ud3core/SignalGenerator.c ****     
 175:..\common\ud3core/SignalGenerator.c ****     //Timer 2&3 generate the signal period. 32Bit mode, no prescaler
 176:..\common\ud3core/SignalGenerator.c ****     interrupterTimebase_Init();
 177:..\common\ud3core/SignalGenerator.c ****     interrupterIRQ_StartEx(SigGen_PulseTimerISR);
 178:..\common\ud3core/SignalGenerator.c ****     
 179:..\common\ud3core/SignalGenerator.c ****     isr_midi_StartEx(isr_synth);
 180:..\common\ud3core/SignalGenerator.c ****     
 181:..\common\ud3core/SignalGenerator.c ****     xTaskCreate(SigGen_task, "SigGen", configMINIMAL_STACK_SIZE+128, (void*) data, tskIDLE_PRIORITY
 182:..\common\ud3core/SignalGenerator.c **** }
 183:..\common\ud3core/SignalGenerator.c **** 
 184:..\common\ud3core/SignalGenerator.c **** //calculate the dutycycle and return it in percent
 185:..\common\ud3core/SignalGenerator.c **** uint32_t SigGen_getCurrDuty(){
 186:..\common\ud3core/SignalGenerator.c ****     uint32_t totalDuty = 0; //DER TOTAAALE TASTGRAD
 187:..\common\ud3core/SignalGenerator.c ****     
 188:..\common\ud3core/SignalGenerator.c ****     //calculate dutycycle of every voice and add it to the total dutycycle
 189:..\common\ud3core/SignalGenerator.c ****     for(uint32_t currVoice = 0; currVoice < SIGGEN_VOICECOUNT; currVoice++){
 190:..\common\ud3core/SignalGenerator.c ****         if(!taskData->voice[currVoice].enabled) continue;
 191:..\common\ud3core/SignalGenerator.c ****         
 192:..\common\ud3core/SignalGenerator.c ****         //dutycycle = frequency * pulseWidth; pulsewidth calculation from volume already takes the 
 193:..\common\ud3core/SignalGenerator.c ****         
 194:..\common\ud3core/SignalGenerator.c ****         //scale to correct for the error from A: microseconds to seconds of OT, B: 10ths of a hertz
 195:..\common\ud3core/SignalGenerator.c ****         uint32_t ourDuty = (taskData->voice[currVoice].pulseWidth_us * taskData->voice[currVoice].f
 196:..\common\ud3core/SignalGenerator.c ****         
 197:..\common\ud3core/SignalGenerator.c ****         //is hypervoice on? if so add the duty from the second pulse
 198:..\common\ud3core/SignalGenerator.c ****         if(taskData->voice[currVoice].hpvCount != 0 && taskData->voice[currVoice].noiseAmplitude ==
 199:..\common\ud3core/SignalGenerator.c ****             //TODO actually respect the hpv divider in the duty calculation
 200:..\common\ud3core/SignalGenerator.c ****             //scale to correct for the error from A: microseconds to seconds of OT, B: 10ths of a h
 201:..\common\ud3core/SignalGenerator.c ****             ourDuty += ((taskData->voice[currVoice].pulseWidth_us / taskData->voice[currVoice].hpvC
 202:..\common\ud3core/SignalGenerator.c ****         }
ARM GAS  C:\Users\chemi\AppData\Local\Temp\ccbZzKkH.s 			page 5


 203:..\common\ud3core/SignalGenerator.c ****         totalDuty += ourDuty;
 204:..\common\ud3core/SignalGenerator.c ****     }
 205:..\common\ud3core/SignalGenerator.c ****     
 206:..\common\ud3core/SignalGenerator.c ****     //scale current duty by the compressor volume
 207:..\common\ud3core/SignalGenerator.c ****     if(Comp_getGain() != COMP_UNITYGAIN) totalDuty = (totalDuty * Comp_getGain()) >> 15;
 208:..\common\ud3core/SignalGenerator.c ****     
 209:..\common\ud3core/SignalGenerator.c ****     return totalDuty;
 210:..\common\ud3core/SignalGenerator.c **** }
 211:..\common\ud3core/SignalGenerator.c **** 
 212:..\common\ud3core/SignalGenerator.c **** //phase is 0-100% fixed point with a maximum of 1024=1
 213:..\common\ud3core/SignalGenerator.c **** static void SigGen_setHyperVoiceParams(uint32_t voice, uint32_t count, uint32_t pulseWidth, uint32_
  27              		.loc 1 213 0
  28              		.cfi_startproc
  29              		@ args = 4, pretend = 0, frame = 0
  30              		@ frame_needed = 0, uses_anonymous_args = 0
  31              	.LVL0:
  32 0000 F0B5     		push	{r4, r5, r6, r7, lr}
  33              		.cfi_def_cfa_offset 20
  34              		.cfi_offset 4, -20
  35              		.cfi_offset 5, -16
  36              		.cfi_offset 6, -12
  37              		.cfi_offset 7, -8
  38              		.cfi_offset 14, -4
  39              		.loc 1 213 0
  40 0002 059D     		ldr	r5, [sp, #20]
  41 0004 DFF868E0 		ldr	lr, .L13+4
 214:..\common\ud3core/SignalGenerator.c ****     if(count == 0 || taskData->voice[voice].noiseAmplitude || masterVolume == 0 || volume == 0){
  42              		.loc 1 214 0
  43 0008 51B1     		cbz	r1, .L2
  44              		.loc 1 214 0 is_stmt 0 discriminator 1
  45 000a DEF80060 		ldr	r6, [lr]
  46 000e 6824     		movs	r4, #104
  47 0010 04FB0064 		mla	r4, r4, r0, r6
  48 0014 276B     		ldr	r7, [r4, #48]
  49 0016 1FB9     		cbnz	r7, .L2
  50              		.loc 1 214 0 discriminator 2
  51 0018 144F     		ldr	r7, .L13
  52 001a 3F68     		ldr	r7, [r7]
  53 001c 07B1     		cbz	r7, .L2
  54              		.loc 1 214 0 discriminator 3
  55 001e 83B9     		cbnz	r3, .L3
  56              	.L2:
 215:..\common\ud3core/SignalGenerator.c ****         taskData->voice[voice].limitedHpvPulseWidth_us = 0;
  57              		.loc 1 215 0 is_stmt 1
  58 0020 DEF80020 		ldr	r2, [lr]
  59              	.LVL1:
  60 0024 6823     		movs	r3, #104
  61              	.LVL2:
  62 0026 03FB0020 		mla	r0, r3, r0, r2
  63              	.LVL3:
  64 002a 0023     		movs	r3, #0
  65 002c C365     		str	r3, [r0, #92]
 216:..\common\ud3core/SignalGenerator.c ****         taskData->voice[voice].hpvPulseWidth_us = 0;
  66              		.loc 1 216 0
  67 002e 8365     		str	r3, [r0, #88]
 217:..\common\ud3core/SignalGenerator.c ****         
 218:..\common\ud3core/SignalGenerator.c ****         taskData->voice[voice].limitedHpvCount = 0;
ARM GAS  C:\Users\chemi\AppData\Local\Temp\ccbZzKkH.s 			page 6


  68              		.loc 1 218 0
  69 0030 4362     		str	r3, [r0, #36]
 219:..\common\ud3core/SignalGenerator.c ****         taskData->voice[voice].hpvCount = 0;
  70              		.loc 1 219 0
  71 0032 0362     		str	r3, [r0, #32]
 220:..\common\ud3core/SignalGenerator.c ****         taskData->voice[voice].hpvVolume = 0;
  72              		.loc 1 220 0
  73 0034 0364     		str	r3, [r0, #64]
 221:..\common\ud3core/SignalGenerator.c ****         taskData->voice[voice].initialHpvVolume = 0;
  74              		.loc 1 221 0
  75 0036 C364     		str	r3, [r0, #76]
 222:..\common\ud3core/SignalGenerator.c ****         taskData->voice[voice].hpvPhase = 0;
  76              		.loc 1 222 0
  77 0038 C363     		str	r3, [r0, #60]
 223:..\common\ud3core/SignalGenerator.c ****         taskData->voice[voice].currHPVDivider = INT_MAX;
  78              		.loc 1 223 0
  79 003a 6FF00043 		mvn	r3, #-2147483648
  80 003e C360     		str	r3, [r0, #12]
 224:..\common\ud3core/SignalGenerator.c ****         return;
  81              		.loc 1 224 0
  82 0040 F0BD     		pop	{r4, r5, r6, r7, pc}
  83              	.LVL4:
  84              	.L3:
 225:..\common\ud3core/SignalGenerator.c ****     }
 226:..\common\ud3core/SignalGenerator.c ****     
 227:..\common\ud3core/SignalGenerator.c ****     taskData->voice[voice].initialHpvVolume = volume;
  85              		.loc 1 227 0
  86 0042 E364     		str	r3, [r4, #76]
 228:..\common\ud3core/SignalGenerator.c ****     taskData->voice[voice].hpvVolume = (volume * masterVolume) >> 15;
  87              		.loc 1 228 0
  88 0044 7B43     		muls	r3, r7, r3
  89              	.LVL5:
  90 0046 DB0B     		lsrs	r3, r3, #15
  91 0048 2364     		str	r3, [r4, #64]
  92              	.LVL6:
 229:..\common\ud3core/SignalGenerator.c ****     taskData->voice[voice].hpvPulseWidth_us = pulseWidth;
  93              		.loc 1 229 0
  94 004a A265     		str	r2, [r4, #88]
 230:..\common\ud3core/SignalGenerator.c ****     taskData->voice[voice].hpvPhase = (count > 0) ? phase : 0;
  95              		.loc 1 230 0
  96 004c E563     		str	r5, [r4, #60]
 231:..\common\ud3core/SignalGenerator.c ****     taskData->voice[voice].hpvCount = count;
  97              		.loc 1 231 0
  98 004e 2162     		str	r1, [r4, #32]
 232:..\common\ud3core/SignalGenerator.c ****     
 233:..\common\ud3core/SignalGenerator.c ****     if(taskData->voice[voice].currHPVDivider > taskData->voice[voice].hpvCount) taskData->voice[voi
  99              		.loc 1 233 0
 100 0050 E268     		ldr	r2, [r4, #12]
 101              	.LVL7:
 102 0052 236A     		ldr	r3, [r4, #32]
 103 0054 9A42     		cmp	r2, r3
 104 0056 C4BF     		itt	gt
 105 0058 236A     		ldrgt	r3, [r4, #32]
 106 005a E360     		strgt	r3, [r4, #12]
 234:..\common\ud3core/SignalGenerator.c ****     
 235:..\common\ud3core/SignalGenerator.c ****     taskData->voice[voice].hpvOffset = (count > 0) ? (phase * taskData->voice[voice].period) >> 10 
 107              		.loc 1 235 0
ARM GAS  C:\Users\chemi\AppData\Local\Temp\ccbZzKkH.s 			page 7


 108 005c 6823     		movs	r3, #104
 109 005e 03FB0060 		mla	r0, r3, r0, r6
 110              	.LVL8:
 111 0062 0369     		ldr	r3, [r0, #16]
 112 0064 5D43     		muls	r5, r3, r5
 113 0066 AD0A     		lsrs	r5, r5, #10
 114 0068 C561     		str	r5, [r0, #28]
 115 006a F0BD     		pop	{r4, r5, r6, r7, pc}
 116              	.LVL9:
 117              	.L14:
 118              		.align	2
 119              	.L13:
 120 006c 00000000 		.word	.LANCHOR1
 121 0070 00000000 		.word	.LANCHOR0
 122              		.cfi_endproc
 123              	.LFE73:
 124              		.size	SigGen_setHyperVoiceParams, .-SigGen_setHyperVoiceParams
 125              		.section	.text.isr_synth,"ax",%progbits
 126              		.align	1
 127              		.global	isr_synth
 128              		.thumb
 129              		.thumb_func
 130              		.type	isr_synth, %function
 131              	isr_synth:
 132              	.LFB68:
  95:..\common\ud3core/SignalGenerator.c ****     clock_tick();
 133              		.loc 1 95 0
 134              		.cfi_startproc
 135              		@ args = 0, pretend = 0, frame = 0
 136              		@ frame_needed = 0, uses_anonymous_args = 0
 137 0000 08B5     		push	{r3, lr}
 138              		.cfi_def_cfa_offset 8
 139              		.cfi_offset 3, -8
 140              		.cfi_offset 14, -4
  96:..\common\ud3core/SignalGenerator.c ****     if(QCW_enable_Control){
 141              		.loc 1 96 0
 142 0002 FFF7FEFF 		bl	clock_tick
 143              	.LVL10:
  97:..\common\ud3core/SignalGenerator.c ****         qcw_handle();
 144              		.loc 1 97 0
 145 0006 044B     		ldr	r3, .L17
 146 0008 1B78     		ldrb	r3, [r3]	@ zero_extendqisi2
 147 000a 1BB1     		cbz	r3, .L15
 101:..\common\ud3core/SignalGenerator.c ****     
 148              		.loc 1 101 0
 149 000c BDE80840 		pop	{r3, lr}
 150              		.cfi_remember_state
 151              		.cfi_restore 14
 152              		.cfi_restore 3
 153              		.cfi_def_cfa_offset 0
  98:..\common\ud3core/SignalGenerator.c ****         return;
 154              		.loc 1 98 0
 155 0010 FFF7FEBF 		b	qcw_handle
 156              	.LVL11:
 157              	.L15:
 158              		.cfi_restore_state
 159 0014 08BD     		pop	{r3, pc}
ARM GAS  C:\Users\chemi\AppData\Local\Temp\ccbZzKkH.s 			page 8


 160              	.L18:
 161 0016 00BF     		.align	2
 162              	.L17:
 163 0018 79640040 		.word	1073767545
 164              		.cfi_endproc
 165              	.LFE68:
 166              		.size	isr_synth, .-isr_synth
 167              		.section	.text.SigGen_PulseTimerISR,"ax",%progbits
 168              		.align	1
 169              		.global	SigGen_PulseTimerISR
 170              		.thumb
 171              		.thumb_func
 172              		.type	SigGen_PulseTimerISR, %function
 173              	SigGen_PulseTimerISR:
 174              	.LFB69:
 103:..\common\ud3core/SignalGenerator.c ****     interrupterTimebase_ReadStatusRegister();
 175              		.loc 1 103 0
 176              		.cfi_startproc
 177              		@ args = 0, pretend = 0, frame = 0
 178              		@ frame_needed = 0, uses_anonymous_args = 0
 179 0000 70B5     		push	{r4, r5, r6, lr}
 180              		.cfi_def_cfa_offset 16
 181              		.cfi_offset 4, -16
 182              		.cfi_offset 5, -12
 183              		.cfi_offset 6, -8
 184              		.cfi_offset 14, -4
 108:..\common\ud3core/SignalGenerator.c ****         if(configuration.is_qcw == 0 || synthMode == SYNTH_TR){ //Don't command a pulse in QCW mode
 185              		.loc 1 108 0
 186 0002 214C     		ldr	r4, .L35
 104:..\common\ud3core/SignalGenerator.c ****     interrupterIRQ_ClearPending();
 187              		.loc 1 104 0
 188 0004 FFF7FEFF 		bl	interrupterTimebase_ReadStatusRegister
 189              	.LVL12:
 105:..\common\ud3core/SignalGenerator.c ****     
 190              		.loc 1 105 0
 191 0008 FFF7FEFF 		bl	interrupterIRQ_ClearPending
 192              	.LVL13:
 108:..\common\ud3core/SignalGenerator.c ****         if(configuration.is_qcw == 0 || synthMode == SYNTH_TR){ //Don't command a pulse in QCW mode
 193              		.loc 1 108 0
 194 000c E368     		ldr	r3, [r4, #12]
 195 000e 63B1     		cbz	r3, .L20
 108:..\common\ud3core/SignalGenerator.c ****         if(configuration.is_qcw == 0 || synthMode == SYNTH_TR){ //Don't command a pulse in QCW mode
 196              		.loc 1 108 0 is_stmt 0 discriminator 1
 197 0010 A368     		ldr	r3, [r4, #8]
 198 0012 53B1     		cbz	r3, .L20
 109:..\common\ud3core/SignalGenerator.c ****             interrupter_oneshotRaw(readPulse.onTime, readPulse.current);
 199              		.loc 1 109 0 is_stmt 1
 200 0014 1D4B     		ldr	r3, .L35+4
 201 0016 93F85C30 		ldrb	r3, [r3, #92]	@ zero_extendqisi2
 202 001a 13B1     		cbz	r3, .L21
 109:..\common\ud3core/SignalGenerator.c ****             interrupter_oneshotRaw(readPulse.onTime, readPulse.current);
 203              		.loc 1 109 0 is_stmt 0 discriminator 1
 204 001c 237C     		ldrb	r3, [r4, #16]	@ zero_extendqisi2
 205 001e 032B     		cmp	r3, #3
 206 0020 03D1     		bne	.L20
 207              	.L21:
 110:..\common\ud3core/SignalGenerator.c ****         }
ARM GAS  C:\Users\chemi\AppData\Local\Temp\ccbZzKkH.s 			page 9


 208              		.loc 1 110 0 is_stmt 1
 209 0022 A068     		ldr	r0, [r4, #8]
 210 0024 E168     		ldr	r1, [r4, #12]
 211 0026 FFF7FEFF 		bl	interrupter_oneshotRaw
 212              	.LVL14:
 213              	.L20:
 116:..\common\ud3core/SignalGenerator.c ****             //check if we got valid pulse and if not retry
 214              		.loc 1 116 0
 215 002a 174E     		ldr	r6, .L35
 216              	.L24:
 217 002c 2368     		ldr	r3, [r4]
 218 002e 164D     		ldr	r5, .L35
 219 0030 D3F87402 		ldr	r0, [r3, #628]
 220 0034 0122     		movs	r2, #1
 221 0036 291D     		adds	r1, r5, #4
 222 0038 FFF7FEFF 		bl	RingBuffer_readFromISR
 223              	.LVL15:
 224 003c 0128     		cmp	r0, #1
 225 003e 16D1     		bne	.L22
 118:..\common\ud3core/SignalGenerator.c ****                 readPulse.period = 1;
 226              		.loc 1 118 0
 227 0040 7368     		ldr	r3, [r6, #4]
 228 0042 0BB9     		cbnz	r3, .L23
 119:..\common\ud3core/SignalGenerator.c ****                 continue;
 229              		.loc 1 119 0
 230 0044 7060     		str	r0, [r6, #4]
 150:..\common\ud3core/SignalGenerator.c **** }
 231              		.loc 1 150 0
 232 0046 F1E7     		b	.L24
 233              	.L23:
 124:..\common\ud3core/SignalGenerator.c ****             
 234              		.loc 1 124 0
 235 0048 2A68     		ldr	r2, [r5]
 236 004a 6968     		ldr	r1, [r5, #4]
 237 004c D2F87032 		ldr	r3, [r2, #624]
 238 0050 5B1A     		subs	r3, r3, r1
 239 0052 C2F87032 		str	r3, [r2, #624]
 126:..\common\ud3core/SignalGenerator.c ****                 //TODO evaluate occurance of this happening. Should be impossible and if it does ha
 240              		.loc 1 126 0
 241 0056 6B68     		ldr	r3, [r5, #4]
 242 0058 B3F57A7F 		cmp	r3, #1000
 128:..\common\ud3core/SignalGenerator.c ****             }
 243              		.loc 1 128 0
 244 005c BCBF     		itt	lt
 245 005e 4FF47A73 		movlt	r3, #1000
 246 0062 6B60     		strlt	r3, [r5, #4]
 132:..\common\ud3core/SignalGenerator.c ****             
 247              		.loc 1 132 0
 248 0064 6068     		ldr	r0, [r4, #4]
 151:..\common\ud3core/SignalGenerator.c **** 
 249              		.loc 1 151 0
 250 0066 BDE87040 		pop	{r4, r5, r6, lr}
 251              		.cfi_remember_state
 252              		.cfi_restore 14
 253              		.cfi_restore 6
 254              		.cfi_restore 5
 255              		.cfi_restore 4
ARM GAS  C:\Users\chemi\AppData\Local\Temp\ccbZzKkH.s 			page 10


 256              		.cfi_def_cfa_offset 0
 132:..\common\ud3core/SignalGenerator.c ****             
 257              		.loc 1 132 0
 258 006a FFF7FEBF 		b	interrupterTimebase_WriteCompare
 259              	.LVL16:
 260              	.L22:
 261              		.cfi_restore_state
 141:..\common\ud3core/SignalGenerator.c ****             
 262              		.loc 1 141 0
 263 006e FFF7FEFF 		bl	interrupterTimebase_ReadControlRegister
 264              	.LVL17:
 265 0072 00F07F00 		and	r0, r0, #127
 266 0076 FFF7FEFF 		bl	interrupterTimebase_WriteControlRegister
 267              	.LVL18:
 268 007a FFF7FEFF 		bl	interrupterIRQ_Disable
 269              	.LVL19:
 144:..\common\ud3core/SignalGenerator.c ****             
 270              		.loc 1 144 0
 271 007e 2B68     		ldr	r3, [r5]
 272 0080 0022     		movs	r2, #0
 273 0082 C3F87022 		str	r2, [r3, #624]
 274 0086 70BD     		pop	{r4, r5, r6, pc}
 275              	.L36:
 276              		.align	2
 277              	.L35:
 278 0088 00000000 		.word	.LANCHOR0
 279 008c 00000000 		.word	configuration
 280              		.cfi_endproc
 281              	.LFE69:
 282              		.size	SigGen_PulseTimerISR, .-SigGen_PulseTimerISR
 283              		.section	.text.getFixedDutyOntime,"ax",%progbits
 284              		.align	1
 285              		.thumb
 286              		.thumb_func
 287              		.type	getFixedDutyOntime, %function
 288              	getFixedDutyOntime:
 289              	.LFB76:
 236:..\common\ud3core/SignalGenerator.c **** }
 237:..\common\ud3core/SignalGenerator.c **** 
 238:..\common\ud3core/SignalGenerator.c **** uint32_t SigGen_isVoiceOn(uint32_t voice){
 239:..\common\ud3core/SignalGenerator.c ****     return taskData->voice[voice].enabled;
 240:..\common\ud3core/SignalGenerator.c **** }
 241:..\common\ud3core/SignalGenerator.c **** 
 242:..\common\ud3core/SignalGenerator.c **** uint8_t divder = 0xff;
 243:..\common\ud3core/SignalGenerator.c **** 
 244:..\common\ud3core/SignalGenerator.c **** static void SigGen_setVoiceParams(uint32_t voice, uint32_t enabled, int32_t pulseWidth, int32_t vol
 245:..\common\ud3core/SignalGenerator.c ****     IsOkToPrint = 1;
 246:..\common\ud3core/SignalGenerator.c ****     
 247:..\common\ud3core/SignalGenerator.c ****     //if(--divder == 0) TERM_printDebug(min_handle[1], "set voice freq=%d, ontime=%d\r\n", frequenc
 248:..\common\ud3core/SignalGenerator.c ****     
 249:..\common\ud3core/SignalGenerator.c ****     //check if voice is switching on
 250:..\common\ud3core/SignalGenerator.c ****     uint32_t willBeOn = enabled && (volume != 0) && (frequencyTenths != 0);
 251:..\common\ud3core/SignalGenerator.c ****     
 252:..\common\ud3core/SignalGenerator.c ****     //is the voice switching on?
 253:..\common\ud3core/SignalGenerator.c ****     if(!taskData->voice[voice].enabled && willBeOn){
 254:..\common\ud3core/SignalGenerator.c ****         //yes => reset the timebase for the note
 255:..\common\ud3core/SignalGenerator.c ****         taskData->voice[voice].counter = 0;
ARM GAS  C:\Users\chemi\AppData\Local\Temp\ccbZzKkH.s 			page 11


 256:..\common\ud3core/SignalGenerator.c ****         if(configuration.is_qcw && synthMode != SYNTH_TR){
 257:..\common\ud3core/SignalGenerator.c ****             qcw_cmd_midi_pulse(volume, frequencyTenths);   
 258:..\common\ud3core/SignalGenerator.c ****         }
 259:..\common\ud3core/SignalGenerator.c ****     }
 260:..\common\ud3core/SignalGenerator.c ****     
 261:..\common\ud3core/SignalGenerator.c ****     taskData->voice[voice].enabled = willBeOn;
 262:..\common\ud3core/SignalGenerator.c ****     
 263:..\common\ud3core/SignalGenerator.c ****     if(!taskData->voice[voice].enabled || masterVolume == 0){ 
 264:..\common\ud3core/SignalGenerator.c ****         taskData->voice[voice].enabled = 0;
 265:..\common\ud3core/SignalGenerator.c ****         taskData->voice[voice].limitedEnabled = 0;
 266:..\common\ud3core/SignalGenerator.c ****         
 267:..\common\ud3core/SignalGenerator.c ****         //make sure to update the duty limiter
 268:..\common\ud3core/SignalGenerator.c ****         SigGen_limit();
 269:..\common\ud3core/SignalGenerator.c **** 		return;
 270:..\common\ud3core/SignalGenerator.c **** 	}
 271:..\common\ud3core/SignalGenerator.c ****     
 272:..\common\ud3core/SignalGenerator.c ****     taskData->voice[voice].initialPulseVolume = volume;
 273:..\common\ud3core/SignalGenerator.c ****     
 274:..\common\ud3core/SignalGenerator.c ****     taskData->voice[voice].pulseVolume = (volume * masterVolume) >> 15;
 275:..\common\ud3core/SignalGenerator.c ****     
 276:..\common\ud3core/SignalGenerator.c ****     taskData->voice[voice].pulseWidth_us = pulseWidth;
 277:..\common\ud3core/SignalGenerator.c ****     taskData->voice[voice].frequencyTenths = frequencyTenths;
 278:..\common\ud3core/SignalGenerator.c ****     
 279:..\common\ud3core/SignalGenerator.c ****     
 280:..\common\ud3core/SignalGenerator.c ****     taskData->voice[voice].period = 10000000 / frequencyTenths;
 281:..\common\ud3core/SignalGenerator.c ****     //TODO perhaps reset the counter if the period that was on it before was much longer than the c
 282:..\common\ud3core/SignalGenerator.c ****     
 283:..\common\ud3core/SignalGenerator.c ****     if(noiseAmplitude > (taskData->voice[voice].period >> 1)){
 284:..\common\ud3core/SignalGenerator.c ****         taskData->voice[voice].noiseAmplitude = taskData->voice[voice].period >> 1;
 285:..\common\ud3core/SignalGenerator.c ****     }else{
 286:..\common\ud3core/SignalGenerator.c ****         taskData->voice[voice].noiseAmplitude = noiseAmplitude;
 287:..\common\ud3core/SignalGenerator.c ****     }
 288:..\common\ud3core/SignalGenerator.c ****     
 289:..\common\ud3core/SignalGenerator.c ****     //is burst on?
 290:..\common\ud3core/SignalGenerator.c ****     if(burstOff_us > 0){
 291:..\common\ud3core/SignalGenerator.c ****         //yes, setup burst counter
 292:..\common\ud3core/SignalGenerator.c ****         int32_t burstPeriod_us = burstOn_us + burstOff_us;
 293:..\common\ud3core/SignalGenerator.c ****         taskData->voice[voice].burstPeriod = burstPeriod_us;
 294:..\common\ud3core/SignalGenerator.c ****         if(taskData->voice[voice].burstCounter > taskData->voice[voice].burstPeriod) taskData->voic
 295:..\common\ud3core/SignalGenerator.c ****         
 296:..\common\ud3core/SignalGenerator.c ****         //the burst ontime is a comparison for > burstOt, so in order to get the correct ontime the
 297:..\common\ud3core/SignalGenerator.c ****         taskData->voice[voice].burstOt = burstPeriod_us - burstOn_us;
 298:..\common\ud3core/SignalGenerator.c ****     }else{
 299:..\common\ud3core/SignalGenerator.c ****         taskData->voice[voice].burstPeriod = 0;
 300:..\common\ud3core/SignalGenerator.c ****         taskData->voice[voice].burstCounter = 0;
 301:..\common\ud3core/SignalGenerator.c ****     }
 302:..\common\ud3core/SignalGenerator.c ****     
 303:..\common\ud3core/SignalGenerator.c ****     //re calculate hypervoice parameters
 304:..\common\ud3core/SignalGenerator.c ****     if(taskData->voice[voice].hpvCount != 0) SigGen_setHyperVoiceParams(voice, taskData->voice[voic
 305:..\common\ud3core/SignalGenerator.c ****     
 306:..\common\ud3core/SignalGenerator.c ****     SigGen_limit();
 307:..\common\ud3core/SignalGenerator.c **** }
 308:..\common\ud3core/SignalGenerator.c **** 
 309:..\common\ud3core/SignalGenerator.c **** static uint32_t getFixedDutyOntime(int32_t pulseWidth, int32_t frequencyTenths, uint32_t noiseOn){
 290              		.loc 1 309 0
 291              		.cfi_startproc
 292              		@ args = 0, pretend = 0, frame = 0
ARM GAS  C:\Users\chemi\AppData\Local\Temp\ccbZzKkH.s 			page 12


 293              		@ frame_needed = 0, uses_anonymous_args = 0
 294              	.LVL20:
 310:..\common\ud3core/SignalGenerator.c ****     //check for maximum frequency
 311:..\common\ud3core/SignalGenerator.c ****     if(frequencyTenths > 200000 || frequencyTenths == 0) return 0;
 295              		.loc 1 311 0
 296 0000 104B     		ldr	r3, .L45
 309:..\common\ud3core/SignalGenerator.c ****     //check for maximum frequency
 297              		.loc 1 309 0
 298 0002 70B5     		push	{r4, r5, r6, lr}
 299              		.cfi_def_cfa_offset 16
 300              		.cfi_offset 4, -16
 301              		.cfi_offset 5, -12
 302              		.cfi_offset 6, -8
 303              		.cfi_offset 14, -4
 304              		.loc 1 311 0
 305 0004 9942     		cmp	r1, r3
 306 0006 19DC     		bgt	.L40
 307              		.loc 1 311 0 is_stmt 0 discriminator 2
 308 0008 D1B1     		cbz	r1, .L41
 309              	.LVL21:
 310              	.LBB9:
 311              	.LBB10:
 312:..\common\ud3core/SignalGenerator.c ****     
 313:..\common\ud3core/SignalGenerator.c ****     //uint32_t ot = ((SigGen_otCurveStart + ((frequencyTenths * SigGen_otDeriv) >> 16)) * pulseWidt
 314:..\common\ud3core/SignalGenerator.c ****     
 315:..\common\ud3core/SignalGenerator.c ****     //TERM_printDebug(min_handle[1], "Calc ot for freq=%ddHz val=%dus\r\n", frequencyTenths, ot);
 316:..\common\ud3core/SignalGenerator.c ****     
 317:..\common\ud3core/SignalGenerator.c ****     //return ot;
 318:..\common\ud3core/SignalGenerator.c ****     
 319:..\common\ud3core/SignalGenerator.c ****     //calculate the pulsewidth we need to achive the target dutycycle
 320:..\common\ud3core/SignalGenerator.c ****     
 321:..\common\ud3core/SignalGenerator.c ****     //target dutycycle is scaled 0-max_tr_duty with the ontime slider
 322:..\common\ud3core/SignalGenerator.c ****     
 323:..\common\ud3core/SignalGenerator.c ****     //targetDuty = max_duty * (pw/max_tr_pw)
 324:..\common\ud3core/SignalGenerator.c ****     
 325:..\common\ud3core/SignalGenerator.c ****     //target ontime = targetDuty / target frequency = max_duty * (pw/max_tr_pw) * 1/targetFrequency
 326:..\common\ud3core/SignalGenerator.c ****     //target ontime_us = targetDuty / target frequency = max_duty * (pw/max_tr_pw) * 1/targetFreque
 327:..\common\ud3core/SignalGenerator.c ****     
 328:..\common\ud3core/SignalGenerator.c ****     //units:                 [us]        [thousands - 1/10%]                       [us]
 329:..\common\ud3core/SignalGenerator.c ****     //                                   [         1/1000 %          ]
 330:..\common\ud3core/SignalGenerator.c ****     //                     [                                  1/1000 %                            ]
 331:..\common\ud3core/SignalGenerator.c ****     //                     [                                  1/1000 %                            ]
 332:..\common\ud3core/SignalGenerator.c ****     //                     [                                  1/10000 %  aka 0.1ppm                
 333:..\common\ud3core/SignalGenerator.c ****     //                     [                                  1/10000 %  aka 0.1ppm                
 334:..\common\ud3core/SignalGenerator.c ****     //                     [                                  1/10000 %  aka 0.1ppm                
 335:..\common\ud3core/SignalGenerator.c ****     //                     [                                               us                      
 336:..\common\ud3core/SignalGenerator.c ****     int32_t targetOt_us = ((((pulseWidth * configuration.max_tr_duty * 100) / (configuration.max_tr
 312              		.loc 1 336 0 is_stmt 1
 313 000a 0F4B     		ldr	r3, .L45+4
 314 000c 6425     		movs	r5, #100
 315 000e 1C8C     		ldrh	r4, [r3, #32]
 316 0010 9E88     		ldrh	r6, [r3, #4]
 317 0012 4443     		muls	r4, r0, r4
 318 0014 6C43     		muls	r4, r5, r4
 319 0016 94FBF6F4 		sdiv	r4, r4, r6
 320 001a 6C43     		muls	r4, r5, r4
 321 001c 94FBF1F3 		sdiv	r3, r4, r1
ARM GAS  C:\Users\chemi\AppData\Local\Temp\ccbZzKkH.s 			page 13


 322              	.LVL22:
 337:..\common\ud3core/SignalGenerator.c ****     
 338:..\common\ud3core/SignalGenerator.c ****     
 339:..\common\ud3core/SignalGenerator.c ****     if(noiseOn) targetOt_us = ((targetOt_us * 3) >> 1);
 323              		.loc 1 339 0
 324 0020 12B1     		cbz	r2, .L39
 325 0022 03EB4303 		add	r3, r3, r3, lsl #1
 326              	.LVL23:
 327 0026 5B10     		asrs	r3, r3, #1
 328              	.LVL24:
 329              	.L39:
 340:..\common\ud3core/SignalGenerator.c ****     
 341:..\common\ud3core/SignalGenerator.c ****     if(targetOt_us < SigGen_minOt) targetOt_us = SigGen_minOt;
 330              		.loc 1 341 0
 331 0028 084A     		ldr	r2, .L45+8
 332              	.LVL25:
 342:..\common\ud3core/SignalGenerator.c ****     
 343:..\common\ud3core/SignalGenerator.c ****     //TODO perhaps start reducing this as we approach a very low volume?
 344:..\common\ud3core/SignalGenerator.c ****     
 345:..\common\ud3core/SignalGenerator.c ****     //would that exceed the maximum pw?
 346:..\common\ud3core/SignalGenerator.c ****     if(targetOt_us > configuration.max_tr_pw) targetOt_us = configuration.max_tr_pw;
 347:..\common\ud3core/SignalGenerator.c ****     
 348:..\common\ud3core/SignalGenerator.c ****     return targetOt_us;
 333              		.loc 1 348 0
 334 002a 3046     		mov	r0, r6
 335              	.LVL26:
 341:..\common\ud3core/SignalGenerator.c ****     
 336              		.loc 1 341 0
 337 002c 5169     		ldr	r1, [r2, #20]
 338              	.LVL27:
 339 002e 9942     		cmp	r1, r3
 340 0030 B8BF     		it	lt
 341 0032 1946     		movlt	r1, r3
 342              	.LVL28:
 343              		.loc 1 348 0
 344 0034 8E42     		cmp	r6, r1
 345 0036 A8BF     		it	ge
 346 0038 0846     		movge	r0, r1
 347              	.LVL29:
 348 003a 70BD     		pop	{r4, r5, r6, pc}
 349              	.LVL30:
 350              	.L40:
 351              	.LBE10:
 352              	.LBE9:
 311:..\common\ud3core/SignalGenerator.c ****     
 353              		.loc 1 311 0
 354 003c 0020     		movs	r0, #0
 355              	.LVL31:
 356 003e 70BD     		pop	{r4, r5, r6, pc}
 357              	.LVL32:
 358              	.L41:
 359 0040 0846     		mov	r0, r1
 360              	.LVL33:
 349:..\common\ud3core/SignalGenerator.c **** }
 361              		.loc 1 349 0
 362 0042 70BD     		pop	{r4, r5, r6, pc}
 363              	.L46:
ARM GAS  C:\Users\chemi\AppData\Local\Temp\ccbZzKkH.s 			page 14


 364              		.align	2
 365              	.L45:
 366 0044 400D0300 		.word	200000
 367 0048 00000000 		.word	configuration
 368 004c 00000000 		.word	.LANCHOR0
 369              		.cfi_endproc
 370              	.LFE76:
 371              		.size	getFixedDutyOntime, .-getFixedDutyOntime
 372              		.section	.text.SigGen_task,"ax",%progbits
 373              		.align	1
 374              		.thumb
 375              		.thumb_func
 376              		.type	SigGen_task, %function
 377              	SigGen_task:
 378              	.LFB88:
 350:..\common\ud3core/SignalGenerator.c **** 
 351:..\common\ud3core/SignalGenerator.c **** //wrappers for writing the voice configs from the different synthesizer modes
 352:..\common\ud3core/SignalGenerator.c **** void SigGen_setVoiceVMS(uint32_t voice, uint32_t enabled, int32_t pulseWidth, int32_t volume, int32
 353:..\common\ud3core/SignalGenerator.c ****     if(synthMode != SYNTH_MIDI) return;
 354:..\common\ud3core/SignalGenerator.c ****     
 355:..\common\ud3core/SignalGenerator.c ****     SigGen_setVoiceParams(voice, enabled, getFixedDutyOntime(pulseWidth, frequencyTenths, noiseAmpl
 356:..\common\ud3core/SignalGenerator.c **** }
 357:..\common\ud3core/SignalGenerator.c **** void SigGen_setHyperVoiceVMS(uint32_t voice, uint32_t count, uint32_t pulseWidth, uint32_t volume, 
 358:..\common\ud3core/SignalGenerator.c ****     if(synthMode != SYNTH_MIDI) return;
 359:..\common\ud3core/SignalGenerator.c ****     SigGen_setHyperVoiceParams(voice, count, getFixedDutyOntime(pulseWidth, taskData->voice[voice].
 360:..\common\ud3core/SignalGenerator.c **** }
 361:..\common\ud3core/SignalGenerator.c **** 
 362:..\common\ud3core/SignalGenerator.c **** void SigGen_setVoiceSID(uint32_t voice, uint32_t enabled, int32_t pulseWidth, int32_t volume, int32
 363:..\common\ud3core/SignalGenerator.c ****     if(synthMode != SYNTH_SID) return;
 364:..\common\ud3core/SignalGenerator.c ****     SigGen_setVoiceParams(voice, enabled, getFixedDutyOntime(pulseWidth, frequencyTenths, noiseAmpl
 365:..\common\ud3core/SignalGenerator.c **** }
 366:..\common\ud3core/SignalGenerator.c **** 
 367:..\common\ud3core/SignalGenerator.c **** void SigGen_setHyperVoiceSID(uint32_t voice, uint32_t count, uint32_t pulseWidth, uint32_t volume, 
 368:..\common\ud3core/SignalGenerator.c ****     if(synthMode != SYNTH_SID) return;
 369:..\common\ud3core/SignalGenerator.c ****     SigGen_setHyperVoiceParams(voice, count, getFixedDutyOntime(pulseWidth, taskData->voice[voice].
 370:..\common\ud3core/SignalGenerator.c **** }
 371:..\common\ud3core/SignalGenerator.c **** 
 372:..\common\ud3core/SignalGenerator.c **** void SigGen_setVoiceTR(uint32_t enabled, int32_t pulseWidth, int32_t volume, int32_t frequencyTenth
 373:..\common\ud3core/SignalGenerator.c ****     if(synthMode != SYNTH_TR) return;
 374:..\common\ud3core/SignalGenerator.c ****     
 375:..\common\ud3core/SignalGenerator.c ****     //TR mode always uses voice 0 without noise
 376:..\common\ud3core/SignalGenerator.c ****     SigGen_setVoiceParams(0, enabled, pulseWidth, volume, frequencyTenths, 0, burstOn_us, burstOff_
 377:..\common\ud3core/SignalGenerator.c **** }
 378:..\common\ud3core/SignalGenerator.c **** 
 379:..\common\ud3core/SignalGenerator.c **** void SigGen_limit(){
 380:..\common\ud3core/SignalGenerator.c ****     //get current dutycycle
 381:..\common\ud3core/SignalGenerator.c ****     uint32_t currDuty = SigGen_getCurrDuty();
 382:..\common\ud3core/SignalGenerator.c ****     
 383:..\common\ud3core/SignalGenerator.c ****     //get maximum dutycycle
 384:..\common\ud3core/SignalGenerator.c ****     uint32_t maxDuty = configuration.max_tr_duty / 10;
 385:..\common\ud3core/SignalGenerator.c ****     
 386:..\common\ud3core/SignalGenerator.c ****     uint32_t ontimeScale = MAX_VOL;
 387:..\common\ud3core/SignalGenerator.c ****     
 388:..\common\ud3core/SignalGenerator.c ****     //scale maxDuty with the hard limit override. Default maxDutyOffset=64 => maximum factor = 256/
 389:..\common\ud3core/SignalGenerator.c ****     //BUT only do so if we aren't in TR mode. If we are then the duty limit is a hard one
 390:..\common\ud3core/SignalGenerator.c ****     if(synthMode != SYNTH_TR && Comp_getMaxDutyOffset() != 64) maxDuty = (maxDuty * Comp_getMaxDuty
 391:..\common\ud3core/SignalGenerator.c ****     
ARM GAS  C:\Users\chemi\AppData\Local\Temp\ccbZzKkH.s 			page 15


 392:..\common\ud3core/SignalGenerator.c ****     //make sure the value isn't too high
 393:..\common\ud3core/SignalGenerator.c ****     if(maxDuty > 99) maxDuty = 99;
 394:..\common\ud3core/SignalGenerator.c ****     
 395:..\common\ud3core/SignalGenerator.c ****     /* about the scaling (I admit this is weird):
 396:..\common\ud3core/SignalGenerator.c ****      * 
 397:..\common\ud3core/SignalGenerator.c ****      * The Dutycycle is a number between 0 and 1 that indicates for how long a signal is on in rela
 398:..\common\ud3core/SignalGenerator.c ****      * 
 399:..\common\ud3core/SignalGenerator.c ****      * In this code however the config parameters as well as the return from SigGen_getCurrDuty() i
 400:..\common\ud3core/SignalGenerator.c ****      * Earlier versions of the code also had some weirdness with the units. The Frequency in the fu
 401:..\common\ud3core/SignalGenerator.c ****      * 
 402:..\common\ud3core/SignalGenerator.c ****      * This version now also corrects the microsecond error so the values returned are all in even 
 403:..\common\ud3core/SignalGenerator.c ****      */
 404:..\common\ud3core/SignalGenerator.c ****     
 405:..\common\ud3core/SignalGenerator.c ****     //do we need to reduce the ontime of all of the notes?
 406:..\common\ud3core/SignalGenerator.c ****     if(currDuty > maxDuty){
 407:..\common\ud3core/SignalGenerator.c ****         //yes! Reduce the scaling factor
 408:..\common\ud3core/SignalGenerator.c ****         
 409:..\common\ud3core/SignalGenerator.c ****         ontimeScale = (maxDuty * MAX_VOL) / currDuty;
 410:..\common\ud3core/SignalGenerator.c ****     }else{
 411:..\common\ud3core/SignalGenerator.c ****         //TODO perhaps add duty limiter active flag?
 412:..\common\ud3core/SignalGenerator.c ****     }
 413:..\common\ud3core/SignalGenerator.c ****     
 414:..\common\ud3core/SignalGenerator.c ****     //reset active voice count
 415:..\common\ud3core/SignalGenerator.c ****     tt.n.midi_voices.value = 0;
 416:..\common\ud3core/SignalGenerator.c ****     
 417:..\common\ud3core/SignalGenerator.c ****     //TODO evaluate if this is thread safe, if not make it so (as requested by the captain)
 418:..\common\ud3core/SignalGenerator.c ****     for(uint32_t currVoice = 0; currVoice < SIGGEN_VOICECOUNT; currVoice++){
 419:..\common\ud3core/SignalGenerator.c ****         //if a voice is disabled we don't need to change anything
 420:..\common\ud3core/SignalGenerator.c ****         if(!taskData->voice[currVoice].enabled){ 
 421:..\common\ud3core/SignalGenerator.c ****             taskData->voice[currVoice].limitedEnabled = 0;
 422:..\common\ud3core/SignalGenerator.c ****             continue;
 423:..\common\ud3core/SignalGenerator.c ****         }
 424:..\common\ud3core/SignalGenerator.c ****         
 425:..\common\ud3core/SignalGenerator.c ****         //linearly scale the ontime down
 426:..\common\ud3core/SignalGenerator.c ****         uint32_t onTime = taskData->voice[currVoice].pulseWidth_us;
 427:..\common\ud3core/SignalGenerator.c ****         onTime = (onTime * ontimeScale) >> 15;
 428:..\common\ud3core/SignalGenerator.c ****         if(Comp_getGain() != COMP_UNITYGAIN) onTime = (onTime * Comp_getGain()) >> 15;
 429:..\common\ud3core/SignalGenerator.c ****         taskData->voice[currVoice].limitedPulseWidth_us = onTime;
 430:..\common\ud3core/SignalGenerator.c ****         taskData->voice[currVoice].limitedPeriod = taskData->voice[currVoice].period;
 431:..\common\ud3core/SignalGenerator.c ****         
 432:..\common\ud3core/SignalGenerator.c ****         //make sure to reset the counter to prevent a previously played lower note from slowing dow
 433:..\common\ud3core/SignalGenerator.c ****         if(taskData->voice[currVoice].counter > taskData->voice[currVoice].limitedPeriod) taskData-
 434:..\common\ud3core/SignalGenerator.c ****         
 435:..\common\ud3core/SignalGenerator.c ****         //is HPV enabled? if so we need to scale that too
 436:..\common\ud3core/SignalGenerator.c ****         if(taskData->voice[currVoice].hpvCount != 0 && taskData->voice[currVoice].noiseAmplitude ==
 437:..\common\ud3core/SignalGenerator.c ****             onTime = taskData->voice[currVoice].hpvPulseWidth_us;
 438:..\common\ud3core/SignalGenerator.c ****             onTime = (onTime * ontimeScale) >> 15;
 439:..\common\ud3core/SignalGenerator.c ****             if(Comp_getGain() != COMP_UNITYGAIN) onTime = (onTime * Comp_getGain()) >> 15;
 440:..\common\ud3core/SignalGenerator.c ****             taskData->voice[currVoice].limitedHpvPulseWidth_us = onTime;
 441:..\common\ud3core/SignalGenerator.c ****             
 442:..\common\ud3core/SignalGenerator.c ****             taskData->voice[currVoice].limitedHpvCount = taskData->voice[currVoice].hpvCount;
 443:..\common\ud3core/SignalGenerator.c ****         }else{
 444:..\common\ud3core/SignalGenerator.c ****             taskData->voice[currVoice].limitedHpvPulseWidth_us = 0;
 445:..\common\ud3core/SignalGenerator.c ****         }
 446:..\common\ud3core/SignalGenerator.c ****         
 447:..\common\ud3core/SignalGenerator.c ****         taskData->voice[currVoice].limitedEnabled = taskData->voice[currVoice].enabled;
 448:..\common\ud3core/SignalGenerator.c ****         
ARM GAS  C:\Users\chemi\AppData\Local\Temp\ccbZzKkH.s 			page 16


 449:..\common\ud3core/SignalGenerator.c ****         //at this point the voice must be on => increment voice count
 450:..\common\ud3core/SignalGenerator.c ****         tt.n.midi_voices.value ++;
 451:..\common\ud3core/SignalGenerator.c ****     }
 452:..\common\ud3core/SignalGenerator.c **** }
 453:..\common\ud3core/SignalGenerator.c **** 
 454:..\common\ud3core/SignalGenerator.c **** void SigGen_switchSynthMode(uint8_t newMode){
 455:..\common\ud3core/SignalGenerator.c ****     //kill output when changing synth mode
 456:..\common\ud3core/SignalGenerator.c ****     SigGen_killAudio();
 457:..\common\ud3core/SignalGenerator.c ****     
 458:..\common\ud3core/SignalGenerator.c ****     //set new mode
 459:..\common\ud3core/SignalGenerator.c ****     synthMode = newMode;
 460:..\common\ud3core/SignalGenerator.c ****     
 461:..\common\ud3core/SignalGenerator.c ****     //what state are we changing to? TODO figure out is we actually need to change anything here :D
 462:..\common\ud3core/SignalGenerator.c ****     switch(newMode){
 463:..\common\ud3core/SignalGenerator.c ****         case SYNTH_MIDI:
 464:..\common\ud3core/SignalGenerator.c ****             
 465:..\common\ud3core/SignalGenerator.c ****             break;
 466:..\common\ud3core/SignalGenerator.c ****         case SYNTH_SID:
 467:..\common\ud3core/SignalGenerator.c ****         
 468:..\common\ud3core/SignalGenerator.c ****             break;
 469:..\common\ud3core/SignalGenerator.c ****         case SYNTH_MIDI_QCW:
 470:..\common\ud3core/SignalGenerator.c ****         case SYNTH_SID_QCW:
 471:..\common\ud3core/SignalGenerator.c ****         
 472:..\common\ud3core/SignalGenerator.c ****             //TODO implement this... for now we just assume state was set to "off"
 473:..\common\ud3core/SignalGenerator.c ****         
 474:..\common\ud3core/SignalGenerator.c ****         case SYNTH_OFF:
 475:..\common\ud3core/SignalGenerator.c ****         
 476:..\common\ud3core/SignalGenerator.c ****             break;
 477:..\common\ud3core/SignalGenerator.c ****         case SYNTH_TR:
 478:..\common\ud3core/SignalGenerator.c ****         
 479:..\common\ud3core/SignalGenerator.c ****             break;
 480:..\common\ud3core/SignalGenerator.c ****     }
 481:..\common\ud3core/SignalGenerator.c **** }
 482:..\common\ud3core/SignalGenerator.c **** 
 483:..\common\ud3core/SignalGenerator.c **** void SigGen_setMasterVol(uint32_t newVolume){
 484:..\common\ud3core/SignalGenerator.c ****     if(newVolume > MAX_VOL) return;
 485:..\common\ud3core/SignalGenerator.c ****     masterVolume = newVolume;
 486:..\common\ud3core/SignalGenerator.c ****     
 487:..\common\ud3core/SignalGenerator.c ****     //did we just get muted?
 488:..\common\ud3core/SignalGenerator.c ****     if(masterVolume > 0){
 489:..\common\ud3core/SignalGenerator.c ****         //no => update all voices
 490:..\common\ud3core/SignalGenerator.c ****         for(uint32_t i = 0; i < SIGGEN_VOICECOUNT; i++){
 491:..\common\ud3core/SignalGenerator.c ****             taskData->voice[i].hpvVolume = (taskData->voice[i].initialHpvVolume * masterVolume) >> 
 492:..\common\ud3core/SignalGenerator.c ****             taskData->voice[i].pulseVolume = (taskData->voice[i].initialPulseVolume * masterVolume)
 493:..\common\ud3core/SignalGenerator.c ****         }
 494:..\common\ud3core/SignalGenerator.c ****         SigGen_setOutputEnabled(1);
 495:..\common\ud3core/SignalGenerator.c ****     }else{
 496:..\common\ud3core/SignalGenerator.c ****         //yes => pause generation
 497:..\common\ud3core/SignalGenerator.c ****         SigGen_setOutputEnabled(0);
 498:..\common\ud3core/SignalGenerator.c ****     }
 499:..\common\ud3core/SignalGenerator.c **** }
 500:..\common\ud3core/SignalGenerator.c **** 
 501:..\common\ud3core/SignalGenerator.c **** void SigGen_setOutputEnabled(uint32_t en){
 502:..\common\ud3core/SignalGenerator.c **** 	isEnabled = en;
 503:..\common\ud3core/SignalGenerator.c **** 	if(!en) SigGen_killAudio();
 504:..\common\ud3core/SignalGenerator.c **** }
 505:..\common\ud3core/SignalGenerator.c **** 
ARM GAS  C:\Users\chemi\AppData\Local\Temp\ccbZzKkH.s 			page 17


 506:..\common\ud3core/SignalGenerator.c **** void SigGen_killAudio(){
 507:..\common\ud3core/SignalGenerator.c ****     // This can only happen during UD3 startup
 508:..\common\ud3core/SignalGenerator.c ****     if (!taskData) { return; }
 509:..\common\ud3core/SignalGenerator.c ****     //TODO evaluate if this is actually thread safe
 510:..\common\ud3core/SignalGenerator.c ****     
 511:..\common\ud3core/SignalGenerator.c **** 	//disable all voices
 512:..\common\ud3core/SignalGenerator.c ****     for(uint32_t currVoice = 0; currVoice < SIGGEN_VOICECOUNT; currVoice++){
 513:..\common\ud3core/SignalGenerator.c ****         taskData->voice[currVoice].enabled = 0;
 514:..\common\ud3core/SignalGenerator.c ****         taskData->voice[currVoice].limitedEnabled = 0;
 515:..\common\ud3core/SignalGenerator.c ****         taskData->voice[currVoice].hpvCount = 0;
 516:..\common\ud3core/SignalGenerator.c ****         taskData->voice[currVoice].limitedHpvCount = 0;
 517:..\common\ud3core/SignalGenerator.c ****     }
 518:..\common\ud3core/SignalGenerator.c ****     
 519:..\common\ud3core/SignalGenerator.c ****     //kill the timer
 520:..\common\ud3core/SignalGenerator.c ****     SigGen_stopTimer();
 521:..\common\ud3core/SignalGenerator.c ****     
 522:..\common\ud3core/SignalGenerator.c ****     //reset the buffer, which must be done with the timer interrupt disabled to prevent intereferen
 523:..\common\ud3core/SignalGenerator.c ****     SigGen_disableTimerISR();
 524:..\common\ud3core/SignalGenerator.c ****     RingBuffer_flush(taskData->pulseBuffer);
 525:..\common\ud3core/SignalGenerator.c ****     taskData->bufferLengthInCounts = 0;
 526:..\common\ud3core/SignalGenerator.c ****     SigGen_enableTimerISR();
 527:..\common\ud3core/SignalGenerator.c ****     
 528:..\common\ud3core/SignalGenerator.c ****     tt.n.midi_voices.value = 0;
 529:..\common\ud3core/SignalGenerator.c **** }
 530:..\common\ud3core/SignalGenerator.c **** 
 531:..\common\ud3core/SignalGenerator.c **** volatile uint32_t adding = 0;
 532:..\common\ud3core/SignalGenerator.c **** 
 533:..\common\ud3core/SignalGenerator.c **** SigGen_pulseData_t currPulse;
 534:..\common\ud3core/SignalGenerator.c ****     
 535:..\common\ud3core/SignalGenerator.c **** volatile uint32_t compDebug = 0;
 536:..\common\ud3core/SignalGenerator.c **** 
 537:..\common\ud3core/SignalGenerator.c **** static void SigGen_overlayPulse(SigGen_pulseData_t * pulse, int32_t newVolume, int32_t newOntime){
 538:..\common\ud3core/SignalGenerator.c ****     //a pulse was triggered and we need to decide how to overlay it with any potentially already tr
 539:..\common\ud3core/SignalGenerator.c ****     
 540:..\common\ud3core/SignalGenerator.c ****     //ways in which we can scale this:
 541:..\common\ud3core/SignalGenerator.c ****     /*
 542:..\common\ud3core/SignalGenerator.c ****         
 543:..\common\ud3core/SignalGenerator.c ****         Ontime:
 544:..\common\ud3core/SignalGenerator.c ****             Highest
 545:..\common\ud3core/SignalGenerator.c ****             Lowest
 546:..\common\ud3core/SignalGenerator.c ****             Sum
 547:..\common\ud3core/SignalGenerator.c ****             Average
 548:..\common\ud3core/SignalGenerator.c ****             ->Loudest pulse
 549:..\common\ud3core/SignalGenerator.c ****             Quitest pulse
 550:..\common\ud3core/SignalGenerator.c ****             
 551:..\common\ud3core/SignalGenerator.c ****             
 552:..\common\ud3core/SignalGenerator.c ****         Volume:
 553:..\common\ud3core/SignalGenerator.c ****             Highest
 554:..\common\ud3core/SignalGenerator.c ****             Lowest
 555:..\common\ud3core/SignalGenerator.c ****             Sum
 556:..\common\ud3core/SignalGenerator.c ****             Average
 557:..\common\ud3core/SignalGenerator.c ****             ->Loudest pulse
 558:..\common\ud3core/SignalGenerator.c ****             Quitest pulse
 559:..\common\ud3core/SignalGenerator.c ****     
 560:..\common\ud3core/SignalGenerator.c ****     
 561:..\common\ud3core/SignalGenerator.c ****     */
 562:..\common\ud3core/SignalGenerator.c ****     
ARM GAS  C:\Users\chemi\AppData\Local\Temp\ccbZzKkH.s 			page 18


 563:..\common\ud3core/SignalGenerator.c ****     
 564:..\common\ud3core/SignalGenerator.c ****     if(newOntime > pulse->onTime) pulse->onTime = newOntime;
 565:..\common\ud3core/SignalGenerator.c ****     
 566:..\common\ud3core/SignalGenerator.c ****     pulse->current += newVolume;
 567:..\common\ud3core/SignalGenerator.c ****     
 568:..\common\ud3core/SignalGenerator.c ****     /*if(newVolume > pulse->current){
 569:..\common\ud3core/SignalGenerator.c ****         pulse->onTime = newOntime; //if(pulseWidth < data->voice[currVoice].limitedPulseWidth_us)
 570:..\common\ud3core/SignalGenerator.c ****         pulse->current = newVolume;
 571:..\common\ud3core/SignalGenerator.c ****     }*/
 572:..\common\ud3core/SignalGenerator.c **** }
 573:..\common\ud3core/SignalGenerator.c ****     
 574:..\common\ud3core/SignalGenerator.c **** static void SigGen_task(void * callData){
 379              		.loc 1 574 0
 380              		.cfi_startproc
 381              		@ args = 0, pretend = 0, frame = 40
 382              		@ frame_needed = 0, uses_anonymous_args = 0
 383              	.LVL34:
 384 0000 2DE9F04F 		push	{r4, r5, r6, r7, r8, r9, r10, fp, lr}
 385              		.cfi_def_cfa_offset 36
 386              		.cfi_offset 4, -36
 387              		.cfi_offset 5, -32
 388              		.cfi_offset 6, -28
 389              		.cfi_offset 7, -24
 390              		.cfi_offset 8, -20
 391              		.cfi_offset 9, -16
 392              		.cfi_offset 10, -12
 393              		.cfi_offset 11, -8
 394              		.cfi_offset 14, -4
 395 0004 0446     		mov	r4, r0
 396              	.LVL35:
 575:..\common\ud3core/SignalGenerator.c ****     volatile SigGen_taskData_t * data = (SigGen_taskData_t *) callData;
 576:..\common\ud3core/SignalGenerator.c ****     
 577:..\common\ud3core/SignalGenerator.c ****     currPulse.onTime = 0;
 397              		.loc 1 577 0
 398 0006 A54B     		ldr	r3, .L159
 399 0008 0022     		movs	r2, #0
 400 000a 5A60     		str	r2, [r3, #4]
 574:..\common\ud3core/SignalGenerator.c ****     volatile SigGen_taskData_t * data = (SigGen_taskData_t *) callData;
 401              		.loc 1 574 0
 402 000c 8BB0     		sub	sp, sp, #44
 403              		.cfi_def_cfa_offset 80
 578:..\common\ud3core/SignalGenerator.c ****     currPulse.period = 0xf;
 404              		.loc 1 578 0
 405 000e 0F22     		movs	r2, #15
 406 0010 DFF890B2 		ldr	fp, .L159+8
 407 0014 1A60     		str	r2, [r3]
 408 0016 0093     		str	r3, [sp]
 409              	.LVL36:
 410              	.L48:
 579:..\common\ud3core/SignalGenerator.c ****     
 580:..\common\ud3core/SignalGenerator.c ****     while(1){
 581:..\common\ud3core/SignalGenerator.c ****         vTaskDelay(1);
 411              		.loc 1 581 0
 412 0018 0120     		movs	r0, #1
 413 001a FFF7FEFF 		bl	vTaskDelay
 414              	.LVL37:
 582:..\common\ud3core/SignalGenerator.c ****         //uint32_t noVoicesEnabled = 1;
ARM GAS  C:\Users\chemi\AppData\Local\Temp\ccbZzKkH.s 			page 19


 583:..\common\ud3core/SignalGenerator.c **** 		
 584:..\common\ud3core/SignalGenerator.c **** 		if(!isEnabled) continue;
 415              		.loc 1 584 0
 416 001e A04B     		ldr	r3, .L159+4
 417 0020 5B68     		ldr	r3, [r3, #4]
 418 0022 002B     		cmp	r3, #0
 419 0024 F8D0     		beq	.L48
 420              	.L49:
 585:..\common\ud3core/SignalGenerator.c ****               
 586:..\common\ud3core/SignalGenerator.c ****         //check if the buffer is running low
 587:..\common\ud3core/SignalGenerator.c ****         while(data->bufferLengthInCounts < SIGGEN_MS_TO_PERIOD_COUNT(1)){
 421              		.loc 1 587 0
 422 0026 D4F87032 		ldr	r3, [r4, #624]
 423 002a B3F5FA4F 		cmp	r3, #32000
 424 002e 6EDA     		bge	.L103
 425              	.LVL38:
 426              	.LBB26:
 588:..\common\ud3core/SignalGenerator.c ****         
 589:..\common\ud3core/SignalGenerator.c ****             //calculate time from current pulse to next pulse
 590:..\common\ud3core/SignalGenerator.c ****         
 591:..\common\ud3core/SignalGenerator.c ****             //find next pulse to be triggered
 592:..\common\ud3core/SignalGenerator.c ****             int32_t nextVoice = 0xffff;
 427              		.loc 1 592 0
 428 0030 4FF6FF78 		movw	r8, #65535
 593:..\common\ud3core/SignalGenerator.c ****             SigGen_pulseData_t nextPulse = {.current = 0, . onTime = 0, .period = INT_MAX};
 429              		.loc 1 593 0
 430 0034 6FF00043 		mvn	r3, #-2147483648
 431 0038 0793     		str	r3, [sp, #28]
 432 003a 0023     		movs	r3, #0
 433 003c 0893     		str	r3, [sp, #32]
 434 003e 04AD     		add	r5, sp, #16
 435 0040 0993     		str	r3, [sp, #36]
 436 0042 0AAA     		add	r2, sp, #40
 437 0044 12E90700 		ldmdb	r2, {r0, r1, r2}
 438              	.LBB27:
 594:..\common\ud3core/SignalGenerator.c ****             
 595:..\common\ud3core/SignalGenerator.c ****             for(uint32_t currVoice = 0; currVoice < SIGGEN_VOICECOUNT; currVoice++){
 596:..\common\ud3core/SignalGenerator.c ****                 //if we are in TR mode then only voice 1 is active and all others can be ignored
 597:..\common\ud3core/SignalGenerator.c ****                 if(synthMode == SYNTH_TR && currVoice >= 1) break;
 598:..\common\ud3core/SignalGenerator.c **** 
 599:..\common\ud3core/SignalGenerator.c ****                 //if no other enabled voice was found so far, then the current one is the one with 
 600:..\common\ud3core/SignalGenerator.c ****                 if(nextVoice == 0xffff){
 439              		.loc 1 600 0
 440 0048 4746     		mov	r7, r8
 441              	.LBE27:
 593:..\common\ud3core/SignalGenerator.c ****             SigGen_pulseData_t nextPulse = {.current = 0, . onTime = 0, .period = INT_MAX};
 442              		.loc 1 593 0
 443 004a 85E80700 		stmia	r5, {r0, r1, r2}
 444              	.LVL39:
 445              	.LBB28:
 601:..\common\ud3core/SignalGenerator.c ****                     if(data->voice[currVoice].limitedEnabled && data->voice[currVoice].limitedPulse
 602:..\common\ud3core/SignalGenerator.c ****                         nextVoice = currVoice;
 603:..\common\ud3core/SignalGenerator.c ****                         
 604:..\common\ud3core/SignalGenerator.c ****                         //will the next pulse be a hypervoice pulse or not?
 605:..\common\ud3core/SignalGenerator.c ****                         if(data->voice[currVoice].currHPVDivider == 0 && data->voice[currVoice].cur
 606:..\common\ud3core/SignalGenerator.c ****                             //yes, set the timeToNextPulse to the hpv counter
 607:..\common\ud3core/SignalGenerator.c ****                             nextPulse.period = data->voice[currVoice].currHPVCounter;
ARM GAS  C:\Users\chemi\AppData\Local\Temp\ccbZzKkH.s 			page 20


 608:..\common\ud3core/SignalGenerator.c ****                         }else{
 609:..\common\ud3core/SignalGenerator.c ****                             //no set it to the normal counter
 610:..\common\ud3core/SignalGenerator.c ****                             nextPulse.period = data->voice[currVoice].counter;
 611:..\common\ud3core/SignalGenerator.c ****                         }
 612:..\common\ud3core/SignalGenerator.c ****                     }
 613:..\common\ud3core/SignalGenerator.c **** 
 614:..\common\ud3core/SignalGenerator.c ****                 //is the current voice's timer expiring sooner than that of the current nextVoice? 
 615:..\common\ud3core/SignalGenerator.c ****                 }else{
 616:..\common\ud3core/SignalGenerator.c ****                     if(data->voice[currVoice].limitedEnabled && data->voice[currVoice].limitedPulse
 617:..\common\ud3core/SignalGenerator.c ****                         if((data->voice[currVoice].counter < nextPulse.period) || (data->voice[curr
 618:..\common\ud3core/SignalGenerator.c ****                             nextVoice = currVoice;
 619:..\common\ud3core/SignalGenerator.c **** 
 620:..\common\ud3core/SignalGenerator.c ****                             //will the next pulse be a hypervoice pulse or not?
 621:..\common\ud3core/SignalGenerator.c ****                             if(data->voice[currVoice].currHPVDivider == 0 && data->voice[currVoice]
 622:..\common\ud3core/SignalGenerator.c ****                                 //yes, set the timeToNextPulse to the hpv counter
 623:..\common\ud3core/SignalGenerator.c ****                                 nextPulse.period = data->voice[currVoice].currHPVCounter;
 624:..\common\ud3core/SignalGenerator.c ****                             }else{
 625:..\common\ud3core/SignalGenerator.c ****                                 //no set it to the normal counter
 626:..\common\ud3core/SignalGenerator.c ****                                 nextPulse.period = data->voice[currVoice].counter;
 627:..\common\ud3core/SignalGenerator.c ****                             }
 628:..\common\ud3core/SignalGenerator.c ****                         }
 629:..\common\ud3core/SignalGenerator.c ****                     }
 630:..\common\ud3core/SignalGenerator.c ****                 }
 631:..\common\ud3core/SignalGenerator.c ****                 
 632:..\common\ud3core/SignalGenerator.c ****                 //we also need to reset the alreadyTriggered flag for later
 633:..\common\ud3core/SignalGenerator.c ****                 data->voice[currVoice].alreadyTriggered = 0;
 446              		.loc 1 633 0
 447 004e 1D46     		mov	r5, r3
 597:..\common\ud3core/SignalGenerator.c **** 
 448              		.loc 1 597 0
 449 0050 944A     		ldr	r2, .L159+8
 450 0052 167C     		ldrb	r6, [r2, #16]	@ zero_extendqisi2
 451 0054 6822     		movs	r2, #104
 452              	.LVL40:
 453              	.L57:
 454 0056 032E     		cmp	r6, #3
 455 0058 01D1     		bne	.L50
 597:..\common\ud3core/SignalGenerator.c **** 
 456              		.loc 1 597 0 is_stmt 0 discriminator 1
 457 005a 002B     		cmp	r3, #0
 458 005c 53D1     		bne	.L51
 459              	.L50:
 600:..\common\ud3core/SignalGenerator.c ****                     if(data->voice[currVoice].limitedEnabled && data->voice[currVoice].limitedPulse
 460              		.loc 1 600 0 is_stmt 1
 461 005e B845     		cmp	r8, r7
 462 0060 1CD1     		bne	.L52
 601:..\common\ud3core/SignalGenerator.c ****                     if(data->voice[currVoice].limitedEnabled && data->voice[currVoice].limitedPulse
 463              		.loc 1 601 0
 464 0062 02FB03F0 		mul	r0, r2, r3
 465 0066 2118     		adds	r1, r4, r0
 466 0068 D1F82CE0 		ldr	lr, [r1, #44]
 467 006c BEF1000F 		cmp	lr, #0
 468 0070 43D0     		beq	.L53
 601:..\common\ud3core/SignalGenerator.c ****                     if(data->voice[currVoice].limitedEnabled && data->voice[currVoice].limitedPulse
 469              		.loc 1 601 0 is_stmt 0 discriminator 1
 470 0072 D1F854E0 		ldr	lr, [r1, #84]
 471 0076 BEF1000F 		cmp	lr, #0
ARM GAS  C:\Users\chemi\AppData\Local\Temp\ccbZzKkH.s 			page 21


 472 007a 3ED0     		beq	.L53
 605:..\common\ud3core/SignalGenerator.c ****                             //yes, set the timeToNextPulse to the hpv counter
 473              		.loc 1 605 0 is_stmt 1
 474 007c D1F80CE0 		ldr	lr, [r1, #12]
 602:..\common\ud3core/SignalGenerator.c ****                         
 475              		.loc 1 602 0
 476 0080 9846     		mov	r8, r3
 477              	.LVL41:
 605:..\common\ud3core/SignalGenerator.c ****                             //yes, set the timeToNextPulse to the hpv counter
 478              		.loc 1 605 0
 479 0082 BEF1000F 		cmp	lr, #0
 480 0086 06D1     		bne	.L54
 481              	.LVL42:
 605:..\common\ud3core/SignalGenerator.c ****                             //yes, set the timeToNextPulse to the hpv counter
 482              		.loc 1 605 0 is_stmt 0 discriminator 1
 483 0088 D1F808E0 		ldr	lr, [r1, #8]
 484 008c 2058     		ldr	r0, [r4, r0]
 485 008e 8645     		cmp	lr, r0
 486 0090 01DA     		bge	.L54
 607:..\common\ud3core/SignalGenerator.c ****                         }else{
 487              		.loc 1 607 0 is_stmt 1
 488 0092 8968     		ldr	r1, [r1, #8]
 489 0094 30E0     		b	.L155
 490              	.L54:
 610:..\common\ud3core/SignalGenerator.c ****                         }
 491              		.loc 1 610 0
 492 0096 02FB03F1 		mul	r1, r2, r3
 493 009a 2CE0     		b	.L56
 494              	.LVL43:
 495              	.L52:
 616:..\common\ud3core/SignalGenerator.c ****                         if((data->voice[currVoice].counter < nextPulse.period) || (data->voice[curr
 496              		.loc 1 616 0
 497 009c 02FB03F1 		mul	r1, r2, r3
 498 00a0 6018     		adds	r0, r4, r1
 499 00a2 D0F82CE0 		ldr	lr, [r0, #44]
 500 00a6 BEF1000F 		cmp	lr, #0
 501 00aa 26D0     		beq	.L53
 616:..\common\ud3core/SignalGenerator.c ****                         if((data->voice[currVoice].counter < nextPulse.period) || (data->voice[curr
 502              		.loc 1 616 0 is_stmt 0 discriminator 1
 503 00ac D0F854E0 		ldr	lr, [r0, #84]
 504 00b0 BEF1000F 		cmp	lr, #0
 505 00b4 21D0     		beq	.L53
 617:..\common\ud3core/SignalGenerator.c ****                             nextVoice = currVoice;
 506              		.loc 1 617 0 is_stmt 1
 507 00b6 54F801C0 		ldr	ip, [r4, r1]
 508 00ba DDF810E0 		ldr	lr, [sp, #16]
 509 00be F445     		cmp	ip, lr
 510 00c0 09DB     		blt	.L55
 617:..\common\ud3core/SignalGenerator.c ****                             nextVoice = currVoice;
 511              		.loc 1 617 0 is_stmt 0 discriminator 1
 512 00c2 D0F80CE0 		ldr	lr, [r0, #12]
 513 00c6 BEF1000F 		cmp	lr, #0
 514 00ca 16D1     		bne	.L53
 617:..\common\ud3core/SignalGenerator.c ****                             nextVoice = currVoice;
 515              		.loc 1 617 0 discriminator 2
 516 00cc D0F808E0 		ldr	lr, [r0, #8]
 517 00d0 0498     		ldr	r0, [sp, #16]
ARM GAS  C:\Users\chemi\AppData\Local\Temp\ccbZzKkH.s 			page 22


 518 00d2 8645     		cmp	lr, r0
 519 00d4 11DA     		bge	.L53
 520              	.L55:
 621:..\common\ud3core/SignalGenerator.c ****                                 //yes, set the timeToNextPulse to the hpv counter
 521              		.loc 1 621 0 is_stmt 1
 522 00d6 02FB0340 		mla	r0, r2, r3, r4
 523 00da D0F80CE0 		ldr	lr, [r0, #12]
 618:..\common\ud3core/SignalGenerator.c **** 
 524              		.loc 1 618 0
 525 00de 9846     		mov	r8, r3
 526              	.LVL44:
 621:..\common\ud3core/SignalGenerator.c ****                                 //yes, set the timeToNextPulse to the hpv counter
 527              		.loc 1 621 0
 528 00e0 BEF1000F 		cmp	lr, #0
 529 00e4 07D1     		bne	.L56
 530              	.LVL45:
 621:..\common\ud3core/SignalGenerator.c ****                                 //yes, set the timeToNextPulse to the hpv counter
 531              		.loc 1 621 0 is_stmt 0 discriminator 1
 532 00e6 D0F808C0 		ldr	ip, [r0, #8]
 533 00ea 54F801E0 		ldr	lr, [r4, r1]
 534 00ee F445     		cmp	ip, lr
 535 00f0 01DA     		bge	.L56
 623:..\common\ud3core/SignalGenerator.c ****                             }else{
 536              		.loc 1 623 0 is_stmt 1
 537 00f2 8168     		ldr	r1, [r0, #8]
 538 00f4 00E0     		b	.L155
 539              	.L56:
 626:..\common\ud3core/SignalGenerator.c ****                             }
 540              		.loc 1 626 0
 541 00f6 6158     		ldr	r1, [r4, r1]
 542              	.L155:
 543 00f8 0491     		str	r1, [sp, #16]
 544              	.LVL46:
 545              	.L53:
 546              		.loc 1 633 0 discriminator 2
 547 00fa 02FB0341 		mla	r1, r2, r3, r4
 595:..\common\ud3core/SignalGenerator.c ****                 //if we are in TR mode then only voice 1 is active and all others can be ignored
 548              		.loc 1 595 0 discriminator 2
 549 00fe 0133     		adds	r3, r3, #1
 550              	.LVL47:
 551 0100 062B     		cmp	r3, #6
 552              		.loc 1 633 0 discriminator 2
 553 0102 4D63     		str	r5, [r1, #52]
 595:..\common\ud3core/SignalGenerator.c ****                 //if we are in TR mode then only voice 1 is active and all others can be ignored
 554              		.loc 1 595 0 discriminator 2
 555 0104 A7D1     		bne	.L57
 556              	.L51:
 557              	.LBE28:
 634:..\common\ud3core/SignalGenerator.c ****             }
 635:..\common\ud3core/SignalGenerator.c ****             
 636:..\common\ud3core/SignalGenerator.c ****             if(nextVoice == 0xffff){ 
 558              		.loc 1 636 0
 559 0106 4FF6FF73 		movw	r3, #65535
 560              	.LVL48:
 561 010a 9845     		cmp	r8, r3
 562 010c 05D1     		bne	.L58
 563              	.LVL49:
ARM GAS  C:\Users\chemi\AppData\Local\Temp\ccbZzKkH.s 			page 23


 564              	.L103:
 565              	.LBE26:
 637:..\common\ud3core/SignalGenerator.c ****                 //if no voice is enabled we can just break out of the loop as no more data can be g
 638:..\common\ud3core/SignalGenerator.c ****                 break;
 639:..\common\ud3core/SignalGenerator.c ****             }
 640:..\common\ud3core/SignalGenerator.c ****             
 641:..\common\ud3core/SignalGenerator.c ****             //figure out how long the maximum delay we can add to the buffer without it becoming la
 642:..\common\ud3core/SignalGenerator.c ****             int32_t maxPeriod_us = SIGGEN_PERIOD_COUNT_TO_US(((SIGGEN_MS_TO_PERIOD_COUNT(SIGGEN_LON
 643:..\common\ud3core/SignalGenerator.c ****             
 644:..\common\ud3core/SignalGenerator.c ****             //is the time longer? If so just limit it to the maximum
 645:..\common\ud3core/SignalGenerator.c ****             //if we do this then no voice will trigger a pulse and all pulse parameters will remain
 646:..\common\ud3core/SignalGenerator.c ****             //the timer interrupt will check for this and ignore the pulse as if it was one that ha
 647:..\common\ud3core/SignalGenerator.c ****             if(nextPulse.period > maxPeriod_us) nextPulse.period = maxPeriod_us;
 648:..\common\ud3core/SignalGenerator.c ****             
 649:..\common\ud3core/SignalGenerator.c ****             //noVoicesEnabled = 0;
 650:..\common\ud3core/SignalGenerator.c **** 
 651:..\common\ud3core/SignalGenerator.c ****             //now the voice of which the timer expires next is indexed by nextVoice, propagate the 
 652:..\common\ud3core/SignalGenerator.c ****             for(uint32_t currVoice = 0; currVoice < SIGGEN_VOICECOUNT; currVoice++){
 653:..\common\ud3core/SignalGenerator.c ****                 //if we are in TR mode then only voice 1 is active and all others can be ignored
 654:..\common\ud3core/SignalGenerator.c ****                 if(synthMode == SYNTH_TR && currVoice >= 1) break;
 655:..\common\ud3core/SignalGenerator.c ****                 
 656:..\common\ud3core/SignalGenerator.c ****                 if(data->voice[currVoice].limitedEnabled){ 
 657:..\common\ud3core/SignalGenerator.c ****                     //decrement frequency timer
 658:..\common\ud3core/SignalGenerator.c ****                     data->voice[currVoice].counter -= nextPulse.period;
 659:..\common\ud3core/SignalGenerator.c ****                     
 660:..\common\ud3core/SignalGenerator.c ****                     //decrement burst timer if burst is active
 661:..\common\ud3core/SignalGenerator.c ****                     if(data->voice[currVoice].burstPeriod != 0) data->voice[currVoice].burstCounter
 662:..\common\ud3core/SignalGenerator.c ****                     
 663:..\common\ud3core/SignalGenerator.c ****                     //decrement hpv timer if hpv is active
 664:..\common\ud3core/SignalGenerator.c ****                     if(data->voice[currVoice].currHPVDivider == 0) data->voice[currVoice].currHPVCo
 665:..\common\ud3core/SignalGenerator.c **** 
 666:..\common\ud3core/SignalGenerator.c ****                     //check if a pulse needs to be sent because this timer expired (turned to 0)
 667:..\common\ud3core/SignalGenerator.c ****                     if(data->voice[currVoice].counter <= 0){ 
 668:..\common\ud3core/SignalGenerator.c ****                         //reset the counter. If noise is enabled we add a random offset to this
 669:..\common\ud3core/SignalGenerator.c ****                         
 670:..\common\ud3core/SignalGenerator.c ****                         //first make sure that the period is actually large enough to get the count
 671:..\common\ud3core/SignalGenerator.c ****                         if(data->voice[currVoice].limitedPeriod < -data->voice[currVoice].counter){
 672:..\common\ud3core/SignalGenerator.c ****                             //no its not... just reset the counter to zero. Best we can do :(
 673:..\common\ud3core/SignalGenerator.c ****                             data->voice[currVoice].counter = 0;
 674:..\common\ud3core/SignalGenerator.c ****                         }else{
 675:..\common\ud3core/SignalGenerator.c ****                             //yep data seems valid. Add the period to the counter
 676:..\common\ud3core/SignalGenerator.c ****                             data->voice[currVoice].counter += data->voice[currVoice].limitedPeriod;
 677:..\common\ud3core/SignalGenerator.c ****                         }
 678:..\common\ud3core/SignalGenerator.c ****                         
 679:..\common\ud3core/SignalGenerator.c ****                         if(data->voice[currVoice].noiseAmplitude){
 680:..\common\ud3core/SignalGenerator.c ****                             //generate 32bit random number
 681:..\common\ud3core/SignalGenerator.c ****                             int32_t randomizer = rand()*rand();
 682:..\common\ud3core/SignalGenerator.c ****                             //limit frequency change to 0.5-2.0x fBase or whatever noise Amplitude 
 683:..\common\ud3core/SignalGenerator.c ****                             int32_t noiseLimit = (data->voice[currVoice].noiseAmplitude > data->voi
 684:..\common\ud3core/SignalGenerator.c ****                             randomizer = (randomizer & noiseLimit) - (noiseLimit>>1);
 685:..\common\ud3core/SignalGenerator.c ****                             if(abs(randomizer) < data->voice[currVoice].counter) data->voice[currVo
 686:..\common\ud3core/SignalGenerator.c ****                         }  //TODO verify use of "&" as randomizer scaling
 687:..\common\ud3core/SignalGenerator.c **** 
 688:..\common\ud3core/SignalGenerator.c ****                         //overlay current pulse
 689:..\common\ud3core/SignalGenerator.c ****                         SigGen_overlayPulse(&nextPulse, data->voice[currVoice].pulseVolume, data->v
 690:..\common\ud3core/SignalGenerator.c **** 
 691:..\common\ud3core/SignalGenerator.c ****                         //block timer for this iteration
ARM GAS  C:\Users\chemi\AppData\Local\Temp\ccbZzKkH.s 			page 24


 692:..\common\ud3core/SignalGenerator.c ****                         data->voice[currVoice].alreadyTriggered = 1;
 693:..\common\ud3core/SignalGenerator.c ****                         
 694:..\common\ud3core/SignalGenerator.c ****                         //update HPV divider if it is enabled
 695:..\common\ud3core/SignalGenerator.c ****                         if(data->voice[currVoice].limitedHpvCount != 0 && !data->voice[currVoice].n
 696:..\common\ud3core/SignalGenerator.c ****                             
 697:..\common\ud3core/SignalGenerator.c ****                             //it is enabled, reduce divider count if its not already zero
 698:..\common\ud3core/SignalGenerator.c ****                             if(data->voice[currVoice].currHPVDivider > 0)  data->voice[currVoice].c
 699:..\common\ud3core/SignalGenerator.c **** 
 700:..\common\ud3core/SignalGenerator.c ****                             //reached the pulse to have HPV
 701:..\common\ud3core/SignalGenerator.c ****                             if(data->voice[currVoice].currHPVDivider == 0){
 702:..\common\ud3core/SignalGenerator.c ****                                 //reset counter to the correct offset
 703:..\common\ud3core/SignalGenerator.c ****                                 data->voice[currVoice].currHPVCounter = data->voice[currVoice].hpvO
 704:..\common\ud3core/SignalGenerator.c ****                             }
 705:..\common\ud3core/SignalGenerator.c ****                         }
 706:..\common\ud3core/SignalGenerator.c ****                         
 707:..\common\ud3core/SignalGenerator.c ****                     }
 708:..\common\ud3core/SignalGenerator.c ****                     
 709:..\common\ud3core/SignalGenerator.c ****                     if(data->voice[currVoice].currHPVDivider == 0 && data->voice[currVoice].currHPV
 710:..\common\ud3core/SignalGenerator.c ****                         //HPV pulse was just triggered. Process it like a normal one, but also upda
 711:..\common\ud3core/SignalGenerator.c ****                         
 712:..\common\ud3core/SignalGenerator.c ****                         //unlike a normal pulse a HPV pulse isn't continuous, it will disable itsel
 713:..\common\ud3core/SignalGenerator.c ****                         data->voice[currVoice].currHPVCounter = INT_MAX;
 714:..\common\ud3core/SignalGenerator.c ****                         
 715:..\common\ud3core/SignalGenerator.c ****                         //is HPV still supposed to be on?
 716:..\common\ud3core/SignalGenerator.c ****                         if(data->voice[currVoice].limitedHpvCount != 0 && !data->voice[currVoice].n
 717:..\common\ud3core/SignalGenerator.c ****                             //yes :)
 718:..\common\ud3core/SignalGenerator.c ****                             data->voice[currVoice].currHPVDivider = data->voice[currVoice].limitedH
 719:..\common\ud3core/SignalGenerator.c ****                         }else{
 720:..\common\ud3core/SignalGenerator.c ****                             data->voice[currVoice].currHPVDivider = INT_MAX;
 721:..\common\ud3core/SignalGenerator.c ****                         }
 722:..\common\ud3core/SignalGenerator.c ****                                 
 723:..\common\ud3core/SignalGenerator.c ****                         //overlay current pulse
 724:..\common\ud3core/SignalGenerator.c ****                         SigGen_overlayPulse(&nextPulse, data->voice[currVoice].hpvVolume, data->voi
 725:..\common\ud3core/SignalGenerator.c **** 
 726:..\common\ud3core/SignalGenerator.c ****                         //block timer for this iteration
 727:..\common\ud3core/SignalGenerator.c ****                         data->voice[currVoice].alreadyTriggered = 1;
 728:..\common\ud3core/SignalGenerator.c ****                     }
 729:..\common\ud3core/SignalGenerator.c ****                     
 730:..\common\ud3core/SignalGenerator.c ****                     if(data->voice[currVoice].burstPeriod != 0 && data->voice[currVoice].burstCount
 731:..\common\ud3core/SignalGenerator.c ****                         //burst period timer just rolled over. Reset it
 732:..\common\ud3core/SignalGenerator.c ****                         data->voice[currVoice].burstCounter += data->voice[currVoice].burstPeriod;
 733:..\common\ud3core/SignalGenerator.c ****                     }
 734:..\common\ud3core/SignalGenerator.c **** 
 735:..\common\ud3core/SignalGenerator.c ****                     configASSERT(data->voice[currVoice].counter >= 0);
 736:..\common\ud3core/SignalGenerator.c ****                 }
 737:..\common\ud3core/SignalGenerator.c ****             }
 738:..\common\ud3core/SignalGenerator.c ****             
 739:..\common\ud3core/SignalGenerator.c ****             //find timers that would trigger within the ontime or holdoff time of the current pulse
 740:..\common\ud3core/SignalGenerator.c ****             
 741:..\common\ud3core/SignalGenerator.c **** 			//check if any other timers would trigger within the ontime and or the holdoff time
 742:..\common\ud3core/SignalGenerator.c ****             for(uint32_t currVoice = 0; currVoice < SIGGEN_VOICECOUNT; currVoice++){
 743:..\common\ud3core/SignalGenerator.c ****                 //if we are in TR mode then only voice 1 is active and all others can be ignored
 744:..\common\ud3core/SignalGenerator.c ****                 if(synthMode == SYNTH_TR && currVoice >= 1) break;
 745:..\common\ud3core/SignalGenerator.c ****                 
 746:..\common\ud3core/SignalGenerator.c ****                 int32_t currentMinimumPeriod = (nextPulse.onTime + param.offtime);
 747:..\common\ud3core/SignalGenerator.c ****                 
 748:..\common\ud3core/SignalGenerator.c ****                 if(data->voice[currVoice].limitedEnabled){ 
ARM GAS  C:\Users\chemi\AppData\Local\Temp\ccbZzKkH.s 			page 25


 749:..\common\ud3core/SignalGenerator.c ****                     //would the note pulse occur within the pulse or during the holdoff time after 
 750:..\common\ud3core/SignalGenerator.c ****                     if(data->voice[currVoice].counter < currentMinimumPeriod){ 
 751:..\common\ud3core/SignalGenerator.c ****                         
 752:..\common\ud3core/SignalGenerator.c ****                         data->voice[currVoice].counter += data->voice[currVoice].limitedPeriod;
 753:..\common\ud3core/SignalGenerator.c ****                         
 754:..\common\ud3core/SignalGenerator.c ****                         if(data->voice[currVoice].noiseAmplitude){
 755:..\common\ud3core/SignalGenerator.c ****                             //generate 32bit random number
 756:..\common\ud3core/SignalGenerator.c ****                             int32_t randomizer = rand()*rand();
 757:..\common\ud3core/SignalGenerator.c ****                             //limit frequency change to 0.5-2.0x fBase or whatever noise Amplitude 
 758:..\common\ud3core/SignalGenerator.c ****                             int32_t noiseLimit = (data->voice[currVoice].noiseAmplitude > data->voi
 759:..\common\ud3core/SignalGenerator.c ****                             randomizer = (randomizer & noiseLimit) - (noiseLimit>>1);
 760:..\common\ud3core/SignalGenerator.c ****                             if(abs(randomizer) < data->voice[currVoice].counter) data->voice[currVo
 761:..\common\ud3core/SignalGenerator.c ****                         }  //TODO verify use of "&" as randomizer scaling
 762:..\common\ud3core/SignalGenerator.c ****                         
 763:..\common\ud3core/SignalGenerator.c ****                         //did this timer already trigger during this pulse length? If so we just sk
 764:..\common\ud3core/SignalGenerator.c ****                         if(!data->voice[currVoice].alreadyTriggered){
 765:..\common\ud3core/SignalGenerator.c ****                             //overlay current pulse
 766:..\common\ud3core/SignalGenerator.c ****                             SigGen_overlayPulse(&nextPulse, data->voice[currVoice].pulseVolume, dat
 767:..\common\ud3core/SignalGenerator.c **** 
 768:..\common\ud3core/SignalGenerator.c ****                             //block timer for this iteration
 769:..\common\ud3core/SignalGenerator.c ****                             data->voice[currVoice].alreadyTriggered = 1;
 770:..\common\ud3core/SignalGenerator.c **** 
 771:..\common\ud3core/SignalGenerator.c ****                             //and finally go back to the start of the list
 772:..\common\ud3core/SignalGenerator.c ****                             currVoice = 0;
 773:..\common\ud3core/SignalGenerator.c ****                         }
 774:..\common\ud3core/SignalGenerator.c ****                     }
 775:..\common\ud3core/SignalGenerator.c ****                     
 776:..\common\ud3core/SignalGenerator.c ****                     //would the voices HPV pulse trigger during the deadtime?
 777:..\common\ud3core/SignalGenerator.c ****                     if(data->voice[currVoice].currHPVDivider == 0 && data->voice[currVoice].currHPV
 778:..\common\ud3core/SignalGenerator.c ****                         //disable HPV counter
 779:..\common\ud3core/SignalGenerator.c ****                         data->voice[currVoice].currHPVCounter = INT_MAX;
 780:..\common\ud3core/SignalGenerator.c ****                         
 781:..\common\ud3core/SignalGenerator.c ****                         //is HPV still supposed to be on?
 782:..\common\ud3core/SignalGenerator.c ****                         if(data->voice[currVoice].limitedHpvCount != 0 && !data->voice[currVoice].n
 783:..\common\ud3core/SignalGenerator.c ****                             //yes :)
 784:..\common\ud3core/SignalGenerator.c ****                             data->voice[currVoice].currHPVDivider = data->voice[currVoice].limitedH
 785:..\common\ud3core/SignalGenerator.c ****                         }else{
 786:..\common\ud3core/SignalGenerator.c ****                             //no :(
 787:..\common\ud3core/SignalGenerator.c ****                             data->voice[currVoice].currHPVDivider = INT_MAX;
 788:..\common\ud3core/SignalGenerator.c ****                         }
 789:..\common\ud3core/SignalGenerator.c ****                         
 790:..\common\ud3core/SignalGenerator.c ****                         //did this timer already trigger during this pulse length? If so we just sk
 791:..\common\ud3core/SignalGenerator.c ****                         if(!data->voice[currVoice].alreadyTriggered){
 792:..\common\ud3core/SignalGenerator.c ****                             //no => add the pulse volume to the current one. Check if the width is 
 793:..\common\ud3core/SignalGenerator.c ****                             
 794:..\common\ud3core/SignalGenerator.c ****                             //overlay current pulse
 795:..\common\ud3core/SignalGenerator.c ****                             SigGen_overlayPulse(&nextPulse, data->voice[currVoice].hpvVolume, data-
 796:..\common\ud3core/SignalGenerator.c **** 
 797:..\common\ud3core/SignalGenerator.c ****                             //block timer for this iteration
 798:..\common\ud3core/SignalGenerator.c ****                             data->voice[currVoice].alreadyTriggered = 1;
 799:..\common\ud3core/SignalGenerator.c **** 
 800:..\common\ud3core/SignalGenerator.c ****                             //and finally go back to the start of the list
 801:..\common\ud3core/SignalGenerator.c ****                             currVoice = 0;
 802:..\common\ud3core/SignalGenerator.c ****                         }
 803:..\common\ud3core/SignalGenerator.c ****                     }
 804:..\common\ud3core/SignalGenerator.c ****                 }
 805:..\common\ud3core/SignalGenerator.c ****             }
ARM GAS  C:\Users\chemi\AppData\Local\Temp\ccbZzKkH.s 			page 26


 806:..\common\ud3core/SignalGenerator.c ****             
 807:..\common\ud3core/SignalGenerator.c ****             //limit volume of pulse
 808:..\common\ud3core/SignalGenerator.c ****             if(nextPulse.onTime > MAX_VOL) nextPulse.onTime = MAX_VOL;
 809:..\common\ud3core/SignalGenerator.c ****             
 810:..\common\ud3core/SignalGenerator.c ****             //check if the voice fron which the pulse originates is muted due to burst off time. If
 811:..\common\ud3core/SignalGenerator.c ****             //we still need to add it however to prevent the buffer from running dry and the load e
 812:..\common\ud3core/SignalGenerator.c ****             if(data->voice[nextVoice].burstPeriod != 0 && data->voice[nextVoice].burstCounter < dat
 813:..\common\ud3core/SignalGenerator.c ****                 nextPulse.onTime = 0;
 814:..\common\ud3core/SignalGenerator.c ****                 nextPulse.current = 0;
 815:..\common\ud3core/SignalGenerator.c ****             }
 816:..\common\ud3core/SignalGenerator.c ****             
 817:..\common\ud3core/SignalGenerator.c ****             //we were here
 818:..\common\ud3core/SignalGenerator.c ****             //convert the period, volume and ontime to the values that will need to be written into
 819:..\common\ud3core/SignalGenerator.c ****             currPulse.period = SIGGEN_US_TO_PERIOD_COUNT(nextPulse.period);
 820:..\common\ud3core/SignalGenerator.c ****             currPulse.onTime = SIGGEN_US_TO_OT_COUNT(nextPulse.onTime);
 821:..\common\ud3core/SignalGenerator.c ****             currPulse.current = SIGGEN_VOLUME_TO_CURRENT_DAC_VALUE(nextPulse.current);
 822:..\common\ud3core/SignalGenerator.c ****             
 823:..\common\ud3core/SignalGenerator.c ****             //write it into the buffer
 824:..\common\ud3core/SignalGenerator.c ****             if(RingBuffer_write(data->pulseBuffer, (void*)&currPulse, 1, 0) != 1){
 825:..\common\ud3core/SignalGenerator.c ****                 //write failed, not enough space available...
 826:..\common\ud3core/SignalGenerator.c ****                 //TODO maybe send an alarm?
 827:..\common\ud3core/SignalGenerator.c ****                 
 828:..\common\ud3core/SignalGenerator.c ****                 //theoretically it might be cleverer to continue; here, but that could create a sit
 829:..\common\ud3core/SignalGenerator.c ****                 break;
 830:..\common\ud3core/SignalGenerator.c ****             }else{
 831:..\common\ud3core/SignalGenerator.c ****                 //increase the buffersize
 832:..\common\ud3core/SignalGenerator.c ****                 SigGen_disableTimerISR();
 833:..\common\ud3core/SignalGenerator.c ****                 data->bufferLengthInCounts += currPulse.period;
 834:..\common\ud3core/SignalGenerator.c ****                 SigGen_enableTimerISR();
 835:..\common\ud3core/SignalGenerator.c ****             }
 836:..\common\ud3core/SignalGenerator.c ****         }
 837:..\common\ud3core/SignalGenerator.c ****         
 838:..\common\ud3core/SignalGenerator.c ****         //it is possible that the timer is turned of at this point in the code but a pulse is waiti
 839:..\common\ud3core/SignalGenerator.c ****         if(!SigGen_isTimerRunning() && RingBuffer_getDataCount(data->pulseBuffer) > 0){
 566              		.loc 1 839 0
 567 010e FFF7FEFF 		bl	interrupterTimebase_ReadControlRegister
 568              	.LVL50:
 569 0112 0306     		lsls	r3, r0, #24
 570 0114 40F18381 		bpl	.L59
 571 0118 7EE7     		b	.L48
 572              	.LVL51:
 573              	.L58:
 574              	.LBB52:
 642:..\common\ud3core/SignalGenerator.c ****             
 575              		.loc 1 642 0
 576 011a D4F87032 		ldr	r3, [r4, #624]
 647:..\common\ud3core/SignalGenerator.c ****             
 577              		.loc 1 647 0
 578 011e 049A     		ldr	r2, [sp, #16]
 642:..\common\ud3core/SignalGenerator.c ****             
 579              		.loc 1 642 0
 580 0120 C3F57A43 		rsb	r3, r3, #64000
 581 0124 5B11     		asrs	r3, r3, #5
 582              	.LVL52:
 647:..\common\ud3core/SignalGenerator.c ****             
 583              		.loc 1 647 0
 584 0126 9342     		cmp	r3, r2
ARM GAS  C:\Users\chemi\AppData\Local\Temp\ccbZzKkH.s 			page 27


 585 0128 B8BF     		it	lt
 586 012a 0493     		strlt	r3, [sp, #16]
 587              	.LVL53:
 592:..\common\ud3core/SignalGenerator.c ****             SigGen_pulseData_t nextPulse = {.current = 0, . onTime = 0, .period = INT_MAX};
 588              		.loc 1 592 0
 589 012c 0025     		movs	r5, #0
 590              	.LBB29:
 656:..\common\ud3core/SignalGenerator.c ****                     //decrement frequency timer
 591              		.loc 1 656 0
 592 012e 6826     		movs	r6, #104
 713:..\common\ud3core/SignalGenerator.c ****                         
 593              		.loc 1 713 0
 594 0130 6FF00042 		mvn	r2, #-2147483648
 727:..\common\ud3core/SignalGenerator.c ****                     }
 595              		.loc 1 727 0
 596 0134 0121     		movs	r1, #1
 597              	.LVL54:
 598              	.L85:
 654:..\common\ud3core/SignalGenerator.c ****                 
 599              		.loc 1 654 0
 600 0136 9BF81030 		ldrb	r3, [fp, #16]	@ zero_extendqisi2
 601 013a 032B     		cmp	r3, #3
 602 013c 05D1     		bne	.L62
 654:..\common\ud3core/SignalGenerator.c ****                 
 603              		.loc 1 654 0 is_stmt 0 discriminator 1
 604 013e 25B1     		cbz	r5, .L62
 605              	.L86:
 606              	.LVL55:
 607              	.LBE29:
 592:..\common\ud3core/SignalGenerator.c ****             SigGen_pulseData_t nextPulse = {.current = 0, . onTime = 0, .period = INT_MAX};
 608              		.loc 1 592 0 is_stmt 1
 609 0140 0025     		movs	r5, #0
 610              	.LVL56:
 611              	.LBB35:
 612              	.LBB36:
 748:..\common\ud3core/SignalGenerator.c ****                     //would the note pulse occur within the pulse or during the holdoff time after 
 613              		.loc 1 748 0
 614 0142 6827     		movs	r7, #104
 779:..\common\ud3core/SignalGenerator.c ****                         
 615              		.loc 1 779 0
 616 0144 6FF00042 		mvn	r2, #-2147483648
 617 0148 BAE0     		b	.L63
 618              	.LVL57:
 619              	.L62:
 620              	.LBE36:
 621              	.LBE35:
 622              	.LBB49:
 656:..\common\ud3core/SignalGenerator.c ****                     //decrement frequency timer
 623              		.loc 1 656 0
 624 014a 06FB05F7 		mul	r7, r6, r5
 625 014e 04EB070A 		add	r10, r4, r7
 626 0152 DAF82C30 		ldr	r3, [r10, #44]
 627 0156 002B     		cmp	r3, #0
 628 0158 00F09A80 		beq	.L65
 658:..\common\ud3core/SignalGenerator.c ****                     
 629              		.loc 1 658 0
 630 015c 0498     		ldr	r0, [sp, #16]
ARM GAS  C:\Users\chemi\AppData\Local\Temp\ccbZzKkH.s 			page 28


 631 015e E359     		ldr	r3, [r4, r7]
 632 0160 1B1A     		subs	r3, r3, r0
 633 0162 E351     		str	r3, [r4, r7]
 661:..\common\ud3core/SignalGenerator.c ****                     
 634              		.loc 1 661 0
 635 0164 DAF86030 		ldr	r3, [r10, #96]
 636 0168 2BB1     		cbz	r3, .L66
 661:..\common\ud3core/SignalGenerator.c ****                     
 637              		.loc 1 661 0 is_stmt 0 discriminator 1
 638 016a 0498     		ldr	r0, [sp, #16]
 639 016c DAF80430 		ldr	r3, [r10, #4]
 640 0170 1B1A     		subs	r3, r3, r0
 641 0172 CAF80430 		str	r3, [r10, #4]
 642              	.L66:
 664:..\common\ud3core/SignalGenerator.c **** 
 643              		.loc 1 664 0 is_stmt 1
 644 0176 06FB0543 		mla	r3, r6, r5, r4
 645 017a D868     		ldr	r0, [r3, #12]
 646 017c 28B9     		cbnz	r0, .L67
 664:..\common\ud3core/SignalGenerator.c **** 
 647              		.loc 1 664 0 is_stmt 0 discriminator 1
 648 017e DDF810E0 		ldr	lr, [sp, #16]
 649 0182 9868     		ldr	r0, [r3, #8]
 650 0184 CEEB0000 		rsb	r0, lr, r0
 651 0188 9860     		str	r0, [r3, #8]
 652              	.L67:
 667:..\common\ud3core/SignalGenerator.c ****                         //reset the counter. If noise is enabled we add a random offset to this
 653              		.loc 1 667 0 is_stmt 1
 654 018a E359     		ldr	r3, [r4, r7]
 655 018c 002B     		cmp	r3, #0
 656 018e 51DC     		bgt	.L69
 671:..\common\ud3core/SignalGenerator.c ****                             //no its not... just reset the counter to zero. Best we can do :(
 657              		.loc 1 671 0
 658 0190 06FB0540 		mla	r0, r6, r5, r4
 659 0194 D0F814E0 		ldr	lr, [r0, #20]
 660 0198 E359     		ldr	r3, [r4, r7]
 661 019a 5B42     		negs	r3, r3
 662 019c 9E45     		cmp	lr, r3
 676:..\common\ud3core/SignalGenerator.c ****                         }
 663              		.loc 1 676 0
 664 019e A5BF     		ittet	ge
 665 01a0 4069     		ldrge	r0, [r0, #20]
 666 01a2 E359     		ldrge	r3, [r4, r7]
 673:..\common\ud3core/SignalGenerator.c ****                         }else{
 667              		.loc 1 673 0
 668 01a4 0023     		movlt	r3, #0
 676:..\common\ud3core/SignalGenerator.c ****                         }
 669              		.loc 1 676 0
 670 01a6 1B18     		addge	r3, r3, r0
 671 01a8 E351     		str	r3, [r4, r7]
 679:..\common\ud3core/SignalGenerator.c ****                             //generate 32bit random number
 672              		.loc 1 679 0
 673 01aa 06FB0543 		mla	r3, r6, r5, r4
 674 01ae 186B     		ldr	r0, [r3, #48]
 675 01b0 08B3     		cbz	r0, .L73
 676 01b2 0391     		str	r1, [sp, #12]
 677 01b4 0292     		str	r2, [sp, #8]
ARM GAS  C:\Users\chemi\AppData\Local\Temp\ccbZzKkH.s 			page 29


 678 01b6 0193     		str	r3, [sp, #4]
 679              	.LBB30:
 681:..\common\ud3core/SignalGenerator.c ****                             //limit frequency change to 0.5-2.0x fBase or whatever noise Amplitude 
 680              		.loc 1 681 0
 681 01b8 FFF7FEFF 		bl	rand
 682              	.LVL58:
 683 01bc 8146     		mov	r9, r0
 684 01be FFF7FEFF 		bl	rand
 685              	.LVL59:
 683:..\common\ud3core/SignalGenerator.c ****                             randomizer = (randomizer & noiseLimit) - (noiseLimit>>1);
 686              		.loc 1 683 0
 687 01c2 019B     		ldr	r3, [sp, #4]
 681:..\common\ud3core/SignalGenerator.c ****                             //limit frequency change to 0.5-2.0x fBase or whatever noise Amplitude 
 688              		.loc 1 681 0
 689 01c4 00FB09F0 		mul	r0, r0, r9
 690              	.LVL60:
 683:..\common\ud3core/SignalGenerator.c ****                             randomizer = (randomizer & noiseLimit) - (noiseLimit>>1);
 691              		.loc 1 683 0
 692 01c8 D3F830C0 		ldr	ip, [r3, #48]
 693 01cc D3F814E0 		ldr	lr, [r3, #20]
 694 01d0 029A     		ldr	r2, [sp, #8]
 695 01d2 F445     		cmp	ip, lr
 696 01d4 CCBF     		ite	gt
 697 01d6 5B69     		ldrgt	r3, [r3, #20]
 698 01d8 1B6B     		ldrle	r3, [r3, #48]
 699              	.LVL61:
 700 01da 0399     		ldr	r1, [sp, #12]
 684:..\common\ud3core/SignalGenerator.c ****                             if(abs(randomizer) < data->voice[currVoice].counter) data->voice[currVo
 701              		.loc 1 684 0
 702 01dc 1840     		ands	r0, r0, r3
 703              	.LVL62:
 704 01de A0EB6300 		sub	r0, r0, r3, asr #1
 705              	.LVL63:
 685:..\common\ud3core/SignalGenerator.c ****                         }  //TODO verify use of "&" as randomizer scaling
 706              		.loc 1 685 0
 707 01e2 80EAE07E 		eor	lr, r0, r0, asr #31
 708 01e6 E359     		ldr	r3, [r4, r7]
 709              	.LVL64:
 710 01e8 AEEBE07E 		sub	lr, lr, r0, asr #31
 711 01ec 9E45     		cmp	lr, r3
 712 01ee BEBF     		ittt	lt
 713 01f0 E359     		ldrlt	r3, [r4, r7]
 714 01f2 C018     		addlt	r0, r0, r3
 715              	.LVL65:
 716 01f4 E051     		strlt	r0, [r4, r7]
 717              	.L73:
 718              	.LBE30:
 689:..\common\ud3core/SignalGenerator.c **** 
 719              		.loc 1 689 0
 720 01f6 06FB0543 		mla	r3, r6, r5, r4
 721 01fa 5F6C     		ldr	r7, [r3, #68]
 722 01fc 586D     		ldr	r0, [r3, #84]
 723              	.LVL66:
 724              	.LBB31:
 725              	.LBB32:
 564:..\common\ud3core/SignalGenerator.c ****     
 726              		.loc 1 564 0
ARM GAS  C:\Users\chemi\AppData\Local\Temp\ccbZzKkH.s 			page 30


 727 01fe 059B     		ldr	r3, [sp, #20]
 728 0200 9842     		cmp	r0, r3
 729 0202 C8BF     		it	gt
 730 0204 0590     		strgt	r0, [sp, #20]
 566:..\common\ud3core/SignalGenerator.c ****     
 731              		.loc 1 566 0
 732 0206 069B     		ldr	r3, [sp, #24]
 733 0208 3B44     		add	r3, r3, r7
 734 020a 0693     		str	r3, [sp, #24]
 735              	.LVL67:
 736              	.LBE32:
 737              	.LBE31:
 692:..\common\ud3core/SignalGenerator.c ****                         
 738              		.loc 1 692 0
 739 020c 06FB0543 		mla	r3, r6, r5, r4
 740 0210 5963     		str	r1, [r3, #52]
 695:..\common\ud3core/SignalGenerator.c ****                             
 741              		.loc 1 695 0
 742 0212 586A     		ldr	r0, [r3, #36]
 743 0214 70B1     		cbz	r0, .L69
 695:..\common\ud3core/SignalGenerator.c ****                             
 744              		.loc 1 695 0 is_stmt 0 discriminator 1
 745 0216 186B     		ldr	r0, [r3, #48]
 746 0218 60B9     		cbnz	r0, .L69
 698:..\common\ud3core/SignalGenerator.c **** 
 747              		.loc 1 698 0 is_stmt 1
 748 021a D868     		ldr	r0, [r3, #12]
 749 021c 0028     		cmp	r0, #0
 750 021e C2BF     		ittt	gt
 751 0220 D868     		ldrgt	r0, [r3, #12]
 752 0222 00F1FF30 		addgt	r0, r0, #-1
 753 0226 D860     		strgt	r0, [r3, #12]
 701:..\common\ud3core/SignalGenerator.c ****                                 //reset counter to the correct offset
 754              		.loc 1 701 0
 755 0228 06FB0543 		mla	r3, r6, r5, r4
 756 022c D868     		ldr	r0, [r3, #12]
 757 022e 08B9     		cbnz	r0, .L69
 703:..\common\ud3core/SignalGenerator.c ****                             }
 758              		.loc 1 703 0
 759 0230 D869     		ldr	r0, [r3, #28]
 760 0232 9860     		str	r0, [r3, #8]
 761              	.L69:
 709:..\common\ud3core/SignalGenerator.c ****                         //HPV pulse was just triggered. Process it like a normal one, but also upda
 762              		.loc 1 709 0
 763 0234 06FB0543 		mla	r3, r6, r5, r4
 764 0238 D868     		ldr	r0, [r3, #12]
 765 023a D8B9     		cbnz	r0, .L80
 709:..\common\ud3core/SignalGenerator.c ****                         //HPV pulse was just triggered. Process it like a normal one, but also upda
 766              		.loc 1 709 0 is_stmt 0 discriminator 1
 767 023c 9868     		ldr	r0, [r3, #8]
 768 023e 0028     		cmp	r0, #0
 769 0240 18DC     		bgt	.L80
 713:..\common\ud3core/SignalGenerator.c ****                         
 770              		.loc 1 713 0 is_stmt 1
 771 0242 9A60     		str	r2, [r3, #8]
 716:..\common\ud3core/SignalGenerator.c ****                             //yes :)
 772              		.loc 1 716 0
ARM GAS  C:\Users\chemi\AppData\Local\Temp\ccbZzKkH.s 			page 31


 773 0244 586A     		ldr	r0, [r3, #36]
 774 0246 20B1     		cbz	r0, .L81
 716:..\common\ud3core/SignalGenerator.c ****                             //yes :)
 775              		.loc 1 716 0 is_stmt 0 discriminator 1
 776 0248 186B     		ldr	r0, [r3, #48]
 777 024a 10B9     		cbnz	r0, .L81
 718:..\common\ud3core/SignalGenerator.c ****                         }else{
 778              		.loc 1 718 0 is_stmt 1
 779 024c 586A     		ldr	r0, [r3, #36]
 780 024e D860     		str	r0, [r3, #12]
 781 0250 02E0     		b	.L82
 782              	.L81:
 720:..\common\ud3core/SignalGenerator.c ****                         }
 783              		.loc 1 720 0
 784 0252 06FB0543 		mla	r3, r6, r5, r4
 785 0256 DA60     		str	r2, [r3, #12]
 786              	.L82:
 724:..\common\ud3core/SignalGenerator.c **** 
 787              		.loc 1 724 0
 788 0258 06FB0543 		mla	r3, r6, r5, r4
 789 025c 1F6C     		ldr	r7, [r3, #64]
 790 025e D86D     		ldr	r0, [r3, #92]
 791              	.LVL68:
 792              	.LBB33:
 793              	.LBB34:
 564:..\common\ud3core/SignalGenerator.c ****     
 794              		.loc 1 564 0
 795 0260 059B     		ldr	r3, [sp, #20]
 796 0262 8342     		cmp	r3, r0
 797 0264 B8BF     		it	lt
 798 0266 0590     		strlt	r0, [sp, #20]
 566:..\common\ud3core/SignalGenerator.c ****     
 799              		.loc 1 566 0
 800 0268 069B     		ldr	r3, [sp, #24]
 801 026a 3B44     		add	r3, r3, r7
 802 026c 0693     		str	r3, [sp, #24]
 803              	.LVL69:
 804              	.LBE34:
 805              	.LBE33:
 727:..\common\ud3core/SignalGenerator.c ****                     }
 806              		.loc 1 727 0
 807 026e 06FB0543 		mla	r3, r6, r5, r4
 808 0272 5963     		str	r1, [r3, #52]
 809              	.L80:
 730:..\common\ud3core/SignalGenerator.c ****                         //burst period timer just rolled over. Reset it
 810              		.loc 1 730 0
 811 0274 06FB0543 		mla	r3, r6, r5, r4
 812 0278 186E     		ldr	r0, [r3, #96]
 813 027a 48B1     		cbz	r0, .L65
 730:..\common\ud3core/SignalGenerator.c ****                         //burst period timer just rolled over. Reset it
 814              		.loc 1 730 0 is_stmt 0 discriminator 1
 815 027c DAF80400 		ldr	r0, [r10, #4]
 816 0280 0028     		cmp	r0, #0
 732:..\common\ud3core/SignalGenerator.c ****                     }
 817              		.loc 1 732 0 is_stmt 1 discriminator 1
 818 0282 DFBF     		itttt	le
 819 0284 186E     		ldrle	r0, [r3, #96]
ARM GAS  C:\Users\chemi\AppData\Local\Temp\ccbZzKkH.s 			page 32


 820 0286 DAF80430 		ldrle	r3, [r10, #4]
 821 028a 1B18     		addle	r3, r3, r0
 822 028c CAF80430 		strle	r3, [r10, #4]
 823              	.L65:
 652:..\common\ud3core/SignalGenerator.c ****                 //if we are in TR mode then only voice 1 is active and all others can be ignored
 824              		.loc 1 652 0 discriminator 2
 825 0290 0135     		adds	r5, r5, #1
 826              	.LVL70:
 827 0292 062D     		cmp	r5, #6
 828 0294 7FF44FAF 		bne	.L85
 829 0298 52E7     		b	.L86
 830              	.L160:
 831 029a 00BF     		.align	2
 832              	.L159:
 833 029c 00000000 		.word	currPulse
 834 02a0 00000000 		.word	.LANCHOR1
 835 02a4 00000000 		.word	.LANCHOR0
 836              	.LVL71:
 837              	.L158:
 838              	.LBE49:
 839              	.LBB50:
 840              	.LBB46:
 744:..\common\ud3core/SignalGenerator.c ****                 
 841              		.loc 1 744 0 discriminator 1
 842 02a8 7DB9     		cbnz	r5, .L101
 843              	.L87:
 748:..\common\ud3core/SignalGenerator.c ****                     //would the note pulse occur within the pulse or during the holdoff time after 
 844              		.loc 1 748 0
 845 02aa 07FB05F9 		mul	r9, r7, r5
 846 02ae 04EB090A 		add	r10, r4, r9
 746:..\common\ud3core/SignalGenerator.c ****                 
 847              		.loc 1 746 0
 848 02b2 059B     		ldr	r3, [sp, #20]
 849              	.LVL72:
 748:..\common\ud3core/SignalGenerator.c ****                     //would the note pulse occur within the pulse or during the holdoff time after 
 850              		.loc 1 748 0
 851 02b4 DAF82C10 		ldr	r1, [r10, #44]
 852 02b8 79B9     		cbnz	r1, .L157
 853              	.LVL73:
 854              	.L90:
 855              	.LBE46:
 742:..\common\ud3core/SignalGenerator.c ****                 //if we are in TR mode then only voice 1 is active and all others can be ignored
 856              		.loc 1 742 0 discriminator 2
 857 02ba 0135     		adds	r5, r5, #1
 858              	.LVL74:
 859 02bc 062D     		cmp	r5, #6
 860 02be 04D0     		beq	.L101
 861              	.LVL75:
 862              	.L63:
 863              	.LBB47:
 744:..\common\ud3core/SignalGenerator.c ****                 
 864              		.loc 1 744 0
 865 02c0 9BF81030 		ldrb	r3, [fp, #16]	@ zero_extendqisi2
 866 02c4 032B     		cmp	r3, #3
 867 02c6 F0D1     		bne	.L87
 868 02c8 EEE7     		b	.L158
 869              	.L101:
ARM GAS  C:\Users\chemi\AppData\Local\Temp\ccbZzKkH.s 			page 33


 870              	.LBE47:
 871              	.LBE50:
 808:..\common\ud3core/SignalGenerator.c ****             
 872              		.loc 1 808 0
 873 02ca 059B     		ldr	r3, [sp, #20]
 874 02cc B3F5004F 		cmp	r3, #32768
 875 02d0 71DB     		blt	.L89
 808:..\common\ud3core/SignalGenerator.c ****             
 876              		.loc 1 808 0 is_stmt 0 discriminator 1
 877 02d2 47F6FF73 		movw	r3, #32767
 878 02d6 0593     		str	r3, [sp, #20]
 879 02d8 6DE0     		b	.L89
 880              	.LVL76:
 881              	.L157:
 882              	.LBB51:
 883              	.LBB48:
 746:..\common\ud3core/SignalGenerator.c ****                 
 884              		.loc 1 746 0 is_stmt 1
 885 02da 6B49     		ldr	r1, .L161
 886 02dc C989     		ldrh	r1, [r1, #14]
 887 02de 0B44     		add	r3, r3, r1
 888              	.LVL77:
 750:..\common\ud3core/SignalGenerator.c ****                         
 889              		.loc 1 750 0
 890 02e0 54F80910 		ldr	r1, [r4, r9]
 891 02e4 8B42     		cmp	r3, r1
 892 02e6 3FDD     		ble	.L91
 752:..\common\ud3core/SignalGenerator.c ****                         
 893              		.loc 1 752 0
 894 02e8 DAF81400 		ldr	r0, [r10, #20]
 895 02ec 54F80910 		ldr	r1, [r4, r9]
 896 02f0 0144     		add	r1, r1, r0
 897 02f2 44F80910 		str	r1, [r4, r9]
 754:..\common\ud3core/SignalGenerator.c ****                             //generate 32bit random number
 898              		.loc 1 754 0
 899 02f6 DAF83010 		ldr	r1, [r10, #48]
 900 02fa 19B3     		cbz	r1, .L93
 901 02fc 0292     		str	r2, [sp, #8]
 902 02fe 0193     		str	r3, [sp, #4]
 903              	.LBB37:
 756:..\common\ud3core/SignalGenerator.c ****                             //limit frequency change to 0.5-2.0x fBase or whatever noise Amplitude 
 904              		.loc 1 756 0
 905 0300 FFF7FEFF 		bl	rand
 906              	.LVL78:
 907 0304 0646     		mov	r6, r0
 908 0306 FFF7FEFF 		bl	rand
 909              	.LVL79:
 910 030a 7043     		muls	r0, r6, r0
 911              	.LVL80:
 758:..\common\ud3core/SignalGenerator.c ****                             randomizer = (randomizer & noiseLimit) - (noiseLimit>>1);
 912              		.loc 1 758 0
 913 030c DAF83060 		ldr	r6, [r10, #48]
 914 0310 DAF81410 		ldr	r1, [r10, #20]
 915 0314 019B     		ldr	r3, [sp, #4]
 916 0316 8E42     		cmp	r6, r1
 917 0318 CCBF     		ite	gt
 918 031a DAF81410 		ldrgt	r1, [r10, #20]
ARM GAS  C:\Users\chemi\AppData\Local\Temp\ccbZzKkH.s 			page 34


 919 031e DAF83010 		ldrle	r1, [r10, #48]
 920              	.LVL81:
 921 0322 029A     		ldr	r2, [sp, #8]
 759:..\common\ud3core/SignalGenerator.c ****                             if(abs(randomizer) < data->voice[currVoice].counter) data->voice[currVo
 922              		.loc 1 759 0
 923 0324 0840     		ands	r0, r0, r1
 924              	.LVL82:
 925 0326 A0EB6100 		sub	r0, r0, r1, asr #1
 926              	.LVL83:
 760:..\common\ud3core/SignalGenerator.c ****                         }  //TODO verify use of "&" as randomizer scaling
 927              		.loc 1 760 0
 928 032a 80EAE076 		eor	r6, r0, r0, asr #31
 929 032e 54F80910 		ldr	r1, [r4, r9]
 930              	.LVL84:
 931 0332 A6EBE076 		sub	r6, r6, r0, asr #31
 932 0336 8E42     		cmp	r6, r1
 933 0338 BEBF     		ittt	lt
 934 033a 54F80960 		ldrlt	r6, [r4, r9]
 935 033e 8019     		addlt	r0, r0, r6
 936              	.LVL85:
 937 0340 44F80900 		strlt	r0, [r4, r9]
 938              	.L93:
 939              	.LBE37:
 764:..\common\ud3core/SignalGenerator.c ****                             //overlay current pulse
 940              		.loc 1 764 0
 941 0344 07FB0540 		mla	r0, r7, r5, r4
 942 0348 416B     		ldr	r1, [r0, #52]
 943 034a 69B9     		cbnz	r1, .L91
 766:..\common\ud3core/SignalGenerator.c **** 
 944              		.loc 1 766 0
 945 034c 466C     		ldr	r6, [r0, #68]
 946 034e 416D     		ldr	r1, [r0, #84]
 947              	.LVL86:
 948              	.LBB38:
 949              	.LBB39:
 564:..\common\ud3core/SignalGenerator.c ****     
 950              		.loc 1 564 0
 951 0350 0598     		ldr	r0, [sp, #20]
 952              	.LBE39:
 953              	.LBE38:
 769:..\common\ud3core/SignalGenerator.c **** 
 954              		.loc 1 769 0
 955 0352 07FB0545 		mla	r5, r7, r5, r4
 956              	.LVL87:
 957              	.LBB41:
 958              	.LBB40:
 564:..\common\ud3core/SignalGenerator.c ****     
 959              		.loc 1 564 0
 960 0356 8842     		cmp	r0, r1
 961 0358 B8BF     		it	lt
 962 035a 0591     		strlt	r1, [sp, #20]
 566:..\common\ud3core/SignalGenerator.c ****     
 963              		.loc 1 566 0
 964 035c 0699     		ldr	r1, [sp, #24]
 965              	.LVL88:
 966 035e 3144     		add	r1, r1, r6
 967 0360 0691     		str	r1, [sp, #24]
ARM GAS  C:\Users\chemi\AppData\Local\Temp\ccbZzKkH.s 			page 35


 968              	.LVL89:
 969              	.LBE40:
 970              	.LBE41:
 769:..\common\ud3core/SignalGenerator.c **** 
 971              		.loc 1 769 0
 972 0362 0121     		movs	r1, #1
 973 0364 6963     		str	r1, [r5, #52]
 974              	.LVL90:
 772:..\common\ud3core/SignalGenerator.c ****                         }
 975              		.loc 1 772 0
 976 0366 0025     		movs	r5, #0
 977              	.LVL91:
 978              	.L91:
 777:..\common\ud3core/SignalGenerator.c ****                         //disable HPV counter
 979              		.loc 1 777 0
 980 0368 07FB0541 		mla	r1, r7, r5, r4
 981 036c C868     		ldr	r0, [r1, #12]
 982 036e 0028     		cmp	r0, #0
 983 0370 A3D1     		bne	.L90
 777:..\common\ud3core/SignalGenerator.c ****                         //disable HPV counter
 984              		.loc 1 777 0 is_stmt 0 discriminator 1
 985 0372 8868     		ldr	r0, [r1, #8]
 986 0374 8342     		cmp	r3, r0
 987 0376 A0DB     		blt	.L90
 779:..\common\ud3core/SignalGenerator.c ****                         
 988              		.loc 1 779 0 is_stmt 1
 989 0378 8A60     		str	r2, [r1, #8]
 782:..\common\ud3core/SignalGenerator.c ****                             //yes :)
 990              		.loc 1 782 0
 991 037a 4B6A     		ldr	r3, [r1, #36]
 992 037c 23B1     		cbz	r3, .L98
 782:..\common\ud3core/SignalGenerator.c ****                             //yes :)
 993              		.loc 1 782 0 is_stmt 0 discriminator 1
 994 037e 0B6B     		ldr	r3, [r1, #48]
 995 0380 13B9     		cbnz	r3, .L98
 784:..\common\ud3core/SignalGenerator.c ****                         }else{
 996              		.loc 1 784 0 is_stmt 1
 997 0382 4B6A     		ldr	r3, [r1, #36]
 998 0384 CB60     		str	r3, [r1, #12]
 999 0386 02E0     		b	.L99
 1000              	.L98:
 787:..\common\ud3core/SignalGenerator.c ****                         }
 1001              		.loc 1 787 0
 1002 0388 07FB0543 		mla	r3, r7, r5, r4
 1003 038c DA60     		str	r2, [r3, #12]
 1004              	.L99:
 791:..\common\ud3core/SignalGenerator.c ****                             //no => add the pulse volume to the current one. Check if the width is 
 1005              		.loc 1 791 0
 1006 038e 07FB0541 		mla	r1, r7, r5, r4
 1007 0392 4B6B     		ldr	r3, [r1, #52]
 1008 0394 002B     		cmp	r3, #0
 1009 0396 90D1     		bne	.L90
 795:..\common\ud3core/SignalGenerator.c **** 
 1010              		.loc 1 795 0
 1011 0398 086C     		ldr	r0, [r1, #64]
 1012 039a CB6D     		ldr	r3, [r1, #92]
 1013              	.LVL92:
ARM GAS  C:\Users\chemi\AppData\Local\Temp\ccbZzKkH.s 			page 36


 1014              	.LBB42:
 1015              	.LBB43:
 564:..\common\ud3core/SignalGenerator.c ****     
 1016              		.loc 1 564 0
 1017 039c 0599     		ldr	r1, [sp, #20]
 1018              	.LBE43:
 1019              	.LBE42:
 798:..\common\ud3core/SignalGenerator.c **** 
 1020              		.loc 1 798 0
 1021 039e 07FB0545 		mla	r5, r7, r5, r4
 1022              	.LVL93:
 1023              	.LBB45:
 1024              	.LBB44:
 564:..\common\ud3core/SignalGenerator.c ****     
 1025              		.loc 1 564 0
 1026 03a2 9942     		cmp	r1, r3
 1027 03a4 B8BF     		it	lt
 1028 03a6 0593     		strlt	r3, [sp, #20]
 566:..\common\ud3core/SignalGenerator.c ****     
 1029              		.loc 1 566 0
 1030 03a8 069B     		ldr	r3, [sp, #24]
 1031              	.LVL94:
 1032 03aa 0344     		add	r3, r3, r0
 1033 03ac 0693     		str	r3, [sp, #24]
 1034              	.LVL95:
 1035              	.LBE44:
 1036              	.LBE45:
 798:..\common\ud3core/SignalGenerator.c **** 
 1037              		.loc 1 798 0
 1038 03ae 0123     		movs	r3, #1
 1039 03b0 6B63     		str	r3, [r5, #52]
 1040              	.LVL96:
 801:..\common\ud3core/SignalGenerator.c ****                         }
 1041              		.loc 1 801 0
 1042 03b2 0025     		movs	r5, #0
 1043 03b4 81E7     		b	.L90
 1044              	.LVL97:
 1045              	.L89:
 1046              	.LBE48:
 1047              	.LBE51:
 812:..\common\ud3core/SignalGenerator.c ****                 nextPulse.onTime = 0;
 1048              		.loc 1 812 0
 1049 03b6 6823     		movs	r3, #104
 1050 03b8 03FB0848 		mla	r8, r3, r8, r4
 1051              	.LVL98:
 1052 03bc D8F86030 		ldr	r3, [r8, #96]
 1053 03c0 43B1     		cbz	r3, .L102
 812:..\common\ud3core/SignalGenerator.c ****                 nextPulse.onTime = 0;
 1054              		.loc 1 812 0 is_stmt 0 discriminator 1
 1055 03c2 D8F80420 		ldr	r2, [r8, #4]
 1056 03c6 D8F86430 		ldr	r3, [r8, #100]
 1057 03ca 9A42     		cmp	r2, r3
 813:..\common\ud3core/SignalGenerator.c ****                 nextPulse.current = 0;
 1058              		.loc 1 813 0 is_stmt 1 discriminator 1
 1059 03cc BEBF     		ittt	lt
 1060 03ce 0023     		movlt	r3, #0
 1061 03d0 0593     		strlt	r3, [sp, #20]
ARM GAS  C:\Users\chemi\AppData\Local\Temp\ccbZzKkH.s 			page 37


 814:..\common\ud3core/SignalGenerator.c ****             }
 1062              		.loc 1 814 0 discriminator 1
 1063 03d2 0693     		strlt	r3, [sp, #24]
 1064              	.L102:
 819:..\common\ud3core/SignalGenerator.c ****             currPulse.onTime = SIGGEN_US_TO_OT_COUNT(nextPulse.onTime);
 1065              		.loc 1 819 0
 1066 03d4 049B     		ldr	r3, [sp, #16]
 1067 03d6 009A     		ldr	r2, [sp]
 1068 03d8 5B01     		lsls	r3, r3, #5
 1069 03da 1360     		str	r3, [r2]
 820:..\common\ud3core/SignalGenerator.c ****             currPulse.current = SIGGEN_VOLUME_TO_CURRENT_DAC_VALUE(nextPulse.current);
 1070              		.loc 1 820 0
 1071 03dc 059B     		ldr	r3, [sp, #20]
 821:..\common\ud3core/SignalGenerator.c ****             
 1072              		.loc 1 821 0
 1073 03de 2B49     		ldr	r1, .L161+4
 820:..\common\ud3core/SignalGenerator.c ****             currPulse.current = SIGGEN_VOLUME_TO_CURRENT_DAC_VALUE(nextPulse.current);
 1074              		.loc 1 820 0
 1075 03e0 5360     		str	r3, [r2, #4]
 821:..\common\ud3core/SignalGenerator.c ****             
 1076              		.loc 1 821 0
 1077 03e2 0A7D     		ldrb	r2, [r1, #20]	@ zero_extendqisi2
 1078 03e4 069B     		ldr	r3, [sp, #24]
 1079 03e6 497D     		ldrb	r1, [r1, #21]	@ zero_extendqisi2
 819:..\common\ud3core/SignalGenerator.c ****             currPulse.onTime = SIGGEN_US_TO_OT_COUNT(nextPulse.onTime);
 1080              		.loc 1 819 0
 1081 03e8 294D     		ldr	r5, .L161+8
 1082              	.LVL99:
 821:..\common\ud3core/SignalGenerator.c ****             
 1083              		.loc 1 821 0
 1084 03ea 4B43     		muls	r3, r1, r3
 1085 03ec 02EBE333 		add	r3, r2, r3, asr #15
 1086 03f0 009A     		ldr	r2, [sp]
 824:..\common\ud3core/SignalGenerator.c ****                 //write failed, not enough space available...
 1087              		.loc 1 824 0
 1088 03f2 2946     		mov	r1, r5
 821:..\common\ud3core/SignalGenerator.c ****             
 1089              		.loc 1 821 0
 1090 03f4 9360     		str	r3, [r2, #8]
 824:..\common\ud3core/SignalGenerator.c ****                 //write failed, not enough space available...
 1091              		.loc 1 824 0
 1092 03f6 D4F87402 		ldr	r0, [r4, #628]
 1093 03fa 0023     		movs	r3, #0
 1094 03fc 0122     		movs	r2, #1
 1095 03fe FFF7FEFF 		bl	RingBuffer_write
 1096              	.LVL100:
 1097 0402 0128     		cmp	r0, #1
 1098 0404 7FF483AE 		bne	.L103
 832:..\common\ud3core/SignalGenerator.c ****                 data->bufferLengthInCounts += currPulse.period;
 1099              		.loc 1 832 0
 1100 0408 FFF7FEFF 		bl	interrupterIRQ_Disable
 1101              	.LVL101:
 833:..\common\ud3core/SignalGenerator.c ****                 SigGen_enableTimerISR();
 1102              		.loc 1 833 0
 1103 040c 2A68     		ldr	r2, [r5]
 1104 040e D4F87032 		ldr	r3, [r4, #624]
 1105 0412 1344     		add	r3, r3, r2
ARM GAS  C:\Users\chemi\AppData\Local\Temp\ccbZzKkH.s 			page 38


 1106 0414 C4F87032 		str	r3, [r4, #624]
 834:..\common\ud3core/SignalGenerator.c ****             }
 1107              		.loc 1 834 0
 1108 0418 FFF7FEFF 		bl	interrupterIRQ_Enable
 1109              	.LVL102:
 1110 041c 03E6     		b	.L49
 1111              	.L59:
 1112              	.LBE52:
 1113              		.loc 1 839 0 discriminator 1
 1114 041e D4F87402 		ldr	r0, [r4, #628]
 1115 0422 FFF7FEFF 		bl	RingBuffer_getDataCount
 1116              	.LVL103:
 1117 0426 0028     		cmp	r0, #0
 1118 0428 7FF7F6AD 		ble	.L48
 840:..\common\ud3core/SignalGenerator.c ****             //time is off but pulses are waiting. Load the first pulse and start the timer
 841:..\common\ud3core/SignalGenerator.c ****             
 842:..\common\ud3core/SignalGenerator.c ****             //get the next pulse
 843:..\common\ud3core/SignalGenerator.c ****             if(RingBuffer_read(data->pulseBuffer, (void*)&readPulse, 1) == 1){
 1119              		.loc 1 843 0
 1120 042c D4F87402 		ldr	r0, [r4, #628]
 1121 0430 0122     		movs	r2, #1
 1122 0432 1849     		ldr	r1, .L161+12
 1123 0434 FFF7FEFF 		bl	RingBuffer_read
 1124              	.LVL104:
 1125 0438 0128     		cmp	r0, #1
 1126 043a 7FF4EDAD 		bne	.L48
 844:..\common\ud3core/SignalGenerator.c ****                 taskData->bufferLengthInCounts -= readPulse.period;
 1127              		.loc 1 844 0
 1128 043e DBF80020 		ldr	r2, [fp]
 1129 0442 DBF80410 		ldr	r1, [fp, #4]
 1130 0446 D2F87032 		ldr	r3, [r2, #624]
 845:..\common\ud3core/SignalGenerator.c ****                 
 846:..\common\ud3core/SignalGenerator.c ****                 if(readPulse.period < SIGGEN_MIN_PERIOD) readPulse.period = SIGGEN_MIN_PERIOD;
 847:..\common\ud3core/SignalGenerator.c ****                 
 848:..\common\ud3core/SignalGenerator.c ****                 //reset counter to trigger asap
 849:..\common\ud3core/SignalGenerator.c ****                 interrupterTimebase_WriteCounter(0);
 1131              		.loc 1 849 0
 1132 044a 0020     		movs	r0, #0
 844:..\common\ud3core/SignalGenerator.c ****                 taskData->bufferLengthInCounts -= readPulse.period;
 1133              		.loc 1 844 0
 1134 044c 5B1A     		subs	r3, r3, r1
 1135 044e C2F87032 		str	r3, [r2, #624]
 846:..\common\ud3core/SignalGenerator.c ****                 
 1136              		.loc 1 846 0
 1137 0452 DBF80430 		ldr	r3, [fp, #4]
 1138 0456 B3F57A7F 		cmp	r3, #1000
 1139 045a BCBF     		itt	lt
 1140 045c 4FF47A73 		movlt	r3, #1000
 1141 0460 CBF80430 		strlt	r3, [fp, #4]
 1142              		.loc 1 849 0
 1143 0464 FFF7FEFF 		bl	interrupterTimebase_WriteCounter
 1144              	.LVL105:
 850:..\common\ud3core/SignalGenerator.c ****                 
 851:..\common\ud3core/SignalGenerator.c ****                 //load timer registers
 852:..\common\ud3core/SignalGenerator.c ****                 interrupterTimebase_WriteCompare(readPulse.period);
 1145              		.loc 1 852 0
 1146 0468 0B4B     		ldr	r3, .L161+16
ARM GAS  C:\Users\chemi\AppData\Local\Temp\ccbZzKkH.s 			page 39


 1147 046a 5868     		ldr	r0, [r3, #4]
 1148 046c FFF7FEFF 		bl	interrupterTimebase_WriteCompare
 1149              	.LVL106:
 853:..\common\ud3core/SignalGenerator.c ****                 
 854:..\common\ud3core/SignalGenerator.c ****                 //clear the irq incase its still pending
 855:..\common\ud3core/SignalGenerator.c ****                 interrupterIRQ_ClearPending();
 1150              		.loc 1 855 0
 1151 0470 FFF7FEFF 		bl	interrupterIRQ_ClearPending
 1152              	.LVL107:
 856:..\common\ud3core/SignalGenerator.c ****                 
 857:..\common\ud3core/SignalGenerator.c ****                 //and finally re-enable the timer
 858:..\common\ud3core/SignalGenerator.c ****                 SigGen_startTimer();
 1153              		.loc 1 858 0
 1154 0474 FFF7FEFF 		bl	interrupterTimebase_ReadControlRegister
 1155              	.LVL108:
 1156 0478 60F07F00 		orn	r0, r0, #127
 1157 047c C0B2     		uxtb	r0, r0
 1158 047e FFF7FEFF 		bl	interrupterTimebase_WriteControlRegister
 1159              	.LVL109:
 1160 0482 FFF7FEFF 		bl	interrupterIRQ_Enable
 1161              	.LVL110:
 1162 0486 C7E5     		b	.L48
 1163              	.L162:
 1164              		.align	2
 1165              	.L161:
 1166 0488 00000000 		.word	param
 1167 048c 00000000 		.word	params
 1168 0490 00000000 		.word	currPulse
 1169 0494 04000000 		.word	.LANCHOR0+4
 1170 0498 00000000 		.word	.LANCHOR0
 1171              		.cfi_endproc
 1172              	.LFE88:
 1173              		.size	SigGen_task, .-SigGen_task
 1174              		.section	.text.callback_siggen,"ax",%progbits
 1175              		.align	1
 1176              		.global	callback_siggen
 1177              		.thumb
 1178              		.thumb_func
 1179              		.type	callback_siggen, %function
 1180              	callback_siggen:
 1181              	.LFB70:
 153:..\common\ud3core/SignalGenerator.c ****     //update minimum OT parameter
 1182              		.loc 1 153 0
 1183              		.cfi_startproc
 1184              		@ args = 0, pretend = 0, frame = 0
 1185              		@ frame_needed = 0, uses_anonymous_args = 0
 1186              		@ link register save eliminated.
 1187              	.LVL111:
 155:..\common\ud3core/SignalGenerator.c ****     
 1188              		.loc 1 155 0
 1189 0000 054A     		ldr	r2, .L164
 1190              	.LVL112:
 158:..\common\ud3core/SignalGenerator.c **** 
 1191              		.loc 1 158 0
 1192 0002 0120     		movs	r0, #1
 1193              	.LVL113:
 155:..\common\ud3core/SignalGenerator.c ****     
ARM GAS  C:\Users\chemi\AppData\Local\Temp\ccbZzKkH.s 			page 40


 1194              		.loc 1 155 0
 1195 0004 9188     		ldrh	r1, [r2, #4]
 1196              	.LVL114:
 1197 0006 92F87330 		ldrb	r3, [r2, #115]	@ zero_extendqisi2
 1198 000a 6422     		movs	r2, #100
 1199 000c 4B43     		muls	r3, r1, r3
 1200 000e 93FBF2F3 		sdiv	r3, r3, r2
 1201 0012 024A     		ldr	r2, .L164+4
 1202 0014 5361     		str	r3, [r2, #20]
 158:..\common\ud3core/SignalGenerator.c **** 
 1203              		.loc 1 158 0
 1204 0016 7047     		bx	lr
 1205              	.L165:
 1206              		.align	2
 1207              	.L164:
 1208 0018 00000000 		.word	configuration
 1209 001c 00000000 		.word	.LANCHOR0
 1210              		.cfi_endproc
 1211              	.LFE70:
 1212              		.size	callback_siggen, .-callback_siggen
 1213              		.section	.text.SigGen_init,"ax",%progbits
 1214              		.align	1
 1215              		.global	SigGen_init
 1216              		.thumb
 1217              		.thumb_func
 1218              		.type	SigGen_init, %function
 1219              	SigGen_init:
 1220              	.LFB71:
 160:..\common\ud3core/SignalGenerator.c ****     //initialize flags needed for masking voices
 1221              		.loc 1 160 0
 1222              		.cfi_startproc
 1223              		@ args = 0, pretend = 0, frame = 0
 1224              		@ frame_needed = 0, uses_anonymous_args = 0
 1225              	.LVL115:
 1226              	.LBB53:
 163:..\common\ud3core/SignalGenerator.c ****     }
 1227              		.loc 1 163 0
 1228 0000 184B     		ldr	r3, .L167
 1229              	.LBE53:
 160:..\common\ud3core/SignalGenerator.c ****     //initialize flags needed for masking voices
 1230              		.loc 1 160 0
 1231 0002 37B5     		push	{r0, r1, r2, r4, r5, lr}
 1232              		.cfi_def_cfa_offset 24
 1233              		.cfi_offset 4, -12
 1234              		.cfi_offset 5, -8
 1235              		.cfi_offset 14, -4
 1236              	.LBB54:
 163:..\common\ud3core/SignalGenerator.c ****     }
 1237              		.loc 1 163 0
 1238 0004 0425     		movs	r5, #4
 1239 0006 0122     		movs	r2, #1
 1240 0008 0224     		movs	r4, #2
 1241 000a 83E83400 		stmia	r3, {r2, r4, r5}
 1242              	.LVL116:
 1243 000e 0822     		movs	r2, #8
 1244 0010 DA60     		str	r2, [r3, #12]
 1245              	.LVL117:
ARM GAS  C:\Users\chemi\AppData\Local\Temp\ccbZzKkH.s 			page 41


 1246 0012 1022     		movs	r2, #16
 1247 0014 1A61     		str	r2, [r3, #16]
 1248              	.LVL118:
 1249              	.LBE54:
 166:..\common\ud3core/SignalGenerator.c ****     memset((void *)data, 0, sizeof(SigGen_taskData_t));
 1250              		.loc 1 166 0
 1251 0016 4FF42370 		mov	r0, #652
 1252              	.LBB55:
 163:..\common\ud3core/SignalGenerator.c ****     }
 1253              		.loc 1 163 0
 1254 001a 2022     		movs	r2, #32
 1255 001c 5A61     		str	r2, [r3, #20]
 1256              	.LVL119:
 1257              	.LBE55:
 166:..\common\ud3core/SignalGenerator.c ****     memset((void *)data, 0, sizeof(SigGen_taskData_t));
 1258              		.loc 1 166 0
 1259 001e FFF7FEFF 		bl	pvPortMalloc
 1260              	.LVL120:
 1261 0022 0446     		mov	r4, r0
 1262              	.LVL121:
 167:..\common\ud3core/SignalGenerator.c ****     taskData = data;
 1263              		.loc 1 167 0
 1264 0024 4FF42372 		mov	r2, #652
 1265 0028 0021     		movs	r1, #0
 1266 002a FFF7FEFF 		bl	memset
 1267              	.LVL122:
 168:..\common\ud3core/SignalGenerator.c ****     
 1268              		.loc 1 168 0
 1269 002e 0E4B     		ldr	r3, .L167+4
 171:..\common\ud3core/SignalGenerator.c ****     
 1270              		.loc 1 171 0
 1271 0030 0C21     		movs	r1, #12
 1272 0032 4020     		movs	r0, #64
 168:..\common\ud3core/SignalGenerator.c ****     
 1273              		.loc 1 168 0
 1274 0034 1C60     		str	r4, [r3]
 171:..\common\ud3core/SignalGenerator.c ****     
 1275              		.loc 1 171 0
 1276 0036 FFF7FEFF 		bl	RingBuffer_create
 1277              	.LVL123:
 1278 003a C4F87402 		str	r0, [r4, #628]
 176:..\common\ud3core/SignalGenerator.c ****     interrupterIRQ_StartEx(SigGen_PulseTimerISR);
 1279              		.loc 1 176 0
 1280 003e FFF7FEFF 		bl	interrupterTimebase_Init
 1281              	.LVL124:
 177:..\common\ud3core/SignalGenerator.c ****     
 1282              		.loc 1 177 0
 1283 0042 0A48     		ldr	r0, .L167+8
 1284 0044 FFF7FEFF 		bl	interrupterIRQ_StartEx
 1285              	.LVL125:
 179:..\common\ud3core/SignalGenerator.c ****     
 1286              		.loc 1 179 0
 1287 0048 0948     		ldr	r0, .L167+12
 1288 004a FFF7FEFF 		bl	isr_midi_StartEx
 1289              	.LVL126:
 181:..\common\ud3core/SignalGenerator.c **** }
 1290              		.loc 1 181 0
ARM GAS  C:\Users\chemi\AppData\Local\Temp\ccbZzKkH.s 			page 42


 1291 004e 0023     		movs	r3, #0
 1292 0050 0193     		str	r3, [sp, #4]
 1293 0052 0095     		str	r5, [sp]
 1294 0054 2346     		mov	r3, r4
 1295 0056 E422     		movs	r2, #228
 1296 0058 0649     		ldr	r1, .L167+16
 1297 005a 0748     		ldr	r0, .L167+20
 1298 005c FFF7FEFF 		bl	xTaskCreate
 1299              	.LVL127:
 182:..\common\ud3core/SignalGenerator.c **** 
 1300              		.loc 1 182 0
 1301 0060 03B0     		add	sp, sp, #12
 1302              		.cfi_def_cfa_offset 12
 1303              		@ sp needed
 1304 0062 30BD     		pop	{r4, r5, pc}
 1305              	.LVL128:
 1306              	.L168:
 1307              		.align	2
 1308              	.L167:
 1309 0064 00000000 		.word	VoiceFlags
 1310 0068 00000000 		.word	.LANCHOR0
 1311 006c 00000000 		.word	SigGen_PulseTimerISR
 1312 0070 00000000 		.word	isr_synth
 1313 0074 00000000 		.word	.LC0
 1314 0078 00000000 		.word	SigGen_task
 1315              		.cfi_endproc
 1316              	.LFE71:
 1317              		.size	SigGen_init, .-SigGen_init
 1318              		.section	.text.SigGen_getCurrDuty,"ax",%progbits
 1319              		.align	1
 1320              		.global	SigGen_getCurrDuty
 1321              		.thumb
 1322              		.thumb_func
 1323              		.type	SigGen_getCurrDuty, %function
 1324              	SigGen_getCurrDuty:
 1325              	.LFB72:
 185:..\common\ud3core/SignalGenerator.c ****     uint32_t totalDuty = 0; //DER TOTAAALE TASTGRAD
 1326              		.loc 1 185 0
 1327              		.cfi_startproc
 1328              		@ args = 0, pretend = 0, frame = 0
 1329              		@ frame_needed = 0, uses_anonymous_args = 0
 1330              	.LVL129:
 1331 0000 F8B5     		push	{r3, r4, r5, r6, r7, lr}
 1332              		.cfi_def_cfa_offset 24
 1333              		.cfi_offset 3, -24
 1334              		.cfi_offset 4, -20
 1335              		.cfi_offset 5, -16
 1336              		.cfi_offset 6, -12
 1337              		.cfi_offset 7, -8
 1338              		.cfi_offset 14, -4
 1339              	.LBB56:
 189:..\common\ud3core/SignalGenerator.c ****         if(!taskData->voice[currVoice].enabled) continue;
 1340              		.loc 1 189 0
 1341 0002 0025     		movs	r5, #0
 1342              	.LBE56:
 186:..\common\ud3core/SignalGenerator.c ****     
 1343              		.loc 1 186 0
ARM GAS  C:\Users\chemi\AppData\Local\Temp\ccbZzKkH.s 			page 43


 1344 0004 2C46     		mov	r4, r5
 1345              	.LBB58:
 1346              	.LBB57:
 190:..\common\ud3core/SignalGenerator.c ****         
 1347              		.loc 1 190 0
 1348 0006 164B     		ldr	r3, .L181
 195:..\common\ud3core/SignalGenerator.c ****         
 1349              		.loc 1 195 0
 1350 0008 164E     		ldr	r6, .L181+4
 190:..\common\ud3core/SignalGenerator.c ****         
 1351              		.loc 1 190 0
 1352 000a 1F68     		ldr	r7, [r3]
 1353 000c 4FF0680E 		mov	lr, #104
 1354              	.LVL130:
 1355              	.L172:
 1356 0010 0EFB0573 		mla	r3, lr, r5, r7
 1357 0014 9A6A     		ldr	r2, [r3, #40]
 1358 0016 9AB1     		cbz	r2, .L170
 195:..\common\ud3core/SignalGenerator.c ****         
 1359              		.loc 1 195 0
 1360 0018 196D     		ldr	r1, [r3, #80]
 1361 001a 9A6B     		ldr	r2, [r3, #56]
 1362 001c 4A43     		muls	r2, r1, r2
 198:..\common\ud3core/SignalGenerator.c ****             //TODO actually respect the hpv divider in the duty calculation
 1363              		.loc 1 198 0
 1364 001e 196A     		ldr	r1, [r3, #32]
 195:..\common\ud3core/SignalGenerator.c ****         
 1365              		.loc 1 195 0
 1366 0020 92FBF6F2 		sdiv	r2, r2, r6
 1367              	.LVL131:
 198:..\common\ud3core/SignalGenerator.c ****             //TODO actually respect the hpv divider in the duty calculation
 1368              		.loc 1 198 0
 1369 0024 59B1     		cbz	r1, .L171
 198:..\common\ud3core/SignalGenerator.c ****             //TODO actually respect the hpv divider in the duty calculation
 1370              		.loc 1 198 0 is_stmt 0 discriminator 1
 1371 0026 196B     		ldr	r1, [r3, #48]
 1372 0028 49B9     		cbnz	r1, .L171
 201:..\common\ud3core/SignalGenerator.c ****         }
 1373              		.loc 1 201 0 is_stmt 1
 1374 002a 186D     		ldr	r0, [r3, #80]
 1375 002c D3F820C0 		ldr	ip, [r3, #32]
 1376 0030 996B     		ldr	r1, [r3, #56]
 1377 0032 90FBFCF3 		sdiv	r3, r0, ip
 1378 0036 4B43     		muls	r3, r1, r3
 1379 0038 93FBF6F3 		sdiv	r3, r3, r6
 1380 003c 1A44     		add	r2, r2, r3
 1381              	.LVL132:
 1382              	.L171:
 203:..\common\ud3core/SignalGenerator.c ****     }
 1383              		.loc 1 203 0
 1384 003e 1444     		add	r4, r4, r2
 1385              	.LVL133:
 1386              	.L170:
 1387              	.LBE57:
 189:..\common\ud3core/SignalGenerator.c ****         if(!taskData->voice[currVoice].enabled) continue;
 1388              		.loc 1 189 0 discriminator 2
 1389 0040 0135     		adds	r5, r5, #1
ARM GAS  C:\Users\chemi\AppData\Local\Temp\ccbZzKkH.s 			page 44


 1390              	.LVL134:
 1391 0042 062D     		cmp	r5, #6
 1392 0044 E4D1     		bne	.L172
 1393              	.LBE58:
 207:..\common\ud3core/SignalGenerator.c ****     
 1394              		.loc 1 207 0
 1395 0046 FFF7FEFF 		bl	Comp_getGain
 1396              	.LVL135:
 1397 004a 47F6FF73 		movw	r3, #32767
 1398 004e 9842     		cmp	r0, r3
 1399 0050 03D0     		beq	.L173
 207:..\common\ud3core/SignalGenerator.c ****     
 1400              		.loc 1 207 0 is_stmt 0 discriminator 1
 1401 0052 FFF7FEFF 		bl	Comp_getGain
 1402              	.LVL136:
 1403 0056 6043     		muls	r0, r4, r0
 1404 0058 C40B     		lsrs	r4, r0, #15
 1405              	.LVL137:
 1406              	.L173:
 210:..\common\ud3core/SignalGenerator.c **** 
 1407              		.loc 1 210 0 is_stmt 1
 1408 005a 2046     		mov	r0, r4
 1409 005c F8BD     		pop	{r3, r4, r5, r6, r7, pc}
 1410              	.LVL138:
 1411              	.L182:
 1412 005e 00BF     		.align	2
 1413              	.L181:
 1414 0060 00000000 		.word	.LANCHOR0
 1415 0064 A0860100 		.word	100000
 1416              		.cfi_endproc
 1417              	.LFE72:
 1418              		.size	SigGen_getCurrDuty, .-SigGen_getCurrDuty
 1419              		.section	.text.SigGen_isVoiceOn,"ax",%progbits
 1420              		.align	1
 1421              		.global	SigGen_isVoiceOn
 1422              		.thumb
 1423              		.thumb_func
 1424              		.type	SigGen_isVoiceOn, %function
 1425              	SigGen_isVoiceOn:
 1426              	.LFB74:
 238:..\common\ud3core/SignalGenerator.c ****     return taskData->voice[voice].enabled;
 1427              		.loc 1 238 0
 1428              		.cfi_startproc
 1429              		@ args = 0, pretend = 0, frame = 0
 1430              		@ frame_needed = 0, uses_anonymous_args = 0
 1431              		@ link register save eliminated.
 1432              	.LVL139:
 239:..\common\ud3core/SignalGenerator.c **** }
 1433              		.loc 1 239 0
 1434 0000 034B     		ldr	r3, .L184
 1435 0002 1A68     		ldr	r2, [r3]
 1436 0004 6823     		movs	r3, #104
 1437 0006 03FB0020 		mla	r0, r3, r0, r2
 1438              	.LVL140:
 1439 000a 806A     		ldr	r0, [r0, #40]
 240:..\common\ud3core/SignalGenerator.c **** 
 1440              		.loc 1 240 0
ARM GAS  C:\Users\chemi\AppData\Local\Temp\ccbZzKkH.s 			page 45


 1441 000c 7047     		bx	lr
 1442              	.L185:
 1443 000e 00BF     		.align	2
 1444              	.L184:
 1445 0010 00000000 		.word	.LANCHOR0
 1446              		.cfi_endproc
 1447              	.LFE74:
 1448              		.size	SigGen_isVoiceOn, .-SigGen_isVoiceOn
 1449              		.section	.text.SigGen_setHyperVoiceVMS,"ax",%progbits
 1450              		.align	1
 1451              		.global	SigGen_setHyperVoiceVMS
 1452              		.thumb
 1453              		.thumb_func
 1454              		.type	SigGen_setHyperVoiceVMS, %function
 1455              	SigGen_setHyperVoiceVMS:
 1456              	.LFB78:
 357:..\common\ud3core/SignalGenerator.c ****     if(synthMode != SYNTH_MIDI) return;
 1457              		.loc 1 357 0
 1458              		.cfi_startproc
 1459              		@ args = 4, pretend = 0, frame = 0
 1460              		@ frame_needed = 0, uses_anonymous_args = 0
 1461              	.LVL141:
 1462 0000 2DE9F041 		push	{r4, r5, r6, r7, r8, lr}
 1463              		.cfi_def_cfa_offset 24
 1464              		.cfi_offset 4, -24
 1465              		.cfi_offset 5, -20
 1466              		.cfi_offset 6, -16
 1467              		.cfi_offset 7, -12
 1468              		.cfi_offset 8, -8
 1469              		.cfi_offset 14, -4
 357:..\common\ud3core/SignalGenerator.c ****     if(synthMode != SYNTH_MIDI) return;
 1470              		.loc 1 357 0
 1471 0004 0446     		mov	r4, r0
 1472 0006 1046     		mov	r0, r2
 1473              	.LVL142:
 358:..\common\ud3core/SignalGenerator.c ****     SigGen_setHyperVoiceParams(voice, count, getFixedDutyOntime(pulseWidth, taskData->voice[voice].
 1474              		.loc 1 358 0
 1475 0008 0C4A     		ldr	r2, .L188
 1476              	.LVL143:
 357:..\common\ud3core/SignalGenerator.c ****     if(synthMode != SYNTH_MIDI) return;
 1477              		.loc 1 357 0
 1478 000a 1E46     		mov	r6, r3
 358:..\common\ud3core/SignalGenerator.c ****     SigGen_setHyperVoiceParams(voice, count, getFixedDutyOntime(pulseWidth, taskData->voice[voice].
 1479              		.loc 1 358 0
 1480 000c 137C     		ldrb	r3, [r2, #16]	@ zero_extendqisi2
 1481              	.LVL144:
 357:..\common\ud3core/SignalGenerator.c ****     if(synthMode != SYNTH_MIDI) return;
 1482              		.loc 1 357 0
 1483 000e 0D46     		mov	r5, r1
 358:..\common\ud3core/SignalGenerator.c ****     SigGen_setHyperVoiceParams(voice, count, getFixedDutyOntime(pulseWidth, taskData->voice[voice].
 1484              		.loc 1 358 0
 1485 0010 012B     		cmp	r3, #1
 357:..\common\ud3core/SignalGenerator.c ****     if(synthMode != SYNTH_MIDI) return;
 1486              		.loc 1 357 0
 1487 0012 069F     		ldr	r7, [sp, #24]
 358:..\common\ud3core/SignalGenerator.c ****     SigGen_setHyperVoiceParams(voice, count, getFixedDutyOntime(pulseWidth, taskData->voice[voice].
 1488              		.loc 1 358 0
ARM GAS  C:\Users\chemi\AppData\Local\Temp\ccbZzKkH.s 			page 46


 1489 0014 10D1     		bne	.L186
 359:..\common\ud3core/SignalGenerator.c **** }
 1490              		.loc 1 359 0
 1491 0016 1368     		ldr	r3, [r2]
 1492 0018 6822     		movs	r2, #104
 1493 001a 02FB0432 		mla	r2, r2, r4, r3
 1494 001e 916B     		ldr	r1, [r2, #56]
 1495              	.LVL145:
 1496 0020 0022     		movs	r2, #0
 1497 0022 FFF7FEFF 		bl	getFixedDutyOntime
 1498              	.LVL146:
 1499 0026 0697     		str	r7, [sp, #24]
 1500 0028 3346     		mov	r3, r6
 1501 002a 0246     		mov	r2, r0
 1502 002c 2946     		mov	r1, r5
 1503 002e 2046     		mov	r0, r4
 360:..\common\ud3core/SignalGenerator.c **** 
 1504              		.loc 1 360 0
 1505 0030 BDE8F041 		pop	{r4, r5, r6, r7, r8, lr}
 1506              		.cfi_remember_state
 1507              		.cfi_restore 14
 1508              		.cfi_restore 8
 1509              		.cfi_restore 7
 1510              		.cfi_restore 6
 1511              		.cfi_restore 5
 1512              		.cfi_restore 4
 1513              		.cfi_def_cfa_offset 0
 1514              	.LVL147:
 359:..\common\ud3core/SignalGenerator.c **** }
 1515              		.loc 1 359 0
 1516 0034 FFF7FEBF 		b	SigGen_setHyperVoiceParams
 1517              	.LVL148:
 1518              	.L186:
 1519              		.cfi_restore_state
 1520 0038 BDE8F081 		pop	{r4, r5, r6, r7, r8, pc}
 1521              	.LVL149:
 1522              	.L189:
 1523              		.align	2
 1524              	.L188:
 1525 003c 00000000 		.word	.LANCHOR0
 1526              		.cfi_endproc
 1527              	.LFE78:
 1528              		.size	SigGen_setHyperVoiceVMS, .-SigGen_setHyperVoiceVMS
 1529              		.section	.text.SigGen_setHyperVoiceSID,"ax",%progbits
 1530              		.align	1
 1531              		.global	SigGen_setHyperVoiceSID
 1532              		.thumb
 1533              		.thumb_func
 1534              		.type	SigGen_setHyperVoiceSID, %function
 1535              	SigGen_setHyperVoiceSID:
 1536              	.LFB80:
 367:..\common\ud3core/SignalGenerator.c ****     if(synthMode != SYNTH_SID) return;
 1537              		.loc 1 367 0
 1538              		.cfi_startproc
 1539              		@ args = 4, pretend = 0, frame = 0
 1540              		@ frame_needed = 0, uses_anonymous_args = 0
 1541              	.LVL150:
ARM GAS  C:\Users\chemi\AppData\Local\Temp\ccbZzKkH.s 			page 47


 1542 0000 2DE9F041 		push	{r4, r5, r6, r7, r8, lr}
 1543              		.cfi_def_cfa_offset 24
 1544              		.cfi_offset 4, -24
 1545              		.cfi_offset 5, -20
 1546              		.cfi_offset 6, -16
 1547              		.cfi_offset 7, -12
 1548              		.cfi_offset 8, -8
 1549              		.cfi_offset 14, -4
 367:..\common\ud3core/SignalGenerator.c ****     if(synthMode != SYNTH_SID) return;
 1550              		.loc 1 367 0
 1551 0004 0446     		mov	r4, r0
 1552 0006 1046     		mov	r0, r2
 1553              	.LVL151:
 368:..\common\ud3core/SignalGenerator.c ****     SigGen_setHyperVoiceParams(voice, count, getFixedDutyOntime(pulseWidth, taskData->voice[voice].
 1554              		.loc 1 368 0
 1555 0008 0C4A     		ldr	r2, .L192
 1556              	.LVL152:
 367:..\common\ud3core/SignalGenerator.c ****     if(synthMode != SYNTH_SID) return;
 1557              		.loc 1 367 0
 1558 000a 1E46     		mov	r6, r3
 368:..\common\ud3core/SignalGenerator.c ****     SigGen_setHyperVoiceParams(voice, count, getFixedDutyOntime(pulseWidth, taskData->voice[voice].
 1559              		.loc 1 368 0
 1560 000c 137C     		ldrb	r3, [r2, #16]	@ zero_extendqisi2
 1561              	.LVL153:
 367:..\common\ud3core/SignalGenerator.c ****     if(synthMode != SYNTH_SID) return;
 1562              		.loc 1 367 0
 1563 000e 0D46     		mov	r5, r1
 368:..\common\ud3core/SignalGenerator.c ****     SigGen_setHyperVoiceParams(voice, count, getFixedDutyOntime(pulseWidth, taskData->voice[voice].
 1564              		.loc 1 368 0
 1565 0010 022B     		cmp	r3, #2
 367:..\common\ud3core/SignalGenerator.c ****     if(synthMode != SYNTH_SID) return;
 1566              		.loc 1 367 0
 1567 0012 069F     		ldr	r7, [sp, #24]
 368:..\common\ud3core/SignalGenerator.c ****     SigGen_setHyperVoiceParams(voice, count, getFixedDutyOntime(pulseWidth, taskData->voice[voice].
 1568              		.loc 1 368 0
 1569 0014 10D1     		bne	.L190
 369:..\common\ud3core/SignalGenerator.c **** }
 1570              		.loc 1 369 0
 1571 0016 1368     		ldr	r3, [r2]
 1572 0018 6822     		movs	r2, #104
 1573 001a 02FB0432 		mla	r2, r2, r4, r3
 1574 001e 916B     		ldr	r1, [r2, #56]
 1575              	.LVL154:
 1576 0020 0022     		movs	r2, #0
 1577 0022 FFF7FEFF 		bl	getFixedDutyOntime
 1578              	.LVL155:
 1579 0026 0697     		str	r7, [sp, #24]
 1580 0028 3346     		mov	r3, r6
 1581 002a 0246     		mov	r2, r0
 1582 002c 2946     		mov	r1, r5
 1583 002e 2046     		mov	r0, r4
 370:..\common\ud3core/SignalGenerator.c **** 
 1584              		.loc 1 370 0
 1585 0030 BDE8F041 		pop	{r4, r5, r6, r7, r8, lr}
 1586              		.cfi_remember_state
 1587              		.cfi_restore 14
 1588              		.cfi_restore 8
ARM GAS  C:\Users\chemi\AppData\Local\Temp\ccbZzKkH.s 			page 48


 1589              		.cfi_restore 7
 1590              		.cfi_restore 6
 1591              		.cfi_restore 5
 1592              		.cfi_restore 4
 1593              		.cfi_def_cfa_offset 0
 1594              	.LVL156:
 369:..\common\ud3core/SignalGenerator.c **** }
 1595              		.loc 1 369 0
 1596 0034 FFF7FEBF 		b	SigGen_setHyperVoiceParams
 1597              	.LVL157:
 1598              	.L190:
 1599              		.cfi_restore_state
 1600 0038 BDE8F081 		pop	{r4, r5, r6, r7, r8, pc}
 1601              	.LVL158:
 1602              	.L193:
 1603              		.align	2
 1604              	.L192:
 1605 003c 00000000 		.word	.LANCHOR0
 1606              		.cfi_endproc
 1607              	.LFE80:
 1608              		.size	SigGen_setHyperVoiceSID, .-SigGen_setHyperVoiceSID
 1609              		.section	.text.SigGen_limit,"ax",%progbits
 1610              		.align	1
 1611              		.global	SigGen_limit
 1612              		.thumb
 1613              		.thumb_func
 1614              		.type	SigGen_limit, %function
 1615              	SigGen_limit:
 1616              	.LFB82:
 379:..\common\ud3core/SignalGenerator.c ****     //get current dutycycle
 1617              		.loc 1 379 0
 1618              		.cfi_startproc
 1619              		@ args = 0, pretend = 0, frame = 0
 1620              		@ frame_needed = 0, uses_anonymous_args = 0
 1621 0000 2DE9F84F 		push	{r3, r4, r5, r6, r7, r8, r9, r10, fp, lr}
 1622              		.cfi_def_cfa_offset 40
 1623              		.cfi_offset 3, -40
 1624              		.cfi_offset 4, -36
 1625              		.cfi_offset 5, -32
 1626              		.cfi_offset 6, -28
 1627              		.cfi_offset 7, -24
 1628              		.cfi_offset 8, -20
 1629              		.cfi_offset 9, -16
 1630              		.cfi_offset 10, -12
 1631              		.cfi_offset 11, -8
 1632              		.cfi_offset 14, -4
 381:..\common\ud3core/SignalGenerator.c ****     
 1633              		.loc 1 381 0
 1634 0004 FFF7FEFF 		bl	SigGen_getCurrDuty
 1635              	.LVL159:
 384:..\common\ud3core/SignalGenerator.c ****     
 1636              		.loc 1 384 0
 1637 0008 394B     		ldr	r3, .L216
 390:..\common\ud3core/SignalGenerator.c ****     
 1638              		.loc 1 390 0
 1639 000a 3A4F     		ldr	r7, .L216+4
 384:..\common\ud3core/SignalGenerator.c ****     
ARM GAS  C:\Users\chemi\AppData\Local\Temp\ccbZzKkH.s 			page 49


 1640              		.loc 1 384 0
 1641 000c 1B8C     		ldrh	r3, [r3, #32]
 1642 000e 0A25     		movs	r5, #10
 1643 0010 B3FBF5F5 		udiv	r5, r3, r5
 390:..\common\ud3core/SignalGenerator.c ****     
 1644              		.loc 1 390 0
 1645 0014 3B7C     		ldrb	r3, [r7, #16]	@ zero_extendqisi2
 381:..\common\ud3core/SignalGenerator.c ****     
 1646              		.loc 1 381 0
 1647 0016 0446     		mov	r4, r0
 1648              	.LVL160:
 390:..\common\ud3core/SignalGenerator.c ****     
 1649              		.loc 1 390 0
 1650 0018 032B     		cmp	r3, #3
 1651 001a 07D0     		beq	.L195
 390:..\common\ud3core/SignalGenerator.c ****     
 1652              		.loc 1 390 0 is_stmt 0 discriminator 1
 1653 001c FFF7FEFF 		bl	Comp_getMaxDutyOffset
 1654              	.LVL161:
 1655 0020 4028     		cmp	r0, #64
 1656 0022 03D0     		beq	.L195
 390:..\common\ud3core/SignalGenerator.c ****     
 1657              		.loc 1 390 0 discriminator 2
 1658 0024 FFF7FEFF 		bl	Comp_getMaxDutyOffset
 1659              	.LVL162:
 1660 0028 6843     		muls	r0, r5, r0
 1661 002a 8509     		lsrs	r5, r0, #6
 1662              	.LVL163:
 1663              	.L195:
 1664 002c 632D     		cmp	r5, #99
 1665 002e 28BF     		it	cs
 1666 0030 6325     		movcs	r5, #99
 1667              	.LVL164:
 415:..\common\ud3core/SignalGenerator.c ****     
 1668              		.loc 1 415 0 is_stmt 1
 1669 0032 314B     		ldr	r3, .L216+8
 406:..\common\ud3core/SignalGenerator.c ****         //yes! Reduce the scaling factor
 1670              		.loc 1 406 0
 1671 0034 A542     		cmp	r5, r4
 1672              	.LBB59:
 1673              	.LBB60:
 420:..\common\ud3core/SignalGenerator.c ****             taskData->voice[currVoice].limitedEnabled = 0;
 1674              		.loc 1 420 0
 1675 0036 4FF06808 		mov	r8, #104
 1676              	.LBE60:
 1677              	.LBE59:
 386:..\common\ud3core/SignalGenerator.c ****     
 1678              		.loc 1 386 0
 1679 003a 28BF     		it	cs
 1680 003c 47F6FF74 		movwcs	r4, #32767
 1681              	.LVL165:
 1682 0040 9946     		mov	r9, r3
 1683              	.LBB63:
 1684              	.LBB61:
 428:..\common\ud3core/SignalGenerator.c ****         taskData->voice[currVoice].limitedPulseWidth_us = onTime;
 1685              		.loc 1 428 0
 1686 0042 47F6FF7A 		movw	r10, #32767
ARM GAS  C:\Users\chemi\AppData\Local\Temp\ccbZzKkH.s 			page 50


 1687 0046 C346     		mov	fp, r8
 1688              	.LBE61:
 1689              	.LBE63:
 409:..\common\ud3core/SignalGenerator.c ****     }else{
 1690              		.loc 1 409 0
 1691 0048 3CBF     		itt	cc
 1692 004a C5EBC535 		rsbcc	r5, r5, r5, lsl #15
 1693              	.LVL166:
 1694 004e B5FBF4F4 		udivcc	r4, r5, r4
 1695              	.LVL167:
 415:..\common\ud3core/SignalGenerator.c ****     
 1696              		.loc 1 415 0
 1697 0052 0025     		movs	r5, #0
 1698 0054 C3F84051 		str	r5, [r3, #320]
 1699              	.LVL168:
 1700              	.L204:
 1701              	.LBB64:
 1702              	.LBB62:
 420:..\common\ud3core/SignalGenerator.c ****             taskData->voice[currVoice].limitedEnabled = 0;
 1703              		.loc 1 420 0
 1704 0058 3B68     		ldr	r3, [r7]
 1705 005a 08FB0533 		mla	r3, r8, r5, r3
 1706 005e 9A6A     		ldr	r2, [r3, #40]
 1707 0060 0AB9     		cbnz	r2, .L197
 421:..\common\ud3core/SignalGenerator.c ****             continue;
 1708              		.loc 1 421 0
 1709 0062 DA62     		str	r2, [r3, #44]
 422:..\common\ud3core/SignalGenerator.c ****         }
 1710              		.loc 1 422 0
 1711 0064 3FE0     		b	.L198
 1712              	.L197:
 426:..\common\ud3core/SignalGenerator.c ****         onTime = (onTime * ontimeScale) >> 15;
 1713              		.loc 1 426 0
 1714 0066 1E6D     		ldr	r6, [r3, #80]
 1715              	.LVL169:
 428:..\common\ud3core/SignalGenerator.c ****         taskData->voice[currVoice].limitedPulseWidth_us = onTime;
 1716              		.loc 1 428 0
 1717 0068 FFF7FEFF 		bl	Comp_getGain
 1718              	.LVL170:
 427:..\common\ud3core/SignalGenerator.c ****         if(Comp_getGain() != COMP_UNITYGAIN) onTime = (onTime * Comp_getGain()) >> 15;
 1719              		.loc 1 427 0
 1720 006c 6643     		muls	r6, r4, r6
 1721              	.LVL171:
 428:..\common\ud3core/SignalGenerator.c ****         taskData->voice[currVoice].limitedPulseWidth_us = onTime;
 1722              		.loc 1 428 0
 1723 006e 5045     		cmp	r0, r10
 427:..\common\ud3core/SignalGenerator.c ****         if(Comp_getGain() != COMP_UNITYGAIN) onTime = (onTime * Comp_getGain()) >> 15;
 1724              		.loc 1 427 0
 1725 0070 4FEAD636 		lsr	r6, r6, #15
 1726              	.LVL172:
 428:..\common\ud3core/SignalGenerator.c ****         taskData->voice[currVoice].limitedPulseWidth_us = onTime;
 1727              		.loc 1 428 0
 1728 0074 03D0     		beq	.L199
 428:..\common\ud3core/SignalGenerator.c ****         taskData->voice[currVoice].limitedPulseWidth_us = onTime;
 1729              		.loc 1 428 0 is_stmt 0 discriminator 1
 1730 0076 FFF7FEFF 		bl	Comp_getGain
 1731              	.LVL173:
ARM GAS  C:\Users\chemi\AppData\Local\Temp\ccbZzKkH.s 			page 51


 1732 007a 7043     		muls	r0, r6, r0
 1733 007c C60B     		lsrs	r6, r0, #15
 1734              	.LVL174:
 1735              	.L199:
 429:..\common\ud3core/SignalGenerator.c ****         taskData->voice[currVoice].limitedPeriod = taskData->voice[currVoice].period;
 1736              		.loc 1 429 0 is_stmt 1
 1737 007e 08FB05F1 		mul	r1, r8, r5
 1738 0082 3B68     		ldr	r3, [r7]
 1739 0084 5A18     		adds	r2, r3, r1
 1740 0086 5665     		str	r6, [r2, #84]
 430:..\common\ud3core/SignalGenerator.c ****         
 1741              		.loc 1 430 0
 1742 0088 1069     		ldr	r0, [r2, #16]
 1743 008a 5061     		str	r0, [r2, #20]
 433:..\common\ud3core/SignalGenerator.c ****         
 1744              		.loc 1 433 0
 1745 008c 5E58     		ldr	r6, [r3, r1]
 1746              	.LVL175:
 1747 008e 5069     		ldr	r0, [r2, #20]
 1748 0090 8642     		cmp	r6, r0
 1749 0092 C4BF     		itt	gt
 1750 0094 5269     		ldrgt	r2, [r2, #20]
 1751 0096 5A50     		strgt	r2, [r3, r1]
 436:..\common\ud3core/SignalGenerator.c ****             onTime = taskData->voice[currVoice].hpvPulseWidth_us;
 1752              		.loc 1 436 0
 1753 0098 0BFB0532 		mla	r2, fp, r5, r3
 1754 009c 116A     		ldr	r1, [r2, #32]
 1755 009e A1B1     		cbz	r1, .L201
 436:..\common\ud3core/SignalGenerator.c ****             onTime = taskData->voice[currVoice].hpvPulseWidth_us;
 1756              		.loc 1 436 0 is_stmt 0 discriminator 1
 1757 00a0 116B     		ldr	r1, [r2, #48]
 1758 00a2 91B9     		cbnz	r1, .L201
 437:..\common\ud3core/SignalGenerator.c ****             onTime = (onTime * ontimeScale) >> 15;
 1759              		.loc 1 437 0 is_stmt 1
 1760 00a4 966D     		ldr	r6, [r2, #88]
 1761              	.LVL176:
 439:..\common\ud3core/SignalGenerator.c ****             taskData->voice[currVoice].limitedHpvPulseWidth_us = onTime;
 1762              		.loc 1 439 0
 1763 00a6 FFF7FEFF 		bl	Comp_getGain
 1764              	.LVL177:
 438:..\common\ud3core/SignalGenerator.c ****             if(Comp_getGain() != COMP_UNITYGAIN) onTime = (onTime * Comp_getGain()) >> 15;
 1765              		.loc 1 438 0
 1766 00aa 6643     		muls	r6, r4, r6
 1767              	.LVL178:
 439:..\common\ud3core/SignalGenerator.c ****             taskData->voice[currVoice].limitedHpvPulseWidth_us = onTime;
 1768              		.loc 1 439 0
 1769 00ac 5045     		cmp	r0, r10
 438:..\common\ud3core/SignalGenerator.c ****             if(Comp_getGain() != COMP_UNITYGAIN) onTime = (onTime * Comp_getGain()) >> 15;
 1770              		.loc 1 438 0
 1771 00ae 4FEAD636 		lsr	r6, r6, #15
 1772              	.LVL179:
 439:..\common\ud3core/SignalGenerator.c ****             taskData->voice[currVoice].limitedHpvPulseWidth_us = onTime;
 1773              		.loc 1 439 0
 1774 00b2 03D0     		beq	.L202
 439:..\common\ud3core/SignalGenerator.c ****             taskData->voice[currVoice].limitedHpvPulseWidth_us = onTime;
 1775              		.loc 1 439 0 is_stmt 0 discriminator 1
 1776 00b4 FFF7FEFF 		bl	Comp_getGain
ARM GAS  C:\Users\chemi\AppData\Local\Temp\ccbZzKkH.s 			page 52


 1777              	.LVL180:
 1778 00b8 7043     		muls	r0, r6, r0
 1779 00ba C60B     		lsrs	r6, r0, #15
 1780              	.LVL181:
 1781              	.L202:
 440:..\common\ud3core/SignalGenerator.c ****             
 1782              		.loc 1 440 0 is_stmt 1
 1783 00bc 3B68     		ldr	r3, [r7]
 1784 00be 08FB0533 		mla	r3, r8, r5, r3
 1785 00c2 DE65     		str	r6, [r3, #92]
 442:..\common\ud3core/SignalGenerator.c ****         }else{
 1786              		.loc 1 442 0
 1787 00c4 1A6A     		ldr	r2, [r3, #32]
 1788 00c6 5A62     		str	r2, [r3, #36]
 1789 00c8 03E0     		b	.L203
 1790              	.LVL182:
 1791              	.L201:
 444:..\common\ud3core/SignalGenerator.c ****         }
 1792              		.loc 1 444 0
 1793 00ca 08FB0533 		mla	r3, r8, r5, r3
 1794 00ce 0022     		movs	r2, #0
 1795 00d0 DA65     		str	r2, [r3, #92]
 1796              	.L203:
 447:..\common\ud3core/SignalGenerator.c ****         
 1797              		.loc 1 447 0
 1798 00d2 3B68     		ldr	r3, [r7]
 1799 00d4 08FB0533 		mla	r3, r8, r5, r3
 1800 00d8 9A6A     		ldr	r2, [r3, #40]
 1801 00da DA62     		str	r2, [r3, #44]
 450:..\common\ud3core/SignalGenerator.c ****     }
 1802              		.loc 1 450 0
 1803 00dc D9F84031 		ldr	r3, [r9, #320]
 1804 00e0 0133     		adds	r3, r3, #1
 1805 00e2 C9F84031 		str	r3, [r9, #320]
 1806              	.L198:
 1807              	.LBE62:
 418:..\common\ud3core/SignalGenerator.c ****         //if a voice is disabled we don't need to change anything
 1808              		.loc 1 418 0 discriminator 2
 1809 00e6 0135     		adds	r5, r5, #1
 1810              	.LVL183:
 1811 00e8 062D     		cmp	r5, #6
 1812 00ea B5D1     		bne	.L204
 1813              	.LBE64:
 452:..\common\ud3core/SignalGenerator.c **** 
 1814              		.loc 1 452 0
 1815 00ec BDE8F88F 		pop	{r3, r4, r5, r6, r7, r8, r9, r10, fp, pc}
 1816              	.LVL184:
 1817              	.L217:
 1818              		.align	2
 1819              	.L216:
 1820 00f0 00000000 		.word	configuration
 1821 00f4 00000000 		.word	.LANCHOR0
 1822 00f8 00000000 		.word	tt
 1823              		.cfi_endproc
 1824              	.LFE82:
 1825              		.size	SigGen_limit, .-SigGen_limit
 1826              		.section	.text.SigGen_setVoiceParams,"ax",%progbits
ARM GAS  C:\Users\chemi\AppData\Local\Temp\ccbZzKkH.s 			page 53


 1827              		.align	1
 1828              		.thumb
 1829              		.thumb_func
 1830              		.type	SigGen_setVoiceParams, %function
 1831              	SigGen_setVoiceParams:
 1832              	.LFB75:
 244:..\common\ud3core/SignalGenerator.c ****     IsOkToPrint = 1;
 1833              		.loc 1 244 0
 1834              		.cfi_startproc
 1835              		@ args = 16, pretend = 0, frame = 8
 1836              		@ frame_needed = 0, uses_anonymous_args = 0
 1837              	.LVL185:
 1838 0000 2DE9F04F 		push	{r4, r5, r6, r7, r8, r9, r10, fp, lr}
 1839              		.cfi_def_cfa_offset 36
 1840              		.cfi_offset 4, -36
 1841              		.cfi_offset 5, -32
 1842              		.cfi_offset 6, -28
 1843              		.cfi_offset 7, -24
 1844              		.cfi_offset 8, -20
 1845              		.cfi_offset 9, -16
 1846              		.cfi_offset 10, -12
 1847              		.cfi_offset 11, -8
 1848              		.cfi_offset 14, -4
 245:..\common\ud3core/SignalGenerator.c ****     
 1849              		.loc 1 245 0
 1850 0004 3E4C     		ldr	r4, .L248
 244:..\common\ud3core/SignalGenerator.c ****     IsOkToPrint = 1;
 1851              		.loc 1 244 0
 1852 0006 85B0     		sub	sp, sp, #20
 1853              		.cfi_def_cfa_offset 56
 244:..\common\ud3core/SignalGenerator.c ****     IsOkToPrint = 1;
 1854              		.loc 1 244 0
 1855 0008 9346     		mov	fp, r2
 1856 000a 1F46     		mov	r7, r3
 1857 000c 0FAA     		add	r2, sp, #60
 1858              	.LVL186:
 245:..\common\ud3core/SignalGenerator.c ****     
 1859              		.loc 1 245 0
 1860 000e 0123     		movs	r3, #1
 1861              	.LVL187:
 244:..\common\ud3core/SignalGenerator.c ****     IsOkToPrint = 1;
 1862              		.loc 1 244 0
 1863 0010 0546     		mov	r5, r0
 1864 0012 92E80405 		ldmia	r2, {r2, r8, r10}
 1865              	.LVL188:
 1866 0016 DDF83890 		ldr	r9, [sp, #56]
 245:..\common\ud3core/SignalGenerator.c ****     
 1867              		.loc 1 245 0
 1868 001a A361     		str	r3, [r4, #24]
 250:..\common\ud3core/SignalGenerator.c ****     
 1869              		.loc 1 250 0
 1870 001c 29B1     		cbz	r1, .L231
 250:..\common\ud3core/SignalGenerator.c ****     
 1871              		.loc 1 250 0 is_stmt 0 discriminator 1
 1872 001e 37B1     		cbz	r7, .L232
 250:..\common\ud3core/SignalGenerator.c ****     
 1873              		.loc 1 250 0 discriminator 3
ARM GAS  C:\Users\chemi\AppData\Local\Temp\ccbZzKkH.s 			page 54


 1874 0020 19F10006 		adds	r6, r9, #0
 1875 0024 18BF     		it	ne
 1876 0026 0126     		movne	r6, #1
 1877 0028 02E0     		b	.L219
 1878              	.L231:
 250:..\common\ud3core/SignalGenerator.c ****     
 1879              		.loc 1 250 0
 1880 002a 0E46     		mov	r6, r1
 1881 002c 00E0     		b	.L219
 1882              	.L232:
 1883 002e 3E46     		mov	r6, r7
 1884              	.L219:
 1885              	.LVL189:
 253:..\common\ud3core/SignalGenerator.c ****         //yes => reset the timebase for the note
 1886              		.loc 1 253 0 is_stmt 1 discriminator 8
 1887 0030 6823     		movs	r3, #104
 1888 0032 6B43     		muls	r3, r5, r3
 1889 0034 2168     		ldr	r1, [r4]
 1890              	.LVL190:
 1891 0036 C818     		adds	r0, r1, r3
 1892              	.LVL191:
 1893 0038 806A     		ldr	r0, [r0, #40]
 1894 003a 78B9     		cbnz	r0, .L221
 253:..\common\ud3core/SignalGenerator.c ****         //yes => reset the timebase for the note
 1895              		.loc 1 253 0 is_stmt 0 discriminator 1
 1896 003c 76B1     		cbz	r6, .L221
 255:..\common\ud3core/SignalGenerator.c ****         if(configuration.is_qcw && synthMode != SYNTH_TR){
 1897              		.loc 1 255 0 is_stmt 1
 1898 003e C850     		str	r0, [r1, r3]
 256:..\common\ud3core/SignalGenerator.c ****             qcw_cmd_midi_pulse(volume, frequencyTenths);   
 1899              		.loc 1 256 0
 1900 0040 304B     		ldr	r3, .L248+4
 1901 0042 93F85C30 		ldrb	r3, [r3, #92]	@ zero_extendqisi2
 1902 0046 4BB1     		cbz	r3, .L221
 256:..\common\ud3core/SignalGenerator.c ****             qcw_cmd_midi_pulse(volume, frequencyTenths);   
 1903              		.loc 1 256 0 is_stmt 0 discriminator 1
 1904 0048 2D4B     		ldr	r3, .L248
 1905 004a 1B7C     		ldrb	r3, [r3, #16]	@ zero_extendqisi2
 1906 004c 032B     		cmp	r3, #3
 1907 004e 05D0     		beq	.L221
 257:..\common\ud3core/SignalGenerator.c ****         }
 1908              		.loc 1 257 0 is_stmt 1
 1909 0050 4946     		mov	r1, r9
 1910 0052 3846     		mov	r0, r7
 1911 0054 0392     		str	r2, [sp, #12]
 1912 0056 FFF7FEFF 		bl	qcw_cmd_midi_pulse
 1913              	.LVL192:
 1914 005a 039A     		ldr	r2, [sp, #12]
 1915              	.L221:
 261:..\common\ud3core/SignalGenerator.c ****     
 1916              		.loc 1 261 0
 1917 005c 2068     		ldr	r0, [r4]
 1918 005e 6824     		movs	r4, #104
 1919 0060 04FB0504 		mla	r4, r4, r5, r0
 1920 0064 A662     		str	r6, [r4, #40]
 263:..\common\ud3core/SignalGenerator.c ****         taskData->voice[voice].enabled = 0;
 1921              		.loc 1 263 0
ARM GAS  C:\Users\chemi\AppData\Local\Temp\ccbZzKkH.s 			page 55


 1922 0066 A36A     		ldr	r3, [r4, #40]
 1923 0068 13B1     		cbz	r3, .L223
 263:..\common\ud3core/SignalGenerator.c ****         taskData->voice[voice].enabled = 0;
 1924              		.loc 1 263 0 is_stmt 0 discriminator 1
 1925 006a 274B     		ldr	r3, .L248+8
 1926 006c 1B68     		ldr	r3, [r3]
 1927 006e 33B9     		cbnz	r3, .L224
 1928              	.L223:
 264:..\common\ud3core/SignalGenerator.c ****         taskData->voice[voice].limitedEnabled = 0;
 1929              		.loc 1 264 0 is_stmt 1
 1930 0070 6823     		movs	r3, #104
 1931 0072 03FB0500 		mla	r0, r3, r5, r0
 1932 0076 0023     		movs	r3, #0
 1933 0078 8362     		str	r3, [r0, #40]
 265:..\common\ud3core/SignalGenerator.c ****         
 1934              		.loc 1 265 0
 1935 007a C362     		str	r3, [r0, #44]
 1936 007c 3AE0     		b	.L230
 1937              	.L224:
 274:..\common\ud3core/SignalGenerator.c ****     
 1938              		.loc 1 274 0
 1939 007e 7B43     		muls	r3, r7, r3
 1940 0080 DB0B     		lsrs	r3, r3, #15
 272:..\common\ud3core/SignalGenerator.c ****     
 1941              		.loc 1 272 0
 1942 0082 A764     		str	r7, [r4, #72]
 274:..\common\ud3core/SignalGenerator.c ****     
 1943              		.loc 1 274 0
 1944 0084 6364     		str	r3, [r4, #68]
 280:..\common\ud3core/SignalGenerator.c ****     //TODO perhaps reset the counter if the period that was on it before was much longer than the c
 1945              		.loc 1 280 0
 1946 0086 214B     		ldr	r3, .L248+12
 276:..\common\ud3core/SignalGenerator.c ****     taskData->voice[voice].frequencyTenths = frequencyTenths;
 1947              		.loc 1 276 0
 1948 0088 C4F850B0 		str	fp, [r4, #80]
 280:..\common\ud3core/SignalGenerator.c ****     //TODO perhaps reset the counter if the period that was on it before was much longer than the c
 1949              		.loc 1 280 0
 1950 008c 93FBF9F3 		sdiv	r3, r3, r9
 277:..\common\ud3core/SignalGenerator.c ****     
 1951              		.loc 1 277 0
 1952 0090 C4F83890 		str	r9, [r4, #56]
 280:..\common\ud3core/SignalGenerator.c ****     //TODO perhaps reset the counter if the period that was on it before was much longer than the c
 1953              		.loc 1 280 0
 1954 0094 2361     		str	r3, [r4, #16]
 283:..\common\ud3core/SignalGenerator.c ****         taskData->voice[voice].noiseAmplitude = taskData->voice[voice].period >> 1;
 1955              		.loc 1 283 0
 1956 0096 2369     		ldr	r3, [r4, #16]
 1957 0098 B2EB630F 		cmp	r2, r3, asr #1
 284:..\common\ud3core/SignalGenerator.c ****     }else{
 1958              		.loc 1 284 0
 1959 009c C9BF     		itett	gt
 1960 009e 2369     		ldrgt	r3, [r4, #16]
 286:..\common\ud3core/SignalGenerator.c ****     }
 1961              		.loc 1 286 0
 1962 00a0 2263     		strle	r2, [r4, #48]
 284:..\common\ud3core/SignalGenerator.c ****     }else{
 1963              		.loc 1 284 0
ARM GAS  C:\Users\chemi\AppData\Local\Temp\ccbZzKkH.s 			page 56


 1964 00a2 5B10     		asrgt	r3, r3, #1
 1965 00a4 2363     		strgt	r3, [r4, #48]
 290:..\common\ud3core/SignalGenerator.c ****         //yes, setup burst counter
 1966              		.loc 1 290 0
 1967 00a6 BAF1000F 		cmp	r10, #0
 1968 00aa 4FF06803 		mov	r3, #104
 1969 00ae 0FDD     		ble	.L227
 1970              	.LBB65:
 293:..\common\ud3core/SignalGenerator.c ****         if(taskData->voice[voice].burstCounter > taskData->voice[voice].burstPeriod) taskData->voic
 1971              		.loc 1 293 0
 1972 00b0 03FB0503 		mla	r3, r3, r5, r0
 292:..\common\ud3core/SignalGenerator.c ****         taskData->voice[voice].burstPeriod = burstPeriod_us;
 1973              		.loc 1 292 0
 1974 00b4 0AEB0802 		add	r2, r10, r8
 1975              	.LVL193:
 293:..\common\ud3core/SignalGenerator.c ****         if(taskData->voice[voice].burstCounter > taskData->voice[voice].burstPeriod) taskData->voic
 1976              		.loc 1 293 0
 1977 00b8 1A66     		str	r2, [r3, #96]
 294:..\common\ud3core/SignalGenerator.c ****         
 1978              		.loc 1 294 0
 1979 00ba 5C68     		ldr	r4, [r3, #4]
 1980 00bc 196E     		ldr	r1, [r3, #96]
 1981 00be 8C42     		cmp	r4, r1
 1982 00c0 C8BF     		it	gt
 1983 00c2 5A60     		strgt	r2, [r3, #4]
 297:..\common\ud3core/SignalGenerator.c ****     }else{
 1984              		.loc 1 297 0
 1985 00c4 6823     		movs	r3, #104
 1986 00c6 03FB0503 		mla	r3, r3, r5, r0
 1987 00ca C3F864A0 		str	r10, [r3, #100]
 1988              	.LBE65:
 1989 00ce 04E0     		b	.L229
 1990              	.LVL194:
 1991              	.L227:
 299:..\common\ud3core/SignalGenerator.c ****         taskData->voice[voice].burstCounter = 0;
 1992              		.loc 1 299 0
 1993 00d0 03FB0503 		mla	r3, r3, r5, r0
 1994 00d4 0022     		movs	r2, #0
 1995 00d6 1A66     		str	r2, [r3, #96]
 300:..\common\ud3core/SignalGenerator.c ****     }
 1996              		.loc 1 300 0
 1997 00d8 5A60     		str	r2, [r3, #4]
 1998              	.L229:
 304:..\common\ud3core/SignalGenerator.c ****     
 1999              		.loc 1 304 0
 2000 00da 6823     		movs	r3, #104
 2001 00dc 03FB0500 		mla	r0, r3, r5, r0
 2002 00e0 036A     		ldr	r3, [r0, #32]
 2003 00e2 3BB1     		cbz	r3, .L230
 304:..\common\ud3core/SignalGenerator.c ****     
 2004              		.loc 1 304 0 is_stmt 0 discriminator 1
 2005 00e4 016A     		ldr	r1, [r0, #32]
 2006 00e6 826D     		ldr	r2, [r0, #88]
 2007 00e8 036C     		ldr	r3, [r0, #64]
 2008 00ea C06B     		ldr	r0, [r0, #60]
 2009 00ec 0090     		str	r0, [sp]
 2010 00ee 2846     		mov	r0, r5
ARM GAS  C:\Users\chemi\AppData\Local\Temp\ccbZzKkH.s 			page 57


 2011 00f0 FFF7FEFF 		bl	SigGen_setHyperVoiceParams
 2012              	.LVL195:
 2013              	.L230:
 307:..\common\ud3core/SignalGenerator.c **** 
 2014              		.loc 1 307 0 is_stmt 1
 2015 00f4 05B0     		add	sp, sp, #20
 2016              		.cfi_def_cfa_offset 36
 2017              		@ sp needed
 2018 00f6 BDE8F04F 		pop	{r4, r5, r6, r7, r8, r9, r10, fp, lr}
 2019              		.cfi_restore 14
 2020              		.cfi_restore 11
 2021              		.cfi_restore 10
 2022              		.cfi_restore 9
 2023              		.cfi_restore 8
 2024              		.cfi_restore 7
 2025              		.cfi_restore 6
 2026              		.cfi_restore 5
 2027              		.cfi_restore 4
 2028              		.cfi_def_cfa_offset 0
 2029              	.LVL196:
 306:..\common\ud3core/SignalGenerator.c **** }
 2030              		.loc 1 306 0
 2031 00fa FFF7FEBF 		b	SigGen_limit
 2032              	.LVL197:
 2033              	.L249:
 2034 00fe 00BF     		.align	2
 2035              	.L248:
 2036 0100 00000000 		.word	.LANCHOR0
 2037 0104 00000000 		.word	configuration
 2038 0108 00000000 		.word	.LANCHOR1
 2039 010c 80969800 		.word	10000000
 2040              		.cfi_endproc
 2041              	.LFE75:
 2042              		.size	SigGen_setVoiceParams, .-SigGen_setVoiceParams
 2043              		.section	.text.SigGen_setVoiceVMS,"ax",%progbits
 2044              		.align	1
 2045              		.global	SigGen_setVoiceVMS
 2046              		.thumb
 2047              		.thumb_func
 2048              		.type	SigGen_setVoiceVMS, %function
 2049              	SigGen_setVoiceVMS:
 2050              	.LFB77:
 352:..\common\ud3core/SignalGenerator.c ****     if(synthMode != SYNTH_MIDI) return;
 2051              		.loc 1 352 0
 2052              		.cfi_startproc
 2053              		@ args = 16, pretend = 0, frame = 0
 2054              		@ frame_needed = 0, uses_anonymous_args = 0
 2055              	.LVL198:
 2056 0000 2DE9F047 		push	{r4, r5, r6, r7, r8, r9, r10, lr}
 2057              		.cfi_def_cfa_offset 32
 2058              		.cfi_offset 4, -32
 2059              		.cfi_offset 5, -28
 2060              		.cfi_offset 6, -24
 2061              		.cfi_offset 7, -20
 2062              		.cfi_offset 8, -16
 2063              		.cfi_offset 9, -12
 2064              		.cfi_offset 10, -8
ARM GAS  C:\Users\chemi\AppData\Local\Temp\ccbZzKkH.s 			page 58


 2065              		.cfi_offset 14, -4
 352:..\common\ud3core/SignalGenerator.c ****     if(synthMode != SYNTH_MIDI) return;
 2066              		.loc 1 352 0
 2067 0004 9846     		mov	r8, r3
 353:..\common\ud3core/SignalGenerator.c ****     
 2068              		.loc 1 353 0
 2069 0006 104B     		ldr	r3, .L252
 2070              	.LVL199:
 352:..\common\ud3core/SignalGenerator.c ****     if(synthMode != SYNTH_MIDI) return;
 2071              		.loc 1 352 0
 2072 0008 08AC     		add	r4, sp, #32
 2073              	.LVL200:
 353:..\common\ud3core/SignalGenerator.c ****     
 2074              		.loc 1 353 0
 2075 000a 1B7C     		ldrb	r3, [r3, #16]	@ zero_extendqisi2
 352:..\common\ud3core/SignalGenerator.c ****     if(synthMode != SYNTH_MIDI) return;
 2076              		.loc 1 352 0
 2077 000c 0646     		mov	r6, r0
 2078 000e 94E83006 		ldmia	r4, {r4, r5, r9, r10}
 2079              	.LVL201:
 353:..\common\ud3core/SignalGenerator.c ****     
 2080              		.loc 1 353 0
 2081 0012 012B     		cmp	r3, #1
 352:..\common\ud3core/SignalGenerator.c ****     if(synthMode != SYNTH_MIDI) return;
 2082              		.loc 1 352 0
 2083 0014 0F46     		mov	r7, r1
 2084 0016 1046     		mov	r0, r2
 2085              	.LVL202:
 353:..\common\ud3core/SignalGenerator.c ****     
 2086              		.loc 1 353 0
 2087 0018 14D1     		bne	.L250
 355:..\common\ud3core/SignalGenerator.c **** }
 2088              		.loc 1 355 0
 2089 001a 002D     		cmp	r5, #0
 2090 001c 2146     		mov	r1, r4
 2091              	.LVL203:
 2092 001e D4BF     		ite	le
 2093 0020 0022     		movle	r2, #0
 2094              	.LVL204:
 2095 0022 0122     		movgt	r2, #1
 2096 0024 FFF7FEFF 		bl	getFixedDutyOntime
 2097              	.LVL205:
 2098 0028 CDF82CA0 		str	r10, [sp, #44]
 2099 002c CDF82890 		str	r9, [sp, #40]
 2100 0030 0995     		str	r5, [sp, #36]
 2101 0032 0894     		str	r4, [sp, #32]
 2102 0034 4346     		mov	r3, r8
 2103 0036 0246     		mov	r2, r0
 2104 0038 3946     		mov	r1, r7
 2105 003a 3046     		mov	r0, r6
 356:..\common\ud3core/SignalGenerator.c **** void SigGen_setHyperVoiceVMS(uint32_t voice, uint32_t count, uint32_t pulseWidth, uint32_t volume, 
 2106              		.loc 1 356 0
 2107 003c BDE8F047 		pop	{r4, r5, r6, r7, r8, r9, r10, lr}
 2108              		.cfi_remember_state
 2109              		.cfi_restore 14
 2110              		.cfi_restore 10
 2111              		.cfi_restore 9
ARM GAS  C:\Users\chemi\AppData\Local\Temp\ccbZzKkH.s 			page 59


 2112              		.cfi_restore 8
 2113              		.cfi_restore 7
 2114              		.cfi_restore 6
 2115              		.cfi_restore 5
 2116              		.cfi_restore 4
 2117              		.cfi_def_cfa_offset 0
 2118              	.LVL206:
 355:..\common\ud3core/SignalGenerator.c **** }
 2119              		.loc 1 355 0
 2120 0040 FFF7FEBF 		b	SigGen_setVoiceParams
 2121              	.LVL207:
 2122              	.L250:
 2123              		.cfi_restore_state
 2124 0044 BDE8F087 		pop	{r4, r5, r6, r7, r8, r9, r10, pc}
 2125              	.LVL208:
 2126              	.L253:
 2127              		.align	2
 2128              	.L252:
 2129 0048 00000000 		.word	.LANCHOR0
 2130              		.cfi_endproc
 2131              	.LFE77:
 2132              		.size	SigGen_setVoiceVMS, .-SigGen_setVoiceVMS
 2133              		.section	.text.SigGen_setVoiceSID,"ax",%progbits
 2134              		.align	1
 2135              		.global	SigGen_setVoiceSID
 2136              		.thumb
 2137              		.thumb_func
 2138              		.type	SigGen_setVoiceSID, %function
 2139              	SigGen_setVoiceSID:
 2140              	.LFB79:
 362:..\common\ud3core/SignalGenerator.c ****     if(synthMode != SYNTH_SID) return;
 2141              		.loc 1 362 0
 2142              		.cfi_startproc
 2143              		@ args = 8, pretend = 0, frame = 0
 2144              		@ frame_needed = 0, uses_anonymous_args = 0
 2145              	.LVL209:
 2146 0000 2DE9FF41 		push	{r0, r1, r2, r3, r4, r5, r6, r7, r8, lr}
 2147              		.cfi_def_cfa_offset 40
 2148              		.cfi_offset 4, -24
 2149              		.cfi_offset 5, -20
 2150              		.cfi_offset 6, -16
 2151              		.cfi_offset 7, -12
 2152              		.cfi_offset 8, -8
 2153              		.cfi_offset 14, -4
 362:..\common\ud3core/SignalGenerator.c ****     if(synthMode != SYNTH_SID) return;
 2154              		.loc 1 362 0
 2155 0004 9846     		mov	r8, r3
 363:..\common\ud3core/SignalGenerator.c ****     SigGen_setVoiceParams(voice, enabled, getFixedDutyOntime(pulseWidth, frequencyTenths, noiseAmpl
 2156              		.loc 1 363 0
 2157 0006 0F4B     		ldr	r3, .L256
 2158              	.LVL210:
 362:..\common\ud3core/SignalGenerator.c ****     if(synthMode != SYNTH_SID) return;
 2159              		.loc 1 362 0
 2160 0008 0646     		mov	r6, r0
 363:..\common\ud3core/SignalGenerator.c ****     SigGen_setVoiceParams(voice, enabled, getFixedDutyOntime(pulseWidth, frequencyTenths, noiseAmpl
 2161              		.loc 1 363 0
 2162 000a 1B7C     		ldrb	r3, [r3, #16]	@ zero_extendqisi2
ARM GAS  C:\Users\chemi\AppData\Local\Temp\ccbZzKkH.s 			page 60


 362:..\common\ud3core/SignalGenerator.c ****     if(synthMode != SYNTH_SID) return;
 2163              		.loc 1 362 0
 2164 000c 0F46     		mov	r7, r1
 363:..\common\ud3core/SignalGenerator.c ****     SigGen_setVoiceParams(voice, enabled, getFixedDutyOntime(pulseWidth, frequencyTenths, noiseAmpl
 2165              		.loc 1 363 0
 2166 000e 022B     		cmp	r3, #2
 362:..\common\ud3core/SignalGenerator.c ****     if(synthMode != SYNTH_SID) return;
 2167              		.loc 1 362 0
 2168 0010 1046     		mov	r0, r2
 2169              	.LVL211:
 2170 0012 0A9C     		ldr	r4, [sp, #40]
 2171 0014 0B9D     		ldr	r5, [sp, #44]
 363:..\common\ud3core/SignalGenerator.c ****     SigGen_setVoiceParams(voice, enabled, getFixedDutyOntime(pulseWidth, frequencyTenths, noiseAmpl
 2172              		.loc 1 363 0
 2173 0016 11D1     		bne	.L254
 364:..\common\ud3core/SignalGenerator.c **** }
 2174              		.loc 1 364 0
 2175 0018 002D     		cmp	r5, #0
 2176 001a D4BF     		ite	le
 2177 001c 0022     		movle	r2, #0
 2178              	.LVL212:
 2179 001e 0122     		movgt	r2, #1
 2180 0020 2146     		mov	r1, r4
 2181              	.LVL213:
 2182 0022 FFF7FEFF 		bl	getFixedDutyOntime
 2183              	.LVL214:
 2184 0026 0022     		movs	r2, #0
 2185 0028 0392     		str	r2, [sp, #12]
 2186 002a 0292     		str	r2, [sp, #8]
 2187 002c 8DE83000 		stmia	sp, {r4, r5}
 2188 0030 0246     		mov	r2, r0
 2189 0032 4346     		mov	r3, r8
 2190 0034 3946     		mov	r1, r7
 2191 0036 3046     		mov	r0, r6
 2192 0038 FFF7FEFF 		bl	SigGen_setVoiceParams
 2193              	.LVL215:
 2194              	.L254:
 365:..\common\ud3core/SignalGenerator.c **** 
 2195              		.loc 1 365 0
 2196 003c 04B0     		add	sp, sp, #16
 2197              		.cfi_def_cfa_offset 24
 2198              		@ sp needed
 2199 003e BDE8F081 		pop	{r4, r5, r6, r7, r8, pc}
 2200              	.LVL216:
 2201              	.L257:
 2202 0042 00BF     		.align	2
 2203              	.L256:
 2204 0044 00000000 		.word	.LANCHOR0
 2205              		.cfi_endproc
 2206              	.LFE79:
 2207              		.size	SigGen_setVoiceSID, .-SigGen_setVoiceSID
 2208              		.section	.text.SigGen_setVoiceTR,"ax",%progbits
 2209              		.align	1
 2210              		.global	SigGen_setVoiceTR
 2211              		.thumb
 2212              		.thumb_func
 2213              		.type	SigGen_setVoiceTR, %function
ARM GAS  C:\Users\chemi\AppData\Local\Temp\ccbZzKkH.s 			page 61


 2214              	SigGen_setVoiceTR:
 2215              	.LFB81:
 372:..\common\ud3core/SignalGenerator.c ****     if(synthMode != SYNTH_TR) return;
 2216              		.loc 1 372 0
 2217              		.cfi_startproc
 2218              		@ args = 8, pretend = 0, frame = 0
 2219              		@ frame_needed = 0, uses_anonymous_args = 0
 2220              	.LVL217:
 2221 0000 1FB5     		push	{r0, r1, r2, r3, r4, lr}
 2222              		.cfi_def_cfa_offset 24
 2223              		.cfi_offset 4, -8
 2224              		.cfi_offset 14, -4
 372:..\common\ud3core/SignalGenerator.c ****     if(synthMode != SYNTH_TR) return;
 2225              		.loc 1 372 0
 2226 0002 0446     		mov	r4, r0
 373:..\common\ud3core/SignalGenerator.c ****     
 2227              		.loc 1 373 0
 2228 0004 0848     		ldr	r0, .L260
 2229              	.LVL218:
 2230 0006 007C     		ldrb	r0, [r0, #16]	@ zero_extendqisi2
 2231 0008 0328     		cmp	r0, #3
 2232 000a 0BD1     		bne	.L258
 376:..\common\ud3core/SignalGenerator.c **** }
 2233              		.loc 1 376 0
 2234 000c 0798     		ldr	r0, [sp, #28]
 2235 000e 0093     		str	r3, [sp]
 2236 0010 0390     		str	r0, [sp, #12]
 2237 0012 0698     		ldr	r0, [sp, #24]
 2238 0014 1346     		mov	r3, r2
 2239              	.LVL219:
 2240 0016 0290     		str	r0, [sp, #8]
 2241 0018 0020     		movs	r0, #0
 2242 001a 0A46     		mov	r2, r1
 2243              	.LVL220:
 2244 001c 0190     		str	r0, [sp, #4]
 2245 001e 2146     		mov	r1, r4
 2246              	.LVL221:
 2247 0020 FFF7FEFF 		bl	SigGen_setVoiceParams
 2248              	.LVL222:
 2249              	.L258:
 377:..\common\ud3core/SignalGenerator.c **** 
 2250              		.loc 1 377 0
 2251 0024 04B0     		add	sp, sp, #16
 2252              		.cfi_def_cfa_offset 8
 2253              		@ sp needed
 2254 0026 10BD     		pop	{r4, pc}
 2255              	.LVL223:
 2256              	.L261:
 2257              		.align	2
 2258              	.L260:
 2259 0028 00000000 		.word	.LANCHOR0
 2260              		.cfi_endproc
 2261              	.LFE81:
 2262              		.size	SigGen_setVoiceTR, .-SigGen_setVoiceTR
 2263              		.section	.text.SigGen_killAudio,"ax",%progbits
 2264              		.align	1
 2265              		.global	SigGen_killAudio
ARM GAS  C:\Users\chemi\AppData\Local\Temp\ccbZzKkH.s 			page 62


 2266              		.thumb
 2267              		.thumb_func
 2268              		.type	SigGen_killAudio, %function
 2269              	SigGen_killAudio:
 2270              	.LFB86:
 506:..\common\ud3core/SignalGenerator.c ****     // This can only happen during UD3 startup
 2271              		.loc 1 506 0
 2272              		.cfi_startproc
 2273              		@ args = 0, pretend = 0, frame = 0
 2274              		@ frame_needed = 0, uses_anonymous_args = 0
 2275 0000 70B5     		push	{r4, r5, r6, lr}
 2276              		.cfi_def_cfa_offset 16
 2277              		.cfi_offset 4, -16
 2278              		.cfi_offset 5, -12
 2279              		.cfi_offset 6, -8
 2280              		.cfi_offset 14, -4
 508:..\common\ud3core/SignalGenerator.c ****     //TODO evaluate if this is actually thread safe
 2281              		.loc 1 508 0
 2282 0002 144C     		ldr	r4, .L269
 2283 0004 2068     		ldr	r0, [r4]
 2284 0006 20B3     		cbz	r0, .L262
 2285 0008 0023     		movs	r3, #0
 2286              	.LBB66:
 513:..\common\ud3core/SignalGenerator.c ****         taskData->voice[currVoice].limitedEnabled = 0;
 2287              		.loc 1 513 0 discriminator 3
 2288 000a 1946     		mov	r1, r3
 2289 000c 6826     		movs	r6, #104
 2290              	.L264:
 2291              	.LVL224:
 2292 000e 06FB0302 		mla	r2, r6, r3, r0
 512:..\common\ud3core/SignalGenerator.c ****         taskData->voice[currVoice].enabled = 0;
 2293              		.loc 1 512 0 discriminator 3
 2294 0012 0133     		adds	r3, r3, #1
 2295              	.LVL225:
 2296 0014 062B     		cmp	r3, #6
 513:..\common\ud3core/SignalGenerator.c ****         taskData->voice[currVoice].limitedEnabled = 0;
 2297              		.loc 1 513 0 discriminator 3
 2298 0016 9162     		str	r1, [r2, #40]
 2299 0018 4FF00005 		mov	r5, #0
 514:..\common\ud3core/SignalGenerator.c ****         taskData->voice[currVoice].hpvCount = 0;
 2300              		.loc 1 514 0 discriminator 3
 2301 001c D162     		str	r1, [r2, #44]
 515:..\common\ud3core/SignalGenerator.c ****         taskData->voice[currVoice].limitedHpvCount = 0;
 2302              		.loc 1 515 0 discriminator 3
 2303 001e 1162     		str	r1, [r2, #32]
 516:..\common\ud3core/SignalGenerator.c ****     }
 2304              		.loc 1 516 0 discriminator 3
 2305 0020 5162     		str	r1, [r2, #36]
 512:..\common\ud3core/SignalGenerator.c ****         taskData->voice[currVoice].enabled = 0;
 2306              		.loc 1 512 0 discriminator 3
 2307 0022 F4D1     		bne	.L264
 2308              	.LBE66:
 520:..\common\ud3core/SignalGenerator.c ****     
 2309              		.loc 1 520 0
 2310 0024 FFF7FEFF 		bl	interrupterTimebase_ReadControlRegister
 2311              	.LVL226:
 2312 0028 00F07F00 		and	r0, r0, #127
ARM GAS  C:\Users\chemi\AppData\Local\Temp\ccbZzKkH.s 			page 63


 2313 002c FFF7FEFF 		bl	interrupterTimebase_WriteControlRegister
 2314              	.LVL227:
 2315 0030 FFF7FEFF 		bl	interrupterIRQ_Disable
 2316              	.LVL228:
 523:..\common\ud3core/SignalGenerator.c ****     RingBuffer_flush(taskData->pulseBuffer);
 2317              		.loc 1 523 0
 2318 0034 FFF7FEFF 		bl	interrupterIRQ_Disable
 2319              	.LVL229:
 524:..\common\ud3core/SignalGenerator.c ****     taskData->bufferLengthInCounts = 0;
 2320              		.loc 1 524 0
 2321 0038 2368     		ldr	r3, [r4]
 2322 003a D3F87402 		ldr	r0, [r3, #628]
 2323 003e FFF7FEFF 		bl	RingBuffer_flush
 2324              	.LVL230:
 525:..\common\ud3core/SignalGenerator.c ****     SigGen_enableTimerISR();
 2325              		.loc 1 525 0
 2326 0042 2368     		ldr	r3, [r4]
 2327 0044 C3F87052 		str	r5, [r3, #624]
 526:..\common\ud3core/SignalGenerator.c ****     
 2328              		.loc 1 526 0
 2329 0048 FFF7FEFF 		bl	interrupterIRQ_Enable
 2330              	.LVL231:
 528:..\common\ud3core/SignalGenerator.c **** }
 2331              		.loc 1 528 0
 2332 004c 024B     		ldr	r3, .L269+4
 2333 004e C3F84051 		str	r5, [r3, #320]
 2334              	.L262:
 2335 0052 70BD     		pop	{r4, r5, r6, pc}
 2336              	.L270:
 2337              		.align	2
 2338              	.L269:
 2339 0054 00000000 		.word	.LANCHOR0
 2340 0058 00000000 		.word	tt
 2341              		.cfi_endproc
 2342              	.LFE86:
 2343              		.size	SigGen_killAudio, .-SigGen_killAudio
 2344              		.section	.text.SigGen_switchSynthMode,"ax",%progbits
 2345              		.align	1
 2346              		.global	SigGen_switchSynthMode
 2347              		.thumb
 2348              		.thumb_func
 2349              		.type	SigGen_switchSynthMode, %function
 2350              	SigGen_switchSynthMode:
 2351              	.LFB83:
 454:..\common\ud3core/SignalGenerator.c ****     //kill output when changing synth mode
 2352              		.loc 1 454 0
 2353              		.cfi_startproc
 2354              		@ args = 0, pretend = 0, frame = 0
 2355              		@ frame_needed = 0, uses_anonymous_args = 0
 2356              	.LVL232:
 2357 0000 10B5     		push	{r4, lr}
 2358              		.cfi_def_cfa_offset 8
 2359              		.cfi_offset 4, -8
 2360              		.cfi_offset 14, -4
 454:..\common\ud3core/SignalGenerator.c ****     //kill output when changing synth mode
 2361              		.loc 1 454 0
 2362 0002 0446     		mov	r4, r0
ARM GAS  C:\Users\chemi\AppData\Local\Temp\ccbZzKkH.s 			page 64


 456:..\common\ud3core/SignalGenerator.c ****     
 2363              		.loc 1 456 0
 2364 0004 FFF7FEFF 		bl	SigGen_killAudio
 2365              	.LVL233:
 459:..\common\ud3core/SignalGenerator.c ****     
 2366              		.loc 1 459 0
 2367 0008 014B     		ldr	r3, .L272
 2368 000a 1C74     		strb	r4, [r3, #16]
 2369 000c 10BD     		pop	{r4, pc}
 2370              	.L273:
 2371 000e 00BF     		.align	2
 2372              	.L272:
 2373 0010 00000000 		.word	.LANCHOR0
 2374              		.cfi_endproc
 2375              	.LFE83:
 2376              		.size	SigGen_switchSynthMode, .-SigGen_switchSynthMode
 2377              		.section	.text.SigGen_setOutputEnabled,"ax",%progbits
 2378              		.align	1
 2379              		.global	SigGen_setOutputEnabled
 2380              		.thumb
 2381              		.thumb_func
 2382              		.type	SigGen_setOutputEnabled, %function
 2383              	SigGen_setOutputEnabled:
 2384              	.LFB85:
 501:..\common\ud3core/SignalGenerator.c **** 	isEnabled = en;
 2385              		.loc 1 501 0
 2386              		.cfi_startproc
 2387              		@ args = 0, pretend = 0, frame = 0
 2388              		@ frame_needed = 0, uses_anonymous_args = 0
 2389              		@ link register save eliminated.
 2390              	.LVL234:
 502:..\common\ud3core/SignalGenerator.c **** 	if(!en) SigGen_killAudio();
 2391              		.loc 1 502 0
 2392 0000 024B     		ldr	r3, .L276
 2393 0002 5860     		str	r0, [r3, #4]
 503:..\common\ud3core/SignalGenerator.c **** }
 2394              		.loc 1 503 0
 2395 0004 08B9     		cbnz	r0, .L274
 503:..\common\ud3core/SignalGenerator.c **** }
 2396              		.loc 1 503 0 is_stmt 0 discriminator 1
 2397 0006 FFF7FEBF 		b	SigGen_killAudio
 2398              	.LVL235:
 2399              	.L274:
 2400 000a 7047     		bx	lr
 2401              	.L277:
 2402              		.align	2
 2403              	.L276:
 2404 000c 00000000 		.word	.LANCHOR1
 2405              		.cfi_endproc
 2406              	.LFE85:
 2407              		.size	SigGen_setOutputEnabled, .-SigGen_setOutputEnabled
 2408              		.section	.text.SigGen_setMasterVol,"ax",%progbits
 2409              		.align	1
 2410              		.global	SigGen_setMasterVol
 2411              		.thumb
 2412              		.thumb_func
 2413              		.type	SigGen_setMasterVol, %function
ARM GAS  C:\Users\chemi\AppData\Local\Temp\ccbZzKkH.s 			page 65


 2414              	SigGen_setMasterVol:
 2415              	.LFB84:
 483:..\common\ud3core/SignalGenerator.c ****     if(newVolume > MAX_VOL) return;
 2416              		.loc 1 483 0 is_stmt 1
 2417              		.cfi_startproc
 2418              		@ args = 0, pretend = 0, frame = 0
 2419              		@ frame_needed = 0, uses_anonymous_args = 0
 2420              		@ link register save eliminated.
 2421              	.LVL236:
 484:..\common\ud3core/SignalGenerator.c ****     masterVolume = newVolume;
 2422              		.loc 1 484 0
 2423 0000 B0F5004F 		cmp	r0, #32768
 483:..\common\ud3core/SignalGenerator.c ****     if(newVolume > MAX_VOL) return;
 2424              		.loc 1 483 0
 2425 0004 70B4     		push	{r4, r5, r6}
 2426              		.cfi_def_cfa_offset 12
 2427              		.cfi_offset 4, -12
 2428              		.cfi_offset 5, -8
 2429              		.cfi_offset 6, -4
 484:..\common\ud3core/SignalGenerator.c ****     masterVolume = newVolume;
 2430              		.loc 1 484 0
 2431 0006 1DD2     		bcs	.L278
 485:..\common\ud3core/SignalGenerator.c ****     
 2432              		.loc 1 485 0
 2433 0008 0F4B     		ldr	r3, .L283
 2434 000a 1860     		str	r0, [r3]
 2435 000c 1C46     		mov	r4, r3
 488:..\common\ud3core/SignalGenerator.c ****         //no => update all voices
 2436              		.loc 1 488 0
 2437 000e A8B1     		cbz	r0, .L280
 2438              	.LBB67:
 491:..\common\ud3core/SignalGenerator.c ****             taskData->voice[i].pulseVolume = (taskData->voice[i].initialPulseVolume * masterVolume)
 2439              		.loc 1 491 0
 2440 0010 0E4B     		ldr	r3, .L283+4
 2441 0012 0022     		movs	r2, #0
 2442 0014 1D68     		ldr	r5, [r3]
 2443 0016 6826     		movs	r6, #104
 2444              	.L281:
 2445              	.LVL237:
 491:..\common\ud3core/SignalGenerator.c ****             taskData->voice[i].pulseVolume = (taskData->voice[i].initialPulseVolume * masterVolume)
 2446              		.loc 1 491 0 is_stmt 0 discriminator 3
 2447 0018 06FB0251 		mla	r1, r6, r2, r5
 2448 001c CB6C     		ldr	r3, [r1, #76]
 490:..\common\ud3core/SignalGenerator.c ****             taskData->voice[i].hpvVolume = (taskData->voice[i].initialHpvVolume * masterVolume) >> 
 2449              		.loc 1 490 0 is_stmt 1 discriminator 3
 2450 001e 0132     		adds	r2, r2, #1
 2451              	.LVL238:
 491:..\common\ud3core/SignalGenerator.c ****             taskData->voice[i].pulseVolume = (taskData->voice[i].initialPulseVolume * masterVolume)
 2452              		.loc 1 491 0 discriminator 3
 2453 0020 4343     		muls	r3, r0, r3
 2454 0022 DB0B     		lsrs	r3, r3, #15
 2455 0024 0B64     		str	r3, [r1, #64]
 492:..\common\ud3core/SignalGenerator.c ****         }
 2456              		.loc 1 492 0 discriminator 3
 2457 0026 8B6C     		ldr	r3, [r1, #72]
 490:..\common\ud3core/SignalGenerator.c ****             taskData->voice[i].hpvVolume = (taskData->voice[i].initialHpvVolume * masterVolume) >> 
 2458              		.loc 1 490 0 discriminator 3
ARM GAS  C:\Users\chemi\AppData\Local\Temp\ccbZzKkH.s 			page 66


 2459 0028 062A     		cmp	r2, #6
 492:..\common\ud3core/SignalGenerator.c ****         }
 2460              		.loc 1 492 0 discriminator 3
 2461 002a 00FB03F3 		mul	r3, r0, r3
 2462 002e 4FEAD333 		lsr	r3, r3, #15
 2463 0032 4B64     		str	r3, [r1, #68]
 490:..\common\ud3core/SignalGenerator.c ****             taskData->voice[i].hpvVolume = (taskData->voice[i].initialHpvVolume * masterVolume) >> 
 2464              		.loc 1 490 0 discriminator 3
 2465 0034 F0D1     		bne	.L281
 2466              	.LVL239:
 2467              	.LBE67:
 2468              	.LBB68:
 2469              	.LBB69:
 502:..\common\ud3core/SignalGenerator.c **** 	if(!en) SigGen_killAudio();
 2470              		.loc 1 502 0
 2471 0036 0123     		movs	r3, #1
 2472 0038 6360     		str	r3, [r4, #4]
 2473 003a 03E0     		b	.L278
 2474              	.LVL240:
 2475              	.L280:
 2476              	.LBE69:
 2477              	.LBE68:
 499:..\common\ud3core/SignalGenerator.c **** 
 2478              		.loc 1 499 0
 2479 003c 70BC     		pop	{r4, r5, r6}
 2480              		.cfi_remember_state
 2481              		.cfi_restore 6
 2482              		.cfi_restore 5
 2483              		.cfi_restore 4
 2484              		.cfi_def_cfa_offset 0
 2485              	.LBB70:
 2486              	.LBB71:
 502:..\common\ud3core/SignalGenerator.c **** 	if(!en) SigGen_killAudio();
 2487              		.loc 1 502 0
 2488 003e 5860     		str	r0, [r3, #4]
 503:..\common\ud3core/SignalGenerator.c **** }
 2489              		.loc 1 503 0
 2490 0040 FFF7FEBF 		b	SigGen_killAudio
 2491              	.LVL241:
 2492              	.L278:
 2493              		.cfi_restore_state
 2494              	.LBE71:
 2495              	.LBE70:
 499:..\common\ud3core/SignalGenerator.c **** 
 2496              		.loc 1 499 0
 2497 0044 70BC     		pop	{r4, r5, r6}
 2498              		.cfi_restore 6
 2499              		.cfi_restore 5
 2500              		.cfi_restore 4
 2501              		.cfi_def_cfa_offset 0
 2502 0046 7047     		bx	lr
 2503              	.L284:
 2504              		.align	2
 2505              	.L283:
 2506 0048 00000000 		.word	.LANCHOR1
 2507 004c 00000000 		.word	.LANCHOR0
 2508              		.cfi_endproc
ARM GAS  C:\Users\chemi\AppData\Local\Temp\ccbZzKkH.s 			page 67


 2509              	.LFE84:
 2510              		.size	SigGen_setMasterVol, .-SigGen_setMasterVol
 2511              		.global	compDebug
 2512              		.comm	currPulse,12,4
 2513              		.global	adding
 2514              		.global	divder
 2515              		.global	IsOkToPrint
 2516              		.comm	VoiceFlags,24,4
 2517              		.comm	interrupter,12,4
 2518              		.comm	ct1_dac_val,3,1
 2519              		.comm	params,26,2
 2520              		.comm	ramp,406,2
 2521              		.section	.rodata.str1.1,"aMS",%progbits,1
 2522              	.LC0:
 2523 0000 53696747 		.ascii	"SigGen\000"
 2523      656E00
 2524              		.data
 2525              		.align	2
 2526              		.set	.LANCHOR1,. + 0
 2527              		.type	masterVolume, %object
 2528              		.size	masterVolume, 4
 2529              	masterVolume:
 2530 0000 FF7F0000 		.word	32767
 2531              		.type	isEnabled, %object
 2532              		.size	isEnabled, 4
 2533              	isEnabled:
 2534 0004 01000000 		.word	1
 2535              		.type	divder, %object
 2536              		.size	divder, 1
 2537              	divder:
 2538 0008 FF       		.byte	-1
 2539              		.bss
 2540              		.align	2
 2541              		.set	.LANCHOR0,. + 0
 2542              		.type	taskData, %object
 2543              		.size	taskData, 4
 2544              	taskData:
 2545 0000 00000000 		.space	4
 2546              		.type	readPulse, %object
 2547              		.size	readPulse, 12
 2548              	readPulse:
 2549 0004 00000000 		.space	12
 2549      00000000 
 2549      00000000 
 2550              		.type	synthMode, %object
 2551              		.size	synthMode, 1
 2552              	synthMode:
 2553 0010 00       		.space	1
 2554 0011 000000   		.space	3
 2555              		.type	SigGen_minOt, %object
 2556              		.size	SigGen_minOt, 4
 2557              	SigGen_minOt:
 2558 0014 00000000 		.space	4
 2559              		.type	IsOkToPrint, %object
 2560              		.size	IsOkToPrint, 4
 2561              	IsOkToPrint:
 2562 0018 00000000 		.space	4
ARM GAS  C:\Users\chemi\AppData\Local\Temp\ccbZzKkH.s 			page 68


 2563              		.type	compDebug, %object
 2564              		.size	compDebug, 4
 2565              	compDebug:
 2566 001c 00000000 		.space	4
 2567              		.type	adding, %object
 2568              		.size	adding, 4
 2569              	adding:
 2570 0020 00000000 		.space	4
 2571              		.type	voicesToEradicate, %object
 2572              		.size	voicesToEradicate, 4
 2573              	voicesToEradicate:
 2574 0024 00000000 		.space	4
 2575              		.text
 2576              	.Letext0:
 2577              		.file 2 "c:\\program files (x86)\\cypress\\psoc creator\\4.4\\psoc creator\\import\\gnu\\arm\\5.4.
 2578              		.file 3 "c:\\program files (x86)\\cypress\\psoc creator\\4.4\\psoc creator\\import\\gnu\\arm\\5.4.
 2579              		.file 4 "Generated_Source\\PSoC5/cytypes.h"
 2580              		.file 5 "..\\common\\rtos\\portable\\GCC\\ARM_CM3/portmacro.h"
 2581              		.file 6 "..\\common\\rtos\\include/task.h"
 2582              		.file 7 "..\\common\\rtos\\include/stream_buffer.h"
 2583              		.file 8 "..\\common\\tterm/TTerm.h"
 2584              		.file 9 "..\\common\\ud3core\\cli_basic.h"
 2585              		.file 10 "..\\common\\rtos\\include/timers.h"
 2586              		.file 11 "..\\common\\ud3core\\cli_common.h"
 2587              		.file 12 "..\\common\\ud3core\\qcw.h"
 2588              		.file 13 "..\\common\\ud3core\\ZCDtoPWM.h"
 2589              		.file 14 "..\\common\\Modules/RingBuffer/include/RingBuffer.h"
 2590              		.file 15 "..\\common\\ud3core\\SignalGenerator.h"
 2591              		.file 16 "..\\common\\ud3core\\interrupter.h"
 2592              		.file 17 "..\\common\\ud3core\\telemetry.h"
 2593              		.file 18 "Generated_Source\\PSoC5/core_cm3.h"
 2594              		.file 19 "..\\common\\ud3core\\clock.h"
 2595              		.file 20 "Generated_Source\\PSoC5/interrupterTimebase.h"
 2596              		.file 21 "Generated_Source\\PSoC5/interrupterIRQ.h"
 2597              		.file 22 "c:\\program files (x86)\\cypress\\psoc creator\\4.4\\psoc creator\\import\\gnu\\arm\\5.4
 2598              		.file 23 "..\\common\\rtos\\include/portable.h"
 2599              		.file 24 "Generated_Source\\PSoC5/isr_midi.h"
 2600              		.file 25 "..\\common\\vms/DutyCompressor.h"
 2601              		.section	.debug_info,"",%progbits
 2602              	.Ldebug_info0:
 2603 0000 541F0000 		.4byte	0x1f54
 2604 0004 0400     		.2byte	0x4
 2605 0006 00000000 		.4byte	.Ldebug_abbrev0
 2606 000a 04       		.byte	0x4
 2607 000b 01       		.uleb128 0x1
 2608 000c 52000000 		.4byte	.LASF376
 2609 0010 0C       		.byte	0xc
 2610 0011 76120000 		.4byte	.LASF377
 2611 0015 90060000 		.4byte	.LASF378
 2612 0019 38010000 		.4byte	.Ldebug_ranges0+0x138
 2613 001d 00000000 		.4byte	0
 2614 0021 00000000 		.4byte	.Ldebug_line0
 2615 0025 02       		.uleb128 0x2
 2616 0026 04       		.byte	0x4
 2617 0027 07       		.byte	0x7
 2618 0028 070C0000 		.4byte	.LASF0
 2619 002c 03       		.uleb128 0x3
ARM GAS  C:\Users\chemi\AppData\Local\Temp\ccbZzKkH.s 			page 69


 2620 002d 04       		.byte	0x4
 2621 002e 05       		.byte	0x5
 2622 002f 696E7400 		.ascii	"int\000"
 2623 0033 04       		.uleb128 0x4
 2624 0034 170E0000 		.4byte	.LASF2
 2625 0038 02       		.byte	0x2
 2626 0039 1B       		.byte	0x1b
 2627 003a 3E000000 		.4byte	0x3e
 2628 003e 02       		.uleb128 0x2
 2629 003f 01       		.byte	0x1
 2630 0040 06       		.byte	0x6
 2631 0041 47040000 		.4byte	.LASF1
 2632 0045 04       		.uleb128 0x4
 2633 0046 09030000 		.4byte	.LASF3
 2634 004a 02       		.byte	0x2
 2635 004b 1D       		.byte	0x1d
 2636 004c 50000000 		.4byte	0x50
 2637 0050 02       		.uleb128 0x2
 2638 0051 01       		.byte	0x1
 2639 0052 08       		.byte	0x8
 2640 0053 C6040000 		.4byte	.LASF4
 2641 0057 04       		.uleb128 0x4
 2642 0058 A20F0000 		.4byte	.LASF5
 2643 005c 02       		.byte	0x2
 2644 005d 29       		.byte	0x29
 2645 005e 62000000 		.4byte	0x62
 2646 0062 02       		.uleb128 0x2
 2647 0063 02       		.byte	0x2
 2648 0064 05       		.byte	0x5
 2649 0065 75100000 		.4byte	.LASF6
 2650 0069 04       		.uleb128 0x4
 2651 006a 37060000 		.4byte	.LASF7
 2652 006e 02       		.byte	0x2
 2653 006f 2B       		.byte	0x2b
 2654 0070 74000000 		.4byte	0x74
 2655 0074 02       		.uleb128 0x2
 2656 0075 02       		.byte	0x2
 2657 0076 07       		.byte	0x7
 2658 0077 D7120000 		.4byte	.LASF8
 2659 007b 04       		.uleb128 0x4
 2660 007c 53130000 		.4byte	.LASF9
 2661 0080 02       		.byte	0x2
 2662 0081 3F       		.byte	0x3f
 2663 0082 86000000 		.4byte	0x86
 2664 0086 02       		.uleb128 0x2
 2665 0087 04       		.byte	0x4
 2666 0088 05       		.byte	0x5
 2667 0089 7B030000 		.4byte	.LASF10
 2668 008d 04       		.uleb128 0x4
 2669 008e 3E0A0000 		.4byte	.LASF11
 2670 0092 02       		.byte	0x2
 2671 0093 41       		.byte	0x41
 2672 0094 98000000 		.4byte	0x98
 2673 0098 02       		.uleb128 0x2
 2674 0099 04       		.byte	0x4
 2675 009a 07       		.byte	0x7
 2676 009b 22090000 		.4byte	.LASF12
ARM GAS  C:\Users\chemi\AppData\Local\Temp\ccbZzKkH.s 			page 70


 2677 009f 02       		.uleb128 0x2
 2678 00a0 08       		.byte	0x8
 2679 00a1 05       		.byte	0x5
 2680 00a2 490A0000 		.4byte	.LASF13
 2681 00a6 02       		.uleb128 0x2
 2682 00a7 08       		.byte	0x8
 2683 00a8 07       		.byte	0x7
 2684 00a9 250E0000 		.4byte	.LASF14
 2685 00ad 02       		.uleb128 0x2
 2686 00ae 04       		.byte	0x4
 2687 00af 07       		.byte	0x7
 2688 00b0 49000000 		.4byte	.LASF15
 2689 00b4 05       		.uleb128 0x5
 2690 00b5 04       		.byte	0x4
 2691 00b6 06       		.uleb128 0x6
 2692 00b7 04       		.byte	0x4
 2693 00b8 BC000000 		.4byte	0xbc
 2694 00bc 02       		.uleb128 0x2
 2695 00bd 01       		.byte	0x1
 2696 00be 08       		.byte	0x8
 2697 00bf 94050000 		.4byte	.LASF16
 2698 00c3 06       		.uleb128 0x6
 2699 00c4 04       		.byte	0x4
 2700 00c5 C9000000 		.4byte	0xc9
 2701 00c9 07       		.uleb128 0x7
 2702 00ca BC000000 		.4byte	0xbc
 2703 00ce 04       		.uleb128 0x4
 2704 00cf 22000000 		.4byte	.LASF17
 2705 00d3 03       		.byte	0x3
 2706 00d4 14       		.byte	0x14
 2707 00d5 33000000 		.4byte	0x33
 2708 00d9 04       		.uleb128 0x4
 2709 00da 53040000 		.4byte	.LASF18
 2710 00de 03       		.byte	0x3
 2711 00df 18       		.byte	0x18
 2712 00e0 45000000 		.4byte	0x45
 2713 00e4 04       		.uleb128 0x4
 2714 00e5 D0100000 		.4byte	.LASF19
 2715 00e9 03       		.byte	0x3
 2716 00ea 20       		.byte	0x20
 2717 00eb 57000000 		.4byte	0x57
 2718 00ef 04       		.uleb128 0x4
 2719 00f0 810E0000 		.4byte	.LASF20
 2720 00f4 03       		.byte	0x3
 2721 00f5 24       		.byte	0x24
 2722 00f6 69000000 		.4byte	0x69
 2723 00fa 04       		.uleb128 0x4
 2724 00fb 44010000 		.4byte	.LASF21
 2725 00ff 03       		.byte	0x3
 2726 0100 2C       		.byte	0x2c
 2727 0101 7B000000 		.4byte	0x7b
 2728 0105 04       		.uleb128 0x4
 2729 0106 E4110000 		.4byte	.LASF22
 2730 010a 03       		.byte	0x3
 2731 010b 30       		.byte	0x30
 2732 010c 8D000000 		.4byte	0x8d
 2733 0110 08       		.uleb128 0x8
ARM GAS  C:\Users\chemi\AppData\Local\Temp\ccbZzKkH.s 			page 71


 2734 0111 3D100000 		.4byte	.LASF23
 2735 0115 04       		.byte	0x4
 2736 0116 9201     		.2byte	0x192
 2737 0118 50000000 		.4byte	0x50
 2738 011c 08       		.uleb128 0x8
 2739 011d E8130000 		.4byte	.LASF24
 2740 0121 04       		.byte	0x4
 2741 0122 9301     		.2byte	0x193
 2742 0124 74000000 		.4byte	0x74
 2743 0128 02       		.uleb128 0x2
 2744 0129 04       		.byte	0x4
 2745 012a 04       		.byte	0x4
 2746 012b 8A0B0000 		.4byte	.LASF25
 2747 012f 02       		.uleb128 0x2
 2748 0130 08       		.byte	0x8
 2749 0131 04       		.byte	0x4
 2750 0132 A90A0000 		.4byte	.LASF26
 2751 0136 08       		.uleb128 0x8
 2752 0137 3E0F0000 		.4byte	.LASF27
 2753 013b 04       		.byte	0x4
 2754 013c 3C02     		.2byte	0x23c
 2755 013e 42010000 		.4byte	0x142
 2756 0142 09       		.uleb128 0x9
 2757 0143 10010000 		.4byte	0x110
 2758 0147 09       		.uleb128 0x9
 2759 0148 05010000 		.4byte	0x105
 2760 014c 0A       		.uleb128 0xa
 2761 014d 05010000 		.4byte	0x105
 2762 0151 5C010000 		.4byte	0x15c
 2763 0155 0B       		.uleb128 0xb
 2764 0156 AD000000 		.4byte	0xad
 2765 015a 05       		.byte	0x5
 2766 015b 00       		.byte	0
 2767 015c 04       		.uleb128 0x4
 2768 015d B4010000 		.4byte	.LASF28
 2769 0161 05       		.byte	0x5
 2770 0162 38       		.byte	0x38
 2771 0163 86000000 		.4byte	0x86
 2772 0167 04       		.uleb128 0x4
 2773 0168 1B0F0000 		.4byte	.LASF29
 2774 016c 05       		.byte	0x5
 2775 016d 39       		.byte	0x39
 2776 016e 98000000 		.4byte	0x98
 2777 0172 04       		.uleb128 0x4
 2778 0173 830C0000 		.4byte	.LASF30
 2779 0177 06       		.byte	0x6
 2780 0178 4E       		.byte	0x4e
 2781 0179 7D010000 		.4byte	0x17d
 2782 017d 06       		.uleb128 0x6
 2783 017e 04       		.byte	0x4
 2784 017f 83010000 		.4byte	0x183
 2785 0183 0C       		.uleb128 0xc
 2786 0184 8A0D0000 		.4byte	.LASF32
 2787 0188 04       		.uleb128 0x4
 2788 0189 7F100000 		.4byte	.LASF31
 2789 018d 07       		.byte	0x7
 2790 018e 46       		.byte	0x46
ARM GAS  C:\Users\chemi\AppData\Local\Temp\ccbZzKkH.s 			page 72


 2791 018f 93010000 		.4byte	0x193
 2792 0193 06       		.uleb128 0x6
 2793 0194 04       		.byte	0x4
 2794 0195 99010000 		.4byte	0x199
 2795 0199 0C       		.uleb128 0xc
 2796 019a 28120000 		.4byte	.LASF33
 2797 019e 04       		.uleb128 0x4
 2798 019f C9130000 		.4byte	.LASF34
 2799 01a3 08       		.byte	0x8
 2800 01a4 A3       		.byte	0xa3
 2801 01a5 A9010000 		.4byte	0x1a9
 2802 01a9 0D       		.uleb128 0xd
 2803 01aa C6060000 		.4byte	.LASF55
 2804 01ae 94       		.byte	0x94
 2805 01af 08       		.byte	0x8
 2806 01b0 C6       		.byte	0xc6
 2807 01b1 9A020000 		.4byte	0x29a
 2808 01b5 0E       		.uleb128 0xe
 2809 01b6 3B130000 		.4byte	.LASF35
 2810 01ba 08       		.byte	0x8
 2811 01bb C7       		.byte	0xc7
 2812 01bc B6000000 		.4byte	0xb6
 2813 01c0 00       		.byte	0
 2814 01c1 0E       		.uleb128 0xe
 2815 01c2 D30C0000 		.4byte	.LASF36
 2816 01c6 08       		.byte	0x8
 2817 01c7 C9       		.byte	0xc9
 2818 01c8 B4000000 		.4byte	0xb4
 2819 01cc 04       		.byte	0x4
 2820 01cd 0E       		.uleb128 0xe
 2821 01ce A1080000 		.4byte	.LASF37
 2822 01d2 08       		.byte	0x8
 2823 01d3 CB       		.byte	0xcb
 2824 01d4 05010000 		.4byte	0x105
 2825 01d8 08       		.byte	0x8
 2826 01d9 0E       		.uleb128 0xe
 2827 01da 1F070000 		.4byte	.LASF38
 2828 01de 08       		.byte	0x8
 2829 01df CC       		.byte	0xcc
 2830 01e0 05010000 		.4byte	0x105
 2831 01e4 0C       		.byte	0xc
 2832 01e5 0E       		.uleb128 0xe
 2833 01e6 F4010000 		.4byte	.LASF39
 2834 01ea 08       		.byte	0x8
 2835 01eb CD       		.byte	0xcd
 2836 01ec 05010000 		.4byte	0x105
 2837 01f0 10       		.byte	0x10
 2838 01f1 0E       		.uleb128 0xe
 2839 01f2 BF010000 		.4byte	.LASF40
 2840 01f6 08       		.byte	0x8
 2841 01f7 CE       		.byte	0xce
 2842 01f8 3F040000 		.4byte	0x43f
 2843 01fc 14       		.byte	0x14
 2844 01fd 0E       		.uleb128 0xe
 2845 01fe F10D0000 		.4byte	.LASF41
 2846 0202 08       		.byte	0x8
 2847 0203 CF       		.byte	0xcf
ARM GAS  C:\Users\chemi\AppData\Local\Temp\ccbZzKkH.s 			page 73


 2848 0204 42030000 		.4byte	0x342
 2849 0208 18       		.byte	0x18
 2850 0209 0E       		.uleb128 0xe
 2851 020a 09000000 		.4byte	.LASF42
 2852 020e 08       		.byte	0x8
 2853 020f D0       		.byte	0xd0
 2854 0210 05010000 		.4byte	0x105
 2855 0214 1C       		.byte	0x1c
 2856 0215 0E       		.uleb128 0xe
 2857 0216 E2010000 		.4byte	.LASF43
 2858 021a 08       		.byte	0x8
 2859 021b D1       		.byte	0xd1
 2860 021c 05010000 		.4byte	0x105
 2861 0220 20       		.byte	0x20
 2862 0221 0E       		.uleb128 0xe
 2863 0222 030D0000 		.4byte	.LASF44
 2864 0226 08       		.byte	0x8
 2865 0227 D2       		.byte	0xd2
 2866 0228 92030000 		.4byte	0x392
 2867 022c 24       		.byte	0x24
 2868 022d 0E       		.uleb128 0xe
 2869 022e 210D0000 		.4byte	.LASF45
 2870 0232 08       		.byte	0x8
 2871 0233 D3       		.byte	0xd3
 2872 0234 B6000000 		.4byte	0xb6
 2873 0238 28       		.byte	0x28
 2874 0239 0E       		.uleb128 0xe
 2875 023a B1110000 		.4byte	.LASF46
 2876 023e 08       		.byte	0x8
 2877 023f D4       		.byte	0xd4
 2878 0240 45040000 		.4byte	0x445
 2879 0244 2C       		.byte	0x2c
 2880 0245 0E       		.uleb128 0xe
 2881 0246 F4000000 		.4byte	.LASF47
 2882 024a 08       		.byte	0x8
 2883 024b D5       		.byte	0xd5
 2884 024c 05010000 		.4byte	0x105
 2885 0250 6C       		.byte	0x6c
 2886 0251 0E       		.uleb128 0xe
 2887 0252 CB070000 		.4byte	.LASF48
 2888 0256 08       		.byte	0x8
 2889 0257 D6       		.byte	0xd6
 2890 0258 05010000 		.4byte	0x105
 2891 025c 70       		.byte	0x70
 2892 025d 0E       		.uleb128 0xe
 2893 025e 3B000000 		.4byte	.LASF49
 2894 0262 08       		.byte	0x8
 2895 0263 D7       		.byte	0xd7
 2896 0264 D9000000 		.4byte	0xd9
 2897 0268 74       		.byte	0x74
 2898 0269 0E       		.uleb128 0xe
 2899 026a 17050000 		.4byte	.LASF50
 2900 026e 08       		.byte	0x8
 2901 026f D8       		.byte	0xd8
 2902 0270 55040000 		.4byte	0x455
 2903 0274 75       		.byte	0x75
 2904 0275 0E       		.uleb128 0xe
ARM GAS  C:\Users\chemi\AppData\Local\Temp\ccbZzKkH.s 			page 74


 2905 0276 5E0E0000 		.4byte	.LASF51
 2906 027a 08       		.byte	0x8
 2907 027b D9       		.byte	0xd9
 2908 027c 25000000 		.4byte	0x25
 2909 0280 88       		.byte	0x88
 2910 0281 0E       		.uleb128 0xe
 2911 0282 68080000 		.4byte	.LASF52
 2912 0286 08       		.byte	0x8
 2913 0287 DA       		.byte	0xda
 2914 0288 39040000 		.4byte	0x439
 2915 028c 8C       		.byte	0x8c
 2916 028d 0E       		.uleb128 0xe
 2917 028e 54010000 		.4byte	.LASF53
 2918 0292 08       		.byte	0x8
 2919 0293 DB       		.byte	0xdb
 2920 0294 6D030000 		.4byte	0x36d
 2921 0298 90       		.byte	0x90
 2922 0299 00       		.byte	0
 2923 029a 04       		.uleb128 0x4
 2924 029b 55050000 		.4byte	.LASF54
 2925 029f 08       		.byte	0x8
 2926 02a0 A4       		.byte	0xa4
 2927 02a1 A5020000 		.4byte	0x2a5
 2928 02a5 0D       		.uleb128 0xd
 2929 02a6 76060000 		.4byte	.LASF56
 2930 02aa 20       		.byte	0x20
 2931 02ab 08       		.byte	0x8
 2932 02ac BA       		.byte	0xba
 2933 02ad 12030000 		.4byte	0x312
 2934 02b1 0E       		.uleb128 0xe
 2935 02b2 AF020000 		.4byte	.LASF57
 2936 02b6 08       		.byte	0x8
 2937 02b7 BB       		.byte	0xbb
 2938 02b8 12030000 		.4byte	0x312
 2939 02bc 00       		.byte	0
 2940 02bd 0E       		.uleb128 0xe
 2941 02be 6A0E0000 		.4byte	.LASF58
 2942 02c2 08       		.byte	0x8
 2943 02c3 BC       		.byte	0xbc
 2944 02c4 C3000000 		.4byte	0xc3
 2945 02c8 04       		.byte	0x4
 2946 02c9 0E       		.uleb128 0xe
 2947 02ca 140C0000 		.4byte	.LASF59
 2948 02ce 08       		.byte	0x8
 2949 02cf BD       		.byte	0xbd
 2950 02d0 C3000000 		.4byte	0xc3
 2951 02d4 08       		.byte	0x8
 2952 02d5 0E       		.uleb128 0xe
 2953 02d6 120A0000 		.4byte	.LASF60
 2954 02da 08       		.byte	0x8
 2955 02db BE       		.byte	0xbe
 2956 02dc 05010000 		.4byte	0x105
 2957 02e0 0C       		.byte	0xc
 2958 02e1 0E       		.uleb128 0xe
 2959 02e2 130B0000 		.4byte	.LASF61
 2960 02e6 08       		.byte	0x8
 2961 02e7 BF       		.byte	0xbf
ARM GAS  C:\Users\chemi\AppData\Local\Temp\ccbZzKkH.s 			page 75


 2962 02e8 D9000000 		.4byte	0xd9
 2963 02ec 10       		.byte	0x10
 2964 02ed 0E       		.uleb128 0xe
 2965 02ee 8F0A0000 		.4byte	.LASF62
 2966 02f2 08       		.byte	0x8
 2967 02f3 C0       		.byte	0xc0
 2968 02f4 B8030000 		.4byte	0x3b8
 2969 02f8 14       		.byte	0x14
 2970 02f9 0E       		.uleb128 0xe
 2971 02fa 00000000 		.4byte	.LASF63
 2972 02fe 08       		.byte	0x8
 2973 02ff C1       		.byte	0xc1
 2974 0300 B4000000 		.4byte	0xb4
 2975 0304 18       		.byte	0x18
 2976 0305 0E       		.uleb128 0xe
 2977 0306 05040000 		.4byte	.LASF64
 2978 030a 08       		.byte	0x8
 2979 030b C3       		.byte	0xc3
 2980 030c 39040000 		.4byte	0x439
 2981 0310 1C       		.byte	0x1c
 2982 0311 00       		.byte	0
 2983 0312 04       		.uleb128 0x4
 2984 0313 FE050000 		.4byte	.LASF65
 2985 0317 08       		.byte	0x8
 2986 0318 A6       		.byte	0xa6
 2987 0319 1D030000 		.4byte	0x31d
 2988 031d 06       		.uleb128 0x6
 2989 031e 04       		.byte	0x4
 2990 031f 23030000 		.4byte	0x323
 2991 0323 0F       		.uleb128 0xf
 2992 0324 D9000000 		.4byte	0xd9
 2993 0328 3C030000 		.4byte	0x33c
 2994 032c 10       		.uleb128 0x10
 2995 032d 3C030000 		.4byte	0x33c
 2996 0331 10       		.uleb128 0x10
 2997 0332 D9000000 		.4byte	0xd9
 2998 0336 10       		.uleb128 0x10
 2999 0337 42030000 		.4byte	0x342
 3000 033b 00       		.byte	0
 3001 033c 06       		.uleb128 0x6
 3002 033d 04       		.byte	0x4
 3003 033e 9E010000 		.4byte	0x19e
 3004 0342 06       		.uleb128 0x6
 3005 0343 04       		.byte	0x4
 3006 0344 B6000000 		.4byte	0xb6
 3007 0348 04       		.uleb128 0x4
 3008 0349 37030000 		.4byte	.LASF66
 3009 034d 08       		.byte	0x8
 3010 034e A7       		.byte	0xa7
 3011 034f 53030000 		.4byte	0x353
 3012 0353 06       		.uleb128 0x6
 3013 0354 04       		.byte	0x4
 3014 0355 59030000 		.4byte	0x359
 3015 0359 0F       		.uleb128 0xf
 3016 035a D9000000 		.4byte	0xd9
 3017 035e 6D030000 		.4byte	0x36d
 3018 0362 10       		.uleb128 0x10
ARM GAS  C:\Users\chemi\AppData\Local\Temp\ccbZzKkH.s 			page 76


 3019 0363 3C030000 		.4byte	0x33c
 3020 0367 10       		.uleb128 0x10
 3021 0368 EF000000 		.4byte	0xef
 3022 036c 00       		.byte	0
 3023 036d 04       		.uleb128 0x4
 3024 036e 1D060000 		.4byte	.LASF67
 3025 0372 08       		.byte	0x8
 3026 0373 A8       		.byte	0xa8
 3027 0374 78030000 		.4byte	0x378
 3028 0378 06       		.uleb128 0x6
 3029 0379 04       		.byte	0x4
 3030 037a 7E030000 		.4byte	0x37e
 3031 037e 0F       		.uleb128 0xf
 3032 037f D9000000 		.4byte	0xd9
 3033 0383 92030000 		.4byte	0x392
 3034 0387 10       		.uleb128 0x10
 3035 0388 3C030000 		.4byte	0x33c
 3036 038c 10       		.uleb128 0x10
 3037 038d 05010000 		.4byte	0x105
 3038 0391 00       		.byte	0
 3039 0392 04       		.uleb128 0x4
 3040 0393 5E030000 		.4byte	.LASF68
 3041 0397 08       		.byte	0x8
 3042 0398 AB       		.byte	0xab
 3043 0399 9D030000 		.4byte	0x39d
 3044 039d 06       		.uleb128 0x6
 3045 039e 04       		.byte	0x4
 3046 039f A3030000 		.4byte	0x3a3
 3047 03a3 0F       		.uleb128 0xf
 3048 03a4 05010000 		.4byte	0x105
 3049 03a8 B8030000 		.4byte	0x3b8
 3050 03ac 10       		.uleb128 0x10
 3051 03ad B4000000 		.4byte	0xb4
 3052 03b1 10       		.uleb128 0x10
 3053 03b2 B6000000 		.4byte	0xb6
 3054 03b6 11       		.uleb128 0x11
 3055 03b7 00       		.byte	0
 3056 03b8 04       		.uleb128 0x4
 3057 03b9 A4100000 		.4byte	.LASF69
 3058 03bd 08       		.byte	0x8
 3059 03be AF       		.byte	0xaf
 3060 03bf C3030000 		.4byte	0x3c3
 3061 03c3 06       		.uleb128 0x6
 3062 03c4 04       		.byte	0x4
 3063 03c5 C9030000 		.4byte	0x3c9
 3064 03c9 0F       		.uleb128 0xf
 3065 03ca D9000000 		.4byte	0xd9
 3066 03ce DD030000 		.4byte	0x3dd
 3067 03d2 10       		.uleb128 0x10
 3068 03d3 3C030000 		.4byte	0x33c
 3069 03d7 10       		.uleb128 0x10
 3070 03d8 B4000000 		.4byte	0xb4
 3071 03dc 00       		.byte	0
 3072 03dd 12       		.uleb128 0x12
 3073 03de 18       		.byte	0x18
 3074 03df 08       		.byte	0x8
 3075 03e0 B1       		.byte	0xb1
ARM GAS  C:\Users\chemi\AppData\Local\Temp\ccbZzKkH.s 			page 77


 3076 03e1 2E040000 		.4byte	0x42e
 3077 03e5 0E       		.uleb128 0xe
 3078 03e6 9E070000 		.4byte	.LASF70
 3079 03ea 08       		.byte	0x8
 3080 03eb B2       		.byte	0xb2
 3081 03ec 72010000 		.4byte	0x172
 3082 03f0 00       		.byte	0
 3083 03f1 0E       		.uleb128 0xe
 3084 03f2 1B120000 		.4byte	.LASF71
 3085 03f6 08       		.byte	0x8
 3086 03f7 B3       		.byte	0xb3
 3087 03f8 48030000 		.4byte	0x348
 3088 03fc 04       		.byte	0x4
 3089 03fd 0E       		.uleb128 0xe
 3090 03fe 3C070000 		.4byte	.LASF72
 3091 0402 08       		.byte	0x8
 3092 0403 B4       		.byte	0xb4
 3093 0404 D9000000 		.4byte	0xd9
 3094 0408 08       		.byte	0x8
 3095 0409 0E       		.uleb128 0xe
 3096 040a 04050000 		.4byte	.LASF73
 3097 040e 08       		.byte	0x8
 3098 040f B5       		.byte	0xb5
 3099 0410 88010000 		.4byte	0x188
 3100 0414 0C       		.byte	0xc
 3101 0415 0E       		.uleb128 0xe
 3102 0416 D3090000 		.4byte	.LASF74
 3103 041a 08       		.byte	0x8
 3104 041b B6       		.byte	0xb6
 3105 041c 42030000 		.4byte	0x342
 3106 0420 10       		.byte	0x10
 3107 0421 0E       		.uleb128 0xe
 3108 0422 AF0C0000 		.4byte	.LASF75
 3109 0426 08       		.byte	0x8
 3110 0427 B7       		.byte	0xb7
 3111 0428 D9000000 		.4byte	0xd9
 3112 042c 14       		.byte	0x14
 3113 042d 00       		.byte	0
 3114 042e 04       		.uleb128 0x4
 3115 042f FD0F0000 		.4byte	.LASF76
 3116 0433 08       		.byte	0x8
 3117 0434 B8       		.byte	0xb8
 3118 0435 DD030000 		.4byte	0x3dd
 3119 0439 06       		.uleb128 0x6
 3120 043a 04       		.byte	0x4
 3121 043b 9A020000 		.4byte	0x29a
 3122 043f 06       		.uleb128 0x6
 3123 0440 04       		.byte	0x4
 3124 0441 2E040000 		.4byte	0x42e
 3125 0445 0A       		.uleb128 0xa
 3126 0446 B6000000 		.4byte	0xb6
 3127 044a 55040000 		.4byte	0x455
 3128 044e 0B       		.uleb128 0xb
 3129 044f AD000000 		.4byte	0xad
 3130 0453 0F       		.byte	0xf
 3131 0454 00       		.byte	0
 3132 0455 0A       		.uleb128 0xa
ARM GAS  C:\Users\chemi\AppData\Local\Temp\ccbZzKkH.s 			page 78


 3133 0456 D9000000 		.4byte	0xd9
 3134 045a 65040000 		.4byte	0x465
 3135 045e 0B       		.uleb128 0xb
 3136 045f AD000000 		.4byte	0xad
 3137 0463 0F       		.byte	0xf
 3138 0464 00       		.byte	0
 3139 0465 04       		.uleb128 0x4
 3140 0466 6D110000 		.4byte	.LASF77
 3141 046a 09       		.byte	0x9
 3142 046b 63       		.byte	0x63
 3143 046c 70040000 		.4byte	0x470
 3144 0470 0D       		.uleb128 0xd
 3145 0471 260B0000 		.4byte	.LASF78
 3146 0475 24       		.byte	0x24
 3147 0476 09       		.byte	0x9
 3148 0477 64       		.byte	0x64
 3149 0478 01050000 		.4byte	0x501
 3150 047c 0E       		.uleb128 0xe
 3151 047d E40C0000 		.4byte	.LASF79
 3152 0481 09       		.byte	0x9
 3153 0482 65       		.byte	0x65
 3154 0483 01050000 		.4byte	0x501
 3155 0487 00       		.byte	0
 3156 0488 0E       		.uleb128 0xe
 3157 0489 5D100000 		.4byte	.LASF80
 3158 048d 09       		.byte	0x9
 3159 048e 66       		.byte	0x66
 3160 048f D9000000 		.4byte	0xd9
 3161 0493 01       		.byte	0x1
 3162 0494 0E       		.uleb128 0xe
 3163 0495 1A100000 		.4byte	.LASF81
 3164 0499 09       		.byte	0x9
 3165 049a 67       		.byte	0x67
 3166 049b C3000000 		.4byte	0xc3
 3167 049f 04       		.byte	0x4
 3168 04a0 0E       		.uleb128 0xe
 3169 04a1 79050000 		.4byte	.LASF82
 3170 04a5 09       		.byte	0x9
 3171 04a6 68       		.byte	0x68
 3172 04a7 B4000000 		.4byte	0xb4
 3173 04ab 08       		.byte	0x8
 3174 04ac 0E       		.uleb128 0xe
 3175 04ad 200E0000 		.4byte	.LASF83
 3176 04b1 09       		.byte	0x9
 3177 04b2 69       		.byte	0x69
 3178 04b3 01050000 		.4byte	0x501
 3179 04b7 0C       		.byte	0xc
 3180 04b8 0E       		.uleb128 0xe
 3181 04b9 60020000 		.4byte	.LASF84
 3182 04bd 09       		.byte	0x9
 3183 04be 6A       		.byte	0x6a
 3184 04bf 01050000 		.4byte	0x501
 3185 04c3 0D       		.byte	0xd
 3186 04c4 13       		.uleb128 0x13
 3187 04c5 6D696E00 		.ascii	"min\000"
 3188 04c9 09       		.byte	0x9
 3189 04ca 6B       		.byte	0x6b
ARM GAS  C:\Users\chemi\AppData\Local\Temp\ccbZzKkH.s 			page 79


 3190 04cb 06050000 		.4byte	0x506
 3191 04cf 10       		.byte	0x10
 3192 04d0 13       		.uleb128 0x13
 3193 04d1 6D617800 		.ascii	"max\000"
 3194 04d5 09       		.byte	0x9
 3195 04d6 6C       		.byte	0x6c
 3196 04d7 06050000 		.4byte	0x506
 3197 04db 14       		.byte	0x14
 3198 04dc 13       		.uleb128 0x13
 3199 04dd 64697600 		.ascii	"div\000"
 3200 04e1 09       		.byte	0x9
 3201 04e2 6D       		.byte	0x6d
 3202 04e3 0B050000 		.4byte	0x50b
 3203 04e7 18       		.byte	0x18
 3204 04e8 0E       		.uleb128 0xe
 3205 04e9 E8090000 		.4byte	.LASF85
 3206 04ed 09       		.byte	0x9
 3207 04ee 6E       		.byte	0x6e
 3208 04ef 2F050000 		.4byte	0x52f
 3209 04f3 1C       		.byte	0x1c
 3210 04f4 0E       		.uleb128 0xe
 3211 04f5 AF0B0000 		.4byte	.LASF86
 3212 04f9 09       		.byte	0x9
 3213 04fa 6F       		.byte	0x6f
 3214 04fb C3000000 		.4byte	0xc3
 3215 04ff 20       		.byte	0x20
 3216 0500 00       		.byte	0
 3217 0501 07       		.uleb128 0x7
 3218 0502 D9000000 		.4byte	0xd9
 3219 0506 07       		.uleb128 0x7
 3220 0507 FA000000 		.4byte	0xfa
 3221 050b 07       		.uleb128 0x7
 3222 050c EF000000 		.4byte	0xef
 3223 0510 0F       		.uleb128 0xf
 3224 0511 D9000000 		.4byte	0xd9
 3225 0515 29050000 		.4byte	0x529
 3226 0519 10       		.uleb128 0x10
 3227 051a 29050000 		.4byte	0x529
 3228 051e 10       		.uleb128 0x10
 3229 051f D9000000 		.4byte	0xd9
 3230 0523 10       		.uleb128 0x10
 3231 0524 3C030000 		.4byte	0x33c
 3232 0528 00       		.byte	0
 3233 0529 06       		.uleb128 0x6
 3234 052a 04       		.byte	0x4
 3235 052b 65040000 		.4byte	0x465
 3236 052f 06       		.uleb128 0x6
 3237 0530 04       		.byte	0x4
 3238 0531 10050000 		.4byte	0x510
 3239 0535 04       		.uleb128 0x4
 3240 0536 9F090000 		.4byte	.LASF87
 3241 053a 0A       		.byte	0xa
 3242 053b 4E       		.byte	0x4e
 3243 053c 40050000 		.4byte	0x540
 3244 0540 06       		.uleb128 0x6
 3245 0541 04       		.byte	0x4
 3246 0542 46050000 		.4byte	0x546
ARM GAS  C:\Users\chemi\AppData\Local\Temp\ccbZzKkH.s 			page 80


 3247 0546 0C       		.uleb128 0xc
 3248 0547 D8090000 		.4byte	.LASF88
 3249 054b 0D       		.uleb128 0xd
 3250 054c 500D0000 		.4byte	.LASF89
 3251 0550 7C       		.byte	0x7c
 3252 0551 0B       		.byte	0xb
 3253 0552 4B       		.byte	0x4b
 3254 0553 F8070000 		.4byte	0x7f8
 3255 0557 0E       		.uleb128 0xe
 3256 0558 F10E0000 		.4byte	.LASF90
 3257 055c 0B       		.byte	0xb
 3258 055d 4C       		.byte	0x4c
 3259 055e D9000000 		.4byte	0xd9
 3260 0562 00       		.byte	0
 3261 0563 0E       		.uleb128 0xe
 3262 0564 F9070000 		.4byte	.LASF91
 3263 0568 0B       		.byte	0xb
 3264 0569 4D       		.byte	0x4d
 3265 056a EF000000 		.4byte	0xef
 3266 056e 02       		.byte	0x2
 3267 056f 0E       		.uleb128 0xe
 3268 0570 0F140000 		.4byte	.LASF92
 3269 0574 0B       		.byte	0xb
 3270 0575 4E       		.byte	0x4e
 3271 0576 EF000000 		.4byte	0xef
 3272 057a 04       		.byte	0x4
 3273 057b 0E       		.uleb128 0xe
 3274 057c 250A0000 		.4byte	.LASF93
 3275 0580 0B       		.byte	0xb
 3276 0581 4F       		.byte	0x4f
 3277 0582 EF000000 		.4byte	0xef
 3278 0586 06       		.byte	0x6
 3279 0587 0E       		.uleb128 0xe
 3280 0588 12060000 		.4byte	.LASF94
 3281 058c 0B       		.byte	0xb
 3282 058d 50       		.byte	0x50
 3283 058e EF000000 		.4byte	0xef
 3284 0592 08       		.byte	0x8
 3285 0593 0E       		.uleb128 0xe
 3286 0594 FD110000 		.4byte	.LASF95
 3287 0598 0B       		.byte	0xb
 3288 0599 51       		.byte	0x51
 3289 059a EF000000 		.4byte	0xef
 3290 059e 0A       		.byte	0xa
 3291 059f 0E       		.uleb128 0xe
 3292 05a0 DE040000 		.4byte	.LASF96
 3293 05a4 0B       		.byte	0xb
 3294 05a5 52       		.byte	0x52
 3295 05a6 EF000000 		.4byte	0xef
 3296 05aa 0C       		.byte	0xc
 3297 05ab 0E       		.uleb128 0xe
 3298 05ac DA060000 		.4byte	.LASF97
 3299 05b0 0B       		.byte	0xb
 3300 05b1 53       		.byte	0x53
 3301 05b2 EF000000 		.4byte	0xef
 3302 05b6 0E       		.byte	0xe
 3303 05b7 0E       		.uleb128 0xe
ARM GAS  C:\Users\chemi\AppData\Local\Temp\ccbZzKkH.s 			page 81


 3304 05b8 870F0000 		.4byte	.LASF98
 3305 05bc 0B       		.byte	0xb
 3306 05bd 54       		.byte	0x54
 3307 05be D9000000 		.4byte	0xd9
 3308 05c2 10       		.byte	0x10
 3309 05c3 0E       		.uleb128 0xe
 3310 05c4 600C0000 		.4byte	.LASF99
 3311 05c8 0B       		.byte	0xb
 3312 05c9 55       		.byte	0x55
 3313 05ca D9000000 		.4byte	0xd9
 3314 05ce 11       		.byte	0x11
 3315 05cf 0E       		.uleb128 0xe
 3316 05d0 E5080000 		.4byte	.LASF100
 3317 05d4 0B       		.byte	0xb
 3318 05d5 56       		.byte	0x56
 3319 05d6 EF000000 		.4byte	0xef
 3320 05da 12       		.byte	0x12
 3321 05db 0E       		.uleb128 0xe
 3322 05dc 7E090000 		.4byte	.LASF101
 3323 05e0 0B       		.byte	0xb
 3324 05e1 57       		.byte	0x57
 3325 05e2 EF000000 		.4byte	0xef
 3326 05e6 14       		.byte	0x14
 3327 05e7 0E       		.uleb128 0xe
 3328 05e8 04140000 		.4byte	.LASF102
 3329 05ec 0B       		.byte	0xb
 3330 05ed 58       		.byte	0x58
 3331 05ee EF000000 		.4byte	0xef
 3332 05f2 16       		.byte	0x16
 3333 05f3 0E       		.uleb128 0xe
 3334 05f4 090D0000 		.4byte	.LASF103
 3335 05f8 0B       		.byte	0xb
 3336 05f9 59       		.byte	0x59
 3337 05fa EF000000 		.4byte	0xef
 3338 05fe 18       		.byte	0x18
 3339 05ff 0E       		.uleb128 0xe
 3340 0600 980F0000 		.4byte	.LASF104
 3341 0604 0B       		.byte	0xb
 3342 0605 5A       		.byte	0x5a
 3343 0606 EF000000 		.4byte	0xef
 3344 060a 1A       		.byte	0x1a
 3345 060b 0E       		.uleb128 0xe
 3346 060c 94100000 		.4byte	.LASF105
 3347 0610 0B       		.byte	0xb
 3348 0611 5B       		.byte	0x5b
 3349 0612 EF000000 		.4byte	0xef
 3350 0616 1C       		.byte	0x1c
 3351 0617 0E       		.uleb128 0xe
 3352 0618 F00F0000 		.4byte	.LASF106
 3353 061c 0B       		.byte	0xb
 3354 061d 5C       		.byte	0x5c
 3355 061e D9000000 		.4byte	0xd9
 3356 0622 1E       		.byte	0x1e
 3357 0623 0E       		.uleb128 0xe
 3358 0624 13070000 		.4byte	.LASF107
 3359 0628 0B       		.byte	0xb
 3360 0629 5D       		.byte	0x5d
ARM GAS  C:\Users\chemi\AppData\Local\Temp\ccbZzKkH.s 			page 82


 3361 062a EF000000 		.4byte	0xef
 3362 062e 20       		.byte	0x20
 3363 062f 0E       		.uleb128 0xe
 3364 0630 780A0000 		.4byte	.LASF108
 3365 0634 0B       		.byte	0xb
 3366 0635 5E       		.byte	0x5e
 3367 0636 EF000000 		.4byte	0xef
 3368 063a 22       		.byte	0x22
 3369 063b 0E       		.uleb128 0xe
 3370 063c 3F090000 		.4byte	.LASF109
 3371 0640 0B       		.byte	0xb
 3372 0641 5F       		.byte	0x5f
 3373 0642 EF000000 		.4byte	0xef
 3374 0646 24       		.byte	0x24
 3375 0647 0E       		.uleb128 0xe
 3376 0648 2D050000 		.4byte	.LASF110
 3377 064c 0B       		.byte	0xb
 3378 064d 60       		.byte	0x60
 3379 064e EF000000 		.4byte	0xef
 3380 0652 26       		.byte	0x26
 3381 0653 0E       		.uleb128 0xe
 3382 0654 75010000 		.4byte	.LASF111
 3383 0658 0B       		.byte	0xb
 3384 0659 61       		.byte	0x61
 3385 065a EF000000 		.4byte	0xef
 3386 065e 28       		.byte	0x28
 3387 065f 0E       		.uleb128 0xe
 3388 0660 300A0000 		.4byte	.LASF112
 3389 0664 0B       		.byte	0xb
 3390 0665 62       		.byte	0x62
 3391 0666 D9000000 		.4byte	0xd9
 3392 066a 2A       		.byte	0x2a
 3393 066b 0E       		.uleb128 0xe
 3394 066c 450D0000 		.4byte	.LASF113
 3395 0670 0B       		.byte	0xb
 3396 0671 63       		.byte	0x63
 3397 0672 28010000 		.4byte	0x128
 3398 0676 2C       		.byte	0x2c
 3399 0677 0E       		.uleb128 0xe
 3400 0678 3A0D0000 		.4byte	.LASF114
 3401 067c 0B       		.byte	0xb
 3402 067d 64       		.byte	0x64
 3403 067e 28010000 		.4byte	0x128
 3404 0682 30       		.byte	0x30
 3405 0683 0E       		.uleb128 0xe
 3406 0684 EC0B0000 		.4byte	.LASF115
 3407 0688 0B       		.byte	0xb
 3408 0689 65       		.byte	0x65
 3409 068a D9000000 		.4byte	0xd9
 3410 068e 34       		.byte	0x34
 3411 068f 0E       		.uleb128 0xe
 3412 0690 24030000 		.4byte	.LASF116
 3413 0694 0B       		.byte	0xb
 3414 0695 66       		.byte	0x66
 3415 0696 D9000000 		.4byte	0xd9
 3416 069a 35       		.byte	0x35
 3417 069b 0E       		.uleb128 0xe
ARM GAS  C:\Users\chemi\AppData\Local\Temp\ccbZzKkH.s 			page 83


 3418 069c A4120000 		.4byte	.LASF117
 3419 06a0 0B       		.byte	0xb
 3420 06a1 67       		.byte	0x67
 3421 06a2 D9000000 		.4byte	0xd9
 3422 06a6 36       		.byte	0x36
 3423 06a7 0E       		.uleb128 0xe
 3424 06a8 6D100000 		.4byte	.LASF118
 3425 06ac 0B       		.byte	0xb
 3426 06ad 68       		.byte	0x68
 3427 06ae F8070000 		.4byte	0x7f8
 3428 06b2 37       		.byte	0x37
 3429 06b3 0E       		.uleb128 0xe
 3430 06b4 55110000 		.4byte	.LASF119
 3431 06b8 0B       		.byte	0xb
 3432 06b9 69       		.byte	0x69
 3433 06ba 05010000 		.4byte	0x105
 3434 06be 48       		.byte	0x48
 3435 06bf 0E       		.uleb128 0xe
 3436 06c0 64040000 		.4byte	.LASF120
 3437 06c4 0B       		.byte	0xb
 3438 06c5 6A       		.byte	0x6a
 3439 06c6 D9000000 		.4byte	0xd9
 3440 06ca 4C       		.byte	0x4c
 3441 06cb 0E       		.uleb128 0xe
 3442 06cc 3C0E0000 		.4byte	.LASF121
 3443 06d0 0B       		.byte	0xb
 3444 06d1 6B       		.byte	0x6b
 3445 06d2 EF000000 		.4byte	0xef
 3446 06d6 4E       		.byte	0x4e
 3447 06d7 0E       		.uleb128 0xe
 3448 06d8 BA0A0000 		.4byte	.LASF122
 3449 06dc 0B       		.byte	0xb
 3450 06dd 6C       		.byte	0x6c
 3451 06de EF000000 		.4byte	0xef
 3452 06e2 50       		.byte	0x50
 3453 06e3 0E       		.uleb128 0xe
 3454 06e4 A3040000 		.4byte	.LASF123
 3455 06e8 0B       		.byte	0xb
 3456 06e9 6D       		.byte	0x6d
 3457 06ea EF000000 		.4byte	0xef
 3458 06ee 52       		.byte	0x52
 3459 06ef 0E       		.uleb128 0xe
 3460 06f0 70060000 		.4byte	.LASF124
 3461 06f4 0B       		.byte	0xb
 3462 06f5 6E       		.byte	0x6e
 3463 06f6 05010000 		.4byte	0x105
 3464 06fa 54       		.byte	0x54
 3465 06fb 0E       		.uleb128 0xe
 3466 06fc 47130000 		.4byte	.LASF125
 3467 0700 0B       		.byte	0xb
 3468 0701 6F       		.byte	0x6f
 3469 0702 EF000000 		.4byte	0xef
 3470 0706 58       		.byte	0x58
 3471 0707 0E       		.uleb128 0xe
 3472 0708 DB110000 		.4byte	.LASF126
 3473 070c 0B       		.byte	0xb
 3474 070d 70       		.byte	0x70
ARM GAS  C:\Users\chemi\AppData\Local\Temp\ccbZzKkH.s 			page 84


 3475 070e D9000000 		.4byte	0xd9
 3476 0712 5A       		.byte	0x5a
 3477 0713 0E       		.uleb128 0xe
 3478 0714 49080000 		.4byte	.LASF127
 3479 0718 0B       		.byte	0xb
 3480 0719 71       		.byte	0x71
 3481 071a D9000000 		.4byte	0xd9
 3482 071e 5B       		.byte	0x5b
 3483 071f 0E       		.uleb128 0xe
 3484 0720 10050000 		.4byte	.LASF128
 3485 0724 0B       		.byte	0xb
 3486 0725 72       		.byte	0x72
 3487 0726 D9000000 		.4byte	0xd9
 3488 072a 5C       		.byte	0x5c
 3489 072b 0E       		.uleb128 0xe
 3490 072c B8020000 		.4byte	.LASF129
 3491 0730 0B       		.byte	0xb
 3492 0731 73       		.byte	0x73
 3493 0732 D9000000 		.4byte	0xd9
 3494 0736 5D       		.byte	0x5d
 3495 0737 0E       		.uleb128 0xe
 3496 0738 6A0C0000 		.4byte	.LASF130
 3497 073c 0B       		.byte	0xb
 3498 073d 74       		.byte	0x74
 3499 073e EF000000 		.4byte	0xef
 3500 0742 5E       		.byte	0x5e
 3501 0743 0E       		.uleb128 0xe
 3502 0744 FE040000 		.4byte	.LASF131
 3503 0748 0B       		.byte	0xb
 3504 0749 75       		.byte	0x75
 3505 074a EF000000 		.4byte	0xef
 3506 074e 60       		.byte	0x60
 3507 074f 0E       		.uleb128 0xe
 3508 0750 7D110000 		.4byte	.LASF132
 3509 0754 0B       		.byte	0xb
 3510 0755 76       		.byte	0x76
 3511 0756 EF000000 		.4byte	0xef
 3512 075a 62       		.byte	0x62
 3513 075b 0E       		.uleb128 0xe
 3514 075c 200A0000 		.4byte	.LASF133
 3515 0760 0B       		.byte	0xb
 3516 0761 77       		.byte	0x77
 3517 0762 EF000000 		.4byte	0xef
 3518 0766 64       		.byte	0x64
 3519 0767 0E       		.uleb128 0xe
 3520 0768 65100000 		.4byte	.LASF134
 3521 076c 0B       		.byte	0xb
 3522 076d 78       		.byte	0x78
 3523 076e D9000000 		.4byte	0xd9
 3524 0772 66       		.byte	0x66
 3525 0773 0E       		.uleb128 0xe
 3526 0774 3C050000 		.4byte	.LASF135
 3527 0778 0B       		.byte	0xb
 3528 0779 79       		.byte	0x79
 3529 077a EF000000 		.4byte	0xef
 3530 077e 68       		.byte	0x68
 3531 077f 0E       		.uleb128 0xe
ARM GAS  C:\Users\chemi\AppData\Local\Temp\ccbZzKkH.s 			page 85


 3532 0780 CC090000 		.4byte	.LASF136
 3533 0784 0B       		.byte	0xb
 3534 0785 7A       		.byte	0x7a
 3535 0786 28010000 		.4byte	0x128
 3536 078a 6C       		.byte	0x6c
 3537 078b 0E       		.uleb128 0xe
 3538 078c C5050000 		.4byte	.LASF137
 3539 0790 0B       		.byte	0xb
 3540 0791 7B       		.byte	0x7b
 3541 0792 D9000000 		.4byte	0xd9
 3542 0796 70       		.byte	0x70
 3543 0797 0E       		.uleb128 0xe
 3544 0798 18130000 		.4byte	.LASF138
 3545 079c 0B       		.byte	0xb
 3546 079d 7C       		.byte	0x7c
 3547 079e D9000000 		.4byte	0xd9
 3548 07a2 71       		.byte	0x71
 3549 07a3 0E       		.uleb128 0xe
 3550 07a4 46110000 		.4byte	.LASF139
 3551 07a8 0B       		.byte	0xb
 3552 07a9 7D       		.byte	0x7d
 3553 07aa D9000000 		.4byte	0xd9
 3554 07ae 72       		.byte	0x72
 3555 07af 0E       		.uleb128 0xe
 3556 07b0 C6020000 		.4byte	.LASF140
 3557 07b4 0B       		.byte	0xb
 3558 07b5 7F       		.byte	0x7f
 3559 07b6 D9000000 		.4byte	0xd9
 3560 07ba 73       		.byte	0x73
 3561 07bb 0E       		.uleb128 0xe
 3562 07bc ED040000 		.4byte	.LASF141
 3563 07c0 0B       		.byte	0xb
 3564 07c1 81       		.byte	0x81
 3565 07c2 D9000000 		.4byte	0xd9
 3566 07c6 74       		.byte	0x74
 3567 07c7 0E       		.uleb128 0xe
 3568 07c8 C60A0000 		.4byte	.LASF142
 3569 07cc 0B       		.byte	0xb
 3570 07cd 82       		.byte	0x82
 3571 07ce D9000000 		.4byte	0xd9
 3572 07d2 75       		.byte	0x75
 3573 07d3 0E       		.uleb128 0xe
 3574 07d4 D8100000 		.4byte	.LASF143
 3575 07d8 0B       		.byte	0xb
 3576 07d9 83       		.byte	0x83
 3577 07da D9000000 		.4byte	0xd9
 3578 07de 76       		.byte	0x76
 3579 07df 0E       		.uleb128 0xe
 3580 07e0 2B010000 		.4byte	.LASF144
 3581 07e4 0B       		.byte	0xb
 3582 07e5 84       		.byte	0x84
 3583 07e6 D9000000 		.4byte	0xd9
 3584 07ea 77       		.byte	0x77
 3585 07eb 0E       		.uleb128 0xe
 3586 07ec 530C0000 		.4byte	.LASF145
 3587 07f0 0B       		.byte	0xb
 3588 07f1 86       		.byte	0x86
ARM GAS  C:\Users\chemi\AppData\Local\Temp\ccbZzKkH.s 			page 86


 3589 07f2 28010000 		.4byte	0x128
 3590 07f6 78       		.byte	0x78
 3591 07f7 00       		.byte	0
 3592 07f8 0A       		.uleb128 0xa
 3593 07f9 BC000000 		.4byte	0xbc
 3594 07fd 08080000 		.4byte	0x808
 3595 0801 0B       		.uleb128 0xb
 3596 0802 AD000000 		.4byte	0xad
 3597 0806 0F       		.byte	0xf
 3598 0807 00       		.byte	0
 3599 0808 04       		.uleb128 0x4
 3600 0809 C7030000 		.4byte	.LASF146
 3601 080d 0B       		.byte	0xb
 3602 080e 88       		.byte	0x88
 3603 080f 4B050000 		.4byte	0x54b
 3604 0813 0D       		.uleb128 0xd
 3605 0814 BA080000 		.4byte	.LASF147
 3606 0818 24       		.byte	0x24
 3607 0819 0B       		.byte	0xb
 3608 081a 8A       		.byte	0x8a
 3609 081b 03090000 		.4byte	0x903
 3610 081f 13       		.uleb128 0x13
 3611 0820 707700   		.ascii	"pw\000"
 3612 0823 0B       		.byte	0xb
 3613 0824 8B       		.byte	0x8b
 3614 0825 EF000000 		.4byte	0xef
 3615 0829 00       		.byte	0
 3616 082a 13       		.uleb128 0x13
 3617 082b 70776400 		.ascii	"pwd\000"
 3618 082f 0B       		.byte	0xb
 3619 0830 8C       		.byte	0x8c
 3620 0831 EF000000 		.4byte	0xef
 3621 0835 02       		.byte	0x2
 3622 0836 13       		.uleb128 0x13
 3623 0837 766F6C00 		.ascii	"vol\000"
 3624 083b 0B       		.byte	0xb
 3625 083c 8D       		.byte	0x8d
 3626 083d EF000000 		.4byte	0xef
 3627 0841 04       		.byte	0x4
 3628 0842 0E       		.uleb128 0xe
 3629 0843 D2030000 		.4byte	.LASF148
 3630 0847 0B       		.byte	0xb
 3631 0848 8E       		.byte	0x8e
 3632 0849 EF000000 		.4byte	0xef
 3633 084d 06       		.byte	0x6
 3634 084e 0E       		.uleb128 0xe
 3635 084f DD030000 		.4byte	.LASF149
 3636 0853 0B       		.byte	0xb
 3637 0854 8F       		.byte	0x8f
 3638 0855 EF000000 		.4byte	0xef
 3639 0859 08       		.byte	0x8
 3640 085a 0E       		.uleb128 0xe
 3641 085b 0F0E0000 		.4byte	.LASF150
 3642 085f 0B       		.byte	0xb
 3643 0860 90       		.byte	0x90
 3644 0861 EF000000 		.4byte	0xef
 3645 0865 0A       		.byte	0xa
ARM GAS  C:\Users\chemi\AppData\Local\Temp\ccbZzKkH.s 			page 87


 3646 0866 0E       		.uleb128 0xe
 3647 0867 780C0000 		.4byte	.LASF151
 3648 086b 0B       		.byte	0xb
 3649 086c 91       		.byte	0x91
 3650 086d EF000000 		.4byte	0xef
 3651 0871 0C       		.byte	0xc
 3652 0872 0E       		.uleb128 0xe
 3653 0873 F4060000 		.4byte	.LASF152
 3654 0877 0B       		.byte	0xb
 3655 0878 92       		.byte	0x92
 3656 0879 EF000000 		.4byte	0xef
 3657 087d 0E       		.byte	0xe
 3658 087e 0E       		.uleb128 0xe
 3659 087f 07130000 		.4byte	.LASF153
 3660 0883 0B       		.byte	0xb
 3661 0884 93       		.byte	0x93
 3662 0885 EF000000 		.4byte	0xef
 3663 0889 10       		.byte	0x10
 3664 088a 0E       		.uleb128 0xe
 3665 088b F9030000 		.4byte	.LASF154
 3666 088f 0B       		.byte	0xb
 3667 0890 94       		.byte	0x94
 3668 0891 D9000000 		.4byte	0xd9
 3669 0895 12       		.byte	0x12
 3670 0896 0E       		.uleb128 0xe
 3671 0897 A4020000 		.4byte	.LASF155
 3672 089b 0B       		.byte	0xb
 3673 089c 95       		.byte	0x95
 3674 089d D9000000 		.4byte	0xd9
 3675 08a1 13       		.byte	0x13
 3676 08a2 0E       		.uleb128 0xe
 3677 08a3 04090000 		.4byte	.LASF156
 3678 08a7 0B       		.byte	0xb
 3679 08a8 96       		.byte	0x96
 3680 08a9 D9000000 		.4byte	0xd9
 3681 08ad 14       		.byte	0x14
 3682 08ae 0E       		.uleb128 0xe
 3683 08af EC0A0000 		.4byte	.LASF157
 3684 08b3 0B       		.byte	0xb
 3685 08b4 97       		.byte	0x97
 3686 08b5 EF000000 		.4byte	0xef
 3687 08b9 16       		.byte	0x16
 3688 08ba 0E       		.uleb128 0xe
 3689 08bb 6C010000 		.4byte	.LASF158
 3690 08bf 0B       		.byte	0xb
 3691 08c0 98       		.byte	0x98
 3692 08c1 EF000000 		.4byte	0xef
 3693 08c5 18       		.byte	0x18
 3694 08c6 0E       		.uleb128 0xe
 3695 08c7 E90D0000 		.4byte	.LASF159
 3696 08cb 0B       		.byte	0xb
 3697 08cc 99       		.byte	0x99
 3698 08cd D9000000 		.4byte	0xd9
 3699 08d1 1A       		.byte	0x1a
 3700 08d2 0E       		.uleb128 0xe
 3701 08d3 4F030000 		.4byte	.LASF160
 3702 08d7 0B       		.byte	0xb
ARM GAS  C:\Users\chemi\AppData\Local\Temp\ccbZzKkH.s 			page 88


 3703 08d8 9A       		.byte	0x9a
 3704 08d9 EF000000 		.4byte	0xef
 3705 08dd 1C       		.byte	0x1c
 3706 08de 0E       		.uleb128 0xe
 3707 08df 850A0000 		.4byte	.LASF161
 3708 08e3 0B       		.byte	0xb
 3709 08e4 9B       		.byte	0x9b
 3710 08e5 EF000000 		.4byte	0xef
 3711 08e9 1E       		.byte	0x1e
 3712 08ea 0E       		.uleb128 0xe
 3713 08eb C0040000 		.4byte	.LASF162
 3714 08ef 0B       		.byte	0xb
 3715 08f0 9C       		.byte	0x9c
 3716 08f1 D9000000 		.4byte	0xd9
 3717 08f5 20       		.byte	0x20
 3718 08f6 0E       		.uleb128 0xe
 3719 08f7 20080000 		.4byte	.LASF163
 3720 08fb 0B       		.byte	0xb
 3721 08fc 9D       		.byte	0x9d
 3722 08fd EF000000 		.4byte	0xef
 3723 0901 22       		.byte	0x22
 3724 0902 00       		.byte	0
 3725 0903 04       		.uleb128 0x4
 3726 0904 1C020000 		.4byte	.LASF164
 3727 0908 0B       		.byte	0xb
 3728 0909 9F       		.byte	0x9f
 3729 090a 13080000 		.4byte	0x813
 3730 090e 14       		.uleb128 0x14
 3731 090f 9601     		.2byte	0x196
 3732 0911 0C       		.byte	0xc
 3733 0912 22       		.byte	0x22
 3734 0913 48090000 		.4byte	0x948
 3735 0917 0E       		.uleb128 0xe
 3736 0918 CB0C0000 		.4byte	.LASF165
 3737 091c 0C       		.byte	0xc
 3738 091d 24       		.byte	0x24
 3739 091e D9000000 		.4byte	0xd9
 3740 0922 00       		.byte	0
 3741 0923 0E       		.uleb128 0xe
 3742 0924 B4080000 		.4byte	.LASF166
 3743 0928 0C       		.byte	0xc
 3744 0929 25       		.byte	0x25
 3745 092a EF000000 		.4byte	0xef
 3746 092e 02       		.byte	0x2
 3747 092f 0E       		.uleb128 0xe
 3748 0930 84070000 		.4byte	.LASF167
 3749 0934 0C       		.byte	0xc
 3750 0935 26       		.byte	0x26
 3751 0936 EF000000 		.4byte	0xef
 3752 093a 04       		.byte	0x4
 3753 093b 0E       		.uleb128 0xe
 3754 093c C4130000 		.4byte	.LASF168
 3755 0940 0C       		.byte	0xc
 3756 0941 27       		.byte	0x27
 3757 0942 48090000 		.4byte	0x948
 3758 0946 06       		.byte	0x6
 3759 0947 00       		.byte	0
ARM GAS  C:\Users\chemi\AppData\Local\Temp\ccbZzKkH.s 			page 89


 3760 0948 0A       		.uleb128 0xa
 3761 0949 D9000000 		.4byte	0xd9
 3762 094d 59090000 		.4byte	0x959
 3763 0951 15       		.uleb128 0x15
 3764 0952 AD000000 		.4byte	0xad
 3765 0956 8F01     		.2byte	0x18f
 3766 0958 00       		.byte	0
 3767 0959 04       		.uleb128 0x4
 3768 095a AD090000 		.4byte	.LASF169
 3769 095e 0C       		.byte	0xc
 3770 095f 28       		.byte	0x28
 3771 0960 0E090000 		.4byte	0x90e
 3772 0964 12       		.uleb128 0x12
 3773 0965 1A       		.byte	0x1a
 3774 0966 0D       		.byte	0xd
 3775 0967 21       		.byte	0x21
 3776 0968 150A0000 		.4byte	0xa15
 3777 096c 0E       		.uleb128 0xe
 3778 096d 6C0B0000 		.4byte	.LASF170
 3779 0971 0D       		.byte	0xd
 3780 0972 23       		.byte	0x23
 3781 0973 10010000 		.4byte	0x110
 3782 0977 00       		.byte	0
 3783 0978 0E       		.uleb128 0xe
 3784 0979 4F0E0000 		.4byte	.LASF171
 3785 097d 0D       		.byte	0xd
 3786 097e 24       		.byte	0x24
 3787 097f 1C010000 		.4byte	0x11c
 3788 0983 02       		.byte	0x2
 3789 0984 0E       		.uleb128 0xe
 3790 0985 0C120000 		.4byte	.LASF172
 3791 0989 0D       		.byte	0xd
 3792 098a 25       		.byte	0x25
 3793 098b 1C010000 		.4byte	0x11c
 3794 098f 04       		.byte	0x4
 3795 0990 0E       		.uleb128 0xe
 3796 0991 9E0D0000 		.4byte	.LASF173
 3797 0995 0D       		.byte	0xd
 3798 0996 26       		.byte	0x26
 3799 0997 1C010000 		.4byte	0x11c
 3800 099b 06       		.byte	0x6
 3801 099c 0E       		.uleb128 0xe
 3802 099d BF110000 		.4byte	.LASF174
 3803 09a1 0D       		.byte	0xd
 3804 09a2 27       		.byte	0x27
 3805 09a3 1C010000 		.4byte	0x11c
 3806 09a7 08       		.byte	0x8
 3807 09a8 0E       		.uleb128 0xe
 3808 09a9 4C010000 		.4byte	.LASF175
 3809 09ad 0D       		.byte	0xd
 3810 09ae 28       		.byte	0x28
 3811 09af 1C010000 		.4byte	0x11c
 3812 09b3 0A       		.byte	0xa
 3813 09b4 0E       		.uleb128 0xe
 3814 09b5 140D0000 		.4byte	.LASF176
 3815 09b9 0D       		.byte	0xd
 3816 09ba 29       		.byte	0x29
ARM GAS  C:\Users\chemi\AppData\Local\Temp\ccbZzKkH.s 			page 90


 3817 09bb 1C010000 		.4byte	0x11c
 3818 09bf 0C       		.byte	0xc
 3819 09c0 0E       		.uleb128 0xe
 3820 09c1 CE110000 		.4byte	.LASF177
 3821 09c5 0D       		.byte	0xd
 3822 09c6 2A       		.byte	0x2a
 3823 09c7 1C010000 		.4byte	0x11c
 3824 09cb 0E       		.byte	0xe
 3825 09cc 0E       		.uleb128 0xe
 3826 09cd D90A0000 		.4byte	.LASF178
 3827 09d1 0D       		.byte	0xd
 3828 09d2 2B       		.byte	0x2b
 3829 09d3 1C010000 		.4byte	0x11c
 3830 09d7 10       		.byte	0x10
 3831 09d8 0E       		.uleb128 0xe
 3832 09d9 22050000 		.4byte	.LASF179
 3833 09dd 0D       		.byte	0xd
 3834 09de 2C       		.byte	0x2c
 3835 09df 1C010000 		.4byte	0x11c
 3836 09e3 12       		.byte	0x12
 3837 09e4 0E       		.uleb128 0xe
 3838 09e5 AE040000 		.4byte	.LASF180
 3839 09e9 0D       		.byte	0xd
 3840 09ea 2D       		.byte	0x2d
 3841 09eb 10010000 		.4byte	0x110
 3842 09ef 14       		.byte	0x14
 3843 09f0 0E       		.uleb128 0xe
 3844 09f1 E6030000 		.4byte	.LASF181
 3845 09f5 0D       		.byte	0xd
 3846 09f6 2E       		.byte	0x2e
 3847 09f7 10010000 		.4byte	0x110
 3848 09fb 15       		.byte	0x15
 3849 09fc 0E       		.uleb128 0xe
 3850 09fd 9A110000 		.4byte	.LASF182
 3851 0a01 0D       		.byte	0xd
 3852 0a02 2F       		.byte	0x2f
 3853 0a03 EF000000 		.4byte	0xef
 3854 0a07 16       		.byte	0x16
 3855 0a08 0E       		.uleb128 0xe
 3856 0a09 720E0000 		.4byte	.LASF183
 3857 0a0d 0D       		.byte	0xd
 3858 0a0e 30       		.byte	0x30
 3859 0a0f EF000000 		.4byte	0xef
 3860 0a13 18       		.byte	0x18
 3861 0a14 00       		.byte	0
 3862 0a15 04       		.uleb128 0x4
 3863 0a16 61010000 		.4byte	.LASF184
 3864 0a1a 0D       		.byte	0xd
 3865 0a1b 31       		.byte	0x31
 3866 0a1c 64090000 		.4byte	0x964
 3867 0a20 16       		.uleb128 0x16
 3868 0a21 C1030000 		.4byte	.LASF238
 3869 0a25 01       		.byte	0x1
 3870 0a26 50000000 		.4byte	0x50
 3871 0a2a 0F       		.byte	0xf
 3872 0a2b 22       		.byte	0x22
 3873 0a2c 550A0000 		.4byte	0xa55
ARM GAS  C:\Users\chemi\AppData\Local\Temp\ccbZzKkH.s 			page 91


 3874 0a30 17       		.uleb128 0x17
 3875 0a31 F30C0000 		.4byte	.LASF185
 3876 0a35 00       		.byte	0
 3877 0a36 17       		.uleb128 0x17
 3878 0a37 040E0000 		.4byte	.LASF186
 3879 0a3b 01       		.byte	0x1
 3880 0a3c 17       		.uleb128 0x17
 3881 0a3d B00A0000 		.4byte	.LASF187
 3882 0a41 02       		.byte	0x2
 3883 0a42 17       		.uleb128 0x17
 3884 0a43 05110000 		.4byte	.LASF188
 3885 0a47 03       		.byte	0x3
 3886 0a48 17       		.uleb128 0x17
 3887 0a49 65020000 		.4byte	.LASF189
 3888 0a4d 04       		.byte	0x4
 3889 0a4e 17       		.uleb128 0x17
 3890 0a4f 6B050000 		.4byte	.LASF190
 3891 0a53 05       		.byte	0x5
 3892 0a54 00       		.byte	0
 3893 0a55 12       		.uleb128 0x12
 3894 0a56 20       		.byte	0x20
 3895 0a57 0E       		.byte	0xe
 3896 0a58 06       		.byte	0x6
 3897 0a59 BE0A0000 		.4byte	0xabe
 3898 0a5d 0E       		.uleb128 0xe
 3899 0a5e 10130000 		.4byte	.LASF191
 3900 0a62 0E       		.byte	0xe
 3901 0a63 08       		.byte	0x8
 3902 0a64 05010000 		.4byte	0x105
 3903 0a68 00       		.byte	0
 3904 0a69 0E       		.uleb128 0xe
 3905 0a6a FB130000 		.4byte	.LASF192
 3906 0a6e 0E       		.byte	0xe
 3907 0a6f 09       		.byte	0x9
 3908 0a70 05010000 		.4byte	0x105
 3909 0a74 04       		.byte	0x4
 3910 0a75 0E       		.uleb128 0xe
 3911 0a76 F9020000 		.4byte	.LASF193
 3912 0a7a 0E       		.byte	0xe
 3913 0a7b 0A       		.byte	0xa
 3914 0a7c 05010000 		.4byte	0x105
 3915 0a80 08       		.byte	0x8
 3916 0a81 0E       		.uleb128 0xe
 3917 0a82 91130000 		.4byte	.LASF194
 3918 0a86 0E       		.byte	0xe
 3919 0a87 0B       		.byte	0xb
 3920 0a88 05010000 		.4byte	0x105
 3921 0a8c 0C       		.byte	0xc
 3922 0a8d 13       		.uleb128 0x13
 3923 0a8e 6D656D00 		.ascii	"mem\000"
 3924 0a92 0E       		.byte	0xe
 3925 0a93 0E       		.byte	0xe
 3926 0a94 B4000000 		.4byte	0xb4
 3927 0a98 10       		.byte	0x10
 3928 0a99 0E       		.uleb128 0xe
 3929 0a9a 30040000 		.4byte	.LASF195
 3930 0a9e 0E       		.byte	0xe
ARM GAS  C:\Users\chemi\AppData\Local\Temp\ccbZzKkH.s 			page 92


 3931 0a9f 11       		.byte	0x11
 3932 0aa0 BE0A0000 		.4byte	0xabe
 3933 0aa4 14       		.byte	0x14
 3934 0aa5 0E       		.uleb128 0xe
 3935 0aa6 82010000 		.4byte	.LASF196
 3936 0aaa 0E       		.byte	0xe
 3937 0aab 12       		.byte	0x12
 3938 0aac BE0A0000 		.4byte	0xabe
 3939 0ab0 18       		.byte	0x18
 3940 0ab1 0E       		.uleb128 0xe
 3941 0ab2 C70F0000 		.4byte	.LASF197
 3942 0ab6 0E       		.byte	0xe
 3943 0ab7 13       		.byte	0x13
 3944 0ab8 BE0A0000 		.4byte	0xabe
 3945 0abc 1C       		.byte	0x1c
 3946 0abd 00       		.byte	0
 3947 0abe 09       		.uleb128 0x9
 3948 0abf FA000000 		.4byte	0xfa
 3949 0ac3 04       		.uleb128 0x4
 3950 0ac4 48050000 		.4byte	.LASF198
 3951 0ac8 0E       		.byte	0xe
 3952 0ac9 14       		.byte	0x14
 3953 0aca CE0A0000 		.4byte	0xace
 3954 0ace 09       		.uleb128 0x9
 3955 0acf 550A0000 		.4byte	0xa55
 3956 0ad3 12       		.uleb128 0x12
 3957 0ad4 68       		.byte	0x68
 3958 0ad5 0F       		.byte	0xf
 3959 0ad6 3E       		.byte	0x3e
 3960 0ad7 140C0000 		.4byte	0xc14
 3961 0adb 0E       		.uleb128 0xe
 3962 0adc 570A0000 		.4byte	.LASF199
 3963 0ae0 0F       		.byte	0xf
 3964 0ae1 40       		.byte	0x40
 3965 0ae2 FA000000 		.4byte	0xfa
 3966 0ae6 00       		.byte	0
 3967 0ae7 0E       		.uleb128 0xe
 3968 0ae8 050A0000 		.4byte	.LASF200
 3969 0aec 0F       		.byte	0xf
 3970 0aed 41       		.byte	0x41
 3971 0aee FA000000 		.4byte	0xfa
 3972 0af2 04       		.byte	0x4
 3973 0af3 0E       		.uleb128 0xe
 3974 0af4 CF0E0000 		.4byte	.LASF201
 3975 0af8 0F       		.byte	0xf
 3976 0af9 42       		.byte	0x42
 3977 0afa FA000000 		.4byte	0xfa
 3978 0afe 08       		.byte	0x8
 3979 0aff 0E       		.uleb128 0xe
 3980 0b00 5E110000 		.4byte	.LASF202
 3981 0b04 0F       		.byte	0xf
 3982 0b05 43       		.byte	0x43
 3983 0b06 FA000000 		.4byte	0xfa
 3984 0b0a 0C       		.byte	0xc
 3985 0b0b 0E       		.uleb128 0xe
 3986 0b0c 910F0000 		.4byte	.LASF203
 3987 0b10 0F       		.byte	0xf
ARM GAS  C:\Users\chemi\AppData\Local\Temp\ccbZzKkH.s 			page 93


 3988 0b11 45       		.byte	0x45
 3989 0b12 FA000000 		.4byte	0xfa
 3990 0b16 10       		.byte	0x10
 3991 0b17 0E       		.uleb128 0xe
 3992 0b18 0D040000 		.4byte	.LASF204
 3993 0b1c 0F       		.byte	0xf
 3994 0b1d 46       		.byte	0x46
 3995 0b1e FA000000 		.4byte	0xfa
 3996 0b22 14       		.byte	0x14
 3997 0b23 0E       		.uleb128 0xe
 3998 0b24 D20F0000 		.4byte	.LASF205
 3999 0b28 0F       		.byte	0xf
 4000 0b29 48       		.byte	0x48
 4001 0b2a FA000000 		.4byte	0xfa
 4002 0b2e 18       		.byte	0x18
 4003 0b2f 0E       		.uleb128 0xe
 4004 0b30 42060000 		.4byte	.LASF206
 4005 0b34 0F       		.byte	0xf
 4006 0b35 49       		.byte	0x49
 4007 0b36 FA000000 		.4byte	0xfa
 4008 0b3a 1C       		.byte	0x1c
 4009 0b3b 0E       		.uleb128 0xe
 4010 0b3c 2E030000 		.4byte	.LASF207
 4011 0b40 0F       		.byte	0xf
 4012 0b41 4A       		.byte	0x4a
 4013 0b42 FA000000 		.4byte	0xfa
 4014 0b46 20       		.byte	0x20
 4015 0b47 0E       		.uleb128 0xe
 4016 0b48 86020000 		.4byte	.LASF208
 4017 0b4c 0F       		.byte	0xf
 4018 0b4d 4B       		.byte	0x4b
 4019 0b4e FA000000 		.4byte	0xfa
 4020 0b52 24       		.byte	0x24
 4021 0b53 0E       		.uleb128 0xe
 4022 0b54 DD080000 		.4byte	.LASF209
 4023 0b58 0F       		.byte	0xf
 4024 0b59 4E       		.byte	0x4e
 4025 0b5a FA000000 		.4byte	0xfa
 4026 0b5e 28       		.byte	0x28
 4027 0b5f 0E       		.uleb128 0xe
 4028 0b60 D9130000 		.4byte	.LASF210
 4029 0b64 0F       		.byte	0xf
 4030 0b65 4F       		.byte	0x4f
 4031 0b66 FA000000 		.4byte	0xfa
 4032 0b6a 2C       		.byte	0x2c
 4033 0b6b 0E       		.uleb128 0xe
 4034 0b6c B80D0000 		.4byte	.LASF211
 4035 0b70 0F       		.byte	0xf
 4036 0b71 50       		.byte	0x50
 4037 0b72 FA000000 		.4byte	0xfa
 4038 0b76 30       		.byte	0x30
 4039 0b77 0E       		.uleb128 0xe
 4040 0b78 09100000 		.4byte	.LASF212
 4041 0b7c 0F       		.byte	0xf
 4042 0b7d 51       		.byte	0x51
 4043 0b7e FA000000 		.4byte	0xfa
 4044 0b82 34       		.byte	0x34
ARM GAS  C:\Users\chemi\AppData\Local\Temp\ccbZzKkH.s 			page 94


 4045 0b83 0E       		.uleb128 0xe
 4046 0b84 F70B0000 		.4byte	.LASF213
 4047 0b88 0F       		.byte	0xf
 4048 0b89 54       		.byte	0x54
 4049 0b8a FA000000 		.4byte	0xfa
 4050 0b8e 38       		.byte	0x38
 4051 0b8f 0E       		.uleb128 0xe
 4052 0b90 C60E0000 		.4byte	.LASF214
 4053 0b94 0F       		.byte	0xf
 4054 0b95 55       		.byte	0x55
 4055 0b96 FA000000 		.4byte	0xfa
 4056 0b9a 3C       		.byte	0x3c
 4057 0b9b 0E       		.uleb128 0xe
 4058 0b9c 4A0B0000 		.4byte	.LASF215
 4059 0ba0 0F       		.byte	0xf
 4060 0ba1 57       		.byte	0x57
 4061 0ba2 FA000000 		.4byte	0xfa
 4062 0ba6 40       		.byte	0x40
 4063 0ba7 0E       		.uleb128 0xe
 4064 0ba8 B9090000 		.4byte	.LASF216
 4065 0bac 0F       		.byte	0xf
 4066 0bad 58       		.byte	0x58
 4067 0bae FA000000 		.4byte	0xfa
 4068 0bb2 44       		.byte	0x44
 4069 0bb3 0E       		.uleb128 0xe
 4070 0bb4 4E090000 		.4byte	.LASF217
 4071 0bb8 0F       		.byte	0xf
 4072 0bb9 5A       		.byte	0x5a
 4073 0bba FA000000 		.4byte	0xfa
 4074 0bbe 48       		.byte	0x48
 4075 0bbf 0E       		.uleb128 0xe
 4076 0bc0 B60F0000 		.4byte	.LASF218
 4077 0bc4 0F       		.byte	0xf
 4078 0bc5 5B       		.byte	0x5b
 4079 0bc6 FA000000 		.4byte	0xfa
 4080 0bca 4C       		.byte	0x4c
 4081 0bcb 0E       		.uleb128 0xe
 4082 0bcc 85080000 		.4byte	.LASF219
 4083 0bd0 0F       		.byte	0xf
 4084 0bd1 5D       		.byte	0x5d
 4085 0bd2 FA000000 		.4byte	0xfa
 4086 0bd6 50       		.byte	0x50
 4087 0bd7 0E       		.uleb128 0xe
 4088 0bd8 85110000 		.4byte	.LASF220
 4089 0bdc 0F       		.byte	0xf
 4090 0bdd 5E       		.byte	0x5e
 4091 0bde FA000000 		.4byte	0xfa
 4092 0be2 54       		.byte	0x54
 4093 0be3 0E       		.uleb128 0xe
 4094 0be4 74080000 		.4byte	.LASF221
 4095 0be8 0F       		.byte	0xf
 4096 0be9 60       		.byte	0x60
 4097 0bea FA000000 		.4byte	0xfa
 4098 0bee 58       		.byte	0x58
 4099 0bef 0E       		.uleb128 0xe
 4100 0bf0 99050000 		.4byte	.LASF222
 4101 0bf4 0F       		.byte	0xf
ARM GAS  C:\Users\chemi\AppData\Local\Temp\ccbZzKkH.s 			page 95


 4102 0bf5 61       		.byte	0x61
 4103 0bf6 FA000000 		.4byte	0xfa
 4104 0bfa 5C       		.byte	0x5c
 4105 0bfb 0E       		.uleb128 0xe
 4106 0bfc 16090000 		.4byte	.LASF223
 4107 0c00 0F       		.byte	0xf
 4108 0c01 64       		.byte	0x64
 4109 0c02 FA000000 		.4byte	0xfa
 4110 0c06 60       		.byte	0x60
 4111 0c07 0E       		.uleb128 0xe
 4112 0c08 7F050000 		.4byte	.LASF224
 4113 0c0c 0F       		.byte	0xf
 4114 0c0d 65       		.byte	0x65
 4115 0c0e FA000000 		.4byte	0xfa
 4116 0c12 64       		.byte	0x64
 4117 0c13 00       		.byte	0
 4118 0c14 04       		.uleb128 0x4
 4119 0c15 A2130000 		.4byte	.LASF225
 4120 0c19 0F       		.byte	0xf
 4121 0c1a 66       		.byte	0x66
 4122 0c1b D30A0000 		.4byte	0xad3
 4123 0c1f 12       		.uleb128 0x12
 4124 0c20 0C       		.byte	0xc
 4125 0c21 0F       		.byte	0xf
 4126 0c22 68       		.byte	0x68
 4127 0c23 4C0C0000 		.4byte	0xc4c
 4128 0c27 0E       		.uleb128 0xe
 4129 0c28 910F0000 		.4byte	.LASF203
 4130 0c2c 0F       		.byte	0xf
 4131 0c2d 69       		.byte	0x69
 4132 0c2e BE0A0000 		.4byte	0xabe
 4133 0c32 00       		.byte	0
 4134 0c33 0E       		.uleb128 0xe
 4135 0c34 A20A0000 		.4byte	.LASF226
 4136 0c38 0F       		.byte	0xf
 4137 0c39 6A       		.byte	0x6a
 4138 0c3a BE0A0000 		.4byte	0xabe
 4139 0c3e 04       		.byte	0x4
 4140 0c3f 0E       		.uleb128 0xe
 4141 0c40 A70C0000 		.4byte	.LASF227
 4142 0c44 0F       		.byte	0xf
 4143 0c45 6B       		.byte	0x6b
 4144 0c46 BE0A0000 		.4byte	0xabe
 4145 0c4a 08       		.byte	0x8
 4146 0c4b 00       		.byte	0
 4147 0c4c 04       		.uleb128 0x4
 4148 0c4d 0E110000 		.4byte	.LASF228
 4149 0c51 0F       		.byte	0xf
 4150 0c52 6C       		.byte	0x6c
 4151 0c53 570C0000 		.4byte	0xc57
 4152 0c57 09       		.uleb128 0x9
 4153 0c58 1F0C0000 		.4byte	0xc1f
 4154 0c5c 14       		.uleb128 0x14
 4155 0c5d 8C02     		.2byte	0x28c
 4156 0c5f 0F       		.byte	0xf
 4157 0c60 6E       		.byte	0x6e
 4158 0c61 CD0C0000 		.4byte	0xccd
ARM GAS  C:\Users\chemi\AppData\Local\Temp\ccbZzKkH.s 			page 96


 4159 0c65 0E       		.uleb128 0xe
 4160 0c66 58030000 		.4byte	.LASF229
 4161 0c6a 0F       		.byte	0xf
 4162 0c6b 6F       		.byte	0x6f
 4163 0c6c CD0C0000 		.4byte	0xccd
 4164 0c70 00       		.byte	0
 4165 0c71 18       		.uleb128 0x18
 4166 0c72 3E0C0000 		.4byte	.LASF230
 4167 0c76 0F       		.byte	0xf
 4168 0c77 72       		.byte	0x72
 4169 0c78 BE0A0000 		.4byte	0xabe
 4170 0c7c 7002     		.2byte	0x270
 4171 0c7e 18       		.uleb128 0x18
 4172 0c7f 85130000 		.4byte	.LASF231
 4173 0c83 0F       		.byte	0xf
 4174 0c84 74       		.byte	0x74
 4175 0c85 DD0C0000 		.4byte	0xcdd
 4176 0c89 7402     		.2byte	0x274
 4177 0c8b 18       		.uleb128 0x18
 4178 0c8c 43100000 		.4byte	.LASF232
 4179 0c90 0F       		.byte	0xf
 4180 0c91 76       		.byte	0x76
 4181 0c92 47010000 		.4byte	0x147
 4182 0c96 7802     		.2byte	0x278
 4183 0c98 18       		.uleb128 0x18
 4184 0c99 46070000 		.4byte	.LASF233
 4185 0c9d 0F       		.byte	0xf
 4186 0c9e 79       		.byte	0x79
 4187 0c9f 05010000 		.4byte	0x105
 4188 0ca3 7C02     		.2byte	0x27c
 4189 0ca5 18       		.uleb128 0x18
 4190 0ca6 9C0B0000 		.4byte	.LASF234
 4191 0caa 0F       		.byte	0xf
 4192 0cab 7A       		.byte	0x7a
 4193 0cac 05010000 		.4byte	0x105
 4194 0cb0 8002     		.2byte	0x280
 4195 0cb2 18       		.uleb128 0x18
 4196 0cb3 3F120000 		.4byte	.LASF235
 4197 0cb7 0F       		.byte	0xf
 4198 0cb8 7B       		.byte	0x7b
 4199 0cb9 05010000 		.4byte	0x105
 4200 0cbd 8402     		.2byte	0x284
 4201 0cbf 18       		.uleb128 0x18
 4202 0cc0 B5130000 		.4byte	.LASF236
 4203 0cc4 0F       		.byte	0xf
 4204 0cc5 7C       		.byte	0x7c
 4205 0cc6 05010000 		.4byte	0x105
 4206 0cca 8802     		.2byte	0x288
 4207 0ccc 00       		.byte	0
 4208 0ccd 0A       		.uleb128 0xa
 4209 0cce 140C0000 		.4byte	0xc14
 4210 0cd2 DD0C0000 		.4byte	0xcdd
 4211 0cd6 0B       		.uleb128 0xb
 4212 0cd7 AD000000 		.4byte	0xad
 4213 0cdb 05       		.byte	0x5
 4214 0cdc 00       		.byte	0
 4215 0cdd 06       		.uleb128 0x6
ARM GAS  C:\Users\chemi\AppData\Local\Temp\ccbZzKkH.s 			page 97


 4216 0cde 04       		.byte	0x4
 4217 0cdf C30A0000 		.4byte	0xac3
 4218 0ce3 04       		.uleb128 0x4
 4219 0ce4 55070000 		.4byte	.LASF237
 4220 0ce8 0F       		.byte	0xf
 4221 0ce9 7E       		.byte	0x7e
 4222 0cea EE0C0000 		.4byte	0xcee
 4223 0cee 09       		.uleb128 0x9
 4224 0cef 5C0C0000 		.4byte	0xc5c
 4225 0cf3 16       		.uleb128 0x16
 4226 0cf4 DC0B0000 		.4byte	.LASF239
 4227 0cf8 01       		.byte	0x1
 4228 0cf9 50000000 		.4byte	0x50
 4229 0cfd 10       		.byte	0x10
 4230 0cfe 38       		.byte	0x38
 4231 0cff 100D0000 		.4byte	0xd10
 4232 0d03 17       		.uleb128 0x17
 4233 0d04 430F0000 		.4byte	.LASF240
 4234 0d08 00       		.byte	0
 4235 0d09 17       		.uleb128 0x17
 4236 0d0a 96040000 		.4byte	.LASF241
 4237 0d0e 01       		.byte	0x1
 4238 0d0f 00       		.byte	0
 4239 0d10 16       		.uleb128 0x16
 4240 0d11 13030000 		.4byte	.LASF242
 4241 0d15 01       		.byte	0x1
 4242 0d16 50000000 		.4byte	0x50
 4243 0d1a 10       		.byte	0x10
 4244 0d1b 3D       		.byte	0x3d
 4245 0d1c 330D0000 		.4byte	0xd33
 4246 0d20 17       		.uleb128 0x17
 4247 0d21 97030000 		.4byte	.LASF243
 4248 0d25 00       		.byte	0
 4249 0d26 17       		.uleb128 0x17
 4250 0d27 900C0000 		.4byte	.LASF244
 4251 0d2b 01       		.byte	0x1
 4252 0d2c 17       		.uleb128 0x17
 4253 0d2d CB080000 		.4byte	.LASF245
 4254 0d31 02       		.byte	0x2
 4255 0d32 00       		.byte	0
 4256 0d33 16       		.uleb128 0x16
 4257 0d34 74020000 		.4byte	.LASF246
 4258 0d38 01       		.byte	0x1
 4259 0d39 50000000 		.4byte	0x50
 4260 0d3d 10       		.byte	0x10
 4261 0d3e 43       		.byte	0x43
 4262 0d3f 500D0000 		.4byte	0xd50
 4263 0d43 17       		.uleb128 0x17
 4264 0d44 EB000000 		.4byte	.LASF247
 4265 0d48 00       		.byte	0
 4266 0d49 17       		.uleb128 0x17
 4267 0d4a 0D010000 		.4byte	.LASF248
 4268 0d4e 01       		.byte	0x1
 4269 0d4f 00       		.byte	0
 4270 0d50 16       		.uleb128 0x16
 4271 0d51 FC060000 		.4byte	.LASF249
 4272 0d55 01       		.byte	0x1
ARM GAS  C:\Users\chemi\AppData\Local\Temp\ccbZzKkH.s 			page 98


 4273 0d56 50000000 		.4byte	0x50
 4274 0d5a 10       		.byte	0x10
 4275 0d5b 49       		.byte	0x49
 4276 0d5c 6D0D0000 		.4byte	0xd6d
 4277 0d60 17       		.uleb128 0x17
 4278 0d61 30070000 		.4byte	.LASF250
 4279 0d65 00       		.byte	0
 4280 0d66 17       		.uleb128 0x17
 4281 0d67 D9020000 		.4byte	.LASF251
 4282 0d6b 01       		.byte	0x1
 4283 0d6c 00       		.byte	0
 4284 0d6d 12       		.uleb128 0x12
 4285 0d6e 0C       		.byte	0xc
 4286 0d6f 10       		.byte	0x10
 4287 0d70 4E       		.byte	0x4e
 4288 0d71 C90D0000 		.4byte	0xdc9
 4289 0d75 13       		.uleb128 0x13
 4290 0d76 707700   		.ascii	"pw\000"
 4291 0d79 10       		.byte	0x10
 4292 0d7a 50       		.byte	0x50
 4293 0d7b EF000000 		.4byte	0xef
 4294 0d7f 00       		.byte	0
 4295 0d80 13       		.uleb128 0x13
 4296 0d81 70726400 		.ascii	"prd\000"
 4297 0d85 10       		.byte	0x10
 4298 0d86 51       		.byte	0x51
 4299 0d87 EF000000 		.4byte	0xef
 4300 0d8b 02       		.byte	0x2
 4301 0d8c 0E       		.uleb128 0xe
 4302 0d8d 9F100000 		.4byte	.LASF252
 4303 0d91 10       		.byte	0x10
 4304 0d92 52       		.byte	0x52
 4305 0d93 100D0000 		.4byte	0xd10
 4306 0d97 04       		.byte	0x4
 4307 0d98 0E       		.uleb128 0xe
 4308 0d99 5E0D0000 		.4byte	.LASF253
 4309 0d9d 10       		.byte	0x10
 4310 0d9e 53       		.byte	0x53
 4311 0d9f 330D0000 		.4byte	0xd33
 4312 0da3 05       		.byte	0x5
 4313 0da4 13       		.uleb128 0x13
 4314 0da5 6D6F6400 		.ascii	"mod\000"
 4315 0da9 10       		.byte	0x10
 4316 0daa 54       		.byte	0x54
 4317 0dab 500D0000 		.4byte	0xd50
 4318 0daf 06       		.byte	0x6
 4319 0db0 0E       		.uleb128 0xe
 4320 0db1 7B070000 		.4byte	.LASF254
 4321 0db5 10       		.byte	0x10
 4322 0db6 55       		.byte	0x55
 4323 0db7 F30C0000 		.4byte	0xcf3
 4324 0dbb 07       		.byte	0x7
 4325 0dbc 0E       		.uleb128 0xe
 4326 0dbd 5D130000 		.4byte	.LASF255
 4327 0dc1 10       		.byte	0x10
 4328 0dc2 56       		.byte	0x56
 4329 0dc3 35050000 		.4byte	0x535
ARM GAS  C:\Users\chemi\AppData\Local\Temp\ccbZzKkH.s 			page 99


 4330 0dc7 08       		.byte	0x8
 4331 0dc8 00       		.byte	0
 4332 0dc9 04       		.uleb128 0x4
 4333 0dca B40B0000 		.4byte	.LASF256
 4334 0dce 10       		.byte	0x10
 4335 0dcf 57       		.byte	0x57
 4336 0dd0 6D0D0000 		.4byte	0xd6d
 4337 0dd4 0D       		.uleb128 0xd
 4338 0dd5 F1100000 		.4byte	.LASF257
 4339 0dd9 20       		.byte	0x20
 4340 0dda 11       		.byte	0x11
 4341 0ddb 31       		.byte	0x31
 4342 0ddc 650E0000 		.4byte	0xe65
 4343 0de0 0E       		.uleb128 0xe
 4344 0de1 79050000 		.4byte	.LASF82
 4345 0de5 11       		.byte	0x11
 4346 0de6 32       		.byte	0x32
 4347 0de7 FA000000 		.4byte	0xfa
 4348 0deb 00       		.byte	0
 4349 0dec 0E       		.uleb128 0xe
 4350 0ded 8B030000 		.4byte	.LASF258
 4351 0df1 11       		.byte	0x11
 4352 0df2 33       		.byte	0x33
 4353 0df3 D9000000 		.4byte	0xd9
 4354 0df7 04       		.byte	0x4
 4355 0df8 0E       		.uleb128 0xe
 4356 0df9 1A100000 		.4byte	.LASF81
 4357 0dfd 11       		.byte	0x11
 4358 0dfe 34       		.byte	0x34
 4359 0dff B6000000 		.4byte	0xb6
 4360 0e03 08       		.byte	0x8
 4361 0e04 13       		.uleb128 0x13
 4362 0e05 6D696E00 		.ascii	"min\000"
 4363 0e09 11       		.byte	0x11
 4364 0e0a 35       		.byte	0x35
 4365 0e0b 05010000 		.4byte	0x105
 4366 0e0f 0C       		.byte	0xc
 4367 0e10 13       		.uleb128 0x13
 4368 0e11 6D617800 		.ascii	"max\000"
 4369 0e15 11       		.byte	0x11
 4370 0e16 36       		.byte	0x36
 4371 0e17 05010000 		.4byte	0x105
 4372 0e1b 10       		.byte	0x10
 4373 0e1c 0E       		.uleb128 0xe
 4374 0e1d C40C0000 		.4byte	.LASF259
 4375 0e21 11       		.byte	0x11
 4376 0e22 37       		.byte	0x37
 4377 0e23 FA000000 		.4byte	0xfa
 4378 0e27 14       		.byte	0x14
 4379 0e28 0E       		.uleb128 0xe
 4380 0e29 BE0E0000 		.4byte	.LASF260
 4381 0e2d 11       		.byte	0x11
 4382 0e2e 38       		.byte	0x38
 4383 0e2f E4000000 		.4byte	0xe4
 4384 0e33 18       		.byte	0x18
 4385 0e34 0E       		.uleb128 0xe
 4386 0e35 740F0000 		.4byte	.LASF261
ARM GAS  C:\Users\chemi\AppData\Local\Temp\ccbZzKkH.s 			page 100


 4387 0e39 11       		.byte	0x11
 4388 0e3a 39       		.byte	0x39
 4389 0e3b EF000000 		.4byte	0xef
 4390 0e3f 1A       		.byte	0x1a
 4391 0e40 0E       		.uleb128 0xe
 4392 0e41 5B040000 		.4byte	.LASF262
 4393 0e45 11       		.byte	0x11
 4394 0e46 3A       		.byte	0x3a
 4395 0e47 D9000000 		.4byte	0xd9
 4396 0e4b 1C       		.byte	0x1c
 4397 0e4c 0E       		.uleb128 0xe
 4398 0e4d FD0C0000 		.4byte	.LASF263
 4399 0e51 11       		.byte	0x11
 4400 0e52 3B       		.byte	0x3b
 4401 0e53 CE000000 		.4byte	0xce
 4402 0e57 1D       		.byte	0x1d
 4403 0e58 0E       		.uleb128 0xe
 4404 0e59 C0020000 		.4byte	.LASF264
 4405 0e5d 11       		.byte	0x11
 4406 0e5e 3C       		.byte	0x3c
 4407 0e5f CE000000 		.4byte	0xce
 4408 0e63 1E       		.byte	0x1e
 4409 0e64 00       		.byte	0
 4410 0e65 04       		.uleb128 0x4
 4411 0e66 3A120000 		.4byte	.LASF265
 4412 0e6a 11       		.byte	0x11
 4413 0e6b 3D       		.byte	0x3d
 4414 0e6c D40D0000 		.4byte	0xdd4
 4415 0e70 19       		.uleb128 0x19
 4416 0e71 8F070000 		.4byte	.LASF266
 4417 0e75 E001     		.2byte	0x1e0
 4418 0e77 11       		.byte	0x11
 4419 0e78 40       		.byte	0x40
 4420 0e79 390F0000 		.4byte	0xf39
 4421 0e7d 0E       		.uleb128 0xe
 4422 0e7e EB100000 		.4byte	.LASF267
 4423 0e82 11       		.byte	0x11
 4424 0e83 41       		.byte	0x41
 4425 0e84 650E0000 		.4byte	0xe65
 4426 0e88 00       		.byte	0
 4427 0e89 0E       		.uleb128 0xe
 4428 0e8a 90030000 		.4byte	.LASF268
 4429 0e8e 11       		.byte	0x11
 4430 0e8f 42       		.byte	0x42
 4431 0e90 650E0000 		.4byte	0xe65
 4432 0e94 20       		.byte	0x20
 4433 0e95 0E       		.uleb128 0xe
 4434 0e96 67070000 		.4byte	.LASF269
 4435 0e9a 11       		.byte	0x11
 4436 0e9b 43       		.byte	0x43
 4437 0e9c 650E0000 		.4byte	0xe65
 4438 0ea0 40       		.byte	0x40
 4439 0ea1 0E       		.uleb128 0xe
 4440 0ea2 B80C0000 		.4byte	.LASF270
 4441 0ea6 11       		.byte	0x11
 4442 0ea7 44       		.byte	0x44
 4443 0ea8 650E0000 		.4byte	0xe65
ARM GAS  C:\Users\chemi\AppData\Local\Temp\ccbZzKkH.s 			page 101


 4444 0eac 60       		.byte	0x60
 4445 0ead 0E       		.uleb128 0xe
 4446 0eae BE0C0000 		.4byte	.LASF271
 4447 0eb2 11       		.byte	0x11
 4448 0eb3 45       		.byte	0x45
 4449 0eb4 650E0000 		.4byte	0xe65
 4450 0eb8 80       		.byte	0x80
 4451 0eb9 0E       		.uleb128 0xe
 4452 0eba DE0E0000 		.4byte	.LASF272
 4453 0ebe 11       		.byte	0x11
 4454 0ebf 46       		.byte	0x46
 4455 0ec0 650E0000 		.4byte	0xe65
 4456 0ec4 A0       		.byte	0xa0
 4457 0ec5 0E       		.uleb128 0xe
 4458 0ec6 35020000 		.4byte	.LASF273
 4459 0eca 11       		.byte	0x11
 4460 0ecb 47       		.byte	0x47
 4461 0ecc 650E0000 		.4byte	0xe65
 4462 0ed0 C0       		.byte	0xc0
 4463 0ed1 0E       		.uleb128 0xe
 4464 0ed2 84030000 		.4byte	.LASF274
 4465 0ed6 11       		.byte	0x11
 4466 0ed7 48       		.byte	0x48
 4467 0ed8 650E0000 		.4byte	0xe65
 4468 0edc E0       		.byte	0xe0
 4469 0edd 18       		.uleb128 0x18
 4470 0ede 9E020000 		.4byte	.LASF275
 4471 0ee2 11       		.byte	0x11
 4472 0ee3 49       		.byte	0x49
 4473 0ee4 650E0000 		.4byte	0xe65
 4474 0ee8 0001     		.2byte	0x100
 4475 0eea 18       		.uleb128 0x18
 4476 0eeb F3110000 		.4byte	.LASF276
 4477 0eef 11       		.byte	0x11
 4478 0ef0 4A       		.byte	0x4a
 4479 0ef1 650E0000 		.4byte	0xe65
 4480 0ef5 2001     		.2byte	0x120
 4481 0ef7 18       		.uleb128 0x18
 4482 0ef8 6F030000 		.4byte	.LASF277
 4483 0efc 11       		.byte	0x11
 4484 0efd 4B       		.byte	0x4b
 4485 0efe 650E0000 		.4byte	0xe65
 4486 0f02 4001     		.2byte	0x140
 4487 0f04 18       		.uleb128 0x18
 4488 0f05 34090000 		.4byte	.LASF278
 4489 0f09 11       		.byte	0x11
 4490 0f0a 4C       		.byte	0x4c
 4491 0f0b 650E0000 		.4byte	0xe65
 4492 0f0f 6001     		.2byte	0x160
 4493 0f11 18       		.uleb128 0x18
 4494 0f12 DD0D0000 		.4byte	.LASF279
 4495 0f16 11       		.byte	0x11
 4496 0f17 4D       		.byte	0x4d
 4497 0f18 650E0000 		.4byte	0xe65
 4498 0f1c 8001     		.2byte	0x180
 4499 0f1e 18       		.uleb128 0x18
 4500 0f1f 270F0000 		.4byte	.LASF280
ARM GAS  C:\Users\chemi\AppData\Local\Temp\ccbZzKkH.s 			page 102


 4501 0f23 11       		.byte	0x11
 4502 0f24 4E       		.byte	0x4e
 4503 0f25 650E0000 		.4byte	0xe65
 4504 0f29 A001     		.2byte	0x1a0
 4505 0f2b 18       		.uleb128 0x18
 4506 0f2c FD120000 		.4byte	.LASF281
 4507 0f30 11       		.byte	0x11
 4508 0f31 4F       		.byte	0x4f
 4509 0f32 650E0000 		.4byte	0xe65
 4510 0f36 C001     		.2byte	0x1c0
 4511 0f38 00       		.byte	0
 4512 0f39 04       		.uleb128 0x4
 4513 0f3a FA090000 		.4byte	.LASF282
 4514 0f3e 11       		.byte	0x11
 4515 0f3f 50       		.byte	0x50
 4516 0f40 700E0000 		.4byte	0xe70
 4517 0f44 1A       		.uleb128 0x1a
 4518 0f45 7E0B0000 		.4byte	.LASF379
 4519 0f49 E001     		.2byte	0x1e0
 4520 0f4b 11       		.byte	0x11
 4521 0f4c 54       		.byte	0x54
 4522 0f4d 640F0000 		.4byte	0xf64
 4523 0f51 1B       		.uleb128 0x1b
 4524 0f52 6E00     		.ascii	"n\000"
 4525 0f54 11       		.byte	0x11
 4526 0f55 56       		.byte	0x56
 4527 0f56 390F0000 		.4byte	0xf39
 4528 0f5a 1B       		.uleb128 0x1b
 4529 0f5b 6100     		.ascii	"a\000"
 4530 0f5d 11       		.byte	0x11
 4531 0f5e 57       		.byte	0x57
 4532 0f5f 640F0000 		.4byte	0xf64
 4533 0f63 00       		.byte	0
 4534 0f64 0A       		.uleb128 0xa
 4535 0f65 650E0000 		.4byte	0xe65
 4536 0f69 740F0000 		.4byte	0xf74
 4537 0f6d 0B       		.uleb128 0xb
 4538 0f6e AD000000 		.4byte	0xad
 4539 0f72 0E       		.byte	0xe
 4540 0f73 00       		.byte	0
 4541 0f74 04       		.uleb128 0x4
 4542 0f75 31000000 		.4byte	.LASF283
 4543 0f79 11       		.byte	0x11
 4544 0f7a 58       		.byte	0x58
 4545 0f7b 440F0000 		.4byte	0xf44
 4546 0f7f 1C       		.uleb128 0x1c
 4547 0f80 5D060000 		.4byte	.LASF380
 4548 0f84 01       		.byte	0x1
 4549 0f85 3501     		.2byte	0x135
 4550 0f87 05010000 		.4byte	0x105
 4551 0f8b 01       		.byte	0x1
 4552 0f8c C10F0000 		.4byte	0xfc1
 4553 0f90 1D       		.uleb128 0x1d
 4554 0f91 61090000 		.4byte	.LASF284
 4555 0f95 01       		.byte	0x1
 4556 0f96 3501     		.2byte	0x135
 4557 0f98 FA000000 		.4byte	0xfa
ARM GAS  C:\Users\chemi\AppData\Local\Temp\ccbZzKkH.s 			page 103


 4558 0f9c 1D       		.uleb128 0x1d
 4559 0f9d F70B0000 		.4byte	.LASF213
 4560 0fa1 01       		.byte	0x1
 4561 0fa2 3501     		.2byte	0x135
 4562 0fa4 FA000000 		.4byte	0xfa
 4563 0fa8 1D       		.uleb128 0x1d
 4564 0fa9 29000000 		.4byte	.LASF285
 4565 0fad 01       		.byte	0x1
 4566 0fae 3501     		.2byte	0x135
 4567 0fb0 05010000 		.4byte	0x105
 4568 0fb4 1E       		.uleb128 0x1e
 4569 0fb5 900B0000 		.4byte	.LASF301
 4570 0fb9 01       		.byte	0x1
 4571 0fba 5001     		.2byte	0x150
 4572 0fbc FA000000 		.4byte	0xfa
 4573 0fc0 00       		.byte	0
 4574 0fc1 1F       		.uleb128 0x1f
 4575 0fc2 B3070000 		.4byte	.LASF381
 4576 0fc6 01       		.byte	0x1
 4577 0fc7 F501     		.2byte	0x1f5
 4578 0fc9 01       		.byte	0x1
 4579 0fca DA0F0000 		.4byte	0xfda
 4580 0fce 20       		.uleb128 0x20
 4581 0fcf 656E00   		.ascii	"en\000"
 4582 0fd2 01       		.byte	0x1
 4583 0fd3 F501     		.2byte	0x1f5
 4584 0fd5 05010000 		.4byte	0x105
 4585 0fd9 00       		.byte	0
 4586 0fda 21       		.uleb128 0x21
 4587 0fdb 6A130000 		.4byte	.LASF317
 4588 0fdf 01       		.byte	0x1
 4589 0fe0 D5       		.byte	0xd5
 4590 0fe1 00000000 		.4byte	.LFB73
 4591 0fe5 74000000 		.4byte	.LFE73-.LFB73
 4592 0fe9 01       		.uleb128 0x1
 4593 0fea 9C       		.byte	0x9c
 4594 0feb 39100000 		.4byte	0x1039
 4595 0fef 22       		.uleb128 0x22
 4596 0ff0 58030000 		.4byte	.LASF229
 4597 0ff4 01       		.byte	0x1
 4598 0ff5 D5       		.byte	0xd5
 4599 0ff6 05010000 		.4byte	0x105
 4600 0ffa 00000000 		.4byte	.LLST0
 4601 0ffe 23       		.uleb128 0x23
 4602 0fff A90B0000 		.4byte	.LASF286
 4603 1003 01       		.byte	0x1
 4604 1004 D5       		.byte	0xd5
 4605 1005 05010000 		.4byte	0x105
 4606 1009 01       		.uleb128 0x1
 4607 100a 51       		.byte	0x51
 4608 100b 22       		.uleb128 0x22
 4609 100c 61090000 		.4byte	.LASF284
 4610 1010 01       		.byte	0x1
 4611 1011 D5       		.byte	0xd5
 4612 1012 05010000 		.4byte	0x105
 4613 1016 3A000000 		.4byte	.LLST1
 4614 101a 22       		.uleb128 0x22
ARM GAS  C:\Users\chemi\AppData\Local\Temp\ccbZzKkH.s 			page 104


 4615 101b 32110000 		.4byte	.LASF287
 4616 101f 01       		.byte	0x1
 4617 1020 D5       		.byte	0xd5
 4618 1021 05010000 		.4byte	0x105
 4619 1025 74000000 		.4byte	.LLST2
 4620 1029 22       		.uleb128 0x22
 4621 102a 03030000 		.4byte	.LASF288
 4622 102e 01       		.byte	0x1
 4623 102f D5       		.byte	0xd5
 4624 1030 05010000 		.4byte	0x105
 4625 1034 BB000000 		.4byte	.LLST3
 4626 1038 00       		.byte	0
 4627 1039 24       		.uleb128 0x24
 4628 103a AC0F0000 		.4byte	.LASF289
 4629 103e 01       		.byte	0x1
 4630 103f 5F       		.byte	0x5f
 4631 1040 00000000 		.4byte	.LFB68
 4632 1044 1C000000 		.4byte	.LFE68-.LFB68
 4633 1048 01       		.uleb128 0x1
 4634 1049 9C       		.byte	0x9c
 4635 104a 61100000 		.4byte	0x1061
 4636 104e 25       		.uleb128 0x25
 4637 104f 06000000 		.4byte	.LVL10
 4638 1053 231E0000 		.4byte	0x1e23
 4639 1057 26       		.uleb128 0x26
 4640 1058 14000000 		.4byte	.LVL11
 4641 105c 2E1E0000 		.4byte	0x1e2e
 4642 1060 00       		.byte	0
 4643 1061 24       		.uleb128 0x24
 4644 1062 C70B0000 		.4byte	.LASF290
 4645 1066 01       		.byte	0x1
 4646 1067 67       		.byte	0x67
 4647 1068 00000000 		.4byte	.LFB69
 4648 106c 90000000 		.4byte	.LFE69-.LFB69
 4649 1070 01       		.uleb128 0x1
 4650 1071 9C       		.byte	0x9c
 4651 1072 CF100000 		.4byte	0x10cf
 4652 1076 25       		.uleb128 0x25
 4653 1077 08000000 		.4byte	.LVL12
 4654 107b 391E0000 		.4byte	0x1e39
 4655 107f 25       		.uleb128 0x25
 4656 1080 0C000000 		.4byte	.LVL13
 4657 1084 441E0000 		.4byte	0x1e44
 4658 1088 25       		.uleb128 0x25
 4659 1089 2A000000 		.4byte	.LVL14
 4660 108d 4F1E0000 		.4byte	0x1e4f
 4661 1091 27       		.uleb128 0x27
 4662 1092 3C000000 		.4byte	.LVL15
 4663 1096 5A1E0000 		.4byte	0x1e5a
 4664 109a AA100000 		.4byte	0x10aa
 4665 109e 28       		.uleb128 0x28
 4666 109f 01       		.uleb128 0x1
 4667 10a0 51       		.byte	0x51
 4668 10a1 02       		.uleb128 0x2
 4669 10a2 74       		.byte	0x74
 4670 10a3 04       		.sleb128 4
 4671 10a4 28       		.uleb128 0x28
ARM GAS  C:\Users\chemi\AppData\Local\Temp\ccbZzKkH.s 			page 105


 4672 10a5 01       		.uleb128 0x1
 4673 10a6 52       		.byte	0x52
 4674 10a7 01       		.uleb128 0x1
 4675 10a8 31       		.byte	0x31
 4676 10a9 00       		.byte	0
 4677 10aa 26       		.uleb128 0x26
 4678 10ab 6E000000 		.4byte	.LVL16
 4679 10af 651E0000 		.4byte	0x1e65
 4680 10b3 25       		.uleb128 0x25
 4681 10b4 72000000 		.4byte	.LVL17
 4682 10b8 701E0000 		.4byte	0x1e70
 4683 10bc 25       		.uleb128 0x25
 4684 10bd 7A000000 		.4byte	.LVL18
 4685 10c1 7B1E0000 		.4byte	0x1e7b
 4686 10c5 25       		.uleb128 0x25
 4687 10c6 7E000000 		.4byte	.LVL19
 4688 10ca 861E0000 		.4byte	0x1e86
 4689 10ce 00       		.byte	0
 4690 10cf 29       		.uleb128 0x29
 4691 10d0 7F0F0000 		.4byte	0xf7f
 4692 10d4 00000000 		.4byte	.LFB76
 4693 10d8 50000000 		.4byte	.LFE76-.LFB76
 4694 10dc 01       		.uleb128 0x1
 4695 10dd 9C       		.byte	0x9c
 4696 10de 3B110000 		.4byte	0x113b
 4697 10e2 2A       		.uleb128 0x2a
 4698 10e3 900F0000 		.4byte	0xf90
 4699 10e7 E7000000 		.4byte	.LLST4
 4700 10eb 2A       		.uleb128 0x2a
 4701 10ec 9C0F0000 		.4byte	0xf9c
 4702 10f0 3A010000 		.4byte	.LLST5
 4703 10f4 2A       		.uleb128 0x2a
 4704 10f5 A80F0000 		.4byte	0xfa8
 4705 10f9 66010000 		.4byte	.LLST6
 4706 10fd 2B       		.uleb128 0x2b
 4707 10fe B40F0000 		.4byte	0xfb4
 4708 1102 2C       		.uleb128 0x2c
 4709 1103 0A000000 		.4byte	.LBB9
 4710 1107 32000000 		.4byte	.LBE9-.LBB9
 4711 110b 2A       		.uleb128 0x2a
 4712 110c A80F0000 		.4byte	0xfa8
 4713 1110 92010000 		.4byte	.LLST7
 4714 1114 2A       		.uleb128 0x2a
 4715 1115 9C0F0000 		.4byte	0xf9c
 4716 1119 B3010000 		.4byte	.LLST8
 4717 111d 2A       		.uleb128 0x2a
 4718 111e 900F0000 		.4byte	0xf90
 4719 1122 D4010000 		.4byte	.LLST9
 4720 1126 2C       		.uleb128 0x2c
 4721 1127 0A000000 		.4byte	.LBB10
 4722 112b 32000000 		.4byte	.LBE10-.LBB10
 4723 112f 2D       		.uleb128 0x2d
 4724 1130 B40F0000 		.4byte	0xfb4
 4725 1134 F5010000 		.4byte	.LLST10
 4726 1138 00       		.byte	0
 4727 1139 00       		.byte	0
 4728 113a 00       		.byte	0
ARM GAS  C:\Users\chemi\AppData\Local\Temp\ccbZzKkH.s 			page 106


 4729 113b 2E       		.uleb128 0x2e
 4730 113c B1050000 		.4byte	.LASF382
 4731 1140 01       		.byte	0x1
 4732 1141 1902     		.2byte	0x219
 4733 1143 01       		.byte	0x1
 4734 1144 6D110000 		.4byte	0x116d
 4735 1148 1D       		.uleb128 0x1d
 4736 1149 ED110000 		.4byte	.LASF291
 4737 114d 01       		.byte	0x1
 4738 114e 1902     		.2byte	0x219
 4739 1150 6D110000 		.4byte	0x116d
 4740 1154 1D       		.uleb128 0x1d
 4741 1155 9D0C0000 		.4byte	.LASF292
 4742 1159 01       		.byte	0x1
 4743 115a 1902     		.2byte	0x219
 4744 115c FA000000 		.4byte	0xfa
 4745 1160 1D       		.uleb128 0x1d
 4746 1161 0C090000 		.4byte	.LASF293
 4747 1165 01       		.byte	0x1
 4748 1166 1902     		.2byte	0x219
 4749 1168 FA000000 		.4byte	0xfa
 4750 116c 00       		.byte	0
 4751 116d 06       		.uleb128 0x6
 4752 116e 04       		.byte	0x4
 4753 116f 4C0C0000 		.4byte	0xc4c
 4754 1173 2F       		.uleb128 0x2f
 4755 1174 2E0D0000 		.4byte	.LASF383
 4756 1178 01       		.byte	0x1
 4757 1179 3E02     		.2byte	0x23e
 4758 117b 00000000 		.4byte	.LFB88
 4759 117f 9C040000 		.4byte	.LFE88-.LFB88
 4760 1183 01       		.uleb128 0x1
 4761 1184 9C       		.byte	0x9c
 4762 1185 2C140000 		.4byte	0x142c
 4763 1189 30       		.uleb128 0x30
 4764 118a 990A0000 		.4byte	.LASF294
 4765 118e 01       		.byte	0x1
 4766 118f 3E02     		.2byte	0x23e
 4767 1191 B4000000 		.4byte	0xb4
 4768 1195 3B020000 		.4byte	.LLST11
 4769 1199 31       		.uleb128 0x31
 4770 119a C4130000 		.4byte	.LASF168
 4771 119e 01       		.byte	0x1
 4772 119f 3F02     		.2byte	0x23f
 4773 11a1 2C140000 		.4byte	0x142c
 4774 11a5 59020000 		.4byte	.LLST12
 4775 11a9 32       		.uleb128 0x32
 4776 11aa 00000000 		.4byte	.Ldebug_ranges0+0
 4777 11ae AA130000 		.4byte	0x13aa
 4778 11b2 31       		.uleb128 0x31
 4779 11b3 800D0000 		.4byte	.LASF295
 4780 11b7 01       		.byte	0x1
 4781 11b8 5002     		.2byte	0x250
 4782 11ba FA000000 		.4byte	0xfa
 4783 11be 77020000 		.4byte	.LLST13
 4784 11c2 33       		.uleb128 0x33
 4785 11c3 DA0F0000 		.4byte	.LASF296
ARM GAS  C:\Users\chemi\AppData\Local\Temp\ccbZzKkH.s 			page 107


 4786 11c7 01       		.byte	0x1
 4787 11c8 5102     		.2byte	0x251
 4788 11ca 4C0C0000 		.4byte	0xc4c
 4789 11ce 02       		.uleb128 0x2
 4790 11cf 91       		.byte	0x91
 4791 11d0 40       		.sleb128 -64
 4792 11d1 31       		.uleb128 0x31
 4793 11d2 39110000 		.4byte	.LASF297
 4794 11d6 01       		.byte	0x1
 4795 11d7 8202     		.2byte	0x282
 4796 11d9 FA000000 		.4byte	0xfa
 4797 11dd CF020000 		.4byte	.LLST14
 4798 11e1 32       		.uleb128 0x32
 4799 11e2 18000000 		.4byte	.Ldebug_ranges0+0x18
 4800 11e6 FB110000 		.4byte	0x11fb
 4801 11ea 31       		.uleb128 0x31
 4802 11eb 6D040000 		.4byte	.LASF298
 4803 11ef 01       		.byte	0x1
 4804 11f0 5302     		.2byte	0x253
 4805 11f2 05010000 		.4byte	0x105
 4806 11f6 E2020000 		.4byte	.LLST15
 4807 11fa 00       		.byte	0
 4808 11fb 32       		.uleb128 0x32
 4809 11fc 30000000 		.4byte	.Ldebug_ranges0+0x30
 4810 1200 B1120000 		.4byte	0x12b1
 4811 1204 31       		.uleb128 0x31
 4812 1205 6D040000 		.4byte	.LASF298
 4813 1209 01       		.byte	0x1
 4814 120a 8C02     		.2byte	0x28c
 4815 120c 05010000 		.4byte	0x105
 4816 1210 01030000 		.4byte	.LLST16
 4817 1214 34       		.uleb128 0x34
 4818 1215 B8010000 		.4byte	.LBB30
 4819 1219 3E000000 		.4byte	.LBE30-.LBB30
 4820 121d 54120000 		.4byte	0x1254
 4821 1221 31       		.uleb128 0x31
 4822 1222 FA100000 		.4byte	.LASF299
 4823 1226 01       		.byte	0x1
 4824 1227 A902     		.2byte	0x2a9
 4825 1229 FA000000 		.4byte	0xfa
 4826 122d 2B030000 		.4byte	.LLST17
 4827 1231 31       		.uleb128 0x31
 4828 1232 330F0000 		.4byte	.LASF300
 4829 1236 01       		.byte	0x1
 4830 1237 AB02     		.2byte	0x2ab
 4831 1239 FA000000 		.4byte	0xfa
 4832 123d 49030000 		.4byte	.LLST18
 4833 1241 25       		.uleb128 0x25
 4834 1242 BC010000 		.4byte	.LVL58
 4835 1246 911E0000 		.4byte	0x1e91
 4836 124a 25       		.uleb128 0x25
 4837 124b C2010000 		.4byte	.LVL59
 4838 124f 911E0000 		.4byte	0x1e91
 4839 1253 00       		.byte	0
 4840 1254 35       		.uleb128 0x35
 4841 1255 3B110000 		.4byte	0x113b
 4842 1259 FE010000 		.4byte	.LBB31
ARM GAS  C:\Users\chemi\AppData\Local\Temp\ccbZzKkH.s 			page 108


 4843 125d 0E000000 		.4byte	.LBE31-.LBB31
 4844 1261 01       		.byte	0x1
 4845 1262 B102     		.2byte	0x2b1
 4846 1264 84120000 		.4byte	0x1284
 4847 1268 2A       		.uleb128 0x2a
 4848 1269 60110000 		.4byte	0x1160
 4849 126d 5C030000 		.4byte	.LLST19
 4850 1271 2A       		.uleb128 0x2a
 4851 1272 54110000 		.4byte	0x1154
 4852 1276 6F030000 		.4byte	.LLST20
 4853 127a 2A       		.uleb128 0x2a
 4854 127b 48110000 		.4byte	0x1148
 4855 127f 82030000 		.4byte	.LLST21
 4856 1283 00       		.byte	0
 4857 1284 36       		.uleb128 0x36
 4858 1285 3B110000 		.4byte	0x113b
 4859 1289 60020000 		.4byte	.LBB33
 4860 128d 0E000000 		.4byte	.LBE33-.LBB33
 4861 1291 01       		.byte	0x1
 4862 1292 D402     		.2byte	0x2d4
 4863 1294 2A       		.uleb128 0x2a
 4864 1295 60110000 		.4byte	0x1160
 4865 1299 97030000 		.4byte	.LLST22
 4866 129d 2A       		.uleb128 0x2a
 4867 129e 54110000 		.4byte	0x1154
 4868 12a2 AA030000 		.4byte	.LLST23
 4869 12a6 2A       		.uleb128 0x2a
 4870 12a7 48110000 		.4byte	0x1148
 4871 12ab BD030000 		.4byte	.LLST24
 4872 12af 00       		.byte	0
 4873 12b0 00       		.byte	0
 4874 12b1 32       		.uleb128 0x32
 4875 12b2 48000000 		.4byte	.Ldebug_ranges0+0x48
 4876 12b6 79130000 		.4byte	0x1379
 4877 12ba 31       		.uleb128 0x31
 4878 12bb 6D040000 		.4byte	.LASF298
 4879 12bf 01       		.byte	0x1
 4880 12c0 E602     		.2byte	0x2e6
 4881 12c2 05010000 		.4byte	0x105
 4882 12c6 D2030000 		.4byte	.LLST25
 4883 12ca 37       		.uleb128 0x37
 4884 12cb 68000000 		.4byte	.Ldebug_ranges0+0x68
 4885 12cf 1E       		.uleb128 0x1e
 4886 12d0 EF080000 		.4byte	.LASF302
 4887 12d4 01       		.byte	0x1
 4888 12d5 EA02     		.2byte	0x2ea
 4889 12d7 FA000000 		.4byte	0xfa
 4890 12db 34       		.uleb128 0x34
 4891 12dc 00030000 		.4byte	.LBB37
 4892 12e0 44000000 		.4byte	.LBE37-.LBB37
 4893 12e4 1B130000 		.4byte	0x131b
 4894 12e8 31       		.uleb128 0x31
 4895 12e9 FA100000 		.4byte	.LASF299
 4896 12ed 01       		.byte	0x1
 4897 12ee F402     		.2byte	0x2f4
 4898 12f0 FA000000 		.4byte	0xfa
 4899 12f4 1F040000 		.4byte	.LLST26
ARM GAS  C:\Users\chemi\AppData\Local\Temp\ccbZzKkH.s 			page 109


 4900 12f8 31       		.uleb128 0x31
 4901 12f9 330F0000 		.4byte	.LASF300
 4902 12fd 01       		.byte	0x1
 4903 12fe F602     		.2byte	0x2f6
 4904 1300 FA000000 		.4byte	0xfa
 4905 1304 3D040000 		.4byte	.LLST27
 4906 1308 25       		.uleb128 0x25
 4907 1309 04030000 		.4byte	.LVL78
 4908 130d 911E0000 		.4byte	0x1e91
 4909 1311 25       		.uleb128 0x25
 4910 1312 0A030000 		.4byte	.LVL79
 4911 1316 911E0000 		.4byte	0x1e91
 4912 131a 00       		.byte	0
 4913 131b 38       		.uleb128 0x38
 4914 131c 3B110000 		.4byte	0x113b
 4915 1320 50030000 		.4byte	.LBB38
 4916 1324 90000000 		.4byte	.Ldebug_ranges0+0x90
 4917 1328 01       		.byte	0x1
 4918 1329 FE02     		.2byte	0x2fe
 4919 132b 4B130000 		.4byte	0x134b
 4920 132f 2A       		.uleb128 0x2a
 4921 1330 60110000 		.4byte	0x1160
 4922 1334 50040000 		.4byte	.LLST28
 4923 1338 2A       		.uleb128 0x2a
 4924 1339 54110000 		.4byte	0x1154
 4925 133d 63040000 		.4byte	.LLST29
 4926 1341 2A       		.uleb128 0x2a
 4927 1342 48110000 		.4byte	0x1148
 4928 1346 76040000 		.4byte	.LLST30
 4929 134a 00       		.byte	0
 4930 134b 39       		.uleb128 0x39
 4931 134c 3B110000 		.4byte	0x113b
 4932 1350 9C030000 		.4byte	.LBB42
 4933 1354 A8000000 		.4byte	.Ldebug_ranges0+0xa8
 4934 1358 01       		.byte	0x1
 4935 1359 1B03     		.2byte	0x31b
 4936 135b 2A       		.uleb128 0x2a
 4937 135c 60110000 		.4byte	0x1160
 4938 1360 8B040000 		.4byte	.LLST31
 4939 1364 2A       		.uleb128 0x2a
 4940 1365 54110000 		.4byte	0x1154
 4941 1369 9E040000 		.4byte	.LLST32
 4942 136d 2A       		.uleb128 0x2a
 4943 136e 48110000 		.4byte	0x1148
 4944 1372 B1040000 		.4byte	.LLST33
 4945 1376 00       		.byte	0
 4946 1377 00       		.byte	0
 4947 1378 00       		.byte	0
 4948 1379 27       		.uleb128 0x27
 4949 137a 02040000 		.4byte	.LVL100
 4950 137e 9C1E0000 		.4byte	0x1e9c
 4951 1382 97130000 		.4byte	0x1397
 4952 1386 28       		.uleb128 0x28
 4953 1387 01       		.uleb128 0x1
 4954 1388 51       		.byte	0x51
 4955 1389 02       		.uleb128 0x2
 4956 138a 75       		.byte	0x75
ARM GAS  C:\Users\chemi\AppData\Local\Temp\ccbZzKkH.s 			page 110


 4957 138b 00       		.sleb128 0
 4958 138c 28       		.uleb128 0x28
 4959 138d 01       		.uleb128 0x1
 4960 138e 52       		.byte	0x52
 4961 138f 01       		.uleb128 0x1
 4962 1390 31       		.byte	0x31
 4963 1391 28       		.uleb128 0x28
 4964 1392 01       		.uleb128 0x1
 4965 1393 53       		.byte	0x53
 4966 1394 01       		.uleb128 0x1
 4967 1395 30       		.byte	0x30
 4968 1396 00       		.byte	0
 4969 1397 25       		.uleb128 0x25
 4970 1398 0C040000 		.4byte	.LVL101
 4971 139c 861E0000 		.4byte	0x1e86
 4972 13a0 25       		.uleb128 0x25
 4973 13a1 1C040000 		.4byte	.LVL102
 4974 13a5 A71E0000 		.4byte	0x1ea7
 4975 13a9 00       		.byte	0
 4976 13aa 27       		.uleb128 0x27
 4977 13ab 1E000000 		.4byte	.LVL37
 4978 13af B21E0000 		.4byte	0x1eb2
 4979 13b3 BD130000 		.4byte	0x13bd
 4980 13b7 28       		.uleb128 0x28
 4981 13b8 01       		.uleb128 0x1
 4982 13b9 50       		.byte	0x50
 4983 13ba 01       		.uleb128 0x1
 4984 13bb 31       		.byte	0x31
 4985 13bc 00       		.byte	0
 4986 13bd 25       		.uleb128 0x25
 4987 13be 12010000 		.4byte	.LVL50
 4988 13c2 701E0000 		.4byte	0x1e70
 4989 13c6 25       		.uleb128 0x25
 4990 13c7 26040000 		.4byte	.LVL103
 4991 13cb BE1E0000 		.4byte	0x1ebe
 4992 13cf 27       		.uleb128 0x27
 4993 13d0 38040000 		.4byte	.LVL104
 4994 13d4 C91E0000 		.4byte	0x1ec9
 4995 13d8 EB130000 		.4byte	0x13eb
 4996 13dc 28       		.uleb128 0x28
 4997 13dd 01       		.uleb128 0x1
 4998 13de 51       		.byte	0x51
 4999 13df 05       		.uleb128 0x5
 5000 13e0 03       		.byte	0x3
 5001 13e1 04000000 		.4byte	.LANCHOR0+4
 5002 13e5 28       		.uleb128 0x28
 5003 13e6 01       		.uleb128 0x1
 5004 13e7 52       		.byte	0x52
 5005 13e8 01       		.uleb128 0x1
 5006 13e9 31       		.byte	0x31
 5007 13ea 00       		.byte	0
 5008 13eb 27       		.uleb128 0x27
 5009 13ec 68040000 		.4byte	.LVL105
 5010 13f0 D41E0000 		.4byte	0x1ed4
 5011 13f4 FE130000 		.4byte	0x13fe
 5012 13f8 28       		.uleb128 0x28
 5013 13f9 01       		.uleb128 0x1
ARM GAS  C:\Users\chemi\AppData\Local\Temp\ccbZzKkH.s 			page 111


 5014 13fa 50       		.byte	0x50
 5015 13fb 01       		.uleb128 0x1
 5016 13fc 30       		.byte	0x30
 5017 13fd 00       		.byte	0
 5018 13fe 25       		.uleb128 0x25
 5019 13ff 70040000 		.4byte	.LVL106
 5020 1403 651E0000 		.4byte	0x1e65
 5021 1407 25       		.uleb128 0x25
 5022 1408 74040000 		.4byte	.LVL107
 5023 140c 441E0000 		.4byte	0x1e44
 5024 1410 25       		.uleb128 0x25
 5025 1411 78040000 		.4byte	.LVL108
 5026 1415 701E0000 		.4byte	0x1e70
 5027 1419 25       		.uleb128 0x25
 5028 141a 82040000 		.4byte	.LVL109
 5029 141e 7B1E0000 		.4byte	0x1e7b
 5030 1422 25       		.uleb128 0x25
 5031 1423 86040000 		.4byte	.LVL110
 5032 1427 A71E0000 		.4byte	0x1ea7
 5033 142b 00       		.byte	0
 5034 142c 06       		.uleb128 0x6
 5035 142d 04       		.byte	0x4
 5036 142e E30C0000 		.4byte	0xce3
 5037 1432 3A       		.uleb128 0x3a
 5038 1433 A3070000 		.4byte	.LASF308
 5039 1437 01       		.byte	0x1
 5040 1438 99       		.byte	0x99
 5041 1439 D9000000 		.4byte	0xd9
 5042 143d 00000000 		.4byte	.LFB70
 5043 1441 20000000 		.4byte	.LFE70-.LFB70
 5044 1445 01       		.uleb128 0x1
 5045 1446 9C       		.byte	0x9c
 5046 1447 79140000 		.4byte	0x1479
 5047 144b 22       		.uleb128 0x22
 5048 144c 480E0000 		.4byte	.LASF303
 5049 1450 01       		.byte	0x1
 5050 1451 99       		.byte	0x99
 5051 1452 29050000 		.4byte	0x529
 5052 1456 C6040000 		.4byte	.LLST34
 5053 145a 22       		.uleb128 0x22
 5054 145b B4080000 		.4byte	.LASF166
 5055 145f 01       		.byte	0x1
 5056 1460 99       		.byte	0x99
 5057 1461 D9000000 		.4byte	0xd9
 5058 1465 E7040000 		.4byte	.LLST35
 5059 1469 22       		.uleb128 0x22
 5060 146a 6A0D0000 		.4byte	.LASF304
 5061 146e 01       		.byte	0x1
 5062 146f 99       		.byte	0x99
 5063 1470 3C030000 		.4byte	0x33c
 5064 1474 08050000 		.4byte	.LLST36
 5065 1478 00       		.byte	0
 5066 1479 3B       		.uleb128 0x3b
 5067 147a 2A080000 		.4byte	.LASF312
 5068 147e 01       		.byte	0x1
 5069 147f A0       		.byte	0xa0
 5070 1480 00000000 		.4byte	.LFB71
ARM GAS  C:\Users\chemi\AppData\Local\Temp\ccbZzKkH.s 			page 112


 5071 1484 7C000000 		.4byte	.LFE71-.LFB71
 5072 1488 01       		.uleb128 0x1
 5073 1489 9C       		.byte	0x9c
 5074 148a 6F150000 		.4byte	0x156f
 5075 148e 3C       		.uleb128 0x3c
 5076 148f C4130000 		.4byte	.LASF168
 5077 1493 01       		.byte	0x1
 5078 1494 A6       		.byte	0xa6
 5079 1495 2C140000 		.4byte	0x142c
 5080 1499 29050000 		.4byte	.LLST37
 5081 149d 32       		.uleb128 0x32
 5082 149e C0000000 		.4byte	.Ldebug_ranges0+0xc0
 5083 14a2 B4140000 		.4byte	0x14b4
 5084 14a6 3D       		.uleb128 0x3d
 5085 14a7 6900     		.ascii	"i\000"
 5086 14a9 01       		.byte	0x1
 5087 14aa A2       		.byte	0xa2
 5088 14ab 05010000 		.4byte	0x105
 5089 14af 47050000 		.4byte	.LLST38
 5090 14b3 00       		.byte	0
 5091 14b4 27       		.uleb128 0x27
 5092 14b5 22000000 		.4byte	.LVL120
 5093 14b9 DF1E0000 		.4byte	0x1edf
 5094 14bd C9140000 		.4byte	0x14c9
 5095 14c1 28       		.uleb128 0x28
 5096 14c2 01       		.uleb128 0x1
 5097 14c3 50       		.byte	0x50
 5098 14c4 03       		.uleb128 0x3
 5099 14c5 0A       		.byte	0xa
 5100 14c6 8C02     		.2byte	0x28c
 5101 14c8 00       		.byte	0
 5102 14c9 27       		.uleb128 0x27
 5103 14ca 2E000000 		.4byte	.LVL122
 5104 14ce EA1E0000 		.4byte	0x1eea
 5105 14d2 E9140000 		.4byte	0x14e9
 5106 14d6 28       		.uleb128 0x28
 5107 14d7 01       		.uleb128 0x1
 5108 14d8 50       		.byte	0x50
 5109 14d9 02       		.uleb128 0x2
 5110 14da 74       		.byte	0x74
 5111 14db 00       		.sleb128 0
 5112 14dc 28       		.uleb128 0x28
 5113 14dd 01       		.uleb128 0x1
 5114 14de 51       		.byte	0x51
 5115 14df 01       		.uleb128 0x1
 5116 14e0 30       		.byte	0x30
 5117 14e1 28       		.uleb128 0x28
 5118 14e2 01       		.uleb128 0x1
 5119 14e3 52       		.byte	0x52
 5120 14e4 03       		.uleb128 0x3
 5121 14e5 0A       		.byte	0xa
 5122 14e6 8C02     		.2byte	0x28c
 5123 14e8 00       		.byte	0
 5124 14e9 27       		.uleb128 0x27
 5125 14ea 3A000000 		.4byte	.LVL123
 5126 14ee F31E0000 		.4byte	0x1ef3
 5127 14f2 02150000 		.4byte	0x1502
ARM GAS  C:\Users\chemi\AppData\Local\Temp\ccbZzKkH.s 			page 113


 5128 14f6 28       		.uleb128 0x28
 5129 14f7 01       		.uleb128 0x1
 5130 14f8 50       		.byte	0x50
 5131 14f9 02       		.uleb128 0x2
 5132 14fa 08       		.byte	0x8
 5133 14fb 40       		.byte	0x40
 5134 14fc 28       		.uleb128 0x28
 5135 14fd 01       		.uleb128 0x1
 5136 14fe 51       		.byte	0x51
 5137 14ff 01       		.uleb128 0x1
 5138 1500 3C       		.byte	0x3c
 5139 1501 00       		.byte	0
 5140 1502 25       		.uleb128 0x25
 5141 1503 42000000 		.4byte	.LVL124
 5142 1507 FE1E0000 		.4byte	0x1efe
 5143 150b 27       		.uleb128 0x27
 5144 150c 48000000 		.4byte	.LVL125
 5145 1510 091F0000 		.4byte	0x1f09
 5146 1514 22150000 		.4byte	0x1522
 5147 1518 28       		.uleb128 0x28
 5148 1519 01       		.uleb128 0x1
 5149 151a 50       		.byte	0x50
 5150 151b 05       		.uleb128 0x5
 5151 151c 03       		.byte	0x3
 5152 151d 00000000 		.4byte	SigGen_PulseTimerISR
 5153 1521 00       		.byte	0
 5154 1522 27       		.uleb128 0x27
 5155 1523 4E000000 		.4byte	.LVL126
 5156 1527 141F0000 		.4byte	0x1f14
 5157 152b 39150000 		.4byte	0x1539
 5158 152f 28       		.uleb128 0x28
 5159 1530 01       		.uleb128 0x1
 5160 1531 50       		.byte	0x50
 5161 1532 05       		.uleb128 0x5
 5162 1533 03       		.byte	0x3
 5163 1534 00000000 		.4byte	isr_synth
 5164 1538 00       		.byte	0
 5165 1539 3E       		.uleb128 0x3e
 5166 153a 60000000 		.4byte	.LVL127
 5167 153e 1F1F0000 		.4byte	0x1f1f
 5168 1542 28       		.uleb128 0x28
 5169 1543 01       		.uleb128 0x1
 5170 1544 50       		.byte	0x50
 5171 1545 05       		.uleb128 0x5
 5172 1546 03       		.byte	0x3
 5173 1547 00000000 		.4byte	SigGen_task
 5174 154b 28       		.uleb128 0x28
 5175 154c 01       		.uleb128 0x1
 5176 154d 51       		.byte	0x51
 5177 154e 05       		.uleb128 0x5
 5178 154f 03       		.byte	0x3
 5179 1550 00000000 		.4byte	.LC0
 5180 1554 28       		.uleb128 0x28
 5181 1555 01       		.uleb128 0x1
 5182 1556 52       		.byte	0x52
 5183 1557 02       		.uleb128 0x2
 5184 1558 08       		.byte	0x8
ARM GAS  C:\Users\chemi\AppData\Local\Temp\ccbZzKkH.s 			page 114


 5185 1559 E4       		.byte	0xe4
 5186 155a 28       		.uleb128 0x28
 5187 155b 01       		.uleb128 0x1
 5188 155c 53       		.byte	0x53
 5189 155d 02       		.uleb128 0x2
 5190 155e 74       		.byte	0x74
 5191 155f 00       		.sleb128 0
 5192 1560 28       		.uleb128 0x28
 5193 1561 02       		.uleb128 0x2
 5194 1562 7D       		.byte	0x7d
 5195 1563 00       		.sleb128 0
 5196 1564 02       		.uleb128 0x2
 5197 1565 75       		.byte	0x75
 5198 1566 00       		.sleb128 0
 5199 1567 28       		.uleb128 0x28
 5200 1568 02       		.uleb128 0x2
 5201 1569 7D       		.byte	0x7d
 5202 156a 04       		.sleb128 4
 5203 156b 01       		.uleb128 0x1
 5204 156c 30       		.byte	0x30
 5205 156d 00       		.byte	0
 5206 156e 00       		.byte	0
 5207 156f 3F       		.uleb128 0x3f
 5208 1570 8A0E0000 		.4byte	.LASF305
 5209 1574 01       		.byte	0x1
 5210 1575 B9       		.byte	0xb9
 5211 1576 05010000 		.4byte	0x105
 5212 157a 00000000 		.4byte	.LFB72
 5213 157e 68000000 		.4byte	.LFE72-.LFB72
 5214 1582 01       		.uleb128 0x1
 5215 1583 9C       		.byte	0x9c
 5216 1584 DC150000 		.4byte	0x15dc
 5217 1588 3C       		.uleb128 0x3c
 5218 1589 9D0E0000 		.4byte	.LASF306
 5219 158d 01       		.byte	0x1
 5220 158e BA       		.byte	0xba
 5221 158f 05010000 		.4byte	0x105
 5222 1593 8B050000 		.4byte	.LLST39
 5223 1597 32       		.uleb128 0x32
 5224 1598 E0000000 		.4byte	.Ldebug_ranges0+0xe0
 5225 159c C9150000 		.4byte	0x15c9
 5226 15a0 3C       		.uleb128 0x3c
 5227 15a1 6D040000 		.4byte	.LASF298
 5228 15a5 01       		.byte	0x1
 5229 15a6 BD       		.byte	0xbd
 5230 15a7 05010000 		.4byte	0x105
 5231 15ab B5050000 		.4byte	.LLST40
 5232 15af 2C       		.uleb128 0x2c
 5233 15b0 06000000 		.4byte	.LBB57
 5234 15b4 3A000000 		.4byte	.LBE57-.LBB57
 5235 15b8 3C       		.uleb128 0x3c
 5236 15b9 E90E0000 		.4byte	.LASF307
 5237 15bd 01       		.byte	0x1
 5238 15be C3       		.byte	0xc3
 5239 15bf 05010000 		.4byte	0x105
 5240 15c3 D4050000 		.4byte	.LLST41
 5241 15c7 00       		.byte	0
ARM GAS  C:\Users\chemi\AppData\Local\Temp\ccbZzKkH.s 			page 115


 5242 15c8 00       		.byte	0
 5243 15c9 25       		.uleb128 0x25
 5244 15ca 4A000000 		.4byte	.LVL135
 5245 15ce 2B1F0000 		.4byte	0x1f2b
 5246 15d2 25       		.uleb128 0x25
 5247 15d3 56000000 		.4byte	.LVL136
 5248 15d7 2B1F0000 		.4byte	0x1f2b
 5249 15db 00       		.byte	0
 5250 15dc 3A       		.uleb128 0x3a
 5251 15dd 21110000 		.4byte	.LASF309
 5252 15e1 01       		.byte	0x1
 5253 15e2 EE       		.byte	0xee
 5254 15e3 05010000 		.4byte	0x105
 5255 15e7 00000000 		.4byte	.LFB74
 5256 15eb 14000000 		.4byte	.LFE74-.LFB74
 5257 15ef 01       		.uleb128 0x1
 5258 15f0 9C       		.byte	0x9c
 5259 15f1 05160000 		.4byte	0x1605
 5260 15f5 22       		.uleb128 0x22
 5261 15f6 58030000 		.4byte	.LASF229
 5262 15fa 01       		.byte	0x1
 5263 15fb EE       		.byte	0xee
 5264 15fc 05010000 		.4byte	0x105
 5265 1600 E7050000 		.4byte	.LLST42
 5266 1604 00       		.byte	0
 5267 1605 40       		.uleb128 0x40
 5268 1606 B8100000 		.4byte	.LASF310
 5269 160a 01       		.byte	0x1
 5270 160b 6501     		.2byte	0x165
 5271 160d 00000000 		.4byte	.LFB78
 5272 1611 40000000 		.4byte	.LFE78-.LFB78
 5273 1615 01       		.uleb128 0x1
 5274 1616 9C       		.byte	0x9c
 5275 1617 A5160000 		.4byte	0x16a5
 5276 161b 30       		.uleb128 0x30
 5277 161c 58030000 		.4byte	.LASF229
 5278 1620 01       		.byte	0x1
 5279 1621 6501     		.2byte	0x165
 5280 1623 05010000 		.4byte	0x105
 5281 1627 08060000 		.4byte	.LLST43
 5282 162b 30       		.uleb128 0x30
 5283 162c A90B0000 		.4byte	.LASF286
 5284 1630 01       		.byte	0x1
 5285 1631 6501     		.2byte	0x165
 5286 1633 05010000 		.4byte	0x105
 5287 1637 58060000 		.4byte	.LLST44
 5288 163b 30       		.uleb128 0x30
 5289 163c 61090000 		.4byte	.LASF284
 5290 1640 01       		.byte	0x1
 5291 1641 6501     		.2byte	0x165
 5292 1643 05010000 		.4byte	0x105
 5293 1647 9A060000 		.4byte	.LLST45
 5294 164b 30       		.uleb128 0x30
 5295 164c 32110000 		.4byte	.LASF287
 5296 1650 01       		.byte	0x1
 5297 1651 6501     		.2byte	0x165
 5298 1653 05010000 		.4byte	0x105
ARM GAS  C:\Users\chemi\AppData\Local\Temp\ccbZzKkH.s 			page 116


 5299 1657 D1060000 		.4byte	.LLST46
 5300 165b 30       		.uleb128 0x30
 5301 165c 03030000 		.4byte	.LASF288
 5302 1660 01       		.byte	0x1
 5303 1661 6501     		.2byte	0x165
 5304 1663 05010000 		.4byte	0x105
 5305 1667 21070000 		.4byte	.LLST47
 5306 166b 27       		.uleb128 0x27
 5307 166c 26000000 		.4byte	.LVL146
 5308 1670 7F0F0000 		.4byte	0xf7f
 5309 1674 85160000 		.4byte	0x1685
 5310 1678 28       		.uleb128 0x28
 5311 1679 01       		.uleb128 0x1
 5312 167a 50       		.byte	0x50
 5313 167b 03       		.uleb128 0x3
 5314 167c F3       		.byte	0xf3
 5315 167d 01       		.uleb128 0x1
 5316 167e 52       		.byte	0x52
 5317 167f 28       		.uleb128 0x28
 5318 1680 01       		.uleb128 0x1
 5319 1681 52       		.byte	0x52
 5320 1682 01       		.uleb128 0x1
 5321 1683 30       		.byte	0x30
 5322 1684 00       		.byte	0
 5323 1685 41       		.uleb128 0x41
 5324 1686 38000000 		.4byte	.LVL148
 5325 168a DA0F0000 		.4byte	0xfda
 5326 168e 28       		.uleb128 0x28
 5327 168f 01       		.uleb128 0x1
 5328 1690 50       		.byte	0x50
 5329 1691 03       		.uleb128 0x3
 5330 1692 F3       		.byte	0xf3
 5331 1693 01       		.uleb128 0x1
 5332 1694 50       		.byte	0x50
 5333 1695 28       		.uleb128 0x28
 5334 1696 01       		.uleb128 0x1
 5335 1697 51       		.byte	0x51
 5336 1698 03       		.uleb128 0x3
 5337 1699 F3       		.byte	0xf3
 5338 169a 01       		.uleb128 0x1
 5339 169b 51       		.byte	0x51
 5340 169c 28       		.uleb128 0x28
 5341 169d 01       		.uleb128 0x1
 5342 169e 53       		.byte	0x53
 5343 169f 03       		.uleb128 0x3
 5344 16a0 F3       		.byte	0xf3
 5345 16a1 01       		.uleb128 0x1
 5346 16a2 53       		.byte	0x53
 5347 16a3 00       		.byte	0
 5348 16a4 00       		.byte	0
 5349 16a5 40       		.uleb128 0x40
 5350 16a6 48020000 		.4byte	.LASF311
 5351 16aa 01       		.byte	0x1
 5352 16ab 6F01     		.2byte	0x16f
 5353 16ad 00000000 		.4byte	.LFB80
 5354 16b1 40000000 		.4byte	.LFE80-.LFB80
 5355 16b5 01       		.uleb128 0x1
ARM GAS  C:\Users\chemi\AppData\Local\Temp\ccbZzKkH.s 			page 117


 5356 16b6 9C       		.byte	0x9c
 5357 16b7 45170000 		.4byte	0x1745
 5358 16bb 30       		.uleb128 0x30
 5359 16bc 58030000 		.4byte	.LASF229
 5360 16c0 01       		.byte	0x1
 5361 16c1 6F01     		.2byte	0x16f
 5362 16c3 05010000 		.4byte	0x105
 5363 16c7 59070000 		.4byte	.LLST48
 5364 16cb 30       		.uleb128 0x30
 5365 16cc A90B0000 		.4byte	.LASF286
 5366 16d0 01       		.byte	0x1
 5367 16d1 6F01     		.2byte	0x16f
 5368 16d3 05010000 		.4byte	0x105
 5369 16d7 A9070000 		.4byte	.LLST49
 5370 16db 30       		.uleb128 0x30
 5371 16dc 61090000 		.4byte	.LASF284
 5372 16e0 01       		.byte	0x1
 5373 16e1 6F01     		.2byte	0x16f
 5374 16e3 05010000 		.4byte	0x105
 5375 16e7 EB070000 		.4byte	.LLST50
 5376 16eb 30       		.uleb128 0x30
 5377 16ec 32110000 		.4byte	.LASF287
 5378 16f0 01       		.byte	0x1
 5379 16f1 6F01     		.2byte	0x16f
 5380 16f3 05010000 		.4byte	0x105
 5381 16f7 22080000 		.4byte	.LLST51
 5382 16fb 30       		.uleb128 0x30
 5383 16fc 03030000 		.4byte	.LASF288
 5384 1700 01       		.byte	0x1
 5385 1701 6F01     		.2byte	0x16f
 5386 1703 05010000 		.4byte	0x105
 5387 1707 72080000 		.4byte	.LLST52
 5388 170b 27       		.uleb128 0x27
 5389 170c 26000000 		.4byte	.LVL155
 5390 1710 7F0F0000 		.4byte	0xf7f
 5391 1714 25170000 		.4byte	0x1725
 5392 1718 28       		.uleb128 0x28
 5393 1719 01       		.uleb128 0x1
 5394 171a 50       		.byte	0x50
 5395 171b 03       		.uleb128 0x3
 5396 171c F3       		.byte	0xf3
 5397 171d 01       		.uleb128 0x1
 5398 171e 52       		.byte	0x52
 5399 171f 28       		.uleb128 0x28
 5400 1720 01       		.uleb128 0x1
 5401 1721 52       		.byte	0x52
 5402 1722 01       		.uleb128 0x1
 5403 1723 30       		.byte	0x30
 5404 1724 00       		.byte	0
 5405 1725 41       		.uleb128 0x41
 5406 1726 38000000 		.4byte	.LVL157
 5407 172a DA0F0000 		.4byte	0xfda
 5408 172e 28       		.uleb128 0x28
 5409 172f 01       		.uleb128 0x1
 5410 1730 50       		.byte	0x50
 5411 1731 03       		.uleb128 0x3
 5412 1732 F3       		.byte	0xf3
ARM GAS  C:\Users\chemi\AppData\Local\Temp\ccbZzKkH.s 			page 118


 5413 1733 01       		.uleb128 0x1
 5414 1734 50       		.byte	0x50
 5415 1735 28       		.uleb128 0x28
 5416 1736 01       		.uleb128 0x1
 5417 1737 51       		.byte	0x51
 5418 1738 03       		.uleb128 0x3
 5419 1739 F3       		.byte	0xf3
 5420 173a 01       		.uleb128 0x1
 5421 173b 51       		.byte	0x51
 5422 173c 28       		.uleb128 0x28
 5423 173d 01       		.uleb128 0x1
 5424 173e 53       		.byte	0x53
 5425 173f 03       		.uleb128 0x3
 5426 1740 F3       		.byte	0xf3
 5427 1741 01       		.uleb128 0x1
 5428 1742 53       		.byte	0x53
 5429 1743 00       		.byte	0
 5430 1744 00       		.byte	0
 5431 1745 42       		.uleb128 0x42
 5432 1746 5F0B0000 		.4byte	.LASF313
 5433 174a 01       		.byte	0x1
 5434 174b 7B01     		.2byte	0x17b
 5435 174d 00000000 		.4byte	.LFB82
 5436 1751 FC000000 		.4byte	.LFE82-.LFB82
 5437 1755 01       		.uleb128 0x1
 5438 1756 9C       		.byte	0x9c
 5439 1757 FB170000 		.4byte	0x17fb
 5440 175b 31       		.uleb128 0x31
 5441 175c 2E060000 		.4byte	.LASF314
 5442 1760 01       		.byte	0x1
 5443 1761 7D01     		.2byte	0x17d
 5444 1763 05010000 		.4byte	0x105
 5445 1767 AA080000 		.4byte	.LLST53
 5446 176b 31       		.uleb128 0x31
 5447 176c 96020000 		.4byte	.LASF315
 5448 1770 01       		.byte	0x1
 5449 1771 8001     		.2byte	0x180
 5450 1773 05010000 		.4byte	0x105
 5451 1777 C8080000 		.4byte	.LLST54
 5452 177b 31       		.uleb128 0x31
 5453 177c 51100000 		.4byte	.LASF316
 5454 1780 01       		.byte	0x1
 5455 1781 8201     		.2byte	0x182
 5456 1783 05010000 		.4byte	0x105
 5457 1787 DB080000 		.4byte	.LLST55
 5458 178b 32       		.uleb128 0x32
 5459 178c F8000000 		.4byte	.Ldebug_ranges0+0xf8
 5460 1790 DF170000 		.4byte	0x17df
 5461 1794 31       		.uleb128 0x31
 5462 1795 6D040000 		.4byte	.LASF298
 5463 1799 01       		.byte	0x1
 5464 179a A201     		.2byte	0x1a2
 5465 179c 05010000 		.4byte	0x105
 5466 17a0 FC080000 		.4byte	.LLST56
 5467 17a4 37       		.uleb128 0x37
 5468 17a5 18010000 		.4byte	.Ldebug_ranges0+0x118
 5469 17a9 31       		.uleb128 0x31
ARM GAS  C:\Users\chemi\AppData\Local\Temp\ccbZzKkH.s 			page 119


 5470 17aa A20A0000 		.4byte	.LASF226
 5471 17ae 01       		.byte	0x1
 5472 17af AA01     		.2byte	0x1aa
 5473 17b1 05010000 		.4byte	0x105
 5474 17b5 0F090000 		.4byte	.LLST57
 5475 17b9 25       		.uleb128 0x25
 5476 17ba 6C000000 		.4byte	.LVL170
 5477 17be 2B1F0000 		.4byte	0x1f2b
 5478 17c2 25       		.uleb128 0x25
 5479 17c3 7A000000 		.4byte	.LVL173
 5480 17c7 2B1F0000 		.4byte	0x1f2b
 5481 17cb 25       		.uleb128 0x25
 5482 17cc AA000000 		.4byte	.LVL177
 5483 17d0 2B1F0000 		.4byte	0x1f2b
 5484 17d4 25       		.uleb128 0x25
 5485 17d5 B8000000 		.4byte	.LVL180
 5486 17d9 2B1F0000 		.4byte	0x1f2b
 5487 17dd 00       		.byte	0
 5488 17de 00       		.byte	0
 5489 17df 25       		.uleb128 0x25
 5490 17e0 08000000 		.4byte	.LVL159
 5491 17e4 6F150000 		.4byte	0x156f
 5492 17e8 25       		.uleb128 0x25
 5493 17e9 20000000 		.4byte	.LVL161
 5494 17ed 361F0000 		.4byte	0x1f36
 5495 17f1 25       		.uleb128 0x25
 5496 17f2 28000000 		.4byte	.LVL162
 5497 17f6 361F0000 		.4byte	0x1f36
 5498 17fa 00       		.byte	0
 5499 17fb 21       		.uleb128 0x21
 5500 17fc 0A080000 		.4byte	.LASF318
 5501 1800 01       		.byte	0x1
 5502 1801 F4       		.byte	0xf4
 5503 1802 00000000 		.4byte	.LFB75
 5504 1806 10010000 		.4byte	.LFE75-.LFB75
 5505 180a 01       		.uleb128 0x1
 5506 180b 9C       		.byte	0x9c
 5507 180c ED180000 		.4byte	0x18ed
 5508 1810 22       		.uleb128 0x22
 5509 1811 58030000 		.4byte	.LASF229
 5510 1815 01       		.byte	0x1
 5511 1816 F4       		.byte	0xf4
 5512 1817 05010000 		.4byte	0x105
 5513 181b 43090000 		.4byte	.LLST58
 5514 181f 22       		.uleb128 0x22
 5515 1820 DD080000 		.4byte	.LASF209
 5516 1824 01       		.byte	0x1
 5517 1825 F4       		.byte	0xf4
 5518 1826 05010000 		.4byte	0x105
 5519 182a 6F090000 		.4byte	.LLST59
 5520 182e 22       		.uleb128 0x22
 5521 182f 61090000 		.4byte	.LASF284
 5522 1833 01       		.byte	0x1
 5523 1834 F4       		.byte	0xf4
 5524 1835 FA000000 		.4byte	0xfa
 5525 1839 90090000 		.4byte	.LLST60
 5526 183d 22       		.uleb128 0x22
ARM GAS  C:\Users\chemi\AppData\Local\Temp\ccbZzKkH.s 			page 120


 5527 183e 32110000 		.4byte	.LASF287
 5528 1842 01       		.byte	0x1
 5529 1843 F4       		.byte	0xf4
 5530 1844 FA000000 		.4byte	0xfa
 5531 1848 BC090000 		.4byte	.LLST61
 5532 184c 22       		.uleb128 0x22
 5533 184d F70B0000 		.4byte	.LASF213
 5534 1851 01       		.byte	0x1
 5535 1852 F4       		.byte	0xf4
 5536 1853 FA000000 		.4byte	0xfa
 5537 1857 E8090000 		.4byte	.LLST62
 5538 185b 22       		.uleb128 0x22
 5539 185c B80D0000 		.4byte	.LASF211
 5540 1860 01       		.byte	0x1
 5541 1861 F4       		.byte	0xf4
 5542 1862 FA000000 		.4byte	0xfa
 5543 1866 080A0000 		.4byte	.LLST63
 5544 186a 22       		.uleb128 0x22
 5545 186b 2A020000 		.4byte	.LASF319
 5546 186f 01       		.byte	0x1
 5547 1870 F4       		.byte	0xf4
 5548 1871 FA000000 		.4byte	0xfa
 5549 1875 400A0000 		.4byte	.LLST64
 5550 1879 22       		.uleb128 0x22
 5551 187a E40F0000 		.4byte	.LASF320
 5552 187e 01       		.byte	0x1
 5553 187f F4       		.byte	0xf4
 5554 1880 FA000000 		.4byte	0xfa
 5555 1884 600A0000 		.4byte	.LLST65
 5556 1888 3C       		.uleb128 0x3c
 5557 1889 1B040000 		.4byte	.LASF321
 5558 188d 01       		.byte	0x1
 5559 188e FA       		.byte	0xfa
 5560 188f 05010000 		.4byte	0x105
 5561 1893 800A0000 		.4byte	.LLST66
 5562 1897 34       		.uleb128 0x34
 5563 1898 B0000000 		.4byte	.LBB65
 5564 189c 1E000000 		.4byte	.LBE65-.LBB65
 5565 18a0 B5180000 		.4byte	0x18b5
 5566 18a4 31       		.uleb128 0x31
 5567 18a5 59080000 		.4byte	.LASF322
 5568 18a9 01       		.byte	0x1
 5569 18aa 2401     		.2byte	0x124
 5570 18ac FA000000 		.4byte	0xfa
 5571 18b0 930A0000 		.4byte	.LLST67
 5572 18b4 00       		.byte	0
 5573 18b5 27       		.uleb128 0x27
 5574 18b6 5A000000 		.4byte	.LVL192
 5575 18ba 411F0000 		.4byte	0x1f41
 5576 18be CF180000 		.4byte	0x18cf
 5577 18c2 28       		.uleb128 0x28
 5578 18c3 01       		.uleb128 0x1
 5579 18c4 50       		.byte	0x50
 5580 18c5 02       		.uleb128 0x2
 5581 18c6 77       		.byte	0x77
 5582 18c7 00       		.sleb128 0
 5583 18c8 28       		.uleb128 0x28
ARM GAS  C:\Users\chemi\AppData\Local\Temp\ccbZzKkH.s 			page 121


 5584 18c9 01       		.uleb128 0x1
 5585 18ca 51       		.byte	0x51
 5586 18cb 02       		.uleb128 0x2
 5587 18cc 79       		.byte	0x79
 5588 18cd 00       		.sleb128 0
 5589 18ce 00       		.byte	0
 5590 18cf 27       		.uleb128 0x27
 5591 18d0 F4000000 		.4byte	.LVL195
 5592 18d4 DA0F0000 		.4byte	0xfda
 5593 18d8 E3180000 		.4byte	0x18e3
 5594 18dc 28       		.uleb128 0x28
 5595 18dd 01       		.uleb128 0x1
 5596 18de 50       		.byte	0x50
 5597 18df 02       		.uleb128 0x2
 5598 18e0 75       		.byte	0x75
 5599 18e1 00       		.sleb128 0
 5600 18e2 00       		.byte	0
 5601 18e3 26       		.uleb128 0x26
 5602 18e4 FE000000 		.4byte	.LVL197
 5603 18e8 45170000 		.4byte	0x1745
 5604 18ec 00       		.byte	0
 5605 18ed 40       		.uleb128 0x40
 5606 18ee E6020000 		.4byte	.LASF323
 5607 18f2 01       		.byte	0x1
 5608 18f3 6001     		.2byte	0x160
 5609 18f5 00000000 		.4byte	.LFB77
 5610 18f9 4C000000 		.4byte	.LFE77-.LFB77
 5611 18fd 01       		.uleb128 0x1
 5612 18fe 9C       		.byte	0x9c
 5613 18ff D9190000 		.4byte	0x19d9
 5614 1903 30       		.uleb128 0x30
 5615 1904 58030000 		.4byte	.LASF229
 5616 1908 01       		.byte	0x1
 5617 1909 6001     		.2byte	0x160
 5618 190b 05010000 		.4byte	0x105
 5619 190f A60A0000 		.4byte	.LLST68
 5620 1913 30       		.uleb128 0x30
 5621 1914 DD080000 		.4byte	.LASF209
 5622 1918 01       		.byte	0x1
 5623 1919 6001     		.2byte	0x160
 5624 191b 05010000 		.4byte	0x105
 5625 191f F60A0000 		.4byte	.LLST69
 5626 1923 30       		.uleb128 0x30
 5627 1924 61090000 		.4byte	.LASF284
 5628 1928 01       		.byte	0x1
 5629 1929 6001     		.2byte	0x160
 5630 192b FA000000 		.4byte	0xfa
 5631 192f 380B0000 		.4byte	.LLST70
 5632 1933 30       		.uleb128 0x30
 5633 1934 32110000 		.4byte	.LASF287
 5634 1938 01       		.byte	0x1
 5635 1939 6001     		.2byte	0x160
 5636 193b FA000000 		.4byte	0xfa
 5637 193f 6F0B0000 		.4byte	.LLST71
 5638 1943 30       		.uleb128 0x30
 5639 1944 F70B0000 		.4byte	.LASF213
 5640 1948 01       		.byte	0x1
ARM GAS  C:\Users\chemi\AppData\Local\Temp\ccbZzKkH.s 			page 122


 5641 1949 6001     		.2byte	0x160
 5642 194b FA000000 		.4byte	0xfa
 5643 194f BF0B0000 		.4byte	.LLST72
 5644 1953 30       		.uleb128 0x30
 5645 1954 B80D0000 		.4byte	.LASF211
 5646 1958 01       		.byte	0x1
 5647 1959 6001     		.2byte	0x160
 5648 195b FA000000 		.4byte	0xfa
 5649 195f 0F0C0000 		.4byte	.LLST73
 5650 1963 30       		.uleb128 0x30
 5651 1964 2A020000 		.4byte	.LASF319
 5652 1968 01       		.byte	0x1
 5653 1969 6001     		.2byte	0x160
 5654 196b FA000000 		.4byte	0xfa
 5655 196f 5F0C0000 		.4byte	.LLST74
 5656 1973 30       		.uleb128 0x30
 5657 1974 E40F0000 		.4byte	.LASF320
 5658 1978 01       		.byte	0x1
 5659 1979 6001     		.2byte	0x160
 5660 197b FA000000 		.4byte	0xfa
 5661 197f AF0C0000 		.4byte	.LLST75
 5662 1983 27       		.uleb128 0x27
 5663 1984 28000000 		.4byte	.LVL205
 5664 1988 7F0F0000 		.4byte	0xf7f
 5665 198c B9190000 		.4byte	0x19b9
 5666 1990 28       		.uleb128 0x28
 5667 1991 01       		.uleb128 0x1
 5668 1992 50       		.byte	0x50
 5669 1993 03       		.uleb128 0x3
 5670 1994 F3       		.byte	0xf3
 5671 1995 01       		.uleb128 0x1
 5672 1996 52       		.byte	0x52
 5673 1997 28       		.uleb128 0x28
 5674 1998 01       		.uleb128 0x1
 5675 1999 51       		.byte	0x51
 5676 199a 02       		.uleb128 0x2
 5677 199b 74       		.byte	0x74
 5678 199c 00       		.sleb128 0
 5679 199d 28       		.uleb128 0x28
 5680 199e 01       		.uleb128 0x1
 5681 199f 52       		.byte	0x52
 5682 19a0 17       		.uleb128 0x17
 5683 19a1 31       		.byte	0x31
 5684 19a2 30       		.byte	0x30
 5685 19a3 F3       		.byte	0xf3
 5686 19a4 01       		.uleb128 0x1
 5687 19a5 52       		.byte	0x52
 5688 19a6 75       		.byte	0x75
 5689 19a7 00       		.sleb128 0
 5690 19a8 30       		.byte	0x30
 5691 19a9 2C       		.byte	0x2c
 5692 19aa 28       		.byte	0x28
 5693 19ab 0100     		.2byte	0x1
 5694 19ad 16       		.byte	0x16
 5695 19ae 13       		.byte	0x13
 5696 19af 75       		.byte	0x75
 5697 19b0 00       		.sleb128 0
ARM GAS  C:\Users\chemi\AppData\Local\Temp\ccbZzKkH.s 			page 123


 5698 19b1 30       		.byte	0x30
 5699 19b2 2B       		.byte	0x2b
 5700 19b3 28       		.byte	0x28
 5701 19b4 0100     		.2byte	0x1
 5702 19b6 16       		.byte	0x16
 5703 19b7 13       		.byte	0x13
 5704 19b8 00       		.byte	0
 5705 19b9 41       		.uleb128 0x41
 5706 19ba 44000000 		.4byte	.LVL207
 5707 19be FB170000 		.4byte	0x17fb
 5708 19c2 28       		.uleb128 0x28
 5709 19c3 01       		.uleb128 0x1
 5710 19c4 50       		.byte	0x50
 5711 19c5 03       		.uleb128 0x3
 5712 19c6 F3       		.byte	0xf3
 5713 19c7 01       		.uleb128 0x1
 5714 19c8 50       		.byte	0x50
 5715 19c9 28       		.uleb128 0x28
 5716 19ca 01       		.uleb128 0x1
 5717 19cb 51       		.byte	0x51
 5718 19cc 03       		.uleb128 0x3
 5719 19cd F3       		.byte	0xf3
 5720 19ce 01       		.uleb128 0x1
 5721 19cf 51       		.byte	0x51
 5722 19d0 28       		.uleb128 0x28
 5723 19d1 01       		.uleb128 0x1
 5724 19d2 53       		.byte	0x53
 5725 19d3 03       		.uleb128 0x3
 5726 19d4 F3       		.byte	0xf3
 5727 19d5 01       		.uleb128 0x1
 5728 19d6 53       		.byte	0x53
 5729 19d7 00       		.byte	0
 5730 19d8 00       		.byte	0
 5731 19d9 40       		.uleb128 0x40
 5732 19da 36080000 		.4byte	.LASF324
 5733 19de 01       		.byte	0x1
 5734 19df 6A01     		.2byte	0x16a
 5735 19e1 00000000 		.4byte	.LFB79
 5736 19e5 48000000 		.4byte	.LFE79-.LFB79
 5737 19e9 01       		.uleb128 0x1
 5738 19ea 9C       		.byte	0x9c
 5739 19eb BC1A0000 		.4byte	0x1abc
 5740 19ef 30       		.uleb128 0x30
 5741 19f0 58030000 		.4byte	.LASF229
 5742 19f4 01       		.byte	0x1
 5743 19f5 6A01     		.2byte	0x16a
 5744 19f7 05010000 		.4byte	0x105
 5745 19fb FF0C0000 		.4byte	.LLST76
 5746 19ff 30       		.uleb128 0x30
 5747 1a00 DD080000 		.4byte	.LASF209
 5748 1a04 01       		.byte	0x1
 5749 1a05 6A01     		.2byte	0x16a
 5750 1a07 05010000 		.4byte	0x105
 5751 1a0b 2B0D0000 		.4byte	.LLST77
 5752 1a0f 30       		.uleb128 0x30
 5753 1a10 61090000 		.4byte	.LASF284
 5754 1a14 01       		.byte	0x1
ARM GAS  C:\Users\chemi\AppData\Local\Temp\ccbZzKkH.s 			page 124


 5755 1a15 6A01     		.2byte	0x16a
 5756 1a17 FA000000 		.4byte	0xfa
 5757 1a1b 570D0000 		.4byte	.LLST78
 5758 1a1f 30       		.uleb128 0x30
 5759 1a20 32110000 		.4byte	.LASF287
 5760 1a24 01       		.byte	0x1
 5761 1a25 6A01     		.2byte	0x16a
 5762 1a27 FA000000 		.4byte	0xfa
 5763 1a2b 830D0000 		.4byte	.LLST79
 5764 1a2f 30       		.uleb128 0x30
 5765 1a30 F70B0000 		.4byte	.LASF213
 5766 1a34 01       		.byte	0x1
 5767 1a35 6A01     		.2byte	0x16a
 5768 1a37 FA000000 		.4byte	0xfa
 5769 1a3b AF0D0000 		.4byte	.LLST80
 5770 1a3f 30       		.uleb128 0x30
 5771 1a40 B80D0000 		.4byte	.LASF211
 5772 1a44 01       		.byte	0x1
 5773 1a45 6A01     		.2byte	0x16a
 5774 1a47 FA000000 		.4byte	0xfa
 5775 1a4b CF0D0000 		.4byte	.LLST81
 5776 1a4f 27       		.uleb128 0x27
 5777 1a50 26000000 		.4byte	.LVL214
 5778 1a54 7F0F0000 		.4byte	0xf7f
 5779 1a58 851A0000 		.4byte	0x1a85
 5780 1a5c 28       		.uleb128 0x28
 5781 1a5d 01       		.uleb128 0x1
 5782 1a5e 50       		.byte	0x50
 5783 1a5f 03       		.uleb128 0x3
 5784 1a60 F3       		.byte	0xf3
 5785 1a61 01       		.uleb128 0x1
 5786 1a62 52       		.byte	0x52
 5787 1a63 28       		.uleb128 0x28
 5788 1a64 01       		.uleb128 0x1
 5789 1a65 51       		.byte	0x51
 5790 1a66 02       		.uleb128 0x2
 5791 1a67 74       		.byte	0x74
 5792 1a68 00       		.sleb128 0
 5793 1a69 28       		.uleb128 0x28
 5794 1a6a 01       		.uleb128 0x1
 5795 1a6b 52       		.byte	0x52
 5796 1a6c 17       		.uleb128 0x17
 5797 1a6d 31       		.byte	0x31
 5798 1a6e 30       		.byte	0x30
 5799 1a6f F3       		.byte	0xf3
 5800 1a70 01       		.uleb128 0x1
 5801 1a71 52       		.byte	0x52
 5802 1a72 75       		.byte	0x75
 5803 1a73 00       		.sleb128 0
 5804 1a74 30       		.byte	0x30
 5805 1a75 2C       		.byte	0x2c
 5806 1a76 28       		.byte	0x28
 5807 1a77 0100     		.2byte	0x1
 5808 1a79 16       		.byte	0x16
 5809 1a7a 13       		.byte	0x13
 5810 1a7b 75       		.byte	0x75
 5811 1a7c 00       		.sleb128 0
ARM GAS  C:\Users\chemi\AppData\Local\Temp\ccbZzKkH.s 			page 125


 5812 1a7d 30       		.byte	0x30
 5813 1a7e 2B       		.byte	0x2b
 5814 1a7f 28       		.byte	0x28
 5815 1a80 0100     		.2byte	0x1
 5816 1a82 16       		.byte	0x16
 5817 1a83 13       		.byte	0x13
 5818 1a84 00       		.byte	0
 5819 1a85 3E       		.uleb128 0x3e
 5820 1a86 3C000000 		.4byte	.LVL215
 5821 1a8a FB170000 		.4byte	0x17fb
 5822 1a8e 28       		.uleb128 0x28
 5823 1a8f 01       		.uleb128 0x1
 5824 1a90 50       		.byte	0x50
 5825 1a91 02       		.uleb128 0x2
 5826 1a92 76       		.byte	0x76
 5827 1a93 00       		.sleb128 0
 5828 1a94 28       		.uleb128 0x28
 5829 1a95 01       		.uleb128 0x1
 5830 1a96 51       		.byte	0x51
 5831 1a97 02       		.uleb128 0x2
 5832 1a98 77       		.byte	0x77
 5833 1a99 00       		.sleb128 0
 5834 1a9a 28       		.uleb128 0x28
 5835 1a9b 01       		.uleb128 0x1
 5836 1a9c 53       		.byte	0x53
 5837 1a9d 02       		.uleb128 0x2
 5838 1a9e 78       		.byte	0x78
 5839 1a9f 00       		.sleb128 0
 5840 1aa0 28       		.uleb128 0x28
 5841 1aa1 02       		.uleb128 0x2
 5842 1aa2 7D       		.byte	0x7d
 5843 1aa3 00       		.sleb128 0
 5844 1aa4 02       		.uleb128 0x2
 5845 1aa5 74       		.byte	0x74
 5846 1aa6 00       		.sleb128 0
 5847 1aa7 28       		.uleb128 0x28
 5848 1aa8 02       		.uleb128 0x2
 5849 1aa9 7D       		.byte	0x7d
 5850 1aaa 04       		.sleb128 4
 5851 1aab 02       		.uleb128 0x2
 5852 1aac 75       		.byte	0x75
 5853 1aad 00       		.sleb128 0
 5854 1aae 28       		.uleb128 0x28
 5855 1aaf 02       		.uleb128 0x2
 5856 1ab0 7D       		.byte	0x7d
 5857 1ab1 08       		.sleb128 8
 5858 1ab2 01       		.uleb128 0x1
 5859 1ab3 30       		.byte	0x30
 5860 1ab4 28       		.uleb128 0x28
 5861 1ab5 02       		.uleb128 0x2
 5862 1ab6 7D       		.byte	0x7d
 5863 1ab7 0C       		.sleb128 12
 5864 1ab8 01       		.uleb128 0x1
 5865 1ab9 30       		.byte	0x30
 5866 1aba 00       		.byte	0
 5867 1abb 00       		.byte	0
 5868 1abc 40       		.uleb128 0x40
ARM GAS  C:\Users\chemi\AppData\Local\Temp\ccbZzKkH.s 			page 126


 5869 1abd 29130000 		.4byte	.LASF325
 5870 1ac1 01       		.byte	0x1
 5871 1ac2 7401     		.2byte	0x174
 5872 1ac4 00000000 		.4byte	.LFB81
 5873 1ac8 2C000000 		.4byte	.LFE81-.LFB81
 5874 1acc 01       		.uleb128 0x1
 5875 1acd 9C       		.byte	0x9c
 5876 1ace 741B0000 		.4byte	0x1b74
 5877 1ad2 30       		.uleb128 0x30
 5878 1ad3 DD080000 		.4byte	.LASF209
 5879 1ad7 01       		.byte	0x1
 5880 1ad8 7401     		.2byte	0x174
 5881 1ada 05010000 		.4byte	0x105
 5882 1ade EF0D0000 		.4byte	.LLST82
 5883 1ae2 30       		.uleb128 0x30
 5884 1ae3 61090000 		.4byte	.LASF284
 5885 1ae7 01       		.byte	0x1
 5886 1ae8 7401     		.2byte	0x174
 5887 1aea FA000000 		.4byte	0xfa
 5888 1aee 1B0E0000 		.4byte	.LLST83
 5889 1af2 30       		.uleb128 0x30
 5890 1af3 32110000 		.4byte	.LASF287
 5891 1af7 01       		.byte	0x1
 5892 1af8 7401     		.2byte	0x174
 5893 1afa FA000000 		.4byte	0xfa
 5894 1afe 470E0000 		.4byte	.LLST84
 5895 1b02 30       		.uleb128 0x30
 5896 1b03 F70B0000 		.4byte	.LASF213
 5897 1b07 01       		.byte	0x1
 5898 1b08 7401     		.2byte	0x174
 5899 1b0a FA000000 		.4byte	0xfa
 5900 1b0e 730E0000 		.4byte	.LLST85
 5901 1b12 30       		.uleb128 0x30
 5902 1b13 2A020000 		.4byte	.LASF319
 5903 1b17 01       		.byte	0x1
 5904 1b18 7401     		.2byte	0x174
 5905 1b1a FA000000 		.4byte	0xfa
 5906 1b1e A00E0000 		.4byte	.LLST86
 5907 1b22 30       		.uleb128 0x30
 5908 1b23 E40F0000 		.4byte	.LASF320
 5909 1b27 01       		.byte	0x1
 5910 1b28 7401     		.2byte	0x174
 5911 1b2a FA000000 		.4byte	0xfa
 5912 1b2e C00E0000 		.4byte	.LLST87
 5913 1b32 3E       		.uleb128 0x3e
 5914 1b33 24000000 		.4byte	.LVL222
 5915 1b37 FB170000 		.4byte	0x17fb
 5916 1b3b 28       		.uleb128 0x28
 5917 1b3c 01       		.uleb128 0x1
 5918 1b3d 50       		.byte	0x50
 5919 1b3e 01       		.uleb128 0x1
 5920 1b3f 30       		.byte	0x30
 5921 1b40 28       		.uleb128 0x28
 5922 1b41 01       		.uleb128 0x1
 5923 1b42 51       		.byte	0x51
 5924 1b43 02       		.uleb128 0x2
 5925 1b44 74       		.byte	0x74
ARM GAS  C:\Users\chemi\AppData\Local\Temp\ccbZzKkH.s 			page 127


 5926 1b45 00       		.sleb128 0
 5927 1b46 28       		.uleb128 0x28
 5928 1b47 01       		.uleb128 0x1
 5929 1b48 52       		.byte	0x52
 5930 1b49 03       		.uleb128 0x3
 5931 1b4a F3       		.byte	0xf3
 5932 1b4b 01       		.uleb128 0x1
 5933 1b4c 51       		.byte	0x51
 5934 1b4d 28       		.uleb128 0x28
 5935 1b4e 01       		.uleb128 0x1
 5936 1b4f 53       		.byte	0x53
 5937 1b50 03       		.uleb128 0x3
 5938 1b51 F3       		.byte	0xf3
 5939 1b52 01       		.uleb128 0x1
 5940 1b53 52       		.byte	0x52
 5941 1b54 28       		.uleb128 0x28
 5942 1b55 02       		.uleb128 0x2
 5943 1b56 7D       		.byte	0x7d
 5944 1b57 00       		.sleb128 0
 5945 1b58 03       		.uleb128 0x3
 5946 1b59 F3       		.byte	0xf3
 5947 1b5a 01       		.uleb128 0x1
 5948 1b5b 53       		.byte	0x53
 5949 1b5c 28       		.uleb128 0x28
 5950 1b5d 02       		.uleb128 0x2
 5951 1b5e 7D       		.byte	0x7d
 5952 1b5f 04       		.sleb128 4
 5953 1b60 01       		.uleb128 0x1
 5954 1b61 30       		.byte	0x30
 5955 1b62 28       		.uleb128 0x28
 5956 1b63 02       		.uleb128 0x2
 5957 1b64 7D       		.byte	0x7d
 5958 1b65 08       		.sleb128 8
 5959 1b66 03       		.uleb128 0x3
 5960 1b67 91       		.byte	0x91
 5961 1b68 00       		.sleb128 0
 5962 1b69 06       		.byte	0x6
 5963 1b6a 28       		.uleb128 0x28
 5964 1b6b 02       		.uleb128 0x2
 5965 1b6c 7D       		.byte	0x7d
 5966 1b6d 0C       		.sleb128 12
 5967 1b6e 03       		.uleb128 0x3
 5968 1b6f 91       		.byte	0x91
 5969 1b70 04       		.sleb128 4
 5970 1b71 06       		.byte	0x6
 5971 1b72 00       		.byte	0
 5972 1b73 00       		.byte	0
 5973 1b74 42       		.uleb128 0x42
 5974 1b75 2C100000 		.4byte	.LASF326
 5975 1b79 01       		.byte	0x1
 5976 1b7a FA01     		.2byte	0x1fa
 5977 1b7c 00000000 		.4byte	.LFB86
 5978 1b80 5C000000 		.4byte	.LFE86-.LFB86
 5979 1b84 01       		.uleb128 0x1
 5980 1b85 9C       		.byte	0x9c
 5981 1b86 DF1B0000 		.4byte	0x1bdf
 5982 1b8a 34       		.uleb128 0x34
ARM GAS  C:\Users\chemi\AppData\Local\Temp\ccbZzKkH.s 			page 128


 5983 1b8b 0A000000 		.4byte	.LBB66
 5984 1b8f 1A000000 		.4byte	.LBE66-.LBB66
 5985 1b93 A81B0000 		.4byte	0x1ba8
 5986 1b97 31       		.uleb128 0x31
 5987 1b98 6D040000 		.4byte	.LASF298
 5988 1b9c 01       		.byte	0x1
 5989 1b9d 0002     		.2byte	0x200
 5990 1b9f 05010000 		.4byte	0x105
 5991 1ba3 E00E0000 		.4byte	.LLST88
 5992 1ba7 00       		.byte	0
 5993 1ba8 25       		.uleb128 0x25
 5994 1ba9 28000000 		.4byte	.LVL226
 5995 1bad 701E0000 		.4byte	0x1e70
 5996 1bb1 25       		.uleb128 0x25
 5997 1bb2 30000000 		.4byte	.LVL227
 5998 1bb6 7B1E0000 		.4byte	0x1e7b
 5999 1bba 25       		.uleb128 0x25
 6000 1bbb 34000000 		.4byte	.LVL228
 6001 1bbf 861E0000 		.4byte	0x1e86
 6002 1bc3 25       		.uleb128 0x25
 6003 1bc4 38000000 		.4byte	.LVL229
 6004 1bc8 861E0000 		.4byte	0x1e86
 6005 1bcc 25       		.uleb128 0x25
 6006 1bcd 42000000 		.4byte	.LVL230
 6007 1bd1 4C1F0000 		.4byte	0x1f4c
 6008 1bd5 25       		.uleb128 0x25
 6009 1bd6 4C000000 		.4byte	.LVL231
 6010 1bda A71E0000 		.4byte	0x1ea7
 6011 1bde 00       		.byte	0
 6012 1bdf 40       		.uleb128 0x40
 6013 1be0 88090000 		.4byte	.LASF327
 6014 1be4 01       		.byte	0x1
 6015 1be5 C601     		.2byte	0x1c6
 6016 1be7 00000000 		.4byte	.LFB83
 6017 1beb 14000000 		.4byte	.LFE83-.LFB83
 6018 1bef 01       		.uleb128 0x1
 6019 1bf0 9C       		.byte	0x9c
 6020 1bf1 0F1C0000 		.4byte	0x1c0f
 6021 1bf5 30       		.uleb128 0x30
 6022 1bf6 77040000 		.4byte	.LASF328
 6023 1bfa 01       		.byte	0x1
 6024 1bfb C601     		.2byte	0x1c6
 6025 1bfd D9000000 		.4byte	0xd9
 6026 1c01 F30E0000 		.4byte	.LLST89
 6027 1c05 25       		.uleb128 0x25
 6028 1c06 08000000 		.4byte	.LVL233
 6029 1c0a 741B0000 		.4byte	0x1b74
 6030 1c0e 00       		.byte	0
 6031 1c0f 29       		.uleb128 0x29
 6032 1c10 C10F0000 		.4byte	0xfc1
 6033 1c14 00000000 		.4byte	.LFB85
 6034 1c18 10000000 		.4byte	.LFE85-.LFB85
 6035 1c1c 01       		.uleb128 0x1
 6036 1c1d 9C       		.byte	0x9c
 6037 1c1e 351C0000 		.4byte	0x1c35
 6038 1c22 2A       		.uleb128 0x2a
 6039 1c23 CE0F0000 		.4byte	0xfce
ARM GAS  C:\Users\chemi\AppData\Local\Temp\ccbZzKkH.s 			page 129


 6040 1c27 140F0000 		.4byte	.LLST90
 6041 1c2b 26       		.uleb128 0x26
 6042 1c2c 0A000000 		.4byte	.LVL235
 6043 1c30 741B0000 		.4byte	0x1b74
 6044 1c34 00       		.byte	0
 6045 1c35 40       		.uleb128 0x40
 6046 1c36 17010000 		.4byte	.LASF329
 6047 1c3a 01       		.byte	0x1
 6048 1c3b E301     		.2byte	0x1e3
 6049 1c3d 00000000 		.4byte	.LFB84
 6050 1c41 50000000 		.4byte	.LFE84-.LFB84
 6051 1c45 01       		.uleb128 0x1
 6052 1c46 9C       		.byte	0x9c
 6053 1c47 B91C0000 		.4byte	0x1cb9
 6054 1c4b 30       		.uleb128 0x30
 6055 1c4c 9D0C0000 		.4byte	.LASF292
 6056 1c50 01       		.byte	0x1
 6057 1c51 E301     		.2byte	0x1e3
 6058 1c53 05010000 		.4byte	0x105
 6059 1c57 400F0000 		.4byte	.LLST91
 6060 1c5b 34       		.uleb128 0x34
 6061 1c5c 10000000 		.4byte	.LBB67
 6062 1c60 26000000 		.4byte	.LBE67-.LBB67
 6063 1c64 771C0000 		.4byte	0x1c77
 6064 1c68 43       		.uleb128 0x43
 6065 1c69 6900     		.ascii	"i\000"
 6066 1c6b 01       		.byte	0x1
 6067 1c6c EA01     		.2byte	0x1ea
 6068 1c6e 05010000 		.4byte	0x105
 6069 1c72 6C0F0000 		.4byte	.LLST92
 6070 1c76 00       		.byte	0
 6071 1c77 35       		.uleb128 0x35
 6072 1c78 C10F0000 		.4byte	0xfc1
 6073 1c7c 36000000 		.4byte	.LBB68
 6074 1c80 06000000 		.4byte	.LBE68-.LBB68
 6075 1c84 01       		.byte	0x1
 6076 1c85 EE01     		.2byte	0x1ee
 6077 1c87 951C0000 		.4byte	0x1c95
 6078 1c8b 2A       		.uleb128 0x2a
 6079 1c8c CE0F0000 		.4byte	0xfce
 6080 1c90 7F0F0000 		.4byte	.LLST93
 6081 1c94 00       		.byte	0
 6082 1c95 36       		.uleb128 0x36
 6083 1c96 C10F0000 		.4byte	0xfc1
 6084 1c9a 3E000000 		.4byte	.LBB70
 6085 1c9e 06000000 		.4byte	.LBE70-.LBB70
 6086 1ca2 01       		.byte	0x1
 6087 1ca3 F101     		.2byte	0x1f1
 6088 1ca5 2A       		.uleb128 0x2a
 6089 1ca6 CE0F0000 		.4byte	0xfce
 6090 1caa 930F0000 		.4byte	.LLST94
 6091 1cae 26       		.uleb128 0x26
 6092 1caf 44000000 		.4byte	.LVL241
 6093 1cb3 741B0000 		.4byte	0x1b74
 6094 1cb7 00       		.byte	0
 6095 1cb8 00       		.byte	0
 6096 1cb9 44       		.uleb128 0x44
ARM GAS  C:\Users\chemi\AppData\Local\Temp\ccbZzKkH.s 			page 130


 6097 1cba 4F0F0000 		.4byte	.LASF330
 6098 1cbe 01       		.byte	0x1
 6099 1cbf 2F       		.byte	0x2f
 6100 1cc0 FA000000 		.4byte	0xfa
 6101 1cc4 05       		.uleb128 0x5
 6102 1cc5 03       		.byte	0x3
 6103 1cc6 14000000 		.4byte	SigGen_minOt
 6104 1cca 44       		.uleb128 0x44
 6105 1ccb 3F020000 		.4byte	.LASF331
 6106 1ccf 01       		.byte	0x1
 6107 1cd0 31       		.byte	0x31
 6108 1cd1 2C140000 		.4byte	0x142c
 6109 1cd5 05       		.uleb128 0x5
 6110 1cd6 03       		.byte	0x3
 6111 1cd7 00000000 		.4byte	taskData
 6112 1cdb 44       		.uleb128 0x44
 6113 1cdc 87050000 		.4byte	.LASF332
 6114 1ce0 01       		.byte	0x1
 6115 1ce1 37       		.byte	0x37
 6116 1ce2 05010000 		.4byte	0x105
 6117 1ce6 05       		.uleb128 0x5
 6118 1ce7 03       		.byte	0x3
 6119 1ce8 00000000 		.4byte	masterVolume
 6120 1cec 44       		.uleb128 0x44
 6121 1ced 9A120000 		.4byte	.LASF333
 6122 1cf1 01       		.byte	0x1
 6123 1cf2 38       		.byte	0x38
 6124 1cf3 D9000000 		.4byte	0xd9
 6125 1cf7 05       		.uleb128 0x5
 6126 1cf8 03       		.byte	0x3
 6127 1cf9 10000000 		.4byte	synthMode
 6128 1cfd 44       		.uleb128 0x44
 6129 1cfe D4040000 		.4byte	.LASF334
 6130 1d02 01       		.byte	0x1
 6131 1d03 3B       		.byte	0x3b
 6132 1d04 4C0C0000 		.4byte	0xc4c
 6133 1d08 05       		.uleb128 0x5
 6134 1d09 03       		.byte	0x3
 6135 1d0a 04000000 		.4byte	readPulse
 6136 1d0e 44       		.uleb128 0x44
 6137 1d0f 710D0000 		.4byte	.LASF335
 6138 1d13 01       		.byte	0x1
 6139 1d14 3F       		.byte	0x3f
 6140 1d15 05010000 		.4byte	0x105
 6141 1d19 05       		.uleb128 0x5
 6142 1d1a 03       		.byte	0x3
 6143 1d1b 04000000 		.4byte	isEnabled
 6144 1d1f 44       		.uleb128 0x44
 6145 1d20 0A020000 		.4byte	.LASF336
 6146 1d24 01       		.byte	0x1
 6147 1d25 41       		.byte	0x41
 6148 1d26 47010000 		.4byte	0x147
 6149 1d2a 05       		.uleb128 0x5
 6150 1d2b 03       		.byte	0x3
 6151 1d2c 24000000 		.4byte	voicesToEradicate
 6152 1d30 45       		.uleb128 0x45
 6153 1d31 3D0B0000 		.4byte	.LASF337
ARM GAS  C:\Users\chemi\AppData\Local\Temp\ccbZzKkH.s 			page 131


 6154 1d35 12       		.byte	0x12
 6155 1d36 1207     		.2byte	0x712
 6156 1d38 BE0A0000 		.4byte	0xabe
 6157 1d3c 46       		.uleb128 0x46
 6158 1d3d 93080000 		.4byte	.LASF338
 6159 1d41 0B       		.byte	0xb
 6160 1d42 A1       		.byte	0xa1
 6161 1d43 08080000 		.4byte	0x808
 6162 1d47 46       		.uleb128 0x46
 6163 1d48 39090000 		.4byte	.LASF339
 6164 1d4c 0B       		.byte	0xb
 6165 1d4d A2       		.byte	0xa2
 6166 1d4e 03090000 		.4byte	0x903
 6167 1d52 47       		.uleb128 0x47
 6168 1d53 7B0D0000 		.4byte	.LASF340
 6169 1d57 0C       		.byte	0xc
 6170 1d58 2A       		.byte	0x2a
 6171 1d59 631D0000 		.4byte	0x1d63
 6172 1d5d 05       		.uleb128 0x5
 6173 1d5e 03       		.byte	0x3
 6174 1d5f 00000000 		.4byte	ramp
 6175 1d63 09       		.uleb128 0x9
 6176 1d64 59090000 		.4byte	0x959
 6177 1d68 47       		.uleb128 0x47
 6178 1d69 480E0000 		.4byte	.LASF303
 6179 1d6d 0D       		.byte	0xd
 6180 1d6e 32       		.byte	0x32
 6181 1d6f 791D0000 		.4byte	0x1d79
 6182 1d73 05       		.uleb128 0x5
 6183 1d74 03       		.byte	0x3
 6184 1d75 00000000 		.4byte	params
 6185 1d79 09       		.uleb128 0x9
 6186 1d7a 150A0000 		.4byte	0xa15
 6187 1d7e 0A       		.uleb128 0xa
 6188 1d7f D9000000 		.4byte	0xd9
 6189 1d83 8E1D0000 		.4byte	0x1d8e
 6190 1d87 0B       		.uleb128 0xb
 6191 1d88 AD000000 		.4byte	0xad
 6192 1d8c 02       		.byte	0x2
 6193 1d8d 00       		.byte	0
 6194 1d8e 47       		.uleb128 0x47
 6195 1d8f EF130000 		.4byte	.LASF341
 6196 1d93 0D       		.byte	0xd
 6197 1d94 37       		.byte	0x37
 6198 1d95 7E1D0000 		.4byte	0x1d7e
 6199 1d99 05       		.uleb128 0x5
 6200 1d9a 03       		.byte	0x3
 6201 1d9b 00000000 		.4byte	ct1_dac_val
 6202 1d9f 47       		.uleb128 0x47
 6203 1da0 540B0000 		.4byte	.LASF342
 6204 1da4 01       		.byte	0x1
 6205 1da5 3D       		.byte	0x3d
 6206 1da6 4C010000 		.4byte	0x14c
 6207 1daa 05       		.uleb128 0x5
 6208 1dab 03       		.byte	0x3
 6209 1dac 00000000 		.4byte	VoiceFlags
 6210 1db0 47       		.uleb128 0x47
ARM GAS  C:\Users\chemi\AppData\Local\Temp\ccbZzKkH.s 			page 132


 6211 1db1 24040000 		.4byte	.LASF343
 6212 1db5 10       		.byte	0x10
 6213 1db6 59       		.byte	0x59
 6214 1db7 C90D0000 		.4byte	0xdc9
 6215 1dbb 05       		.uleb128 0x5
 6216 1dbc 03       		.byte	0x3
 6217 1dbd 00000000 		.4byte	interrupter
 6218 1dc1 48       		.uleb128 0x48
 6219 1dc2 747400   		.ascii	"tt\000"
 6220 1dc5 11       		.byte	0x11
 6221 1dc6 5B       		.byte	0x5b
 6222 1dc7 740F0000 		.4byte	0xf74
 6223 1dcb 47       		.uleb128 0x47
 6224 1dcc B0030000 		.4byte	.LASF344
 6225 1dd0 01       		.byte	0x1
 6226 1dd1 5D       		.byte	0x5d
 6227 1dd2 05010000 		.4byte	0x105
 6228 1dd6 05       		.uleb128 0x5
 6229 1dd7 03       		.byte	0x3
 6230 1dd8 00000000 		.4byte	IsOkToPrint
 6231 1ddc 47       		.uleb128 0x47
 6232 1ddd C5090000 		.4byte	.LASF345
 6233 1de1 01       		.byte	0x1
 6234 1de2 F2       		.byte	0xf2
 6235 1de3 D9000000 		.4byte	0xd9
 6236 1de7 05       		.uleb128 0x5
 6237 1de8 03       		.byte	0x3
 6238 1de9 00000000 		.4byte	divder
 6239 1ded 49       		.uleb128 0x49
 6240 1dee 22130000 		.4byte	.LASF346
 6241 1df2 01       		.byte	0x1
 6242 1df3 1302     		.2byte	0x213
 6243 1df5 47010000 		.4byte	0x147
 6244 1df9 05       		.uleb128 0x5
 6245 1dfa 03       		.byte	0x3
 6246 1dfb 00000000 		.4byte	adding
 6247 1dff 49       		.uleb128 0x49
 6248 1e00 EA060000 		.4byte	.LASF347
 6249 1e04 01       		.byte	0x1
 6250 1e05 1502     		.2byte	0x215
 6251 1e07 4C0C0000 		.4byte	0xc4c
 6252 1e0b 05       		.uleb128 0x5
 6253 1e0c 03       		.byte	0x3
 6254 1e0d 00000000 		.4byte	currPulse
 6255 1e11 49       		.uleb128 0x49
 6256 1e12 A7110000 		.4byte	.LASF348
 6257 1e16 01       		.byte	0x1
 6258 1e17 1702     		.2byte	0x217
 6259 1e19 47010000 		.4byte	0x147
 6260 1e1d 05       		.uleb128 0x5
 6261 1e1e 03       		.byte	0x3
 6262 1e1f 00000000 		.4byte	compDebug
 6263 1e23 4A       		.uleb128 0x4a
 6264 1e24 70070000 		.4byte	.LASF349
 6265 1e28 70070000 		.4byte	.LASF349
 6266 1e2c 13       		.byte	0x13
 6267 1e2d 21       		.byte	0x21
ARM GAS  C:\Users\chemi\AppData\Local\Temp\ccbZzKkH.s 			page 133


 6268 1e2e 4A       		.uleb128 0x4a
 6269 1e2f A5030000 		.4byte	.LASF350
 6270 1e33 A5030000 		.4byte	.LASF350
 6271 1e37 0C       		.byte	0xc
 6272 1e38 31       		.byte	0x31
 6273 1e39 4A       		.uleb128 0x4a
 6274 1e3a 8D010000 		.4byte	.LASF351
 6275 1e3e 8D010000 		.4byte	.LASF351
 6276 1e42 14       		.byte	0x14
 6277 1e43 52       		.byte	0x52
 6278 1e44 4A       		.uleb128 0x4a
 6279 1e45 F70A0000 		.4byte	.LASF352
 6280 1e49 F70A0000 		.4byte	.LASF352
 6281 1e4d 15       		.byte	0x15
 6282 1e4e 28       		.byte	0x28
 6283 1e4f 4A       		.uleb128 0x4a
 6284 1e50 7F040000 		.4byte	.LASF353
 6285 1e54 7F040000 		.4byte	.LASF353
 6286 1e58 10       		.byte	0x10
 6287 1e59 64       		.byte	0x64
 6288 1e5a 4A       		.uleb128 0x4a
 6289 1e5b CB010000 		.4byte	.LASF354
 6290 1e5f CB010000 		.4byte	.LASF354
 6291 1e63 0E       		.byte	0xe
 6292 1e64 1A       		.byte	0x1a
 6293 1e65 4A       		.uleb128 0x4a
 6294 1e66 CC050000 		.4byte	.LASF355
 6295 1e6a CC050000 		.4byte	.LASF355
 6296 1e6e 14       		.byte	0x14
 6297 1e6f 63       		.byte	0x63
 6298 1e70 4A       		.uleb128 0x4a
 6299 1e71 AF120000 		.4byte	.LASF356
 6300 1e75 AF120000 		.4byte	.LASF356
 6301 1e79 14       		.byte	0x14
 6302 1e7a 55       		.byte	0x55
 6303 1e7b 4A       		.uleb128 0x4a
 6304 1e7c 4D120000 		.4byte	.LASF357
 6305 1e80 4D120000 		.4byte	.LASF357
 6306 1e84 14       		.byte	0x14
 6307 1e85 56       		.byte	0x56
 6308 1e86 4A       		.uleb128 0x4a
 6309 1e87 A70E0000 		.4byte	.LASF358
 6310 1e8b A70E0000 		.4byte	.LASF358
 6311 1e8f 15       		.byte	0x15
 6312 1e90 25       		.byte	0x25
 6313 1e91 4A       		.uleb128 0x4a
 6314 1e92 BC030000 		.4byte	.LASF359
 6315 1e96 BC030000 		.4byte	.LASF359
 6316 1e9a 16       		.byte	0x16
 6317 1e9b 88       		.byte	0x88
 6318 1e9c 4A       		.uleb128 0x4a
 6319 1e9d 4C060000 		.4byte	.LASF360
 6320 1ea1 4C060000 		.4byte	.LASF360
 6321 1ea5 0E       		.byte	0xe
 6322 1ea6 1C       		.byte	0x1c
 6323 1ea7 4A       		.uleb128 0x4a
 6324 1ea8 E3070000 		.4byte	.LASF361
ARM GAS  C:\Users\chemi\AppData\Local\Temp\ccbZzKkH.s 			page 134


 6325 1eac E3070000 		.4byte	.LASF361
 6326 1eb0 15       		.byte	0x15
 6327 1eb1 23       		.byte	0x23
 6328 1eb2 4B       		.uleb128 0x4b
 6329 1eb3 AD0D0000 		.4byte	.LASF362
 6330 1eb7 AD0D0000 		.4byte	.LASF362
 6331 1ebb 06       		.byte	0x6
 6332 1ebc 0C03     		.2byte	0x30c
 6333 1ebe 4A       		.uleb128 0x4a
 6334 1ebf 5C0F0000 		.4byte	.LASF363
 6335 1ec3 5C0F0000 		.4byte	.LASF363
 6336 1ec7 0E       		.byte	0xe
 6337 1ec8 26       		.byte	0x26
 6338 1ec9 4A       		.uleb128 0x4a
 6339 1eca 19140000 		.4byte	.LASF364
 6340 1ece 19140000 		.4byte	.LASF364
 6341 1ed2 0E       		.byte	0xe
 6342 1ed3 18       		.byte	0x18
 6343 1ed4 4A       		.uleb128 0x4a
 6344 1ed5 FA0E0000 		.4byte	.LASF365
 6345 1ed9 FA0E0000 		.4byte	.LASF365
 6346 1edd 14       		.byte	0x14
 6347 1ede 5A       		.byte	0x5a
 6348 1edf 4A       		.uleb128 0x4a
 6349 1ee0 3A040000 		.4byte	.LASF366
 6350 1ee4 3A040000 		.4byte	.LASF366
 6351 1ee8 17       		.byte	0x17
 6352 1ee9 B0       		.byte	0xb0
 6353 1eea 4C       		.uleb128 0x4c
 6354 1eeb 800F0000 		.4byte	.LASF384
 6355 1eef 800F0000 		.4byte	.LASF384
 6356 1ef3 4A       		.uleb128 0x4a
 6357 1ef4 6C090000 		.4byte	.LASF367
 6358 1ef8 6C090000 		.4byte	.LASF367
 6359 1efc 0E       		.byte	0xe
 6360 1efd 16       		.byte	0x16
 6361 1efe 4A       		.uleb128 0x4a
 6362 1eff 5F0A0000 		.4byte	.LASF368
 6363 1f03 5F0A0000 		.4byte	.LASF368
 6364 1f07 14       		.byte	0x14
 6365 1f08 70       		.byte	0x70
 6366 1f09 4A       		.uleb128 0x4a
 6367 1f0a 270C0000 		.4byte	.LASF369
 6368 1f0e 270C0000 		.4byte	.LASF369
 6369 1f12 15       		.byte	0x15
 6370 1f13 18       		.byte	0x18
 6371 1f14 4A       		.uleb128 0x4a
 6372 1f15 B5060000 		.4byte	.LASF370
 6373 1f19 B5060000 		.4byte	.LASF370
 6374 1f1d 18       		.byte	0x18
 6375 1f1e 18       		.byte	0x18
 6376 1f1f 4B       		.uleb128 0x4b
 6377 1f20 D80C0000 		.4byte	.LASF371
 6378 1f24 D80C0000 		.4byte	.LASF371
 6379 1f28 06       		.byte	0x6
 6380 1f29 5501     		.2byte	0x155
 6381 1f2b 4A       		.uleb128 0x4a
ARM GAS  C:\Users\chemi\AppData\Local\Temp\ccbZzKkH.s 			page 135


 6382 1f2c 1F100000 		.4byte	.LASF372
 6383 1f30 1F100000 		.4byte	.LASF372
 6384 1f34 19       		.byte	0x19
 6385 1f35 09       		.byte	0x9
 6386 1f36 4A       		.uleb128 0x4a
 6387 1f37 C70D0000 		.4byte	.LASF373
 6388 1f3b C70D0000 		.4byte	.LASF373
 6389 1f3f 19       		.byte	0x19
 6390 1f40 0B       		.byte	0xb
 6391 1f41 4A       		.uleb128 0x4a
 6392 1f42 EA120000 		.4byte	.LASF374
 6393 1f46 EA120000 		.4byte	.LASF374
 6394 1f4a 0C       		.byte	0xc
 6395 1f4b 34       		.byte	0x34
 6396 1f4c 4A       		.uleb128 0x4a
 6397 1f4d ED050000 		.4byte	.LASF375
 6398 1f51 ED050000 		.4byte	.LASF375
 6399 1f55 0E       		.byte	0xe
 6400 1f56 23       		.byte	0x23
 6401 1f57 00       		.byte	0
 6402              		.section	.debug_abbrev,"",%progbits
 6403              	.Ldebug_abbrev0:
 6404 0000 01       		.uleb128 0x1
 6405 0001 11       		.uleb128 0x11
 6406 0002 01       		.byte	0x1
 6407 0003 25       		.uleb128 0x25
 6408 0004 0E       		.uleb128 0xe
 6409 0005 13       		.uleb128 0x13
 6410 0006 0B       		.uleb128 0xb
 6411 0007 03       		.uleb128 0x3
 6412 0008 0E       		.uleb128 0xe
 6413 0009 1B       		.uleb128 0x1b
 6414 000a 0E       		.uleb128 0xe
 6415 000b 55       		.uleb128 0x55
 6416 000c 17       		.uleb128 0x17
 6417 000d 11       		.uleb128 0x11
 6418 000e 01       		.uleb128 0x1
 6419 000f 10       		.uleb128 0x10
 6420 0010 17       		.uleb128 0x17
 6421 0011 00       		.byte	0
 6422 0012 00       		.byte	0
 6423 0013 02       		.uleb128 0x2
 6424 0014 24       		.uleb128 0x24
 6425 0015 00       		.byte	0
 6426 0016 0B       		.uleb128 0xb
 6427 0017 0B       		.uleb128 0xb
 6428 0018 3E       		.uleb128 0x3e
 6429 0019 0B       		.uleb128 0xb
 6430 001a 03       		.uleb128 0x3
 6431 001b 0E       		.uleb128 0xe
 6432 001c 00       		.byte	0
 6433 001d 00       		.byte	0
 6434 001e 03       		.uleb128 0x3
 6435 001f 24       		.uleb128 0x24
 6436 0020 00       		.byte	0
 6437 0021 0B       		.uleb128 0xb
 6438 0022 0B       		.uleb128 0xb
ARM GAS  C:\Users\chemi\AppData\Local\Temp\ccbZzKkH.s 			page 136


 6439 0023 3E       		.uleb128 0x3e
 6440 0024 0B       		.uleb128 0xb
 6441 0025 03       		.uleb128 0x3
 6442 0026 08       		.uleb128 0x8
 6443 0027 00       		.byte	0
 6444 0028 00       		.byte	0
 6445 0029 04       		.uleb128 0x4
 6446 002a 16       		.uleb128 0x16
 6447 002b 00       		.byte	0
 6448 002c 03       		.uleb128 0x3
 6449 002d 0E       		.uleb128 0xe
 6450 002e 3A       		.uleb128 0x3a
 6451 002f 0B       		.uleb128 0xb
 6452 0030 3B       		.uleb128 0x3b
 6453 0031 0B       		.uleb128 0xb
 6454 0032 49       		.uleb128 0x49
 6455 0033 13       		.uleb128 0x13
 6456 0034 00       		.byte	0
 6457 0035 00       		.byte	0
 6458 0036 05       		.uleb128 0x5
 6459 0037 0F       		.uleb128 0xf
 6460 0038 00       		.byte	0
 6461 0039 0B       		.uleb128 0xb
 6462 003a 0B       		.uleb128 0xb
 6463 003b 00       		.byte	0
 6464 003c 00       		.byte	0
 6465 003d 06       		.uleb128 0x6
 6466 003e 0F       		.uleb128 0xf
 6467 003f 00       		.byte	0
 6468 0040 0B       		.uleb128 0xb
 6469 0041 0B       		.uleb128 0xb
 6470 0042 49       		.uleb128 0x49
 6471 0043 13       		.uleb128 0x13
 6472 0044 00       		.byte	0
 6473 0045 00       		.byte	0
 6474 0046 07       		.uleb128 0x7
 6475 0047 26       		.uleb128 0x26
 6476 0048 00       		.byte	0
 6477 0049 49       		.uleb128 0x49
 6478 004a 13       		.uleb128 0x13
 6479 004b 00       		.byte	0
 6480 004c 00       		.byte	0
 6481 004d 08       		.uleb128 0x8
 6482 004e 16       		.uleb128 0x16
 6483 004f 00       		.byte	0
 6484 0050 03       		.uleb128 0x3
 6485 0051 0E       		.uleb128 0xe
 6486 0052 3A       		.uleb128 0x3a
 6487 0053 0B       		.uleb128 0xb
 6488 0054 3B       		.uleb128 0x3b
 6489 0055 05       		.uleb128 0x5
 6490 0056 49       		.uleb128 0x49
 6491 0057 13       		.uleb128 0x13
 6492 0058 00       		.byte	0
 6493 0059 00       		.byte	0
 6494 005a 09       		.uleb128 0x9
 6495 005b 35       		.uleb128 0x35
ARM GAS  C:\Users\chemi\AppData\Local\Temp\ccbZzKkH.s 			page 137


 6496 005c 00       		.byte	0
 6497 005d 49       		.uleb128 0x49
 6498 005e 13       		.uleb128 0x13
 6499 005f 00       		.byte	0
 6500 0060 00       		.byte	0
 6501 0061 0A       		.uleb128 0xa
 6502 0062 01       		.uleb128 0x1
 6503 0063 01       		.byte	0x1
 6504 0064 49       		.uleb128 0x49
 6505 0065 13       		.uleb128 0x13
 6506 0066 01       		.uleb128 0x1
 6507 0067 13       		.uleb128 0x13
 6508 0068 00       		.byte	0
 6509 0069 00       		.byte	0
 6510 006a 0B       		.uleb128 0xb
 6511 006b 21       		.uleb128 0x21
 6512 006c 00       		.byte	0
 6513 006d 49       		.uleb128 0x49
 6514 006e 13       		.uleb128 0x13
 6515 006f 2F       		.uleb128 0x2f
 6516 0070 0B       		.uleb128 0xb
 6517 0071 00       		.byte	0
 6518 0072 00       		.byte	0
 6519 0073 0C       		.uleb128 0xc
 6520 0074 13       		.uleb128 0x13
 6521 0075 00       		.byte	0
 6522 0076 03       		.uleb128 0x3
 6523 0077 0E       		.uleb128 0xe
 6524 0078 3C       		.uleb128 0x3c
 6525 0079 19       		.uleb128 0x19
 6526 007a 00       		.byte	0
 6527 007b 00       		.byte	0
 6528 007c 0D       		.uleb128 0xd
 6529 007d 13       		.uleb128 0x13
 6530 007e 01       		.byte	0x1
 6531 007f 03       		.uleb128 0x3
 6532 0080 0E       		.uleb128 0xe
 6533 0081 0B       		.uleb128 0xb
 6534 0082 0B       		.uleb128 0xb
 6535 0083 3A       		.uleb128 0x3a
 6536 0084 0B       		.uleb128 0xb
 6537 0085 3B       		.uleb128 0x3b
 6538 0086 0B       		.uleb128 0xb
 6539 0087 01       		.uleb128 0x1
 6540 0088 13       		.uleb128 0x13
 6541 0089 00       		.byte	0
 6542 008a 00       		.byte	0
 6543 008b 0E       		.uleb128 0xe
 6544 008c 0D       		.uleb128 0xd
 6545 008d 00       		.byte	0
 6546 008e 03       		.uleb128 0x3
 6547 008f 0E       		.uleb128 0xe
 6548 0090 3A       		.uleb128 0x3a
 6549 0091 0B       		.uleb128 0xb
 6550 0092 3B       		.uleb128 0x3b
 6551 0093 0B       		.uleb128 0xb
 6552 0094 49       		.uleb128 0x49
ARM GAS  C:\Users\chemi\AppData\Local\Temp\ccbZzKkH.s 			page 138


 6553 0095 13       		.uleb128 0x13
 6554 0096 38       		.uleb128 0x38
 6555 0097 0B       		.uleb128 0xb
 6556 0098 00       		.byte	0
 6557 0099 00       		.byte	0
 6558 009a 0F       		.uleb128 0xf
 6559 009b 15       		.uleb128 0x15
 6560 009c 01       		.byte	0x1
 6561 009d 27       		.uleb128 0x27
 6562 009e 19       		.uleb128 0x19
 6563 009f 49       		.uleb128 0x49
 6564 00a0 13       		.uleb128 0x13
 6565 00a1 01       		.uleb128 0x1
 6566 00a2 13       		.uleb128 0x13
 6567 00a3 00       		.byte	0
 6568 00a4 00       		.byte	0
 6569 00a5 10       		.uleb128 0x10
 6570 00a6 05       		.uleb128 0x5
 6571 00a7 00       		.byte	0
 6572 00a8 49       		.uleb128 0x49
 6573 00a9 13       		.uleb128 0x13
 6574 00aa 00       		.byte	0
 6575 00ab 00       		.byte	0
 6576 00ac 11       		.uleb128 0x11
 6577 00ad 18       		.uleb128 0x18
 6578 00ae 00       		.byte	0
 6579 00af 00       		.byte	0
 6580 00b0 00       		.byte	0
 6581 00b1 12       		.uleb128 0x12
 6582 00b2 13       		.uleb128 0x13
 6583 00b3 01       		.byte	0x1
 6584 00b4 0B       		.uleb128 0xb
 6585 00b5 0B       		.uleb128 0xb
 6586 00b6 3A       		.uleb128 0x3a
 6587 00b7 0B       		.uleb128 0xb
 6588 00b8 3B       		.uleb128 0x3b
 6589 00b9 0B       		.uleb128 0xb
 6590 00ba 01       		.uleb128 0x1
 6591 00bb 13       		.uleb128 0x13
 6592 00bc 00       		.byte	0
 6593 00bd 00       		.byte	0
 6594 00be 13       		.uleb128 0x13
 6595 00bf 0D       		.uleb128 0xd
 6596 00c0 00       		.byte	0
 6597 00c1 03       		.uleb128 0x3
 6598 00c2 08       		.uleb128 0x8
 6599 00c3 3A       		.uleb128 0x3a
 6600 00c4 0B       		.uleb128 0xb
 6601 00c5 3B       		.uleb128 0x3b
 6602 00c6 0B       		.uleb128 0xb
 6603 00c7 49       		.uleb128 0x49
 6604 00c8 13       		.uleb128 0x13
 6605 00c9 38       		.uleb128 0x38
 6606 00ca 0B       		.uleb128 0xb
 6607 00cb 00       		.byte	0
 6608 00cc 00       		.byte	0
 6609 00cd 14       		.uleb128 0x14
ARM GAS  C:\Users\chemi\AppData\Local\Temp\ccbZzKkH.s 			page 139


 6610 00ce 13       		.uleb128 0x13
 6611 00cf 01       		.byte	0x1
 6612 00d0 0B       		.uleb128 0xb
 6613 00d1 05       		.uleb128 0x5
 6614 00d2 3A       		.uleb128 0x3a
 6615 00d3 0B       		.uleb128 0xb
 6616 00d4 3B       		.uleb128 0x3b
 6617 00d5 0B       		.uleb128 0xb
 6618 00d6 01       		.uleb128 0x1
 6619 00d7 13       		.uleb128 0x13
 6620 00d8 00       		.byte	0
 6621 00d9 00       		.byte	0
 6622 00da 15       		.uleb128 0x15
 6623 00db 21       		.uleb128 0x21
 6624 00dc 00       		.byte	0
 6625 00dd 49       		.uleb128 0x49
 6626 00de 13       		.uleb128 0x13
 6627 00df 2F       		.uleb128 0x2f
 6628 00e0 05       		.uleb128 0x5
 6629 00e1 00       		.byte	0
 6630 00e2 00       		.byte	0
 6631 00e3 16       		.uleb128 0x16
 6632 00e4 04       		.uleb128 0x4
 6633 00e5 01       		.byte	0x1
 6634 00e6 03       		.uleb128 0x3
 6635 00e7 0E       		.uleb128 0xe
 6636 00e8 0B       		.uleb128 0xb
 6637 00e9 0B       		.uleb128 0xb
 6638 00ea 49       		.uleb128 0x49
 6639 00eb 13       		.uleb128 0x13
 6640 00ec 3A       		.uleb128 0x3a
 6641 00ed 0B       		.uleb128 0xb
 6642 00ee 3B       		.uleb128 0x3b
 6643 00ef 0B       		.uleb128 0xb
 6644 00f0 01       		.uleb128 0x1
 6645 00f1 13       		.uleb128 0x13
 6646 00f2 00       		.byte	0
 6647 00f3 00       		.byte	0
 6648 00f4 17       		.uleb128 0x17
 6649 00f5 28       		.uleb128 0x28
 6650 00f6 00       		.byte	0
 6651 00f7 03       		.uleb128 0x3
 6652 00f8 0E       		.uleb128 0xe
 6653 00f9 1C       		.uleb128 0x1c
 6654 00fa 0B       		.uleb128 0xb
 6655 00fb 00       		.byte	0
 6656 00fc 00       		.byte	0
 6657 00fd 18       		.uleb128 0x18
 6658 00fe 0D       		.uleb128 0xd
 6659 00ff 00       		.byte	0
 6660 0100 03       		.uleb128 0x3
 6661 0101 0E       		.uleb128 0xe
 6662 0102 3A       		.uleb128 0x3a
 6663 0103 0B       		.uleb128 0xb
 6664 0104 3B       		.uleb128 0x3b
 6665 0105 0B       		.uleb128 0xb
 6666 0106 49       		.uleb128 0x49
ARM GAS  C:\Users\chemi\AppData\Local\Temp\ccbZzKkH.s 			page 140


 6667 0107 13       		.uleb128 0x13
 6668 0108 38       		.uleb128 0x38
 6669 0109 05       		.uleb128 0x5
 6670 010a 00       		.byte	0
 6671 010b 00       		.byte	0
 6672 010c 19       		.uleb128 0x19
 6673 010d 13       		.uleb128 0x13
 6674 010e 01       		.byte	0x1
 6675 010f 03       		.uleb128 0x3
 6676 0110 0E       		.uleb128 0xe
 6677 0111 0B       		.uleb128 0xb
 6678 0112 05       		.uleb128 0x5
 6679 0113 3A       		.uleb128 0x3a
 6680 0114 0B       		.uleb128 0xb
 6681 0115 3B       		.uleb128 0x3b
 6682 0116 0B       		.uleb128 0xb
 6683 0117 01       		.uleb128 0x1
 6684 0118 13       		.uleb128 0x13
 6685 0119 00       		.byte	0
 6686 011a 00       		.byte	0
 6687 011b 1A       		.uleb128 0x1a
 6688 011c 17       		.uleb128 0x17
 6689 011d 01       		.byte	0x1
 6690 011e 03       		.uleb128 0x3
 6691 011f 0E       		.uleb128 0xe
 6692 0120 0B       		.uleb128 0xb
 6693 0121 05       		.uleb128 0x5
 6694 0122 3A       		.uleb128 0x3a
 6695 0123 0B       		.uleb128 0xb
 6696 0124 3B       		.uleb128 0x3b
 6697 0125 0B       		.uleb128 0xb
 6698 0126 01       		.uleb128 0x1
 6699 0127 13       		.uleb128 0x13
 6700 0128 00       		.byte	0
 6701 0129 00       		.byte	0
 6702 012a 1B       		.uleb128 0x1b
 6703 012b 0D       		.uleb128 0xd
 6704 012c 00       		.byte	0
 6705 012d 03       		.uleb128 0x3
 6706 012e 08       		.uleb128 0x8
 6707 012f 3A       		.uleb128 0x3a
 6708 0130 0B       		.uleb128 0xb
 6709 0131 3B       		.uleb128 0x3b
 6710 0132 0B       		.uleb128 0xb
 6711 0133 49       		.uleb128 0x49
 6712 0134 13       		.uleb128 0x13
 6713 0135 00       		.byte	0
 6714 0136 00       		.byte	0
 6715 0137 1C       		.uleb128 0x1c
 6716 0138 2E       		.uleb128 0x2e
 6717 0139 01       		.byte	0x1
 6718 013a 03       		.uleb128 0x3
 6719 013b 0E       		.uleb128 0xe
 6720 013c 3A       		.uleb128 0x3a
 6721 013d 0B       		.uleb128 0xb
 6722 013e 3B       		.uleb128 0x3b
 6723 013f 05       		.uleb128 0x5
ARM GAS  C:\Users\chemi\AppData\Local\Temp\ccbZzKkH.s 			page 141


 6724 0140 27       		.uleb128 0x27
 6725 0141 19       		.uleb128 0x19
 6726 0142 49       		.uleb128 0x49
 6727 0143 13       		.uleb128 0x13
 6728 0144 20       		.uleb128 0x20
 6729 0145 0B       		.uleb128 0xb
 6730 0146 01       		.uleb128 0x1
 6731 0147 13       		.uleb128 0x13
 6732 0148 00       		.byte	0
 6733 0149 00       		.byte	0
 6734 014a 1D       		.uleb128 0x1d
 6735 014b 05       		.uleb128 0x5
 6736 014c 00       		.byte	0
 6737 014d 03       		.uleb128 0x3
 6738 014e 0E       		.uleb128 0xe
 6739 014f 3A       		.uleb128 0x3a
 6740 0150 0B       		.uleb128 0xb
 6741 0151 3B       		.uleb128 0x3b
 6742 0152 05       		.uleb128 0x5
 6743 0153 49       		.uleb128 0x49
 6744 0154 13       		.uleb128 0x13
 6745 0155 00       		.byte	0
 6746 0156 00       		.byte	0
 6747 0157 1E       		.uleb128 0x1e
 6748 0158 34       		.uleb128 0x34
 6749 0159 00       		.byte	0
 6750 015a 03       		.uleb128 0x3
 6751 015b 0E       		.uleb128 0xe
 6752 015c 3A       		.uleb128 0x3a
 6753 015d 0B       		.uleb128 0xb
 6754 015e 3B       		.uleb128 0x3b
 6755 015f 05       		.uleb128 0x5
 6756 0160 49       		.uleb128 0x49
 6757 0161 13       		.uleb128 0x13
 6758 0162 00       		.byte	0
 6759 0163 00       		.byte	0
 6760 0164 1F       		.uleb128 0x1f
 6761 0165 2E       		.uleb128 0x2e
 6762 0166 01       		.byte	0x1
 6763 0167 3F       		.uleb128 0x3f
 6764 0168 19       		.uleb128 0x19
 6765 0169 03       		.uleb128 0x3
 6766 016a 0E       		.uleb128 0xe
 6767 016b 3A       		.uleb128 0x3a
 6768 016c 0B       		.uleb128 0xb
 6769 016d 3B       		.uleb128 0x3b
 6770 016e 05       		.uleb128 0x5
 6771 016f 27       		.uleb128 0x27
 6772 0170 19       		.uleb128 0x19
 6773 0171 20       		.uleb128 0x20
 6774 0172 0B       		.uleb128 0xb
 6775 0173 01       		.uleb128 0x1
 6776 0174 13       		.uleb128 0x13
 6777 0175 00       		.byte	0
 6778 0176 00       		.byte	0
 6779 0177 20       		.uleb128 0x20
 6780 0178 05       		.uleb128 0x5
ARM GAS  C:\Users\chemi\AppData\Local\Temp\ccbZzKkH.s 			page 142


 6781 0179 00       		.byte	0
 6782 017a 03       		.uleb128 0x3
 6783 017b 08       		.uleb128 0x8
 6784 017c 3A       		.uleb128 0x3a
 6785 017d 0B       		.uleb128 0xb
 6786 017e 3B       		.uleb128 0x3b
 6787 017f 05       		.uleb128 0x5
 6788 0180 49       		.uleb128 0x49
 6789 0181 13       		.uleb128 0x13
 6790 0182 00       		.byte	0
 6791 0183 00       		.byte	0
 6792 0184 21       		.uleb128 0x21
 6793 0185 2E       		.uleb128 0x2e
 6794 0186 01       		.byte	0x1
 6795 0187 03       		.uleb128 0x3
 6796 0188 0E       		.uleb128 0xe
 6797 0189 3A       		.uleb128 0x3a
 6798 018a 0B       		.uleb128 0xb
 6799 018b 3B       		.uleb128 0x3b
 6800 018c 0B       		.uleb128 0xb
 6801 018d 27       		.uleb128 0x27
 6802 018e 19       		.uleb128 0x19
 6803 018f 11       		.uleb128 0x11
 6804 0190 01       		.uleb128 0x1
 6805 0191 12       		.uleb128 0x12
 6806 0192 06       		.uleb128 0x6
 6807 0193 40       		.uleb128 0x40
 6808 0194 18       		.uleb128 0x18
 6809 0195 9742     		.uleb128 0x2117
 6810 0197 19       		.uleb128 0x19
 6811 0198 01       		.uleb128 0x1
 6812 0199 13       		.uleb128 0x13
 6813 019a 00       		.byte	0
 6814 019b 00       		.byte	0
 6815 019c 22       		.uleb128 0x22
 6816 019d 05       		.uleb128 0x5
 6817 019e 00       		.byte	0
 6818 019f 03       		.uleb128 0x3
 6819 01a0 0E       		.uleb128 0xe
 6820 01a1 3A       		.uleb128 0x3a
 6821 01a2 0B       		.uleb128 0xb
 6822 01a3 3B       		.uleb128 0x3b
 6823 01a4 0B       		.uleb128 0xb
 6824 01a5 49       		.uleb128 0x49
 6825 01a6 13       		.uleb128 0x13
 6826 01a7 02       		.uleb128 0x2
 6827 01a8 17       		.uleb128 0x17
 6828 01a9 00       		.byte	0
 6829 01aa 00       		.byte	0
 6830 01ab 23       		.uleb128 0x23
 6831 01ac 05       		.uleb128 0x5
 6832 01ad 00       		.byte	0
 6833 01ae 03       		.uleb128 0x3
 6834 01af 0E       		.uleb128 0xe
 6835 01b0 3A       		.uleb128 0x3a
 6836 01b1 0B       		.uleb128 0xb
 6837 01b2 3B       		.uleb128 0x3b
ARM GAS  C:\Users\chemi\AppData\Local\Temp\ccbZzKkH.s 			page 143


 6838 01b3 0B       		.uleb128 0xb
 6839 01b4 49       		.uleb128 0x49
 6840 01b5 13       		.uleb128 0x13
 6841 01b6 02       		.uleb128 0x2
 6842 01b7 18       		.uleb128 0x18
 6843 01b8 00       		.byte	0
 6844 01b9 00       		.byte	0
 6845 01ba 24       		.uleb128 0x24
 6846 01bb 2E       		.uleb128 0x2e
 6847 01bc 01       		.byte	0x1
 6848 01bd 3F       		.uleb128 0x3f
 6849 01be 19       		.uleb128 0x19
 6850 01bf 03       		.uleb128 0x3
 6851 01c0 0E       		.uleb128 0xe
 6852 01c1 3A       		.uleb128 0x3a
 6853 01c2 0B       		.uleb128 0xb
 6854 01c3 3B       		.uleb128 0x3b
 6855 01c4 0B       		.uleb128 0xb
 6856 01c5 27       		.uleb128 0x27
 6857 01c6 19       		.uleb128 0x19
 6858 01c7 11       		.uleb128 0x11
 6859 01c8 01       		.uleb128 0x1
 6860 01c9 12       		.uleb128 0x12
 6861 01ca 06       		.uleb128 0x6
 6862 01cb 40       		.uleb128 0x40
 6863 01cc 18       		.uleb128 0x18
 6864 01cd 9742     		.uleb128 0x2117
 6865 01cf 19       		.uleb128 0x19
 6866 01d0 01       		.uleb128 0x1
 6867 01d1 13       		.uleb128 0x13
 6868 01d2 00       		.byte	0
 6869 01d3 00       		.byte	0
 6870 01d4 25       		.uleb128 0x25
 6871 01d5 898201   		.uleb128 0x4109
 6872 01d8 00       		.byte	0
 6873 01d9 11       		.uleb128 0x11
 6874 01da 01       		.uleb128 0x1
 6875 01db 31       		.uleb128 0x31
 6876 01dc 13       		.uleb128 0x13
 6877 01dd 00       		.byte	0
 6878 01de 00       		.byte	0
 6879 01df 26       		.uleb128 0x26
 6880 01e0 898201   		.uleb128 0x4109
 6881 01e3 00       		.byte	0
 6882 01e4 11       		.uleb128 0x11
 6883 01e5 01       		.uleb128 0x1
 6884 01e6 9542     		.uleb128 0x2115
 6885 01e8 19       		.uleb128 0x19
 6886 01e9 31       		.uleb128 0x31
 6887 01ea 13       		.uleb128 0x13
 6888 01eb 00       		.byte	0
 6889 01ec 00       		.byte	0
 6890 01ed 27       		.uleb128 0x27
 6891 01ee 898201   		.uleb128 0x4109
 6892 01f1 01       		.byte	0x1
 6893 01f2 11       		.uleb128 0x11
 6894 01f3 01       		.uleb128 0x1
ARM GAS  C:\Users\chemi\AppData\Local\Temp\ccbZzKkH.s 			page 144


 6895 01f4 31       		.uleb128 0x31
 6896 01f5 13       		.uleb128 0x13
 6897 01f6 01       		.uleb128 0x1
 6898 01f7 13       		.uleb128 0x13
 6899 01f8 00       		.byte	0
 6900 01f9 00       		.byte	0
 6901 01fa 28       		.uleb128 0x28
 6902 01fb 8A8201   		.uleb128 0x410a
 6903 01fe 00       		.byte	0
 6904 01ff 02       		.uleb128 0x2
 6905 0200 18       		.uleb128 0x18
 6906 0201 9142     		.uleb128 0x2111
 6907 0203 18       		.uleb128 0x18
 6908 0204 00       		.byte	0
 6909 0205 00       		.byte	0
 6910 0206 29       		.uleb128 0x29
 6911 0207 2E       		.uleb128 0x2e
 6912 0208 01       		.byte	0x1
 6913 0209 31       		.uleb128 0x31
 6914 020a 13       		.uleb128 0x13
 6915 020b 11       		.uleb128 0x11
 6916 020c 01       		.uleb128 0x1
 6917 020d 12       		.uleb128 0x12
 6918 020e 06       		.uleb128 0x6
 6919 020f 40       		.uleb128 0x40
 6920 0210 18       		.uleb128 0x18
 6921 0211 9742     		.uleb128 0x2117
 6922 0213 19       		.uleb128 0x19
 6923 0214 01       		.uleb128 0x1
 6924 0215 13       		.uleb128 0x13
 6925 0216 00       		.byte	0
 6926 0217 00       		.byte	0
 6927 0218 2A       		.uleb128 0x2a
 6928 0219 05       		.uleb128 0x5
 6929 021a 00       		.byte	0
 6930 021b 31       		.uleb128 0x31
 6931 021c 13       		.uleb128 0x13
 6932 021d 02       		.uleb128 0x2
 6933 021e 17       		.uleb128 0x17
 6934 021f 00       		.byte	0
 6935 0220 00       		.byte	0
 6936 0221 2B       		.uleb128 0x2b
 6937 0222 34       		.uleb128 0x34
 6938 0223 00       		.byte	0
 6939 0224 31       		.uleb128 0x31
 6940 0225 13       		.uleb128 0x13
 6941 0226 00       		.byte	0
 6942 0227 00       		.byte	0
 6943 0228 2C       		.uleb128 0x2c
 6944 0229 0B       		.uleb128 0xb
 6945 022a 01       		.byte	0x1
 6946 022b 11       		.uleb128 0x11
 6947 022c 01       		.uleb128 0x1
 6948 022d 12       		.uleb128 0x12
 6949 022e 06       		.uleb128 0x6
 6950 022f 00       		.byte	0
 6951 0230 00       		.byte	0
ARM GAS  C:\Users\chemi\AppData\Local\Temp\ccbZzKkH.s 			page 145


 6952 0231 2D       		.uleb128 0x2d
 6953 0232 34       		.uleb128 0x34
 6954 0233 00       		.byte	0
 6955 0234 31       		.uleb128 0x31
 6956 0235 13       		.uleb128 0x13
 6957 0236 02       		.uleb128 0x2
 6958 0237 17       		.uleb128 0x17
 6959 0238 00       		.byte	0
 6960 0239 00       		.byte	0
 6961 023a 2E       		.uleb128 0x2e
 6962 023b 2E       		.uleb128 0x2e
 6963 023c 01       		.byte	0x1
 6964 023d 03       		.uleb128 0x3
 6965 023e 0E       		.uleb128 0xe
 6966 023f 3A       		.uleb128 0x3a
 6967 0240 0B       		.uleb128 0xb
 6968 0241 3B       		.uleb128 0x3b
 6969 0242 05       		.uleb128 0x5
 6970 0243 27       		.uleb128 0x27
 6971 0244 19       		.uleb128 0x19
 6972 0245 20       		.uleb128 0x20
 6973 0246 0B       		.uleb128 0xb
 6974 0247 01       		.uleb128 0x1
 6975 0248 13       		.uleb128 0x13
 6976 0249 00       		.byte	0
 6977 024a 00       		.byte	0
 6978 024b 2F       		.uleb128 0x2f
 6979 024c 2E       		.uleb128 0x2e
 6980 024d 01       		.byte	0x1
 6981 024e 03       		.uleb128 0x3
 6982 024f 0E       		.uleb128 0xe
 6983 0250 3A       		.uleb128 0x3a
 6984 0251 0B       		.uleb128 0xb
 6985 0252 3B       		.uleb128 0x3b
 6986 0253 05       		.uleb128 0x5
 6987 0254 27       		.uleb128 0x27
 6988 0255 19       		.uleb128 0x19
 6989 0256 8701     		.uleb128 0x87
 6990 0258 19       		.uleb128 0x19
 6991 0259 11       		.uleb128 0x11
 6992 025a 01       		.uleb128 0x1
 6993 025b 12       		.uleb128 0x12
 6994 025c 06       		.uleb128 0x6
 6995 025d 40       		.uleb128 0x40
 6996 025e 18       		.uleb128 0x18
 6997 025f 9742     		.uleb128 0x2117
 6998 0261 19       		.uleb128 0x19
 6999 0262 01       		.uleb128 0x1
 7000 0263 13       		.uleb128 0x13
 7001 0264 00       		.byte	0
 7002 0265 00       		.byte	0
 7003 0266 30       		.uleb128 0x30
 7004 0267 05       		.uleb128 0x5
 7005 0268 00       		.byte	0
 7006 0269 03       		.uleb128 0x3
 7007 026a 0E       		.uleb128 0xe
 7008 026b 3A       		.uleb128 0x3a
ARM GAS  C:\Users\chemi\AppData\Local\Temp\ccbZzKkH.s 			page 146


 7009 026c 0B       		.uleb128 0xb
 7010 026d 3B       		.uleb128 0x3b
 7011 026e 05       		.uleb128 0x5
 7012 026f 49       		.uleb128 0x49
 7013 0270 13       		.uleb128 0x13
 7014 0271 02       		.uleb128 0x2
 7015 0272 17       		.uleb128 0x17
 7016 0273 00       		.byte	0
 7017 0274 00       		.byte	0
 7018 0275 31       		.uleb128 0x31
 7019 0276 34       		.uleb128 0x34
 7020 0277 00       		.byte	0
 7021 0278 03       		.uleb128 0x3
 7022 0279 0E       		.uleb128 0xe
 7023 027a 3A       		.uleb128 0x3a
 7024 027b 0B       		.uleb128 0xb
 7025 027c 3B       		.uleb128 0x3b
 7026 027d 05       		.uleb128 0x5
 7027 027e 49       		.uleb128 0x49
 7028 027f 13       		.uleb128 0x13
 7029 0280 02       		.uleb128 0x2
 7030 0281 17       		.uleb128 0x17
 7031 0282 00       		.byte	0
 7032 0283 00       		.byte	0
 7033 0284 32       		.uleb128 0x32
 7034 0285 0B       		.uleb128 0xb
 7035 0286 01       		.byte	0x1
 7036 0287 55       		.uleb128 0x55
 7037 0288 17       		.uleb128 0x17
 7038 0289 01       		.uleb128 0x1
 7039 028a 13       		.uleb128 0x13
 7040 028b 00       		.byte	0
 7041 028c 00       		.byte	0
 7042 028d 33       		.uleb128 0x33
 7043 028e 34       		.uleb128 0x34
 7044 028f 00       		.byte	0
 7045 0290 03       		.uleb128 0x3
 7046 0291 0E       		.uleb128 0xe
 7047 0292 3A       		.uleb128 0x3a
 7048 0293 0B       		.uleb128 0xb
 7049 0294 3B       		.uleb128 0x3b
 7050 0295 05       		.uleb128 0x5
 7051 0296 49       		.uleb128 0x49
 7052 0297 13       		.uleb128 0x13
 7053 0298 02       		.uleb128 0x2
 7054 0299 18       		.uleb128 0x18
 7055 029a 00       		.byte	0
 7056 029b 00       		.byte	0
 7057 029c 34       		.uleb128 0x34
 7058 029d 0B       		.uleb128 0xb
 7059 029e 01       		.byte	0x1
 7060 029f 11       		.uleb128 0x11
 7061 02a0 01       		.uleb128 0x1
 7062 02a1 12       		.uleb128 0x12
 7063 02a2 06       		.uleb128 0x6
 7064 02a3 01       		.uleb128 0x1
 7065 02a4 13       		.uleb128 0x13
ARM GAS  C:\Users\chemi\AppData\Local\Temp\ccbZzKkH.s 			page 147


 7066 02a5 00       		.byte	0
 7067 02a6 00       		.byte	0
 7068 02a7 35       		.uleb128 0x35
 7069 02a8 1D       		.uleb128 0x1d
 7070 02a9 01       		.byte	0x1
 7071 02aa 31       		.uleb128 0x31
 7072 02ab 13       		.uleb128 0x13
 7073 02ac 11       		.uleb128 0x11
 7074 02ad 01       		.uleb128 0x1
 7075 02ae 12       		.uleb128 0x12
 7076 02af 06       		.uleb128 0x6
 7077 02b0 58       		.uleb128 0x58
 7078 02b1 0B       		.uleb128 0xb
 7079 02b2 59       		.uleb128 0x59
 7080 02b3 05       		.uleb128 0x5
 7081 02b4 01       		.uleb128 0x1
 7082 02b5 13       		.uleb128 0x13
 7083 02b6 00       		.byte	0
 7084 02b7 00       		.byte	0
 7085 02b8 36       		.uleb128 0x36
 7086 02b9 1D       		.uleb128 0x1d
 7087 02ba 01       		.byte	0x1
 7088 02bb 31       		.uleb128 0x31
 7089 02bc 13       		.uleb128 0x13
 7090 02bd 11       		.uleb128 0x11
 7091 02be 01       		.uleb128 0x1
 7092 02bf 12       		.uleb128 0x12
 7093 02c0 06       		.uleb128 0x6
 7094 02c1 58       		.uleb128 0x58
 7095 02c2 0B       		.uleb128 0xb
 7096 02c3 59       		.uleb128 0x59
 7097 02c4 05       		.uleb128 0x5
 7098 02c5 00       		.byte	0
 7099 02c6 00       		.byte	0
 7100 02c7 37       		.uleb128 0x37
 7101 02c8 0B       		.uleb128 0xb
 7102 02c9 01       		.byte	0x1
 7103 02ca 55       		.uleb128 0x55
 7104 02cb 17       		.uleb128 0x17
 7105 02cc 00       		.byte	0
 7106 02cd 00       		.byte	0
 7107 02ce 38       		.uleb128 0x38
 7108 02cf 1D       		.uleb128 0x1d
 7109 02d0 01       		.byte	0x1
 7110 02d1 31       		.uleb128 0x31
 7111 02d2 13       		.uleb128 0x13
 7112 02d3 52       		.uleb128 0x52
 7113 02d4 01       		.uleb128 0x1
 7114 02d5 55       		.uleb128 0x55
 7115 02d6 17       		.uleb128 0x17
 7116 02d7 58       		.uleb128 0x58
 7117 02d8 0B       		.uleb128 0xb
 7118 02d9 59       		.uleb128 0x59
 7119 02da 05       		.uleb128 0x5
 7120 02db 01       		.uleb128 0x1
 7121 02dc 13       		.uleb128 0x13
 7122 02dd 00       		.byte	0
ARM GAS  C:\Users\chemi\AppData\Local\Temp\ccbZzKkH.s 			page 148


 7123 02de 00       		.byte	0
 7124 02df 39       		.uleb128 0x39
 7125 02e0 1D       		.uleb128 0x1d
 7126 02e1 01       		.byte	0x1
 7127 02e2 31       		.uleb128 0x31
 7128 02e3 13       		.uleb128 0x13
 7129 02e4 52       		.uleb128 0x52
 7130 02e5 01       		.uleb128 0x1
 7131 02e6 55       		.uleb128 0x55
 7132 02e7 17       		.uleb128 0x17
 7133 02e8 58       		.uleb128 0x58
 7134 02e9 0B       		.uleb128 0xb
 7135 02ea 59       		.uleb128 0x59
 7136 02eb 05       		.uleb128 0x5
 7137 02ec 00       		.byte	0
 7138 02ed 00       		.byte	0
 7139 02ee 3A       		.uleb128 0x3a
 7140 02ef 2E       		.uleb128 0x2e
 7141 02f0 01       		.byte	0x1
 7142 02f1 3F       		.uleb128 0x3f
 7143 02f2 19       		.uleb128 0x19
 7144 02f3 03       		.uleb128 0x3
 7145 02f4 0E       		.uleb128 0xe
 7146 02f5 3A       		.uleb128 0x3a
 7147 02f6 0B       		.uleb128 0xb
 7148 02f7 3B       		.uleb128 0x3b
 7149 02f8 0B       		.uleb128 0xb
 7150 02f9 27       		.uleb128 0x27
 7151 02fa 19       		.uleb128 0x19
 7152 02fb 49       		.uleb128 0x49
 7153 02fc 13       		.uleb128 0x13
 7154 02fd 11       		.uleb128 0x11
 7155 02fe 01       		.uleb128 0x1
 7156 02ff 12       		.uleb128 0x12
 7157 0300 06       		.uleb128 0x6
 7158 0301 40       		.uleb128 0x40
 7159 0302 18       		.uleb128 0x18
 7160 0303 9742     		.uleb128 0x2117
 7161 0305 19       		.uleb128 0x19
 7162 0306 01       		.uleb128 0x1
 7163 0307 13       		.uleb128 0x13
 7164 0308 00       		.byte	0
 7165 0309 00       		.byte	0
 7166 030a 3B       		.uleb128 0x3b
 7167 030b 2E       		.uleb128 0x2e
 7168 030c 01       		.byte	0x1
 7169 030d 3F       		.uleb128 0x3f
 7170 030e 19       		.uleb128 0x19
 7171 030f 03       		.uleb128 0x3
 7172 0310 0E       		.uleb128 0xe
 7173 0311 3A       		.uleb128 0x3a
 7174 0312 0B       		.uleb128 0xb
 7175 0313 3B       		.uleb128 0x3b
 7176 0314 0B       		.uleb128 0xb
 7177 0315 11       		.uleb128 0x11
 7178 0316 01       		.uleb128 0x1
 7179 0317 12       		.uleb128 0x12
ARM GAS  C:\Users\chemi\AppData\Local\Temp\ccbZzKkH.s 			page 149


 7180 0318 06       		.uleb128 0x6
 7181 0319 40       		.uleb128 0x40
 7182 031a 18       		.uleb128 0x18
 7183 031b 9742     		.uleb128 0x2117
 7184 031d 19       		.uleb128 0x19
 7185 031e 01       		.uleb128 0x1
 7186 031f 13       		.uleb128 0x13
 7187 0320 00       		.byte	0
 7188 0321 00       		.byte	0
 7189 0322 3C       		.uleb128 0x3c
 7190 0323 34       		.uleb128 0x34
 7191 0324 00       		.byte	0
 7192 0325 03       		.uleb128 0x3
 7193 0326 0E       		.uleb128 0xe
 7194 0327 3A       		.uleb128 0x3a
 7195 0328 0B       		.uleb128 0xb
 7196 0329 3B       		.uleb128 0x3b
 7197 032a 0B       		.uleb128 0xb
 7198 032b 49       		.uleb128 0x49
 7199 032c 13       		.uleb128 0x13
 7200 032d 02       		.uleb128 0x2
 7201 032e 17       		.uleb128 0x17
 7202 032f 00       		.byte	0
 7203 0330 00       		.byte	0
 7204 0331 3D       		.uleb128 0x3d
 7205 0332 34       		.uleb128 0x34
 7206 0333 00       		.byte	0
 7207 0334 03       		.uleb128 0x3
 7208 0335 08       		.uleb128 0x8
 7209 0336 3A       		.uleb128 0x3a
 7210 0337 0B       		.uleb128 0xb
 7211 0338 3B       		.uleb128 0x3b
 7212 0339 0B       		.uleb128 0xb
 7213 033a 49       		.uleb128 0x49
 7214 033b 13       		.uleb128 0x13
 7215 033c 02       		.uleb128 0x2
 7216 033d 17       		.uleb128 0x17
 7217 033e 00       		.byte	0
 7218 033f 00       		.byte	0
 7219 0340 3E       		.uleb128 0x3e
 7220 0341 898201   		.uleb128 0x4109
 7221 0344 01       		.byte	0x1
 7222 0345 11       		.uleb128 0x11
 7223 0346 01       		.uleb128 0x1
 7224 0347 31       		.uleb128 0x31
 7225 0348 13       		.uleb128 0x13
 7226 0349 00       		.byte	0
 7227 034a 00       		.byte	0
 7228 034b 3F       		.uleb128 0x3f
 7229 034c 2E       		.uleb128 0x2e
 7230 034d 01       		.byte	0x1
 7231 034e 3F       		.uleb128 0x3f
 7232 034f 19       		.uleb128 0x19
 7233 0350 03       		.uleb128 0x3
 7234 0351 0E       		.uleb128 0xe
 7235 0352 3A       		.uleb128 0x3a
 7236 0353 0B       		.uleb128 0xb
ARM GAS  C:\Users\chemi\AppData\Local\Temp\ccbZzKkH.s 			page 150


 7237 0354 3B       		.uleb128 0x3b
 7238 0355 0B       		.uleb128 0xb
 7239 0356 49       		.uleb128 0x49
 7240 0357 13       		.uleb128 0x13
 7241 0358 11       		.uleb128 0x11
 7242 0359 01       		.uleb128 0x1
 7243 035a 12       		.uleb128 0x12
 7244 035b 06       		.uleb128 0x6
 7245 035c 40       		.uleb128 0x40
 7246 035d 18       		.uleb128 0x18
 7247 035e 9742     		.uleb128 0x2117
 7248 0360 19       		.uleb128 0x19
 7249 0361 01       		.uleb128 0x1
 7250 0362 13       		.uleb128 0x13
 7251 0363 00       		.byte	0
 7252 0364 00       		.byte	0
 7253 0365 40       		.uleb128 0x40
 7254 0366 2E       		.uleb128 0x2e
 7255 0367 01       		.byte	0x1
 7256 0368 3F       		.uleb128 0x3f
 7257 0369 19       		.uleb128 0x19
 7258 036a 03       		.uleb128 0x3
 7259 036b 0E       		.uleb128 0xe
 7260 036c 3A       		.uleb128 0x3a
 7261 036d 0B       		.uleb128 0xb
 7262 036e 3B       		.uleb128 0x3b
 7263 036f 05       		.uleb128 0x5
 7264 0370 27       		.uleb128 0x27
 7265 0371 19       		.uleb128 0x19
 7266 0372 11       		.uleb128 0x11
 7267 0373 01       		.uleb128 0x1
 7268 0374 12       		.uleb128 0x12
 7269 0375 06       		.uleb128 0x6
 7270 0376 40       		.uleb128 0x40
 7271 0377 18       		.uleb128 0x18
 7272 0378 9742     		.uleb128 0x2117
 7273 037a 19       		.uleb128 0x19
 7274 037b 01       		.uleb128 0x1
 7275 037c 13       		.uleb128 0x13
 7276 037d 00       		.byte	0
 7277 037e 00       		.byte	0
 7278 037f 41       		.uleb128 0x41
 7279 0380 898201   		.uleb128 0x4109
 7280 0383 01       		.byte	0x1
 7281 0384 11       		.uleb128 0x11
 7282 0385 01       		.uleb128 0x1
 7283 0386 9542     		.uleb128 0x2115
 7284 0388 19       		.uleb128 0x19
 7285 0389 31       		.uleb128 0x31
 7286 038a 13       		.uleb128 0x13
 7287 038b 00       		.byte	0
 7288 038c 00       		.byte	0
 7289 038d 42       		.uleb128 0x42
 7290 038e 2E       		.uleb128 0x2e
 7291 038f 01       		.byte	0x1
 7292 0390 3F       		.uleb128 0x3f
 7293 0391 19       		.uleb128 0x19
ARM GAS  C:\Users\chemi\AppData\Local\Temp\ccbZzKkH.s 			page 151


 7294 0392 03       		.uleb128 0x3
 7295 0393 0E       		.uleb128 0xe
 7296 0394 3A       		.uleb128 0x3a
 7297 0395 0B       		.uleb128 0xb
 7298 0396 3B       		.uleb128 0x3b
 7299 0397 05       		.uleb128 0x5
 7300 0398 11       		.uleb128 0x11
 7301 0399 01       		.uleb128 0x1
 7302 039a 12       		.uleb128 0x12
 7303 039b 06       		.uleb128 0x6
 7304 039c 40       		.uleb128 0x40
 7305 039d 18       		.uleb128 0x18
 7306 039e 9742     		.uleb128 0x2117
 7307 03a0 19       		.uleb128 0x19
 7308 03a1 01       		.uleb128 0x1
 7309 03a2 13       		.uleb128 0x13
 7310 03a3 00       		.byte	0
 7311 03a4 00       		.byte	0
 7312 03a5 43       		.uleb128 0x43
 7313 03a6 34       		.uleb128 0x34
 7314 03a7 00       		.byte	0
 7315 03a8 03       		.uleb128 0x3
 7316 03a9 08       		.uleb128 0x8
 7317 03aa 3A       		.uleb128 0x3a
 7318 03ab 0B       		.uleb128 0xb
 7319 03ac 3B       		.uleb128 0x3b
 7320 03ad 05       		.uleb128 0x5
 7321 03ae 49       		.uleb128 0x49
 7322 03af 13       		.uleb128 0x13
 7323 03b0 02       		.uleb128 0x2
 7324 03b1 17       		.uleb128 0x17
 7325 03b2 00       		.byte	0
 7326 03b3 00       		.byte	0
 7327 03b4 44       		.uleb128 0x44
 7328 03b5 34       		.uleb128 0x34
 7329 03b6 00       		.byte	0
 7330 03b7 03       		.uleb128 0x3
 7331 03b8 0E       		.uleb128 0xe
 7332 03b9 3A       		.uleb128 0x3a
 7333 03ba 0B       		.uleb128 0xb
 7334 03bb 3B       		.uleb128 0x3b
 7335 03bc 0B       		.uleb128 0xb
 7336 03bd 49       		.uleb128 0x49
 7337 03be 13       		.uleb128 0x13
 7338 03bf 02       		.uleb128 0x2
 7339 03c0 18       		.uleb128 0x18
 7340 03c1 00       		.byte	0
 7341 03c2 00       		.byte	0
 7342 03c3 45       		.uleb128 0x45
 7343 03c4 34       		.uleb128 0x34
 7344 03c5 00       		.byte	0
 7345 03c6 03       		.uleb128 0x3
 7346 03c7 0E       		.uleb128 0xe
 7347 03c8 3A       		.uleb128 0x3a
 7348 03c9 0B       		.uleb128 0xb
 7349 03ca 3B       		.uleb128 0x3b
 7350 03cb 05       		.uleb128 0x5
ARM GAS  C:\Users\chemi\AppData\Local\Temp\ccbZzKkH.s 			page 152


 7351 03cc 49       		.uleb128 0x49
 7352 03cd 13       		.uleb128 0x13
 7353 03ce 3F       		.uleb128 0x3f
 7354 03cf 19       		.uleb128 0x19
 7355 03d0 3C       		.uleb128 0x3c
 7356 03d1 19       		.uleb128 0x19
 7357 03d2 00       		.byte	0
 7358 03d3 00       		.byte	0
 7359 03d4 46       		.uleb128 0x46
 7360 03d5 34       		.uleb128 0x34
 7361 03d6 00       		.byte	0
 7362 03d7 03       		.uleb128 0x3
 7363 03d8 0E       		.uleb128 0xe
 7364 03d9 3A       		.uleb128 0x3a
 7365 03da 0B       		.uleb128 0xb
 7366 03db 3B       		.uleb128 0x3b
 7367 03dc 0B       		.uleb128 0xb
 7368 03dd 49       		.uleb128 0x49
 7369 03de 13       		.uleb128 0x13
 7370 03df 3F       		.uleb128 0x3f
 7371 03e0 19       		.uleb128 0x19
 7372 03e1 3C       		.uleb128 0x3c
 7373 03e2 19       		.uleb128 0x19
 7374 03e3 00       		.byte	0
 7375 03e4 00       		.byte	0
 7376 03e5 47       		.uleb128 0x47
 7377 03e6 34       		.uleb128 0x34
 7378 03e7 00       		.byte	0
 7379 03e8 03       		.uleb128 0x3
 7380 03e9 0E       		.uleb128 0xe
 7381 03ea 3A       		.uleb128 0x3a
 7382 03eb 0B       		.uleb128 0xb
 7383 03ec 3B       		.uleb128 0x3b
 7384 03ed 0B       		.uleb128 0xb
 7385 03ee 49       		.uleb128 0x49
 7386 03ef 13       		.uleb128 0x13
 7387 03f0 3F       		.uleb128 0x3f
 7388 03f1 19       		.uleb128 0x19
 7389 03f2 02       		.uleb128 0x2
 7390 03f3 18       		.uleb128 0x18
 7391 03f4 00       		.byte	0
 7392 03f5 00       		.byte	0
 7393 03f6 48       		.uleb128 0x48
 7394 03f7 34       		.uleb128 0x34
 7395 03f8 00       		.byte	0
 7396 03f9 03       		.uleb128 0x3
 7397 03fa 08       		.uleb128 0x8
 7398 03fb 3A       		.uleb128 0x3a
 7399 03fc 0B       		.uleb128 0xb
 7400 03fd 3B       		.uleb128 0x3b
 7401 03fe 0B       		.uleb128 0xb
 7402 03ff 49       		.uleb128 0x49
 7403 0400 13       		.uleb128 0x13
 7404 0401 3F       		.uleb128 0x3f
 7405 0402 19       		.uleb128 0x19
 7406 0403 3C       		.uleb128 0x3c
 7407 0404 19       		.uleb128 0x19
ARM GAS  C:\Users\chemi\AppData\Local\Temp\ccbZzKkH.s 			page 153


 7408 0405 00       		.byte	0
 7409 0406 00       		.byte	0
 7410 0407 49       		.uleb128 0x49
 7411 0408 34       		.uleb128 0x34
 7412 0409 00       		.byte	0
 7413 040a 03       		.uleb128 0x3
 7414 040b 0E       		.uleb128 0xe
 7415 040c 3A       		.uleb128 0x3a
 7416 040d 0B       		.uleb128 0xb
 7417 040e 3B       		.uleb128 0x3b
 7418 040f 05       		.uleb128 0x5
 7419 0410 49       		.uleb128 0x49
 7420 0411 13       		.uleb128 0x13
 7421 0412 3F       		.uleb128 0x3f
 7422 0413 19       		.uleb128 0x19
 7423 0414 02       		.uleb128 0x2
 7424 0415 18       		.uleb128 0x18
 7425 0416 00       		.byte	0
 7426 0417 00       		.byte	0
 7427 0418 4A       		.uleb128 0x4a
 7428 0419 2E       		.uleb128 0x2e
 7429 041a 00       		.byte	0
 7430 041b 3F       		.uleb128 0x3f
 7431 041c 19       		.uleb128 0x19
 7432 041d 3C       		.uleb128 0x3c
 7433 041e 19       		.uleb128 0x19
 7434 041f 6E       		.uleb128 0x6e
 7435 0420 0E       		.uleb128 0xe
 7436 0421 03       		.uleb128 0x3
 7437 0422 0E       		.uleb128 0xe
 7438 0423 3A       		.uleb128 0x3a
 7439 0424 0B       		.uleb128 0xb
 7440 0425 3B       		.uleb128 0x3b
 7441 0426 0B       		.uleb128 0xb
 7442 0427 00       		.byte	0
 7443 0428 00       		.byte	0
 7444 0429 4B       		.uleb128 0x4b
 7445 042a 2E       		.uleb128 0x2e
 7446 042b 00       		.byte	0
 7447 042c 3F       		.uleb128 0x3f
 7448 042d 19       		.uleb128 0x19
 7449 042e 3C       		.uleb128 0x3c
 7450 042f 19       		.uleb128 0x19
 7451 0430 6E       		.uleb128 0x6e
 7452 0431 0E       		.uleb128 0xe
 7453 0432 03       		.uleb128 0x3
 7454 0433 0E       		.uleb128 0xe
 7455 0434 3A       		.uleb128 0x3a
 7456 0435 0B       		.uleb128 0xb
 7457 0436 3B       		.uleb128 0x3b
 7458 0437 05       		.uleb128 0x5
 7459 0438 00       		.byte	0
 7460 0439 00       		.byte	0
 7461 043a 4C       		.uleb128 0x4c
 7462 043b 2E       		.uleb128 0x2e
 7463 043c 00       		.byte	0
 7464 043d 3F       		.uleb128 0x3f
ARM GAS  C:\Users\chemi\AppData\Local\Temp\ccbZzKkH.s 			page 154


 7465 043e 19       		.uleb128 0x19
 7466 043f 3C       		.uleb128 0x3c
 7467 0440 19       		.uleb128 0x19
 7468 0441 6E       		.uleb128 0x6e
 7469 0442 0E       		.uleb128 0xe
 7470 0443 03       		.uleb128 0x3
 7471 0444 0E       		.uleb128 0xe
 7472 0445 00       		.byte	0
 7473 0446 00       		.byte	0
 7474 0447 00       		.byte	0
 7475              		.section	.debug_loc,"",%progbits
 7476              	.Ldebug_loc0:
 7477              	.LLST0:
 7478 0000 00000000 		.4byte	.LVL0
 7479 0004 2A000000 		.4byte	.LVL3
 7480 0008 0100     		.2byte	0x1
 7481 000a 50       		.byte	0x50
 7482 000b 2A000000 		.4byte	.LVL3
 7483 000f 42000000 		.4byte	.LVL4
 7484 0013 0400     		.2byte	0x4
 7485 0015 F3       		.byte	0xf3
 7486 0016 01       		.uleb128 0x1
 7487 0017 50       		.byte	0x50
 7488 0018 9F       		.byte	0x9f
 7489 0019 42000000 		.4byte	.LVL4
 7490 001d 62000000 		.4byte	.LVL8
 7491 0021 0100     		.2byte	0x1
 7492 0023 50       		.byte	0x50
 7493 0024 62000000 		.4byte	.LVL8
 7494 0028 74000000 		.4byte	.LFE73
 7495 002c 0400     		.2byte	0x4
 7496 002e F3       		.byte	0xf3
 7497 002f 01       		.uleb128 0x1
 7498 0030 50       		.byte	0x50
 7499 0031 9F       		.byte	0x9f
 7500 0032 00000000 		.4byte	0
 7501 0036 00000000 		.4byte	0
 7502              	.LLST1:
 7503 003a 00000000 		.4byte	.LVL0
 7504 003e 24000000 		.4byte	.LVL1
 7505 0042 0100     		.2byte	0x1
 7506 0044 52       		.byte	0x52
 7507 0045 24000000 		.4byte	.LVL1
 7508 0049 42000000 		.4byte	.LVL4
 7509 004d 0400     		.2byte	0x4
 7510 004f F3       		.byte	0xf3
 7511 0050 01       		.uleb128 0x1
 7512 0051 52       		.byte	0x52
 7513 0052 9F       		.byte	0x9f
 7514 0053 42000000 		.4byte	.LVL4
 7515 0057 52000000 		.4byte	.LVL7
 7516 005b 0100     		.2byte	0x1
 7517 005d 52       		.byte	0x52
 7518 005e 52000000 		.4byte	.LVL7
 7519 0062 74000000 		.4byte	.LFE73
 7520 0066 0400     		.2byte	0x4
 7521 0068 F3       		.byte	0xf3
ARM GAS  C:\Users\chemi\AppData\Local\Temp\ccbZzKkH.s 			page 155


 7522 0069 01       		.uleb128 0x1
 7523 006a 52       		.byte	0x52
 7524 006b 9F       		.byte	0x9f
 7525 006c 00000000 		.4byte	0
 7526 0070 00000000 		.4byte	0
 7527              	.LLST2:
 7528 0074 00000000 		.4byte	.LVL0
 7529 0078 26000000 		.4byte	.LVL2
 7530 007c 0100     		.2byte	0x1
 7531 007e 53       		.byte	0x53
 7532 007f 26000000 		.4byte	.LVL2
 7533 0083 42000000 		.4byte	.LVL4
 7534 0087 0400     		.2byte	0x4
 7535 0089 F3       		.byte	0xf3
 7536 008a 01       		.uleb128 0x1
 7537 008b 53       		.byte	0x53
 7538 008c 9F       		.byte	0x9f
 7539 008d 42000000 		.4byte	.LVL4
 7540 0091 46000000 		.4byte	.LVL5
 7541 0095 0100     		.2byte	0x1
 7542 0097 53       		.byte	0x53
 7543 0098 46000000 		.4byte	.LVL5
 7544 009c 4A000000 		.4byte	.LVL6
 7545 00a0 0300     		.2byte	0x3
 7546 00a2 74       		.byte	0x74
 7547 00a3 CC00     		.sleb128 76
 7548 00a5 4A000000 		.4byte	.LVL6
 7549 00a9 74000000 		.4byte	.LFE73
 7550 00ad 0400     		.2byte	0x4
 7551 00af F3       		.byte	0xf3
 7552 00b0 01       		.uleb128 0x1
 7553 00b1 53       		.byte	0x53
 7554 00b2 9F       		.byte	0x9f
 7555 00b3 00000000 		.4byte	0
 7556 00b7 00000000 		.4byte	0
 7557              	.LLST3:
 7558 00bb 00000000 		.4byte	.LVL0
 7559 00bf 42000000 		.4byte	.LVL4
 7560 00c3 0200     		.2byte	0x2
 7561 00c5 91       		.byte	0x91
 7562 00c6 00       		.sleb128 0
 7563 00c7 42000000 		.4byte	.LVL4
 7564 00cb 6C000000 		.4byte	.LVL9
 7565 00cf 0200     		.2byte	0x2
 7566 00d1 91       		.byte	0x91
 7567 00d2 00       		.sleb128 0
 7568 00d3 6C000000 		.4byte	.LVL9
 7569 00d7 74000000 		.4byte	.LFE73
 7570 00db 0200     		.2byte	0x2
 7571 00dd 7D       		.byte	0x7d
 7572 00de 00       		.sleb128 0
 7573 00df 00000000 		.4byte	0
 7574 00e3 00000000 		.4byte	0
 7575              	.LLST4:
 7576 00e7 00000000 		.4byte	.LVL20
 7577 00eb 2C000000 		.4byte	.LVL26
 7578 00ef 0100     		.2byte	0x1
ARM GAS  C:\Users\chemi\AppData\Local\Temp\ccbZzKkH.s 			page 156


 7579 00f1 50       		.byte	0x50
 7580 00f2 2C000000 		.4byte	.LVL26
 7581 00f6 3C000000 		.4byte	.LVL30
 7582 00fa 0400     		.2byte	0x4
 7583 00fc F3       		.byte	0xf3
 7584 00fd 01       		.uleb128 0x1
 7585 00fe 50       		.byte	0x50
 7586 00ff 9F       		.byte	0x9f
 7587 0100 3C000000 		.4byte	.LVL30
 7588 0104 3E000000 		.4byte	.LVL31
 7589 0108 0100     		.2byte	0x1
 7590 010a 50       		.byte	0x50
 7591 010b 3E000000 		.4byte	.LVL31
 7592 010f 40000000 		.4byte	.LVL32
 7593 0113 0400     		.2byte	0x4
 7594 0115 F3       		.byte	0xf3
 7595 0116 01       		.uleb128 0x1
 7596 0117 50       		.byte	0x50
 7597 0118 9F       		.byte	0x9f
 7598 0119 40000000 		.4byte	.LVL32
 7599 011d 42000000 		.4byte	.LVL33
 7600 0121 0100     		.2byte	0x1
 7601 0123 50       		.byte	0x50
 7602 0124 42000000 		.4byte	.LVL33
 7603 0128 50000000 		.4byte	.LFE76
 7604 012c 0400     		.2byte	0x4
 7605 012e F3       		.byte	0xf3
 7606 012f 01       		.uleb128 0x1
 7607 0130 50       		.byte	0x50
 7608 0131 9F       		.byte	0x9f
 7609 0132 00000000 		.4byte	0
 7610 0136 00000000 		.4byte	0
 7611              	.LLST5:
 7612 013a 00000000 		.4byte	.LVL20
 7613 013e 2E000000 		.4byte	.LVL27
 7614 0142 0100     		.2byte	0x1
 7615 0144 51       		.byte	0x51
 7616 0145 2E000000 		.4byte	.LVL27
 7617 0149 3C000000 		.4byte	.LVL30
 7618 014d 0400     		.2byte	0x4
 7619 014f F3       		.byte	0xf3
 7620 0150 01       		.uleb128 0x1
 7621 0151 51       		.byte	0x51
 7622 0152 9F       		.byte	0x9f
 7623 0153 3C000000 		.4byte	.LVL30
 7624 0157 50000000 		.4byte	.LFE76
 7625 015b 0100     		.2byte	0x1
 7626 015d 51       		.byte	0x51
 7627 015e 00000000 		.4byte	0
 7628 0162 00000000 		.4byte	0
 7629              	.LLST6:
 7630 0166 00000000 		.4byte	.LVL20
 7631 016a 2A000000 		.4byte	.LVL25
 7632 016e 0100     		.2byte	0x1
 7633 0170 52       		.byte	0x52
 7634 0171 2A000000 		.4byte	.LVL25
 7635 0175 3C000000 		.4byte	.LVL30
ARM GAS  C:\Users\chemi\AppData\Local\Temp\ccbZzKkH.s 			page 157


 7636 0179 0400     		.2byte	0x4
 7637 017b F3       		.byte	0xf3
 7638 017c 01       		.uleb128 0x1
 7639 017d 52       		.byte	0x52
 7640 017e 9F       		.byte	0x9f
 7641 017f 3C000000 		.4byte	.LVL30
 7642 0183 50000000 		.4byte	.LFE76
 7643 0187 0100     		.2byte	0x1
 7644 0189 52       		.byte	0x52
 7645 018a 00000000 		.4byte	0
 7646 018e 00000000 		.4byte	0
 7647              	.LLST7:
 7648 0192 0A000000 		.4byte	.LVL21
 7649 0196 2A000000 		.4byte	.LVL25
 7650 019a 0100     		.2byte	0x1
 7651 019c 52       		.byte	0x52
 7652 019d 2A000000 		.4byte	.LVL25
 7653 01a1 3A000000 		.4byte	.LVL29
 7654 01a5 0400     		.2byte	0x4
 7655 01a7 F3       		.byte	0xf3
 7656 01a8 01       		.uleb128 0x1
 7657 01a9 52       		.byte	0x52
 7658 01aa 9F       		.byte	0x9f
 7659 01ab 00000000 		.4byte	0
 7660 01af 00000000 		.4byte	0
 7661              	.LLST8:
 7662 01b3 0A000000 		.4byte	.LVL21
 7663 01b7 2E000000 		.4byte	.LVL27
 7664 01bb 0100     		.2byte	0x1
 7665 01bd 51       		.byte	0x51
 7666 01be 2E000000 		.4byte	.LVL27
 7667 01c2 3A000000 		.4byte	.LVL29
 7668 01c6 0400     		.2byte	0x4
 7669 01c8 F3       		.byte	0xf3
 7670 01c9 01       		.uleb128 0x1
 7671 01ca 51       		.byte	0x51
 7672 01cb 9F       		.byte	0x9f
 7673 01cc 00000000 		.4byte	0
 7674 01d0 00000000 		.4byte	0
 7675              	.LLST9:
 7676 01d4 0A000000 		.4byte	.LVL21
 7677 01d8 2C000000 		.4byte	.LVL26
 7678 01dc 0100     		.2byte	0x1
 7679 01de 50       		.byte	0x50
 7680 01df 2C000000 		.4byte	.LVL26
 7681 01e3 3A000000 		.4byte	.LVL29
 7682 01e7 0400     		.2byte	0x4
 7683 01e9 F3       		.byte	0xf3
 7684 01ea 01       		.uleb128 0x1
 7685 01eb 50       		.byte	0x50
 7686 01ec 9F       		.byte	0x9f
 7687 01ed 00000000 		.4byte	0
 7688 01f1 00000000 		.4byte	0
 7689              	.LLST10:
 7690 01f5 20000000 		.4byte	.LVL22
 7691 01f9 26000000 		.4byte	.LVL23
 7692 01fd 0100     		.2byte	0x1
ARM GAS  C:\Users\chemi\AppData\Local\Temp\ccbZzKkH.s 			page 158


 7693 01ff 53       		.byte	0x53
 7694 0200 26000000 		.4byte	.LVL23
 7695 0204 28000000 		.4byte	.LVL24
 7696 0208 0600     		.2byte	0x6
 7697 020a 74       		.byte	0x74
 7698 020b 00       		.sleb128 0
 7699 020c 71       		.byte	0x71
 7700 020d 00       		.sleb128 0
 7701 020e 1B       		.byte	0x1b
 7702 020f 9F       		.byte	0x9f
 7703 0210 28000000 		.4byte	.LVL24
 7704 0214 34000000 		.4byte	.LVL28
 7705 0218 0100     		.2byte	0x1
 7706 021a 53       		.byte	0x53
 7707 021b 34000000 		.4byte	.LVL28
 7708 021f 3A000000 		.4byte	.LVL29
 7709 0223 0E00     		.2byte	0xe
 7710 0225 70       		.byte	0x70
 7711 0226 00       		.sleb128 0
 7712 0227 12       		.byte	0x12
 7713 0228 71       		.byte	0x71
 7714 0229 00       		.sleb128 0
 7715 022a 16       		.byte	0x16
 7716 022b 14       		.byte	0x14
 7717 022c 2D       		.byte	0x2d
 7718 022d 28       		.byte	0x28
 7719 022e 0100     		.2byte	0x1
 7720 0230 16       		.byte	0x16
 7721 0231 13       		.byte	0x13
 7722 0232 9F       		.byte	0x9f
 7723 0233 00000000 		.4byte	0
 7724 0237 00000000 		.4byte	0
 7725              	.LLST11:
 7726 023b 00000000 		.4byte	.LVL34
 7727 023f 18000000 		.4byte	.LVL36
 7728 0243 0100     		.2byte	0x1
 7729 0245 50       		.byte	0x50
 7730 0246 18000000 		.4byte	.LVL36
 7731 024a 9C040000 		.4byte	.LFE88
 7732 024e 0100     		.2byte	0x1
 7733 0250 54       		.byte	0x54
 7734 0251 00000000 		.4byte	0
 7735 0255 00000000 		.4byte	0
 7736              	.LLST12:
 7737 0259 06000000 		.4byte	.LVL35
 7738 025d 18000000 		.4byte	.LVL36
 7739 0261 0100     		.2byte	0x1
 7740 0263 50       		.byte	0x50
 7741 0264 18000000 		.4byte	.LVL36
 7742 0268 9C040000 		.4byte	.LFE88
 7743 026c 0100     		.2byte	0x1
 7744 026e 54       		.byte	0x54
 7745 026f 00000000 		.4byte	0
 7746 0273 00000000 		.4byte	0
 7747              	.LLST13:
 7748 0277 30000000 		.4byte	.LVL38
 7749 027b 56000000 		.4byte	.LVL40
ARM GAS  C:\Users\chemi\AppData\Local\Temp\ccbZzKkH.s 			page 159


 7750 027f 0400     		.2byte	0x4
 7751 0281 0A       		.byte	0xa
 7752 0282 FFFF     		.2byte	0xffff
 7753 0284 9F       		.byte	0x9f
 7754 0285 56000000 		.4byte	.LVL40
 7755 0289 88000000 		.4byte	.LVL42
 7756 028d 0100     		.2byte	0x1
 7757 028f 58       		.byte	0x58
 7758 0290 88000000 		.4byte	.LVL42
 7759 0294 9C000000 		.4byte	.LVL43
 7760 0298 0100     		.2byte	0x1
 7761 029a 53       		.byte	0x53
 7762 029b 9C000000 		.4byte	.LVL43
 7763 029f E6000000 		.4byte	.LVL45
 7764 02a3 0100     		.2byte	0x1
 7765 02a5 58       		.byte	0x58
 7766 02a6 E6000000 		.4byte	.LVL45
 7767 02aa FA000000 		.4byte	.LVL46
 7768 02ae 0100     		.2byte	0x1
 7769 02b0 53       		.byte	0x53
 7770 02b1 FA000000 		.4byte	.LVL46
 7771 02b5 0E010000 		.4byte	.LVL49
 7772 02b9 0100     		.2byte	0x1
 7773 02bb 58       		.byte	0x58
 7774 02bc 1A010000 		.4byte	.LVL51
 7775 02c0 BC030000 		.4byte	.LVL98
 7776 02c4 0100     		.2byte	0x1
 7777 02c6 58       		.byte	0x58
 7778 02c7 00000000 		.4byte	0
 7779 02cb 00000000 		.4byte	0
 7780              	.LLST14:
 7781 02cf 26010000 		.4byte	.LVL52
 7782 02d3 36010000 		.4byte	.LVL54
 7783 02d7 0100     		.2byte	0x1
 7784 02d9 53       		.byte	0x53
 7785 02da 00000000 		.4byte	0
 7786 02de 00000000 		.4byte	0
 7787              	.LLST15:
 7788 02e2 4E000000 		.4byte	.LVL39
 7789 02e6 56000000 		.4byte	.LVL40
 7790 02ea 0200     		.2byte	0x2
 7791 02ec 30       		.byte	0x30
 7792 02ed 9F       		.byte	0x9f
 7793 02ee 56000000 		.4byte	.LVL40
 7794 02f2 0A010000 		.4byte	.LVL48
 7795 02f6 0100     		.2byte	0x1
 7796 02f8 53       		.byte	0x53
 7797 02f9 00000000 		.4byte	0
 7798 02fd 00000000 		.4byte	0
 7799              	.LLST16:
 7800 0301 2C010000 		.4byte	.LVL53
 7801 0305 36010000 		.4byte	.LVL54
 7802 0309 0200     		.2byte	0x2
 7803 030b 30       		.byte	0x30
 7804 030c 9F       		.byte	0x9f
 7805 030d 36010000 		.4byte	.LVL54
 7806 0311 42010000 		.4byte	.LVL56
ARM GAS  C:\Users\chemi\AppData\Local\Temp\ccbZzKkH.s 			page 160


 7807 0315 0100     		.2byte	0x1
 7808 0317 55       		.byte	0x55
 7809 0318 4A010000 		.4byte	.LVL57
 7810 031c A8020000 		.4byte	.LVL71
 7811 0320 0100     		.2byte	0x1
 7812 0322 55       		.byte	0x55
 7813 0323 00000000 		.4byte	0
 7814 0327 00000000 		.4byte	0
 7815              	.LLST17:
 7816 032b C8010000 		.4byte	.LVL60
 7817 032f DE010000 		.4byte	.LVL62
 7818 0333 0100     		.2byte	0x1
 7819 0335 50       		.byte	0x50
 7820 0336 E2010000 		.4byte	.LVL63
 7821 033a F4010000 		.4byte	.LVL65
 7822 033e 0100     		.2byte	0x1
 7823 0340 50       		.byte	0x50
 7824 0341 00000000 		.4byte	0
 7825 0345 00000000 		.4byte	0
 7826              	.LLST18:
 7827 0349 DA010000 		.4byte	.LVL61
 7828 034d E8010000 		.4byte	.LVL64
 7829 0351 0100     		.2byte	0x1
 7830 0353 53       		.byte	0x53
 7831 0354 00000000 		.4byte	0
 7832 0358 00000000 		.4byte	0
 7833              	.LLST19:
 7834 035c FE010000 		.4byte	.LVL66
 7835 0360 0C020000 		.4byte	.LVL67
 7836 0364 0100     		.2byte	0x1
 7837 0366 50       		.byte	0x50
 7838 0367 00000000 		.4byte	0
 7839 036b 00000000 		.4byte	0
 7840              	.LLST20:
 7841 036f FE010000 		.4byte	.LVL66
 7842 0373 0C020000 		.4byte	.LVL67
 7843 0377 0100     		.2byte	0x1
 7844 0379 57       		.byte	0x57
 7845 037a 00000000 		.4byte	0
 7846 037e 00000000 		.4byte	0
 7847              	.LLST21:
 7848 0382 FE010000 		.4byte	.LVL66
 7849 0386 0C020000 		.4byte	.LVL67
 7850 038a 0300     		.2byte	0x3
 7851 038c 91       		.byte	0x91
 7852 038d 40       		.sleb128 -64
 7853 038e 9F       		.byte	0x9f
 7854 038f 00000000 		.4byte	0
 7855 0393 00000000 		.4byte	0
 7856              	.LLST22:
 7857 0397 60020000 		.4byte	.LVL68
 7858 039b 6E020000 		.4byte	.LVL69
 7859 039f 0100     		.2byte	0x1
 7860 03a1 50       		.byte	0x50
 7861 03a2 00000000 		.4byte	0
 7862 03a6 00000000 		.4byte	0
 7863              	.LLST23:
ARM GAS  C:\Users\chemi\AppData\Local\Temp\ccbZzKkH.s 			page 161


 7864 03aa 60020000 		.4byte	.LVL68
 7865 03ae 6E020000 		.4byte	.LVL69
 7866 03b2 0100     		.2byte	0x1
 7867 03b4 57       		.byte	0x57
 7868 03b5 00000000 		.4byte	0
 7869 03b9 00000000 		.4byte	0
 7870              	.LLST24:
 7871 03bd 60020000 		.4byte	.LVL68
 7872 03c1 6E020000 		.4byte	.LVL69
 7873 03c5 0300     		.2byte	0x3
 7874 03c7 91       		.byte	0x91
 7875 03c8 40       		.sleb128 -64
 7876 03c9 9F       		.byte	0x9f
 7877 03ca 00000000 		.4byte	0
 7878 03ce 00000000 		.4byte	0
 7879              	.LLST25:
 7880 03d2 40010000 		.4byte	.LVL55
 7881 03d6 4A010000 		.4byte	.LVL57
 7882 03da 0200     		.2byte	0x2
 7883 03dc 30       		.byte	0x30
 7884 03dd 9F       		.byte	0x9f
 7885 03de A8020000 		.4byte	.LVL71
 7886 03e2 56030000 		.4byte	.LVL87
 7887 03e6 0100     		.2byte	0x1
 7888 03e8 55       		.byte	0x55
 7889 03e9 66030000 		.4byte	.LVL90
 7890 03ed 68030000 		.4byte	.LVL91
 7891 03f1 0200     		.2byte	0x2
 7892 03f3 30       		.byte	0x30
 7893 03f4 9F       		.byte	0x9f
 7894 03f5 68030000 		.4byte	.LVL91
 7895 03f9 A2030000 		.4byte	.LVL93
 7896 03fd 0100     		.2byte	0x1
 7897 03ff 55       		.byte	0x55
 7898 0400 B2030000 		.4byte	.LVL96
 7899 0404 B6030000 		.4byte	.LVL97
 7900 0408 0200     		.2byte	0x2
 7901 040a 30       		.byte	0x30
 7902 040b 9F       		.byte	0x9f
 7903 040c B6030000 		.4byte	.LVL97
 7904 0410 EA030000 		.4byte	.LVL99
 7905 0414 0100     		.2byte	0x1
 7906 0416 55       		.byte	0x55
 7907 0417 00000000 		.4byte	0
 7908 041b 00000000 		.4byte	0
 7909              	.LLST26:
 7910 041f 0C030000 		.4byte	.LVL80
 7911 0423 26030000 		.4byte	.LVL82
 7912 0427 0100     		.2byte	0x1
 7913 0429 50       		.byte	0x50
 7914 042a 2A030000 		.4byte	.LVL83
 7915 042e 40030000 		.4byte	.LVL85
 7916 0432 0100     		.2byte	0x1
 7917 0434 50       		.byte	0x50
 7918 0435 00000000 		.4byte	0
 7919 0439 00000000 		.4byte	0
 7920              	.LLST27:
ARM GAS  C:\Users\chemi\AppData\Local\Temp\ccbZzKkH.s 			page 162


 7921 043d 22030000 		.4byte	.LVL81
 7922 0441 32030000 		.4byte	.LVL84
 7923 0445 0100     		.2byte	0x1
 7924 0447 51       		.byte	0x51
 7925 0448 00000000 		.4byte	0
 7926 044c 00000000 		.4byte	0
 7927              	.LLST28:
 7928 0450 50030000 		.4byte	.LVL86
 7929 0454 5E030000 		.4byte	.LVL88
 7930 0458 0100     		.2byte	0x1
 7931 045a 51       		.byte	0x51
 7932 045b 00000000 		.4byte	0
 7933 045f 00000000 		.4byte	0
 7934              	.LLST29:
 7935 0463 50030000 		.4byte	.LVL86
 7936 0467 62030000 		.4byte	.LVL89
 7937 046b 0100     		.2byte	0x1
 7938 046d 56       		.byte	0x56
 7939 046e 00000000 		.4byte	0
 7940 0472 00000000 		.4byte	0
 7941              	.LLST30:
 7942 0476 50030000 		.4byte	.LVL86
 7943 047a 62030000 		.4byte	.LVL89
 7944 047e 0300     		.2byte	0x3
 7945 0480 91       		.byte	0x91
 7946 0481 40       		.sleb128 -64
 7947 0482 9F       		.byte	0x9f
 7948 0483 00000000 		.4byte	0
 7949 0487 00000000 		.4byte	0
 7950              	.LLST31:
 7951 048b 9C030000 		.4byte	.LVL92
 7952 048f AA030000 		.4byte	.LVL94
 7953 0493 0100     		.2byte	0x1
 7954 0495 53       		.byte	0x53
 7955 0496 00000000 		.4byte	0
 7956 049a 00000000 		.4byte	0
 7957              	.LLST32:
 7958 049e 9C030000 		.4byte	.LVL92
 7959 04a2 AE030000 		.4byte	.LVL95
 7960 04a6 0100     		.2byte	0x1
 7961 04a8 50       		.byte	0x50
 7962 04a9 00000000 		.4byte	0
 7963 04ad 00000000 		.4byte	0
 7964              	.LLST33:
 7965 04b1 9C030000 		.4byte	.LVL92
 7966 04b5 AE030000 		.4byte	.LVL95
 7967 04b9 0300     		.2byte	0x3
 7968 04bb 91       		.byte	0x91
 7969 04bc 40       		.sleb128 -64
 7970 04bd 9F       		.byte	0x9f
 7971 04be 00000000 		.4byte	0
 7972 04c2 00000000 		.4byte	0
 7973              	.LLST34:
 7974 04c6 00000000 		.4byte	.LVL111
 7975 04ca 04000000 		.4byte	.LVL113
 7976 04ce 0100     		.2byte	0x1
 7977 04d0 50       		.byte	0x50
ARM GAS  C:\Users\chemi\AppData\Local\Temp\ccbZzKkH.s 			page 163


 7978 04d1 04000000 		.4byte	.LVL113
 7979 04d5 20000000 		.4byte	.LFE70
 7980 04d9 0400     		.2byte	0x4
 7981 04db F3       		.byte	0xf3
 7982 04dc 01       		.uleb128 0x1
 7983 04dd 50       		.byte	0x50
 7984 04de 9F       		.byte	0x9f
 7985 04df 00000000 		.4byte	0
 7986 04e3 00000000 		.4byte	0
 7987              	.LLST35:
 7988 04e7 00000000 		.4byte	.LVL111
 7989 04eb 06000000 		.4byte	.LVL114
 7990 04ef 0100     		.2byte	0x1
 7991 04f1 51       		.byte	0x51
 7992 04f2 06000000 		.4byte	.LVL114
 7993 04f6 20000000 		.4byte	.LFE70
 7994 04fa 0400     		.2byte	0x4
 7995 04fc F3       		.byte	0xf3
 7996 04fd 01       		.uleb128 0x1
 7997 04fe 51       		.byte	0x51
 7998 04ff 9F       		.byte	0x9f
 7999 0500 00000000 		.4byte	0
 8000 0504 00000000 		.4byte	0
 8001              	.LLST36:
 8002 0508 00000000 		.4byte	.LVL111
 8003 050c 02000000 		.4byte	.LVL112
 8004 0510 0100     		.2byte	0x1
 8005 0512 52       		.byte	0x52
 8006 0513 02000000 		.4byte	.LVL112
 8007 0517 20000000 		.4byte	.LFE70
 8008 051b 0400     		.2byte	0x4
 8009 051d F3       		.byte	0xf3
 8010 051e 01       		.uleb128 0x1
 8011 051f 52       		.byte	0x52
 8012 0520 9F       		.byte	0x9f
 8013 0521 00000000 		.4byte	0
 8014 0525 00000000 		.4byte	0
 8015              	.LLST37:
 8016 0529 24000000 		.4byte	.LVL121
 8017 052d 2D000000 		.4byte	.LVL122-1
 8018 0531 0100     		.2byte	0x1
 8019 0533 50       		.byte	0x50
 8020 0534 2D000000 		.4byte	.LVL122-1
 8021 0538 64000000 		.4byte	.LVL128
 8022 053c 0100     		.2byte	0x1
 8023 053e 54       		.byte	0x54
 8024 053f 00000000 		.4byte	0
 8025 0543 00000000 		.4byte	0
 8026              	.LLST38:
 8027 0547 00000000 		.4byte	.LVL115
 8028 054b 0E000000 		.4byte	.LVL116
 8029 054f 0200     		.2byte	0x2
 8030 0551 30       		.byte	0x30
 8031 0552 9F       		.byte	0x9f
 8032 0553 0E000000 		.4byte	.LVL116
 8033 0557 12000000 		.4byte	.LVL117
 8034 055b 0200     		.2byte	0x2
ARM GAS  C:\Users\chemi\AppData\Local\Temp\ccbZzKkH.s 			page 164


 8035 055d 33       		.byte	0x33
 8036 055e 9F       		.byte	0x9f
 8037 055f 12000000 		.4byte	.LVL117
 8038 0563 16000000 		.4byte	.LVL118
 8039 0567 0200     		.2byte	0x2
 8040 0569 34       		.byte	0x34
 8041 056a 9F       		.byte	0x9f
 8042 056b 16000000 		.4byte	.LVL118
 8043 056f 1E000000 		.4byte	.LVL119
 8044 0573 0200     		.2byte	0x2
 8045 0575 35       		.byte	0x35
 8046 0576 9F       		.byte	0x9f
 8047 0577 1E000000 		.4byte	.LVL119
 8048 057b 7C000000 		.4byte	.LFE71
 8049 057f 0200     		.2byte	0x2
 8050 0581 36       		.byte	0x36
 8051 0582 9F       		.byte	0x9f
 8052 0583 00000000 		.4byte	0
 8053 0587 00000000 		.4byte	0
 8054              	.LLST39:
 8055 058b 00000000 		.4byte	.LVL129
 8056 058f 10000000 		.4byte	.LVL130
 8057 0593 0200     		.2byte	0x2
 8058 0595 30       		.byte	0x30
 8059 0596 9F       		.byte	0x9f
 8060 0597 10000000 		.4byte	.LVL130
 8061 059b 5E000000 		.4byte	.LVL138
 8062 059f 0100     		.2byte	0x1
 8063 05a1 54       		.byte	0x54
 8064 05a2 5E000000 		.4byte	.LVL138
 8065 05a6 68000000 		.4byte	.LFE72
 8066 05aa 0100     		.2byte	0x1
 8067 05ac 50       		.byte	0x50
 8068 05ad 00000000 		.4byte	0
 8069 05b1 00000000 		.4byte	0
 8070              	.LLST40:
 8071 05b5 00000000 		.4byte	.LVL129
 8072 05b9 10000000 		.4byte	.LVL130
 8073 05bd 0200     		.2byte	0x2
 8074 05bf 30       		.byte	0x30
 8075 05c0 9F       		.byte	0x9f
 8076 05c1 10000000 		.4byte	.LVL130
 8077 05c5 5E000000 		.4byte	.LVL138
 8078 05c9 0100     		.2byte	0x1
 8079 05cb 55       		.byte	0x55
 8080 05cc 00000000 		.4byte	0
 8081 05d0 00000000 		.4byte	0
 8082              	.LLST41:
 8083 05d4 24000000 		.4byte	.LVL131
 8084 05d8 40000000 		.4byte	.LVL133
 8085 05dc 0100     		.2byte	0x1
 8086 05de 52       		.byte	0x52
 8087 05df 00000000 		.4byte	0
 8088 05e3 00000000 		.4byte	0
 8089              	.LLST42:
 8090 05e7 00000000 		.4byte	.LVL139
 8091 05eb 0A000000 		.4byte	.LVL140
ARM GAS  C:\Users\chemi\AppData\Local\Temp\ccbZzKkH.s 			page 165


 8092 05ef 0100     		.2byte	0x1
 8093 05f1 50       		.byte	0x50
 8094 05f2 0A000000 		.4byte	.LVL140
 8095 05f6 14000000 		.4byte	.LFE74
 8096 05fa 0400     		.2byte	0x4
 8097 05fc F3       		.byte	0xf3
 8098 05fd 01       		.uleb128 0x1
 8099 05fe 50       		.byte	0x50
 8100 05ff 9F       		.byte	0x9f
 8101 0600 00000000 		.4byte	0
 8102 0604 00000000 		.4byte	0
 8103              	.LLST43:
 8104 0608 00000000 		.4byte	.LVL141
 8105 060c 08000000 		.4byte	.LVL142
 8106 0610 0100     		.2byte	0x1
 8107 0612 50       		.byte	0x50
 8108 0613 08000000 		.4byte	.LVL142
 8109 0617 34000000 		.4byte	.LVL147
 8110 061b 0100     		.2byte	0x1
 8111 061d 54       		.byte	0x54
 8112 061e 34000000 		.4byte	.LVL147
 8113 0622 37000000 		.4byte	.LVL148-1
 8114 0626 0100     		.2byte	0x1
 8115 0628 50       		.byte	0x50
 8116 0629 37000000 		.4byte	.LVL148-1
 8117 062d 38000000 		.4byte	.LVL148
 8118 0631 0400     		.2byte	0x4
 8119 0633 F3       		.byte	0xf3
 8120 0634 01       		.uleb128 0x1
 8121 0635 50       		.byte	0x50
 8122 0636 9F       		.byte	0x9f
 8123 0637 38000000 		.4byte	.LVL148
 8124 063b 3C000000 		.4byte	.LVL149
 8125 063f 0100     		.2byte	0x1
 8126 0641 54       		.byte	0x54
 8127 0642 3C000000 		.4byte	.LVL149
 8128 0646 40000000 		.4byte	.LFE78
 8129 064a 0400     		.2byte	0x4
 8130 064c F3       		.byte	0xf3
 8131 064d 01       		.uleb128 0x1
 8132 064e 50       		.byte	0x50
 8133 064f 9F       		.byte	0x9f
 8134 0650 00000000 		.4byte	0
 8135 0654 00000000 		.4byte	0
 8136              	.LLST44:
 8137 0658 00000000 		.4byte	.LVL141
 8138 065c 20000000 		.4byte	.LVL145
 8139 0660 0100     		.2byte	0x1
 8140 0662 51       		.byte	0x51
 8141 0663 20000000 		.4byte	.LVL145
 8142 0667 34000000 		.4byte	.LVL147
 8143 066b 0100     		.2byte	0x1
 8144 066d 55       		.byte	0x55
 8145 066e 34000000 		.4byte	.LVL147
 8146 0672 37000000 		.4byte	.LVL148-1
 8147 0676 0100     		.2byte	0x1
 8148 0678 51       		.byte	0x51
ARM GAS  C:\Users\chemi\AppData\Local\Temp\ccbZzKkH.s 			page 166


 8149 0679 37000000 		.4byte	.LVL148-1
 8150 067d 38000000 		.4byte	.LVL148
 8151 0681 0400     		.2byte	0x4
 8152 0683 F3       		.byte	0xf3
 8153 0684 01       		.uleb128 0x1
 8154 0685 51       		.byte	0x51
 8155 0686 9F       		.byte	0x9f
 8156 0687 38000000 		.4byte	.LVL148
 8157 068b 40000000 		.4byte	.LFE78
 8158 068f 0100     		.2byte	0x1
 8159 0691 51       		.byte	0x51
 8160 0692 00000000 		.4byte	0
 8161 0696 00000000 		.4byte	0
 8162              	.LLST45:
 8163 069a 00000000 		.4byte	.LVL141
 8164 069e 0A000000 		.4byte	.LVL143
 8165 06a2 0100     		.2byte	0x1
 8166 06a4 52       		.byte	0x52
 8167 06a5 0A000000 		.4byte	.LVL143
 8168 06a9 25000000 		.4byte	.LVL146-1
 8169 06ad 0100     		.2byte	0x1
 8170 06af 50       		.byte	0x50
 8171 06b0 25000000 		.4byte	.LVL146-1
 8172 06b4 38000000 		.4byte	.LVL148
 8173 06b8 0400     		.2byte	0x4
 8174 06ba F3       		.byte	0xf3
 8175 06bb 01       		.uleb128 0x1
 8176 06bc 52       		.byte	0x52
 8177 06bd 9F       		.byte	0x9f
 8178 06be 38000000 		.4byte	.LVL148
 8179 06c2 40000000 		.4byte	.LFE78
 8180 06c6 0100     		.2byte	0x1
 8181 06c8 50       		.byte	0x50
 8182 06c9 00000000 		.4byte	0
 8183 06cd 00000000 		.4byte	0
 8184              	.LLST46:
 8185 06d1 00000000 		.4byte	.LVL141
 8186 06d5 0E000000 		.4byte	.LVL144
 8187 06d9 0100     		.2byte	0x1
 8188 06db 53       		.byte	0x53
 8189 06dc 0E000000 		.4byte	.LVL144
 8190 06e0 34000000 		.4byte	.LVL147
 8191 06e4 0100     		.2byte	0x1
 8192 06e6 56       		.byte	0x56
 8193 06e7 34000000 		.4byte	.LVL147
 8194 06eb 37000000 		.4byte	.LVL148-1
 8195 06ef 0100     		.2byte	0x1
 8196 06f1 53       		.byte	0x53
 8197 06f2 37000000 		.4byte	.LVL148-1
 8198 06f6 38000000 		.4byte	.LVL148
 8199 06fa 0400     		.2byte	0x4
 8200 06fc F3       		.byte	0xf3
 8201 06fd 01       		.uleb128 0x1
 8202 06fe 53       		.byte	0x53
 8203 06ff 9F       		.byte	0x9f
 8204 0700 38000000 		.4byte	.LVL148
 8205 0704 3C000000 		.4byte	.LVL149
ARM GAS  C:\Users\chemi\AppData\Local\Temp\ccbZzKkH.s 			page 167


 8206 0708 0100     		.2byte	0x1
 8207 070a 56       		.byte	0x56
 8208 070b 3C000000 		.4byte	.LVL149
 8209 070f 40000000 		.4byte	.LFE78
 8210 0713 0400     		.2byte	0x4
 8211 0715 F3       		.byte	0xf3
 8212 0716 01       		.uleb128 0x1
 8213 0717 53       		.byte	0x53
 8214 0718 9F       		.byte	0x9f
 8215 0719 00000000 		.4byte	0
 8216 071d 00000000 		.4byte	0
 8217              	.LLST47:
 8218 0721 00000000 		.4byte	.LVL141
 8219 0725 34000000 		.4byte	.LVL147
 8220 0729 0200     		.2byte	0x2
 8221 072b 91       		.byte	0x91
 8222 072c 00       		.sleb128 0
 8223 072d 34000000 		.4byte	.LVL147
 8224 0731 38000000 		.4byte	.LVL148
 8225 0735 0200     		.2byte	0x2
 8226 0737 7D       		.byte	0x7d
 8227 0738 00       		.sleb128 0
 8228 0739 38000000 		.4byte	.LVL148
 8229 073d 3C000000 		.4byte	.LVL149
 8230 0741 0200     		.2byte	0x2
 8231 0743 91       		.byte	0x91
 8232 0744 00       		.sleb128 0
 8233 0745 3C000000 		.4byte	.LVL149
 8234 0749 40000000 		.4byte	.LFE78
 8235 074d 0200     		.2byte	0x2
 8236 074f 7D       		.byte	0x7d
 8237 0750 00       		.sleb128 0
 8238 0751 00000000 		.4byte	0
 8239 0755 00000000 		.4byte	0
 8240              	.LLST48:
 8241 0759 00000000 		.4byte	.LVL150
 8242 075d 08000000 		.4byte	.LVL151
 8243 0761 0100     		.2byte	0x1
 8244 0763 50       		.byte	0x50
 8245 0764 08000000 		.4byte	.LVL151
 8246 0768 34000000 		.4byte	.LVL156
 8247 076c 0100     		.2byte	0x1
 8248 076e 54       		.byte	0x54
 8249 076f 34000000 		.4byte	.LVL156
 8250 0773 37000000 		.4byte	.LVL157-1
 8251 0777 0100     		.2byte	0x1
 8252 0779 50       		.byte	0x50
 8253 077a 37000000 		.4byte	.LVL157-1
 8254 077e 38000000 		.4byte	.LVL157
 8255 0782 0400     		.2byte	0x4
 8256 0784 F3       		.byte	0xf3
 8257 0785 01       		.uleb128 0x1
 8258 0786 50       		.byte	0x50
 8259 0787 9F       		.byte	0x9f
 8260 0788 38000000 		.4byte	.LVL157
 8261 078c 3C000000 		.4byte	.LVL158
 8262 0790 0100     		.2byte	0x1
ARM GAS  C:\Users\chemi\AppData\Local\Temp\ccbZzKkH.s 			page 168


 8263 0792 54       		.byte	0x54
 8264 0793 3C000000 		.4byte	.LVL158
 8265 0797 40000000 		.4byte	.LFE80
 8266 079b 0400     		.2byte	0x4
 8267 079d F3       		.byte	0xf3
 8268 079e 01       		.uleb128 0x1
 8269 079f 50       		.byte	0x50
 8270 07a0 9F       		.byte	0x9f
 8271 07a1 00000000 		.4byte	0
 8272 07a5 00000000 		.4byte	0
 8273              	.LLST49:
 8274 07a9 00000000 		.4byte	.LVL150
 8275 07ad 20000000 		.4byte	.LVL154
 8276 07b1 0100     		.2byte	0x1
 8277 07b3 51       		.byte	0x51
 8278 07b4 20000000 		.4byte	.LVL154
 8279 07b8 34000000 		.4byte	.LVL156
 8280 07bc 0100     		.2byte	0x1
 8281 07be 55       		.byte	0x55
 8282 07bf 34000000 		.4byte	.LVL156
 8283 07c3 37000000 		.4byte	.LVL157-1
 8284 07c7 0100     		.2byte	0x1
 8285 07c9 51       		.byte	0x51
 8286 07ca 37000000 		.4byte	.LVL157-1
 8287 07ce 38000000 		.4byte	.LVL157
 8288 07d2 0400     		.2byte	0x4
 8289 07d4 F3       		.byte	0xf3
 8290 07d5 01       		.uleb128 0x1
 8291 07d6 51       		.byte	0x51
 8292 07d7 9F       		.byte	0x9f
 8293 07d8 38000000 		.4byte	.LVL157
 8294 07dc 40000000 		.4byte	.LFE80
 8295 07e0 0100     		.2byte	0x1
 8296 07e2 51       		.byte	0x51
 8297 07e3 00000000 		.4byte	0
 8298 07e7 00000000 		.4byte	0
 8299              	.LLST50:
 8300 07eb 00000000 		.4byte	.LVL150
 8301 07ef 0A000000 		.4byte	.LVL152
 8302 07f3 0100     		.2byte	0x1
 8303 07f5 52       		.byte	0x52
 8304 07f6 0A000000 		.4byte	.LVL152
 8305 07fa 25000000 		.4byte	.LVL155-1
 8306 07fe 0100     		.2byte	0x1
 8307 0800 50       		.byte	0x50
 8308 0801 25000000 		.4byte	.LVL155-1
 8309 0805 38000000 		.4byte	.LVL157
 8310 0809 0400     		.2byte	0x4
 8311 080b F3       		.byte	0xf3
 8312 080c 01       		.uleb128 0x1
 8313 080d 52       		.byte	0x52
 8314 080e 9F       		.byte	0x9f
 8315 080f 38000000 		.4byte	.LVL157
 8316 0813 40000000 		.4byte	.LFE80
 8317 0817 0100     		.2byte	0x1
 8318 0819 50       		.byte	0x50
 8319 081a 00000000 		.4byte	0
ARM GAS  C:\Users\chemi\AppData\Local\Temp\ccbZzKkH.s 			page 169


 8320 081e 00000000 		.4byte	0
 8321              	.LLST51:
 8322 0822 00000000 		.4byte	.LVL150
 8323 0826 0E000000 		.4byte	.LVL153
 8324 082a 0100     		.2byte	0x1
 8325 082c 53       		.byte	0x53
 8326 082d 0E000000 		.4byte	.LVL153
 8327 0831 34000000 		.4byte	.LVL156
 8328 0835 0100     		.2byte	0x1
 8329 0837 56       		.byte	0x56
 8330 0838 34000000 		.4byte	.LVL156
 8331 083c 37000000 		.4byte	.LVL157-1
 8332 0840 0100     		.2byte	0x1
 8333 0842 53       		.byte	0x53
 8334 0843 37000000 		.4byte	.LVL157-1
 8335 0847 38000000 		.4byte	.LVL157
 8336 084b 0400     		.2byte	0x4
 8337 084d F3       		.byte	0xf3
 8338 084e 01       		.uleb128 0x1
 8339 084f 53       		.byte	0x53
 8340 0850 9F       		.byte	0x9f
 8341 0851 38000000 		.4byte	.LVL157
 8342 0855 3C000000 		.4byte	.LVL158
 8343 0859 0100     		.2byte	0x1
 8344 085b 56       		.byte	0x56
 8345 085c 3C000000 		.4byte	.LVL158
 8346 0860 40000000 		.4byte	.LFE80
 8347 0864 0400     		.2byte	0x4
 8348 0866 F3       		.byte	0xf3
 8349 0867 01       		.uleb128 0x1
 8350 0868 53       		.byte	0x53
 8351 0869 9F       		.byte	0x9f
 8352 086a 00000000 		.4byte	0
 8353 086e 00000000 		.4byte	0
 8354              	.LLST52:
 8355 0872 00000000 		.4byte	.LVL150
 8356 0876 34000000 		.4byte	.LVL156
 8357 087a 0200     		.2byte	0x2
 8358 087c 91       		.byte	0x91
 8359 087d 00       		.sleb128 0
 8360 087e 34000000 		.4byte	.LVL156
 8361 0882 38000000 		.4byte	.LVL157
 8362 0886 0200     		.2byte	0x2
 8363 0888 7D       		.byte	0x7d
 8364 0889 00       		.sleb128 0
 8365 088a 38000000 		.4byte	.LVL157
 8366 088e 3C000000 		.4byte	.LVL158
 8367 0892 0200     		.2byte	0x2
 8368 0894 91       		.byte	0x91
 8369 0895 00       		.sleb128 0
 8370 0896 3C000000 		.4byte	.LVL158
 8371 089a 40000000 		.4byte	.LFE80
 8372 089e 0200     		.2byte	0x2
 8373 08a0 7D       		.byte	0x7d
 8374 08a1 00       		.sleb128 0
 8375 08a2 00000000 		.4byte	0
 8376 08a6 00000000 		.4byte	0
ARM GAS  C:\Users\chemi\AppData\Local\Temp\ccbZzKkH.s 			page 170


 8377              	.LLST53:
 8378 08aa 18000000 		.4byte	.LVL160
 8379 08ae 1F000000 		.4byte	.LVL161-1
 8380 08b2 0100     		.2byte	0x1
 8381 08b4 50       		.byte	0x50
 8382 08b5 1F000000 		.4byte	.LVL161-1
 8383 08b9 40000000 		.4byte	.LVL165
 8384 08bd 0100     		.2byte	0x1
 8385 08bf 54       		.byte	0x54
 8386 08c0 00000000 		.4byte	0
 8387 08c4 00000000 		.4byte	0
 8388              	.LLST54:
 8389 08c8 18000000 		.4byte	.LVL160
 8390 08cc 4E000000 		.4byte	.LVL166
 8391 08d0 0100     		.2byte	0x1
 8392 08d2 55       		.byte	0x55
 8393 08d3 00000000 		.4byte	0
 8394 08d7 00000000 		.4byte	0
 8395              	.LLST55:
 8396 08db 18000000 		.4byte	.LVL160
 8397 08df 52000000 		.4byte	.LVL167
 8398 08e3 0400     		.2byte	0x4
 8399 08e5 0A       		.byte	0xa
 8400 08e6 FF7F     		.2byte	0x7fff
 8401 08e8 9F       		.byte	0x9f
 8402 08e9 52000000 		.4byte	.LVL167
 8403 08ed F0000000 		.4byte	.LVL184
 8404 08f1 0100     		.2byte	0x1
 8405 08f3 54       		.byte	0x54
 8406 08f4 00000000 		.4byte	0
 8407 08f8 00000000 		.4byte	0
 8408              	.LLST56:
 8409 08fc 58000000 		.4byte	.LVL168
 8410 0900 F0000000 		.4byte	.LVL184
 8411 0904 0100     		.2byte	0x1
 8412 0906 55       		.byte	0x55
 8413 0907 00000000 		.4byte	0
 8414 090b 00000000 		.4byte	0
 8415              	.LLST57:
 8416 090f 68000000 		.4byte	.LVL169
 8417 0913 6E000000 		.4byte	.LVL171
 8418 0917 0100     		.2byte	0x1
 8419 0919 56       		.byte	0x56
 8420 091a 74000000 		.4byte	.LVL172
 8421 091e 8E000000 		.4byte	.LVL175
 8422 0922 0100     		.2byte	0x1
 8423 0924 56       		.byte	0x56
 8424 0925 A6000000 		.4byte	.LVL176
 8425 0929 AC000000 		.4byte	.LVL178
 8426 092d 0100     		.2byte	0x1
 8427 092f 56       		.byte	0x56
 8428 0930 B2000000 		.4byte	.LVL179
 8429 0934 CA000000 		.4byte	.LVL182
 8430 0938 0100     		.2byte	0x1
 8431 093a 56       		.byte	0x56
 8432 093b 00000000 		.4byte	0
 8433 093f 00000000 		.4byte	0
ARM GAS  C:\Users\chemi\AppData\Local\Temp\ccbZzKkH.s 			page 171


 8434              	.LLST58:
 8435 0943 00000000 		.4byte	.LVL185
 8436 0947 38000000 		.4byte	.LVL191
 8437 094b 0100     		.2byte	0x1
 8438 094d 50       		.byte	0x50
 8439 094e 38000000 		.4byte	.LVL191
 8440 0952 FA000000 		.4byte	.LVL196
 8441 0956 0100     		.2byte	0x1
 8442 0958 55       		.byte	0x55
 8443 0959 FA000000 		.4byte	.LVL196
 8444 095d 10010000 		.4byte	.LFE75
 8445 0961 0400     		.2byte	0x4
 8446 0963 F3       		.byte	0xf3
 8447 0964 01       		.uleb128 0x1
 8448 0965 50       		.byte	0x50
 8449 0966 9F       		.byte	0x9f
 8450 0967 00000000 		.4byte	0
 8451 096b 00000000 		.4byte	0
 8452              	.LLST59:
 8453 096f 00000000 		.4byte	.LVL185
 8454 0973 36000000 		.4byte	.LVL190
 8455 0977 0100     		.2byte	0x1
 8456 0979 51       		.byte	0x51
 8457 097a 36000000 		.4byte	.LVL190
 8458 097e 10010000 		.4byte	.LFE75
 8459 0982 0400     		.2byte	0x4
 8460 0984 F3       		.byte	0xf3
 8461 0985 01       		.uleb128 0x1
 8462 0986 51       		.byte	0x51
 8463 0987 9F       		.byte	0x9f
 8464 0988 00000000 		.4byte	0
 8465 098c 00000000 		.4byte	0
 8466              	.LLST60:
 8467 0990 00000000 		.4byte	.LVL185
 8468 0994 0E000000 		.4byte	.LVL186
 8469 0998 0100     		.2byte	0x1
 8470 099a 52       		.byte	0x52
 8471 099b 0E000000 		.4byte	.LVL186
 8472 099f FA000000 		.4byte	.LVL196
 8473 09a3 0100     		.2byte	0x1
 8474 09a5 5B       		.byte	0x5b
 8475 09a6 FA000000 		.4byte	.LVL196
 8476 09aa 10010000 		.4byte	.LFE75
 8477 09ae 0400     		.2byte	0x4
 8478 09b0 F3       		.byte	0xf3
 8479 09b1 01       		.uleb128 0x1
 8480 09b2 52       		.byte	0x52
 8481 09b3 9F       		.byte	0x9f
 8482 09b4 00000000 		.4byte	0
 8483 09b8 00000000 		.4byte	0
 8484              	.LLST61:
 8485 09bc 00000000 		.4byte	.LVL185
 8486 09c0 10000000 		.4byte	.LVL187
 8487 09c4 0100     		.2byte	0x1
 8488 09c6 53       		.byte	0x53
 8489 09c7 10000000 		.4byte	.LVL187
 8490 09cb FA000000 		.4byte	.LVL196
ARM GAS  C:\Users\chemi\AppData\Local\Temp\ccbZzKkH.s 			page 172


 8491 09cf 0100     		.2byte	0x1
 8492 09d1 57       		.byte	0x57
 8493 09d2 FA000000 		.4byte	.LVL196
 8494 09d6 10010000 		.4byte	.LFE75
 8495 09da 0400     		.2byte	0x4
 8496 09dc F3       		.byte	0xf3
 8497 09dd 01       		.uleb128 0x1
 8498 09de 53       		.byte	0x53
 8499 09df 9F       		.byte	0x9f
 8500 09e0 00000000 		.4byte	0
 8501 09e4 00000000 		.4byte	0
 8502              	.LLST62:
 8503 09e8 00000000 		.4byte	.LVL185
 8504 09ec FA000000 		.4byte	.LVL196
 8505 09f0 0200     		.2byte	0x2
 8506 09f2 91       		.byte	0x91
 8507 09f3 00       		.sleb128 0
 8508 09f4 FA000000 		.4byte	.LVL196
 8509 09f8 10010000 		.4byte	.LFE75
 8510 09fc 0200     		.2byte	0x2
 8511 09fe 7D       		.byte	0x7d
 8512 09ff 00       		.sleb128 0
 8513 0a00 00000000 		.4byte	0
 8514 0a04 00000000 		.4byte	0
 8515              	.LLST63:
 8516 0a08 00000000 		.4byte	.LVL185
 8517 0a0c 0E000000 		.4byte	.LVL186
 8518 0a10 0200     		.2byte	0x2
 8519 0a12 91       		.byte	0x91
 8520 0a13 04       		.sleb128 4
 8521 0a14 0E000000 		.4byte	.LVL186
 8522 0a18 16000000 		.4byte	.LVL188
 8523 0a1c 0200     		.2byte	0x2
 8524 0a1e 72       		.byte	0x72
 8525 0a1f 00       		.sleb128 0
 8526 0a20 16000000 		.4byte	.LVL188
 8527 0a24 FA000000 		.4byte	.LVL196
 8528 0a28 0200     		.2byte	0x2
 8529 0a2a 91       		.byte	0x91
 8530 0a2b 04       		.sleb128 4
 8531 0a2c FA000000 		.4byte	.LVL196
 8532 0a30 10010000 		.4byte	.LFE75
 8533 0a34 0200     		.2byte	0x2
 8534 0a36 7D       		.byte	0x7d
 8535 0a37 04       		.sleb128 4
 8536 0a38 00000000 		.4byte	0
 8537 0a3c 00000000 		.4byte	0
 8538              	.LLST64:
 8539 0a40 00000000 		.4byte	.LVL185
 8540 0a44 FA000000 		.4byte	.LVL196
 8541 0a48 0200     		.2byte	0x2
 8542 0a4a 91       		.byte	0x91
 8543 0a4b 08       		.sleb128 8
 8544 0a4c FA000000 		.4byte	.LVL196
 8545 0a50 10010000 		.4byte	.LFE75
 8546 0a54 0200     		.2byte	0x2
 8547 0a56 7D       		.byte	0x7d
ARM GAS  C:\Users\chemi\AppData\Local\Temp\ccbZzKkH.s 			page 173


 8548 0a57 08       		.sleb128 8
 8549 0a58 00000000 		.4byte	0
 8550 0a5c 00000000 		.4byte	0
 8551              	.LLST65:
 8552 0a60 00000000 		.4byte	.LVL185
 8553 0a64 FA000000 		.4byte	.LVL196
 8554 0a68 0200     		.2byte	0x2
 8555 0a6a 91       		.byte	0x91
 8556 0a6b 0C       		.sleb128 12
 8557 0a6c FA000000 		.4byte	.LVL196
 8558 0a70 10010000 		.4byte	.LFE75
 8559 0a74 0200     		.2byte	0x2
 8560 0a76 7D       		.byte	0x7d
 8561 0a77 0C       		.sleb128 12
 8562 0a78 00000000 		.4byte	0
 8563 0a7c 00000000 		.4byte	0
 8564              	.LLST66:
 8565 0a80 30000000 		.4byte	.LVL189
 8566 0a84 FA000000 		.4byte	.LVL196
 8567 0a88 0100     		.2byte	0x1
 8568 0a8a 56       		.byte	0x56
 8569 0a8b 00000000 		.4byte	0
 8570 0a8f 00000000 		.4byte	0
 8571              	.LLST67:
 8572 0a93 B8000000 		.4byte	.LVL193
 8573 0a97 D0000000 		.4byte	.LVL194
 8574 0a9b 0100     		.2byte	0x1
 8575 0a9d 52       		.byte	0x52
 8576 0a9e 00000000 		.4byte	0
 8577 0aa2 00000000 		.4byte	0
 8578              	.LLST68:
 8579 0aa6 00000000 		.4byte	.LVL198
 8580 0aaa 18000000 		.4byte	.LVL202
 8581 0aae 0100     		.2byte	0x1
 8582 0ab0 50       		.byte	0x50
 8583 0ab1 18000000 		.4byte	.LVL202
 8584 0ab5 40000000 		.4byte	.LVL206
 8585 0ab9 0100     		.2byte	0x1
 8586 0abb 56       		.byte	0x56
 8587 0abc 40000000 		.4byte	.LVL206
 8588 0ac0 43000000 		.4byte	.LVL207-1
 8589 0ac4 0100     		.2byte	0x1
 8590 0ac6 50       		.byte	0x50
 8591 0ac7 43000000 		.4byte	.LVL207-1
 8592 0acb 44000000 		.4byte	.LVL207
 8593 0acf 0400     		.2byte	0x4
 8594 0ad1 F3       		.byte	0xf3
 8595 0ad2 01       		.uleb128 0x1
 8596 0ad3 50       		.byte	0x50
 8597 0ad4 9F       		.byte	0x9f
 8598 0ad5 44000000 		.4byte	.LVL207
 8599 0ad9 48000000 		.4byte	.LVL208
 8600 0add 0100     		.2byte	0x1
 8601 0adf 56       		.byte	0x56
 8602 0ae0 48000000 		.4byte	.LVL208
 8603 0ae4 4C000000 		.4byte	.LFE77
 8604 0ae8 0400     		.2byte	0x4
ARM GAS  C:\Users\chemi\AppData\Local\Temp\ccbZzKkH.s 			page 174


 8605 0aea F3       		.byte	0xf3
 8606 0aeb 01       		.uleb128 0x1
 8607 0aec 50       		.byte	0x50
 8608 0aed 9F       		.byte	0x9f
 8609 0aee 00000000 		.4byte	0
 8610 0af2 00000000 		.4byte	0
 8611              	.LLST69:
 8612 0af6 00000000 		.4byte	.LVL198
 8613 0afa 1E000000 		.4byte	.LVL203
 8614 0afe 0100     		.2byte	0x1
 8615 0b00 51       		.byte	0x51
 8616 0b01 1E000000 		.4byte	.LVL203
 8617 0b05 40000000 		.4byte	.LVL206
 8618 0b09 0100     		.2byte	0x1
 8619 0b0b 57       		.byte	0x57
 8620 0b0c 40000000 		.4byte	.LVL206
 8621 0b10 43000000 		.4byte	.LVL207-1
 8622 0b14 0100     		.2byte	0x1
 8623 0b16 51       		.byte	0x51
 8624 0b17 43000000 		.4byte	.LVL207-1
 8625 0b1b 44000000 		.4byte	.LVL207
 8626 0b1f 0400     		.2byte	0x4
 8627 0b21 F3       		.byte	0xf3
 8628 0b22 01       		.uleb128 0x1
 8629 0b23 51       		.byte	0x51
 8630 0b24 9F       		.byte	0x9f
 8631 0b25 44000000 		.4byte	.LVL207
 8632 0b29 4C000000 		.4byte	.LFE77
 8633 0b2d 0100     		.2byte	0x1
 8634 0b2f 51       		.byte	0x51
 8635 0b30 00000000 		.4byte	0
 8636 0b34 00000000 		.4byte	0
 8637              	.LLST70:
 8638 0b38 00000000 		.4byte	.LVL198
 8639 0b3c 22000000 		.4byte	.LVL204
 8640 0b40 0100     		.2byte	0x1
 8641 0b42 52       		.byte	0x52
 8642 0b43 22000000 		.4byte	.LVL204
 8643 0b47 27000000 		.4byte	.LVL205-1
 8644 0b4b 0100     		.2byte	0x1
 8645 0b4d 50       		.byte	0x50
 8646 0b4e 27000000 		.4byte	.LVL205-1
 8647 0b52 44000000 		.4byte	.LVL207
 8648 0b56 0400     		.2byte	0x4
 8649 0b58 F3       		.byte	0xf3
 8650 0b59 01       		.uleb128 0x1
 8651 0b5a 52       		.byte	0x52
 8652 0b5b 9F       		.byte	0x9f
 8653 0b5c 44000000 		.4byte	.LVL207
 8654 0b60 4C000000 		.4byte	.LFE77
 8655 0b64 0100     		.2byte	0x1
 8656 0b66 50       		.byte	0x50
 8657 0b67 00000000 		.4byte	0
 8658 0b6b 00000000 		.4byte	0
 8659              	.LLST71:
 8660 0b6f 00000000 		.4byte	.LVL198
 8661 0b73 08000000 		.4byte	.LVL199
ARM GAS  C:\Users\chemi\AppData\Local\Temp\ccbZzKkH.s 			page 175


 8662 0b77 0100     		.2byte	0x1
 8663 0b79 53       		.byte	0x53
 8664 0b7a 08000000 		.4byte	.LVL199
 8665 0b7e 40000000 		.4byte	.LVL206
 8666 0b82 0100     		.2byte	0x1
 8667 0b84 58       		.byte	0x58
 8668 0b85 40000000 		.4byte	.LVL206
 8669 0b89 43000000 		.4byte	.LVL207-1
 8670 0b8d 0100     		.2byte	0x1
 8671 0b8f 53       		.byte	0x53
 8672 0b90 43000000 		.4byte	.LVL207-1
 8673 0b94 44000000 		.4byte	.LVL207
 8674 0b98 0400     		.2byte	0x4
 8675 0b9a F3       		.byte	0xf3
 8676 0b9b 01       		.uleb128 0x1
 8677 0b9c 53       		.byte	0x53
 8678 0b9d 9F       		.byte	0x9f
 8679 0b9e 44000000 		.4byte	.LVL207
 8680 0ba2 48000000 		.4byte	.LVL208
 8681 0ba6 0100     		.2byte	0x1
 8682 0ba8 58       		.byte	0x58
 8683 0ba9 48000000 		.4byte	.LVL208
 8684 0bad 4C000000 		.4byte	.LFE77
 8685 0bb1 0400     		.2byte	0x4
 8686 0bb3 F3       		.byte	0xf3
 8687 0bb4 01       		.uleb128 0x1
 8688 0bb5 53       		.byte	0x53
 8689 0bb6 9F       		.byte	0x9f
 8690 0bb7 00000000 		.4byte	0
 8691 0bbb 00000000 		.4byte	0
 8692              	.LLST72:
 8693 0bbf 00000000 		.4byte	.LVL198
 8694 0bc3 0A000000 		.4byte	.LVL200
 8695 0bc7 0200     		.2byte	0x2
 8696 0bc9 91       		.byte	0x91
 8697 0bca 00       		.sleb128 0
 8698 0bcb 0A000000 		.4byte	.LVL200
 8699 0bcf 12000000 		.4byte	.LVL201
 8700 0bd3 0200     		.2byte	0x2
 8701 0bd5 74       		.byte	0x74
 8702 0bd6 00       		.sleb128 0
 8703 0bd7 12000000 		.4byte	.LVL201
 8704 0bdb 40000000 		.4byte	.LVL206
 8705 0bdf 0200     		.2byte	0x2
 8706 0be1 91       		.byte	0x91
 8707 0be2 00       		.sleb128 0
 8708 0be3 40000000 		.4byte	.LVL206
 8709 0be7 44000000 		.4byte	.LVL207
 8710 0beb 0200     		.2byte	0x2
 8711 0bed 7D       		.byte	0x7d
 8712 0bee 00       		.sleb128 0
 8713 0bef 44000000 		.4byte	.LVL207
 8714 0bf3 48000000 		.4byte	.LVL208
 8715 0bf7 0200     		.2byte	0x2
 8716 0bf9 91       		.byte	0x91
 8717 0bfa 00       		.sleb128 0
 8718 0bfb 48000000 		.4byte	.LVL208
ARM GAS  C:\Users\chemi\AppData\Local\Temp\ccbZzKkH.s 			page 176


 8719 0bff 4C000000 		.4byte	.LFE77
 8720 0c03 0200     		.2byte	0x2
 8721 0c05 7D       		.byte	0x7d
 8722 0c06 00       		.sleb128 0
 8723 0c07 00000000 		.4byte	0
 8724 0c0b 00000000 		.4byte	0
 8725              	.LLST73:
 8726 0c0f 00000000 		.4byte	.LVL198
 8727 0c13 0A000000 		.4byte	.LVL200
 8728 0c17 0200     		.2byte	0x2
 8729 0c19 91       		.byte	0x91
 8730 0c1a 04       		.sleb128 4
 8731 0c1b 0A000000 		.4byte	.LVL200
 8732 0c1f 12000000 		.4byte	.LVL201
 8733 0c23 0200     		.2byte	0x2
 8734 0c25 74       		.byte	0x74
 8735 0c26 04       		.sleb128 4
 8736 0c27 12000000 		.4byte	.LVL201
 8737 0c2b 40000000 		.4byte	.LVL206
 8738 0c2f 0200     		.2byte	0x2
 8739 0c31 91       		.byte	0x91
 8740 0c32 04       		.sleb128 4
 8741 0c33 40000000 		.4byte	.LVL206
 8742 0c37 44000000 		.4byte	.LVL207
 8743 0c3b 0200     		.2byte	0x2
 8744 0c3d 7D       		.byte	0x7d
 8745 0c3e 04       		.sleb128 4
 8746 0c3f 44000000 		.4byte	.LVL207
 8747 0c43 48000000 		.4byte	.LVL208
 8748 0c47 0200     		.2byte	0x2
 8749 0c49 91       		.byte	0x91
 8750 0c4a 04       		.sleb128 4
 8751 0c4b 48000000 		.4byte	.LVL208
 8752 0c4f 4C000000 		.4byte	.LFE77
 8753 0c53 0200     		.2byte	0x2
 8754 0c55 7D       		.byte	0x7d
 8755 0c56 04       		.sleb128 4
 8756 0c57 00000000 		.4byte	0
 8757 0c5b 00000000 		.4byte	0
 8758              	.LLST74:
 8759 0c5f 00000000 		.4byte	.LVL198
 8760 0c63 0A000000 		.4byte	.LVL200
 8761 0c67 0200     		.2byte	0x2
 8762 0c69 91       		.byte	0x91
 8763 0c6a 08       		.sleb128 8
 8764 0c6b 0A000000 		.4byte	.LVL200
 8765 0c6f 12000000 		.4byte	.LVL201
 8766 0c73 0200     		.2byte	0x2
 8767 0c75 74       		.byte	0x74
 8768 0c76 08       		.sleb128 8
 8769 0c77 12000000 		.4byte	.LVL201
 8770 0c7b 40000000 		.4byte	.LVL206
 8771 0c7f 0200     		.2byte	0x2
 8772 0c81 91       		.byte	0x91
 8773 0c82 08       		.sleb128 8
 8774 0c83 40000000 		.4byte	.LVL206
 8775 0c87 44000000 		.4byte	.LVL207
ARM GAS  C:\Users\chemi\AppData\Local\Temp\ccbZzKkH.s 			page 177


 8776 0c8b 0200     		.2byte	0x2
 8777 0c8d 7D       		.byte	0x7d
 8778 0c8e 08       		.sleb128 8
 8779 0c8f 44000000 		.4byte	.LVL207
 8780 0c93 48000000 		.4byte	.LVL208
 8781 0c97 0200     		.2byte	0x2
 8782 0c99 91       		.byte	0x91
 8783 0c9a 08       		.sleb128 8
 8784 0c9b 48000000 		.4byte	.LVL208
 8785 0c9f 4C000000 		.4byte	.LFE77
 8786 0ca3 0200     		.2byte	0x2
 8787 0ca5 7D       		.byte	0x7d
 8788 0ca6 08       		.sleb128 8
 8789 0ca7 00000000 		.4byte	0
 8790 0cab 00000000 		.4byte	0
 8791              	.LLST75:
 8792 0caf 00000000 		.4byte	.LVL198
 8793 0cb3 0A000000 		.4byte	.LVL200
 8794 0cb7 0200     		.2byte	0x2
 8795 0cb9 91       		.byte	0x91
 8796 0cba 0C       		.sleb128 12
 8797 0cbb 0A000000 		.4byte	.LVL200
 8798 0cbf 12000000 		.4byte	.LVL201
 8799 0cc3 0200     		.2byte	0x2
 8800 0cc5 74       		.byte	0x74
 8801 0cc6 0C       		.sleb128 12
 8802 0cc7 12000000 		.4byte	.LVL201
 8803 0ccb 40000000 		.4byte	.LVL206
 8804 0ccf 0200     		.2byte	0x2
 8805 0cd1 91       		.byte	0x91
 8806 0cd2 0C       		.sleb128 12
 8807 0cd3 40000000 		.4byte	.LVL206
 8808 0cd7 44000000 		.4byte	.LVL207
 8809 0cdb 0200     		.2byte	0x2
 8810 0cdd 7D       		.byte	0x7d
 8811 0cde 0C       		.sleb128 12
 8812 0cdf 44000000 		.4byte	.LVL207
 8813 0ce3 48000000 		.4byte	.LVL208
 8814 0ce7 0200     		.2byte	0x2
 8815 0ce9 91       		.byte	0x91
 8816 0cea 0C       		.sleb128 12
 8817 0ceb 48000000 		.4byte	.LVL208
 8818 0cef 4C000000 		.4byte	.LFE77
 8819 0cf3 0200     		.2byte	0x2
 8820 0cf5 7D       		.byte	0x7d
 8821 0cf6 0C       		.sleb128 12
 8822 0cf7 00000000 		.4byte	0
 8823 0cfb 00000000 		.4byte	0
 8824              	.LLST76:
 8825 0cff 00000000 		.4byte	.LVL209
 8826 0d03 12000000 		.4byte	.LVL211
 8827 0d07 0100     		.2byte	0x1
 8828 0d09 50       		.byte	0x50
 8829 0d0a 12000000 		.4byte	.LVL211
 8830 0d0e 42000000 		.4byte	.LVL216
 8831 0d12 0100     		.2byte	0x1
 8832 0d14 56       		.byte	0x56
ARM GAS  C:\Users\chemi\AppData\Local\Temp\ccbZzKkH.s 			page 178


 8833 0d15 42000000 		.4byte	.LVL216
 8834 0d19 48000000 		.4byte	.LFE79
 8835 0d1d 0400     		.2byte	0x4
 8836 0d1f F3       		.byte	0xf3
 8837 0d20 01       		.uleb128 0x1
 8838 0d21 50       		.byte	0x50
 8839 0d22 9F       		.byte	0x9f
 8840 0d23 00000000 		.4byte	0
 8841 0d27 00000000 		.4byte	0
 8842              	.LLST77:
 8843 0d2b 00000000 		.4byte	.LVL209
 8844 0d2f 22000000 		.4byte	.LVL213
 8845 0d33 0100     		.2byte	0x1
 8846 0d35 51       		.byte	0x51
 8847 0d36 22000000 		.4byte	.LVL213
 8848 0d3a 42000000 		.4byte	.LVL216
 8849 0d3e 0100     		.2byte	0x1
 8850 0d40 57       		.byte	0x57
 8851 0d41 42000000 		.4byte	.LVL216
 8852 0d45 48000000 		.4byte	.LFE79
 8853 0d49 0400     		.2byte	0x4
 8854 0d4b F3       		.byte	0xf3
 8855 0d4c 01       		.uleb128 0x1
 8856 0d4d 51       		.byte	0x51
 8857 0d4e 9F       		.byte	0x9f
 8858 0d4f 00000000 		.4byte	0
 8859 0d53 00000000 		.4byte	0
 8860              	.LLST78:
 8861 0d57 00000000 		.4byte	.LVL209
 8862 0d5b 1E000000 		.4byte	.LVL212
 8863 0d5f 0100     		.2byte	0x1
 8864 0d61 52       		.byte	0x52
 8865 0d62 1E000000 		.4byte	.LVL212
 8866 0d66 25000000 		.4byte	.LVL214-1
 8867 0d6a 0100     		.2byte	0x1
 8868 0d6c 50       		.byte	0x50
 8869 0d6d 25000000 		.4byte	.LVL214-1
 8870 0d71 48000000 		.4byte	.LFE79
 8871 0d75 0400     		.2byte	0x4
 8872 0d77 F3       		.byte	0xf3
 8873 0d78 01       		.uleb128 0x1
 8874 0d79 52       		.byte	0x52
 8875 0d7a 9F       		.byte	0x9f
 8876 0d7b 00000000 		.4byte	0
 8877 0d7f 00000000 		.4byte	0
 8878              	.LLST79:
 8879 0d83 00000000 		.4byte	.LVL209
 8880 0d87 08000000 		.4byte	.LVL210
 8881 0d8b 0100     		.2byte	0x1
 8882 0d8d 53       		.byte	0x53
 8883 0d8e 08000000 		.4byte	.LVL210
 8884 0d92 42000000 		.4byte	.LVL216
 8885 0d96 0100     		.2byte	0x1
 8886 0d98 58       		.byte	0x58
 8887 0d99 42000000 		.4byte	.LVL216
 8888 0d9d 48000000 		.4byte	.LFE79
 8889 0da1 0400     		.2byte	0x4
ARM GAS  C:\Users\chemi\AppData\Local\Temp\ccbZzKkH.s 			page 179


 8890 0da3 F3       		.byte	0xf3
 8891 0da4 01       		.uleb128 0x1
 8892 0da5 53       		.byte	0x53
 8893 0da6 9F       		.byte	0x9f
 8894 0da7 00000000 		.4byte	0
 8895 0dab 00000000 		.4byte	0
 8896              	.LLST80:
 8897 0daf 00000000 		.4byte	.LVL209
 8898 0db3 42000000 		.4byte	.LVL216
 8899 0db7 0200     		.2byte	0x2
 8900 0db9 91       		.byte	0x91
 8901 0dba 00       		.sleb128 0
 8902 0dbb 42000000 		.4byte	.LVL216
 8903 0dbf 48000000 		.4byte	.LFE79
 8904 0dc3 0200     		.2byte	0x2
 8905 0dc5 7D       		.byte	0x7d
 8906 0dc6 00       		.sleb128 0
 8907 0dc7 00000000 		.4byte	0
 8908 0dcb 00000000 		.4byte	0
 8909              	.LLST81:
 8910 0dcf 00000000 		.4byte	.LVL209
 8911 0dd3 42000000 		.4byte	.LVL216
 8912 0dd7 0200     		.2byte	0x2
 8913 0dd9 91       		.byte	0x91
 8914 0dda 04       		.sleb128 4
 8915 0ddb 42000000 		.4byte	.LVL216
 8916 0ddf 48000000 		.4byte	.LFE79
 8917 0de3 0200     		.2byte	0x2
 8918 0de5 7D       		.byte	0x7d
 8919 0de6 04       		.sleb128 4
 8920 0de7 00000000 		.4byte	0
 8921 0deb 00000000 		.4byte	0
 8922              	.LLST82:
 8923 0def 00000000 		.4byte	.LVL217
 8924 0df3 06000000 		.4byte	.LVL218
 8925 0df7 0100     		.2byte	0x1
 8926 0df9 50       		.byte	0x50
 8927 0dfa 06000000 		.4byte	.LVL218
 8928 0dfe 28000000 		.4byte	.LVL223
 8929 0e02 0100     		.2byte	0x1
 8930 0e04 54       		.byte	0x54
 8931 0e05 28000000 		.4byte	.LVL223
 8932 0e09 2C000000 		.4byte	.LFE81
 8933 0e0d 0400     		.2byte	0x4
 8934 0e0f F3       		.byte	0xf3
 8935 0e10 01       		.uleb128 0x1
 8936 0e11 50       		.byte	0x50
 8937 0e12 9F       		.byte	0x9f
 8938 0e13 00000000 		.4byte	0
 8939 0e17 00000000 		.4byte	0
 8940              	.LLST83:
 8941 0e1b 00000000 		.4byte	.LVL217
 8942 0e1f 20000000 		.4byte	.LVL221
 8943 0e23 0100     		.2byte	0x1
 8944 0e25 51       		.byte	0x51
 8945 0e26 20000000 		.4byte	.LVL221
 8946 0e2a 23000000 		.4byte	.LVL222-1
ARM GAS  C:\Users\chemi\AppData\Local\Temp\ccbZzKkH.s 			page 180


 8947 0e2e 0100     		.2byte	0x1
 8948 0e30 52       		.byte	0x52
 8949 0e31 23000000 		.4byte	.LVL222-1
 8950 0e35 2C000000 		.4byte	.LFE81
 8951 0e39 0400     		.2byte	0x4
 8952 0e3b F3       		.byte	0xf3
 8953 0e3c 01       		.uleb128 0x1
 8954 0e3d 51       		.byte	0x51
 8955 0e3e 9F       		.byte	0x9f
 8956 0e3f 00000000 		.4byte	0
 8957 0e43 00000000 		.4byte	0
 8958              	.LLST84:
 8959 0e47 00000000 		.4byte	.LVL217
 8960 0e4b 1C000000 		.4byte	.LVL220
 8961 0e4f 0100     		.2byte	0x1
 8962 0e51 52       		.byte	0x52
 8963 0e52 1C000000 		.4byte	.LVL220
 8964 0e56 23000000 		.4byte	.LVL222-1
 8965 0e5a 0100     		.2byte	0x1
 8966 0e5c 53       		.byte	0x53
 8967 0e5d 23000000 		.4byte	.LVL222-1
 8968 0e61 2C000000 		.4byte	.LFE81
 8969 0e65 0400     		.2byte	0x4
 8970 0e67 F3       		.byte	0xf3
 8971 0e68 01       		.uleb128 0x1
 8972 0e69 52       		.byte	0x52
 8973 0e6a 9F       		.byte	0x9f
 8974 0e6b 00000000 		.4byte	0
 8975 0e6f 00000000 		.4byte	0
 8976              	.LLST85:
 8977 0e73 00000000 		.4byte	.LVL217
 8978 0e77 16000000 		.4byte	.LVL219
 8979 0e7b 0100     		.2byte	0x1
 8980 0e7d 53       		.byte	0x53
 8981 0e7e 16000000 		.4byte	.LVL219
 8982 0e82 23000000 		.4byte	.LVL222-1
 8983 0e86 0200     		.2byte	0x2
 8984 0e88 7D       		.byte	0x7d
 8985 0e89 00       		.sleb128 0
 8986 0e8a 23000000 		.4byte	.LVL222-1
 8987 0e8e 2C000000 		.4byte	.LFE81
 8988 0e92 0400     		.2byte	0x4
 8989 0e94 F3       		.byte	0xf3
 8990 0e95 01       		.uleb128 0x1
 8991 0e96 53       		.byte	0x53
 8992 0e97 9F       		.byte	0x9f
 8993 0e98 00000000 		.4byte	0
 8994 0e9c 00000000 		.4byte	0
 8995              	.LLST86:
 8996 0ea0 00000000 		.4byte	.LVL217
 8997 0ea4 28000000 		.4byte	.LVL223
 8998 0ea8 0200     		.2byte	0x2
 8999 0eaa 91       		.byte	0x91
 9000 0eab 00       		.sleb128 0
 9001 0eac 28000000 		.4byte	.LVL223
 9002 0eb0 2C000000 		.4byte	.LFE81
 9003 0eb4 0200     		.2byte	0x2
ARM GAS  C:\Users\chemi\AppData\Local\Temp\ccbZzKkH.s 			page 181


 9004 0eb6 7D       		.byte	0x7d
 9005 0eb7 00       		.sleb128 0
 9006 0eb8 00000000 		.4byte	0
 9007 0ebc 00000000 		.4byte	0
 9008              	.LLST87:
 9009 0ec0 00000000 		.4byte	.LVL217
 9010 0ec4 28000000 		.4byte	.LVL223
 9011 0ec8 0200     		.2byte	0x2
 9012 0eca 91       		.byte	0x91
 9013 0ecb 04       		.sleb128 4
 9014 0ecc 28000000 		.4byte	.LVL223
 9015 0ed0 2C000000 		.4byte	.LFE81
 9016 0ed4 0200     		.2byte	0x2
 9017 0ed6 7D       		.byte	0x7d
 9018 0ed7 04       		.sleb128 4
 9019 0ed8 00000000 		.4byte	0
 9020 0edc 00000000 		.4byte	0
 9021              	.LLST88:
 9022 0ee0 0E000000 		.4byte	.LVL224
 9023 0ee4 27000000 		.4byte	.LVL226-1
 9024 0ee8 0100     		.2byte	0x1
 9025 0eea 53       		.byte	0x53
 9026 0eeb 00000000 		.4byte	0
 9027 0eef 00000000 		.4byte	0
 9028              	.LLST89:
 9029 0ef3 00000000 		.4byte	.LVL232
 9030 0ef7 07000000 		.4byte	.LVL233-1
 9031 0efb 0100     		.2byte	0x1
 9032 0efd 50       		.byte	0x50
 9033 0efe 07000000 		.4byte	.LVL233-1
 9034 0f02 14000000 		.4byte	.LFE83
 9035 0f06 0400     		.2byte	0x4
 9036 0f08 F3       		.byte	0xf3
 9037 0f09 01       		.uleb128 0x1
 9038 0f0a 50       		.byte	0x50
 9039 0f0b 9F       		.byte	0x9f
 9040 0f0c 00000000 		.4byte	0
 9041 0f10 00000000 		.4byte	0
 9042              	.LLST90:
 9043 0f14 00000000 		.4byte	.LVL234
 9044 0f18 09000000 		.4byte	.LVL235-1
 9045 0f1c 0100     		.2byte	0x1
 9046 0f1e 50       		.byte	0x50
 9047 0f1f 09000000 		.4byte	.LVL235-1
 9048 0f23 0A000000 		.4byte	.LVL235
 9049 0f27 0400     		.2byte	0x4
 9050 0f29 F3       		.byte	0xf3
 9051 0f2a 01       		.uleb128 0x1
 9052 0f2b 50       		.byte	0x50
 9053 0f2c 9F       		.byte	0x9f
 9054 0f2d 0A000000 		.4byte	.LVL235
 9055 0f31 10000000 		.4byte	.LFE85
 9056 0f35 0100     		.2byte	0x1
 9057 0f37 50       		.byte	0x50
 9058 0f38 00000000 		.4byte	0
 9059 0f3c 00000000 		.4byte	0
 9060              	.LLST91:
ARM GAS  C:\Users\chemi\AppData\Local\Temp\ccbZzKkH.s 			page 182


 9061 0f40 00000000 		.4byte	.LVL236
 9062 0f44 43000000 		.4byte	.LVL241-1
 9063 0f48 0100     		.2byte	0x1
 9064 0f4a 50       		.byte	0x50
 9065 0f4b 43000000 		.4byte	.LVL241-1
 9066 0f4f 44000000 		.4byte	.LVL241
 9067 0f53 0400     		.2byte	0x4
 9068 0f55 F3       		.byte	0xf3
 9069 0f56 01       		.uleb128 0x1
 9070 0f57 50       		.byte	0x50
 9071 0f58 9F       		.byte	0x9f
 9072 0f59 44000000 		.4byte	.LVL241
 9073 0f5d 50000000 		.4byte	.LFE84
 9074 0f61 0100     		.2byte	0x1
 9075 0f63 50       		.byte	0x50
 9076 0f64 00000000 		.4byte	0
 9077 0f68 00000000 		.4byte	0
 9078              	.LLST92:
 9079 0f6c 18000000 		.4byte	.LVL237
 9080 0f70 3C000000 		.4byte	.LVL240
 9081 0f74 0100     		.2byte	0x1
 9082 0f76 52       		.byte	0x52
 9083 0f77 00000000 		.4byte	0
 9084 0f7b 00000000 		.4byte	0
 9085              	.LLST93:
 9086 0f7f 36000000 		.4byte	.LVL239
 9087 0f83 3C000000 		.4byte	.LVL240
 9088 0f87 0200     		.2byte	0x2
 9089 0f89 31       		.byte	0x31
 9090 0f8a 9F       		.byte	0x9f
 9091 0f8b 00000000 		.4byte	0
 9092 0f8f 00000000 		.4byte	0
 9093              	.LLST94:
 9094 0f93 3C000000 		.4byte	.LVL240
 9095 0f97 44000000 		.4byte	.LVL241
 9096 0f9b 0200     		.2byte	0x2
 9097 0f9d 30       		.byte	0x30
 9098 0f9e 9F       		.byte	0x9f
 9099 0f9f 00000000 		.4byte	0
 9100 0fa3 00000000 		.4byte	0
 9101              		.section	.debug_aranges,"",%progbits
 9102 0000 B4000000 		.4byte	0xb4
 9103 0004 0200     		.2byte	0x2
 9104 0006 00000000 		.4byte	.Ldebug_info0
 9105 000a 04       		.byte	0x4
 9106 000b 00       		.byte	0
 9107 000c 0000     		.2byte	0
 9108 000e 0000     		.2byte	0
 9109 0010 00000000 		.4byte	.LFB73
 9110 0014 74000000 		.4byte	.LFE73-.LFB73
 9111 0018 00000000 		.4byte	.LFB68
 9112 001c 1C000000 		.4byte	.LFE68-.LFB68
 9113 0020 00000000 		.4byte	.LFB69
 9114 0024 90000000 		.4byte	.LFE69-.LFB69
 9115 0028 00000000 		.4byte	.LFB76
 9116 002c 50000000 		.4byte	.LFE76-.LFB76
 9117 0030 00000000 		.4byte	.LFB88
ARM GAS  C:\Users\chemi\AppData\Local\Temp\ccbZzKkH.s 			page 183


 9118 0034 9C040000 		.4byte	.LFE88-.LFB88
 9119 0038 00000000 		.4byte	.LFB70
 9120 003c 20000000 		.4byte	.LFE70-.LFB70
 9121 0040 00000000 		.4byte	.LFB71
 9122 0044 7C000000 		.4byte	.LFE71-.LFB71
 9123 0048 00000000 		.4byte	.LFB72
 9124 004c 68000000 		.4byte	.LFE72-.LFB72
 9125 0050 00000000 		.4byte	.LFB74
 9126 0054 14000000 		.4byte	.LFE74-.LFB74
 9127 0058 00000000 		.4byte	.LFB78
 9128 005c 40000000 		.4byte	.LFE78-.LFB78
 9129 0060 00000000 		.4byte	.LFB80
 9130 0064 40000000 		.4byte	.LFE80-.LFB80
 9131 0068 00000000 		.4byte	.LFB82
 9132 006c FC000000 		.4byte	.LFE82-.LFB82
 9133 0070 00000000 		.4byte	.LFB75
 9134 0074 10010000 		.4byte	.LFE75-.LFB75
 9135 0078 00000000 		.4byte	.LFB77
 9136 007c 4C000000 		.4byte	.LFE77-.LFB77
 9137 0080 00000000 		.4byte	.LFB79
 9138 0084 48000000 		.4byte	.LFE79-.LFB79
 9139 0088 00000000 		.4byte	.LFB81
 9140 008c 2C000000 		.4byte	.LFE81-.LFB81
 9141 0090 00000000 		.4byte	.LFB86
 9142 0094 5C000000 		.4byte	.LFE86-.LFB86
 9143 0098 00000000 		.4byte	.LFB83
 9144 009c 14000000 		.4byte	.LFE83-.LFB83
 9145 00a0 00000000 		.4byte	.LFB85
 9146 00a4 10000000 		.4byte	.LFE85-.LFB85
 9147 00a8 00000000 		.4byte	.LFB84
 9148 00ac 50000000 		.4byte	.LFE84-.LFB84
 9149 00b0 00000000 		.4byte	0
 9150 00b4 00000000 		.4byte	0
 9151              		.section	.debug_ranges,"",%progbits
 9152              	.Ldebug_ranges0:
 9153 0000 30000000 		.4byte	.LBB26
 9154 0004 0E010000 		.4byte	.LBE26
 9155 0008 1A010000 		.4byte	.LBB52
 9156 000c 1E040000 		.4byte	.LBE52
 9157 0010 00000000 		.4byte	0
 9158 0014 00000000 		.4byte	0
 9159 0018 48000000 		.4byte	.LBB27
 9160 001c 4A000000 		.4byte	.LBE27
 9161 0020 4E000000 		.4byte	.LBB28
 9162 0024 06010000 		.4byte	.LBE28
 9163 0028 00000000 		.4byte	0
 9164 002c 00000000 		.4byte	0
 9165 0030 2E010000 		.4byte	.LBB29
 9166 0034 40010000 		.4byte	.LBE29
 9167 0038 4A010000 		.4byte	.LBB49
 9168 003c A8020000 		.4byte	.LBE49
 9169 0040 00000000 		.4byte	0
 9170 0044 00000000 		.4byte	0
 9171 0048 42010000 		.4byte	.LBB35
 9172 004c 4A010000 		.4byte	.LBE35
 9173 0050 A8020000 		.4byte	.LBB50
 9174 0054 CA020000 		.4byte	.LBE50
ARM GAS  C:\Users\chemi\AppData\Local\Temp\ccbZzKkH.s 			page 184


 9175 0058 DA020000 		.4byte	.LBB51
 9176 005c B6030000 		.4byte	.LBE51
 9177 0060 00000000 		.4byte	0
 9178 0064 00000000 		.4byte	0
 9179 0068 42010000 		.4byte	.LBB36
 9180 006c 4A010000 		.4byte	.LBE36
 9181 0070 A8020000 		.4byte	.LBB46
 9182 0074 BA020000 		.4byte	.LBE46
 9183 0078 C0020000 		.4byte	.LBB47
 9184 007c CA020000 		.4byte	.LBE47
 9185 0080 DA020000 		.4byte	.LBB48
 9186 0084 B6030000 		.4byte	.LBE48
 9187 0088 00000000 		.4byte	0
 9188 008c 00000000 		.4byte	0
 9189 0090 50030000 		.4byte	.LBB38
 9190 0094 52030000 		.4byte	.LBE38
 9191 0098 56030000 		.4byte	.LBB41
 9192 009c 62030000 		.4byte	.LBE41
 9193 00a0 00000000 		.4byte	0
 9194 00a4 00000000 		.4byte	0
 9195 00a8 9C030000 		.4byte	.LBB42
 9196 00ac 9E030000 		.4byte	.LBE42
 9197 00b0 A2030000 		.4byte	.LBB45
 9198 00b4 AE030000 		.4byte	.LBE45
 9199 00b8 00000000 		.4byte	0
 9200 00bc 00000000 		.4byte	0
 9201 00c0 00000000 		.4byte	.LBB53
 9202 00c4 02000000 		.4byte	.LBE53
 9203 00c8 04000000 		.4byte	.LBB54
 9204 00cc 16000000 		.4byte	.LBE54
 9205 00d0 1A000000 		.4byte	.LBB55
 9206 00d4 1E000000 		.4byte	.LBE55
 9207 00d8 00000000 		.4byte	0
 9208 00dc 00000000 		.4byte	0
 9209 00e0 02000000 		.4byte	.LBB56
 9210 00e4 04000000 		.4byte	.LBE56
 9211 00e8 06000000 		.4byte	.LBB58
 9212 00ec 46000000 		.4byte	.LBE58
 9213 00f0 00000000 		.4byte	0
 9214 00f4 00000000 		.4byte	0
 9215 00f8 36000000 		.4byte	.LBB59
 9216 00fc 3A000000 		.4byte	.LBE59
 9217 0100 42000000 		.4byte	.LBB63
 9218 0104 48000000 		.4byte	.LBE63
 9219 0108 58000000 		.4byte	.LBB64
 9220 010c EC000000 		.4byte	.LBE64
 9221 0110 00000000 		.4byte	0
 9222 0114 00000000 		.4byte	0
 9223 0118 36000000 		.4byte	.LBB60
 9224 011c 3A000000 		.4byte	.LBE60
 9225 0120 42000000 		.4byte	.LBB61
 9226 0124 48000000 		.4byte	.LBE61
 9227 0128 58000000 		.4byte	.LBB62
 9228 012c E6000000 		.4byte	.LBE62
 9229 0130 00000000 		.4byte	0
 9230 0134 00000000 		.4byte	0
 9231 0138 00000000 		.4byte	.LFB73
ARM GAS  C:\Users\chemi\AppData\Local\Temp\ccbZzKkH.s 			page 185


 9232 013c 74000000 		.4byte	.LFE73
 9233 0140 00000000 		.4byte	.LFB68
 9234 0144 1C000000 		.4byte	.LFE68
 9235 0148 00000000 		.4byte	.LFB69
 9236 014c 90000000 		.4byte	.LFE69
 9237 0150 00000000 		.4byte	.LFB76
 9238 0154 50000000 		.4byte	.LFE76
 9239 0158 00000000 		.4byte	.LFB88
 9240 015c 9C040000 		.4byte	.LFE88
 9241 0160 00000000 		.4byte	.LFB70
 9242 0164 20000000 		.4byte	.LFE70
 9243 0168 00000000 		.4byte	.LFB71
 9244 016c 7C000000 		.4byte	.LFE71
 9245 0170 00000000 		.4byte	.LFB72
 9246 0174 68000000 		.4byte	.LFE72
 9247 0178 00000000 		.4byte	.LFB74
 9248 017c 14000000 		.4byte	.LFE74
 9249 0180 00000000 		.4byte	.LFB78
 9250 0184 40000000 		.4byte	.LFE78
 9251 0188 00000000 		.4byte	.LFB80
 9252 018c 40000000 		.4byte	.LFE80
 9253 0190 00000000 		.4byte	.LFB82
 9254 0194 FC000000 		.4byte	.LFE82
 9255 0198 00000000 		.4byte	.LFB75
 9256 019c 10010000 		.4byte	.LFE75
 9257 01a0 00000000 		.4byte	.LFB77
 9258 01a4 4C000000 		.4byte	.LFE77
 9259 01a8 00000000 		.4byte	.LFB79
 9260 01ac 48000000 		.4byte	.LFE79
 9261 01b0 00000000 		.4byte	.LFB81
 9262 01b4 2C000000 		.4byte	.LFE81
 9263 01b8 00000000 		.4byte	.LFB86
 9264 01bc 5C000000 		.4byte	.LFE86
 9265 01c0 00000000 		.4byte	.LFB83
 9266 01c4 14000000 		.4byte	.LFE83
 9267 01c8 00000000 		.4byte	.LFB85
 9268 01cc 10000000 		.4byte	.LFE85
 9269 01d0 00000000 		.4byte	.LFB84
 9270 01d4 50000000 		.4byte	.LFE84
 9271 01d8 00000000 		.4byte	0
 9272 01dc 00000000 		.4byte	0
 9273              		.section	.debug_line,"",%progbits
 9274              	.Ldebug_line0:
 9275 0000 4F080000 		.section	.debug_str,"MS",%progbits,1
 9275      02008103 
 9275      00000201 
 9275      FB0E0D00 
 9275      01010101 
 9276              	.LASF63:
 9277 0000 41435061 		.ascii	"ACParams\000"
 9277      72616D73 
 9277      00
 9278              	.LASF42:
 9279 0009 6175746F 		.ascii	"autocompleteBufferLength\000"
 9279      636F6D70 
 9279      6C657465 
 9279      42756666 
ARM GAS  C:\Users\chemi\AppData\Local\Temp\ccbZzKkH.s 			page 186


 9279      65724C65 
 9280              	.LASF17:
 9281 0022 696E7438 		.ascii	"int8_t\000"
 9281      5F7400
 9282              	.LASF285:
 9283 0029 6E6F6973 		.ascii	"noiseOn\000"
 9283      654F6E00 
 9284              	.LASF283:
 9285 0031 54454C45 		.ascii	"TELEMETRY\000"
 9285      4D455452 
 9285      5900
 9286              	.LASF49:
 9287 003b 63757272 		.ascii	"currEscSeqPos\000"
 9287      45736353 
 9287      6571506F 
 9287      7300
 9288              	.LASF15:
 9289 0049 73697A65 		.ascii	"sizetype\000"
 9289      74797065 
 9289      00
 9290              	.LASF376:
 9291 0052 474E5520 		.ascii	"GNU C99 5.4.1 20160609 (release) [ARM/embedded-5-br"
 9291      43393920 
 9291      352E342E 
 9291      31203230 
 9291      31363036 
 9292 0085 616E6368 		.ascii	"anch revision 237715] -mcpu=cortex-m3 -mthumb -g -O"
 9292      20726576 
 9292      6973696F 
 9292      6E203233 
 9292      37373135 
 9293 00b8 73202D73 		.ascii	"s -std=gnu99 -ffunction-sections -ffat-lto-objects\000"
 9293      74643D67 
 9293      6E753939 
 9293      202D6666 
 9293      756E6374 
 9294              	.LASF247:
 9295 00eb 42555253 		.ascii	"BURST_ON\000"
 9295      545F4F4E 
 9295      00
 9296              	.LASF47:
 9297 00f4 63757272 		.ascii	"currHistoryWritePosition\000"
 9297      48697374 
 9297      6F727957 
 9297      72697465 
 9297      506F7369 
 9298              	.LASF248:
 9299 010d 42555253 		.ascii	"BURST_OFF\000"
 9299      545F4F46 
 9299      4600
 9300              	.LASF329:
 9301 0117 53696747 		.ascii	"SigGen_setMasterVol\000"
 9301      656E5F73 
 9301      65744D61 
 9301      73746572 
 9301      566F6C00 
 9302              	.LASF144:
ARM GAS  C:\Users\chemi\AppData\Local\Temp\ccbZzKkH.s 			page 187


 9303 012b 636F6D70 		.ascii	"compressor_maxDutyOffset\000"
 9303      72657373 
 9303      6F725F6D 
 9303      61784475 
 9303      74794F66 
 9304              	.LASF21:
 9305 0144 696E7433 		.ascii	"int32_t\000"
 9305      325F7400 
 9306              	.LASF175:
 9307 014c 70776D5F 		.ascii	"pwm_top\000"
 9307      746F7000 
 9308              	.LASF53:
 9309 0154 6572726F 		.ascii	"errorPrinter\000"
 9309      72507269 
 9309      6E746572 
 9309      00
 9310              	.LASF184:
 9311 0161 70617261 		.ascii	"parameters\000"
 9311      6D657465 
 9311      727300
 9312              	.LASF158:
 9313 016c 7163775F 		.ascii	"qcw_freq\000"
 9313      66726571 
 9313      00
 9314              	.LASF111:
 9315 0175 7069645F 		.ascii	"pid_temp_set\000"
 9315      74656D70 
 9315      5F736574 
 9315      00
 9316              	.LASF196:
 9317 0182 73746172 		.ascii	"startIndex\000"
 9317      74496E64 
 9317      657800
 9318              	.LASF351:
 9319 018d 696E7465 		.ascii	"interrupterTimebase_ReadStatusRegister\000"
 9319      72727570 
 9319      74657254 
 9319      696D6562 
 9319      6173655F 
 9320              	.LASF28:
 9321 01b4 42617365 		.ascii	"BaseType_t\000"
 9321      54797065 
 9321      5F7400
 9322              	.LASF40:
 9323 01bf 63757272 		.ascii	"currProgram\000"
 9323      50726F67 
 9323      72616D00 
 9324              	.LASF354:
 9325 01cb 52696E67 		.ascii	"RingBuffer_readFromISR\000"
 9325      42756666 
 9325      65725F72 
 9325      65616446 
 9325      726F6D49 
 9326              	.LASF43:
 9327 01e2 6175746F 		.ascii	"autocompleteStart\000"
 9327      636F6D70 
 9327      6C657465 
ARM GAS  C:\Users\chemi\AppData\Local\Temp\ccbZzKkH.s 			page 188


 9327      53746172 
 9327      7400
 9328              	.LASF39:
 9329 01f4 63757272 		.ascii	"currAutocompleteCount\000"
 9329      4175746F 
 9329      636F6D70 
 9329      6C657465 
 9329      436F756E 
 9330              	.LASF336:
 9331 020a 766F6963 		.ascii	"voicesToEradicate\000"
 9331      6573546F 
 9331      45726164 
 9331      69636174 
 9331      6500
 9332              	.LASF164:
 9333 021c 636C695F 		.ascii	"cli_parameter\000"
 9333      70617261 
 9333      6D657465 
 9333      7200
 9334              	.LASF319:
 9335 022a 62757273 		.ascii	"burstOn_us\000"
 9335      744F6E5F 
 9335      757300
 9336              	.LASF273:
 9337 0235 6176675F 		.ascii	"avg_power\000"
 9337      706F7765 
 9337      7200
 9338              	.LASF331:
 9339 023f 7461736B 		.ascii	"taskData\000"
 9339      44617461 
 9339      00
 9340              	.LASF311:
 9341 0248 53696747 		.ascii	"SigGen_setHyperVoiceSID\000"
 9341      656E5F73 
 9341      65744879 
 9341      70657256 
 9341      6F696365 
 9342              	.LASF84:
 9343 0260 74797065 		.ascii	"type\000"
 9343      00
 9344              	.LASF189:
 9345 0265 53594E54 		.ascii	"SYNTH_MIDI_QCW\000"
 9345      485F4D49 
 9345      44495F51 
 9345      435700
 9346              	.LASF246:
 9347 0274 696E7465 		.ascii	"interrupter_burst\000"
 9347      72727570 
 9347      7465725F 
 9347      62757273 
 9347      7400
 9348              	.LASF208:
 9349 0286 6C696D69 		.ascii	"limitedHpvCount\000"
 9349      74656448 
 9349      7076436F 
 9349      756E7400 
 9350              	.LASF315:
ARM GAS  C:\Users\chemi\AppData\Local\Temp\ccbZzKkH.s 			page 189


 9351 0296 6D617844 		.ascii	"maxDuty\000"
 9351      75747900 
 9352              	.LASF275:
 9353 029e 6932745F 		.ascii	"i2t_i\000"
 9353      6900
 9354              	.LASF155:
 9355 02a4 7163775F 		.ascii	"qcw_offset\000"
 9355      6F666673 
 9355      657400
 9356              	.LASF57:
 9357 02af 66756E63 		.ascii	"function\000"
 9357      74696F6E 
 9357      00
 9358              	.LASF129:
 9359 02b8 70636139 		.ascii	"pca9685\000"
 9359      36383500 
 9360              	.LASF264:
 9361 02c0 63686172 		.ascii	"chart\000"
 9361      7400
 9362              	.LASF140:
 9363 02c6 53696747 		.ascii	"SigGen_minOtOffset\000"
 9363      656E5F6D 
 9363      696E4F74 
 9363      4F666673 
 9363      657400
 9364              	.LASF251:
 9365 02d9 494E5452 		.ascii	"INTR_MOD_CUR\000"
 9365      5F4D4F44 
 9365      5F435552 
 9365      00
 9366              	.LASF323:
 9367 02e6 53696747 		.ascii	"SigGen_setVoiceVMS\000"
 9367      656E5F73 
 9367      6574566F 
 9367      69636556 
 9367      4D5300
 9368              	.LASF193:
 9369 02f9 64617461 		.ascii	"dataCount\000"
 9369      436F756E 
 9369      7400
 9370              	.LASF288:
 9371 0303 70686173 		.ascii	"phase\000"
 9371      6500
 9372              	.LASF3:
 9373 0309 5F5F7569 		.ascii	"__uint8_t\000"
 9373      6E74385F 
 9373      7400
 9374              	.LASF242:
 9375 0313 696E7465 		.ascii	"interrupter_mode\000"
 9375      72727570 
 9375      7465725F 
 9375      6D6F6465 
 9375      00
 9376              	.LASF116:
 9377 0324 70735F73 		.ascii	"ps_scheme\000"
 9377      6368656D 
 9377      6500
ARM GAS  C:\Users\chemi\AppData\Local\Temp\ccbZzKkH.s 			page 190


 9378              	.LASF207:
 9379 032e 68707643 		.ascii	"hpvCount\000"
 9379      6F756E74 
 9379      00
 9380              	.LASF66:
 9381 0337 5465726D 		.ascii	"TermCommandInputHandler\000"
 9381      436F6D6D 
 9381      616E6449 
 9381      6E707574 
 9381      48616E64 
 9382              	.LASF160:
 9383 034f 62757273 		.ascii	"burst_on\000"
 9383      745F6F6E 
 9383      00
 9384              	.LASF229:
 9385 0358 766F6963 		.ascii	"voice\000"
 9385      6500
 9386              	.LASF68:
 9387 035e 5465726D 		.ascii	"TermPrintHandler\000"
 9387      5072696E 
 9387      7448616E 
 9387      646C6572 
 9387      00
 9388              	.LASF277:
 9389 036f 6D696469 		.ascii	"midi_voices\000"
 9389      5F766F69 
 9389      63657300 
 9390              	.LASF10:
 9391 037b 6C6F6E67 		.ascii	"long int\000"
 9391      20696E74 
 9391      00
 9392              	.LASF274:
 9393 0384 62617474 		.ascii	"batt_i\000"
 9393      5F6900
 9394              	.LASF258:
 9395 038b 756E6974 		.ascii	"unit\000"
 9395      00
 9396              	.LASF268:
 9397 0390 62617474 		.ascii	"batt_v\000"
 9397      5F7600
 9398              	.LASF243:
 9399 0397 494E5452 		.ascii	"INTR_MODE_OFF\000"
 9399      5F4D4F44 
 9399      455F4F46 
 9399      4600
 9400              	.LASF350:
 9401 03a5 7163775F 		.ascii	"qcw_handle\000"
 9401      68616E64 
 9401      6C6500
 9402              	.LASF344:
 9403 03b0 49734F6B 		.ascii	"IsOkToPrint\000"
 9403      546F5072 
 9403      696E7400 
 9404              	.LASF359:
 9405 03bc 72616E64 		.ascii	"rand\000"
 9405      00
 9406              	.LASF238:
ARM GAS  C:\Users\chemi\AppData\Local\Temp\ccbZzKkH.s 			page 191


 9407 03c1 53594E54 		.ascii	"SYNTH\000"
 9407      4800
 9408              	.LASF146:
 9409 03c7 636C695F 		.ascii	"cli_config\000"
 9409      636F6E66 
 9409      696700
 9410              	.LASF148:
 9411 03d2 74756E65 		.ascii	"tune_start\000"
 9411      5F737461 
 9411      727400
 9412              	.LASF149:
 9413 03dd 74756E65 		.ascii	"tune_end\000"
 9413      5F656E64 
 9413      00
 9414              	.LASF181:
 9415 03e6 64696666 		.ascii	"diff_tr_cl_dac_val\000"
 9415      5F74725F 
 9415      636C5F64 
 9415      61635F76 
 9415      616C00
 9416              	.LASF154:
 9417 03f9 7163775F 		.ascii	"qcw_holdoff\000"
 9417      686F6C64 
 9417      6F666600 
 9418              	.LASF64:
 9419 0405 6E657874 		.ascii	"nextCmd\000"
 9419      436D6400 
 9420              	.LASF204:
 9421 040d 6C696D69 		.ascii	"limitedPeriod\000"
 9421      74656450 
 9421      6572696F 
 9421      6400
 9422              	.LASF321:
 9423 041b 77696C6C 		.ascii	"willBeOn\000"
 9423      42654F6E 
 9423      00
 9424              	.LASF343:
 9425 0424 696E7465 		.ascii	"interrupter\000"
 9425      72727570 
 9425      74657200 
 9426              	.LASF195:
 9427 0430 72656164 		.ascii	"readIndex\000"
 9427      496E6465 
 9427      7800
 9428              	.LASF366:
 9429 043a 7076506F 		.ascii	"pvPortMalloc\000"
 9429      72744D61 
 9429      6C6C6F63 
 9429      00
 9430              	.LASF1:
 9431 0447 7369676E 		.ascii	"signed char\000"
 9431      65642063 
 9431      68617200 
 9432              	.LASF18:
 9433 0453 75696E74 		.ascii	"uint8_t\000"
 9433      385F7400 
 9434              	.LASF262:
ARM GAS  C:\Users\chemi\AppData\Local\Temp\ccbZzKkH.s 			page 192


 9435 045b 68696768 		.ascii	"high_res\000"
 9435      5F726573 
 9435      00
 9436              	.LASF120:
 9437 0464 6374325F 		.ascii	"ct2_type\000"
 9437      74797065 
 9437      00
 9438              	.LASF298:
 9439 046d 63757272 		.ascii	"currVoice\000"
 9439      566F6963 
 9439      6500
 9440              	.LASF328:
 9441 0477 6E65774D 		.ascii	"newMode\000"
 9441      6F646500 
 9442              	.LASF353:
 9443 047f 696E7465 		.ascii	"interrupter_oneshotRaw\000"
 9443      72727570 
 9443      7465725F 
 9443      6F6E6573 
 9443      686F7452 
 9444              	.LASF241:
 9445 0496 494E5452 		.ascii	"INTR_DMA_DDS\000"
 9445      5F444D41 
 9445      5F444453 
 9445      00
 9446              	.LASF123:
 9447 04a3 6374325F 		.ascii	"ct2_offset\000"
 9447      6F666673 
 9447      657400
 9448              	.LASF180:
 9449 04ae 6D696E5F 		.ascii	"min_tr_cl_dac_val\000"
 9449      74725F63 
 9449      6C5F6461 
 9449      635F7661 
 9449      6C00
 9450              	.LASF162:
 9451 04c0 73796E74 		.ascii	"synth\000"
 9451      6800
 9452              	.LASF4:
 9453 04c6 756E7369 		.ascii	"unsigned char\000"
 9453      676E6564 
 9453      20636861 
 9453      7200
 9454              	.LASF334:
 9455 04d4 72656164 		.ascii	"readPulse\000"
 9455      50756C73 
 9455      6500
 9456              	.LASF96:
 9457 04de 6D696E5F 		.ascii	"min_tr_current\000"
 9457      74725F63 
 9457      75727265 
 9457      6E7400
 9458              	.LASF141:
 9459 04ed 636F6D70 		.ascii	"compressor_attac\000"
 9459      72657373 
 9459      6F725F61 
 9459      74746163 
ARM GAS  C:\Users\chemi\AppData\Local\Temp\ccbZzKkH.s 			page 193


 9459      00
 9460              	.LASF131:
 9461 04fe 6E74635F 		.ascii	"ntc_b\000"
 9461      6200
 9462              	.LASF73:
 9463 0504 696E7075 		.ascii	"inputStream\000"
 9463      74537472 
 9463      65616D00 
 9464              	.LASF128:
 9465 0510 69735F71 		.ascii	"is_qcw\000"
 9465      637700
 9466              	.LASF50:
 9467 0517 65736353 		.ascii	"escSeqBuff\000"
 9467      65714275 
 9467      666600
 9468              	.LASF179:
 9469 0522 6D696E5F 		.ascii	"min_tr_prd\000"
 9469      74725F70 
 9469      726400
 9470              	.LASF110:
 9471 052d 74656D70 		.ascii	"temp2_setpoint\000"
 9471      325F7365 
 9471      74706F69 
 9471      6E7400
 9472              	.LASF135:
 9473 053c 75766C6F 		.ascii	"uvlo_analog\000"
 9473      5F616E61 
 9473      6C6F6700 
 9474              	.LASF198:
 9475 0548 52696E67 		.ascii	"RingBuffer_t\000"
 9475      42756666 
 9475      65725F74 
 9475      00
 9476              	.LASF54:
 9477 0555 5465726D 		.ascii	"TermCommandDescriptor\000"
 9477      436F6D6D 
 9477      616E6444 
 9477      65736372 
 9477      6970746F 
 9478              	.LASF190:
 9479 056b 53594E54 		.ascii	"SYNTH_SID_QCW\000"
 9479      485F5349 
 9479      445F5143 
 9479      5700
 9480              	.LASF82:
 9481 0579 76616C75 		.ascii	"value\000"
 9481      6500
 9482              	.LASF224:
 9483 057f 62757273 		.ascii	"burstOt\000"
 9483      744F7400 
 9484              	.LASF332:
 9485 0587 6D617374 		.ascii	"masterVolume\000"
 9485      6572566F 
 9485      6C756D65 
 9485      00
 9486              	.LASF16:
 9487 0594 63686172 		.ascii	"char\000"
ARM GAS  C:\Users\chemi\AppData\Local\Temp\ccbZzKkH.s 			page 194


 9487      00
 9488              	.LASF222:
 9489 0599 6C696D69 		.ascii	"limitedHpvPulseWidth_us\000"
 9489      74656448 
 9489      70765075 
 9489      6C736557 
 9489      69647468 
 9490              	.LASF382:
 9491 05b1 53696747 		.ascii	"SigGen_overlayPulse\000"
 9491      656E5F6F 
 9491      7665726C 
 9491      61795075 
 9491      6C736500 
 9492              	.LASF137:
 9493 05c5 68775F72 		.ascii	"hw_rev\000"
 9493      657600
 9494              	.LASF355:
 9495 05cc 696E7465 		.ascii	"interrupterTimebase_WriteCompare\000"
 9495      72727570 
 9495      74657254 
 9495      696D6562 
 9495      6173655F 
 9496              	.LASF375:
 9497 05ed 52696E67 		.ascii	"RingBuffer_flush\000"
 9497      42756666 
 9497      65725F66 
 9497      6C757368 
 9497      00
 9498              	.LASF65:
 9499 05fe 5465726D 		.ascii	"TermCommandFunction\000"
 9499      436F6D6D 
 9499      616E6446 
 9499      756E6374 
 9499      696F6E00 
 9500              	.LASF94:
 9501 0612 6D61785F 		.ascii	"max_qcw_pw\000"
 9501      7163775F 
 9501      707700
 9502              	.LASF67:
 9503 061d 5465726D 		.ascii	"TermErrorPrinter\000"
 9503      4572726F 
 9503      72507269 
 9503      6E746572 
 9503      00
 9504              	.LASF314:
 9505 062e 63757272 		.ascii	"currDuty\000"
 9505      44757479 
 9505      00
 9506              	.LASF7:
 9507 0637 5F5F7569 		.ascii	"__uint16_t\000"
 9507      6E743136 
 9507      5F7400
 9508              	.LASF206:
 9509 0642 6870764F 		.ascii	"hpvOffset\000"
 9509      66667365 
 9509      7400
 9510              	.LASF360:
ARM GAS  C:\Users\chemi\AppData\Local\Temp\ccbZzKkH.s 			page 195


 9511 064c 52696E67 		.ascii	"RingBuffer_write\000"
 9511      42756666 
 9511      65725F77 
 9511      72697465 
 9511      00
 9512              	.LASF380:
 9513 065d 67657446 		.ascii	"getFixedDutyOntime\000"
 9513      69786564 
 9513      44757479 
 9513      4F6E7469 
 9513      6D6500
 9514              	.LASF124:
 9515 0670 725F746F 		.ascii	"r_top\000"
 9515      7000
 9516              	.LASF56:
 9517 0676 5F5F5465 		.ascii	"__TermCommandDescriptor__\000"
 9517      726D436F 
 9517      6D6D616E 
 9517      64446573 
 9517      63726970 
 9518              	.LASF378:
 9519 0690 433A5C55 		.ascii	"C:\\Users\\chemi\\UD3_QCW\\UD3_QFN.cydsn\000"
 9519      73657273 
 9519      5C636865 
 9519      6D695C55 
 9519      44335F51 
 9520              	.LASF370:
 9521 06b5 6973725F 		.ascii	"isr_midi_StartEx\000"
 9521      6D696469 
 9521      5F537461 
 9521      72744578 
 9521      00
 9522              	.LASF55:
 9523 06c6 5F5F5445 		.ascii	"__TERMINAL_HANDLE__\000"
 9523      524D494E 
 9523      414C5F48 
 9523      414E444C 
 9523      455F5F00 
 9524              	.LASF97:
 9525 06da 6D61785F 		.ascii	"max_qcw_current\000"
 9525      7163775F 
 9525      63757272 
 9525      656E7400 
 9526              	.LASF347:
 9527 06ea 63757272 		.ascii	"currPulse\000"
 9527      50756C73 
 9527      6500
 9528              	.LASF152:
 9529 06f4 6F666674 		.ascii	"offtime\000"
 9529      696D6500 
 9530              	.LASF249:
 9531 06fc 696E7465 		.ascii	"interrupter_modulation\000"
 9531      72727570 
 9531      7465725F 
 9531      6D6F6475 
 9531      6C617469 
 9532              	.LASF107:
ARM GAS  C:\Users\chemi\AppData\Local\Temp\ccbZzKkH.s 			page 196


 9533 0713 6D61785F 		.ascii	"max_tr_duty\000"
 9533      74725F64 
 9533      75747900 
 9534              	.LASF38:
 9535 071f 63757272 		.ascii	"currBufferLength\000"
 9535      42756666 
 9535      65724C65 
 9535      6E677468 
 9535      00
 9536              	.LASF250:
 9537 0730 494E5452 		.ascii	"INTR_MOD_PW\000"
 9537      5F4D4F44 
 9537      5F505700 
 9538              	.LASF72:
 9539 073c 7261775F 		.ascii	"raw_input\000"
 9539      696E7075 
 9539      7400
 9540              	.LASF233:
 9541 0746 74724275 		.ascii	"trBurstCounter\000"
 9541      72737443 
 9541      6F756E74 
 9541      657200
 9542              	.LASF237:
 9543 0755 53696747 		.ascii	"SigGen_taskData_t\000"
 9543      656E5F74 
 9543      61736B44 
 9543      6174615F 
 9543      7400
 9544              	.LASF269:
 9545 0767 64726976 		.ascii	"driver_v\000"
 9545      65725F76 
 9545      00
 9546              	.LASF349:
 9547 0770 636C6F63 		.ascii	"clock_tick\000"
 9547      6B5F7469 
 9547      636B00
 9548              	.LASF254:
 9549 077b 646D615F 		.ascii	"dma_mode\000"
 9549      6D6F6465 
 9549      00
 9550              	.LASF167:
 9551 0784 73746F70 		.ascii	"stop_index\000"
 9551      5F696E64 
 9551      657800
 9552              	.LASF266:
 9553 078f 5F5F7465 		.ascii	"__tele_human__\000"
 9553      6C655F68 
 9553      756D616E 
 9553      5F5F00
 9554              	.LASF70:
 9555 079e 7461736B 		.ascii	"task\000"
 9555      00
 9556              	.LASF308:
 9557 07a3 63616C6C 		.ascii	"callback_siggen\000"
 9557      6261636B 
 9557      5F736967 
 9557      67656E00 
ARM GAS  C:\Users\chemi\AppData\Local\Temp\ccbZzKkH.s 			page 197


 9558              	.LASF381:
 9559 07b3 53696747 		.ascii	"SigGen_setOutputEnabled\000"
 9559      656E5F73 
 9559      65744F75 
 9559      74707574 
 9559      456E6162 
 9560              	.LASF48:
 9561 07cb 63757272 		.ascii	"currHistoryReadPosition\000"
 9561      48697374 
 9561      6F727952 
 9561      65616450 
 9561      6F736974 
 9562              	.LASF361:
 9563 07e3 696E7465 		.ascii	"interrupterIRQ_Enable\000"
 9563      72727570 
 9563      74657249 
 9563      52515F45 
 9563      6E61626C 
 9564              	.LASF91:
 9565 07f9 77617463 		.ascii	"watchdog_timeout\000"
 9565      68646F67 
 9565      5F74696D 
 9565      656F7574 
 9565      00
 9566              	.LASF318:
 9567 080a 53696747 		.ascii	"SigGen_setVoiceParams\000"
 9567      656E5F73 
 9567      6574566F 
 9567      69636550 
 9567      6172616D 
 9568              	.LASF163:
 9569 0820 74656D70 		.ascii	"temp_duty\000"
 9569      5F647574 
 9569      7900
 9570              	.LASF312:
 9571 082a 53696747 		.ascii	"SigGen_init\000"
 9571      656E5F69 
 9571      6E697400 
 9572              	.LASF324:
 9573 0836 53696747 		.ascii	"SigGen_setVoiceSID\000"
 9573      656E5F73 
 9573      6574566F 
 9573      69636553 
 9573      494400
 9574              	.LASF127:
 9575 0849 6578745F 		.ascii	"ext_interrupter\000"
 9575      696E7465 
 9575      72727570 
 9575      74657200 
 9576              	.LASF322:
 9577 0859 62757273 		.ascii	"burstPeriod_us\000"
 9577      74506572 
 9577      696F645F 
 9577      757300
 9578              	.LASF52:
 9579 0868 636D644C 		.ascii	"cmdListHead\000"
 9579      69737448 
ARM GAS  C:\Users\chemi\AppData\Local\Temp\ccbZzKkH.s 			page 198


 9579      65616400 
 9580              	.LASF221:
 9581 0874 68707650 		.ascii	"hpvPulseWidth_us\000"
 9581      756C7365 
 9581      57696474 
 9581      685F7573 
 9581      00
 9582              	.LASF219:
 9583 0885 70756C73 		.ascii	"pulseWidth_us\000"
 9583      65576964 
 9583      74685F75 
 9583      7300
 9584              	.LASF338:
 9585 0893 636F6E66 		.ascii	"configuration\000"
 9585      69677572 
 9585      6174696F 
 9585      6E00
 9586              	.LASF37:
 9587 08a1 63757272 		.ascii	"currBufferPosition\000"
 9587      42756666 
 9587      6572506F 
 9587      73697469 
 9587      6F6E00
 9588              	.LASF166:
 9589 08b4 696E6465 		.ascii	"index\000"
 9589      7800
 9590              	.LASF147:
 9591 08ba 70617261 		.ascii	"parameter_struct\000"
 9591      6D657465 
 9591      725F7374 
 9591      72756374 
 9591      00
 9592              	.LASF245:
 9593 08cb 494E5452 		.ascii	"INTR_MODE_BLOCKED\000"
 9593      5F4D4F44 
 9593      455F424C 
 9593      4F434B45 
 9593      4400
 9594              	.LASF209:
 9595 08dd 656E6162 		.ascii	"enabled\000"
 9595      6C656400 
 9596              	.LASF100:
 9597 08e5 6374315F 		.ascii	"ct1_ratio\000"
 9597      72617469 
 9597      6F00
 9598              	.LASF302:
 9599 08ef 63757272 		.ascii	"currentMinimumPeriod\000"
 9599      656E744D 
 9599      696E696D 
 9599      756D5065 
 9599      72696F64 
 9600              	.LASF156:
 9601 0904 7163775F 		.ascii	"qcw_max\000"
 9601      6D617800 
 9602              	.LASF293:
 9603 090c 6E65774F 		.ascii	"newOntime\000"
 9603      6E74696D 
ARM GAS  C:\Users\chemi\AppData\Local\Temp\ccbZzKkH.s 			page 199


 9603      6500
 9604              	.LASF223:
 9605 0916 62757273 		.ascii	"burstPeriod\000"
 9605      74506572 
 9605      696F6400 
 9606              	.LASF12:
 9607 0922 6C6F6E67 		.ascii	"long unsigned int\000"
 9607      20756E73 
 9607      69676E65 
 9607      6420696E 
 9607      7400
 9608              	.LASF278:
 9609 0934 66726573 		.ascii	"fres\000"
 9609      00
 9610              	.LASF339:
 9611 0939 70617261 		.ascii	"param\000"
 9611      6D00
 9612              	.LASF109:
 9613 093f 74656D70 		.ascii	"temp1_setpoint\000"
 9613      315F7365 
 9613      74706F69 
 9613      6E7400
 9614              	.LASF217:
 9615 094e 696E6974 		.ascii	"initialPulseVolume\000"
 9615      69616C50 
 9615      756C7365 
 9615      566F6C75 
 9615      6D6500
 9616              	.LASF284:
 9617 0961 70756C73 		.ascii	"pulseWidth\000"
 9617      65576964 
 9617      746800
 9618              	.LASF367:
 9619 096c 52696E67 		.ascii	"RingBuffer_create\000"
 9619      42756666 
 9619      65725F63 
 9619      72656174 
 9619      6500
 9620              	.LASF101:
 9621 097e 6374325F 		.ascii	"ct2_ratio\000"
 9621      72617469 
 9621      6F00
 9622              	.LASF327:
 9623 0988 53696747 		.ascii	"SigGen_switchSynthMode\000"
 9623      656E5F73 
 9623      77697463 
 9623      6853796E 
 9623      74684D6F 
 9624              	.LASF87:
 9625 099f 54696D65 		.ascii	"TimerHandle_t\000"
 9625      7248616E 
 9625      646C655F 
 9625      7400
 9626              	.LASF169:
 9627 09ad 72616D70 		.ascii	"ramp_params\000"
 9627      5F706172 
 9627      616D7300 
ARM GAS  C:\Users\chemi\AppData\Local\Temp\ccbZzKkH.s 			page 200


 9628              	.LASF216:
 9629 09b9 70756C73 		.ascii	"pulseVolume\000"
 9629      65566F6C 
 9629      756D6500 
 9630              	.LASF345:
 9631 09c5 64697664 		.ascii	"divder\000"
 9631      657200
 9632              	.LASF136:
 9633 09cc 76647269 		.ascii	"vdrive\000"
 9633      766500
 9634              	.LASF74:
 9635 09d3 61726773 		.ascii	"args\000"
 9635      00
 9636              	.LASF88:
 9637 09d8 746D7254 		.ascii	"tmrTimerControl\000"
 9637      696D6572 
 9637      436F6E74 
 9637      726F6C00 
 9638              	.LASF85:
 9639 09e8 63616C6C 		.ascii	"callback_function\000"
 9639      6261636B 
 9639      5F66756E 
 9639      6374696F 
 9639      6E00
 9640              	.LASF282:
 9641 09fa 54454C45 		.ascii	"TELE_HUMAN\000"
 9641      5F48554D 
 9641      414E00
 9642              	.LASF200:
 9643 0a05 62757273 		.ascii	"burstCounter\000"
 9643      74436F75 
 9643      6E746572 
 9643      00
 9644              	.LASF60:
 9645 0a12 636F6D6D 		.ascii	"commandLength\000"
 9645      616E644C 
 9645      656E6774 
 9645      6800
 9646              	.LASF133:
 9647 0a20 69646163 		.ascii	"idac\000"
 9647      00
 9648              	.LASF93:
 9649 0a25 6D61785F 		.ascii	"max_tr_prf\000"
 9649      74725F70 
 9649      726600
 9650              	.LASF112:
 9651 0a30 7069645F 		.ascii	"pid_temp_mode\000"
 9651      74656D70 
 9651      5F6D6F64 
 9651      6500
 9652              	.LASF11:
 9653 0a3e 5F5F7569 		.ascii	"__uint32_t\000"
 9653      6E743332 
 9653      5F7400
 9654              	.LASF13:
 9655 0a49 6C6F6E67 		.ascii	"long long int\000"
 9655      206C6F6E 
ARM GAS  C:\Users\chemi\AppData\Local\Temp\ccbZzKkH.s 			page 201


 9655      6720696E 
 9655      7400
 9656              	.LASF199:
 9657 0a57 636F756E 		.ascii	"counter\000"
 9657      74657200 
 9658              	.LASF368:
 9659 0a5f 696E7465 		.ascii	"interrupterTimebase_Init\000"
 9659      72727570 
 9659      74657254 
 9659      696D6562 
 9659      6173655F 
 9660              	.LASF108:
 9661 0a78 6D61785F 		.ascii	"max_qcw_duty\000"
 9661      7163775F 
 9661      64757479 
 9661      00
 9662              	.LASF161:
 9663 0a85 62757273 		.ascii	"burst_off\000"
 9663      745F6F66 
 9663      6600
 9664              	.LASF62:
 9665 0a8f 41434861 		.ascii	"ACHandler\000"
 9665      6E646C65 
 9665      7200
 9666              	.LASF294:
 9667 0a99 63616C6C 		.ascii	"callData\000"
 9667      44617461 
 9667      00
 9668              	.LASF226:
 9669 0aa2 6F6E5469 		.ascii	"onTime\000"
 9669      6D6500
 9670              	.LASF26:
 9671 0aa9 646F7562 		.ascii	"double\000"
 9671      6C6500
 9672              	.LASF187:
 9673 0ab0 53594E54 		.ascii	"SYNTH_SID\000"
 9673      485F5349 
 9673      4400
 9674              	.LASF122:
 9675 0aba 6374325F 		.ascii	"ct2_voltage\000"
 9675      766F6C74 
 9675      61676500 
 9676              	.LASF142:
 9677 0ac6 636F6D70 		.ascii	"compressor_sustain\000"
 9677      72657373 
 9677      6F725F73 
 9677      75737461 
 9677      696E00
 9678              	.LASF178:
 9679 0ad9 70776D62 		.ascii	"pwmb_start_psb_val\000"
 9679      5F737461 
 9679      72745F70 
 9679      73625F76 
 9679      616C00
 9680              	.LASF157:
 9681 0aec 7163775F 		.ascii	"qcw_repeat\000"
 9681      72657065 
ARM GAS  C:\Users\chemi\AppData\Local\Temp\ccbZzKkH.s 			page 202


 9681      617400
 9682              	.LASF352:
 9683 0af7 696E7465 		.ascii	"interrupterIRQ_ClearPending\000"
 9683      72727570 
 9683      74657249 
 9683      52515F43 
 9683      6C656172 
 9684              	.LASF61:
 9685 0b13 6D696E50 		.ascii	"minPermissionLevel\000"
 9685      65726D69 
 9685      7373696F 
 9685      6E4C6576 
 9685      656C00
 9686              	.LASF78:
 9687 0b26 70617261 		.ascii	"parameter_entry_struct\000"
 9687      6D657465 
 9687      725F656E 
 9687      7472795F 
 9687      73747275 
 9688              	.LASF337:
 9689 0b3d 49544D5F 		.ascii	"ITM_RxBuffer\000"
 9689      52784275 
 9689      66666572 
 9689      00
 9690              	.LASF215:
 9691 0b4a 68707656 		.ascii	"hpvVolume\000"
 9691      6F6C756D 
 9691      6500
 9692              	.LASF342:
 9693 0b54 566F6963 		.ascii	"VoiceFlags\000"
 9693      65466C61 
 9693      677300
 9694              	.LASF313:
 9695 0b5f 53696747 		.ascii	"SigGen_limit\000"
 9695      656E5F6C 
 9695      696D6974 
 9695      00
 9696              	.LASF170:
 9697 0b6c 6D61785F 		.ascii	"max_tr_cl_dac_val\000"
 9697      74725F63 
 9697      6C5F6461 
 9697      635F7661 
 9697      6C00
 9698              	.LASF379:
 9699 0b7e 74656C65 		.ascii	"telemetry_u\000"
 9699      6D657472 
 9699      795F7500 
 9700              	.LASF25:
 9701 0b8a 666C6F61 		.ascii	"float\000"
 9701      7400
 9702              	.LASF301:
 9703 0b90 74617267 		.ascii	"targetOt_us\000"
 9703      65744F74 
 9703      5F757300 
 9704              	.LASF234:
 9705 0b9c 74724275 		.ascii	"trBurstState\000"
 9705      72737453 
ARM GAS  C:\Users\chemi\AppData\Local\Temp\ccbZzKkH.s 			page 203


 9705      74617465 
 9705      00
 9706              	.LASF286:
 9707 0ba9 636F756E 		.ascii	"count\000"
 9707      7400
 9708              	.LASF86:
 9709 0baf 68656C70 		.ascii	"help\000"
 9709      00
 9710              	.LASF256:
 9711 0bb4 696E7465 		.ascii	"interrupter_params\000"
 9711      72727570 
 9711      7465725F 
 9711      70617261 
 9711      6D7300
 9712              	.LASF290:
 9713 0bc7 53696747 		.ascii	"SigGen_PulseTimerISR\000"
 9713      656E5F50 
 9713      756C7365 
 9713      54696D65 
 9713      72495352 
 9714              	.LASF239:
 9715 0bdc 696E7465 		.ascii	"interrupter_DMA\000"
 9715      72727570 
 9715      7465725F 
 9715      444D4100 
 9716              	.LASF115:
 9717 0bec 74656D70 		.ascii	"temp2_mode\000"
 9717      325F6D6F 
 9717      646500
 9718              	.LASF213:
 9719 0bf7 66726571 		.ascii	"frequencyTenths\000"
 9719      75656E63 
 9719      7954656E 
 9719      74687300 
 9720              	.LASF0:
 9721 0c07 756E7369 		.ascii	"unsigned int\000"
 9721      676E6564 
 9721      20696E74 
 9721      00
 9722              	.LASF59:
 9723 0c14 636F6D6D 		.ascii	"commandDescription\000"
 9723      616E6444 
 9723      65736372 
 9723      69707469 
 9723      6F6E00
 9724              	.LASF369:
 9725 0c27 696E7465 		.ascii	"interrupterIRQ_StartEx\000"
 9725      72727570 
 9725      74657249 
 9725      52515F53 
 9725      74617274 
 9726              	.LASF230:
 9727 0c3e 62756666 		.ascii	"bufferLengthInCounts\000"
 9727      65724C65 
 9727      6E677468 
 9727      496E436F 
 9727      756E7473 
ARM GAS  C:\Users\chemi\AppData\Local\Temp\ccbZzKkH.s 			page 204


 9728              	.LASF145:
 9729 0c53 64726976 		.ascii	"drive_factor\000"
 9729      655F6661 
 9729      63746F72 
 9729      00
 9730              	.LASF99:
 9731 0c60 74656D70 		.ascii	"temp2_max\000"
 9731      325F6D61 
 9731      7800
 9732              	.LASF130:
 9733 0c6a 6D61785F 		.ascii	"max_fb_errors\000"
 9733      66625F65 
 9733      72726F72 
 9733      7300
 9734              	.LASF151:
 9735 0c78 74756E65 		.ascii	"tune_delay\000"
 9735      5F64656C 
 9735      617900
 9736              	.LASF30:
 9737 0c83 5461736B 		.ascii	"TaskHandle_t\000"
 9737      48616E64 
 9737      6C655F74 
 9737      00
 9738              	.LASF244:
 9739 0c90 494E5452 		.ascii	"INTR_MODE_TR\000"
 9739      5F4D4F44 
 9739      455F5452 
 9739      00
 9740              	.LASF292:
 9741 0c9d 6E657756 		.ascii	"newVolume\000"
 9741      6F6C756D 
 9741      6500
 9742              	.LASF227:
 9743 0ca7 63757272 		.ascii	"current\000"
 9743      656E7400 
 9744              	.LASF75:
 9745 0caf 61726743 		.ascii	"argCount\000"
 9745      6F756E74 
 9745      00
 9746              	.LASF270:
 9747 0cb8 74656D70 		.ascii	"temp1\000"
 9747      3100
 9748              	.LASF271:
 9749 0cbe 74656D70 		.ascii	"temp2\000"
 9749      3200
 9750              	.LASF259:
 9751 0cc4 6F666673 		.ascii	"offset\000"
 9751      657400
 9752              	.LASF165:
 9753 0ccb 6368616E 		.ascii	"changed\000"
 9753      67656400 
 9754              	.LASF36:
 9755 0cd3 706F7274 		.ascii	"port\000"
 9755      00
 9756              	.LASF371:
 9757 0cd8 78546173 		.ascii	"xTaskCreate\000"
 9757      6B437265 
ARM GAS  C:\Users\chemi\AppData\Local\Temp\ccbZzKkH.s 			page 205


 9757      61746500 
 9758              	.LASF79:
 9759 0ce4 70617261 		.ascii	"parameter_type\000"
 9759      6D657465 
 9759      725F7479 
 9759      706500
 9760              	.LASF185:
 9761 0cf3 53594E54 		.ascii	"SYNTH_OFF\000"
 9761      485F4F46 
 9761      4600
 9762              	.LASF263:
 9763 0cfd 67617567 		.ascii	"gauge\000"
 9763      6500
 9764              	.LASF44:
 9765 0d03 7072696E 		.ascii	"print\000"
 9765      7400
 9766              	.LASF103:
 9767 0d09 6374325F 		.ascii	"ct2_burden\000"
 9767      62757264 
 9767      656E00
 9768              	.LASF176:
 9769 0d14 70776D62 		.ascii	"pwmb_psb_prd\000"
 9769      5F707362 
 9769      5F707264 
 9769      00
 9770              	.LASF45:
 9771 0d21 63757272 		.ascii	"currUserName\000"
 9771      55736572 
 9771      4E616D65 
 9771      00
 9772              	.LASF383:
 9773 0d2e 53696747 		.ascii	"SigGen_task\000"
 9773      656E5F74 
 9773      61736B00 
 9774              	.LASF114:
 9775 0d3a 7069645F 		.ascii	"pid_temp_i\000"
 9775      74656D70 
 9775      5F6900
 9776              	.LASF113:
 9777 0d45 7069645F 		.ascii	"pid_temp_p\000"
 9777      74656D70 
 9777      5F7000
 9778              	.LASF89:
 9779 0d50 636F6E66 		.ascii	"config_struct\000"
 9779      69675F73 
 9779      74727563 
 9779      7400
 9780              	.LASF253:
 9781 0d5e 62757273 		.ascii	"burst_state\000"
 9781      745F7374 
 9781      61746500 
 9782              	.LASF304:
 9783 0d6a 68616E64 		.ascii	"handle\000"
 9783      6C6500
 9784              	.LASF335:
 9785 0d71 6973456E 		.ascii	"isEnabled\000"
 9785      61626C65 
ARM GAS  C:\Users\chemi\AppData\Local\Temp\ccbZzKkH.s 			page 206


 9785      6400
 9786              	.LASF340:
 9787 0d7b 72616D70 		.ascii	"ramp\000"
 9787      00
 9788              	.LASF295:
 9789 0d80 6E657874 		.ascii	"nextVoice\000"
 9789      566F6963 
 9789      6500
 9790              	.LASF32:
 9791 0d8a 74736B54 		.ascii	"tskTaskControlBlock\000"
 9791      61736B43 
 9791      6F6E7472 
 9791      6F6C426C 
 9791      6F636B00 
 9792              	.LASF173:
 9793 0d9e 70776D62 		.ascii	"pwmb_start_prd\000"
 9793      5F737461 
 9793      72745F70 
 9793      726400
 9794              	.LASF362:
 9795 0dad 76546173 		.ascii	"vTaskDelay\000"
 9795      6B44656C 
 9795      617900
 9796              	.LASF211:
 9797 0db8 6E6F6973 		.ascii	"noiseAmplitude\000"
 9797      65416D70 
 9797      6C697475 
 9797      646500
 9798              	.LASF373:
 9799 0dc7 436F6D70 		.ascii	"Comp_getMaxDutyOffset\000"
 9799      5F676574 
 9799      4D617844 
 9799      7574794F 
 9799      66667365 
 9800              	.LASF279:
 9801 0ddd 74785F64 		.ascii	"tx_datarate\000"
 9801      61746172 
 9801      61746500 
 9802              	.LASF159:
 9803 0de9 7163775F 		.ascii	"qcw_vol\000"
 9803      766F6C00 
 9804              	.LASF41:
 9805 0df1 6175746F 		.ascii	"autocompleteBuffer\000"
 9805      636F6D70 
 9805      6C657465 
 9805      42756666 
 9805      657200
 9806              	.LASF186:
 9807 0e04 53594E54 		.ascii	"SYNTH_MIDI\000"
 9807      485F4D49 
 9807      444900
 9808              	.LASF150:
 9809 0e0f 74756E65 		.ascii	"tune_pw\000"
 9809      5F707700 
 9810              	.LASF2:
 9811 0e17 5F5F696E 		.ascii	"__int8_t\000"
 9811      74385F74 
ARM GAS  C:\Users\chemi\AppData\Local\Temp\ccbZzKkH.s 			page 207


 9811      00
 9812              	.LASF83:
 9813 0e20 73697A65 		.ascii	"size\000"
 9813      00
 9814              	.LASF14:
 9815 0e25 6C6F6E67 		.ascii	"long long unsigned int\000"
 9815      206C6F6E 
 9815      6720756E 
 9815      7369676E 
 9815      65642069 
 9816              	.LASF121:
 9817 0e3c 6374325F 		.ascii	"ct2_current\000"
 9817      63757272 
 9817      656E7400 
 9818              	.LASF303:
 9819 0e48 70617261 		.ascii	"params\000"
 9819      6D7300
 9820              	.LASF171:
 9821 0e4f 70776D61 		.ascii	"pwma_start_prd\000"
 9821      5F737461 
 9821      72745F70 
 9821      726400
 9822              	.LASF51:
 9823 0e5e 6563686F 		.ascii	"echoEnabled\000"
 9823      456E6162 
 9823      6C656400 
 9824              	.LASF58:
 9825 0e6a 636F6D6D 		.ascii	"command\000"
 9825      616E6400 
 9826              	.LASF183:
 9827 0e72 6374325F 		.ascii	"ct2_offset_cnt\000"
 9827      6F666673 
 9827      65745F63 
 9827      6E7400
 9828              	.LASF20:
 9829 0e81 75696E74 		.ascii	"uint16_t\000"
 9829      31365F74 
 9829      00
 9830              	.LASF305:
 9831 0e8a 53696747 		.ascii	"SigGen_getCurrDuty\000"
 9831      656E5F67 
 9831      65744375 
 9831      72724475 
 9831      747900
 9832              	.LASF306:
 9833 0e9d 746F7461 		.ascii	"totalDuty\000"
 9833      6C447574 
 9833      7900
 9834              	.LASF358:
 9835 0ea7 696E7465 		.ascii	"interrupterIRQ_Disable\000"
 9835      72727570 
 9835      74657249 
 9835      52515F44 
 9835      69736162 
 9836              	.LASF260:
 9837 0ebe 64697669 		.ascii	"divider\000"
 9837      64657200 
ARM GAS  C:\Users\chemi\AppData\Local\Temp\ccbZzKkH.s 			page 208


 9838              	.LASF214:
 9839 0ec6 68707650 		.ascii	"hpvPhase\000"
 9839      68617365 
 9839      00
 9840              	.LASF201:
 9841 0ecf 63757272 		.ascii	"currHPVCounter\000"
 9841      48505643 
 9841      6F756E74 
 9841      657200
 9842              	.LASF272:
 9843 0ede 6275735F 		.ascii	"bus_status\000"
 9843      73746174 
 9843      757300
 9844              	.LASF307:
 9845 0ee9 6F757244 		.ascii	"ourDuty\000"
 9845      75747900 
 9846              	.LASF90:
 9847 0ef1 77617463 		.ascii	"watchdog\000"
 9847      68646F67 
 9847      00
 9848              	.LASF365:
 9849 0efa 696E7465 		.ascii	"interrupterTimebase_WriteCounter\000"
 9849      72727570 
 9849      74657254 
 9849      696D6562 
 9849      6173655F 
 9850              	.LASF29:
 9851 0f1b 55426173 		.ascii	"UBaseType_t\000"
 9851      65547970 
 9851      655F7400 
 9852              	.LASF280:
 9853 0f27 72785F64 		.ascii	"rx_datarate\000"
 9853      61746172 
 9853      61746500 
 9854              	.LASF300:
 9855 0f33 6E6F6973 		.ascii	"noiseLimit\000"
 9855      654C696D 
 9855      697400
 9856              	.LASF27:
 9857 0f3e 72656738 		.ascii	"reg8\000"
 9857      00
 9858              	.LASF240:
 9859 0f43 494E5452 		.ascii	"INTR_DMA_TR\000"
 9859      5F444D41 
 9859      5F545200 
 9860              	.LASF330:
 9861 0f4f 53696747 		.ascii	"SigGen_minOt\000"
 9861      656E5F6D 
 9861      696E4F74 
 9861      00
 9862              	.LASF363:
 9863 0f5c 52696E67 		.ascii	"RingBuffer_getDataCount\000"
 9863      42756666 
 9863      65725F67 
 9863      65744461 
 9863      7461436F 
 9864              	.LASF261:
ARM GAS  C:\Users\chemi\AppData\Local\Temp\ccbZzKkH.s 			page 209


 9865 0f74 72657365 		.ascii	"resend_time\000"
 9865      6E645F74 
 9865      696D6500 
 9866              	.LASF384:
 9867 0f80 6D656D73 		.ascii	"memset\000"
 9867      657400
 9868              	.LASF98:
 9869 0f87 74656D70 		.ascii	"temp1_max\000"
 9869      315F6D61 
 9869      7800
 9870              	.LASF203:
 9871 0f91 70657269 		.ascii	"period\000"
 9871      6F6400
 9872              	.LASF104:
 9873 0f98 6C656164 		.ascii	"lead_time\000"
 9873      5F74696D 
 9873      6500
 9874              	.LASF5:
 9875 0fa2 5F5F696E 		.ascii	"__int16_t\000"
 9875      7431365F 
 9875      7400
 9876              	.LASF289:
 9877 0fac 6973725F 		.ascii	"isr_synth\000"
 9877      73796E74 
 9877      6800
 9878              	.LASF218:
 9879 0fb6 696E6974 		.ascii	"initialHpvVolume\000"
 9879      69616C48 
 9879      7076566F 
 9879      6C756D65 
 9879      00
 9880              	.LASF197:
 9881 0fc7 77726974 		.ascii	"writeIndex\000"
 9881      65496E64 
 9881      657800
 9882              	.LASF205:
 9883 0fd2 6E6F7465 		.ascii	"noteAge\000"
 9883      41676500 
 9884              	.LASF296:
 9885 0fda 6E657874 		.ascii	"nextPulse\000"
 9885      50756C73 
 9885      6500
 9886              	.LASF320:
 9887 0fe4 62757273 		.ascii	"burstOff_us\000"
 9887      744F6666 
 9887      5F757300 
 9888              	.LASF106:
 9889 0ff0 73746172 		.ascii	"start_cycles\000"
 9889      745F6379 
 9889      636C6573 
 9889      00
 9890              	.LASF76:
 9891 0ffd 5465726D 		.ascii	"TermProgram\000"
 9891      50726F67 
 9891      72616D00 
 9892              	.LASF212:
 9893 1009 616C7265 		.ascii	"alreadyTriggered\000"
ARM GAS  C:\Users\chemi\AppData\Local\Temp\ccbZzKkH.s 			page 210


 9893      61647954 
 9893      72696767 
 9893      65726564 
 9893      00
 9894              	.LASF81:
 9895 101a 6E616D65 		.ascii	"name\000"
 9895      00
 9896              	.LASF372:
 9897 101f 436F6D70 		.ascii	"Comp_getGain\000"
 9897      5F676574 
 9897      4761696E 
 9897      00
 9898              	.LASF326:
 9899 102c 53696747 		.ascii	"SigGen_killAudio\000"
 9899      656E5F6B 
 9899      696C6C41 
 9899      7564696F 
 9899      00
 9900              	.LASF23:
 9901 103d 75696E74 		.ascii	"uint8\000"
 9901      3800
 9902              	.LASF232:
 9903 1043 70756C73 		.ascii	"pulseFlopFlip\000"
 9903      65466C6F 
 9903      70466C69 
 9903      7000
 9904              	.LASF316:
 9905 1051 6F6E7469 		.ascii	"ontimeScale\000"
 9905      6D655363 
 9905      616C6500 
 9906              	.LASF80:
 9907 105d 76697369 		.ascii	"visible\000"
 9907      626C6500 
 9908              	.LASF134:
 9909 1065 69766F5F 		.ascii	"ivo_led\000"
 9909      6C656400 
 9910              	.LASF118:
 9911 106d 75645F6E 		.ascii	"ud_name\000"
 9911      616D6500 
 9912              	.LASF6:
 9913 1075 73686F72 		.ascii	"short int\000"
 9913      7420696E 
 9913      7400
 9914              	.LASF31:
 9915 107f 53747265 		.ascii	"StreamBufferHandle_t\000"
 9915      616D4275 
 9915      66666572 
 9915      48616E64 
 9915      6C655F74 
 9916              	.LASF105:
 9917 1094 73746172 		.ascii	"start_freq\000"
 9917      745F6672 
 9917      657100
 9918              	.LASF252:
 9919 109f 6D6F6465 		.ascii	"mode\000"
 9919      00
 9920              	.LASF69:
ARM GAS  C:\Users\chemi\AppData\Local\Temp\ccbZzKkH.s 			page 211


 9921 10a4 5465726D 		.ascii	"TermAutoCompHandler\000"
 9921      4175746F 
 9921      436F6D70 
 9921      48616E64 
 9921      6C657200 
 9922              	.LASF310:
 9923 10b8 53696747 		.ascii	"SigGen_setHyperVoiceVMS\000"
 9923      656E5F73 
 9923      65744879 
 9923      70657256 
 9923      6F696365 
 9924              	.LASF19:
 9925 10d0 696E7431 		.ascii	"int16_t\000"
 9925      365F7400 
 9926              	.LASF143:
 9927 10d8 636F6D70 		.ascii	"compressor_release\000"
 9927      72657373 
 9927      6F725F72 
 9927      656C6561 
 9927      736500
 9928              	.LASF267:
 9929 10eb 6275735F 		.ascii	"bus_v\000"
 9929      7600
 9930              	.LASF257:
 9931 10f1 5F5F7465 		.ascii	"__tele__\000"
 9931      6C655F5F 
 9931      00
 9932              	.LASF299:
 9933 10fa 72616E64 		.ascii	"randomizer\000"
 9933      6F6D697A 
 9933      657200
 9934              	.LASF188:
 9935 1105 53594E54 		.ascii	"SYNTH_TR\000"
 9935      485F5452 
 9935      00
 9936              	.LASF228:
 9937 110e 53696747 		.ascii	"SigGen_pulseData_t\000"
 9937      656E5F70 
 9937      756C7365 
 9937      44617461 
 9937      5F7400
 9938              	.LASF309:
 9939 1121 53696747 		.ascii	"SigGen_isVoiceOn\000"
 9939      656E5F69 
 9939      73566F69 
 9939      63654F6E 
 9939      00
 9940              	.LASF287:
 9941 1132 766F6C75 		.ascii	"volume\000"
 9941      6D6500
 9942              	.LASF297:
 9943 1139 6D617850 		.ascii	"maxPeriod_us\000"
 9943      6572696F 
 9943      645F7573 
 9943      00
 9944              	.LASF139:
 9945 1146 6D696E5F 		.ascii	"min_fb_current\000"
ARM GAS  C:\Users\chemi\AppData\Local\Temp\ccbZzKkH.s 			page 212


 9945      66625F63 
 9945      75727265 
 9945      6E7400
 9946              	.LASF119:
 9947 1155 62617564 		.ascii	"baudrate\000"
 9947      72617465 
 9947      00
 9948              	.LASF202:
 9949 115e 63757272 		.ascii	"currHPVDivider\000"
 9949      48505644 
 9949      69766964 
 9949      657200
 9950              	.LASF77:
 9951 116d 70617261 		.ascii	"parameter_entry\000"
 9951      6D657465 
 9951      725F656E 
 9951      74727900 
 9952              	.LASF132:
 9953 117d 6E74635F 		.ascii	"ntc_r25\000"
 9953      72323500 
 9954              	.LASF220:
 9955 1185 6C696D69 		.ascii	"limitedPulseWidth_us\000"
 9955      74656450 
 9955      756C7365 
 9955      57696474 
 9955      685F7573 
 9956              	.LASF182:
 9957 119a 6964635F 		.ascii	"idc_ma_count\000"
 9957      6D615F63 
 9957      6F756E74 
 9957      00
 9958              	.LASF348:
 9959 11a7 636F6D70 		.ascii	"compDebug\000"
 9959      44656275 
 9959      6700
 9960              	.LASF46:
 9961 11b1 68697374 		.ascii	"historyBuffer\000"
 9961      6F727942 
 9961      75666665 
 9961      7200
 9962              	.LASF174:
 9963 11bf 70776D62 		.ascii	"pwmb_start_cmp\000"
 9963      5F737461 
 9963      72745F63 
 9963      6D7000
 9964              	.LASF177:
 9965 11ce 70776D62 		.ascii	"pwmb_psb_val\000"
 9965      5F707362 
 9965      5F76616C 
 9965      00
 9966              	.LASF126:
 9967 11db 69766F5F 		.ascii	"ivo_uart\000"
 9967      75617274 
 9967      00
 9968              	.LASF22:
 9969 11e4 75696E74 		.ascii	"uint32_t\000"
 9969      33325F74 
ARM GAS  C:\Users\chemi\AppData\Local\Temp\ccbZzKkH.s 			page 213


 9969      00
 9970              	.LASF291:
 9971 11ed 70756C73 		.ascii	"pulse\000"
 9971      6500
 9972              	.LASF276:
 9973 11f3 7072696D 		.ascii	"primary_i\000"
 9973      6172795F 
 9973      6900
 9974              	.LASF95:
 9975 11fd 6D61785F 		.ascii	"max_tr_current\000"
 9975      74725F63 
 9975      75727265 
 9975      6E7400
 9976              	.LASF172:
 9977 120c 70776D61 		.ascii	"pwma_start_cmp\000"
 9977      5F737461 
 9977      72745F63 
 9977      6D7000
 9978              	.LASF71:
 9979 121b 696E7075 		.ascii	"inputHandler\000"
 9979      7448616E 
 9979      646C6572 
 9979      00
 9980              	.LASF33:
 9981 1228 53747265 		.ascii	"StreamBufferDef_t\000"
 9981      616D4275 
 9981      66666572 
 9981      4465665F 
 9981      7400
 9982              	.LASF265:
 9983 123a 54454C45 		.ascii	"TELE\000"
 9983      00
 9984              	.LASF235:
 9985 123f 74724275 		.ascii	"trBurstOnTime\000"
 9985      7273744F 
 9985      6E54696D 
 9985      6500
 9986              	.LASF357:
 9987 124d 696E7465 		.ascii	"interrupterTimebase_WriteControlRegister\000"
 9987      72727570 
 9987      74657254 
 9987      696D6562 
 9987      6173655F 
 9988              	.LASF377:
 9989 1276 2E2E5C63 		.ascii	"..\\common\\ud3core\\SignalGenerator.c\000"
 9989      6F6D6D6F 
 9989      6E5C7564 
 9989      33636F72 
 9989      655C5369 
 9990              	.LASF333:
 9991 129a 73796E74 		.ascii	"synthMode\000"
 9991      684D6F64 
 9991      6500
 9992              	.LASF117:
 9993 12a4 6175746F 		.ascii	"autotune_s\000"
 9993      74756E65 
 9993      5F7300
ARM GAS  C:\Users\chemi\AppData\Local\Temp\ccbZzKkH.s 			page 214


 9994              	.LASF356:
 9995 12af 696E7465 		.ascii	"interrupterTimebase_ReadControlRegister\000"
 9995      72727570 
 9995      74657254 
 9995      696D6562 
 9995      6173655F 
 9996              	.LASF8:
 9997 12d7 73686F72 		.ascii	"short unsigned int\000"
 9997      7420756E 
 9997      7369676E 
 9997      65642069 
 9997      6E7400
 9998              	.LASF374:
 9999 12ea 7163775F 		.ascii	"qcw_cmd_midi_pulse\000"
 9999      636D645F 
 9999      6D696469 
 9999      5F70756C 
 9999      736500
 10000              	.LASF281:
 10001 12fd 64757479 		.ascii	"dutycycle\000"
 10001      6379636C 
 10001      6500
 10002              	.LASF153:
 10003 1307 7163775F 		.ascii	"qcw_ramp\000"
 10003      72616D70 
 10003      00
 10004              	.LASF191:
 10005 1310 6D656D53 		.ascii	"memSize\000"
 10005      697A6500 
 10006              	.LASF138:
 10007 1318 6175746F 		.ascii	"autostart\000"
 10007      73746172 
 10007      7400
 10008              	.LASF346:
 10009 1322 61646469 		.ascii	"adding\000"
 10009      6E6700
 10010              	.LASF325:
 10011 1329 53696747 		.ascii	"SigGen_setVoiceTR\000"
 10011      656E5F73 
 10011      6574566F 
 10011      69636554 
 10011      5200
 10012              	.LASF35:
 10013 133b 696E7075 		.ascii	"inputBuffer\000"
 10013      74427566 
 10013      66657200 
 10014              	.LASF125:
 10015 1347 63686172 		.ascii	"chargedelay\000"
 10015      67656465 
 10015      6C617900 
 10016              	.LASF9:
 10017 1353 5F5F696E 		.ascii	"__int32_t\000"
 10017      7433325F 
 10017      7400
 10018              	.LASF255:
 10019 135d 78427572 		.ascii	"xBurst_Timer\000"
 10019      73745F54 
ARM GAS  C:\Users\chemi\AppData\Local\Temp\ccbZzKkH.s 			page 215


 10019      696D6572 
 10019      00
 10020              	.LASF317:
 10021 136a 53696747 		.ascii	"SigGen_setHyperVoiceParams\000"
 10021      656E5F73 
 10021      65744879 
 10021      70657256 
 10021      6F696365 
 10022              	.LASF231:
 10023 1385 70756C73 		.ascii	"pulseBuffer\000"
 10023      65427566 
 10023      66657200 
 10024              	.LASF194:
 10025 1391 64617461 		.ascii	"dataCountLimited\000"
 10025      436F756E 
 10025      744C696D 
 10025      69746564 
 10025      00
 10026              	.LASF225:
 10027 13a2 53696747 		.ascii	"SigGen_voiceData_t\000"
 10027      656E5F76 
 10027      6F696365 
 10027      44617461 
 10027      5F7400
 10028              	.LASF236:
 10029 13b5 74724275 		.ascii	"trBurstOffTime\000"
 10029      7273744F 
 10029      66665469 
 10029      6D6500
 10030              	.LASF168:
 10031 13c4 64617461 		.ascii	"data\000"
 10031      00
 10032              	.LASF34:
 10033 13c9 5445524D 		.ascii	"TERMINAL_HANDLE\000"
 10033      494E414C 
 10033      5F48414E 
 10033      444C4500 
 10034              	.LASF210:
 10035 13d9 6C696D69 		.ascii	"limitedEnabled\000"
 10035      74656445 
 10035      6E61626C 
 10035      656400
 10036              	.LASF24:
 10037 13e8 75696E74 		.ascii	"uint16\000"
 10037      313600
 10038              	.LASF341:
 10039 13ef 6374315F 		.ascii	"ct1_dac_val\000"
 10039      6461635F 
 10039      76616C00 
 10040              	.LASF192:
 10041 13fb 64617461 		.ascii	"dataSize\000"
 10041      53697A65 
 10041      00
 10042              	.LASF102:
 10043 1404 6374315F 		.ascii	"ct1_burden\000"
 10043      62757264 
 10043      656E00
ARM GAS  C:\Users\chemi\AppData\Local\Temp\ccbZzKkH.s 			page 216


 10044              	.LASF92:
 10045 140f 6D61785F 		.ascii	"max_tr_pw\000"
 10045      74725F70 
 10045      7700
 10046              	.LASF364:
 10047 1419 52696E67 		.ascii	"RingBuffer_read\000"
 10047      42756666 
 10047      65725F72 
 10047      65616400 
 10048              		.ident	"GCC: (GNU Tools for ARM Embedded Processors) 5.4.1 20160609 (release) [ARM/embedded-5-bran
