ARM GAS  C:\Users\chemi\AppData\Local\Temp\ccTLYMkB.s 			page 1


   1              		.syntax unified
   2              		.cpu cortex-m3
   3              		.fpu softvfp
   4              		.eabi_attribute 20, 1
   5              		.eabi_attribute 21, 1
   6              		.eabi_attribute 23, 3
   7              		.eabi_attribute 24, 1
   8              		.eabi_attribute 25, 1
   9              		.eabi_attribute 26, 1
  10              		.eabi_attribute 30, 4
  11              		.eabi_attribute 34, 1
  12              		.eabi_attribute 18, 4
  13              		.thumb
  14              		.syntax unified
  15              		.file	"system.c"
  16              		.text
  17              	.Ltext0:
  18              		.cfi_sections	.debug_frame
  19              		.section	.text.SYS_getCPULoadFine,"ax",%progbits
  20              		.align	1
  21              		.global	SYS_getCPULoadFine
  22              		.thumb
  23              		.thumb_func
  24              		.type	SYS_getCPULoadFine, %function
  25              	SYS_getCPULoadFine:
  26              	.LFB68:
  27              		.file 1 "..\\common\\ud3core\\system.c"
   1:..\common\ud3core/system.c **** 
   2:..\common\ud3core/system.c **** #include "system.h"
   3:..\common\ud3core/system.c **** #include "hardware.h"
   4:..\common\ud3core/system.c **** 
   5:..\common\ud3core/system.c **** 
   6:..\common\ud3core/system.c **** uint32_t SYS_getCPULoadFine(TaskStatus_t * taskStats, uint32_t taskCount, uint32_t sysTime){
  28              		.loc 1 6 0
  29              		.cfi_startproc
  30              		@ args = 0, pretend = 0, frame = 0
  31              		@ frame_needed = 0, uses_anonymous_args = 0
  32              	.LVL0:
   7:..\common\ud3core/system.c ****     if(sysTime<500) return 0;
  33              		.loc 1 7 0
  34 0000 B2F5FA7F 		cmp	r2, #500
   6:..\common\ud3core/system.c ****     if(sysTime<500) return 0;
  35              		.loc 1 6 0
  36 0004 2DE9F041 		push	{r4, r5, r6, r7, r8, lr}
  37              		.cfi_def_cfa_offset 24
  38              		.cfi_offset 4, -24
  39              		.cfi_offset 5, -20
  40              		.cfi_offset 6, -16
  41              		.cfi_offset 7, -12
  42              		.cfi_offset 8, -8
  43              		.cfi_offset 14, -4
   6:..\common\ud3core/system.c ****     if(sysTime<500) return 0;
  44              		.loc 1 6 0
  45 0008 8846     		mov	r8, r1
  46 000a 1546     		mov	r5, r2
  47              		.loc 1 7 0
  48 000c 20D3     		bcc	.L6
ARM GAS  C:\Users\chemi\AppData\Local\Temp\ccTLYMkB.s 			page 2


  49 000e 0446     		mov	r4, r0
  50 0010 0026     		movs	r6, #0
  51              	.LVL1:
  52              	.L3:
   8:..\common\ud3core/system.c ****     uint32_t currTask = 0;
   9:..\common\ud3core/system.c ****     for(;currTask < taskCount; currTask++){
  53              		.loc 1 9 0 discriminator 1
  54 0012 4645     		cmp	r6, r8
  55 0014 18D0     		beq	.L8
  10:..\common\ud3core/system.c ****         if(strlen(taskStats[currTask].pcTaskName) == 4 && strcmp(taskStats[currTask].pcTaskName, "I
  56              		.loc 1 10 0
  57 0016 6768     		ldr	r7, [r4, #4]
  58 0018 3846     		mov	r0, r7
  59 001a FFF7FEFF 		bl	strlen
  60              	.LVL2:
  61 001e 0428     		cmp	r0, #4
  62 0020 0FD1     		bne	.L4
  63              		.loc 1 10 0 is_stmt 0 discriminator 1
  64 0022 0D49     		ldr	r1, .L9
  65 0024 3846     		mov	r0, r7
  66 0026 FFF7FEFF 		bl	strcmp
  67              	.LVL3:
  68 002a 50B9     		cbnz	r0, .L4
  11:..\common\ud3core/system.c ****             return configTICK_RATE_HZ - ((taskStats[currTask].ulRunTimeCounter) / (sysTime/configTI
  69              		.loc 1 11 0 is_stmt 1
  70 002c 4FF47A70 		mov	r0, #1000
  71 0030 B5FBF0F0 		udiv	r0, r5, r0
  72 0034 A369     		ldr	r3, [r4, #24]
  73 0036 B3FBF0F0 		udiv	r0, r3, r0
  74 003a C0F57A70 		rsb	r0, r0, #1000
  75 003e BDE8F081 		pop	{r4, r5, r6, r7, r8, pc}
  76              	.LVL4:
  77              	.L4:
   9:..\common\ud3core/system.c ****         if(strlen(taskStats[currTask].pcTaskName) == 4 && strcmp(taskStats[currTask].pcTaskName, "I
  78              		.loc 1 9 0
  79 0042 0136     		adds	r6, r6, #1
  80              	.LVL5:
  81 0044 2834     		adds	r4, r4, #40
  82 0046 E4E7     		b	.L3
  83              	.L8:
  12:..\common\ud3core/system.c ****         }
  13:..\common\ud3core/system.c ****     }
  14:..\common\ud3core/system.c ****     return -1;
  84              		.loc 1 14 0
  85 0048 4FF0FF30 		mov	r0, #-1
  86 004c BDE8F081 		pop	{r4, r5, r6, r7, r8, pc}
  87              	.LVL6:
  88              	.L6:
   7:..\common\ud3core/system.c ****     uint32_t currTask = 0;
  89              		.loc 1 7 0
  90 0050 0020     		movs	r0, #0
  91              	.LVL7:
  15:..\common\ud3core/system.c **** }
  92              		.loc 1 15 0
  93 0052 BDE8F081 		pop	{r4, r5, r6, r7, r8, pc}
  94              	.L10:
  95 0056 00BF     		.align	2
ARM GAS  C:\Users\chemi\AppData\Local\Temp\ccTLYMkB.s 			page 3


  96              	.L9:
  97 0058 00000000 		.word	.LC0
  98              		.cfi_endproc
  99              	.LFE68:
 100              		.size	SYS_getCPULoadFine, .-SYS_getCPULoadFine
 101              		.section	.text.SYS_getTaskStateString,"ax",%progbits
 102              		.align	1
 103              		.global	SYS_getTaskStateString
 104              		.thumb
 105              		.thumb_func
 106              		.type	SYS_getTaskStateString, %function
 107              	SYS_getTaskStateString:
 108              	.LFB69:
  16:..\common\ud3core/system.c **** 
  17:..\common\ud3core/system.c **** const char * SYS_getTaskStateString(eTaskState state){
 109              		.loc 1 17 0
 110              		.cfi_startproc
 111              		@ args = 0, pretend = 0, frame = 0
 112              		@ frame_needed = 0, uses_anonymous_args = 0
 113              		@ link register save eliminated.
 114              	.LVL8:
 115 0000 0428     		cmp	r0, #4
 116 0002 9ABF     		itte	ls
 117 0004 024B     		ldrls	r3, .L14
 118 0006 53F82000 		ldrls	r0, [r3, r0, lsl #2]
 119              	.LVL9:
 120              		.loc 1 17 0
 121 000a 0248     		ldrhi	r0, .L14+4
  18:..\common\ud3core/system.c ****     switch(state){
  19:..\common\ud3core/system.c ****         case eRunning:
  20:..\common\ud3core/system.c ****             return "running";
  21:..\common\ud3core/system.c ****         case eReady:
  22:..\common\ud3core/system.c ****             return "ready";
  23:..\common\ud3core/system.c ****         case eBlocked:
  24:..\common\ud3core/system.c ****             return "blocked";
  25:..\common\ud3core/system.c ****         case eSuspended:
  26:..\common\ud3core/system.c ****             return "suspended";
  27:..\common\ud3core/system.c ****         case eDeleted:
  28:..\common\ud3core/system.c ****             return "deleted";
  29:..\common\ud3core/system.c ****         default:
  30:..\common\ud3core/system.c ****             return "invalid";
  31:..\common\ud3core/system.c ****     }
  32:..\common\ud3core/system.c **** }
 122              		.loc 1 32 0
 123 000c 7047     		bx	lr
 124              	.L15:
 125 000e 00BF     		.align	2
 126              	.L14:
 127 0010 00000000 		.word	.LANCHOR0
 128 0014 05000000 		.word	.LC1
 129              		.cfi_endproc
 130              	.LFE69:
 131              		.size	SYS_getTaskStateString, .-SYS_getTaskStateString
 132              		.section	.text.SYS_detect_hw_rev,"ax",%progbits
 133              		.align	1
 134              		.global	SYS_detect_hw_rev
 135              		.thumb
ARM GAS  C:\Users\chemi\AppData\Local\Temp\ccTLYMkB.s 			page 4


 136              		.thumb_func
 137              		.type	SYS_detect_hw_rev, %function
 138              	SYS_detect_hw_rev:
 139              	.LFB70:
  33:..\common\ud3core/system.c **** 
  34:..\common\ud3core/system.c **** uint8_t SYS_detect_hw_rev(void){
 140              		.loc 1 34 0
 141              		.cfi_startproc
 142              		@ args = 0, pretend = 0, frame = 0
 143              		@ frame_needed = 0, uses_anonymous_args = 0
 144              		@ link register save eliminated.
  35:..\common\ud3core/system.c **** #if IS_QFN
  36:..\common\ud3core/system.c ****     return 0;
  37:..\common\ud3core/system.c **** #else
  38:..\common\ud3core/system.c ****     uint8_t bits = 0;
  39:..\common\ud3core/system.c ****     
  40:..\common\ud3core/system.c ****     bits |= VB0_Read() ? 0 : 1;
  41:..\common\ud3core/system.c ****     bits |= (VB1_Read() ? 0 : 1) << 1;
  42:..\common\ud3core/system.c ****     bits |= (VB2_Read() ? 0 : 1) << 2;
  43:..\common\ud3core/system.c ****     bits |= (VB3_Read() ? 0 : 1) << 3;
  44:..\common\ud3core/system.c ****     bits |= (VB4_Read() ? 0 : 1) << 4;
  45:..\common\ud3core/system.c ****     bits |= (VB5_Read() ? 0 : 1) << 5;
  46:..\common\ud3core/system.c **** 
  47:..\common\ud3core/system.c ****     return bits;   
  48:..\common\ud3core/system.c **** #endif
  49:..\common\ud3core/system.c **** }
 145              		.loc 1 49 0
 146 0000 0020     		movs	r0, #0
 147 0002 7047     		bx	lr
 148              		.cfi_endproc
 149              	.LFE70:
 150              		.size	SYS_detect_hw_rev, .-SYS_detect_hw_rev
 151              		.section	.text.SYS_get_rev_string,"ax",%progbits
 152              		.align	1
 153              		.global	SYS_get_rev_string
 154              		.thumb
 155              		.thumb_func
 156              		.type	SYS_get_rev_string, %function
 157              	SYS_get_rev_string:
 158              	.LFB71:
  50:..\common\ud3core/system.c **** 
  51:..\common\ud3core/system.c **** char * SYS_get_rev_string(uint8_t rev){
 159              		.loc 1 51 0
 160              		.cfi_startproc
 161              		@ args = 0, pretend = 0, frame = 0
 162              		@ frame_needed = 0, uses_anonymous_args = 0
 163              		@ link register save eliminated.
 164              	.LVL10:
 165 0000 0228     		cmp	r0, #2
 166 0002 9DBF     		ittte	ls
 167 0004 024B     		ldrls	r3, .L20
 168 0006 03EB8000 		addls	r0, r3, r0, lsl #2
 169              	.LVL11:
 170 000a 4069     		ldrls	r0, [r0, #20]
 171              		.loc 1 51 0
 172 000c 0148     		ldrhi	r0, .L20+4
  52:..\common\ud3core/system.c ****     
ARM GAS  C:\Users\chemi\AppData\Local\Temp\ccTLYMkB.s 			page 5


  53:..\common\ud3core/system.c ****     switch(rev){
  54:..\common\ud3core/system.c ****     case 0:
  55:..\common\ud3core/system.c ****         return "3.0 or 3.1a";
  56:..\common\ud3core/system.c ****     case 1:
  57:..\common\ud3core/system.c ****         return "3.1b";
  58:..\common\ud3core/system.c ****     case 2:
  59:..\common\ud3core/system.c ****         return "3.1c";
  60:..\common\ud3core/system.c ****     default:
  61:..\common\ud3core/system.c ****         return "unknown";
  62:..\common\ud3core/system.c ****     }
  63:..\common\ud3core/system.c **** }...
 173              		.loc 1 63 0
 174 000e 7047     		bx	lr
 175              	.L21:
 176              		.align	2
 177              	.L20:
 178 0010 00000000 		.word	.LANCHOR0
 179 0014 0D000000 		.word	.LC2
 180              		.cfi_endproc
 181              	.LFE71:
 182              		.size	SYS_get_rev_string, .-SYS_get_rev_string
 183              		.section	.rodata
 184              		.align	2
 185              		.set	.LANCHOR0,. + 0
 186              		.type	CSWTCH.2, %object
 187              		.size	CSWTCH.2, 20
 188              	CSWTCH.2:
 189 0000 2B000000 		.word	.LC6
 190 0004 33000000 		.word	.LC7
 191 0008 39000000 		.word	.LC8
 192 000c 41000000 		.word	.LC9
 193 0010 4B000000 		.word	.LC10
 194              		.type	CSWTCH.5, %object
 195              		.size	CSWTCH.5, 12
 196              	CSWTCH.5:
 197 0014 15000000 		.word	.LC3
 198 0018 21000000 		.word	.LC4
 199 001c 26000000 		.word	.LC5
 200              		.section	.rodata.str1.1,"aMS",%progbits,1
 201              	.LC0:
 202 0000 49444C45 		.ascii	"IDLE\000"
 202      00
 203              	.LC1:
 204 0005 696E7661 		.ascii	"invalid\000"
 204      6C696400 
 205              	.LC2:
 206 000d 756E6B6E 		.ascii	"unknown\000"
 206      6F776E00 
 207              	.LC3:
 208 0015 332E3020 		.ascii	"3.0 or 3.1a\000"
 208      6F722033 
 208      2E316100 
 209              	.LC4:
 210 0021 332E3162 		.ascii	"3.1b\000"
 210      00
 211              	.LC5:
 212 0026 332E3163 		.ascii	"3.1c\000"
ARM GAS  C:\Users\chemi\AppData\Local\Temp\ccTLYMkB.s 			page 6


 212      00
 213              	.LC6:
 214 002b 72756E6E 		.ascii	"running\000"
 214      696E6700 
 215              	.LC7:
 216 0033 72656164 		.ascii	"ready\000"
 216      7900
 217              	.LC8:
 218 0039 626C6F63 		.ascii	"blocked\000"
 218      6B656400 
 219              	.LC9:
 220 0041 73757370 		.ascii	"suspended\000"
 220      656E6465 
 220      6400
 221              	.LC10:
 222 004b 64656C65 		.ascii	"deleted\000"
 222      74656400 
 223              		.text
 224              	.Letext0:
 225              		.file 2 "c:\\program files (x86)\\cypress\\psoc creator\\4.4\\psoc creator\\import\\gnu\\arm\\5.4.
 226              		.file 3 "c:\\program files (x86)\\cypress\\psoc creator\\4.4\\psoc creator\\import\\gnu\\arm\\5.4.
 227              		.file 4 "..\\common\\rtos\\portable\\GCC\\ARM_CM3/portmacro.h"
 228              		.file 5 "..\\common\\rtos\\include/task.h"
 229              		.file 6 "c:\\program files (x86)\\cypress\\psoc creator\\4.4\\psoc creator\\import\\gnu\\arm\\5.4.
 230              		.file 7 "Generated_Source\\PSoC5/core_cm3.h"