ARM GAS  C:\Users\chemi\AppData\Local\Temp\cc30iVmj.s 			page 1


   1              		.syntax unified
   2              		.cpu cortex-m3
   3              		.fpu softvfp
   4              		.eabi_attribute 20, 1
   5              		.eabi_attribute 21, 1
   6              		.eabi_attribute 23, 3
   7              		.eabi_attribute 24, 1
   8              		.eabi_attribute 25, 1
   9              		.eabi_attribute 26, 1
  10              		.eabi_attribute 30, 4
  11              		.eabi_attribute 34, 1
  12              		.eabi_attribute 18, 4
  13              		.thumb
  14              		.syntax unified
  15              		.file	"teslaterm.c"
  16              		.text
  17              	.Ltext0:
  18              		.cfi_sections	.debug_frame
  19              		.section	.text.send_gauge,"ax",%progbits
  20              		.align	1
  21              		.global	send_gauge
  22              		.thumb
  23              		.thumb_func
  24              		.type	send_gauge, %function
  25              	send_gauge:
  26              	.LFB68:
  27              		.file 1 "..\\common\\ud3core\\helper\\teslaterm.c"
   1:..\common\ud3core\helper/teslaterm.c **** 
   2:..\common\ud3core\helper/teslaterm.c **** #include "teslaterm.h"
   3:..\common\ud3core\helper/teslaterm.c **** 
   4:..\common\ud3core\helper/teslaterm.c **** #include "cli_basic.h"
   5:..\common\ud3core\helper/teslaterm.c **** #include "cli_common.h"
   6:..\common\ud3core\helper/teslaterm.c **** #include "printf.h"
   7:..\common\ud3core\helper/teslaterm.c **** #include <string.h>
   8:..\common\ud3core\helper/teslaterm.c **** #include "FreeRTOS.h"
   9:..\common\ud3core\helper/teslaterm.c **** #include "task.h"
  10:..\common\ud3core\helper/teslaterm.c **** #include "queue.h"
  11:..\common\ud3core\helper/teslaterm.c **** #include "semphr.h"
  12:..\common\ud3core\helper/teslaterm.c **** 
  13:..\common\ud3core\helper/teslaterm.c **** uint8_t gaugebuf[] = {0xFF,0x04, TT_GAUGE,0x00,0x00,0x00};
  14:..\common\ud3core\helper/teslaterm.c **** uint8_t buf32[] = {0xFF,0x06, TT_GAUGE32,0x00,0x00,0x00,0x00,0x00};
  15:..\common\ud3core\helper/teslaterm.c **** uint8_t chartbuf[] = {0xFF,0x04, TT_CHART,0x00,0x00,0x00};
  16:..\common\ud3core\helper/teslaterm.c **** const uint8_t chartdraw[] = {0xFF,0x02, TT_CHART_DRAW,0x00};
  17:..\common\ud3core\helper/teslaterm.c **** 
  18:..\common\ud3core\helper/teslaterm.c **** const char *units[]={
  19:..\common\ud3core\helper/teslaterm.c ****     "",
  20:..\common\ud3core\helper/teslaterm.c ****     "V",
  21:..\common\ud3core\helper/teslaterm.c ****     "A",
  22:..\common\ud3core\helper/teslaterm.c ****     "W",
  23:..\common\ud3core\helper/teslaterm.c ****     "Hz",
  24:..\common\ud3core\helper/teslaterm.c ****     "C",
  25:..\common\ud3core\helper/teslaterm.c ****     "kW",
  26:..\common\ud3core\helper/teslaterm.c ****     "RPM",
  27:..\common\ud3core\helper/teslaterm.c ****     "%",
  28:..\common\ud3core\helper/teslaterm.c ****     "mV"
  29:..\common\ud3core\helper/teslaterm.c ****     
  30:..\common\ud3core\helper/teslaterm.c **** };
ARM GAS  C:\Users\chemi\AppData\Local\Temp\cc30iVmj.s 			page 2


  31:..\common\ud3core\helper/teslaterm.c **** 
  32:..\common\ud3core\helper/teslaterm.c **** void send_gauge(uint8_t gauge, int16_t val, TERMINAL_HANDLE * handle){
  28              		.loc 1 32 0
  29              		.cfi_startproc
  30              		@ args = 0, pretend = 0, frame = 0
  31              		@ frame_needed = 0, uses_anonymous_args = 0
  32              		@ link register save eliminated.
  33              	.LVL0:
  34 0000 30B4     		push	{r4, r5}
  35              		.cfi_def_cfa_offset 8
  36              		.cfi_offset 4, -8
  37              		.cfi_offset 5, -4
  38              		.loc 1 32 0
  39 0002 1446     		mov	r4, r2
  33:..\common\ud3core\helper/teslaterm.c ****     gaugebuf[3]=gauge;
  40              		.loc 1 33 0
  41 0004 054A     		ldr	r2, .L2
  42              	.LVL1:
  34:..\common\ud3core\helper/teslaterm.c ****     gaugebuf[4]=(uint8_t)val;
  35:..\common\ud3core\helper/teslaterm.c ****     gaugebuf[5]=(uint8_t)(val>>8);
  36:..\common\ud3core\helper/teslaterm.c ****     ttprintb(gaugebuf,sizeof(gaugebuf));
  43              		.loc 1 36 0
  44 0006 656A     		ldr	r5, [r4, #36]
  34:..\common\ud3core\helper/teslaterm.c ****     gaugebuf[4]=(uint8_t)val;
  45              		.loc 1 34 0
  46 0008 1171     		strb	r1, [r2, #4]
  35:..\common\ud3core\helper/teslaterm.c ****     ttprintb(gaugebuf,sizeof(gaugebuf));
  47              		.loc 1 35 0
  48 000a 0912     		asrs	r1, r1, #8
  49              	.LVL2:
  50 000c 5171     		strb	r1, [r2, #5]
  33:..\common\ud3core\helper/teslaterm.c ****     gaugebuf[3]=gauge;
  51              		.loc 1 33 0
  52 000e D070     		strb	r0, [r2, #3]
  53              		.loc 1 36 0
  54 0010 6068     		ldr	r0, [r4, #4]
  55              	.LVL3:
  56 0012 AC46     		mov	ip, r5
  37:..\common\ud3core\helper/teslaterm.c **** }
  57              		.loc 1 37 0
  58 0014 30BC     		pop	{r4, r5}
  59              		.cfi_restore 5
  60              		.cfi_restore 4
  61              		.cfi_def_cfa_offset 0
  62              	.LVL4:
  36:..\common\ud3core\helper/teslaterm.c **** }
  63              		.loc 1 36 0
  64 0016 0623     		movs	r3, #6
  65 0018 0149     		ldr	r1, .L2+4
  66 001a 6047     		bx	ip
  67              	.LVL5:
  68              	.L3:
  69              		.align	2
  70              	.L2:
  71 001c 00000000 		.word	.LANCHOR0
  72 0020 00000000 		.word	.LC1
  73              		.cfi_endproc
ARM GAS  C:\Users\chemi\AppData\Local\Temp\cc30iVmj.s 			page 3


  74              	.LFE68:
  75              		.size	send_gauge, .-send_gauge
  76              		.section	.text.send_gauge32,"ax",%progbits
  77              		.align	1
  78              		.global	send_gauge32
  79              		.thumb
  80              		.thumb_func
  81              		.type	send_gauge32, %function
  82              	send_gauge32:
  83              	.LFB69:
  38:..\common\ud3core\helper/teslaterm.c **** 
  39:..\common\ud3core\helper/teslaterm.c **** void send_gauge32(uint8_t gauge, int32_t val, TERMINAL_HANDLE * handle){
  84              		.loc 1 39 0
  85              		.cfi_startproc
  86              		@ args = 0, pretend = 0, frame = 0
  87              		@ frame_needed = 0, uses_anonymous_args = 0
  88              		@ link register save eliminated.
  89              	.LVL6:
  90 0000 30B4     		push	{r4, r5}
  91              		.cfi_def_cfa_offset 8
  92              		.cfi_offset 4, -8
  93              		.cfi_offset 5, -4
  94              		.loc 1 39 0
  95 0002 1446     		mov	r4, r2
  40:..\common\ud3core\helper/teslaterm.c ****     buf32[2]=TT_GAUGE32;
  96              		.loc 1 40 0
  97 0004 094A     		ldr	r2, .L5
  98              	.LVL7:
  99 0006 0D23     		movs	r3, #13
 100 0008 1372     		strb	r3, [r2, #8]
  41:..\common\ud3core\helper/teslaterm.c ****     buf32[3]=gauge;
  42:..\common\ud3core\helper/teslaterm.c ****     buf32[4]=(uint8_t)val;
  43:..\common\ud3core\helper/teslaterm.c ****     buf32[5]=(uint8_t)(val>>8);
 101              		.loc 1 43 0
 102 000a 0B12     		asrs	r3, r1, #8
  42:..\common\ud3core\helper/teslaterm.c ****     buf32[5]=(uint8_t)(val>>8);
 103              		.loc 1 42 0
 104 000c 9172     		strb	r1, [r2, #10]
 105              		.loc 1 43 0
 106 000e D372     		strb	r3, [r2, #11]
  44:..\common\ud3core\helper/teslaterm.c ****     buf32[6]=(uint8_t)(val>>16);
  45:..\common\ud3core\helper/teslaterm.c ****     buf32[7]=(uint8_t)(val>>24);
  46:..\common\ud3core\helper/teslaterm.c ****     ttprintb(buf32,sizeof(buf32));
 107              		.loc 1 46 0
 108 0010 656A     		ldr	r5, [r4, #36]
  44:..\common\ud3core\helper/teslaterm.c ****     buf32[6]=(uint8_t)(val>>16);
 109              		.loc 1 44 0
 110 0012 0B14     		asrs	r3, r1, #16
  45:..\common\ud3core\helper/teslaterm.c ****     ttprintb(buf32,sizeof(buf32));
 111              		.loc 1 45 0
 112 0014 0916     		asrs	r1, r1, #24
 113              	.LVL8:
  44:..\common\ud3core\helper/teslaterm.c ****     buf32[6]=(uint8_t)(val>>16);
 114              		.loc 1 44 0
 115 0016 1373     		strb	r3, [r2, #12]
  45:..\common\ud3core\helper/teslaterm.c ****     ttprintb(buf32,sizeof(buf32));
 116              		.loc 1 45 0
ARM GAS  C:\Users\chemi\AppData\Local\Temp\cc30iVmj.s 			page 4


 117 0018 5173     		strb	r1, [r2, #13]
  41:..\common\ud3core\helper/teslaterm.c ****     buf32[4]=(uint8_t)val;
 118              		.loc 1 41 0
 119 001a 5072     		strb	r0, [r2, #9]
 120              		.loc 1 46 0
 121 001c 6068     		ldr	r0, [r4, #4]
 122              	.LVL9:
 123 001e AC46     		mov	ip, r5
  47:..\common\ud3core\helper/teslaterm.c **** }
 124              		.loc 1 47 0
 125 0020 30BC     		pop	{r4, r5}
 126              		.cfi_restore 5
 127              		.cfi_restore 4
 128              		.cfi_def_cfa_offset 0
 129              	.LVL10:
  46:..\common\ud3core\helper/teslaterm.c **** }
 130              		.loc 1 46 0
 131 0022 0823     		movs	r3, #8
 132 0024 0632     		adds	r2, r2, #6
 133 0026 0249     		ldr	r1, .L5+4
 134 0028 6047     		bx	ip
 135              	.LVL11:
 136              	.L6:
 137 002a 00BF     		.align	2
 138              	.L5:
 139 002c 00000000 		.word	.LANCHOR0
 140 0030 00000000 		.word	.LC1
 141              		.cfi_endproc
 142              	.LFE69:
 143              		.size	send_gauge32, .-send_gauge32
 144              		.section	.text.send_chart,"ax",%progbits
 145              		.align	1
 146              		.global	send_chart
 147              		.thumb
 148              		.thumb_func
 149              		.type	send_chart, %function
 150              	send_chart:
 151              	.LFB70:
  48:..\common\ud3core\helper/teslaterm.c **** 
  49:..\common\ud3core\helper/teslaterm.c **** void send_chart(uint8_t chart, int16_t val, TERMINAL_HANDLE * handle){
 152              		.loc 1 49 0
 153              		.cfi_startproc
 154              		@ args = 0, pretend = 0, frame = 0
 155              		@ frame_needed = 0, uses_anonymous_args = 0
 156              		@ link register save eliminated.
 157              	.LVL12:
 158 0000 30B4     		push	{r4, r5}
 159              		.cfi_def_cfa_offset 8
 160              		.cfi_offset 4, -8
 161              		.cfi_offset 5, -4
 162              		.loc 1 49 0
 163 0002 1446     		mov	r4, r2
  50:..\common\ud3core\helper/teslaterm.c ****     chartbuf[3]=chart;
 164              		.loc 1 50 0
 165 0004 064A     		ldr	r2, .L8
 166              	.LVL13:
  51:..\common\ud3core\helper/teslaterm.c ****     chartbuf[4]=(uint8_t)val;
ARM GAS  C:\Users\chemi\AppData\Local\Temp\cc30iVmj.s 			page 5


  52:..\common\ud3core\helper/teslaterm.c ****     chartbuf[5]=(uint8_t)(val>>8);
  53:..\common\ud3core\helper/teslaterm.c ****     ttprintb(chartbuf,sizeof(chartbuf));
 167              		.loc 1 53 0
 168 0006 656A     		ldr	r5, [r4, #36]
  51:..\common\ud3core\helper/teslaterm.c ****     chartbuf[4]=(uint8_t)val;
 169              		.loc 1 51 0
 170 0008 9174     		strb	r1, [r2, #18]
  52:..\common\ud3core\helper/teslaterm.c ****     ttprintb(chartbuf,sizeof(chartbuf));
 171              		.loc 1 52 0
 172 000a 0912     		asrs	r1, r1, #8
 173              	.LVL14:
 174 000c D174     		strb	r1, [r2, #19]
  50:..\common\ud3core\helper/teslaterm.c ****     chartbuf[3]=chart;
 175              		.loc 1 50 0
 176 000e 5074     		strb	r0, [r2, #17]
 177              		.loc 1 53 0
 178 0010 6068     		ldr	r0, [r4, #4]
 179              	.LVL15:
 180 0012 AC46     		mov	ip, r5
  54:..\common\ud3core\helper/teslaterm.c **** }
 181              		.loc 1 54 0
 182 0014 30BC     		pop	{r4, r5}
 183              		.cfi_restore 5
 184              		.cfi_restore 4
 185              		.cfi_def_cfa_offset 0
 186              	.LVL16:
  53:..\common\ud3core\helper/teslaterm.c **** }
 187              		.loc 1 53 0
 188 0016 0623     		movs	r3, #6
 189 0018 0E32     		adds	r2, r2, #14
 190 001a 0249     		ldr	r1, .L8+4
 191 001c 6047     		bx	ip
 192              	.LVL17:
 193              	.L9:
 194 001e 00BF     		.align	2
 195              	.L8:
 196 0020 00000000 		.word	.LANCHOR0
 197 0024 00000000 		.word	.LC1
 198              		.cfi_endproc
 199              	.LFE70:
 200              		.size	send_chart, .-send_chart
 201              		.section	.text.send_chart32,"ax",%progbits
 202              		.align	1
 203              		.global	send_chart32
 204              		.thumb
 205              		.thumb_func
 206              		.type	send_chart32, %function
 207              	send_chart32:
 208              	.LFB71:
  55:..\common\ud3core\helper/teslaterm.c **** 
  56:..\common\ud3core\helper/teslaterm.c **** void send_chart32(uint8_t chart, int32_t val, TERMINAL_HANDLE * handle){
 209              		.loc 1 56 0
 210              		.cfi_startproc
 211              		@ args = 0, pretend = 0, frame = 0
 212              		@ frame_needed = 0, uses_anonymous_args = 0
 213              		@ link register save eliminated.
 214              	.LVL18:
ARM GAS  C:\Users\chemi\AppData\Local\Temp\cc30iVmj.s 			page 6


 215 0000 30B4     		push	{r4, r5}
 216              		.cfi_def_cfa_offset 8
 217              		.cfi_offset 4, -8
 218              		.cfi_offset 5, -4
 219              		.loc 1 56 0
 220 0002 1446     		mov	r4, r2
  57:..\common\ud3core\helper/teslaterm.c ****     buf32[2]=TT_CHART32;
 221              		.loc 1 57 0
 222 0004 094A     		ldr	r2, .L11
 223              	.LVL19:
 224 0006 1023     		movs	r3, #16
 225 0008 1372     		strb	r3, [r2, #8]
  58:..\common\ud3core\helper/teslaterm.c ****     buf32[3]=chart;
  59:..\common\ud3core\helper/teslaterm.c ****     buf32[4]=(uint8_t)val;
  60:..\common\ud3core\helper/teslaterm.c ****     buf32[5]=(uint8_t)(val>>8);
 226              		.loc 1 60 0
 227 000a 0B12     		asrs	r3, r1, #8
  59:..\common\ud3core\helper/teslaterm.c ****     buf32[5]=(uint8_t)(val>>8);
 228              		.loc 1 59 0
 229 000c 9172     		strb	r1, [r2, #10]
 230              		.loc 1 60 0
 231 000e D372     		strb	r3, [r2, #11]
  61:..\common\ud3core\helper/teslaterm.c ****     buf32[6]=(uint8_t)(val>>16);
  62:..\common\ud3core\helper/teslaterm.c ****     buf32[7]=(uint8_t)(val>>24);
  63:..\common\ud3core\helper/teslaterm.c ****     ttprintb(buf32,sizeof(buf32));
 232              		.loc 1 63 0
 233 0010 656A     		ldr	r5, [r4, #36]
  61:..\common\ud3core\helper/teslaterm.c ****     buf32[6]=(uint8_t)(val>>16);
 234              		.loc 1 61 0
 235 0012 0B14     		asrs	r3, r1, #16
  62:..\common\ud3core\helper/teslaterm.c ****     ttprintb(buf32,sizeof(buf32));
 236              		.loc 1 62 0
 237 0014 0916     		asrs	r1, r1, #24
 238              	.LVL20:
  61:..\common\ud3core\helper/teslaterm.c ****     buf32[6]=(uint8_t)(val>>16);
 239              		.loc 1 61 0
 240 0016 1373     		strb	r3, [r2, #12]
  62:..\common\ud3core\helper/teslaterm.c ****     ttprintb(buf32,sizeof(buf32));
 241              		.loc 1 62 0
 242 0018 5173     		strb	r1, [r2, #13]
  58:..\common\ud3core\helper/teslaterm.c ****     buf32[4]=(uint8_t)val;
 243              		.loc 1 58 0
 244 001a 5072     		strb	r0, [r2, #9]
 245              		.loc 1 63 0
 246 001c 6068     		ldr	r0, [r4, #4]
 247              	.LVL21:
 248 001e AC46     		mov	ip, r5
  64:..\common\ud3core\helper/teslaterm.c **** }
 249              		.loc 1 64 0
 250 0020 30BC     		pop	{r4, r5}
 251              		.cfi_restore 5
 252              		.cfi_restore 4
 253              		.cfi_def_cfa_offset 0
 254              	.LVL22:
  63:..\common\ud3core\helper/teslaterm.c **** }
 255              		.loc 1 63 0
 256 0022 0823     		movs	r3, #8
ARM GAS  C:\Users\chemi\AppData\Local\Temp\cc30iVmj.s 			page 7


 257 0024 0632     		adds	r2, r2, #6
 258 0026 0249     		ldr	r1, .L11+4
 259 0028 6047     		bx	ip
 260              	.LVL23:
 261              	.L12:
 262 002a 00BF     		.align	2
 263              	.L11:
 264 002c 00000000 		.word	.LANCHOR0
 265 0030 00000000 		.word	.LC1
 266              		.cfi_endproc
 267              	.LFE71:
 268              		.size	send_chart32, .-send_chart32
 269              		.section	.text.send_chart_draw,"ax",%progbits
 270              		.align	1
 271              		.global	send_chart_draw
 272              		.thumb
 273              		.thumb_func
 274              		.type	send_chart_draw, %function
 275              	send_chart_draw:
 276              	.LFB72:
  65:..\common\ud3core\helper/teslaterm.c **** 
  66:..\common\ud3core\helper/teslaterm.c **** 
  67:..\common\ud3core\helper/teslaterm.c **** void send_chart_draw(TERMINAL_HANDLE * handle){
 277              		.loc 1 67 0
 278              		.cfi_startproc
 279              		@ args = 0, pretend = 0, frame = 0
 280              		@ frame_needed = 0, uses_anonymous_args = 0
 281              		@ link register save eliminated.
 282              	.LVL24:
 283 0000 10B4     		push	{r4}
 284              		.cfi_def_cfa_offset 4
 285              		.cfi_offset 4, -4
  68:..\common\ud3core\helper/teslaterm.c ****     ttprintb(chartdraw,sizeof(chartdraw));
 286              		.loc 1 68 0
 287 0002 446A     		ldr	r4, [r0, #36]
 288 0004 0423     		movs	r3, #4
 289 0006 A446     		mov	ip, r4
 290 0008 024A     		ldr	r2, .L14
 291 000a 0349     		ldr	r1, .L14+4
 292 000c 4068     		ldr	r0, [r0, #4]
 293              	.LVL25:
  69:..\common\ud3core\helper/teslaterm.c **** }
 294              		.loc 1 69 0
 295 000e 10BC     		pop	{r4}
 296              		.cfi_restore 4
 297              		.cfi_def_cfa_offset 0
  68:..\common\ud3core\helper/teslaterm.c ****     ttprintb(chartdraw,sizeof(chartdraw));
 298              		.loc 1 68 0
 299 0010 6047     		bx	ip
 300              	.LVL26:
 301              	.L15:
 302 0012 00BF     		.align	2
 303              	.L14:
 304 0014 00000000 		.word	.LANCHOR1
 305 0018 00000000 		.word	.LC1
 306              		.cfi_endproc
 307              	.LFE72:
ARM GAS  C:\Users\chemi\AppData\Local\Temp\cc30iVmj.s 			page 8


 308              		.size	send_chart_draw, .-send_chart_draw
 309              		.section	.text.send_chart_config,"ax",%progbits
 310              		.align	1
 311              		.global	send_chart_config
 312              		.thumb
 313              		.thumb_func
 314              		.type	send_chart_config, %function
 315              	send_chart_config:
 316              	.LFB73:
  70:..\common\ud3core\helper/teslaterm.c **** 
  71:..\common\ud3core\helper/teslaterm.c **** void send_chart_config(uint8_t chart, int16_t min, int16_t max, int16_t offset,uint8_t unit, char *
 317              		.loc 1 71 0
 318              		.cfi_startproc
 319              		@ args = 12, pretend = 0, frame = 16
 320              		@ frame_needed = 0, uses_anonymous_args = 0
 321              	.LVL27:
 322 0000 2DE9F043 		push	{r4, r5, r6, r7, r8, r9, lr}
 323              		.cfi_def_cfa_offset 28
 324              		.cfi_offset 4, -28
 325              		.cfi_offset 5, -24
 326              		.cfi_offset 6, -20
 327              		.cfi_offset 7, -16
 328              		.cfi_offset 8, -12
 329              		.cfi_offset 9, -8
 330              		.cfi_offset 14, -4
 331 0004 85B0     		sub	sp, sp, #20
 332              		.cfi_def_cfa_offset 48
 333              		.loc 1 71 0
 334 0006 8146     		mov	r9, r0
  72:..\common\ud3core\helper/teslaterm.c ****     uint8_t bytes = strlen(text);
 335              		.loc 1 72 0
 336 0008 0D98     		ldr	r0, [sp, #52]
 337              	.LVL28:
  71:..\common\ud3core\helper/teslaterm.c ****     uint8_t bytes = strlen(text);
 338              		.loc 1 71 0
 339 000a 0F46     		mov	r7, r1
 340 000c 1646     		mov	r6, r2
 341 000e 1D46     		mov	r5, r3
 342              		.loc 1 72 0
 343 0010 FFF7FEFF 		bl	strlen
 344              	.LVL29:
 345 0014 8046     		mov	r8, r0
 346              	.LVL30:
  73:..\common\ud3core\helper/teslaterm.c ****     uint8_t buf[11];
  74:..\common\ud3core\helper/teslaterm.c ****     buf[0] = 0xFF;
 347              		.loc 1 74 0
 348 0016 FF23     		movs	r3, #255
 349 0018 8DF80430 		strb	r3, [sp, #4]
  75:..\common\ud3core\helper/teslaterm.c ****     buf[1] = bytes+sizeof(buf)-2;
 350              		.loc 1 75 0
 351 001c 00F10903 		add	r3, r0, #9
 352 0020 8DF80530 		strb	r3, [sp, #5]
  76:..\common\ud3core\helper/teslaterm.c ****     buf[2] = TT_CHART_CONFIG;
  77:..\common\ud3core\helper/teslaterm.c ****     buf[3] = chart;
  78:..\common\ud3core\helper/teslaterm.c ****     buf[4] = min;
  79:..\common\ud3core\helper/teslaterm.c ****     buf[5] = (min>>8);
  80:..\common\ud3core\helper/teslaterm.c ****     buf[6] = max;
ARM GAS  C:\Users\chemi\AppData\Local\Temp\cc30iVmj.s 			page 9


  81:..\common\ud3core\helper/teslaterm.c ****     buf[7] = (max>>8);
  82:..\common\ud3core\helper/teslaterm.c ****     buf[8] = offset;
 353              		.loc 1 82 0
 354 0024 8DF80C50 		strb	r5, [sp, #12]
  76:..\common\ud3core\helper/teslaterm.c ****     buf[2] = TT_CHART_CONFIG;
 355              		.loc 1 76 0
 356 0028 0523     		movs	r3, #5
  83:..\common\ud3core\helper/teslaterm.c ****     buf[9] = (offset>>8);
 357              		.loc 1 83 0
 358 002a 2D12     		asrs	r5, r5, #8
  71:..\common\ud3core\helper/teslaterm.c ****     uint8_t bytes = strlen(text);
 359              		.loc 1 71 0
 360 002c 0E9C     		ldr	r4, [sp, #56]
  76:..\common\ud3core\helper/teslaterm.c ****     buf[2] = TT_CHART_CONFIG;
 361              		.loc 1 76 0
 362 002e 8DF80630 		strb	r3, [sp, #6]
 363              		.loc 1 83 0
 364 0032 8DF80D50 		strb	r5, [sp, #13]
  84:..\common\ud3core\helper/teslaterm.c ****     buf[10] = unit;
 365              		.loc 1 84 0
 366 0036 9DF83030 		ldrb	r3, [sp, #48]	@ zero_extendqisi2
  85:..\common\ud3core\helper/teslaterm.c ****     ttprintb(buf,sizeof(buf));
 367              		.loc 1 85 0
 368 003a 0F4D     		ldr	r5, .L17
  78:..\common\ud3core\helper/teslaterm.c ****     buf[5] = (min>>8);
 369              		.loc 1 78 0
 370 003c 8DF80870 		strb	r7, [sp, #8]
  80:..\common\ud3core\helper/teslaterm.c ****     buf[7] = (max>>8);
 371              		.loc 1 80 0
 372 0040 8DF80A60 		strb	r6, [sp, #10]
  79:..\common\ud3core\helper/teslaterm.c ****     buf[6] = max;
 373              		.loc 1 79 0
 374 0044 3F12     		asrs	r7, r7, #8
  81:..\common\ud3core\helper/teslaterm.c ****     buf[8] = offset;
 375              		.loc 1 81 0
 376 0046 3612     		asrs	r6, r6, #8
 377 0048 8DF80B60 		strb	r6, [sp, #11]
  84:..\common\ud3core\helper/teslaterm.c ****     ttprintb(buf,sizeof(buf));
 378              		.loc 1 84 0
 379 004c 8DF80E30 		strb	r3, [sp, #14]
 380              		.loc 1 85 0
 381 0050 666A     		ldr	r6, [r4, #36]
 382 0052 01AA     		add	r2, sp, #4
 383 0054 2946     		mov	r1, r5
  77:..\common\ud3core\helper/teslaterm.c ****     buf[4] = min;
 384              		.loc 1 77 0
 385 0056 8DF80790 		strb	r9, [sp, #7]
  79:..\common\ud3core\helper/teslaterm.c ****     buf[6] = max;
 386              		.loc 1 79 0
 387 005a 8DF80970 		strb	r7, [sp, #9]
 388              		.loc 1 85 0
 389 005e 0B23     		movs	r3, #11
 390 0060 6068     		ldr	r0, [r4, #4]
 391              	.LVL31:
 392 0062 B047     		blx	r6
 393              	.LVL32:
  86:..\common\ud3core\helper/teslaterm.c ****     ttprintb(text,bytes);
ARM GAS  C:\Users\chemi\AppData\Local\Temp\cc30iVmj.s 			page 10


 394              		.loc 1 86 0
 395 0064 666A     		ldr	r6, [r4, #36]
 396 0066 5FFA88F3 		uxtb	r3, r8
 397 006a 0D9A     		ldr	r2, [sp, #52]
 398 006c 2946     		mov	r1, r5
 399 006e 6068     		ldr	r0, [r4, #4]
 400 0070 B047     		blx	r6
 401              	.LVL33:
  87:..\common\ud3core\helper/teslaterm.c **** }
 402              		.loc 1 87 0
 403 0072 05B0     		add	sp, sp, #20
 404              		.cfi_def_cfa_offset 28
 405              		@ sp needed
 406 0074 BDE8F083 		pop	{r4, r5, r6, r7, r8, r9, pc}
 407              	.LVL34:
 408              	.L18:
 409              		.align	2
 410              	.L17:
 411 0078 00000000 		.word	.LC1
 412              		.cfi_endproc
 413              	.LFE73:
 414              		.size	send_chart_config, .-send_chart_config
 415              		.section	.text.send_chart_config32,"ax",%progbits
 416              		.align	1
 417              		.global	send_chart_config32
 418              		.thumb
 419              		.thumb_func
 420              		.type	send_chart_config32, %function
 421              	send_chart_config32:
 422              	.LFB74:
  88:..\common\ud3core\helper/teslaterm.c **** 
  89:..\common\ud3core\helper/teslaterm.c **** void send_chart_config32(uint8_t chart, int32_t min, int32_t max, int32_t offset, int32_t div, uint
 423              		.loc 1 89 0
 424              		.cfi_startproc
 425              		@ args = 16, pretend = 0, frame = 24
 426              		@ frame_needed = 0, uses_anonymous_args = 0
 427              	.LVL35:
 428 0000 2DE9F047 		push	{r4, r5, r6, r7, r8, r9, r10, lr}
 429              		.cfi_def_cfa_offset 32
 430              		.cfi_offset 4, -32
 431              		.cfi_offset 5, -28
 432              		.cfi_offset 6, -24
 433              		.cfi_offset 7, -20
 434              		.cfi_offset 8, -16
 435              		.cfi_offset 9, -12
 436              		.cfi_offset 10, -8
 437              		.cfi_offset 14, -4
 438 0004 86B0     		sub	sp, sp, #24
 439              		.cfi_def_cfa_offset 56
 440              		.loc 1 89 0
 441 0006 8246     		mov	r10, r0
  90:..\common\ud3core\helper/teslaterm.c ****     uint8_t bytes = strlen(text);
 442              		.loc 1 90 0
 443 0008 1098     		ldr	r0, [sp, #64]
 444              	.LVL36:
  89:..\common\ud3core\helper/teslaterm.c ****     uint8_t bytes = strlen(text);
 445              		.loc 1 89 0
ARM GAS  C:\Users\chemi\AppData\Local\Temp\cc30iVmj.s 			page 11


 446 000a 8946     		mov	r9, r1
 447 000c 1646     		mov	r6, r2
 448 000e 1D46     		mov	r5, r3
 449              		.loc 1 90 0
 450 0010 FFF7FEFF 		bl	strlen
 451              	.LVL37:
 452 0014 8046     		mov	r8, r0
 453              	.LVL38:
  91:..\common\ud3core\helper/teslaterm.c ****     uint8_t buf[21];
  92:..\common\ud3core\helper/teslaterm.c ****     buf[0] = 0xFF;
 454              		.loc 1 92 0
 455 0016 FF23     		movs	r3, #255
 456 0018 8DF80030 		strb	r3, [sp]
  93:..\common\ud3core\helper/teslaterm.c ****     buf[1] = bytes+sizeof(buf)-2;
 457              		.loc 1 93 0
 458 001c 00F11303 		add	r3, r0, #19
 459 0020 8DF80130 		strb	r3, [sp, #1]
  94:..\common\ud3core\helper/teslaterm.c ****     buf[2] = TT_CHART32_CONF;
 460              		.loc 1 94 0
 461 0024 1123     		movs	r3, #17
 462 0026 8DF80230 		strb	r3, [sp, #2]
  95:..\common\ud3core\helper/teslaterm.c ****     buf[3] = chart;
  96:..\common\ud3core\helper/teslaterm.c ****     buf[4] = (uint8_t)min;
  97:..\common\ud3core\helper/teslaterm.c ****     buf[5] = (uint8_t)(min>>8);
 463              		.loc 1 97 0
 464 002a 4FEA2923 		asr	r3, r9, #8
 465 002e 8DF80530 		strb	r3, [sp, #5]
  98:..\common\ud3core\helper/teslaterm.c ****     buf[6] = (uint8_t)(min>>16);
 466              		.loc 1 98 0
 467 0032 4FEA2943 		asr	r3, r9, #16
 468 0036 8DF80630 		strb	r3, [sp, #6]
  99:..\common\ud3core\helper/teslaterm.c ****     buf[7] = (uint8_t)(min>>24);
 100:..\common\ud3core\helper/teslaterm.c ****     buf[8] = (uint8_t)max;
 101:..\common\ud3core\helper/teslaterm.c ****     buf[9] = (uint8_t)(max>>8);
 469              		.loc 1 101 0
 470 003a 3312     		asrs	r3, r6, #8
 471 003c 8DF80930 		strb	r3, [sp, #9]
 102:..\common\ud3core\helper/teslaterm.c ****     buf[10] = (uint8_t)(max>>16);
 472              		.loc 1 102 0
 473 0040 3314     		asrs	r3, r6, #16
  89:..\common\ud3core\helper/teslaterm.c ****     uint8_t bytes = strlen(text);
 474              		.loc 1 89 0
 475 0042 0E9C     		ldr	r4, [sp, #56]
 476              		.loc 1 102 0
 477 0044 8DF80A30 		strb	r3, [sp, #10]
 103:..\common\ud3core\helper/teslaterm.c ****     buf[11] = (uint8_t)(max>>24);
 104:..\common\ud3core\helper/teslaterm.c ****     buf[12] = (uint8_t)offset;
 105:..\common\ud3core\helper/teslaterm.c ****     buf[13] = (uint8_t)(offset>>8);
 478              		.loc 1 105 0
 479 0048 2B12     		asrs	r3, r5, #8
 480 004a 8DF80D30 		strb	r3, [sp, #13]
 106:..\common\ud3core\helper/teslaterm.c ****     buf[14] = (uint8_t)(offset>>16);
 481              		.loc 1 106 0
 482 004e 2B14     		asrs	r3, r5, #16
 483 0050 8DF80E30 		strb	r3, [sp, #14]
 107:..\common\ud3core\helper/teslaterm.c ****     buf[15] = (uint8_t)(offset>>24);
 108:..\common\ud3core\helper/teslaterm.c ****     buf[16] = (uint8_t)div;
ARM GAS  C:\Users\chemi\AppData\Local\Temp\cc30iVmj.s 			page 12


 109:..\common\ud3core\helper/teslaterm.c ****     buf[17] = (uint8_t)(div>>8);
 484              		.loc 1 109 0
 485 0054 2312     		asrs	r3, r4, #8
 108:..\common\ud3core\helper/teslaterm.c ****     buf[17] = (uint8_t)(div>>8);
 486              		.loc 1 108 0
 487 0056 8DF81040 		strb	r4, [sp, #16]
 488              		.loc 1 109 0
 489 005a 8DF81130 		strb	r3, [sp, #17]
 110:..\common\ud3core\helper/teslaterm.c ****     buf[18] = (uint8_t)(div>>16);
 490              		.loc 1 110 0
 491 005e 2314     		asrs	r3, r4, #16
 111:..\common\ud3core\helper/teslaterm.c ****     buf[19] = (uint8_t)(div>>24);
 492              		.loc 1 111 0
 493 0060 2416     		asrs	r4, r4, #24
  89:..\common\ud3core\helper/teslaterm.c ****     uint8_t bytes = strlen(text);
 494              		.loc 1 89 0
 495 0062 119F     		ldr	r7, [sp, #68]
 110:..\common\ud3core\helper/teslaterm.c ****     buf[18] = (uint8_t)(div>>16);
 496              		.loc 1 110 0
 497 0064 8DF81230 		strb	r3, [sp, #18]
 498              		.loc 1 111 0
 499 0068 8DF81340 		strb	r4, [sp, #19]
 112:..\common\ud3core\helper/teslaterm.c ****     buf[20] = unit;
 500              		.loc 1 112 0
 501 006c 9DF83C30 		ldrb	r3, [sp, #60]	@ zero_extendqisi2
 113:..\common\ud3core\helper/teslaterm.c ****     ttprintb(buf,sizeof(buf));
 502              		.loc 1 113 0
 503 0070 124C     		ldr	r4, .L20
  96:..\common\ud3core\helper/teslaterm.c ****     buf[5] = (uint8_t)(min>>8);
 504              		.loc 1 96 0
 505 0072 8DF80490 		strb	r9, [sp, #4]
 100:..\common\ud3core\helper/teslaterm.c ****     buf[9] = (uint8_t)(max>>8);
 506              		.loc 1 100 0
 507 0076 8DF80860 		strb	r6, [sp, #8]
 104:..\common\ud3core\helper/teslaterm.c ****     buf[13] = (uint8_t)(offset>>8);
 508              		.loc 1 104 0
 509 007a 8DF80C50 		strb	r5, [sp, #12]
  99:..\common\ud3core\helper/teslaterm.c ****     buf[8] = (uint8_t)max;
 510              		.loc 1 99 0
 511 007e 4FEA2969 		asr	r9, r9, #24
 512              	.LVL39:
 103:..\common\ud3core\helper/teslaterm.c ****     buf[12] = (uint8_t)offset;
 513              		.loc 1 103 0
 514 0082 3616     		asrs	r6, r6, #24
 515              	.LVL40:
 107:..\common\ud3core\helper/teslaterm.c ****     buf[16] = (uint8_t)div;
 516              		.loc 1 107 0
 517 0084 2D16     		asrs	r5, r5, #24
 518              	.LVL41:
 519 0086 8DF80F50 		strb	r5, [sp, #15]
 112:..\common\ud3core\helper/teslaterm.c ****     ttprintb(buf,sizeof(buf));
 520              		.loc 1 112 0
 521 008a 8DF81430 		strb	r3, [sp, #20]
 522              		.loc 1 113 0
 523 008e 7D6A     		ldr	r5, [r7, #36]
 524 0090 6A46     		mov	r2, sp
 525 0092 2146     		mov	r1, r4
ARM GAS  C:\Users\chemi\AppData\Local\Temp\cc30iVmj.s 			page 13


  95:..\common\ud3core\helper/teslaterm.c ****     buf[4] = (uint8_t)min;
 526              		.loc 1 95 0
 527 0094 8DF803A0 		strb	r10, [sp, #3]
  99:..\common\ud3core\helper/teslaterm.c ****     buf[8] = (uint8_t)max;
 528              		.loc 1 99 0
 529 0098 8DF80790 		strb	r9, [sp, #7]
 103:..\common\ud3core\helper/teslaterm.c ****     buf[12] = (uint8_t)offset;
 530              		.loc 1 103 0
 531 009c 8DF80B60 		strb	r6, [sp, #11]
 532              		.loc 1 113 0
 533 00a0 1523     		movs	r3, #21
 534 00a2 7868     		ldr	r0, [r7, #4]
 535              	.LVL42:
 536 00a4 A847     		blx	r5
 537              	.LVL43:
 114:..\common\ud3core\helper/teslaterm.c ****     ttprintb(text,bytes);
 538              		.loc 1 114 0
 539 00a6 7D6A     		ldr	r5, [r7, #36]
 540 00a8 5FFA88F3 		uxtb	r3, r8
 541 00ac 109A     		ldr	r2, [sp, #64]
 542 00ae 2146     		mov	r1, r4
 543 00b0 7868     		ldr	r0, [r7, #4]
 544 00b2 A847     		blx	r5
 545              	.LVL44:
 115:..\common\ud3core\helper/teslaterm.c **** }
 546              		.loc 1 115 0
 547 00b4 06B0     		add	sp, sp, #24
 548              		.cfi_def_cfa_offset 32
 549              		@ sp needed
 550 00b6 BDE8F087 		pop	{r4, r5, r6, r7, r8, r9, r10, pc}
 551              	.LVL45:
 552              	.L21:
 553 00ba 00BF     		.align	2
 554              	.L20:
 555 00bc 00000000 		.word	.LC1
 556              		.cfi_endproc
 557              	.LFE74:
 558              		.size	send_chart_config32, .-send_chart_config32
 559              		.section	.text.send_gauge_config,"ax",%progbits
 560              		.align	1
 561              		.global	send_gauge_config
 562              		.thumb
 563              		.thumb_func
 564              		.type	send_gauge_config, %function
 565              	send_gauge_config:
 566              	.LFB75:
 116:..\common\ud3core\helper/teslaterm.c **** 
 117:..\common\ud3core\helper/teslaterm.c **** void send_gauge_config(uint8_t gauge, int16_t min, int16_t max, char * text, TERMINAL_HANDLE * hand
 567              		.loc 1 117 0
 568              		.cfi_startproc
 569              		@ args = 4, pretend = 0, frame = 8
 570              		@ frame_needed = 0, uses_anonymous_args = 0
 571              	.LVL46:
 572 0000 2DE9F743 		push	{r0, r1, r2, r4, r5, r6, r7, r8, r9, lr}
 573              		.cfi_def_cfa_offset 40
 574              		.cfi_offset 4, -28
 575              		.cfi_offset 5, -24
ARM GAS  C:\Users\chemi\AppData\Local\Temp\cc30iVmj.s 			page 14


 576              		.cfi_offset 6, -20
 577              		.cfi_offset 7, -16
 578              		.cfi_offset 8, -12
 579              		.cfi_offset 9, -8
 580              		.cfi_offset 14, -4
 581              		.loc 1 117 0
 582 0004 8146     		mov	r9, r0
 118:..\common\ud3core\helper/teslaterm.c ****     uint8_t bytes = strlen(text);
 583              		.loc 1 118 0
 584 0006 1846     		mov	r0, r3
 585              	.LVL47:
 117:..\common\ud3core\helper/teslaterm.c ****     uint8_t bytes = strlen(text);
 586              		.loc 1 117 0
 587 0008 0E46     		mov	r6, r1
 588 000a 1546     		mov	r5, r2
 589 000c 1F46     		mov	r7, r3
 590              		.loc 1 118 0
 591 000e FFF7FEFF 		bl	strlen
 592              	.LVL48:
 593 0012 8046     		mov	r8, r0
 594              	.LVL49:
 119:..\common\ud3core\helper/teslaterm.c ****     uint8_t buf[8];
 120:..\common\ud3core\helper/teslaterm.c ****     buf[0] = 0xFF;
 121:..\common\ud3core\helper/teslaterm.c ****     buf[1] = bytes+sizeof(buf)-2;
 122:..\common\ud3core\helper/teslaterm.c ****     buf[2] = TT_GAUGE_CONF;
 123:..\common\ud3core\helper/teslaterm.c ****     buf[3] = gauge;
 124:..\common\ud3core\helper/teslaterm.c ****     buf[4] = min;
 595              		.loc 1 124 0
 596 0014 8DF80460 		strb	r6, [sp, #4]
 120:..\common\ud3core\helper/teslaterm.c ****     buf[1] = bytes+sizeof(buf)-2;
 597              		.loc 1 120 0
 598 0018 FF23     		movs	r3, #255
 125:..\common\ud3core\helper/teslaterm.c ****     buf[5] = (min>>8);
 599              		.loc 1 125 0
 600 001a 3612     		asrs	r6, r6, #8
 117:..\common\ud3core\helper/teslaterm.c ****     uint8_t bytes = strlen(text);
 601              		.loc 1 117 0
 602 001c 0A9C     		ldr	r4, [sp, #40]
 120:..\common\ud3core\helper/teslaterm.c ****     buf[1] = bytes+sizeof(buf)-2;
 603              		.loc 1 120 0
 604 001e 8DF80030 		strb	r3, [sp]
 605              		.loc 1 125 0
 606 0022 8DF80560 		strb	r6, [sp, #5]
 121:..\common\ud3core\helper/teslaterm.c ****     buf[2] = TT_GAUGE_CONF;
 607              		.loc 1 121 0
 608 0026 831D     		adds	r3, r0, #6
 126:..\common\ud3core\helper/teslaterm.c ****     buf[6] = max;
 127:..\common\ud3core\helper/teslaterm.c ****     buf[7] = (max>>8);
 128:..\common\ud3core\helper/teslaterm.c ****     ttprintb(buf,sizeof(buf));
 609              		.loc 1 128 0
 610 0028 0E4E     		ldr	r6, .L23
 121:..\common\ud3core\helper/teslaterm.c ****     buf[2] = TT_GAUGE_CONF;
 611              		.loc 1 121 0
 612 002a 8DF80130 		strb	r3, [sp, #1]
 126:..\common\ud3core\helper/teslaterm.c ****     buf[6] = max;
 613              		.loc 1 126 0
 614 002e 8DF80650 		strb	r5, [sp, #6]
ARM GAS  C:\Users\chemi\AppData\Local\Temp\cc30iVmj.s 			page 15


 122:..\common\ud3core\helper/teslaterm.c ****     buf[3] = gauge;
 615              		.loc 1 122 0
 616 0032 0223     		movs	r3, #2
 127:..\common\ud3core\helper/teslaterm.c ****     ttprintb(buf,sizeof(buf));
 617              		.loc 1 127 0
 618 0034 2D12     		asrs	r5, r5, #8
 122:..\common\ud3core\helper/teslaterm.c ****     buf[3] = gauge;
 619              		.loc 1 122 0
 620 0036 8DF80230 		strb	r3, [sp, #2]
 127:..\common\ud3core\helper/teslaterm.c ****     ttprintb(buf,sizeof(buf));
 621              		.loc 1 127 0
 622 003a 8DF80750 		strb	r5, [sp, #7]
 623              		.loc 1 128 0
 624 003e 6A46     		mov	r2, sp
 625 0040 656A     		ldr	r5, [r4, #36]
 626 0042 3146     		mov	r1, r6
 123:..\common\ud3core\helper/teslaterm.c ****     buf[4] = min;
 627              		.loc 1 123 0
 628 0044 8DF80390 		strb	r9, [sp, #3]
 629              		.loc 1 128 0
 630 0048 0823     		movs	r3, #8
 631 004a 6068     		ldr	r0, [r4, #4]
 632              	.LVL50:
 633 004c A847     		blx	r5
 634              	.LVL51:
 129:..\common\ud3core\helper/teslaterm.c ****     ttprintb(text,bytes);
 635              		.loc 1 129 0
 636 004e 656A     		ldr	r5, [r4, #36]
 637 0050 5FFA88F3 		uxtb	r3, r8
 638 0054 3A46     		mov	r2, r7
 639 0056 3146     		mov	r1, r6
 640 0058 6068     		ldr	r0, [r4, #4]
 641 005a A847     		blx	r5
 642              	.LVL52:
 130:..\common\ud3core\helper/teslaterm.c **** }
 643              		.loc 1 130 0
 644 005c 03B0     		add	sp, sp, #12
 645              		.cfi_def_cfa_offset 28
 646              		@ sp needed
 647 005e BDE8F083 		pop	{r4, r5, r6, r7, r8, r9, pc}
 648              	.LVL53:
 649              	.L24:
 650 0062 00BF     		.align	2
 651              	.L23:
 652 0064 00000000 		.word	.LC1
 653              		.cfi_endproc
 654              	.LFE75:
 655              		.size	send_gauge_config, .-send_gauge_config
 656              		.section	.text.send_gauge_config32,"ax",%progbits
 657              		.align	1
 658              		.global	send_gauge_config32
 659              		.thumb
 660              		.thumb_func
 661              		.type	send_gauge_config32, %function
 662              	send_gauge_config32:
 663              	.LFB76:
 131:..\common\ud3core\helper/teslaterm.c **** 
ARM GAS  C:\Users\chemi\AppData\Local\Temp\cc30iVmj.s 			page 16


 132:..\common\ud3core\helper/teslaterm.c **** void send_gauge_config32(uint8_t gauge, int32_t min, int32_t max, int32_t div ,char * text, TERMINA
 664              		.loc 1 132 0
 665              		.cfi_startproc
 666              		@ args = 8, pretend = 0, frame = 16
 667              		@ frame_needed = 0, uses_anonymous_args = 0
 668              	.LVL54:
 669 0000 2DE9F043 		push	{r4, r5, r6, r7, r8, r9, lr}
 670              		.cfi_def_cfa_offset 28
 671              		.cfi_offset 4, -28
 672              		.cfi_offset 5, -24
 673              		.cfi_offset 6, -20
 674              		.cfi_offset 7, -16
 675              		.cfi_offset 8, -12
 676              		.cfi_offset 9, -8
 677              		.cfi_offset 14, -4
 678 0004 85B0     		sub	sp, sp, #20
 679              		.cfi_def_cfa_offset 48
 680              		.loc 1 132 0
 681 0006 8146     		mov	r9, r0
 133:..\common\ud3core\helper/teslaterm.c ****     uint8_t bytes = strlen(text);
 682              		.loc 1 133 0
 683 0008 0C98     		ldr	r0, [sp, #48]
 684              	.LVL55:
 132:..\common\ud3core\helper/teslaterm.c ****     uint8_t bytes = strlen(text);
 685              		.loc 1 132 0
 686 000a 0E46     		mov	r6, r1
 687 000c 1546     		mov	r5, r2
 688 000e 1C46     		mov	r4, r3
 689              		.loc 1 133 0
 690 0010 FFF7FEFF 		bl	strlen
 691              	.LVL56:
 692 0014 8046     		mov	r8, r0
 693              	.LVL57:
 134:..\common\ud3core\helper/teslaterm.c ****     uint8_t buf[16];
 135:..\common\ud3core\helper/teslaterm.c ****     buf[0] = 0xFF;
 694              		.loc 1 135 0
 695 0016 FF23     		movs	r3, #255
 696 0018 8DF80030 		strb	r3, [sp]
 136:..\common\ud3core\helper/teslaterm.c ****     buf[1] = bytes+sizeof(buf)-2;
 697              		.loc 1 136 0
 698 001c 00F10E03 		add	r3, r0, #14
 699 0020 8DF80130 		strb	r3, [sp, #1]
 137:..\common\ud3core\helper/teslaterm.c ****     buf[2] = TT_GAUGE_CONF32;
 700              		.loc 1 137 0
 701 0024 0E23     		movs	r3, #14
 702 0026 8DF80230 		strb	r3, [sp, #2]
 138:..\common\ud3core\helper/teslaterm.c ****     buf[3] = gauge;
 139:..\common\ud3core\helper/teslaterm.c ****     buf[4] = min;
 140:..\common\ud3core\helper/teslaterm.c ****     buf[5] = (min>>8);
 703              		.loc 1 140 0
 704 002a 3312     		asrs	r3, r6, #8
 705 002c 8DF80530 		strb	r3, [sp, #5]
 141:..\common\ud3core\helper/teslaterm.c ****     buf[6] = (min>>16);
 706              		.loc 1 141 0
 707 0030 3314     		asrs	r3, r6, #16
 708 0032 8DF80630 		strb	r3, [sp, #6]
 142:..\common\ud3core\helper/teslaterm.c ****     buf[7] = (min>>24);
ARM GAS  C:\Users\chemi\AppData\Local\Temp\cc30iVmj.s 			page 17


 143:..\common\ud3core\helper/teslaterm.c ****     buf[8] = max;
 144:..\common\ud3core\helper/teslaterm.c ****     buf[9] = (max>>8);
 709              		.loc 1 144 0
 710 0036 2B12     		asrs	r3, r5, #8
 711 0038 8DF80930 		strb	r3, [sp, #9]
 145:..\common\ud3core\helper/teslaterm.c ****     buf[10] = (max>>16);
 712              		.loc 1 145 0
 713 003c 2B14     		asrs	r3, r5, #16
 714 003e 8DF80A30 		strb	r3, [sp, #10]
 146:..\common\ud3core\helper/teslaterm.c ****     buf[11] = (max>>24);
 147:..\common\ud3core\helper/teslaterm.c ****     buf[12] = div;
 148:..\common\ud3core\helper/teslaterm.c ****     buf[13] = (div>>8);
 715              		.loc 1 148 0
 716 0042 2312     		asrs	r3, r4, #8
 147:..\common\ud3core\helper/teslaterm.c ****     buf[13] = (div>>8);
 717              		.loc 1 147 0
 718 0044 8DF80C40 		strb	r4, [sp, #12]
 719              		.loc 1 148 0
 720 0048 8DF80D30 		strb	r3, [sp, #13]
 149:..\common\ud3core\helper/teslaterm.c ****     buf[14] = (div>>16);
 721              		.loc 1 149 0
 722 004c 2314     		asrs	r3, r4, #16
 150:..\common\ud3core\helper/teslaterm.c ****     buf[15] = (div>>24);
 723              		.loc 1 150 0
 724 004e 2416     		asrs	r4, r4, #24
 725              	.LVL58:
 132:..\common\ud3core\helper/teslaterm.c ****     uint8_t bytes = strlen(text);
 726              		.loc 1 132 0
 727 0050 0D9F     		ldr	r7, [sp, #52]
 728              		.loc 1 150 0
 729 0052 8DF80F40 		strb	r4, [sp, #15]
 151:..\common\ud3core\helper/teslaterm.c ****     ttprintb(buf,sizeof(buf));
 730              		.loc 1 151 0
 731 0056 0F4C     		ldr	r4, .L26
 139:..\common\ud3core\helper/teslaterm.c ****     buf[5] = (min>>8);
 732              		.loc 1 139 0
 733 0058 8DF80460 		strb	r6, [sp, #4]
 143:..\common\ud3core\helper/teslaterm.c ****     buf[9] = (max>>8);
 734              		.loc 1 143 0
 735 005c 8DF80850 		strb	r5, [sp, #8]
 142:..\common\ud3core\helper/teslaterm.c ****     buf[8] = max;
 736              		.loc 1 142 0
 737 0060 3616     		asrs	r6, r6, #24
 738              	.LVL59:
 146:..\common\ud3core\helper/teslaterm.c ****     buf[12] = div;
 739              		.loc 1 146 0
 740 0062 2D16     		asrs	r5, r5, #24
 741              	.LVL60:
 742 0064 8DF80B50 		strb	r5, [sp, #11]
 149:..\common\ud3core\helper/teslaterm.c ****     buf[15] = (div>>24);
 743              		.loc 1 149 0
 744 0068 8DF80E30 		strb	r3, [sp, #14]
 745              		.loc 1 151 0
 746 006c 7D6A     		ldr	r5, [r7, #36]
 747 006e 6A46     		mov	r2, sp
 748 0070 2146     		mov	r1, r4
 138:..\common\ud3core\helper/teslaterm.c ****     buf[4] = min;
ARM GAS  C:\Users\chemi\AppData\Local\Temp\cc30iVmj.s 			page 18


 749              		.loc 1 138 0
 750 0072 8DF80390 		strb	r9, [sp, #3]
 142:..\common\ud3core\helper/teslaterm.c ****     buf[8] = max;
 751              		.loc 1 142 0
 752 0076 8DF80760 		strb	r6, [sp, #7]
 753              		.loc 1 151 0
 754 007a 1023     		movs	r3, #16
 755 007c 7868     		ldr	r0, [r7, #4]
 756              	.LVL61:
 757 007e A847     		blx	r5
 758              	.LVL62:
 152:..\common\ud3core\helper/teslaterm.c ****     ttprintb(text,bytes);
 759              		.loc 1 152 0
 760 0080 7D6A     		ldr	r5, [r7, #36]
 761 0082 5FFA88F3 		uxtb	r3, r8
 762 0086 0C9A     		ldr	r2, [sp, #48]
 763 0088 2146     		mov	r1, r4
 764 008a 7868     		ldr	r0, [r7, #4]
 765 008c A847     		blx	r5
 766              	.LVL63:
 153:..\common\ud3core\helper/teslaterm.c **** }
 767              		.loc 1 153 0
 768 008e 05B0     		add	sp, sp, #20
 769              		.cfi_def_cfa_offset 28
 770              		@ sp needed
 771 0090 BDE8F083 		pop	{r4, r5, r6, r7, r8, r9, pc}
 772              	.LVL64:
 773              	.L27:
 774              		.align	2
 775              	.L26:
 776 0094 00000000 		.word	.LC1
 777              		.cfi_endproc
 778              	.LFE76:
 779              		.size	send_gauge_config32, .-send_gauge_config32
 780              		.section	.text.send_chart_clear,"ax",%progbits
 781              		.align	1
 782              		.global	send_chart_clear
 783              		.thumb
 784              		.thumb_func
 785              		.type	send_chart_clear, %function
 786              	send_chart_clear:
 787              	.LFB77:
 154:..\common\ud3core\helper/teslaterm.c **** 
 155:..\common\ud3core\helper/teslaterm.c **** void send_chart_clear(TERMINAL_HANDLE * handle, char * title){
 788              		.loc 1 155 0
 789              		.cfi_startproc
 790              		@ args = 0, pretend = 0, frame = 8
 791              		@ frame_needed = 0, uses_anonymous_args = 0
 792              	.LVL65:
 156:..\common\ud3core\helper/teslaterm.c ****     uint8_t chartclear[3] = {0xFF,0x00, TT_CHART_CLEAR};
 793              		.loc 1 156 0
 794 0000 0E4B     		ldr	r3, .L29
 155:..\common\ud3core\helper/teslaterm.c ****     uint8_t chartclear[3] = {0xFF,0x00, TT_CHART_CLEAR};
 795              		.loc 1 155 0
 796 0002 73B5     		push	{r0, r1, r4, r5, r6, lr}
 797              		.cfi_def_cfa_offset 24
 798              		.cfi_offset 4, -16
ARM GAS  C:\Users\chemi\AppData\Local\Temp\cc30iVmj.s 			page 19


 799              		.cfi_offset 5, -12
 800              		.cfi_offset 6, -8
 801              		.cfi_offset 14, -4
 802              		.loc 1 156 0
 803 0004 33F8042F 		ldrh	r2, [r3, #4]!	@ unaligned
 155:..\common\ud3core\helper/teslaterm.c ****     uint8_t chartclear[3] = {0xFF,0x00, TT_CHART_CLEAR};
 804              		.loc 1 155 0
 805 0008 0446     		mov	r4, r0
 806              		.loc 1 156 0
 807 000a 9B78     		ldrb	r3, [r3, #2]	@ zero_extendqisi2
 157:..\common\ud3core\helper/teslaterm.c ****     chartclear[1] = strlen(title)+sizeof(chartclear)-2;
 808              		.loc 1 157 0
 809 000c 0846     		mov	r0, r1
 810              	.LVL66:
 155:..\common\ud3core\helper/teslaterm.c ****     uint8_t chartclear[3] = {0xFF,0x00, TT_CHART_CLEAR};
 811              		.loc 1 155 0
 812 000e 0D46     		mov	r5, r1
 156:..\common\ud3core\helper/teslaterm.c ****     uint8_t chartclear[3] = {0xFF,0x00, TT_CHART_CLEAR};
 813              		.loc 1 156 0
 814 0010 ADF80420 		strh	r2, [sp, #4]	@ unaligned
 815 0014 8DF80630 		strb	r3, [sp, #6]
 816              		.loc 1 157 0
 817 0018 FFF7FEFF 		bl	strlen
 818              	.LVL67:
 819 001c 0130     		adds	r0, r0, #1
 820 001e 8DF80500 		strb	r0, [sp, #5]
 158:..\common\ud3core\helper/teslaterm.c ****     ttprintb(chartclear,sizeof(chartclear)); 
 821              		.loc 1 158 0
 822 0022 01AA     		add	r2, sp, #4
 823 0024 666A     		ldr	r6, [r4, #36]
 824 0026 0323     		movs	r3, #3
 825 0028 0549     		ldr	r1, .L29+4
 826 002a 6068     		ldr	r0, [r4, #4]
 827 002c B047     		blx	r6
 828              	.LVL68:
 159:..\common\ud3core\helper/teslaterm.c ****     ttprintf("%s", title);
 829              		.loc 1 159 0
 830 002e 636A     		ldr	r3, [r4, #36]
 831 0030 2A46     		mov	r2, r5
 832 0032 0449     		ldr	r1, .L29+8
 833 0034 6068     		ldr	r0, [r4, #4]
 834 0036 9847     		blx	r3
 835              	.LVL69:
 160:..\common\ud3core\helper/teslaterm.c **** }
 836              		.loc 1 160 0
 837 0038 02B0     		add	sp, sp, #8
 838              		.cfi_def_cfa_offset 16
 839              		@ sp needed
 840 003a 70BD     		pop	{r4, r5, r6, pc}
 841              	.LVL70:
 842              	.L30:
 843              		.align	2
 844              	.L29:
 845 003c 00000000 		.word	.LANCHOR1
 846 0040 00000000 		.word	.LC1
 847 0044 01000000 		.word	.LC2
 848              		.cfi_endproc
ARM GAS  C:\Users\chemi\AppData\Local\Temp\cc30iVmj.s 			page 20


 849              	.LFE77:
 850              		.size	send_chart_clear, .-send_chart_clear
 851              		.section	.text.send_chart_line,"ax",%progbits
 852              		.align	1
 853              		.global	send_chart_line
 854              		.thumb
 855              		.thumb_func
 856              		.type	send_chart_line, %function
 857              	send_chart_line:
 858              	.LFB78:
 161:..\common\ud3core\helper/teslaterm.c **** 
 162:..\common\ud3core\helper/teslaterm.c **** void send_chart_line(uint16_t x1, uint16_t y1, uint16_t x2, uint16_t y2, uint8_t color, TERMINAL_HA
 859              		.loc 1 162 0
 860              		.cfi_startproc
 861              		@ args = 8, pretend = 0, frame = 16
 862              		@ frame_needed = 0, uses_anonymous_args = 0
 863              	.LVL71:
 864 0000 30B5     		push	{r4, r5, lr}
 865              		.cfi_def_cfa_offset 12
 866              		.cfi_offset 4, -12
 867              		.cfi_offset 5, -8
 868              		.cfi_offset 14, -4
 869 0002 85B0     		sub	sp, sp, #20
 870              		.cfi_def_cfa_offset 32
 163:..\common\ud3core\helper/teslaterm.c ****     uint8_t buf[12];
 164:..\common\ud3core\helper/teslaterm.c ****     buf[0] = 0xFF;
 165:..\common\ud3core\helper/teslaterm.c ****     buf[1] = sizeof(buf)-2;
 166:..\common\ud3core\helper/teslaterm.c ****     buf[2] = TT_CHART_LINE;
 167:..\common\ud3core\helper/teslaterm.c ****     buf[3] = x1;
 168:..\common\ud3core\helper/teslaterm.c ****     buf[4] = (x1>>8);
 169:..\common\ud3core\helper/teslaterm.c ****     buf[5] = y1;
 170:..\common\ud3core\helper/teslaterm.c ****     buf[6] = (y1>>8);
 171:..\common\ud3core\helper/teslaterm.c ****     buf[7] = x2;
 172:..\common\ud3core\helper/teslaterm.c ****     buf[8] = (x2>>8);
 173:..\common\ud3core\helper/teslaterm.c ****     buf[9] = y2;
 871              		.loc 1 173 0
 872 0004 8DF80D30 		strb	r3, [sp, #13]
 164:..\common\ud3core\helper/teslaterm.c ****     buf[1] = sizeof(buf)-2;
 873              		.loc 1 164 0
 874 0008 FF25     		movs	r5, #255
 174:..\common\ud3core\helper/teslaterm.c ****     buf[10] = (y2>>8);
 875              		.loc 1 174 0
 876 000a 1B0A     		lsrs	r3, r3, #8
 877              	.LVL72:
 162:..\common\ud3core\helper/teslaterm.c ****     uint8_t buf[12];
 878              		.loc 1 162 0
 879 000c 099C     		ldr	r4, [sp, #36]
 164:..\common\ud3core\helper/teslaterm.c ****     buf[1] = sizeof(buf)-2;
 880              		.loc 1 164 0
 881 000e 8DF80450 		strb	r5, [sp, #4]
 882              		.loc 1 174 0
 883 0012 8DF80E30 		strb	r3, [sp, #14]
 165:..\common\ud3core\helper/teslaterm.c ****     buf[2] = TT_CHART_LINE;
 884              		.loc 1 165 0
 885 0016 0A25     		movs	r5, #10
 175:..\common\ud3core\helper/teslaterm.c ****     buf[11] = color;
 886              		.loc 1 175 0
ARM GAS  C:\Users\chemi\AppData\Local\Temp\cc30iVmj.s 			page 21


 887 0018 9DF82030 		ldrb	r3, [sp, #32]	@ zero_extendqisi2
 165:..\common\ud3core\helper/teslaterm.c ****     buf[2] = TT_CHART_LINE;
 888              		.loc 1 165 0
 889 001c 8DF80550 		strb	r5, [sp, #5]
 167:..\common\ud3core\helper/teslaterm.c ****     buf[4] = (x1>>8);
 890              		.loc 1 167 0
 891 0020 8DF80700 		strb	r0, [sp, #7]
 169:..\common\ud3core\helper/teslaterm.c ****     buf[6] = (y1>>8);
 892              		.loc 1 169 0
 893 0024 8DF80910 		strb	r1, [sp, #9]
 171:..\common\ud3core\helper/teslaterm.c ****     buf[8] = (x2>>8);
 894              		.loc 1 171 0
 895 0028 8DF80B20 		strb	r2, [sp, #11]
 166:..\common\ud3core\helper/teslaterm.c ****     buf[3] = x1;
 896              		.loc 1 166 0
 897 002c 0725     		movs	r5, #7
 168:..\common\ud3core\helper/teslaterm.c ****     buf[5] = y1;
 898              		.loc 1 168 0
 899 002e 000A     		lsrs	r0, r0, #8
 900              	.LVL73:
 170:..\common\ud3core\helper/teslaterm.c ****     buf[7] = x2;
 901              		.loc 1 170 0
 902 0030 090A     		lsrs	r1, r1, #8
 903              	.LVL74:
 172:..\common\ud3core\helper/teslaterm.c ****     buf[9] = y2;
 904              		.loc 1 172 0
 905 0032 120A     		lsrs	r2, r2, #8
 906              	.LVL75:
 166:..\common\ud3core\helper/teslaterm.c ****     buf[3] = x1;
 907              		.loc 1 166 0
 908 0034 8DF80650 		strb	r5, [sp, #6]
 168:..\common\ud3core\helper/teslaterm.c ****     buf[5] = y1;
 909              		.loc 1 168 0
 910 0038 8DF80800 		strb	r0, [sp, #8]
 170:..\common\ud3core\helper/teslaterm.c ****     buf[7] = x2;
 911              		.loc 1 170 0
 912 003c 8DF80A10 		strb	r1, [sp, #10]
 172:..\common\ud3core\helper/teslaterm.c ****     buf[9] = y2;
 913              		.loc 1 172 0
 914 0040 8DF80C20 		strb	r2, [sp, #12]
 915              		.loc 1 175 0
 916 0044 8DF80F30 		strb	r3, [sp, #15]
 176:..\common\ud3core\helper/teslaterm.c ****     ttprintb(buf,sizeof(buf)); 
 917              		.loc 1 176 0
 918 0048 656A     		ldr	r5, [r4, #36]
 919 004a 0C23     		movs	r3, #12
 920 004c 01AA     		add	r2, sp, #4
 921 004e 0249     		ldr	r1, .L32
 922 0050 6068     		ldr	r0, [r4, #4]
 923 0052 A847     		blx	r5
 924              	.LVL76:
 177:..\common\ud3core\helper/teslaterm.c **** }
 925              		.loc 1 177 0
 926 0054 05B0     		add	sp, sp, #20
 927              		.cfi_def_cfa_offset 12
 928              		@ sp needed
 929 0056 30BD     		pop	{r4, r5, pc}
ARM GAS  C:\Users\chemi\AppData\Local\Temp\cc30iVmj.s 			page 22


 930              	.LVL77:
 931              	.L33:
 932              		.align	2
 933              	.L32:
 934 0058 00000000 		.word	.LC1
 935              		.cfi_endproc
 936              	.LFE78:
 937              		.size	send_chart_line, .-send_chart_line
 938              		.section	.text.send_chart_text,"ax",%progbits
 939              		.align	1
 940              		.global	send_chart_text
 941              		.thumb
 942              		.thumb_func
 943              		.type	send_chart_text, %function
 944              	send_chart_text:
 945              	.LFB79:
 178:..\common\ud3core\helper/teslaterm.c **** 
 179:..\common\ud3core\helper/teslaterm.c **** void send_chart_text(int16_t x, int16_t y, uint8_t color, uint8_t size, char * text, TERMINAL_HANDL
 946              		.loc 1 179 0
 947              		.cfi_startproc
 948              		@ args = 8, pretend = 0, frame = 16
 949              		@ frame_needed = 0, uses_anonymous_args = 0
 950              	.LVL78:
 951 0000 2DE9FF41 		push	{r0, r1, r2, r3, r4, r5, r6, r7, r8, lr}
 952              		.cfi_def_cfa_offset 40
 953              		.cfi_offset 4, -24
 954              		.cfi_offset 5, -20
 955              		.cfi_offset 6, -16
 956              		.cfi_offset 7, -12
 957              		.cfi_offset 8, -8
 958              		.cfi_offset 14, -4
 959              		.loc 1 179 0
 960 0004 0646     		mov	r6, r0
 180:..\common\ud3core\helper/teslaterm.c ****     uint8_t bytes = strlen(text);
 961              		.loc 1 180 0
 962 0006 0A98     		ldr	r0, [sp, #40]
 963              	.LVL79:
 179:..\common\ud3core\helper/teslaterm.c ****     uint8_t bytes = strlen(text);
 964              		.loc 1 179 0
 965 0008 0D46     		mov	r5, r1
 966 000a 9046     		mov	r8, r2
 967 000c 1F46     		mov	r7, r3
 968              		.loc 1 180 0
 969 000e FFF7FEFF 		bl	strlen
 970              	.LVL80:
 181:..\common\ud3core\helper/teslaterm.c ****     uint8_t buf[9];
 182:..\common\ud3core\helper/teslaterm.c ****     buf[0] = 0xFF;
 971              		.loc 1 182 0
 972 0012 FF23     		movs	r3, #255
 179:..\common\ud3core\helper/teslaterm.c ****     uint8_t bytes = strlen(text);
 973              		.loc 1 179 0
 974 0014 0B9C     		ldr	r4, [sp, #44]
 975              		.loc 1 182 0
 976 0016 8DF80430 		strb	r3, [sp, #4]
 183:..\common\ud3core\helper/teslaterm.c ****     buf[1] = bytes+sizeof(buf)-2;
 184:..\common\ud3core\helper/teslaterm.c ****     buf[2] = TT_CHART_TEXT;
 977              		.loc 1 184 0
ARM GAS  C:\Users\chemi\AppData\Local\Temp\cc30iVmj.s 			page 23


 978 001a 0823     		movs	r3, #8
 185:..\common\ud3core\helper/teslaterm.c ****     buf[3] = x;
 979              		.loc 1 185 0
 980 001c 8DF80760 		strb	r6, [sp, #7]
 186:..\common\ud3core\helper/teslaterm.c ****     buf[4] = (x>>8);
 187:..\common\ud3core\helper/teslaterm.c ****     buf[5] = y;
 981              		.loc 1 187 0
 982 0020 8DF80950 		strb	r5, [sp, #9]
 186:..\common\ud3core\helper/teslaterm.c ****     buf[4] = (x>>8);
 983              		.loc 1 186 0
 984 0024 1E41     		asrs	r6, r6, r3
 188:..\common\ud3core\helper/teslaterm.c ****     buf[6] = (y>>8);
 985              		.loc 1 188 0
 986 0026 1D41     		asrs	r5, r5, r3
 183:..\common\ud3core\helper/teslaterm.c ****     buf[2] = TT_CHART_TEXT;
 987              		.loc 1 183 0
 988 0028 0730     		adds	r0, r0, #7
 989              	.LVL81:
 990 002a 8DF80500 		strb	r0, [sp, #5]
 184:..\common\ud3core\helper/teslaterm.c ****     buf[3] = x;
 991              		.loc 1 184 0
 992 002e 8DF80630 		strb	r3, [sp, #6]
 993              		.loc 1 188 0
 994 0032 8DF80A50 		strb	r5, [sp, #10]
 189:..\common\ud3core\helper/teslaterm.c ****     buf[7] = color;
 190:..\common\ud3core\helper/teslaterm.c ****     buf[8] = size;
 191:..\common\ud3core\helper/teslaterm.c ****     ttprintb(buf,sizeof(buf));
 995              		.loc 1 191 0
 996 0036 01AA     		add	r2, sp, #4
 186:..\common\ud3core\helper/teslaterm.c ****     buf[5] = y;
 997              		.loc 1 186 0
 998 0038 8DF80860 		strb	r6, [sp, #8]
 189:..\common\ud3core\helper/teslaterm.c ****     buf[7] = color;
 999              		.loc 1 189 0
 1000 003c 8DF80B80 		strb	r8, [sp, #11]
 190:..\common\ud3core\helper/teslaterm.c ****     ttprintb(buf,sizeof(buf));
 1001              		.loc 1 190 0
 1002 0040 8DF80C70 		strb	r7, [sp, #12]
 1003              		.loc 1 191 0
 1004 0044 656A     		ldr	r5, [r4, #36]
 1005 0046 0923     		movs	r3, #9
 1006 0048 0549     		ldr	r1, .L35
 1007 004a 6068     		ldr	r0, [r4, #4]
 1008 004c A847     		blx	r5
 1009              	.LVL82:
 192:..\common\ud3core\helper/teslaterm.c ****     ttprintf("%s",text);
 1010              		.loc 1 192 0
 1011 004e 636A     		ldr	r3, [r4, #36]
 1012 0050 0A9A     		ldr	r2, [sp, #40]
 1013 0052 0449     		ldr	r1, .L35+4
 1014 0054 6068     		ldr	r0, [r4, #4]
 1015 0056 9847     		blx	r3
 1016              	.LVL83:
 193:..\common\ud3core\helper/teslaterm.c **** }
 1017              		.loc 1 193 0
 1018 0058 04B0     		add	sp, sp, #16
 1019              		.cfi_def_cfa_offset 24
ARM GAS  C:\Users\chemi\AppData\Local\Temp\cc30iVmj.s 			page 24


 1020              		@ sp needed
 1021 005a BDE8F081 		pop	{r4, r5, r6, r7, r8, pc}
 1022              	.LVL84:
 1023              	.L36:
 1024 005e 00BF     		.align	2
 1025              	.L35:
 1026 0060 00000000 		.word	.LC1
 1027 0064 01000000 		.word	.LC2
 1028              		.cfi_endproc
 1029              	.LFE79:
 1030              		.size	send_chart_text, .-send_chart_text
 1031              		.section	.text.send_config,"ax",%progbits
 1032              		.align	1
 1033              		.global	send_config
 1034              		.thumb
 1035              		.thumb_func
 1036              		.type	send_config, %function
 1037              	send_config:
 1038              	.LFB80:
 194:..\common\ud3core\helper/teslaterm.c **** 
 195:..\common\ud3core\helper/teslaterm.c **** void send_config(char* param,const char* help_text, TERMINAL_HANDLE * handle){
 1039              		.loc 1 195 0
 1040              		.cfi_startproc
 1041              		@ args = 0, pretend = 0, frame = 8
 1042              		@ frame_needed = 0, uses_anonymous_args = 0
 1043              	.LVL85:
 1044 0000 F7B5     		push	{r0, r1, r2, r4, r5, r6, r7, lr}
 1045              		.cfi_def_cfa_offset 32
 1046              		.cfi_offset 4, -20
 1047              		.cfi_offset 5, -16
 1048              		.cfi_offset 6, -12
 1049              		.cfi_offset 7, -8
 1050              		.cfi_offset 14, -4
 1051              		.loc 1 195 0
 1052 0002 1546     		mov	r5, r2
 1053 0004 0E46     		mov	r6, r1
 1054 0006 0746     		mov	r7, r0
 196:..\common\ud3core\helper/teslaterm.c ****     uint8_t len = strlen(param);
 1055              		.loc 1 196 0
 1056 0008 FFF7FEFF 		bl	strlen
 1057              	.LVL86:
 1058 000c C4B2     		uxtb	r4, r0
 1059              	.LVL87:
 197:..\common\ud3core\helper/teslaterm.c ****     len += strlen(help_text);
 1060              		.loc 1 197 0
 1061 000e 3046     		mov	r0, r6
 1062 0010 FFF7FEFF 		bl	strlen
 1063              	.LVL88:
 198:..\common\ud3core\helper/teslaterm.c ****     len++;
 199:..\common\ud3core\helper/teslaterm.c ****     uint8_t buf[3];
 200:..\common\ud3core\helper/teslaterm.c ****     buf[0] = 0xFF;
 1064              		.loc 1 200 0
 1065 0014 FF23     		movs	r3, #255
 201:..\common\ud3core\helper/teslaterm.c ****     buf[1] = len+sizeof(buf)-2;
 1066              		.loc 1 201 0
 1067 0016 2044     		add	r0, r0, r4
 1068              	.LVL89:
ARM GAS  C:\Users\chemi\AppData\Local\Temp\cc30iVmj.s 			page 25


 200:..\common\ud3core\helper/teslaterm.c ****     buf[1] = len+sizeof(buf)-2;
 1069              		.loc 1 200 0
 1070 0018 8DF80430 		strb	r3, [sp, #4]
 1071              		.loc 1 201 0
 1072 001c 0230     		adds	r0, r0, #2
 202:..\common\ud3core\helper/teslaterm.c ****     buf[2] = TT_CONFIG_GET;
 1073              		.loc 1 202 0
 1074 001e 0B23     		movs	r3, #11
 201:..\common\ud3core\helper/teslaterm.c ****     buf[1] = len+sizeof(buf)-2;
 1075              		.loc 1 201 0
 1076 0020 8DF80500 		strb	r0, [sp, #5]
 1077              		.loc 1 202 0
 1078 0024 8DF80630 		strb	r3, [sp, #6]
 203:..\common\ud3core\helper/teslaterm.c ****     ttprintb(buf,sizeof(buf));
 1079              		.loc 1 203 0
 1080 0028 6C6A     		ldr	r4, [r5, #36]
 1081 002a 01AA     		add	r2, sp, #4
 1082 002c 0323     		movs	r3, #3
 1083 002e 0549     		ldr	r1, .L38
 1084 0030 6868     		ldr	r0, [r5, #4]
 1085 0032 A047     		blx	r4
 1086              	.LVL90:
 204:..\common\ud3core\helper/teslaterm.c ****     ttprintf("%s;%s",param,(char*)help_text);
 1087              		.loc 1 204 0
 1088 0034 6C6A     		ldr	r4, [r5, #36]
 1089 0036 3346     		mov	r3, r6
 1090 0038 3A46     		mov	r2, r7
 1091 003a 0349     		ldr	r1, .L38+4
 1092 003c 6868     		ldr	r0, [r5, #4]
 1093 003e A047     		blx	r4
 1094              	.LVL91:
 205:..\common\ud3core\helper/teslaterm.c **** }
 1095              		.loc 1 205 0
 1096 0040 03B0     		add	sp, sp, #12
 1097              		.cfi_def_cfa_offset 20
 1098              		@ sp needed
 1099 0042 F0BD     		pop	{r4, r5, r6, r7, pc}
 1100              	.LVL92:
 1101              	.L39:
 1102              		.align	2
 1103              	.L38:
 1104 0044 00000000 		.word	.LC1
 1105 0048 04000000 		.word	.LC3
 1106              		.cfi_endproc
 1107              	.LFE80:
 1108              		.size	send_config, .-send_config
 1109              		.section	.text.send_features,"ax",%progbits
 1110              		.align	1
 1111              		.global	send_features
 1112              		.thumb
 1113              		.thumb_func
 1114              		.type	send_features, %function
 1115              	send_features:
 1116              	.LFB81:
 206:..\common\ud3core\helper/teslaterm.c **** 
 207:..\common\ud3core\helper/teslaterm.c **** void send_features(const char* text, TERMINAL_HANDLE * handle){
 1117              		.loc 1 207 0
ARM GAS  C:\Users\chemi\AppData\Local\Temp\cc30iVmj.s 			page 26


 1118              		.cfi_startproc
 1119              		@ args = 0, pretend = 0, frame = 8
 1120              		@ frame_needed = 0, uses_anonymous_args = 0
 1121              	.LVL93:
 1122 0000 73B5     		push	{r0, r1, r4, r5, r6, lr}
 1123              		.cfi_def_cfa_offset 24
 1124              		.cfi_offset 4, -16
 1125              		.cfi_offset 5, -12
 1126              		.cfi_offset 6, -8
 1127              		.cfi_offset 14, -4
 1128              		.loc 1 207 0
 1129 0002 0C46     		mov	r4, r1
 1130 0004 0546     		mov	r5, r0
 208:..\common\ud3core\helper/teslaterm.c ****     uint8_t len = strlen(text);
 1131              		.loc 1 208 0
 1132 0006 FFF7FEFF 		bl	strlen
 1133              	.LVL94:
 209:..\common\ud3core\helper/teslaterm.c ****     uint8_t buf[3];
 210:..\common\ud3core\helper/teslaterm.c ****     buf[0] = 0xFF;
 1134              		.loc 1 210 0
 1135 000a FF23     		movs	r3, #255
 1136 000c 8DF80430 		strb	r3, [sp, #4]
 211:..\common\ud3core\helper/teslaterm.c ****     buf[1] = len+sizeof(buf)-2;
 1137              		.loc 1 211 0
 1138 0010 0130     		adds	r0, r0, #1
 1139              	.LVL95:
 212:..\common\ud3core\helper/teslaterm.c ****     buf[2] = TT_FEATURE_GET;
 1140              		.loc 1 212 0
 1141 0012 0F23     		movs	r3, #15
 211:..\common\ud3core\helper/teslaterm.c ****     buf[1] = len+sizeof(buf)-2;
 1142              		.loc 1 211 0
 1143 0014 8DF80500 		strb	r0, [sp, #5]
 1144              		.loc 1 212 0
 1145 0018 8DF80630 		strb	r3, [sp, #6]
 213:..\common\ud3core\helper/teslaterm.c ****     ttprintb(buf,sizeof(buf));
 1146              		.loc 1 213 0
 1147 001c 01AA     		add	r2, sp, #4
 1148 001e 666A     		ldr	r6, [r4, #36]
 1149 0020 0323     		movs	r3, #3
 1150 0022 0549     		ldr	r1, .L41
 1151 0024 6068     		ldr	r0, [r4, #4]
 1152 0026 B047     		blx	r6
 1153              	.LVL96:
 214:..\common\ud3core\helper/teslaterm.c ****     ttprintf("%s",text);
 1154              		.loc 1 214 0
 1155 0028 636A     		ldr	r3, [r4, #36]
 1156 002a 2A46     		mov	r2, r5
 1157 002c 0349     		ldr	r1, .L41+4
 1158 002e 6068     		ldr	r0, [r4, #4]
 1159 0030 9847     		blx	r3
 1160              	.LVL97:
 215:..\common\ud3core\helper/teslaterm.c **** }
 1161              		.loc 1 215 0
 1162 0032 02B0     		add	sp, sp, #8
 1163              		.cfi_def_cfa_offset 16
 1164              		@ sp needed
 1165 0034 70BD     		pop	{r4, r5, r6, pc}
ARM GAS  C:\Users\chemi\AppData\Local\Temp\cc30iVmj.s 			page 27


 1166              	.LVL98:
 1167              	.L42:
 1168 0036 00BF     		.align	2
 1169              	.L41:
 1170 0038 00000000 		.word	.LC1
 1171 003c 01000000 		.word	.LC2
 1172              		.cfi_endproc
 1173              	.LFE81:
 1174              		.size	send_features, .-send_features
 1175              		.section	.text.send_event,"ax",%progbits
 1176              		.align	1
 1177              		.global	send_event
 1178              		.thumb
 1179              		.thumb_func
 1180              		.type	send_event, %function
 1181              	send_event:
 1182              	.LFB82:
 216:..\common\ud3core\helper/teslaterm.c **** 
 217:..\common\ud3core\helper/teslaterm.c **** void send_event(ALARMS *alm, TERMINAL_HANDLE * handle){
 1183              		.loc 1 217 0
 1184              		.cfi_startproc
 1185              		@ args = 0, pretend = 0, frame = 104
 1186              		@ frame_needed = 0, uses_anonymous_args = 0
 1187              	.LVL99:
 1188 0000 30B5     		push	{r4, r5, lr}
 1189              		.cfi_def_cfa_offset 12
 1190              		.cfi_offset 4, -12
 1191              		.cfi_offset 5, -8
 1192              		.cfi_offset 14, -4
 218:..\common\ud3core\helper/teslaterm.c ****     uint8_t buf[100];
 219:..\common\ud3core\helper/teslaterm.c ****     buf[0] = 0xFF;
 220:..\common\ud3core\helper/teslaterm.c ****     buf[2] = TT_EVENT;
 221:..\common\ud3core\helper/teslaterm.c ****     if(alm->value==ALM_NO_VALUE){
 1193              		.loc 1 221 0
 1194 0002 C568     		ldr	r5, [r0, #12]
 217:..\common\ud3core\helper/teslaterm.c ****     uint8_t buf[100];
 1195              		.loc 1 217 0
 1196 0004 9FB0     		sub	sp, sp, #124
 1197              		.cfi_def_cfa_offset 136
 219:..\common\ud3core\helper/teslaterm.c ****     buf[2] = TT_EVENT;
 1198              		.loc 1 219 0
 1199 0006 FF23     		movs	r3, #255
 1200 0008 8DF81430 		strb	r3, [sp, #20]
 1201              		.loc 1 221 0
 1202 000c B5F1004F 		cmp	r5, #-2147483648
 220:..\common\ud3core\helper/teslaterm.c ****     if(alm->value==ALM_NO_VALUE){
 1203              		.loc 1 220 0
 1204 0010 4FF00C03 		mov	r3, #12
 217:..\common\ud3core\helper/teslaterm.c ****     uint8_t buf[100];
 1205              		.loc 1 217 0
 1206 0014 0C46     		mov	r4, r1
 220:..\common\ud3core\helper/teslaterm.c ****     if(alm->value==ALM_NO_VALUE){
 1207              		.loc 1 220 0
 1208 0016 8DF81630 		strb	r3, [sp, #22]
 1209 001a 4168     		ldr	r1, [r0, #4]
 1210              	.LVL100:
 1211 001c 8378     		ldrb	r3, [r0, #2]	@ zero_extendqisi2
ARM GAS  C:\Users\chemi\AppData\Local\Temp\cc30iVmj.s 			page 28


 1212 001e 8268     		ldr	r2, [r0, #8]
 1213              		.loc 1 221 0
 1214 0020 08D1     		bne	.L44
 222:..\common\ud3core\helper/teslaterm.c ****         buf[1] = snprintf((char*)&buf[3],sizeof(buf)-3,"%u;%u;%s;NULL",alm->alarm_level,alm->timest
 1215              		.loc 1 222 0
 1216 0022 0191     		str	r1, [sp, #4]
 1217 0024 0092     		str	r2, [sp]
 1218 0026 6121     		movs	r1, #97
 1219 0028 0D4A     		ldr	r2, .L48
 1220 002a 0DF11700 		add	r0, sp, #23
 1221              	.LVL101:
 1222 002e FFF7FEFF 		bl	snprintf_
 1223              	.LVL102:
 1224 0032 08E0     		b	.L46
 1225              	.LVL103:
 1226              	.L44:
 223:..\common\ud3core\helper/teslaterm.c ****     }else{
 224:..\common\ud3core\helper/teslaterm.c ****         buf[1] = snprintf((char*)&buf[3],sizeof(buf)-3,"%u;%u;%s;%u",alm->alarm_level,alm->timestam
 1227              		.loc 1 224 0
 1228 0034 0191     		str	r1, [sp, #4]
 1229 0036 0092     		str	r2, [sp]
 1230 0038 0295     		str	r5, [sp, #8]
 1231 003a 0A4A     		ldr	r2, .L48+4
 1232 003c 6121     		movs	r1, #97
 1233 003e 0DF11700 		add	r0, sp, #23
 1234              	.LVL104:
 1235 0042 FFF7FEFF 		bl	snprintf_
 1236              	.LVL105:
 1237              	.L46:
 1238 0046 0130     		adds	r0, r0, #1
 1239 0048 8DF81500 		strb	r0, [sp, #21]
 225:..\common\ud3core\helper/teslaterm.c ****     }
 226:..\common\ud3core\helper/teslaterm.c ****     ttprintb(buf,buf[1]+2);
 1240              		.loc 1 226 0
 1241 004c 9DF81530 		ldrb	r3, [sp, #21]	@ zero_extendqisi2
 1242 0050 656A     		ldr	r5, [r4, #36]
 1243 0052 0233     		adds	r3, r3, #2
 1244 0054 05AA     		add	r2, sp, #20
 1245 0056 0449     		ldr	r1, .L48+8
 1246 0058 6068     		ldr	r0, [r4, #4]
 1247 005a A847     		blx	r5
 1248              	.LVL106:
 227:..\common\ud3core\helper/teslaterm.c **** }
 1249              		.loc 1 227 0
 1250 005c 1FB0     		add	sp, sp, #124
 1251              		.cfi_def_cfa_offset 12
 1252              		@ sp needed
 1253 005e 30BD     		pop	{r4, r5, pc}
 1254              	.LVL107:
 1255              	.L49:
 1256              		.align	2
 1257              	.L48:
 1258 0060 0A000000 		.word	.LC4
 1259 0064 18000000 		.word	.LC5
 1260 0068 00000000 		.word	.LC1
 1261              		.cfi_endproc
 1262              	.LFE82:
ARM GAS  C:\Users\chemi\AppData\Local\Temp\cc30iVmj.s 			page 29


 1263              		.size	send_event, .-send_event
 1264              		.section	.text.send_chart_text_center,"ax",%progbits
 1265              		.align	1
 1266              		.global	send_chart_text_center
 1267              		.thumb
 1268              		.thumb_func
 1269              		.type	send_chart_text_center, %function
 1270              	send_chart_text_center:
 1271              	.LFB83:
 228:..\common\ud3core\helper/teslaterm.c **** 
 229:..\common\ud3core\helper/teslaterm.c **** void send_chart_text_center(int16_t x, int16_t y, uint8_t color, uint8_t size, char * text, TERMINA
 1272              		.loc 1 229 0
 1273              		.cfi_startproc
 1274              		@ args = 8, pretend = 0, frame = 16
 1275              		@ frame_needed = 0, uses_anonymous_args = 0
 1276              	.LVL108:
 1277 0000 2DE9FF41 		push	{r0, r1, r2, r3, r4, r5, r6, r7, r8, lr}
 1278              		.cfi_def_cfa_offset 40
 1279              		.cfi_offset 4, -24
 1280              		.cfi_offset 5, -20
 1281              		.cfi_offset 6, -16
 1282              		.cfi_offset 7, -12
 1283              		.cfi_offset 8, -8
 1284              		.cfi_offset 14, -4
 1285              		.loc 1 229 0
 1286 0004 0646     		mov	r6, r0
 230:..\common\ud3core\helper/teslaterm.c ****     uint8_t bytes = strlen(text);
 1287              		.loc 1 230 0
 1288 0006 0A98     		ldr	r0, [sp, #40]
 1289              	.LVL109:
 229:..\common\ud3core\helper/teslaterm.c ****     uint8_t bytes = strlen(text);
 1290              		.loc 1 229 0
 1291 0008 0D46     		mov	r5, r1
 1292 000a 9046     		mov	r8, r2
 1293 000c 1F46     		mov	r7, r3
 1294              		.loc 1 230 0
 1295 000e FFF7FEFF 		bl	strlen
 1296              	.LVL110:
 229:..\common\ud3core\helper/teslaterm.c ****     uint8_t bytes = strlen(text);
 1297              		.loc 1 229 0
 1298 0012 0B9C     		ldr	r4, [sp, #44]
 231:..\common\ud3core\helper/teslaterm.c ****     uint8_t buf[9];
 232:..\common\ud3core\helper/teslaterm.c ****     buf[0] = 0xFF;
 1299              		.loc 1 232 0
 1300 0014 FF23     		movs	r3, #255
 1301 0016 8DF80430 		strb	r3, [sp, #4]
 233:..\common\ud3core\helper/teslaterm.c ****     buf[1] = bytes+sizeof(buf)-2;
 234:..\common\ud3core\helper/teslaterm.c ****     buf[2] = TT_CHART_TEXT_CENTER;
 235:..\common\ud3core\helper/teslaterm.c ****     buf[3] = x;
 1302              		.loc 1 235 0
 1303 001a 8DF80760 		strb	r6, [sp, #7]
 234:..\common\ud3core\helper/teslaterm.c ****     buf[3] = x;
 1304              		.loc 1 234 0
 1305 001e 0923     		movs	r3, #9
 236:..\common\ud3core\helper/teslaterm.c ****     buf[4] = (x>>8);
 237:..\common\ud3core\helper/teslaterm.c ****     buf[5] = y;
 1306              		.loc 1 237 0
ARM GAS  C:\Users\chemi\AppData\Local\Temp\cc30iVmj.s 			page 30


 1307 0020 8DF80950 		strb	r5, [sp, #9]
 233:..\common\ud3core\helper/teslaterm.c ****     buf[2] = TT_CHART_TEXT_CENTER;
 1308              		.loc 1 233 0
 1309 0024 0730     		adds	r0, r0, #7
 1310              	.LVL111:
 236:..\common\ud3core\helper/teslaterm.c ****     buf[4] = (x>>8);
 1311              		.loc 1 236 0
 1312 0026 3612     		asrs	r6, r6, #8
 238:..\common\ud3core\helper/teslaterm.c ****     buf[6] = (y>>8);
 1313              		.loc 1 238 0
 1314 0028 2D12     		asrs	r5, r5, #8
 233:..\common\ud3core\helper/teslaterm.c ****     buf[2] = TT_CHART_TEXT_CENTER;
 1315              		.loc 1 233 0
 1316 002a 8DF80500 		strb	r0, [sp, #5]
 234:..\common\ud3core\helper/teslaterm.c ****     buf[3] = x;
 1317              		.loc 1 234 0
 1318 002e 8DF80630 		strb	r3, [sp, #6]
 1319              		.loc 1 238 0
 1320 0032 8DF80A50 		strb	r5, [sp, #10]
 239:..\common\ud3core\helper/teslaterm.c ****     buf[7] = color;
 240:..\common\ud3core\helper/teslaterm.c ****     buf[8] = size;
 241:..\common\ud3core\helper/teslaterm.c ****     ttprintb(buf,sizeof(buf));
 1321              		.loc 1 241 0
 1322 0036 01AA     		add	r2, sp, #4
 236:..\common\ud3core\helper/teslaterm.c ****     buf[5] = y;
 1323              		.loc 1 236 0
 1324 0038 8DF80860 		strb	r6, [sp, #8]
 239:..\common\ud3core\helper/teslaterm.c ****     buf[7] = color;
 1325              		.loc 1 239 0
 1326 003c 8DF80B80 		strb	r8, [sp, #11]
 240:..\common\ud3core\helper/teslaterm.c ****     ttprintb(buf,sizeof(buf));
 1327              		.loc 1 240 0
 1328 0040 8DF80C70 		strb	r7, [sp, #12]
 1329              		.loc 1 241 0
 1330 0044 656A     		ldr	r5, [r4, #36]
 1331 0046 0549     		ldr	r1, .L51
 1332 0048 6068     		ldr	r0, [r4, #4]
 1333 004a A847     		blx	r5
 1334              	.LVL112:
 242:..\common\ud3core\helper/teslaterm.c ****     ttprintf("%s",text);
 1335              		.loc 1 242 0
 1336 004c 636A     		ldr	r3, [r4, #36]
 1337 004e 0A9A     		ldr	r2, [sp, #40]
 1338 0050 0349     		ldr	r1, .L51+4
 1339 0052 6068     		ldr	r0, [r4, #4]
 1340 0054 9847     		blx	r3
 1341              	.LVL113:
 243:..\common\ud3core\helper/teslaterm.c **** }
 1342              		.loc 1 243 0
 1343 0056 04B0     		add	sp, sp, #16
 1344              		.cfi_def_cfa_offset 24
 1345              		@ sp needed
 1346 0058 BDE8F081 		pop	{r4, r5, r6, r7, r8, pc}
 1347              	.LVL114:
 1348              	.L52:
 1349              		.align	2
 1350              	.L51:
ARM GAS  C:\Users\chemi\AppData\Local\Temp\cc30iVmj.s 			page 31


 1351 005c 00000000 		.word	.LC1
 1352 0060 01000000 		.word	.LC2
 1353              		.cfi_endproc
 1354              	.LFE83:
 1355              		.size	send_chart_text_center, .-send_chart_text_center
 1356              		.section	.text.send_status,"ax",%progbits
 1357              		.align	1
 1358              		.global	send_status
 1359              		.thumb
 1360              		.thumb_func
 1361              		.type	send_status, %function
 1362              	send_status:
 1363              	.LFB84:
 244:..\common\ud3core\helper/teslaterm.c **** 
 245:..\common\ud3core\helper/teslaterm.c **** 
 246:..\common\ud3core\helper/teslaterm.c **** 
 247:..\common\ud3core\helper/teslaterm.c **** void send_status(uint8_t bus_active, uint8_t transient_active, uint8_t bus_controlled,uint8_t killb
 1364              		.loc 1 247 0
 1365              		.cfi_startproc
 1366              		@ args = 4, pretend = 0, frame = 8
 1367              		@ frame_needed = 0, uses_anonymous_args = 0
 1368              	.LVL115:
 248:..\common\ud3core\helper/teslaterm.c ****     uint8_t buf[8];
 249:..\common\ud3core\helper/teslaterm.c ****     buf[0] = 0xFF;
 250:..\common\ud3core\helper/teslaterm.c ****     buf[1] = sizeof(buf)-2;
 251:..\common\ud3core\helper/teslaterm.c ****     buf[2] = TT_STATUS;
 252:..\common\ud3core\helper/teslaterm.c **** 	buf[3] = bus_active|(transient_active<<1)|(bus_controlled<<2)|(killbit<<3);
 1369              		.loc 1 252 0
 1370 0000 40EAC303 		orr	r3, r0, r3, lsl #3
 1371              	.LVL116:
 247:..\common\ud3core\helper/teslaterm.c ****     uint8_t buf[8];
 1372              		.loc 1 247 0
 1373 0004 37B5     		push	{r0, r1, r2, r4, r5, lr}
 1374              		.cfi_def_cfa_offset 24
 1375              		.cfi_offset 4, -12
 1376              		.cfi_offset 5, -8
 1377              		.cfi_offset 14, -4
 1378              		.loc 1 252 0
 1379 0006 43EA8202 		orr	r2, r3, r2, lsl #2
 1380              	.LVL117:
 1381 000a 42EA4101 		orr	r1, r2, r1, lsl #1
 1382              	.LVL118:
 253:..\common\ud3core\helper/teslaterm.c **** 	buf[4] = configuration.max_tr_pw;
 1383              		.loc 1 253 0
 1384 000e 104A     		ldr	r2, .L54
 249:..\common\ud3core\helper/teslaterm.c ****     buf[1] = sizeof(buf)-2;
 1385              		.loc 1 249 0
 1386 0010 FF25     		movs	r5, #255
 1387              		.loc 1 253 0
 1388 0012 9388     		ldrh	r3, [r2, #4]
 247:..\common\ud3core\helper/teslaterm.c ****     uint8_t buf[8];
 1389              		.loc 1 247 0
 1390 0014 069C     		ldr	r4, [sp, #24]
 1391              		.loc 1 253 0
 1392 0016 8DF80430 		strb	r3, [sp, #4]
 254:..\common\ud3core\helper/teslaterm.c **** 	buf[5] = configuration.max_tr_pw >> 8;
 1393              		.loc 1 254 0
ARM GAS  C:\Users\chemi\AppData\Local\Temp\cc30iVmj.s 			page 32


 1394 001a 1B0A     		lsrs	r3, r3, #8
 1395 001c 8DF80530 		strb	r3, [sp, #5]
 255:..\common\ud3core\helper/teslaterm.c **** 	buf[6] = configuration.max_tr_prf;
 1396              		.loc 1 255 0
 1397 0020 D388     		ldrh	r3, [r2, #6]
 249:..\common\ud3core\helper/teslaterm.c ****     buf[1] = sizeof(buf)-2;
 1398              		.loc 1 249 0
 1399 0022 8DF80050 		strb	r5, [sp]
 250:..\common\ud3core\helper/teslaterm.c ****     buf[2] = TT_STATUS;
 1400              		.loc 1 250 0
 1401 0026 0625     		movs	r5, #6
 1402 0028 8DF80150 		strb	r5, [sp, #1]
 1403              		.loc 1 255 0
 1404 002c 8DF80630 		strb	r3, [sp, #6]
 251:..\common\ud3core\helper/teslaterm.c **** 	buf[3] = bus_active|(transient_active<<1)|(bus_controlled<<2)|(killbit<<3);
 1405              		.loc 1 251 0
 1406 0030 0A25     		movs	r5, #10
 256:..\common\ud3core\helper/teslaterm.c **** 	buf[7] = configuration.max_tr_prf >> 8;
 1407              		.loc 1 256 0
 1408 0032 1B0A     		lsrs	r3, r3, #8
 251:..\common\ud3core\helper/teslaterm.c **** 	buf[3] = bus_active|(transient_active<<1)|(bus_controlled<<2)|(killbit<<3);
 1409              		.loc 1 251 0
 1410 0034 8DF80250 		strb	r5, [sp, #2]
 252:..\common\ud3core\helper/teslaterm.c **** 	buf[4] = configuration.max_tr_pw;
 1411              		.loc 1 252 0
 1412 0038 8DF80310 		strb	r1, [sp, #3]
 1413              		.loc 1 256 0
 1414 003c 8DF80730 		strb	r3, [sp, #7]
 257:..\common\ud3core\helper/teslaterm.c ****     ttprintb(buf, sizeof(buf));
 1415              		.loc 1 257 0
 1416 0040 656A     		ldr	r5, [r4, #36]
 1417 0042 0823     		movs	r3, #8
 1418 0044 6A46     		mov	r2, sp
 1419 0046 0349     		ldr	r1, .L54+4
 1420 0048 6068     		ldr	r0, [r4, #4]
 1421              	.LVL119:
 1422 004a A847     		blx	r5
 1423              	.LVL120:
 258:..\common\ud3core\helper/teslaterm.c **** }
 1424              		.loc 1 258 0
 1425 004c 03B0     		add	sp, sp, #12
 1426              		.cfi_def_cfa_offset 12
 1427              		@ sp needed
 1428 004e 30BD     		pop	{r4, r5, pc}
 1429              	.LVL121:
 1430              	.L55:
 1431              		.align	2
 1432              	.L54:
 1433 0050 00000000 		.word	configuration
 1434 0054 00000000 		.word	.LC1
 1435              		.cfi_endproc
 1436              	.LFE84:
 1437              		.size	send_status, .-send_status
 1438              		.section	.text.tt_chart_init,"ax",%progbits
 1439              		.align	1
 1440              		.global	tt_chart_init
 1441              		.thumb
ARM GAS  C:\Users\chemi\AppData\Local\Temp\cc30iVmj.s 			page 33


 1442              		.thumb_func
 1443              		.type	tt_chart_init, %function
 1444              	tt_chart_init:
 1445              	.LFB85:
 259:..\common\ud3core\helper/teslaterm.c **** 
 260:..\common\ud3core\helper/teslaterm.c **** 
 261:..\common\ud3core\helper/teslaterm.c **** 
 262:..\common\ud3core\helper/teslaterm.c **** void tt_chart_init(CHART *chart, TERMINAL_HANDLE * handle){
 1446              		.loc 1 262 0
 1447              		.cfi_startproc
 1448              		@ args = 0, pretend = 0, frame = 16
 1449              		@ frame_needed = 0, uses_anonymous_args = 0
 1450              	.LVL122:
 1451 0000 2DE9F047 		push	{r4, r5, r6, r7, r8, r9, r10, lr}
 1452              		.cfi_def_cfa_offset 32
 1453              		.cfi_offset 4, -32
 1454              		.cfi_offset 5, -28
 1455              		.cfi_offset 6, -24
 1456              		.cfi_offset 7, -20
 1457              		.cfi_offset 8, -16
 1458              		.cfi_offset 9, -12
 1459              		.cfi_offset 10, -8
 1460              		.cfi_offset 14, -4
 1461 0004 0446     		mov	r4, r0
 1462 0006 0E46     		mov	r6, r1
 263:..\common\ud3core\helper/teslaterm.c ****     
 264:..\common\ud3core\helper/teslaterm.c ****     int16_t f;
 265:..\common\ud3core\helper/teslaterm.c ****     char buffer[10];
 266:..\common\ud3core\helper/teslaterm.c ****     send_chart_line(chart->offset_x, chart->height+chart->offset_y, chart->width+chart->offset_x, c
 1463              		.loc 1 266 0
 1464 0008 2288     		ldrh	r2, [r4]
 1465 000a E388     		ldrh	r3, [r4, #6]
 1466 000c 8088     		ldrh	r0, [r0, #4]
 1467              	.LVL123:
 1468 000e 1344     		add	r3, r3, r2
 1469 0010 6288     		ldrh	r2, [r4, #2]
 262:..\common\ud3core\helper/teslaterm.c ****     
 1470              		.loc 1 262 0
 1471 0012 86B0     		sub	sp, sp, #24
 1472              		.cfi_def_cfa_offset 56
 1473              		.loc 1 266 0
 1474 0014 9BB2     		uxth	r3, r3
 1475 0016 0244     		add	r2, r2, r0
 1476 0018 0027     		movs	r7, #0
 1477 001a 0191     		str	r1, [sp, #4]
 1478 001c 92B2     		uxth	r2, r2
 1479 001e 1946     		mov	r1, r3
 1480              	.LVL124:
 1481 0020 0097     		str	r7, [sp]
 1482 0022 FFF7FEFF 		bl	send_chart_line
 1483              	.LVL125:
 267:..\common\ud3core\helper/teslaterm.c ****     send_chart_line(chart->offset_x, chart->offset_y, chart->offset_x, chart->height+chart->offset_
 1484              		.loc 1 267 0
 1485 0026 E188     		ldrh	r1, [r4, #6]
 1486 0028 2388     		ldrh	r3, [r4]
 1487 002a A288     		ldrh	r2, [r4, #4]
 1488 002c 0B44     		add	r3, r3, r1
ARM GAS  C:\Users\chemi\AppData\Local\Temp\cc30iVmj.s 			page 34


 1489 002e 0196     		str	r6, [sp, #4]
 1490 0030 0097     		str	r7, [sp]
 1491 0032 9BB2     		uxth	r3, r3
 1492 0034 1046     		mov	r0, r2
 1493 0036 FFF7FEFF 		bl	send_chart_line
 1494              	.LVL126:
 268:..\common\ud3core\helper/teslaterm.c **** 
 269:..\common\ud3core\helper/teslaterm.c ****     //Y grid
 270:..\common\ud3core\helper/teslaterm.c **** 	for (f = chart->height; f >= 0; f -= chart->div_y) {
 1495              		.loc 1 270 0
 1496 003a B4F900A0 		ldrsh	r10, [r4]
 1497              	.LVL127:
 271:..\common\ud3core\helper/teslaterm.c **** 		send_chart_line(chart->offset_x, f+chart->offset_y, chart->offset_x-10, f+chart->offset_y, TT_COL
 272:..\common\ud3core\helper/teslaterm.c ****         send_chart_line(chart->offset_x, f+chart->offset_y, chart->width+chart->offset_x, f+chart->
 1498              		.loc 1 272 0
 1499 003e 4FF00808 		mov	r8, #8
 1500              	.L57:
 270:..\common\ud3core\helper/teslaterm.c **** 		send_chart_line(chart->offset_x, f+chart->offset_y, chart->offset_x-10, f+chart->offset_y, TT_COL
 1501              		.loc 1 270 0 discriminator 1
 1502 0042 BAF1000F 		cmp	r10, #0
 1503 0046 37DB     		blt	.L61
 271:..\common\ud3core\helper/teslaterm.c **** 		send_chart_line(chart->offset_x, f+chart->offset_y, chart->offset_x-10, f+chart->offset_y, TT_COL
 1504              		.loc 1 271 0 discriminator 3
 1505 0048 E388     		ldrh	r3, [r4, #6]
 1506 004a 1FFA8AF5 		uxth	r5, r10
 1507 004e A088     		ldrh	r0, [r4, #4]
 1508 0050 2B44     		add	r3, r3, r5
 1509 0052 9BB2     		uxth	r3, r3
 1510 0054 A0F10A02 		sub	r2, r0, #10
 1511 0058 1946     		mov	r1, r3
 1512 005a 92B2     		uxth	r2, r2
 1513 005c 0196     		str	r6, [sp, #4]
 1514 005e 0097     		str	r7, [sp]
 1515 0060 FFF7FEFF 		bl	send_chart_line
 1516              	.LVL128:
 1517              		.loc 1 272 0 discriminator 3
 1518 0064 E388     		ldrh	r3, [r4, #6]
 1519 0066 A088     		ldrh	r0, [r4, #4]
 1520 0068 6288     		ldrh	r2, [r4, #2]
 1521 006a 2B44     		add	r3, r3, r5
 1522 006c 9BB2     		uxth	r3, r3
 1523 006e 0244     		add	r2, r2, r0
 1524 0070 1946     		mov	r1, r3
 1525 0072 92B2     		uxth	r2, r2
 1526 0074 0196     		str	r6, [sp, #4]
 1527 0076 CDF80080 		str	r8, [sp]
 1528 007a FFF7FEFF 		bl	send_chart_line
 1529              	.LVL129:
 273:..\common\ud3core\helper/teslaterm.c ****         
 274:..\common\ud3core\helper/teslaterm.c ****         snprintf(buffer, sizeof(buffer), "%i", chart->height-f);
 1530              		.loc 1 274 0 discriminator 3
 1531 007e 2388     		ldrh	r3, [r4]
 1532 0080 0DF10C09 		add	r9, sp, #12
 1533 0084 CAEB0303 		rsb	r3, r10, r3
 1534 0088 2D4A     		ldr	r2, .L63
 1535 008a 0A21     		movs	r1, #10
 1536 008c 4846     		mov	r0, r9
ARM GAS  C:\Users\chemi\AppData\Local\Temp\cc30iVmj.s 			page 35


 1537 008e FFF7FEFF 		bl	snprintf_
 1538              	.LVL130:
 275:..\common\ud3core\helper/teslaterm.c ****     	send_chart_text_center(chart->offset_x-20,f+chart->offset_y+4,TT_COLOR_WHITE,8,buffer, handle)
 1539              		.loc 1 275 0 discriminator 3
 1540 0092 E188     		ldrh	r1, [r4, #6]
 1541 0094 A088     		ldrh	r0, [r4, #4]
 1542 0096 0431     		adds	r1, r1, #4
 1543 0098 2944     		add	r1, r1, r5
 1544 009a 1438     		subs	r0, r0, #20
 1545 009c 0823     		movs	r3, #8
 1546 009e 0196     		str	r6, [sp, #4]
 1547 00a0 CDF80090 		str	r9, [sp]
 1548 00a4 0022     		movs	r2, #0
 1549 00a6 09B2     		sxth	r1, r1
 1550 00a8 00B2     		sxth	r0, r0
 1551 00aa FFF7FEFF 		bl	send_chart_text_center
 1552              	.LVL131:
 270:..\common\ud3core\helper/teslaterm.c **** 		send_chart_line(chart->offset_x, f+chart->offset_y, chart->offset_x-10, f+chart->offset_y, TT_COL
 1553              		.loc 1 270 0 discriminator 3
 1554 00ae 6389     		ldrh	r3, [r4, #10]
 1555 00b0 ED1A     		subs	r5, r5, r3
 1556 00b2 0FFA85FA 		sxth	r10, r5
 1557              	.LVL132:
 1558 00b6 C4E7     		b	.L57
 1559              	.L61:
 1560 00b8 0025     		movs	r5, #0
 276:..\common\ud3core\helper/teslaterm.c **** 	}
 277:..\common\ud3core\helper/teslaterm.c ****     
 278:..\common\ud3core\helper/teslaterm.c ****     //X grid
 279:..\common\ud3core\helper/teslaterm.c **** 	for (f = 0; f <= chart->width; f += chart->div_x) {
 280:..\common\ud3core\helper/teslaterm.c **** 		send_chart_line(f+chart->offset_x, chart->height+chart->offset_y, f+chart->offset_x, chart->heigh
 1561              		.loc 1 280 0 discriminator 1
 1562 00ba A846     		mov	r8, r5
 281:..\common\ud3core\helper/teslaterm.c ****         send_chart_line(f+chart->offset_x, chart->offset_y, f+chart->offset_x, chart->offset_y+char
 1563              		.loc 1 281 0 discriminator 1
 1564 00bc 4FF00809 		mov	r9, #8
 1565              	.LVL133:
 1566              	.L59:
 279:..\common\ud3core\helper/teslaterm.c **** 		send_chart_line(f+chart->offset_x, chart->height+chart->offset_y, f+chart->offset_x, chart->heigh
 1567              		.loc 1 279 0 discriminator 1
 1568 00c0 6388     		ldrh	r3, [r4, #2]
 1569 00c2 9D42     		cmp	r5, r3
 1570 00c4 38DC     		bgt	.L62
 280:..\common\ud3core\helper/teslaterm.c ****         send_chart_line(f+chart->offset_x, chart->offset_y, f+chart->offset_x, chart->offset_y+char
 1571              		.loc 1 280 0 discriminator 3
 1572 00c6 E388     		ldrh	r3, [r4, #6]
 1573 00c8 2188     		ldrh	r1, [r4]
 1574 00ca A288     		ldrh	r2, [r4, #4]
 1575 00cc AFB2     		uxth	r7, r5
 1576 00ce 1944     		add	r1, r1, r3
 1577 00d0 89B2     		uxth	r1, r1
 1578 00d2 3A44     		add	r2, r2, r7
 1579 00d4 92B2     		uxth	r2, r2
 1580 00d6 01F10A03 		add	r3, r1, #10
 1581 00da 1046     		mov	r0, r2
 1582 00dc 9BB2     		uxth	r3, r3
 1583 00de 0196     		str	r6, [sp, #4]
ARM GAS  C:\Users\chemi\AppData\Local\Temp\cc30iVmj.s 			page 36


 1584 00e0 CDF80080 		str	r8, [sp]
 1585 00e4 FFF7FEFF 		bl	send_chart_line
 1586              	.LVL134:
 1587              		.loc 1 281 0 discriminator 3
 1588 00e8 A288     		ldrh	r2, [r4, #4]
 1589 00ea E188     		ldrh	r1, [r4, #6]
 1590 00ec 2388     		ldrh	r3, [r4]
 1591 00ee 3A44     		add	r2, r2, r7
 1592 00f0 92B2     		uxth	r2, r2
 1593 00f2 0B44     		add	r3, r3, r1
 1594 00f4 1046     		mov	r0, r2
 1595 00f6 9BB2     		uxth	r3, r3
 282:..\common\ud3core\helper/teslaterm.c ****         
 283:..\common\ud3core\helper/teslaterm.c ****         snprintf(buffer, sizeof(buffer), "%i", f);
 1596              		.loc 1 283 0 discriminator 3
 1597 00f8 0DF10C0A 		add	r10, sp, #12
 281:..\common\ud3core\helper/teslaterm.c ****         
 1598              		.loc 1 281 0 discriminator 3
 1599 00fc 0196     		str	r6, [sp, #4]
 1600 00fe CDF80090 		str	r9, [sp]
 1601 0102 FFF7FEFF 		bl	send_chart_line
 1602              	.LVL135:
 1603              		.loc 1 283 0 discriminator 3
 1604 0106 2B46     		mov	r3, r5
 1605 0108 0D4A     		ldr	r2, .L63
 1606 010a 0A21     		movs	r1, #10
 1607 010c 5046     		mov	r0, r10
 1608 010e FFF7FEFF 		bl	snprintf_
 1609              	.LVL136:
 284:..\common\ud3core\helper/teslaterm.c ****     	send_chart_text_center(f+chart->offset_x,chart->offset_y+chart->height+20,TT_COLOR_WHITE,8,buf
 1610              		.loc 1 284 0 discriminator 3
 1611 0112 2388     		ldrh	r3, [r4]
 1612 0114 E188     		ldrh	r1, [r4, #6]
 1613 0116 A088     		ldrh	r0, [r4, #4]
 1614 0118 1944     		add	r1, r1, r3
 1615 011a 1431     		adds	r1, r1, #20
 1616 011c 3844     		add	r0, r0, r7
 1617 011e 0196     		str	r6, [sp, #4]
 1618 0120 CDF800A0 		str	r10, [sp]
 1619 0124 0823     		movs	r3, #8
 1620 0126 0022     		movs	r2, #0
 1621 0128 09B2     		sxth	r1, r1
 1622 012a 00B2     		sxth	r0, r0
 1623 012c FFF7FEFF 		bl	send_chart_text_center
 1624              	.LVL137:
 279:..\common\ud3core\helper/teslaterm.c **** 		send_chart_line(f+chart->offset_x, chart->height+chart->offset_y, f+chart->offset_x, chart->heigh
 1625              		.loc 1 279 0 discriminator 3
 1626 0130 2589     		ldrh	r5, [r4, #8]
 1627              	.LVL138:
 1628 0132 3D44     		add	r5, r5, r7
 1629 0134 2DB2     		sxth	r5, r5
 1630              	.LVL139:
 1631 0136 C3E7     		b	.L59
 1632              	.L62:
 285:..\common\ud3core\helper/teslaterm.c **** 	}
 286:..\common\ud3core\helper/teslaterm.c ****    
 287:..\common\ud3core\helper/teslaterm.c ****     
ARM GAS  C:\Users\chemi\AppData\Local\Temp\cc30iVmj.s 			page 37


 288:..\common\ud3core\helper/teslaterm.c **** 
 289:..\common\ud3core\helper/teslaterm.c **** }
 1633              		.loc 1 289 0
 1634 0138 06B0     		add	sp, sp, #24
 1635              		.cfi_def_cfa_offset 32
 1636              		@ sp needed
 1637 013a BDE8F087 		pop	{r4, r5, r6, r7, r8, r9, r10, pc}
 1638              	.LVL140:
 1639              	.L64:
 1640 013e 00BF     		.align	2
 1641              	.L63:
 1642 0140 24000000 		.word	.LC6
 1643              		.cfi_endproc
 1644              	.LFE85:
 1645              		.size	tt_chart_init, .-tt_chart_init
 1646              		.global	units
 1647              		.global	chartdraw
 1648              		.global	chartbuf
 1649              		.global	buf32
 1650              		.global	gaugebuf
 1651              		.section	.rodata
 1652              		.set	.LANCHOR1,. + 0
 1653              		.type	chartdraw, %object
 1654              		.size	chartdraw, 4
 1655              	chartdraw:
 1656 0000 FF       		.byte	-1
 1657 0001 02       		.byte	2
 1658 0002 04       		.byte	4
 1659 0003 00       		.byte	0
 1660              	.LC0:
 1661 0004 FF       		.byte	-1
 1662 0005 00       		.byte	0
 1663 0006 06       		.byte	6
 1664              		.section	.rodata.str1.1,"aMS",%progbits,1
 1665              	.LC1:
 1666 0000 00       		.ascii	"\000"
 1667              	.LC2:
 1668 0001 257300   		.ascii	"%s\000"
 1669              	.LC3:
 1670 0004 25733B25 		.ascii	"%s;%s\000"
 1670      7300
 1671              	.LC4:
 1672 000a 25753B25 		.ascii	"%u;%u;%s;NULL\000"
 1672      753B2573 
 1672      3B4E554C 
 1672      4C00
 1673              	.LC5:
 1674 0018 25753B25 		.ascii	"%u;%u;%s;%u\000"
 1674      753B2573 
 1674      3B257500 
 1675              	.LC6:
 1676 0024 256900   		.ascii	"%i\000"
 1677              	.LC7:
 1678 0027 5600     		.ascii	"V\000"
 1679              	.LC8:
 1680 0029 4100     		.ascii	"A\000"
 1681              	.LC9:
ARM GAS  C:\Users\chemi\AppData\Local\Temp\cc30iVmj.s 			page 38


 1682 002b 5700     		.ascii	"W\000"
 1683              	.LC10:
 1684 002d 487A00   		.ascii	"Hz\000"
 1685              	.LC11:
 1686 0030 4300     		.ascii	"C\000"
 1687              	.LC12:
 1688 0032 6B5700   		.ascii	"kW\000"
 1689              	.LC13:
 1690 0035 52504D00 		.ascii	"RPM\000"
 1691              	.LC14:
 1692 0039 2500     		.ascii	"%\000"
 1693              	.LC15:
 1694 003b 6D5600   		.ascii	"mV\000"
 1695              		.data
 1696              		.align	2
 1697              		.set	.LANCHOR0,. + 0
 1698              		.type	gaugebuf, %object
 1699              		.size	gaugebuf, 6
 1700              	gaugebuf:
 1701 0000 FF       		.byte	-1
 1702 0001 04       		.byte	4
 1703 0002 01       		.byte	1
 1704 0003 00       		.byte	0
 1705 0004 00       		.byte	0
 1706 0005 00       		.byte	0
 1707              		.type	buf32, %object
 1708              		.size	buf32, 8
 1709              	buf32:
 1710 0006 FF       		.byte	-1
 1711 0007 06       		.byte	6
 1712 0008 0D       		.byte	13
 1713 0009 00       		.byte	0
 1714 000a 00       		.byte	0
 1715 000b 00       		.byte	0
 1716 000c 00       		.byte	0
 1717 000d 00       		.byte	0
 1718              		.type	chartbuf, %object
 1719              		.size	chartbuf, 6
 1720              	chartbuf:
 1721 000e FF       		.byte	-1
 1722 000f 04       		.byte	4
 1723 0010 03       		.byte	3
 1724 0011 00       		.byte	0
 1725 0012 00       		.byte	0
 1726 0013 00       		.byte	0
 1727              		.type	units, %object
 1728              		.size	units, 40
 1729              	units:
 1730 0014 00000000 		.word	.LC1
 1731 0018 27000000 		.word	.LC7
 1732 001c 29000000 		.word	.LC8
 1733 0020 2B000000 		.word	.LC9
 1734 0024 2D000000 		.word	.LC10
 1735 0028 30000000 		.word	.LC11
 1736 002c 32000000 		.word	.LC12
 1737 0030 35000000 		.word	.LC13
 1738 0034 39000000 		.word	.LC14
ARM GAS  C:\Users\chemi\AppData\Local\Temp\cc30iVmj.s 			page 39


 1739 0038 3B000000 		.word	.LC15
 1740              		.text
 1741              	.Letext0:
 1742              		.file 2 "c:\\program files (x86)\\cypress\\psoc creator\\4.4\\psoc creator\\import\\gnu\\arm\\5.4.
 1743              		.file 3 "c:\\program files (x86)\\cypress\\psoc creator\\4.4\\psoc creator\\import\\gnu\\arm\\5.4.
 1744              		.file 4 "..\\common\\rtos\\include/task.h"
 1745              		.file 5 "..\\common\\rtos\\include/stream_buffer.h"
 1746              		.file 6 "..\\common\\tterm/TTerm.h"
 1747              		.file 7 "..\\common\\ud3core/alarmevent.h"
 1748              		.file 8 "..\\common\\ud3core\\helper\\teslaterm.h"
 1749              		.file 9 "..\\common\\ud3core/cli_common.h"
 1750              		.file 10 "Generated_Source\\PSoC5/core_cm3.h"
 1751              		.file 11 "c:\\program files (x86)\\cypress\\psoc creator\\4.4\\psoc creator\\import\\gnu\\arm\\5.4
 1752              		.file 12 "..\\common\\ud3core\\helper\\printf.h"