ARM GAS  C:\Users\chemi\AppData\Local\Temp\ccRrTjI3.s 			page 1


   1              		.syntax unified
   2              		.cpu cortex-m3
   3              		.fpu softvfp
   4              		.eabi_attribute 20, 1
   5              		.eabi_attribute 21, 1
   6              		.eabi_attribute 23, 3
   7              		.eabi_attribute 24, 1
   8              		.eabi_attribute 25, 1
   9              		.eabi_attribute 26, 1
  10              		.eabi_attribute 30, 4
  11              		.eabi_attribute 34, 1
  12              		.eabi_attribute 18, 4
  13              		.thumb
  14              		.syntax unified
  15              		.file	"Therm_Mux.c"
  16              		.text
  17              	.Ltext0:
  18              		.cfi_sections	.debug_frame
  19              		.section	.text.Therm_Mux_Start,"ax",%progbits
  20              		.align	1
  21              		.global	Therm_Mux_Start
  22              		.thumb
  23              		.thumb_func
  24              		.type	Therm_Mux_Start, %function
  25              	Therm_Mux_Start:
  26              	.LFB0:
  27              		.file 1 "Generated_Source\\PSoC5\\Therm_Mux.c"
   1:Generated_Source\PSoC5/Therm_Mux.c **** /*******************************************************************************
   2:Generated_Source\PSoC5/Therm_Mux.c **** * File Name: Therm_Mux.c
   3:Generated_Source\PSoC5/Therm_Mux.c **** * Version 1.80
   4:Generated_Source\PSoC5/Therm_Mux.c **** *
   5:Generated_Source\PSoC5/Therm_Mux.c **** *  Description:
   6:Generated_Source\PSoC5/Therm_Mux.c **** *    This file contains all functions required for the analog multiplexer
   7:Generated_Source\PSoC5/Therm_Mux.c **** *    AMux User Module.
   8:Generated_Source\PSoC5/Therm_Mux.c **** *
   9:Generated_Source\PSoC5/Therm_Mux.c **** *   Note:
  10:Generated_Source\PSoC5/Therm_Mux.c **** *
  11:Generated_Source\PSoC5/Therm_Mux.c **** *******************************************************************************
  12:Generated_Source\PSoC5/Therm_Mux.c **** * Copyright 2008-2010, Cypress Semiconductor Corporation.  All rights reserved.
  13:Generated_Source\PSoC5/Therm_Mux.c **** * You may use this file only in accordance with the license, terms, conditions, 
  14:Generated_Source\PSoC5/Therm_Mux.c **** * disclaimers, and limitations in the end user license agreement accompanying 
  15:Generated_Source\PSoC5/Therm_Mux.c **** * the software package with which this file was provided.
  16:Generated_Source\PSoC5/Therm_Mux.c **** ********************************************************************************/
  17:Generated_Source\PSoC5/Therm_Mux.c **** 
  18:Generated_Source\PSoC5/Therm_Mux.c **** #include "Therm_Mux.h"
  19:Generated_Source\PSoC5/Therm_Mux.c **** 
  20:Generated_Source\PSoC5/Therm_Mux.c **** static uint8 Therm_Mux_lastChannel = Therm_Mux_NULL_CHANNEL;
  21:Generated_Source\PSoC5/Therm_Mux.c **** 
  22:Generated_Source\PSoC5/Therm_Mux.c **** 
  23:Generated_Source\PSoC5/Therm_Mux.c **** /*******************************************************************************
  24:Generated_Source\PSoC5/Therm_Mux.c **** * Function Name: Therm_Mux_Start
  25:Generated_Source\PSoC5/Therm_Mux.c **** ********************************************************************************
  26:Generated_Source\PSoC5/Therm_Mux.c **** * Summary:
  27:Generated_Source\PSoC5/Therm_Mux.c **** *  Disconnect all channels.
  28:Generated_Source\PSoC5/Therm_Mux.c **** *
  29:Generated_Source\PSoC5/Therm_Mux.c **** * Parameters:
  30:Generated_Source\PSoC5/Therm_Mux.c **** *  void
ARM GAS  C:\Users\chemi\AppData\Local\Temp\ccRrTjI3.s 			page 2


  31:Generated_Source\PSoC5/Therm_Mux.c **** *
  32:Generated_Source\PSoC5/Therm_Mux.c **** * Return:
  33:Generated_Source\PSoC5/Therm_Mux.c **** *  void
  34:Generated_Source\PSoC5/Therm_Mux.c **** *
  35:Generated_Source\PSoC5/Therm_Mux.c **** *******************************************************************************/
  36:Generated_Source\PSoC5/Therm_Mux.c **** void Therm_Mux_Start(void) 
  37:Generated_Source\PSoC5/Therm_Mux.c **** {
  28              		.loc 1 37 0
  29              		.cfi_startproc
  30              		@ args = 0, pretend = 0, frame = 0
  31              		@ frame_needed = 0, uses_anonymous_args = 0
  32              	.LVL0:
  33 0000 08B5     		push	{r3, lr}
  34              		.cfi_def_cfa_offset 8
  35              		.cfi_offset 3, -8
  36              		.cfi_offset 14, -4
  38:Generated_Source\PSoC5/Therm_Mux.c ****     uint8 chan;
  39:Generated_Source\PSoC5/Therm_Mux.c **** 
  40:Generated_Source\PSoC5/Therm_Mux.c ****     for(chan = 0u; chan < Therm_Mux_CHANNELS ; chan++)
  41:Generated_Source\PSoC5/Therm_Mux.c ****     {
  42:Generated_Source\PSoC5/Therm_Mux.c **** #if (Therm_Mux_MUXTYPE == Therm_Mux_MUX_SINGLE)
  43:Generated_Source\PSoC5/Therm_Mux.c ****         Therm_Mux_Unset(chan);
  37              		.loc 1 43 0
  38 0002 0020     		movs	r0, #0
  39 0004 FFF7FEFF 		bl	Therm_Mux_Unset
  40              	.LVL1:
  41 0008 0120     		movs	r0, #1
  42 000a FFF7FEFF 		bl	Therm_Mux_Unset
  43              	.LVL2:
  44 000e 0220     		movs	r0, #2
  45 0010 FFF7FEFF 		bl	Therm_Mux_Unset
  46              	.LVL3:
  44:Generated_Source\PSoC5/Therm_Mux.c **** #else
  45:Generated_Source\PSoC5/Therm_Mux.c ****         Therm_Mux_CYAMUXSIDE_A_Unset(chan);
  46:Generated_Source\PSoC5/Therm_Mux.c ****         Therm_Mux_CYAMUXSIDE_B_Unset(chan);
  47:Generated_Source\PSoC5/Therm_Mux.c **** #endif
  48:Generated_Source\PSoC5/Therm_Mux.c ****     }
  49:Generated_Source\PSoC5/Therm_Mux.c **** 
  50:Generated_Source\PSoC5/Therm_Mux.c ****     Therm_Mux_lastChannel = Therm_Mux_NULL_CHANNEL;
  47              		.loc 1 50 0
  48 0014 014B     		ldr	r3, .L2
  49 0016 FF22     		movs	r2, #255
  50 0018 1A70     		strb	r2, [r3]
  51 001a 08BD     		pop	{r3, pc}
  52              	.L3:
  53              		.align	2
  54              	.L2:
  55 001c 00000000 		.word	.LANCHOR0
  56              		.cfi_endproc
  57              	.LFE0:
  58              		.size	Therm_Mux_Start, .-Therm_Mux_Start
  59              		.section	.text.Therm_Mux_FastSelect,"ax",%progbits
  60              		.align	1
  61              		.global	Therm_Mux_FastSelect
  62              		.thumb
  63              		.thumb_func
  64              		.type	Therm_Mux_FastSelect, %function
ARM GAS  C:\Users\chemi\AppData\Local\Temp\ccRrTjI3.s 			page 3


  65              	Therm_Mux_FastSelect:
  66              	.LFB1:
  51:Generated_Source\PSoC5/Therm_Mux.c **** }
  52:Generated_Source\PSoC5/Therm_Mux.c **** 
  53:Generated_Source\PSoC5/Therm_Mux.c **** 
  54:Generated_Source\PSoC5/Therm_Mux.c **** #if (!Therm_Mux_ATMOSTONE)
  55:Generated_Source\PSoC5/Therm_Mux.c **** /*******************************************************************************
  56:Generated_Source\PSoC5/Therm_Mux.c **** * Function Name: Therm_Mux_Select
  57:Generated_Source\PSoC5/Therm_Mux.c **** ********************************************************************************
  58:Generated_Source\PSoC5/Therm_Mux.c **** * Summary:
  59:Generated_Source\PSoC5/Therm_Mux.c **** *  This functions first disconnects all channels then connects the given
  60:Generated_Source\PSoC5/Therm_Mux.c **** *  channel.
  61:Generated_Source\PSoC5/Therm_Mux.c **** *
  62:Generated_Source\PSoC5/Therm_Mux.c **** * Parameters:
  63:Generated_Source\PSoC5/Therm_Mux.c **** *  channel:  The channel to connect to the common terminal.
  64:Generated_Source\PSoC5/Therm_Mux.c **** *
  65:Generated_Source\PSoC5/Therm_Mux.c **** * Return:
  66:Generated_Source\PSoC5/Therm_Mux.c **** *  void
  67:Generated_Source\PSoC5/Therm_Mux.c **** *
  68:Generated_Source\PSoC5/Therm_Mux.c **** *******************************************************************************/
  69:Generated_Source\PSoC5/Therm_Mux.c **** void Therm_Mux_Select(uint8 channel) 
  70:Generated_Source\PSoC5/Therm_Mux.c **** {
  71:Generated_Source\PSoC5/Therm_Mux.c ****     Therm_Mux_DisconnectAll();        /* Disconnect all previous connections */
  72:Generated_Source\PSoC5/Therm_Mux.c ****     Therm_Mux_Connect(channel);       /* Make the given selection */
  73:Generated_Source\PSoC5/Therm_Mux.c ****     Therm_Mux_lastChannel = channel;  /* Update last channel */
  74:Generated_Source\PSoC5/Therm_Mux.c **** }
  75:Generated_Source\PSoC5/Therm_Mux.c **** #endif
  76:Generated_Source\PSoC5/Therm_Mux.c **** 
  77:Generated_Source\PSoC5/Therm_Mux.c **** 
  78:Generated_Source\PSoC5/Therm_Mux.c **** /*******************************************************************************
  79:Generated_Source\PSoC5/Therm_Mux.c **** * Function Name: Therm_Mux_FastSelect
  80:Generated_Source\PSoC5/Therm_Mux.c **** ********************************************************************************
  81:Generated_Source\PSoC5/Therm_Mux.c **** * Summary:
  82:Generated_Source\PSoC5/Therm_Mux.c **** *  This function first disconnects the last connection made with FastSelect or
  83:Generated_Source\PSoC5/Therm_Mux.c **** *  Select, then connects the given channel. The FastSelect function is similar
  84:Generated_Source\PSoC5/Therm_Mux.c **** *  to the Select function, except it is faster since it only disconnects the
  85:Generated_Source\PSoC5/Therm_Mux.c **** *  last channel selected rather than all channels.
  86:Generated_Source\PSoC5/Therm_Mux.c **** *
  87:Generated_Source\PSoC5/Therm_Mux.c **** * Parameters:
  88:Generated_Source\PSoC5/Therm_Mux.c **** *  channel:  The channel to connect to the common terminal.
  89:Generated_Source\PSoC5/Therm_Mux.c **** *
  90:Generated_Source\PSoC5/Therm_Mux.c **** * Return:
  91:Generated_Source\PSoC5/Therm_Mux.c **** *  void
  92:Generated_Source\PSoC5/Therm_Mux.c **** *
  93:Generated_Source\PSoC5/Therm_Mux.c **** *******************************************************************************/
  94:Generated_Source\PSoC5/Therm_Mux.c **** void Therm_Mux_FastSelect(uint8 channel) 
  95:Generated_Source\PSoC5/Therm_Mux.c **** {
  67              		.loc 1 95 0
  68              		.cfi_startproc
  69              		@ args = 0, pretend = 0, frame = 0
  70              		@ frame_needed = 0, uses_anonymous_args = 0
  71              	.LVL4:
  72 0000 38B5     		push	{r3, r4, r5, lr}
  73              		.cfi_def_cfa_offset 16
  74              		.cfi_offset 3, -16
  75              		.cfi_offset 4, -12
  76              		.cfi_offset 5, -8
ARM GAS  C:\Users\chemi\AppData\Local\Temp\ccRrTjI3.s 			page 4


  77              		.cfi_offset 14, -4
  96:Generated_Source\PSoC5/Therm_Mux.c ****     /* Disconnect the last valid channel */
  97:Generated_Source\PSoC5/Therm_Mux.c ****     if( Therm_Mux_lastChannel != Therm_Mux_NULL_CHANNEL)
  78              		.loc 1 97 0
  79 0002 064B     		ldr	r3, .L10
  95:Generated_Source\PSoC5/Therm_Mux.c ****     /* Disconnect the last valid channel */
  80              		.loc 1 95 0
  81 0004 0546     		mov	r5, r0
  82              		.loc 1 97 0
  83 0006 1878     		ldrb	r0, [r3]	@ zero_extendqisi2
  84              	.LVL5:
  85 0008 1C46     		mov	r4, r3
  86 000a FF28     		cmp	r0, #255
  87 000c 01D0     		beq	.L5
  98:Generated_Source\PSoC5/Therm_Mux.c ****     {
  99:Generated_Source\PSoC5/Therm_Mux.c ****         Therm_Mux_Disconnect(Therm_Mux_lastChannel);
  88              		.loc 1 99 0
  89 000e FFF7FEFF 		bl	Therm_Mux_Unset
  90              	.LVL6:
  91              	.L5:
 100:Generated_Source\PSoC5/Therm_Mux.c ****     }
 101:Generated_Source\PSoC5/Therm_Mux.c **** 
 102:Generated_Source\PSoC5/Therm_Mux.c ****     /* Make the new channel connection */
 103:Generated_Source\PSoC5/Therm_Mux.c **** #if (Therm_Mux_MUXTYPE == Therm_Mux_MUX_SINGLE)
 104:Generated_Source\PSoC5/Therm_Mux.c ****     Therm_Mux_Set(channel);
  92              		.loc 1 104 0
  93 0012 2846     		mov	r0, r5
  94 0014 FFF7FEFF 		bl	Therm_Mux_Set
  95              	.LVL7:
 105:Generated_Source\PSoC5/Therm_Mux.c **** #else
 106:Generated_Source\PSoC5/Therm_Mux.c ****     Therm_Mux_CYAMUXSIDE_A_Set(channel);
 107:Generated_Source\PSoC5/Therm_Mux.c ****     Therm_Mux_CYAMUXSIDE_B_Set(channel);
 108:Generated_Source\PSoC5/Therm_Mux.c **** #endif
 109:Generated_Source\PSoC5/Therm_Mux.c **** 
 110:Generated_Source\PSoC5/Therm_Mux.c **** 
 111:Generated_Source\PSoC5/Therm_Mux.c ****     Therm_Mux_lastChannel = channel;   /* Update last channel */
  96              		.loc 1 111 0
  97 0018 2570     		strb	r5, [r4]
  98 001a 38BD     		pop	{r3, r4, r5, pc}
  99              	.L11:
 100              		.align	2
 101              	.L10:
 102 001c 00000000 		.word	.LANCHOR0
 103              		.cfi_endproc
 104              	.LFE1:
 105              		.size	Therm_Mux_FastSelect, .-Therm_Mux_FastSelect
 106              		.section	.text.Therm_Mux_DisconnectAll,"ax",%progbits
 107              		.align	1
 108              		.global	Therm_Mux_DisconnectAll
 109              		.thumb
 110              		.thumb_func
 111              		.type	Therm_Mux_DisconnectAll, %function
 112              	Therm_Mux_DisconnectAll:
 113              	.LFB2:
 112:Generated_Source\PSoC5/Therm_Mux.c **** }
 113:Generated_Source\PSoC5/Therm_Mux.c **** 
 114:Generated_Source\PSoC5/Therm_Mux.c **** 
ARM GAS  C:\Users\chemi\AppData\Local\Temp\ccRrTjI3.s 			page 5


 115:Generated_Source\PSoC5/Therm_Mux.c **** #if (Therm_Mux_MUXTYPE == Therm_Mux_MUX_DIFF)
 116:Generated_Source\PSoC5/Therm_Mux.c **** #if (!Therm_Mux_ATMOSTONE)
 117:Generated_Source\PSoC5/Therm_Mux.c **** /*******************************************************************************
 118:Generated_Source\PSoC5/Therm_Mux.c **** * Function Name: Therm_Mux_Connect
 119:Generated_Source\PSoC5/Therm_Mux.c **** ********************************************************************************
 120:Generated_Source\PSoC5/Therm_Mux.c **** * Summary:
 121:Generated_Source\PSoC5/Therm_Mux.c **** *  This function connects the given channel without affecting other connections.
 122:Generated_Source\PSoC5/Therm_Mux.c **** *
 123:Generated_Source\PSoC5/Therm_Mux.c **** * Parameters:
 124:Generated_Source\PSoC5/Therm_Mux.c **** *  channel:  The channel to connect to the common terminal.
 125:Generated_Source\PSoC5/Therm_Mux.c **** *
 126:Generated_Source\PSoC5/Therm_Mux.c **** * Return:
 127:Generated_Source\PSoC5/Therm_Mux.c **** *  void
 128:Generated_Source\PSoC5/Therm_Mux.c **** *
 129:Generated_Source\PSoC5/Therm_Mux.c **** *******************************************************************************/
 130:Generated_Source\PSoC5/Therm_Mux.c **** void Therm_Mux_Connect(uint8 channel) 
 131:Generated_Source\PSoC5/Therm_Mux.c **** {
 132:Generated_Source\PSoC5/Therm_Mux.c ****     Therm_Mux_CYAMUXSIDE_A_Set(channel);
 133:Generated_Source\PSoC5/Therm_Mux.c ****     Therm_Mux_CYAMUXSIDE_B_Set(channel);
 134:Generated_Source\PSoC5/Therm_Mux.c **** }
 135:Generated_Source\PSoC5/Therm_Mux.c **** #endif
 136:Generated_Source\PSoC5/Therm_Mux.c **** 
 137:Generated_Source\PSoC5/Therm_Mux.c **** /*******************************************************************************
 138:Generated_Source\PSoC5/Therm_Mux.c **** * Function Name: Therm_Mux_Disconnect
 139:Generated_Source\PSoC5/Therm_Mux.c **** ********************************************************************************
 140:Generated_Source\PSoC5/Therm_Mux.c **** * Summary:
 141:Generated_Source\PSoC5/Therm_Mux.c **** *  This function disconnects the given channel from the common or output
 142:Generated_Source\PSoC5/Therm_Mux.c **** *  terminal without affecting other connections.
 143:Generated_Source\PSoC5/Therm_Mux.c **** *
 144:Generated_Source\PSoC5/Therm_Mux.c **** * Parameters:
 145:Generated_Source\PSoC5/Therm_Mux.c **** *  channel:  The channel to disconnect from the common terminal.
 146:Generated_Source\PSoC5/Therm_Mux.c **** *
 147:Generated_Source\PSoC5/Therm_Mux.c **** * Return:
 148:Generated_Source\PSoC5/Therm_Mux.c **** *  void
 149:Generated_Source\PSoC5/Therm_Mux.c **** *
 150:Generated_Source\PSoC5/Therm_Mux.c **** *******************************************************************************/
 151:Generated_Source\PSoC5/Therm_Mux.c **** void Therm_Mux_Disconnect(uint8 channel) 
 152:Generated_Source\PSoC5/Therm_Mux.c **** {
 153:Generated_Source\PSoC5/Therm_Mux.c ****     Therm_Mux_CYAMUXSIDE_A_Unset(channel);
 154:Generated_Source\PSoC5/Therm_Mux.c ****     Therm_Mux_CYAMUXSIDE_B_Unset(channel);
 155:Generated_Source\PSoC5/Therm_Mux.c **** }
 156:Generated_Source\PSoC5/Therm_Mux.c **** #endif
 157:Generated_Source\PSoC5/Therm_Mux.c **** 
 158:Generated_Source\PSoC5/Therm_Mux.c **** #if (Therm_Mux_ATMOSTONE)
 159:Generated_Source\PSoC5/Therm_Mux.c **** /*******************************************************************************
 160:Generated_Source\PSoC5/Therm_Mux.c **** * Function Name: Therm_Mux_DisconnectAll
 161:Generated_Source\PSoC5/Therm_Mux.c **** ********************************************************************************
 162:Generated_Source\PSoC5/Therm_Mux.c **** * Summary:
 163:Generated_Source\PSoC5/Therm_Mux.c **** *  This function disconnects all channels.
 164:Generated_Source\PSoC5/Therm_Mux.c **** *
 165:Generated_Source\PSoC5/Therm_Mux.c **** * Parameters:
 166:Generated_Source\PSoC5/Therm_Mux.c **** *  void
 167:Generated_Source\PSoC5/Therm_Mux.c **** *
 168:Generated_Source\PSoC5/Therm_Mux.c **** * Return:
 169:Generated_Source\PSoC5/Therm_Mux.c **** *  void
 170:Generated_Source\PSoC5/Therm_Mux.c **** *
 171:Generated_Source\PSoC5/Therm_Mux.c **** *******************************************************************************/
ARM GAS  C:\Users\chemi\AppData\Local\Temp\ccRrTjI3.s 			page 6


 172:Generated_Source\PSoC5/Therm_Mux.c **** void Therm_Mux_DisconnectAll(void) 
 173:Generated_Source\PSoC5/Therm_Mux.c **** {
 114              		.loc 1 173 0
 115              		.cfi_startproc
 116              		@ args = 0, pretend = 0, frame = 0
 117              		@ frame_needed = 0, uses_anonymous_args = 0
 118 0000 10B5     		push	{r4, lr}
 119              		.cfi_def_cfa_offset 8
 120              		.cfi_offset 4, -8
 121              		.cfi_offset 14, -4
 174:Generated_Source\PSoC5/Therm_Mux.c ****     if(Therm_Mux_lastChannel != Therm_Mux_NULL_CHANNEL) 
 122              		.loc 1 174 0
 123 0002 044C     		ldr	r4, .L17
 124 0004 2078     		ldrb	r0, [r4]	@ zero_extendqisi2
 125 0006 FF28     		cmp	r0, #255
 126 0008 03D0     		beq	.L12
 175:Generated_Source\PSoC5/Therm_Mux.c ****     {
 176:Generated_Source\PSoC5/Therm_Mux.c ****         Therm_Mux_Disconnect(Therm_Mux_lastChannel);
 127              		.loc 1 176 0
 128 000a FFF7FEFF 		bl	Therm_Mux_Unset
 129              	.LVL8:
 177:Generated_Source\PSoC5/Therm_Mux.c ****         Therm_Mux_lastChannel = Therm_Mux_NULL_CHANNEL;
 130              		.loc 1 177 0
 131 000e FF23     		movs	r3, #255
 132 0010 2370     		strb	r3, [r4]
 133              	.L12:
 134 0012 10BD     		pop	{r4, pc}
 135              	.L18:
 136              		.align	2
 137              	.L17:
 138 0014 00000000 		.word	.LANCHOR0
 139              		.cfi_endproc
 140              	.LFE2:
 141              		.size	Therm_Mux_DisconnectAll, .-Therm_Mux_DisconnectAll
 142              		.data
 143              		.set	.LANCHOR0,. + 0
 144              		.type	Therm_Mux_lastChannel, %object
 145              		.size	Therm_Mux_lastChannel, 1
 146              	Therm_Mux_lastChannel:
 147 0000 FF       		.byte	-1
 148              		.text
 149              	.Letext0:
 150              		.file 2 "Generated_Source\\PSoC5\\cyfitter_cfg.h"
 151              		.file 3 "Generated_Source\\PSoC5\\cytypes.h"