ARM GAS  C:\Users\chemi\AppData\Local\Temp\ccWFGUfC.s 			page 1


   1              		.syntax unified
   2              		.cpu cortex-m3
   3              		.fpu softvfp
   4              		.eabi_attribute 20, 1
   5              		.eabi_attribute 21, 1
   6              		.eabi_attribute 23, 3
   7              		.eabi_attribute 24, 1
   8              		.eabi_attribute 25, 1
   9              		.eabi_attribute 26, 1
  10              		.eabi_attribute 30, 4
  11              		.eabi_attribute 34, 1
  12              		.eabi_attribute 18, 4
  13              		.thumb
  14              		.syntax unified
  15              		.file	"timers.c"
  16              		.text
  17              	.Ltext0:
  18              		.cfi_sections	.debug_frame
  19              		.section	.text.prvCheckForValidListAndQueue,"ax",%progbits
  20              		.align	1
  21              		.thumb
  22              		.thumb_func
  23              		.type	prvCheckForValidListAndQueue, %function
  24              	prvCheckForValidListAndQueue:
  25              	.LFB86:
  26              		.file 1 "..\\common\\rtos\\timers.c"
   1:..\common\rtos/timers.c **** /*
   2:..\common\rtos/timers.c ****  * FreeRTOS Kernel V10.4.1
   3:..\common\rtos/timers.c ****  * Copyright (C) 2020 Amazon.com, Inc. or its affiliates.  All Rights Reserved.
   4:..\common\rtos/timers.c ****  *
   5:..\common\rtos/timers.c ****  * Permission is hereby granted, free of charge, to any person obtaining a copy of
   6:..\common\rtos/timers.c ****  * this software and associated documentation files (the "Software"), to deal in
   7:..\common\rtos/timers.c ****  * the Software without restriction, including without limitation the rights to
   8:..\common\rtos/timers.c ****  * use, copy, modify, merge, publish, distribute, sublicense, and/or sell copies of
   9:..\common\rtos/timers.c ****  * the Software, and to permit persons to whom the Software is furnished to do so,
  10:..\common\rtos/timers.c ****  * subject to the following conditions:
  11:..\common\rtos/timers.c ****  *
  12:..\common\rtos/timers.c ****  * The above copyright notice and this permission notice shall be included in all
  13:..\common\rtos/timers.c ****  * copies or substantial portions of the Software.
  14:..\common\rtos/timers.c ****  *
  15:..\common\rtos/timers.c ****  * THE SOFTWARE IS PROVIDED "AS IS", WITHOUT WARRANTY OF ANY KIND, EXPRESS OR
  16:..\common\rtos/timers.c ****  * IMPLIED, INCLUDING BUT NOT LIMITED TO THE WARRANTIES OF MERCHANTABILITY, FITNESS
  17:..\common\rtos/timers.c ****  * FOR A PARTICULAR PURPOSE AND NONINFRINGEMENT. IN NO EVENT SHALL THE AUTHORS OR
  18:..\common\rtos/timers.c ****  * COPYRIGHT HOLDERS BE LIABLE FOR ANY CLAIM, DAMAGES OR OTHER LIABILITY, WHETHER
  19:..\common\rtos/timers.c ****  * IN AN ACTION OF CONTRACT, TORT OR OTHERWISE, ARISING FROM, OUT OF OR IN
  20:..\common\rtos/timers.c ****  * CONNECTION WITH THE SOFTWARE OR THE USE OR OTHER DEALINGS IN THE SOFTWARE.
  21:..\common\rtos/timers.c ****  *
  22:..\common\rtos/timers.c ****  * https://www.FreeRTOS.org
  23:..\common\rtos/timers.c ****  * https://github.com/FreeRTOS
  24:..\common\rtos/timers.c ****  *
  25:..\common\rtos/timers.c ****  */
  26:..\common\rtos/timers.c **** 
  27:..\common\rtos/timers.c **** /* Standard includes. */
  28:..\common\rtos/timers.c **** #include <stdlib.h>
  29:..\common\rtos/timers.c **** 
  30:..\common\rtos/timers.c **** /* Defining MPU_WRAPPERS_INCLUDED_FROM_API_FILE prevents task.h from redefining
  31:..\common\rtos/timers.c ****  * all the API functions to use the MPU wrappers.  That should only be done when
ARM GAS  C:\Users\chemi\AppData\Local\Temp\ccWFGUfC.s 			page 2


  32:..\common\rtos/timers.c ****  * task.h is included from an application file. */
  33:..\common\rtos/timers.c **** #define MPU_WRAPPERS_INCLUDED_FROM_API_FILE
  34:..\common\rtos/timers.c **** 
  35:..\common\rtos/timers.c **** #include "FreeRTOS.h"
  36:..\common\rtos/timers.c **** #include "task.h"
  37:..\common\rtos/timers.c **** #include "queue.h"
  38:..\common\rtos/timers.c **** #include "timers.h"
  39:..\common\rtos/timers.c **** 
  40:..\common\rtos/timers.c **** #if ( INCLUDE_xTimerPendFunctionCall == 1 ) && ( configUSE_TIMERS == 0 )
  41:..\common\rtos/timers.c ****     #error configUSE_TIMERS must be set to 1 to make the xTimerPendFunctionCall() function availabl
  42:..\common\rtos/timers.c **** #endif
  43:..\common\rtos/timers.c **** 
  44:..\common\rtos/timers.c **** /* Lint e9021, e961 and e750 are suppressed as a MISRA exception justified
  45:..\common\rtos/timers.c ****  * because the MPU ports require MPU_WRAPPERS_INCLUDED_FROM_API_FILE to be defined
  46:..\common\rtos/timers.c ****  * for the header files above, but not in this file, in order to generate the
  47:..\common\rtos/timers.c ****  * correct privileged Vs unprivileged linkage and placement. */
  48:..\common\rtos/timers.c **** #undef MPU_WRAPPERS_INCLUDED_FROM_API_FILE /*lint !e9021 !e961 !e750. */
  49:..\common\rtos/timers.c **** 
  50:..\common\rtos/timers.c **** 
  51:..\common\rtos/timers.c **** /* This entire source file will be skipped if the application is not configured
  52:..\common\rtos/timers.c ****  * to include software timer functionality.  This #if is closed at the very bottom
  53:..\common\rtos/timers.c ****  * of this file.  If you want to include software timer functionality then ensure
  54:..\common\rtos/timers.c ****  * configUSE_TIMERS is set to 1 in FreeRTOSConfig.h. */
  55:..\common\rtos/timers.c **** #if ( configUSE_TIMERS == 1 )
  56:..\common\rtos/timers.c **** 
  57:..\common\rtos/timers.c **** /* Misc definitions. */
  58:..\common\rtos/timers.c ****     #define tmrNO_DELAY    ( TickType_t ) 0U
  59:..\common\rtos/timers.c **** 
  60:..\common\rtos/timers.c **** /* The name assigned to the timer service task.  This can be overridden by
  61:..\common\rtos/timers.c ****  * defining trmTIMER_SERVICE_TASK_NAME in FreeRTOSConfig.h. */
  62:..\common\rtos/timers.c ****     #ifndef configTIMER_SERVICE_TASK_NAME
  63:..\common\rtos/timers.c ****         #define configTIMER_SERVICE_TASK_NAME    "Tmr Svc"
  64:..\common\rtos/timers.c ****     #endif
  65:..\common\rtos/timers.c **** 
  66:..\common\rtos/timers.c **** /* Bit definitions used in the ucStatus member of a timer structure. */
  67:..\common\rtos/timers.c ****     #define tmrSTATUS_IS_ACTIVE                  ( ( uint8_t ) 0x01 )
  68:..\common\rtos/timers.c ****     #define tmrSTATUS_IS_STATICALLY_ALLOCATED    ( ( uint8_t ) 0x02 )
  69:..\common\rtos/timers.c ****     #define tmrSTATUS_IS_AUTORELOAD              ( ( uint8_t ) 0x04 )
  70:..\common\rtos/timers.c **** 
  71:..\common\rtos/timers.c **** /* The definition of the timers themselves. */
  72:..\common\rtos/timers.c ****     typedef struct tmrTimerControl                  /* The old naming convention is used to prevent
  73:..\common\rtos/timers.c ****     {
  74:..\common\rtos/timers.c ****         const char * pcTimerName;                   /*<< Text name.  This is not used by the kernel
  75:..\common\rtos/timers.c ****         ListItem_t xTimerListItem;                  /*<< Standard linked list item as used by all k
  76:..\common\rtos/timers.c ****         TickType_t xTimerPeriodInTicks;             /*<< How quickly and often the timer expires. *
  77:..\common\rtos/timers.c ****         void * pvTimerID;                           /*<< An ID to identify the timer.  This allows 
  78:..\common\rtos/timers.c ****         TimerCallbackFunction_t pxCallbackFunction; /*<< The function that will be called when the 
  79:..\common\rtos/timers.c ****         #if ( configUSE_TRACE_FACILITY == 1 )
  80:..\common\rtos/timers.c ****             UBaseType_t uxTimerNumber;              /*<< An ID assigned by trace tools such as Free
  81:..\common\rtos/timers.c ****         #endif
  82:..\common\rtos/timers.c ****         uint8_t ucStatus;                           /*<< Holds bits to say if the timer was statica
  83:..\common\rtos/timers.c ****     } xTIMER;
  84:..\common\rtos/timers.c **** 
  85:..\common\rtos/timers.c **** /* The old xTIMER name is maintained above then typedefed to the new Timer_t
  86:..\common\rtos/timers.c ****  * name below to enable the use of older kernel aware debuggers. */
  87:..\common\rtos/timers.c ****     typedef xTIMER Timer_t;
  88:..\common\rtos/timers.c **** 
ARM GAS  C:\Users\chemi\AppData\Local\Temp\ccWFGUfC.s 			page 3


  89:..\common\rtos/timers.c **** /* The definition of messages that can be sent and received on the timer queue.
  90:..\common\rtos/timers.c ****  * Two types of message can be queued - messages that manipulate a software timer,
  91:..\common\rtos/timers.c ****  * and messages that request the execution of a non-timer related callback.  The
  92:..\common\rtos/timers.c ****  * two message types are defined in two separate structures, xTimerParametersType
  93:..\common\rtos/timers.c ****  * and xCallbackParametersType respectively. */
  94:..\common\rtos/timers.c ****     typedef struct tmrTimerParameters
  95:..\common\rtos/timers.c ****     {
  96:..\common\rtos/timers.c ****         TickType_t xMessageValue; /*<< An optional value used by a subset of commands, for example,
  97:..\common\rtos/timers.c ****         Timer_t * pxTimer;        /*<< The timer to which the command will be applied. */
  98:..\common\rtos/timers.c ****     } TimerParameter_t;
  99:..\common\rtos/timers.c **** 
 100:..\common\rtos/timers.c **** 
 101:..\common\rtos/timers.c ****     typedef struct tmrCallbackParameters
 102:..\common\rtos/timers.c ****     {
 103:..\common\rtos/timers.c ****         PendedFunction_t pxCallbackFunction; /* << The callback function to execute. */
 104:..\common\rtos/timers.c ****         void * pvParameter1;                 /* << The value that will be used as the callback func
 105:..\common\rtos/timers.c ****         uint32_t ulParameter2;               /* << The value that will be used as the callback func
 106:..\common\rtos/timers.c ****     } CallbackParameters_t;
 107:..\common\rtos/timers.c **** 
 108:..\common\rtos/timers.c **** /* The structure that contains the two message types, along with an identifier
 109:..\common\rtos/timers.c ****  * that is used to determine which message type is valid. */
 110:..\common\rtos/timers.c ****     typedef struct tmrTimerQueueMessage
 111:..\common\rtos/timers.c ****     {
 112:..\common\rtos/timers.c ****         BaseType_t xMessageID; /*<< The command being sent to the timer service task. */
 113:..\common\rtos/timers.c ****         union
 114:..\common\rtos/timers.c ****         {
 115:..\common\rtos/timers.c ****             TimerParameter_t xTimerParameters;
 116:..\common\rtos/timers.c **** 
 117:..\common\rtos/timers.c ****             /* Don't include xCallbackParameters if it is not going to be used as
 118:..\common\rtos/timers.c ****              * it makes the structure (and therefore the timer queue) larger. */
 119:..\common\rtos/timers.c ****             #if ( INCLUDE_xTimerPendFunctionCall == 1 )
 120:..\common\rtos/timers.c ****                 CallbackParameters_t xCallbackParameters;
 121:..\common\rtos/timers.c ****             #endif /* INCLUDE_xTimerPendFunctionCall */
 122:..\common\rtos/timers.c ****         } u;
 123:..\common\rtos/timers.c ****     } DaemonTaskMessage_t;
 124:..\common\rtos/timers.c **** 
 125:..\common\rtos/timers.c **** /*lint -save -e956 A manual analysis and inspection has been used to determine
 126:..\common\rtos/timers.c ****  * which static variables must be declared volatile. */
 127:..\common\rtos/timers.c **** 
 128:..\common\rtos/timers.c **** /* The list in which active timers are stored.  Timers are referenced in expire
 129:..\common\rtos/timers.c ****  * time order, with the nearest expiry time at the front of the list.  Only the
 130:..\common\rtos/timers.c ****  * timer service task is allowed to access these lists.
 131:..\common\rtos/timers.c ****  * xActiveTimerList1 and xActiveTimerList2 could be at function scope but that
 132:..\common\rtos/timers.c ****  * breaks some kernel aware debuggers, and debuggers that reply on removing the
 133:..\common\rtos/timers.c ****  * static qualifier. */
 134:..\common\rtos/timers.c ****     PRIVILEGED_DATA static List_t xActiveTimerList1;
 135:..\common\rtos/timers.c ****     PRIVILEGED_DATA static List_t xActiveTimerList2;
 136:..\common\rtos/timers.c ****     PRIVILEGED_DATA static List_t * pxCurrentTimerList;
 137:..\common\rtos/timers.c ****     PRIVILEGED_DATA static List_t * pxOverflowTimerList;
 138:..\common\rtos/timers.c **** 
 139:..\common\rtos/timers.c **** /* A queue that is used to send commands to the timer service task. */
 140:..\common\rtos/timers.c ****     PRIVILEGED_DATA static QueueHandle_t xTimerQueue = NULL;
 141:..\common\rtos/timers.c ****     PRIVILEGED_DATA static TaskHandle_t xTimerTaskHandle = NULL;
 142:..\common\rtos/timers.c **** 
 143:..\common\rtos/timers.c **** /*lint -restore */
 144:..\common\rtos/timers.c **** 
 145:..\common\rtos/timers.c **** /*-----------------------------------------------------------*/
ARM GAS  C:\Users\chemi\AppData\Local\Temp\ccWFGUfC.s 			page 4


 146:..\common\rtos/timers.c **** 
 147:..\common\rtos/timers.c **** /*
 148:..\common\rtos/timers.c ****  * Initialise the infrastructure used by the timer service task if it has not
 149:..\common\rtos/timers.c ****  * been initialised already.
 150:..\common\rtos/timers.c ****  */
 151:..\common\rtos/timers.c ****     static void prvCheckForValidListAndQueue( void ) PRIVILEGED_FUNCTION;
 152:..\common\rtos/timers.c **** 
 153:..\common\rtos/timers.c **** /*
 154:..\common\rtos/timers.c ****  * The timer service task (daemon).  Timer functionality is controlled by this
 155:..\common\rtos/timers.c ****  * task.  Other tasks communicate with the timer service task using the
 156:..\common\rtos/timers.c ****  * xTimerQueue queue.
 157:..\common\rtos/timers.c ****  */
 158:..\common\rtos/timers.c ****     static portTASK_FUNCTION_PROTO( prvTimerTask, pvParameters ) PRIVILEGED_FUNCTION;
 159:..\common\rtos/timers.c **** 
 160:..\common\rtos/timers.c **** /*
 161:..\common\rtos/timers.c ****  * Called by the timer service task to interpret and process a command it
 162:..\common\rtos/timers.c ****  * received on the timer queue.
 163:..\common\rtos/timers.c ****  */
 164:..\common\rtos/timers.c ****     static void prvProcessReceivedCommands( void ) PRIVILEGED_FUNCTION;
 165:..\common\rtos/timers.c **** 
 166:..\common\rtos/timers.c **** /*
 167:..\common\rtos/timers.c ****  * Insert the timer into either xActiveTimerList1, or xActiveTimerList2,
 168:..\common\rtos/timers.c ****  * depending on if the expire time causes a timer counter overflow.
 169:..\common\rtos/timers.c ****  */
 170:..\common\rtos/timers.c ****     static BaseType_t prvInsertTimerInActiveList( Timer_t * const pxTimer,
 171:..\common\rtos/timers.c ****                                                   const TickType_t xNextExpiryTime,
 172:..\common\rtos/timers.c ****                                                   const TickType_t xTimeNow,
 173:..\common\rtos/timers.c ****                                                   const TickType_t xCommandTime ) PRIVILEGED_FUNCTI
 174:..\common\rtos/timers.c **** 
 175:..\common\rtos/timers.c **** /*
 176:..\common\rtos/timers.c ****  * An active timer has reached its expire time.  Reload the timer if it is an
 177:..\common\rtos/timers.c ****  * auto-reload timer, then call its callback.
 178:..\common\rtos/timers.c ****  */
 179:..\common\rtos/timers.c ****     static void prvProcessExpiredTimer( const TickType_t xNextExpireTime,
 180:..\common\rtos/timers.c ****                                         const TickType_t xTimeNow ) PRIVILEGED_FUNCTION;
 181:..\common\rtos/timers.c **** 
 182:..\common\rtos/timers.c **** /*
 183:..\common\rtos/timers.c ****  * The tick count has overflowed.  Switch the timer lists after ensuring the
 184:..\common\rtos/timers.c ****  * current timer list does not still reference some timers.
 185:..\common\rtos/timers.c ****  */
 186:..\common\rtos/timers.c ****     static void prvSwitchTimerLists( void ) PRIVILEGED_FUNCTION;
 187:..\common\rtos/timers.c **** 
 188:..\common\rtos/timers.c **** /*
 189:..\common\rtos/timers.c ****  * Obtain the current tick count, setting *pxTimerListsWereSwitched to pdTRUE
 190:..\common\rtos/timers.c ****  * if a tick count overflow occurred since prvSampleTimeNow() was last called.
 191:..\common\rtos/timers.c ****  */
 192:..\common\rtos/timers.c ****     static TickType_t prvSampleTimeNow( BaseType_t * const pxTimerListsWereSwitched ) PRIVILEGED_FU
 193:..\common\rtos/timers.c **** 
 194:..\common\rtos/timers.c **** /*
 195:..\common\rtos/timers.c ****  * If the timer list contains any active timers then return the expire time of
 196:..\common\rtos/timers.c ****  * the timer that will expire first and set *pxListWasEmpty to false.  If the
 197:..\common\rtos/timers.c ****  * timer list does not contain any timers then return 0 and set *pxListWasEmpty
 198:..\common\rtos/timers.c ****  * to pdTRUE.
 199:..\common\rtos/timers.c ****  */
 200:..\common\rtos/timers.c ****     static TickType_t prvGetNextExpireTime( BaseType_t * const pxListWasEmpty ) PRIVILEGED_FUNCTION
 201:..\common\rtos/timers.c **** 
 202:..\common\rtos/timers.c **** /*
ARM GAS  C:\Users\chemi\AppData\Local\Temp\ccWFGUfC.s 			page 5


 203:..\common\rtos/timers.c ****  * If a timer has expired, process it.  Otherwise, block the timer service task
 204:..\common\rtos/timers.c ****  * until either a timer does expire or a command is received.
 205:..\common\rtos/timers.c ****  */
 206:..\common\rtos/timers.c ****     static void prvProcessTimerOrBlockTask( const TickType_t xNextExpireTime,
 207:..\common\rtos/timers.c ****                                             BaseType_t xListWasEmpty ) PRIVILEGED_FUNCTION;
 208:..\common\rtos/timers.c **** 
 209:..\common\rtos/timers.c **** /*
 210:..\common\rtos/timers.c ****  * Called after a Timer_t structure has been allocated either statically or
 211:..\common\rtos/timers.c ****  * dynamically to fill in the structure's members.
 212:..\common\rtos/timers.c ****  */
 213:..\common\rtos/timers.c ****     static void prvInitialiseNewTimer( const char * const pcTimerName, /*lint !e971 Unqualified cha
 214:..\common\rtos/timers.c ****                                        const TickType_t xTimerPeriodInTicks,
 215:..\common\rtos/timers.c ****                                        const UBaseType_t uxAutoReload,
 216:..\common\rtos/timers.c ****                                        void * const pvTimerID,
 217:..\common\rtos/timers.c ****                                        TimerCallbackFunction_t pxCallbackFunction,
 218:..\common\rtos/timers.c ****                                        Timer_t * pxNewTimer ) PRIVILEGED_FUNCTION;
 219:..\common\rtos/timers.c **** /*-----------------------------------------------------------*/
 220:..\common\rtos/timers.c **** 
 221:..\common\rtos/timers.c ****     BaseType_t xTimerCreateTimerTask( void )
 222:..\common\rtos/timers.c ****     {
 223:..\common\rtos/timers.c ****         BaseType_t xReturn = pdFAIL;
 224:..\common\rtos/timers.c **** 
 225:..\common\rtos/timers.c ****         /* This function is called when the scheduler is started if
 226:..\common\rtos/timers.c ****          * configUSE_TIMERS is set to 1.  Check that the infrastructure used by the
 227:..\common\rtos/timers.c ****          * timer service task has been created/initialised.  If timers have already
 228:..\common\rtos/timers.c ****          * been created then the initialisation will already have been performed. */
 229:..\common\rtos/timers.c ****         prvCheckForValidListAndQueue();
 230:..\common\rtos/timers.c **** 
 231:..\common\rtos/timers.c ****         if( xTimerQueue != NULL )
 232:..\common\rtos/timers.c ****         {
 233:..\common\rtos/timers.c ****             #if ( configSUPPORT_STATIC_ALLOCATION == 1 )
 234:..\common\rtos/timers.c ****                 {
 235:..\common\rtos/timers.c ****                     StaticTask_t * pxTimerTaskTCBBuffer = NULL;
 236:..\common\rtos/timers.c ****                     StackType_t * pxTimerTaskStackBuffer = NULL;
 237:..\common\rtos/timers.c ****                     uint32_t ulTimerTaskStackSize;
 238:..\common\rtos/timers.c **** 
 239:..\common\rtos/timers.c ****                     vApplicationGetTimerTaskMemory( &pxTimerTaskTCBBuffer, &pxTimerTaskStackBuffer,
 240:..\common\rtos/timers.c ****                     xTimerTaskHandle = xTaskCreateStatic( prvTimerTask,
 241:..\common\rtos/timers.c ****                                                           configTIMER_SERVICE_TASK_NAME,
 242:..\common\rtos/timers.c ****                                                           ulTimerTaskStackSize,
 243:..\common\rtos/timers.c ****                                                           NULL,
 244:..\common\rtos/timers.c ****                                                           ( ( UBaseType_t ) configTIMER_TASK_PRIORI
 245:..\common\rtos/timers.c ****                                                           pxTimerTaskStackBuffer,
 246:..\common\rtos/timers.c ****                                                           pxTimerTaskTCBBuffer );
 247:..\common\rtos/timers.c **** 
 248:..\common\rtos/timers.c ****                     if( xTimerTaskHandle != NULL )
 249:..\common\rtos/timers.c ****                     {
 250:..\common\rtos/timers.c ****                         xReturn = pdPASS;
 251:..\common\rtos/timers.c ****                     }
 252:..\common\rtos/timers.c ****                 }
 253:..\common\rtos/timers.c ****             #else /* if ( configSUPPORT_STATIC_ALLOCATION == 1 ) */
 254:..\common\rtos/timers.c ****                 {
 255:..\common\rtos/timers.c ****                     xReturn = xTaskCreate( prvTimerTask,
 256:..\common\rtos/timers.c ****                                            configTIMER_SERVICE_TASK_NAME,
 257:..\common\rtos/timers.c ****                                            configTIMER_TASK_STACK_DEPTH,
 258:..\common\rtos/timers.c ****                                            NULL,
 259:..\common\rtos/timers.c ****                                            ( ( UBaseType_t ) configTIMER_TASK_PRIORITY ) | portPRIV
ARM GAS  C:\Users\chemi\AppData\Local\Temp\ccWFGUfC.s 			page 6


 260:..\common\rtos/timers.c ****                                            &xTimerTaskHandle );
 261:..\common\rtos/timers.c ****                 }
 262:..\common\rtos/timers.c ****             #endif /* configSUPPORT_STATIC_ALLOCATION */
 263:..\common\rtos/timers.c ****         }
 264:..\common\rtos/timers.c ****         else
 265:..\common\rtos/timers.c ****         {
 266:..\common\rtos/timers.c ****             mtCOVERAGE_TEST_MARKER();
 267:..\common\rtos/timers.c ****         }
 268:..\common\rtos/timers.c **** 
 269:..\common\rtos/timers.c ****         configASSERT( xReturn );
 270:..\common\rtos/timers.c ****         return xReturn;
 271:..\common\rtos/timers.c ****     }
 272:..\common\rtos/timers.c **** /*-----------------------------------------------------------*/
 273:..\common\rtos/timers.c **** 
 274:..\common\rtos/timers.c ****     #if ( configSUPPORT_DYNAMIC_ALLOCATION == 1 )
 275:..\common\rtos/timers.c **** 
 276:..\common\rtos/timers.c ****         TimerHandle_t xTimerCreate( const char * const pcTimerName, /*lint !e971 Unqualified char t
 277:..\common\rtos/timers.c ****                                     const TickType_t xTimerPeriodInTicks,
 278:..\common\rtos/timers.c ****                                     const UBaseType_t uxAutoReload,
 279:..\common\rtos/timers.c ****                                     void * const pvTimerID,
 280:..\common\rtos/timers.c ****                                     TimerCallbackFunction_t pxCallbackFunction )
 281:..\common\rtos/timers.c ****         {
 282:..\common\rtos/timers.c ****             Timer_t * pxNewTimer;
 283:..\common\rtos/timers.c **** 
 284:..\common\rtos/timers.c ****             pxNewTimer = ( Timer_t * ) pvPortMalloc( sizeof( Timer_t ) ); /*lint !e9087 !e9079 All 
 285:..\common\rtos/timers.c **** 
 286:..\common\rtos/timers.c ****             if( pxNewTimer != NULL )
 287:..\common\rtos/timers.c ****             {
 288:..\common\rtos/timers.c ****                 /* Status is thus far zero as the timer is not created statically
 289:..\common\rtos/timers.c ****                  * and has not been started.  The auto-reload bit may get set in
 290:..\common\rtos/timers.c ****                  * prvInitialiseNewTimer. */
 291:..\common\rtos/timers.c ****                 pxNewTimer->ucStatus = 0x00;
 292:..\common\rtos/timers.c ****                 prvInitialiseNewTimer( pcTimerName, xTimerPeriodInTicks, uxAutoReload, pvTimerID, p
 293:..\common\rtos/timers.c ****             }
 294:..\common\rtos/timers.c **** 
 295:..\common\rtos/timers.c ****             return pxNewTimer;
 296:..\common\rtos/timers.c ****         }
 297:..\common\rtos/timers.c **** 
 298:..\common\rtos/timers.c ****     #endif /* configSUPPORT_DYNAMIC_ALLOCATION */
 299:..\common\rtos/timers.c **** /*-----------------------------------------------------------*/
 300:..\common\rtos/timers.c **** 
 301:..\common\rtos/timers.c ****     #if ( configSUPPORT_STATIC_ALLOCATION == 1 )
 302:..\common\rtos/timers.c **** 
 303:..\common\rtos/timers.c ****         TimerHandle_t xTimerCreateStatic( const char * const pcTimerName, /*lint !e971 Unqualified 
 304:..\common\rtos/timers.c ****                                           const TickType_t xTimerPeriodInTicks,
 305:..\common\rtos/timers.c ****                                           const UBaseType_t uxAutoReload,
 306:..\common\rtos/timers.c ****                                           void * const pvTimerID,
 307:..\common\rtos/timers.c ****                                           TimerCallbackFunction_t pxCallbackFunction,
 308:..\common\rtos/timers.c ****                                           StaticTimer_t * pxTimerBuffer )
 309:..\common\rtos/timers.c ****         {
 310:..\common\rtos/timers.c ****             Timer_t * pxNewTimer;
 311:..\common\rtos/timers.c **** 
 312:..\common\rtos/timers.c ****             #if ( configASSERT_DEFINED == 1 )
 313:..\common\rtos/timers.c ****                 {
 314:..\common\rtos/timers.c ****                     /* Sanity check that the size of the structure used to declare a
 315:..\common\rtos/timers.c ****                      * variable of type StaticTimer_t equals the size of the real timer
 316:..\common\rtos/timers.c ****                      * structure. */
ARM GAS  C:\Users\chemi\AppData\Local\Temp\ccWFGUfC.s 			page 7


 317:..\common\rtos/timers.c ****                     volatile size_t xSize = sizeof( StaticTimer_t );
 318:..\common\rtos/timers.c ****                     configASSERT( xSize == sizeof( Timer_t ) );
 319:..\common\rtos/timers.c ****                     ( void ) xSize; /* Keeps lint quiet when configASSERT() is not defined. */
 320:..\common\rtos/timers.c ****                 }
 321:..\common\rtos/timers.c ****             #endif /* configASSERT_DEFINED */
 322:..\common\rtos/timers.c **** 
 323:..\common\rtos/timers.c ****             /* A pointer to a StaticTimer_t structure MUST be provided, use it. */
 324:..\common\rtos/timers.c ****             configASSERT( pxTimerBuffer );
 325:..\common\rtos/timers.c ****             pxNewTimer = ( Timer_t * ) pxTimerBuffer; /*lint !e740 !e9087 StaticTimer_t is a pointe
 326:..\common\rtos/timers.c **** 
 327:..\common\rtos/timers.c ****             if( pxNewTimer != NULL )
 328:..\common\rtos/timers.c ****             {
 329:..\common\rtos/timers.c ****                 /* Timers can be created statically or dynamically so note this
 330:..\common\rtos/timers.c ****                  * timer was created statically in case it is later deleted.  The
 331:..\common\rtos/timers.c ****                  * auto-reload bit may get set in prvInitialiseNewTimer(). */
 332:..\common\rtos/timers.c ****                 pxNewTimer->ucStatus = tmrSTATUS_IS_STATICALLY_ALLOCATED;
 333:..\common\rtos/timers.c **** 
 334:..\common\rtos/timers.c ****                 prvInitialiseNewTimer( pcTimerName, xTimerPeriodInTicks, uxAutoReload, pvTimerID, p
 335:..\common\rtos/timers.c ****             }
 336:..\common\rtos/timers.c **** 
 337:..\common\rtos/timers.c ****             return pxNewTimer;
 338:..\common\rtos/timers.c ****         }
 339:..\common\rtos/timers.c **** 
 340:..\common\rtos/timers.c ****     #endif /* configSUPPORT_STATIC_ALLOCATION */
 341:..\common\rtos/timers.c **** /*-----------------------------------------------------------*/
 342:..\common\rtos/timers.c **** 
 343:..\common\rtos/timers.c ****     static void prvInitialiseNewTimer( const char * const pcTimerName, /*lint !e971 Unqualified cha
 344:..\common\rtos/timers.c ****                                        const TickType_t xTimerPeriodInTicks,
 345:..\common\rtos/timers.c ****                                        const UBaseType_t uxAutoReload,
 346:..\common\rtos/timers.c ****                                        void * const pvTimerID,
 347:..\common\rtos/timers.c ****                                        TimerCallbackFunction_t pxCallbackFunction,
 348:..\common\rtos/timers.c ****                                        Timer_t * pxNewTimer )
 349:..\common\rtos/timers.c ****     {
 350:..\common\rtos/timers.c ****         /* 0 is not a valid value for xTimerPeriodInTicks. */
 351:..\common\rtos/timers.c ****         configASSERT( ( xTimerPeriodInTicks > 0 ) );
 352:..\common\rtos/timers.c **** 
 353:..\common\rtos/timers.c ****         if( pxNewTimer != NULL )
 354:..\common\rtos/timers.c ****         {
 355:..\common\rtos/timers.c ****             /* Ensure the infrastructure used by the timer service task has been
 356:..\common\rtos/timers.c ****              * created/initialised. */
 357:..\common\rtos/timers.c ****             prvCheckForValidListAndQueue();
 358:..\common\rtos/timers.c **** 
 359:..\common\rtos/timers.c ****             /* Initialise the timer structure members using the function
 360:..\common\rtos/timers.c ****              * parameters. */
 361:..\common\rtos/timers.c ****             pxNewTimer->pcTimerName = pcTimerName;
 362:..\common\rtos/timers.c ****             pxNewTimer->xTimerPeriodInTicks = xTimerPeriodInTicks;
 363:..\common\rtos/timers.c ****             pxNewTimer->pvTimerID = pvTimerID;
 364:..\common\rtos/timers.c ****             pxNewTimer->pxCallbackFunction = pxCallbackFunction;
 365:..\common\rtos/timers.c ****             vListInitialiseItem( &( pxNewTimer->xTimerListItem ) );
 366:..\common\rtos/timers.c **** 
 367:..\common\rtos/timers.c ****             if( uxAutoReload != pdFALSE )
 368:..\common\rtos/timers.c ****             {
 369:..\common\rtos/timers.c ****                 pxNewTimer->ucStatus |= tmrSTATUS_IS_AUTORELOAD;
 370:..\common\rtos/timers.c ****             }
 371:..\common\rtos/timers.c **** 
 372:..\common\rtos/timers.c ****             traceTIMER_CREATE( pxNewTimer );
 373:..\common\rtos/timers.c ****         }
ARM GAS  C:\Users\chemi\AppData\Local\Temp\ccWFGUfC.s 			page 8


 374:..\common\rtos/timers.c ****     }
 375:..\common\rtos/timers.c **** /*-----------------------------------------------------------*/
 376:..\common\rtos/timers.c **** 
 377:..\common\rtos/timers.c ****     BaseType_t xTimerGenericCommand( TimerHandle_t xTimer,
 378:..\common\rtos/timers.c ****                                      const BaseType_t xCommandID,
 379:..\common\rtos/timers.c ****                                      const TickType_t xOptionalValue,
 380:..\common\rtos/timers.c ****                                      BaseType_t * const pxHigherPriorityTaskWoken,
 381:..\common\rtos/timers.c ****                                      const TickType_t xTicksToWait )
 382:..\common\rtos/timers.c ****     {
 383:..\common\rtos/timers.c ****         BaseType_t xReturn = pdFAIL;
 384:..\common\rtos/timers.c ****         DaemonTaskMessage_t xMessage;
 385:..\common\rtos/timers.c **** 
 386:..\common\rtos/timers.c ****         configASSERT( xTimer );
 387:..\common\rtos/timers.c **** 
 388:..\common\rtos/timers.c ****         /* Send a message to the timer service task to perform a particular action
 389:..\common\rtos/timers.c ****          * on a particular timer definition. */
 390:..\common\rtos/timers.c ****         if( xTimerQueue != NULL )
 391:..\common\rtos/timers.c ****         {
 392:..\common\rtos/timers.c ****             /* Send a command to the timer service task to start the xTimer timer. */
 393:..\common\rtos/timers.c ****             xMessage.xMessageID = xCommandID;
 394:..\common\rtos/timers.c ****             xMessage.u.xTimerParameters.xMessageValue = xOptionalValue;
 395:..\common\rtos/timers.c ****             xMessage.u.xTimerParameters.pxTimer = xTimer;
 396:..\common\rtos/timers.c **** 
 397:..\common\rtos/timers.c ****             if( xCommandID < tmrFIRST_FROM_ISR_COMMAND )
 398:..\common\rtos/timers.c ****             {
 399:..\common\rtos/timers.c ****                 if( xTaskGetSchedulerState() == taskSCHEDULER_RUNNING )
 400:..\common\rtos/timers.c ****                 {
 401:..\common\rtos/timers.c ****                     xReturn = xQueueSendToBack( xTimerQueue, &xMessage, xTicksToWait );
 402:..\common\rtos/timers.c ****                 }
 403:..\common\rtos/timers.c ****                 else
 404:..\common\rtos/timers.c ****                 {
 405:..\common\rtos/timers.c ****                     xReturn = xQueueSendToBack( xTimerQueue, &xMessage, tmrNO_DELAY );
 406:..\common\rtos/timers.c ****                 }
 407:..\common\rtos/timers.c ****             }
 408:..\common\rtos/timers.c ****             else
 409:..\common\rtos/timers.c ****             {
 410:..\common\rtos/timers.c ****                 xReturn = xQueueSendToBackFromISR( xTimerQueue, &xMessage, pxHigherPriorityTaskWoke
 411:..\common\rtos/timers.c ****             }
 412:..\common\rtos/timers.c **** 
 413:..\common\rtos/timers.c ****             traceTIMER_COMMAND_SEND( xTimer, xCommandID, xOptionalValue, xReturn );
 414:..\common\rtos/timers.c ****         }
 415:..\common\rtos/timers.c ****         else
 416:..\common\rtos/timers.c ****         {
 417:..\common\rtos/timers.c ****             mtCOVERAGE_TEST_MARKER();
 418:..\common\rtos/timers.c ****         }
 419:..\common\rtos/timers.c **** 
 420:..\common\rtos/timers.c ****         return xReturn;
 421:..\common\rtos/timers.c ****     }
 422:..\common\rtos/timers.c **** /*-----------------------------------------------------------*/
 423:..\common\rtos/timers.c **** 
 424:..\common\rtos/timers.c ****     TaskHandle_t xTimerGetTimerDaemonTaskHandle( void )
 425:..\common\rtos/timers.c ****     {
 426:..\common\rtos/timers.c ****         /* If xTimerGetTimerDaemonTaskHandle() is called before the scheduler has been
 427:..\common\rtos/timers.c ****          * started, then xTimerTaskHandle will be NULL. */
 428:..\common\rtos/timers.c ****         configASSERT( ( xTimerTaskHandle != NULL ) );
 429:..\common\rtos/timers.c ****         return xTimerTaskHandle;
 430:..\common\rtos/timers.c ****     }
ARM GAS  C:\Users\chemi\AppData\Local\Temp\ccWFGUfC.s 			page 9


 431:..\common\rtos/timers.c **** /*-----------------------------------------------------------*/
 432:..\common\rtos/timers.c **** 
 433:..\common\rtos/timers.c ****     TickType_t xTimerGetPeriod( TimerHandle_t xTimer )
 434:..\common\rtos/timers.c ****     {
 435:..\common\rtos/timers.c ****         Timer_t * pxTimer = xTimer;
 436:..\common\rtos/timers.c **** 
 437:..\common\rtos/timers.c ****         configASSERT( xTimer );
 438:..\common\rtos/timers.c ****         return pxTimer->xTimerPeriodInTicks;
 439:..\common\rtos/timers.c ****     }
 440:..\common\rtos/timers.c **** /*-----------------------------------------------------------*/
 441:..\common\rtos/timers.c **** 
 442:..\common\rtos/timers.c ****     void vTimerSetReloadMode( TimerHandle_t xTimer,
 443:..\common\rtos/timers.c ****                               const UBaseType_t uxAutoReload )
 444:..\common\rtos/timers.c ****     {
 445:..\common\rtos/timers.c ****         Timer_t * pxTimer = xTimer;
 446:..\common\rtos/timers.c **** 
 447:..\common\rtos/timers.c ****         configASSERT( xTimer );
 448:..\common\rtos/timers.c ****         taskENTER_CRITICAL();
 449:..\common\rtos/timers.c ****         {
 450:..\common\rtos/timers.c ****             if( uxAutoReload != pdFALSE )
 451:..\common\rtos/timers.c ****             {
 452:..\common\rtos/timers.c ****                 pxTimer->ucStatus |= tmrSTATUS_IS_AUTORELOAD;
 453:..\common\rtos/timers.c ****             }
 454:..\common\rtos/timers.c ****             else
 455:..\common\rtos/timers.c ****             {
 456:..\common\rtos/timers.c ****                 pxTimer->ucStatus &= ~tmrSTATUS_IS_AUTORELOAD;
 457:..\common\rtos/timers.c ****             }
 458:..\common\rtos/timers.c ****         }
 459:..\common\rtos/timers.c ****         taskEXIT_CRITICAL();
 460:..\common\rtos/timers.c ****     }
 461:..\common\rtos/timers.c **** /*-----------------------------------------------------------*/
 462:..\common\rtos/timers.c **** 
 463:..\common\rtos/timers.c ****     UBaseType_t uxTimerGetReloadMode( TimerHandle_t xTimer )
 464:..\common\rtos/timers.c ****     {
 465:..\common\rtos/timers.c ****         Timer_t * pxTimer = xTimer;
 466:..\common\rtos/timers.c ****         UBaseType_t uxReturn;
 467:..\common\rtos/timers.c **** 
 468:..\common\rtos/timers.c ****         configASSERT( xTimer );
 469:..\common\rtos/timers.c ****         taskENTER_CRITICAL();
 470:..\common\rtos/timers.c ****         {
 471:..\common\rtos/timers.c ****             if( ( pxTimer->ucStatus & tmrSTATUS_IS_AUTORELOAD ) == 0 )
 472:..\common\rtos/timers.c ****             {
 473:..\common\rtos/timers.c ****                 /* Not an auto-reload timer. */
 474:..\common\rtos/timers.c ****                 uxReturn = ( UBaseType_t ) pdFALSE;
 475:..\common\rtos/timers.c ****             }
 476:..\common\rtos/timers.c ****             else
 477:..\common\rtos/timers.c ****             {
 478:..\common\rtos/timers.c ****                 /* Is an auto-reload timer. */
 479:..\common\rtos/timers.c ****                 uxReturn = ( UBaseType_t ) pdTRUE;
 480:..\common\rtos/timers.c ****             }
 481:..\common\rtos/timers.c ****         }
 482:..\common\rtos/timers.c ****         taskEXIT_CRITICAL();
 483:..\common\rtos/timers.c **** 
 484:..\common\rtos/timers.c ****         return uxReturn;
 485:..\common\rtos/timers.c ****     }
 486:..\common\rtos/timers.c **** /*-----------------------------------------------------------*/
 487:..\common\rtos/timers.c **** 
ARM GAS  C:\Users\chemi\AppData\Local\Temp\ccWFGUfC.s 			page 10


 488:..\common\rtos/timers.c ****     TickType_t xTimerGetExpiryTime( TimerHandle_t xTimer )
 489:..\common\rtos/timers.c ****     {
 490:..\common\rtos/timers.c ****         Timer_t * pxTimer = xTimer;
 491:..\common\rtos/timers.c ****         TickType_t xReturn;
 492:..\common\rtos/timers.c **** 
 493:..\common\rtos/timers.c ****         configASSERT( xTimer );
 494:..\common\rtos/timers.c ****         xReturn = listGET_LIST_ITEM_VALUE( &( pxTimer->xTimerListItem ) );
 495:..\common\rtos/timers.c ****         return xReturn;
 496:..\common\rtos/timers.c ****     }
 497:..\common\rtos/timers.c **** /*-----------------------------------------------------------*/
 498:..\common\rtos/timers.c **** 
 499:..\common\rtos/timers.c ****     const char * pcTimerGetName( TimerHandle_t xTimer ) /*lint !e971 Unqualified char types are all
 500:..\common\rtos/timers.c ****     {
 501:..\common\rtos/timers.c ****         Timer_t * pxTimer = xTimer;
 502:..\common\rtos/timers.c **** 
 503:..\common\rtos/timers.c ****         configASSERT( xTimer );
 504:..\common\rtos/timers.c ****         return pxTimer->pcTimerName;
 505:..\common\rtos/timers.c ****     }
 506:..\common\rtos/timers.c **** /*-----------------------------------------------------------*/
 507:..\common\rtos/timers.c **** 
 508:..\common\rtos/timers.c ****     static void prvProcessExpiredTimer( const TickType_t xNextExpireTime,
 509:..\common\rtos/timers.c ****                                         const TickType_t xTimeNow )
 510:..\common\rtos/timers.c ****     {
 511:..\common\rtos/timers.c ****         BaseType_t xResult;
 512:..\common\rtos/timers.c ****         Timer_t * const pxTimer = ( Timer_t * ) listGET_OWNER_OF_HEAD_ENTRY( pxCurrentTimerList ); 
 513:..\common\rtos/timers.c **** 
 514:..\common\rtos/timers.c ****         /* Remove the timer from the list of active timers.  A check has already
 515:..\common\rtos/timers.c ****          * been performed to ensure the list is not empty. */
 516:..\common\rtos/timers.c **** 
 517:..\common\rtos/timers.c ****         ( void ) uxListRemove( &( pxTimer->xTimerListItem ) );
 518:..\common\rtos/timers.c ****         traceTIMER_EXPIRED( pxTimer );
 519:..\common\rtos/timers.c **** 
 520:..\common\rtos/timers.c ****         /* If the timer is an auto-reload timer then calculate the next
 521:..\common\rtos/timers.c ****          * expiry time and re-insert the timer in the list of active timers. */
 522:..\common\rtos/timers.c ****         if( ( pxTimer->ucStatus & tmrSTATUS_IS_AUTORELOAD ) != 0 )
 523:..\common\rtos/timers.c ****         {
 524:..\common\rtos/timers.c ****             /* The timer is inserted into a list using a time relative to anything
 525:..\common\rtos/timers.c ****              * other than the current time.  It will therefore be inserted into the
 526:..\common\rtos/timers.c ****              * correct list relative to the time this task thinks it is now. */
 527:..\common\rtos/timers.c ****             if( prvInsertTimerInActiveList( pxTimer, ( xNextExpireTime + pxTimer->xTimerPeriodInTic
 528:..\common\rtos/timers.c ****             {
 529:..\common\rtos/timers.c ****                 /* The timer expired before it was added to the active timer
 530:..\common\rtos/timers.c ****                  * list.  Reload it now.  */
 531:..\common\rtos/timers.c ****                 xResult = xTimerGenericCommand( pxTimer, tmrCOMMAND_START_DONT_TRACE, xNextExpireTi
 532:..\common\rtos/timers.c ****                 configASSERT( xResult );
 533:..\common\rtos/timers.c ****                 ( void ) xResult;
 534:..\common\rtos/timers.c ****             }
 535:..\common\rtos/timers.c ****             else
 536:..\common\rtos/timers.c ****             {
 537:..\common\rtos/timers.c ****                 mtCOVERAGE_TEST_MARKER();
 538:..\common\rtos/timers.c ****             }
 539:..\common\rtos/timers.c ****         }
 540:..\common\rtos/timers.c ****         else
 541:..\common\rtos/timers.c ****         {
 542:..\common\rtos/timers.c ****             pxTimer->ucStatus &= ~tmrSTATUS_IS_ACTIVE;
 543:..\common\rtos/timers.c ****             mtCOVERAGE_TEST_MARKER();
 544:..\common\rtos/timers.c ****         }
ARM GAS  C:\Users\chemi\AppData\Local\Temp\ccWFGUfC.s 			page 11


 545:..\common\rtos/timers.c **** 
 546:..\common\rtos/timers.c ****         /* Call the timer callback. */
 547:..\common\rtos/timers.c ****         pxTimer->pxCallbackFunction( ( TimerHandle_t ) pxTimer );
 548:..\common\rtos/timers.c ****     }
 549:..\common\rtos/timers.c **** /*-----------------------------------------------------------*/
 550:..\common\rtos/timers.c **** 
 551:..\common\rtos/timers.c ****     static portTASK_FUNCTION( prvTimerTask, pvParameters )
 552:..\common\rtos/timers.c ****     {
 553:..\common\rtos/timers.c ****         TickType_t xNextExpireTime;
 554:..\common\rtos/timers.c ****         BaseType_t xListWasEmpty;
 555:..\common\rtos/timers.c **** 
 556:..\common\rtos/timers.c ****         /* Just to avoid compiler warnings. */
 557:..\common\rtos/timers.c ****         ( void ) pvParameters;
 558:..\common\rtos/timers.c **** 
 559:..\common\rtos/timers.c ****         #if ( configUSE_DAEMON_TASK_STARTUP_HOOK == 1 )
 560:..\common\rtos/timers.c ****             {
 561:..\common\rtos/timers.c ****                 extern void vApplicationDaemonTaskStartupHook( void );
 562:..\common\rtos/timers.c **** 
 563:..\common\rtos/timers.c ****                 /* Allow the application writer to execute some code in the context of
 564:..\common\rtos/timers.c ****                  * this task at the point the task starts executing.  This is useful if the
 565:..\common\rtos/timers.c ****                  * application includes initialisation code that would benefit from
 566:..\common\rtos/timers.c ****                  * executing after the scheduler has been started. */
 567:..\common\rtos/timers.c ****                 vApplicationDaemonTaskStartupHook();
 568:..\common\rtos/timers.c ****             }
 569:..\common\rtos/timers.c ****         #endif /* configUSE_DAEMON_TASK_STARTUP_HOOK */
 570:..\common\rtos/timers.c **** 
 571:..\common\rtos/timers.c ****         for( ; ; )
 572:..\common\rtos/timers.c ****         {
 573:..\common\rtos/timers.c ****             /* Query the timers list to see if it contains any timers, and if so,
 574:..\common\rtos/timers.c ****              * obtain the time at which the next timer will expire. */
 575:..\common\rtos/timers.c ****             xNextExpireTime = prvGetNextExpireTime( &xListWasEmpty );
 576:..\common\rtos/timers.c **** 
 577:..\common\rtos/timers.c ****             /* If a timer has expired, process it.  Otherwise, block this task
 578:..\common\rtos/timers.c ****              * until either a timer does expire, or a command is received. */
 579:..\common\rtos/timers.c ****             prvProcessTimerOrBlockTask( xNextExpireTime, xListWasEmpty );
 580:..\common\rtos/timers.c **** 
 581:..\common\rtos/timers.c ****             /* Empty the command queue. */
 582:..\common\rtos/timers.c ****             prvProcessReceivedCommands();
 583:..\common\rtos/timers.c ****         }
 584:..\common\rtos/timers.c ****     }
 585:..\common\rtos/timers.c **** /*-----------------------------------------------------------*/
 586:..\common\rtos/timers.c **** 
 587:..\common\rtos/timers.c ****     static void prvProcessTimerOrBlockTask( const TickType_t xNextExpireTime,
 588:..\common\rtos/timers.c ****                                             BaseType_t xListWasEmpty )
 589:..\common\rtos/timers.c ****     {
 590:..\common\rtos/timers.c ****         TickType_t xTimeNow;
 591:..\common\rtos/timers.c ****         BaseType_t xTimerListsWereSwitched;
 592:..\common\rtos/timers.c **** 
 593:..\common\rtos/timers.c ****         vTaskSuspendAll();
 594:..\common\rtos/timers.c ****         {
 595:..\common\rtos/timers.c ****             /* Obtain the time now to make an assessment as to whether the timer
 596:..\common\rtos/timers.c ****              * has expired or not.  If obtaining the time causes the lists to switch
 597:..\common\rtos/timers.c ****              * then don't process this timer as any timers that remained in the list
 598:..\common\rtos/timers.c ****              * when the lists were switched will have been processed within the
 599:..\common\rtos/timers.c ****              * prvSampleTimeNow() function. */
 600:..\common\rtos/timers.c ****             xTimeNow = prvSampleTimeNow( &xTimerListsWereSwitched );
 601:..\common\rtos/timers.c **** 
ARM GAS  C:\Users\chemi\AppData\Local\Temp\ccWFGUfC.s 			page 12


 602:..\common\rtos/timers.c ****             if( xTimerListsWereSwitched == pdFALSE )
 603:..\common\rtos/timers.c ****             {
 604:..\common\rtos/timers.c ****                 /* The tick count has not overflowed, has the timer expired? */
 605:..\common\rtos/timers.c ****                 if( ( xListWasEmpty == pdFALSE ) && ( xNextExpireTime <= xTimeNow ) )
 606:..\common\rtos/timers.c ****                 {
 607:..\common\rtos/timers.c ****                     ( void ) xTaskResumeAll();
 608:..\common\rtos/timers.c ****                     prvProcessExpiredTimer( xNextExpireTime, xTimeNow );
 609:..\common\rtos/timers.c ****                 }
 610:..\common\rtos/timers.c ****                 else
 611:..\common\rtos/timers.c ****                 {
 612:..\common\rtos/timers.c ****                     /* The tick count has not overflowed, and the next expire
 613:..\common\rtos/timers.c ****                      * time has not been reached yet.  This task should therefore
 614:..\common\rtos/timers.c ****                      * block to wait for the next expire time or a command to be
 615:..\common\rtos/timers.c ****                      * received - whichever comes first.  The following line cannot
 616:..\common\rtos/timers.c ****                      * be reached unless xNextExpireTime > xTimeNow, except in the
 617:..\common\rtos/timers.c ****                      * case when the current timer list is empty. */
 618:..\common\rtos/timers.c ****                     if( xListWasEmpty != pdFALSE )
 619:..\common\rtos/timers.c ****                     {
 620:..\common\rtos/timers.c ****                         /* The current timer list is empty - is the overflow list
 621:..\common\rtos/timers.c ****                          * also empty? */
 622:..\common\rtos/timers.c ****                         xListWasEmpty = listLIST_IS_EMPTY( pxOverflowTimerList );
 623:..\common\rtos/timers.c ****                     }
 624:..\common\rtos/timers.c **** 
 625:..\common\rtos/timers.c ****                     vQueueWaitForMessageRestricted( xTimerQueue, ( xNextExpireTime - xTimeNow ), xL
 626:..\common\rtos/timers.c **** 
 627:..\common\rtos/timers.c ****                     if( xTaskResumeAll() == pdFALSE )
 628:..\common\rtos/timers.c ****                     {
 629:..\common\rtos/timers.c ****                         /* Yield to wait for either a command to arrive, or the
 630:..\common\rtos/timers.c ****                          * block time to expire.  If a command arrived between the
 631:..\common\rtos/timers.c ****                          * critical section being exited and this yield then the yield
 632:..\common\rtos/timers.c ****                          * will not cause the task to block. */
 633:..\common\rtos/timers.c ****                         portYIELD_WITHIN_API();
 634:..\common\rtos/timers.c ****                     }
 635:..\common\rtos/timers.c ****                     else
 636:..\common\rtos/timers.c ****                     {
 637:..\common\rtos/timers.c ****                         mtCOVERAGE_TEST_MARKER();
 638:..\common\rtos/timers.c ****                     }
 639:..\common\rtos/timers.c ****                 }
 640:..\common\rtos/timers.c ****             }
 641:..\common\rtos/timers.c ****             else
 642:..\common\rtos/timers.c ****             {
 643:..\common\rtos/timers.c ****                 ( void ) xTaskResumeAll();
 644:..\common\rtos/timers.c ****             }
 645:..\common\rtos/timers.c ****         }
 646:..\common\rtos/timers.c ****     }
 647:..\common\rtos/timers.c **** /*-----------------------------------------------------------*/
 648:..\common\rtos/timers.c **** 
 649:..\common\rtos/timers.c ****     static TickType_t prvGetNextExpireTime( BaseType_t * const pxListWasEmpty )
 650:..\common\rtos/timers.c ****     {
 651:..\common\rtos/timers.c ****         TickType_t xNextExpireTime;
 652:..\common\rtos/timers.c **** 
 653:..\common\rtos/timers.c ****         /* Timers are listed in expiry time order, with the head of the list
 654:..\common\rtos/timers.c ****          * referencing the task that will expire first.  Obtain the time at which
 655:..\common\rtos/timers.c ****          * the timer with the nearest expiry time will expire.  If there are no
 656:..\common\rtos/timers.c ****          * active timers then just set the next expire time to 0.  That will cause
 657:..\common\rtos/timers.c ****          * this task to unblock when the tick count overflows, at which point the
 658:..\common\rtos/timers.c ****          * timer lists will be switched and the next expiry time can be
ARM GAS  C:\Users\chemi\AppData\Local\Temp\ccWFGUfC.s 			page 13


 659:..\common\rtos/timers.c ****          * re-assessed.  */
 660:..\common\rtos/timers.c ****         *pxListWasEmpty = listLIST_IS_EMPTY( pxCurrentTimerList );
 661:..\common\rtos/timers.c **** 
 662:..\common\rtos/timers.c ****         if( *pxListWasEmpty == pdFALSE )
 663:..\common\rtos/timers.c ****         {
 664:..\common\rtos/timers.c ****             xNextExpireTime = listGET_ITEM_VALUE_OF_HEAD_ENTRY( pxCurrentTimerList );
 665:..\common\rtos/timers.c ****         }
 666:..\common\rtos/timers.c ****         else
 667:..\common\rtos/timers.c ****         {
 668:..\common\rtos/timers.c ****             /* Ensure the task unblocks when the tick count rolls over. */
 669:..\common\rtos/timers.c ****             xNextExpireTime = ( TickType_t ) 0U;
 670:..\common\rtos/timers.c ****         }
 671:..\common\rtos/timers.c **** 
 672:..\common\rtos/timers.c ****         return xNextExpireTime;
 673:..\common\rtos/timers.c ****     }
 674:..\common\rtos/timers.c **** /*-----------------------------------------------------------*/
 675:..\common\rtos/timers.c **** 
 676:..\common\rtos/timers.c ****     static TickType_t prvSampleTimeNow( BaseType_t * const pxTimerListsWereSwitched )
 677:..\common\rtos/timers.c ****     {
 678:..\common\rtos/timers.c ****         TickType_t xTimeNow;
 679:..\common\rtos/timers.c ****         PRIVILEGED_DATA static TickType_t xLastTime = ( TickType_t ) 0U; /*lint !e956 Variable is o
 680:..\common\rtos/timers.c **** 
 681:..\common\rtos/timers.c ****         xTimeNow = xTaskGetTickCount();
 682:..\common\rtos/timers.c **** 
 683:..\common\rtos/timers.c ****         if( xTimeNow < xLastTime )
 684:..\common\rtos/timers.c ****         {
 685:..\common\rtos/timers.c ****             prvSwitchTimerLists();
 686:..\common\rtos/timers.c ****             *pxTimerListsWereSwitched = pdTRUE;
 687:..\common\rtos/timers.c ****         }
 688:..\common\rtos/timers.c ****         else
 689:..\common\rtos/timers.c ****         {
 690:..\common\rtos/timers.c ****             *pxTimerListsWereSwitched = pdFALSE;
 691:..\common\rtos/timers.c ****         }
 692:..\common\rtos/timers.c **** 
 693:..\common\rtos/timers.c ****         xLastTime = xTimeNow;
 694:..\common\rtos/timers.c **** 
 695:..\common\rtos/timers.c ****         return xTimeNow;
 696:..\common\rtos/timers.c ****     }
 697:..\common\rtos/timers.c **** /*-----------------------------------------------------------*/
 698:..\common\rtos/timers.c **** 
 699:..\common\rtos/timers.c ****     static BaseType_t prvInsertTimerInActiveList( Timer_t * const pxTimer,
 700:..\common\rtos/timers.c ****                                                   const TickType_t xNextExpiryTime,
 701:..\common\rtos/timers.c ****                                                   const TickType_t xTimeNow,
 702:..\common\rtos/timers.c ****                                                   const TickType_t xCommandTime )
 703:..\common\rtos/timers.c ****     {
 704:..\common\rtos/timers.c ****         BaseType_t xProcessTimerNow = pdFALSE;
 705:..\common\rtos/timers.c **** 
 706:..\common\rtos/timers.c ****         listSET_LIST_ITEM_VALUE( &( pxTimer->xTimerListItem ), xNextExpiryTime );
 707:..\common\rtos/timers.c ****         listSET_LIST_ITEM_OWNER( &( pxTimer->xTimerListItem ), pxTimer );
 708:..\common\rtos/timers.c **** 
 709:..\common\rtos/timers.c ****         if( xNextExpiryTime <= xTimeNow )
 710:..\common\rtos/timers.c ****         {
 711:..\common\rtos/timers.c ****             /* Has the expiry time elapsed between the command to start/reset a
 712:..\common\rtos/timers.c ****              * timer was issued, and the time the command was processed? */
 713:..\common\rtos/timers.c ****             if( ( ( TickType_t ) ( xTimeNow - xCommandTime ) ) >= pxTimer->xTimerPeriodInTicks ) /*
 714:..\common\rtos/timers.c ****             {
 715:..\common\rtos/timers.c ****                 /* The time between a command being issued and the command being
ARM GAS  C:\Users\chemi\AppData\Local\Temp\ccWFGUfC.s 			page 14


 716:..\common\rtos/timers.c ****                  * processed actually exceeds the timers period.  */
 717:..\common\rtos/timers.c ****                 xProcessTimerNow = pdTRUE;
 718:..\common\rtos/timers.c ****             }
 719:..\common\rtos/timers.c ****             else
 720:..\common\rtos/timers.c ****             {
 721:..\common\rtos/timers.c ****                 vListInsert( pxOverflowTimerList, &( pxTimer->xTimerListItem ) );
 722:..\common\rtos/timers.c ****             }
 723:..\common\rtos/timers.c ****         }
 724:..\common\rtos/timers.c ****         else
 725:..\common\rtos/timers.c ****         {
 726:..\common\rtos/timers.c ****             if( ( xTimeNow < xCommandTime ) && ( xNextExpiryTime >= xCommandTime ) )
 727:..\common\rtos/timers.c ****             {
 728:..\common\rtos/timers.c ****                 /* If, since the command was issued, the tick count has overflowed
 729:..\common\rtos/timers.c ****                  * but the expiry time has not, then the timer must have already passed
 730:..\common\rtos/timers.c ****                  * its expiry time and should be processed immediately. */
 731:..\common\rtos/timers.c ****                 xProcessTimerNow = pdTRUE;
 732:..\common\rtos/timers.c ****             }
 733:..\common\rtos/timers.c ****             else
 734:..\common\rtos/timers.c ****             {
 735:..\common\rtos/timers.c ****                 vListInsert( pxCurrentTimerList, &( pxTimer->xTimerListItem ) );
 736:..\common\rtos/timers.c ****             }
 737:..\common\rtos/timers.c ****         }
 738:..\common\rtos/timers.c **** 
 739:..\common\rtos/timers.c ****         return xProcessTimerNow;
 740:..\common\rtos/timers.c ****     }
 741:..\common\rtos/timers.c **** /*-----------------------------------------------------------*/
 742:..\common\rtos/timers.c **** 
 743:..\common\rtos/timers.c ****     static void prvProcessReceivedCommands( void )
 744:..\common\rtos/timers.c ****     {
 745:..\common\rtos/timers.c ****         DaemonTaskMessage_t xMessage;
 746:..\common\rtos/timers.c ****         Timer_t * pxTimer;
 747:..\common\rtos/timers.c ****         BaseType_t xTimerListsWereSwitched, xResult;
 748:..\common\rtos/timers.c ****         TickType_t xTimeNow;
 749:..\common\rtos/timers.c **** 
 750:..\common\rtos/timers.c ****         while( xQueueReceive( xTimerQueue, &xMessage, tmrNO_DELAY ) != pdFAIL ) /*lint !e603 xMessa
 751:..\common\rtos/timers.c ****         {
 752:..\common\rtos/timers.c ****             #if ( INCLUDE_xTimerPendFunctionCall == 1 )
 753:..\common\rtos/timers.c ****                 {
 754:..\common\rtos/timers.c ****                     /* Negative commands are pended function calls rather than timer
 755:..\common\rtos/timers.c ****                      * commands. */
 756:..\common\rtos/timers.c ****                     if( xMessage.xMessageID < ( BaseType_t ) 0 )
 757:..\common\rtos/timers.c ****                     {
 758:..\common\rtos/timers.c ****                         const CallbackParameters_t * const pxCallback = &( xMessage.u.xCallbackPara
 759:..\common\rtos/timers.c **** 
 760:..\common\rtos/timers.c ****                         /* The timer uses the xCallbackParameters member to request a
 761:..\common\rtos/timers.c ****                          * callback be executed.  Check the callback is not NULL. */
 762:..\common\rtos/timers.c ****                         configASSERT( pxCallback );
 763:..\common\rtos/timers.c **** 
 764:..\common\rtos/timers.c ****                         /* Call the function. */
 765:..\common\rtos/timers.c ****                         pxCallback->pxCallbackFunction( pxCallback->pvParameter1, pxCallback->ulPar
 766:..\common\rtos/timers.c ****                     }
 767:..\common\rtos/timers.c ****                     else
 768:..\common\rtos/timers.c ****                     {
 769:..\common\rtos/timers.c ****                         mtCOVERAGE_TEST_MARKER();
 770:..\common\rtos/timers.c ****                     }
 771:..\common\rtos/timers.c ****                 }
 772:..\common\rtos/timers.c ****             #endif /* INCLUDE_xTimerPendFunctionCall */
ARM GAS  C:\Users\chemi\AppData\Local\Temp\ccWFGUfC.s 			page 15


 773:..\common\rtos/timers.c **** 
 774:..\common\rtos/timers.c ****             /* Commands that are positive are timer commands rather than pended
 775:..\common\rtos/timers.c ****              * function calls. */
 776:..\common\rtos/timers.c ****             if( xMessage.xMessageID >= ( BaseType_t ) 0 )
 777:..\common\rtos/timers.c ****             {
 778:..\common\rtos/timers.c ****                 /* The messages uses the xTimerParameters member to work on a
 779:..\common\rtos/timers.c ****                  * software timer. */
 780:..\common\rtos/timers.c ****                 pxTimer = xMessage.u.xTimerParameters.pxTimer;
 781:..\common\rtos/timers.c **** 
 782:..\common\rtos/timers.c ****                 if( listIS_CONTAINED_WITHIN( NULL, &( pxTimer->xTimerListItem ) ) == pdFALSE ) /*li
 783:..\common\rtos/timers.c ****                 {
 784:..\common\rtos/timers.c ****                     /* The timer is in a list, remove it. */
 785:..\common\rtos/timers.c ****                     ( void ) uxListRemove( &( pxTimer->xTimerListItem ) );
 786:..\common\rtos/timers.c ****                 }
 787:..\common\rtos/timers.c ****                 else
 788:..\common\rtos/timers.c ****                 {
 789:..\common\rtos/timers.c ****                     mtCOVERAGE_TEST_MARKER();
 790:..\common\rtos/timers.c ****                 }
 791:..\common\rtos/timers.c **** 
 792:..\common\rtos/timers.c ****                 traceTIMER_COMMAND_RECEIVED( pxTimer, xMessage.xMessageID, xMessage.u.xTimerParamet
 793:..\common\rtos/timers.c **** 
 794:..\common\rtos/timers.c ****                 /* In this case the xTimerListsWereSwitched parameter is not used, but
 795:..\common\rtos/timers.c ****                  *  it must be present in the function call.  prvSampleTimeNow() must be
 796:..\common\rtos/timers.c ****                  *  called after the message is received from xTimerQueue so there is no
 797:..\common\rtos/timers.c ****                  *  possibility of a higher priority task adding a message to the message
 798:..\common\rtos/timers.c ****                  *  queue with a time that is ahead of the timer daemon task (because it
 799:..\common\rtos/timers.c ****                  *  pre-empted the timer daemon task after the xTimeNow value was set). */
 800:..\common\rtos/timers.c ****                 xTimeNow = prvSampleTimeNow( &xTimerListsWereSwitched );
 801:..\common\rtos/timers.c **** 
 802:..\common\rtos/timers.c ****                 switch( xMessage.xMessageID )
 803:..\common\rtos/timers.c ****                 {
 804:..\common\rtos/timers.c ****                     case tmrCOMMAND_START:
 805:..\common\rtos/timers.c ****                     case tmrCOMMAND_START_FROM_ISR:
 806:..\common\rtos/timers.c ****                     case tmrCOMMAND_RESET:
 807:..\common\rtos/timers.c ****                     case tmrCOMMAND_RESET_FROM_ISR:
 808:..\common\rtos/timers.c ****                     case tmrCOMMAND_START_DONT_TRACE:
 809:..\common\rtos/timers.c ****                         /* Start or restart a timer. */
 810:..\common\rtos/timers.c ****                         pxTimer->ucStatus |= tmrSTATUS_IS_ACTIVE;
 811:..\common\rtos/timers.c **** 
 812:..\common\rtos/timers.c ****                         if( prvInsertTimerInActiveList( pxTimer, xMessage.u.xTimerParameters.xMessa
 813:..\common\rtos/timers.c ****                         {
 814:..\common\rtos/timers.c ****                             /* The timer expired before it was added to the active
 815:..\common\rtos/timers.c ****                              * timer list.  Process it now. */
 816:..\common\rtos/timers.c ****                             pxTimer->pxCallbackFunction( ( TimerHandle_t ) pxTimer );
 817:..\common\rtos/timers.c ****                             traceTIMER_EXPIRED( pxTimer );
 818:..\common\rtos/timers.c **** 
 819:..\common\rtos/timers.c ****                             if( ( pxTimer->ucStatus & tmrSTATUS_IS_AUTORELOAD ) != 0 )
 820:..\common\rtos/timers.c ****                             {
 821:..\common\rtos/timers.c ****                                 xResult = xTimerGenericCommand( pxTimer, tmrCOMMAND_START_DONT_TRAC
 822:..\common\rtos/timers.c ****                                 configASSERT( xResult );
 823:..\common\rtos/timers.c ****                                 ( void ) xResult;
 824:..\common\rtos/timers.c ****                             }
 825:..\common\rtos/timers.c ****                             else
 826:..\common\rtos/timers.c ****                             {
 827:..\common\rtos/timers.c ****                                 mtCOVERAGE_TEST_MARKER();
 828:..\common\rtos/timers.c ****                             }
 829:..\common\rtos/timers.c ****                         }
ARM GAS  C:\Users\chemi\AppData\Local\Temp\ccWFGUfC.s 			page 16


 830:..\common\rtos/timers.c ****                         else
 831:..\common\rtos/timers.c ****                         {
 832:..\common\rtos/timers.c ****                             mtCOVERAGE_TEST_MARKER();
 833:..\common\rtos/timers.c ****                         }
 834:..\common\rtos/timers.c **** 
 835:..\common\rtos/timers.c ****                         break;
 836:..\common\rtos/timers.c **** 
 837:..\common\rtos/timers.c ****                     case tmrCOMMAND_STOP:
 838:..\common\rtos/timers.c ****                     case tmrCOMMAND_STOP_FROM_ISR:
 839:..\common\rtos/timers.c ****                         /* The timer has already been removed from the active list. */
 840:..\common\rtos/timers.c ****                         pxTimer->ucStatus &= ~tmrSTATUS_IS_ACTIVE;
 841:..\common\rtos/timers.c ****                         break;
 842:..\common\rtos/timers.c **** 
 843:..\common\rtos/timers.c ****                     case tmrCOMMAND_CHANGE_PERIOD:
 844:..\common\rtos/timers.c ****                     case tmrCOMMAND_CHANGE_PERIOD_FROM_ISR:
 845:..\common\rtos/timers.c ****                         pxTimer->ucStatus |= tmrSTATUS_IS_ACTIVE;
 846:..\common\rtos/timers.c ****                         pxTimer->xTimerPeriodInTicks = xMessage.u.xTimerParameters.xMessageValue;
 847:..\common\rtos/timers.c ****                         configASSERT( ( pxTimer->xTimerPeriodInTicks > 0 ) );
 848:..\common\rtos/timers.c **** 
 849:..\common\rtos/timers.c ****                         /* The new period does not really have a reference, and can
 850:..\common\rtos/timers.c ****                          * be longer or shorter than the old one.  The command time is
 851:..\common\rtos/timers.c ****                          * therefore set to the current time, and as the period cannot
 852:..\common\rtos/timers.c ****                          * be zero the next expiry time can only be in the future,
 853:..\common\rtos/timers.c ****                          * meaning (unlike for the xTimerStart() case above) there is
 854:..\common\rtos/timers.c ****                          * no fail case that needs to be handled here. */
 855:..\common\rtos/timers.c ****                         ( void ) prvInsertTimerInActiveList( pxTimer, ( xTimeNow + pxTimer->xTimerP
 856:..\common\rtos/timers.c ****                         break;
 857:..\common\rtos/timers.c **** 
 858:..\common\rtos/timers.c ****                     case tmrCOMMAND_DELETE:
 859:..\common\rtos/timers.c ****                         #if ( configSUPPORT_DYNAMIC_ALLOCATION == 1 )
 860:..\common\rtos/timers.c ****                             {
 861:..\common\rtos/timers.c ****                                 /* The timer has already been removed from the active list,
 862:..\common\rtos/timers.c ****                                  * just free up the memory if the memory was dynamically
 863:..\common\rtos/timers.c ****                                  * allocated. */
 864:..\common\rtos/timers.c ****                                 if( ( pxTimer->ucStatus & tmrSTATUS_IS_STATICALLY_ALLOCATED ) == ( 
 865:..\common\rtos/timers.c ****                                 {
 866:..\common\rtos/timers.c ****                                     vPortFree( pxTimer );
 867:..\common\rtos/timers.c ****                                 }
 868:..\common\rtos/timers.c ****                                 else
 869:..\common\rtos/timers.c ****                                 {
 870:..\common\rtos/timers.c ****                                     pxTimer->ucStatus &= ~tmrSTATUS_IS_ACTIVE;
 871:..\common\rtos/timers.c ****                                 }
 872:..\common\rtos/timers.c ****                             }
 873:..\common\rtos/timers.c ****                         #else /* if ( configSUPPORT_DYNAMIC_ALLOCATION == 1 ) */
 874:..\common\rtos/timers.c ****                             {
 875:..\common\rtos/timers.c ****                                 /* If dynamic allocation is not enabled, the memory
 876:..\common\rtos/timers.c ****                                  * could not have been dynamically allocated. So there is
 877:..\common\rtos/timers.c ****                                  * no need to free the memory - just mark the timer as
 878:..\common\rtos/timers.c ****                                  * "not active". */
 879:..\common\rtos/timers.c ****                                 pxTimer->ucStatus &= ~tmrSTATUS_IS_ACTIVE;
 880:..\common\rtos/timers.c ****                             }
 881:..\common\rtos/timers.c ****                         #endif /* configSUPPORT_DYNAMIC_ALLOCATION */
 882:..\common\rtos/timers.c ****                         break;
 883:..\common\rtos/timers.c **** 
 884:..\common\rtos/timers.c ****                     default:
 885:..\common\rtos/timers.c ****                         /* Don't expect to get here. */
 886:..\common\rtos/timers.c ****                         break;
ARM GAS  C:\Users\chemi\AppData\Local\Temp\ccWFGUfC.s 			page 17


 887:..\common\rtos/timers.c ****                 }
 888:..\common\rtos/timers.c ****             }
 889:..\common\rtos/timers.c ****         }
 890:..\common\rtos/timers.c ****     }
 891:..\common\rtos/timers.c **** /*-----------------------------------------------------------*/
 892:..\common\rtos/timers.c **** 
 893:..\common\rtos/timers.c ****     static void prvSwitchTimerLists( void )
 894:..\common\rtos/timers.c ****     {
 895:..\common\rtos/timers.c ****         TickType_t xNextExpireTime, xReloadTime;
 896:..\common\rtos/timers.c ****         List_t * pxTemp;
 897:..\common\rtos/timers.c ****         Timer_t * pxTimer;
 898:..\common\rtos/timers.c ****         BaseType_t xResult;
 899:..\common\rtos/timers.c **** 
 900:..\common\rtos/timers.c ****         /* The tick count has overflowed.  The timer lists must be switched.
 901:..\common\rtos/timers.c ****          * If there are any timers still referenced from the current timer list
 902:..\common\rtos/timers.c ****          * then they must have expired and should be processed before the lists
 903:..\common\rtos/timers.c ****          * are switched. */
 904:..\common\rtos/timers.c ****         while( listLIST_IS_EMPTY( pxCurrentTimerList ) == pdFALSE )
 905:..\common\rtos/timers.c ****         {
 906:..\common\rtos/timers.c ****             xNextExpireTime = listGET_ITEM_VALUE_OF_HEAD_ENTRY( pxCurrentTimerList );
 907:..\common\rtos/timers.c **** 
 908:..\common\rtos/timers.c ****             /* Remove the timer from the list. */
 909:..\common\rtos/timers.c ****             pxTimer = ( Timer_t * ) listGET_OWNER_OF_HEAD_ENTRY( pxCurrentTimerList ); /*lint !e908
 910:..\common\rtos/timers.c ****             ( void ) uxListRemove( &( pxTimer->xTimerListItem ) );
 911:..\common\rtos/timers.c ****             traceTIMER_EXPIRED( pxTimer );
 912:..\common\rtos/timers.c **** 
 913:..\common\rtos/timers.c ****             /* Execute its callback, then send a command to restart the timer if
 914:..\common\rtos/timers.c ****              * it is an auto-reload timer.  It cannot be restarted here as the lists
 915:..\common\rtos/timers.c ****              * have not yet been switched. */
 916:..\common\rtos/timers.c ****             pxTimer->pxCallbackFunction( ( TimerHandle_t ) pxTimer );
 917:..\common\rtos/timers.c **** 
 918:..\common\rtos/timers.c ****             if( ( pxTimer->ucStatus & tmrSTATUS_IS_AUTORELOAD ) != 0 )
 919:..\common\rtos/timers.c ****             {
 920:..\common\rtos/timers.c ****                 /* Calculate the reload value, and if the reload value results in
 921:..\common\rtos/timers.c ****                  * the timer going into the same timer list then it has already expired
 922:..\common\rtos/timers.c ****                  * and the timer should be re-inserted into the current list so it is
 923:..\common\rtos/timers.c ****                  * processed again within this loop.  Otherwise a command should be sent
 924:..\common\rtos/timers.c ****                  * to restart the timer to ensure it is only inserted into a list after
 925:..\common\rtos/timers.c ****                  * the lists have been swapped. */
 926:..\common\rtos/timers.c ****                 xReloadTime = ( xNextExpireTime + pxTimer->xTimerPeriodInTicks );
 927:..\common\rtos/timers.c **** 
 928:..\common\rtos/timers.c ****                 if( xReloadTime > xNextExpireTime )
 929:..\common\rtos/timers.c ****                 {
 930:..\common\rtos/timers.c ****                     listSET_LIST_ITEM_VALUE( &( pxTimer->xTimerListItem ), xReloadTime );
 931:..\common\rtos/timers.c ****                     listSET_LIST_ITEM_OWNER( &( pxTimer->xTimerListItem ), pxTimer );
 932:..\common\rtos/timers.c ****                     vListInsert( pxCurrentTimerList, &( pxTimer->xTimerListItem ) );
 933:..\common\rtos/timers.c ****                 }
 934:..\common\rtos/timers.c ****                 else
 935:..\common\rtos/timers.c ****                 {
 936:..\common\rtos/timers.c ****                     xResult = xTimerGenericCommand( pxTimer, tmrCOMMAND_START_DONT_TRACE, xNextExpi
 937:..\common\rtos/timers.c ****                     configASSERT( xResult );
 938:..\common\rtos/timers.c ****                     ( void ) xResult;
 939:..\common\rtos/timers.c ****                 }
 940:..\common\rtos/timers.c ****             }
 941:..\common\rtos/timers.c ****             else
 942:..\common\rtos/timers.c ****             {
 943:..\common\rtos/timers.c ****                 mtCOVERAGE_TEST_MARKER();
ARM GAS  C:\Users\chemi\AppData\Local\Temp\ccWFGUfC.s 			page 18


 944:..\common\rtos/timers.c ****             }
 945:..\common\rtos/timers.c ****         }
 946:..\common\rtos/timers.c **** 
 947:..\common\rtos/timers.c ****         pxTemp = pxCurrentTimerList;
 948:..\common\rtos/timers.c ****         pxCurrentTimerList = pxOverflowTimerList;
 949:..\common\rtos/timers.c ****         pxOverflowTimerList = pxTemp;
 950:..\common\rtos/timers.c ****     }
 951:..\common\rtos/timers.c **** /*-----------------------------------------------------------*/
 952:..\common\rtos/timers.c **** 
 953:..\common\rtos/timers.c ****     static void prvCheckForValidListAndQueue( void )
 954:..\common\rtos/timers.c ****     {
  27              		.loc 1 954 0
  28              		.cfi_startproc
  29              		@ args = 0, pretend = 0, frame = 0
  30              		@ frame_needed = 0, uses_anonymous_args = 0
  31 0000 F8B5     		push	{r3, r4, r5, r6, r7, lr}
  32              		.cfi_def_cfa_offset 24
  33              		.cfi_offset 3, -24
  34              		.cfi_offset 4, -20
  35              		.cfi_offset 5, -16
  36              		.cfi_offset 6, -12
  37              		.cfi_offset 7, -8
  38              		.cfi_offset 14, -4
 955:..\common\rtos/timers.c ****         /* Check that the list from which active timers are referenced, and the
 956:..\common\rtos/timers.c ****          * queue used to communicate with the timer service, have been
 957:..\common\rtos/timers.c ****          * initialised. */
 958:..\common\rtos/timers.c ****         taskENTER_CRITICAL();
 959:..\common\rtos/timers.c ****         {
 960:..\common\rtos/timers.c ****             if( xTimerQueue == NULL )
  39              		.loc 1 960 0
  40 0002 0F4C     		ldr	r4, .L9
 958:..\common\rtos/timers.c ****         {
  41              		.loc 1 958 0
  42 0004 FFF7FEFF 		bl	vPortEnterCritical
  43              	.LVL0:
  44              		.loc 1 960 0
  45 0008 2568     		ldr	r5, [r4]
  46 000a A5B9     		cbnz	r5, .L3
 961:..\common\rtos/timers.c ****             {
 962:..\common\rtos/timers.c ****                 vListInitialise( &xActiveTimerList1 );
  47              		.loc 1 962 0
  48 000c 271D     		adds	r7, r4, #4
  49 000e 3846     		mov	r0, r7
 963:..\common\rtos/timers.c ****                 vListInitialise( &xActiveTimerList2 );
  50              		.loc 1 963 0
  51 0010 04F11806 		add	r6, r4, #24
 962:..\common\rtos/timers.c ****                 vListInitialise( &xActiveTimerList2 );
  52              		.loc 1 962 0
  53 0014 FFF7FEFF 		bl	vListInitialise
  54              	.LVL1:
  55              		.loc 1 963 0
  56 0018 3046     		mov	r0, r6
  57 001a FFF7FEFF 		bl	vListInitialise
  58              	.LVL2:
 964:..\common\rtos/timers.c ****                 pxCurrentTimerList = &xActiveTimerList1;
 965:..\common\rtos/timers.c ****                 pxOverflowTimerList = &xActiveTimerList2;
 966:..\common\rtos/timers.c **** 
ARM GAS  C:\Users\chemi\AppData\Local\Temp\ccWFGUfC.s 			page 19


 967:..\common\rtos/timers.c ****                 #if ( configSUPPORT_STATIC_ALLOCATION == 1 )
 968:..\common\rtos/timers.c ****                     {
 969:..\common\rtos/timers.c ****                         /* The timer queue is allocated statically in case
 970:..\common\rtos/timers.c ****                          * configSUPPORT_DYNAMIC_ALLOCATION is 0. */
 971:..\common\rtos/timers.c ****                         PRIVILEGED_DATA static StaticQueue_t xStaticTimerQueue;                    
 972:..\common\rtos/timers.c ****                         PRIVILEGED_DATA static uint8_t ucStaticTimerQueueStorage[ ( size_t ) config
 973:..\common\rtos/timers.c **** 
 974:..\common\rtos/timers.c ****                         xTimerQueue = xQueueCreateStatic( ( UBaseType_t ) configTIMER_QUEUE_LENGTH,
 975:..\common\rtos/timers.c ****                     }
 976:..\common\rtos/timers.c ****                 #else
 977:..\common\rtos/timers.c ****                     {
 978:..\common\rtos/timers.c ****                         xTimerQueue = xQueueCreate( ( UBaseType_t ) configTIMER_QUEUE_LENGTH, sizeo
  59              		.loc 1 978 0
  60 001e 2A46     		mov	r2, r5
  61 0020 0C21     		movs	r1, #12
  62 0022 1020     		movs	r0, #16
 964:..\common\rtos/timers.c ****                 pxCurrentTimerList = &xActiveTimerList1;
  63              		.loc 1 964 0
  64 0024 E762     		str	r7, [r4, #44]
 965:..\common\rtos/timers.c **** 
  65              		.loc 1 965 0
  66 0026 2663     		str	r6, [r4, #48]
  67              		.loc 1 978 0
  68 0028 FFF7FEFF 		bl	xQueueGenericCreate
  69              	.LVL3:
  70 002c 2060     		str	r0, [r4]
 979:..\common\rtos/timers.c ****                     }
 980:..\common\rtos/timers.c ****                 #endif /* if ( configSUPPORT_STATIC_ALLOCATION == 1 ) */
 981:..\common\rtos/timers.c **** 
 982:..\common\rtos/timers.c ****                 #if ( configQUEUE_REGISTRY_SIZE > 0 )
 983:..\common\rtos/timers.c ****                     {
 984:..\common\rtos/timers.c ****                         if( xTimerQueue != NULL )
  71              		.loc 1 984 0
  72 002e 10B1     		cbz	r0, .L3
 985:..\common\rtos/timers.c ****                         {
 986:..\common\rtos/timers.c ****                             vQueueAddToRegistry( xTimerQueue, "TmrQ" );
  73              		.loc 1 986 0
  74 0030 0449     		ldr	r1, .L9+4
  75 0032 FFF7FEFF 		bl	vQueueAddToRegistry
  76              	.LVL4:
  77              	.L3:
 987:..\common\rtos/timers.c ****                         }
 988:..\common\rtos/timers.c ****                         else
 989:..\common\rtos/timers.c ****                         {
 990:..\common\rtos/timers.c ****                             mtCOVERAGE_TEST_MARKER();
 991:..\common\rtos/timers.c ****                         }
 992:..\common\rtos/timers.c ****                     }
 993:..\common\rtos/timers.c ****                 #endif /* configQUEUE_REGISTRY_SIZE */
 994:..\common\rtos/timers.c ****             }
 995:..\common\rtos/timers.c ****             else
 996:..\common\rtos/timers.c ****             {
 997:..\common\rtos/timers.c ****                 mtCOVERAGE_TEST_MARKER();
 998:..\common\rtos/timers.c ****             }
 999:..\common\rtos/timers.c ****         }
1000:..\common\rtos/timers.c ****         taskEXIT_CRITICAL();
1001:..\common\rtos/timers.c ****     }
  78              		.loc 1 1001 0
ARM GAS  C:\Users\chemi\AppData\Local\Temp\ccWFGUfC.s 			page 20


  79 0036 BDE8F840 		pop	{r3, r4, r5, r6, r7, lr}
  80              		.cfi_restore 14
  81              		.cfi_restore 7
  82              		.cfi_restore 6
  83              		.cfi_restore 5
  84              		.cfi_restore 4
  85              		.cfi_restore 3
  86              		.cfi_def_cfa_offset 0
1000:..\common\rtos/timers.c ****     }
  87              		.loc 1 1000 0
  88 003a FFF7FEBF 		b	vPortExitCritical
  89              	.LVL5:
  90              	.L10:
  91 003e 00BF     		.align	2
  92              	.L9:
  93 0040 00000000 		.word	.LANCHOR0
  94 0044 00000000 		.word	.LC0
  95              		.cfi_endproc
  96              	.LFE86:
  97              		.size	prvCheckForValidListAndQueue, .-prvCheckForValidListAndQueue
  98              		.section	.text.prvInsertTimerInActiveList,"ax",%progbits
  99              		.align	1
 100              		.thumb
 101              		.thumb_func
 102              		.type	prvInsertTimerInActiveList, %function
 103              	prvInsertTimerInActiveList:
 104              	.LFB83:
 703:..\common\rtos/timers.c ****         BaseType_t xProcessTimerNow = pdFALSE;
 105              		.loc 1 703 0
 106              		.cfi_startproc
 107              		@ args = 0, pretend = 0, frame = 0
 108              		@ frame_needed = 0, uses_anonymous_args = 0
 109              	.LVL6:
 709:..\common\rtos/timers.c ****         {
 110              		.loc 1 709 0
 111 0000 9142     		cmp	r1, r2
 703:..\common\rtos/timers.c ****         BaseType_t xProcessTimerNow = pdFALSE;
 112              		.loc 1 703 0
 113 0002 08B5     		push	{r3, lr}
 114              		.cfi_def_cfa_offset 8
 115              		.cfi_offset 3, -8
 116              		.cfi_offset 14, -4
 706:..\common\rtos/timers.c ****         listSET_LIST_ITEM_OWNER( &( pxTimer->xTimerListItem ), pxTimer );
 117              		.loc 1 706 0
 118 0004 4160     		str	r1, [r0, #4]
 707:..\common\rtos/timers.c **** 
 119              		.loc 1 707 0
 120 0006 0061     		str	r0, [r0, #16]
 709:..\common\rtos/timers.c ****         {
 121              		.loc 1 709 0
 122 0008 07D8     		bhi	.L12
 713:..\common\rtos/timers.c ****             {
 123              		.loc 1 713 0
 124 000a D21A     		subs	r2, r2, r3
 125              	.LVL7:
 126 000c 8369     		ldr	r3, [r0, #24]
 127              	.LVL8:
ARM GAS  C:\Users\chemi\AppData\Local\Temp\ccWFGUfC.s 			page 21


 128 000e 9A42     		cmp	r2, r3
 129 0010 0ED2     		bcs	.L16
 130              	.LVL9:
 131              	.LBB4:
 132              	.LBB5:
 721:..\common\rtos/timers.c ****             }
 133              		.loc 1 721 0
 134 0012 084B     		ldr	r3, .L18
 135 0014 011D     		adds	r1, r0, #4
 136              	.LVL10:
 137 0016 186B     		ldr	r0, [r3, #48]
 138              	.LVL11:
 139 0018 06E0     		b	.L17
 140              	.LVL12:
 141              	.L12:
 142              	.LBE5:
 143              	.LBE4:
 726:..\common\rtos/timers.c ****             {
 144              		.loc 1 726 0
 145 001a 9A42     		cmp	r2, r3
 146 001c 01D2     		bcs	.L14
 726:..\common\rtos/timers.c ****             {
 147              		.loc 1 726 0 is_stmt 0 discriminator 1
 148 001e 9942     		cmp	r1, r3
 149 0020 06D2     		bcs	.L16
 150              	.L14:
 735:..\common\rtos/timers.c ****             }
 151              		.loc 1 735 0 is_stmt 1
 152 0022 044B     		ldr	r3, .L18
 153              	.LVL13:
 154 0024 011D     		adds	r1, r0, #4
 155              	.LVL14:
 156 0026 D86A     		ldr	r0, [r3, #44]
 157              	.LVL15:
 158              	.L17:
 159 0028 FFF7FEFF 		bl	vListInsert
 160              	.LVL16:
 704:..\common\rtos/timers.c **** 
 161              		.loc 1 704 0
 162 002c 0020     		movs	r0, #0
 163 002e 08BD     		pop	{r3, pc}
 164              	.LVL17:
 165              	.L16:
 717:..\common\rtos/timers.c ****             }
 166              		.loc 1 717 0
 167 0030 0120     		movs	r0, #1
 168              	.LVL18:
 740:..\common\rtos/timers.c **** /*-----------------------------------------------------------*/
 169              		.loc 1 740 0
 170 0032 08BD     		pop	{r3, pc}
 171              	.L19:
 172              		.align	2
 173              	.L18:
 174 0034 00000000 		.word	.LANCHOR0
 175              		.cfi_endproc
 176              	.LFE83:
 177              		.size	prvInsertTimerInActiveList, .-prvInsertTimerInActiveList
ARM GAS  C:\Users\chemi\AppData\Local\Temp\ccWFGUfC.s 			page 22


 178              		.section	.text.xTimerCreateTimerTask,"ax",%progbits
 179              		.align	1
 180              		.global	xTimerCreateTimerTask
 181              		.thumb
 182              		.thumb_func
 183              		.type	xTimerCreateTimerTask, %function
 184              	xTimerCreateTimerTask:
 185              	.LFB68:
 222:..\common\rtos/timers.c ****         BaseType_t xReturn = pdFAIL;
 186              		.loc 1 222 0
 187              		.cfi_startproc
 188              		@ args = 0, pretend = 0, frame = 0
 189              		@ frame_needed = 0, uses_anonymous_args = 0
 190              	.LVL19:
 191 0000 07B5     		push	{r0, r1, r2, lr}
 192              		.cfi_def_cfa_offset 16
 193              		.cfi_offset 14, -4
 229:..\common\rtos/timers.c **** 
 194              		.loc 1 229 0
 195 0002 FFF7FEFF 		bl	prvCheckForValidListAndQueue
 196              	.LVL20:
 231:..\common\rtos/timers.c ****         {
 197              		.loc 1 231 0
 198 0006 084B     		ldr	r3, .L23
 199 0008 1868     		ldr	r0, [r3]
 200 000a 48B1     		cbz	r0, .L21
 255:..\common\rtos/timers.c ****                                            configTIMER_SERVICE_TASK_NAME,
 201              		.loc 1 255 0
 202 000c 3433     		adds	r3, r3, #52
 203 000e 0193     		str	r3, [sp, #4]
 204 0010 0323     		movs	r3, #3
 205 0012 0093     		str	r3, [sp]
 206 0014 8022     		movs	r2, #128
 207 0016 0023     		movs	r3, #0
 208 0018 0449     		ldr	r1, .L23+4
 209 001a 0548     		ldr	r0, .L23+8
 210 001c FFF7FEFF 		bl	xTaskCreate
 211              	.LVL21:
 212              	.L21:
 271:..\common\rtos/timers.c **** /*-----------------------------------------------------------*/
 213              		.loc 1 271 0
 214 0020 03B0     		add	sp, sp, #12
 215              		.cfi_def_cfa_offset 4
 216              		@ sp needed
 217 0022 5DF804FB 		ldr	pc, [sp], #4
 218              	.L24:
 219 0026 00BF     		.align	2
 220              	.L23:
 221 0028 00000000 		.word	.LANCHOR0
 222 002c 05000000 		.word	.LC1
 223 0030 00000000 		.word	prvTimerTask
 224              		.cfi_endproc
 225              	.LFE68:
 226              		.size	xTimerCreateTimerTask, .-xTimerCreateTimerTask
 227              		.section	.text.xTimerCreate,"ax",%progbits
 228              		.align	1
 229              		.global	xTimerCreate
ARM GAS  C:\Users\chemi\AppData\Local\Temp\ccWFGUfC.s 			page 23


 230              		.thumb
 231              		.thumb_func
 232              		.type	xTimerCreate, %function
 233              	xTimerCreate:
 234              	.LFB69:
 281:..\common\rtos/timers.c ****             Timer_t * pxNewTimer;
 235              		.loc 1 281 0
 236              		.cfi_startproc
 237              		@ args = 4, pretend = 0, frame = 0
 238              		@ frame_needed = 0, uses_anonymous_args = 0
 239              	.LVL22:
 240 0000 2DE9F041 		push	{r4, r5, r6, r7, r8, lr}
 241              		.cfi_def_cfa_offset 24
 242              		.cfi_offset 4, -24
 243              		.cfi_offset 5, -20
 244              		.cfi_offset 6, -16
 245              		.cfi_offset 7, -12
 246              		.cfi_offset 8, -8
 247              		.cfi_offset 14, -4
 281:..\common\rtos/timers.c ****             Timer_t * pxNewTimer;
 248              		.loc 1 281 0
 249 0004 8046     		mov	r8, r0
 284:..\common\rtos/timers.c **** 
 250              		.loc 1 284 0
 251 0006 2C20     		movs	r0, #44
 252              	.LVL23:
 281:..\common\rtos/timers.c ****             Timer_t * pxNewTimer;
 253              		.loc 1 281 0
 254 0008 0F46     		mov	r7, r1
 255 000a 1546     		mov	r5, r2
 256 000c 1E46     		mov	r6, r3
 284:..\common\rtos/timers.c **** 
 257              		.loc 1 284 0
 258 000e FFF7FEFF 		bl	pvPortMalloc
 259              	.LVL24:
 286:..\common\rtos/timers.c ****             {
 260              		.loc 1 286 0
 261 0012 0446     		mov	r4, r0
 262 0014 A0B1     		cbz	r0, .L27
 291:..\common\rtos/timers.c ****                 prvInitialiseNewTimer( pcTimerName, xTimerPeriodInTicks, uxAutoReload, pvTimerID, p
 263              		.loc 1 291 0
 264 0016 0023     		movs	r3, #0
 265 0018 80F82830 		strb	r3, [r0, #40]
 266              	.LVL25:
 267              	.LBB8:
 268              	.LBB9:
 357:..\common\rtos/timers.c **** 
 269              		.loc 1 357 0
 270 001c FFF7FEFF 		bl	prvCheckForValidListAndQueue
 271              	.LVL26:
 364:..\common\rtos/timers.c ****             vListInitialiseItem( &( pxNewTimer->xTimerListItem ) );
 272              		.loc 1 364 0
 273 0020 069B     		ldr	r3, [sp, #24]
 361:..\common\rtos/timers.c ****             pxNewTimer->xTimerPeriodInTicks = xTimerPeriodInTicks;
 274              		.loc 1 361 0
 275 0022 C4F80080 		str	r8, [r4]
 362:..\common\rtos/timers.c ****             pxNewTimer->pvTimerID = pvTimerID;
ARM GAS  C:\Users\chemi\AppData\Local\Temp\ccWFGUfC.s 			page 24


 276              		.loc 1 362 0
 277 0026 A761     		str	r7, [r4, #24]
 363:..\common\rtos/timers.c ****             pxNewTimer->pxCallbackFunction = pxCallbackFunction;
 278              		.loc 1 363 0
 279 0028 E661     		str	r6, [r4, #28]
 364:..\common\rtos/timers.c ****             vListInitialiseItem( &( pxNewTimer->xTimerListItem ) );
 280              		.loc 1 364 0
 281 002a 2362     		str	r3, [r4, #32]
 365:..\common\rtos/timers.c **** 
 282              		.loc 1 365 0
 283 002c 201D     		adds	r0, r4, #4
 284 002e FFF7FEFF 		bl	vListInitialiseItem
 285              	.LVL27:
 367:..\common\rtos/timers.c ****             {
 286              		.loc 1 367 0
 287 0032 2DB1     		cbz	r5, .L27
 369:..\common\rtos/timers.c ****             }
 288              		.loc 1 369 0
 289 0034 94F82830 		ldrb	r3, [r4, #40]	@ zero_extendqisi2
 290 0038 43F00403 		orr	r3, r3, #4
 291 003c 84F82830 		strb	r3, [r4, #40]
 292              	.LVL28:
 293              	.L27:
 294              	.LBE9:
 295              	.LBE8:
 296:..\common\rtos/timers.c **** 
 296              		.loc 1 296 0
 297 0040 2046     		mov	r0, r4
 298 0042 BDE8F081 		pop	{r4, r5, r6, r7, r8, pc}
 299              		.cfi_endproc
 300              	.LFE69:
 301              		.size	xTimerCreate, .-xTimerCreate
 302              		.section	.text.xTimerGenericCommand,"ax",%progbits
 303              		.align	1
 304              		.global	xTimerGenericCommand
 305              		.thumb
 306              		.thumb_func
 307              		.type	xTimerGenericCommand, %function
 308              	xTimerGenericCommand:
 309              	.LFB71:
 382:..\common\rtos/timers.c ****         BaseType_t xReturn = pdFAIL;
 310              		.loc 1 382 0
 311              		.cfi_startproc
 312              		@ args = 4, pretend = 0, frame = 16
 313              		@ frame_needed = 0, uses_anonymous_args = 0
 314              	.LVL29:
 315 0000 7FB5     		push	{r0, r1, r2, r3, r4, r5, r6, lr}
 316              		.cfi_def_cfa_offset 32
 317              		.cfi_offset 4, -16
 318              		.cfi_offset 5, -12
 319              		.cfi_offset 6, -8
 320              		.cfi_offset 14, -4
 390:..\common\rtos/timers.c ****         {
 321              		.loc 1 390 0
 322 0002 0E4C     		ldr	r4, .L38
 382:..\common\rtos/timers.c ****         BaseType_t xReturn = pdFAIL;
 323              		.loc 1 382 0
ARM GAS  C:\Users\chemi\AppData\Local\Temp\ccWFGUfC.s 			page 25


 324 0004 0546     		mov	r5, r0
 390:..\common\rtos/timers.c ****         {
 325              		.loc 1 390 0
 326 0006 2068     		ldr	r0, [r4]
 327              	.LVL30:
 382:..\common\rtos/timers.c ****         BaseType_t xReturn = pdFAIL;
 328              		.loc 1 382 0
 329 0008 1646     		mov	r6, r2
 330 000a 1A46     		mov	r2, r3
 331              	.LVL31:
 390:..\common\rtos/timers.c ****         {
 332              		.loc 1 390 0
 333 000c A0B1     		cbz	r0, .L33
 397:..\common\rtos/timers.c ****             {
 334              		.loc 1 397 0
 335 000e 0529     		cmp	r1, #5
 393:..\common\rtos/timers.c ****             xMessage.u.xTimerParameters.xMessageValue = xOptionalValue;
 336              		.loc 1 393 0
 337 0010 0191     		str	r1, [sp, #4]
 394:..\common\rtos/timers.c ****             xMessage.u.xTimerParameters.pxTimer = xTimer;
 338              		.loc 1 394 0
 339 0012 0296     		str	r6, [sp, #8]
 395:..\common\rtos/timers.c **** 
 340              		.loc 1 395 0
 341 0014 0395     		str	r5, [sp, #12]
 397:..\common\rtos/timers.c ****             {
 342              		.loc 1 397 0
 343 0016 0BDC     		bgt	.L34
 399:..\common\rtos/timers.c ****                 {
 344              		.loc 1 399 0
 345 0018 FFF7FEFF 		bl	xTaskGetSchedulerState
 346              	.LVL32:
 401:..\common\rtos/timers.c ****                 }
 347              		.loc 1 401 0
 348 001c 0023     		movs	r3, #0
 399:..\common\rtos/timers.c ****                 {
 349              		.loc 1 399 0
 350 001e 0228     		cmp	r0, #2
 401:..\common\rtos/timers.c ****                 }
 351              		.loc 1 401 0
 352 0020 0CBF     		ite	eq
 353 0022 089A     		ldreq	r2, [sp, #32]
 405:..\common\rtos/timers.c ****                 }
 354              		.loc 1 405 0
 355 0024 1A46     		movne	r2, r3
 356 0026 01A9     		add	r1, sp, #4
 357 0028 2068     		ldr	r0, [r4]
 358 002a FFF7FEFF 		bl	xQueueGenericSend
 359              	.LVL33:
 360 002e 03E0     		b	.L33
 361              	.LVL34:
 362              	.L34:
 410:..\common\rtos/timers.c ****             }
 363              		.loc 1 410 0
 364 0030 0023     		movs	r3, #0
 365 0032 01A9     		add	r1, sp, #4
 366              	.LVL35:
ARM GAS  C:\Users\chemi\AppData\Local\Temp\ccWFGUfC.s 			page 26


 367 0034 FFF7FEFF 		bl	xQueueGenericSendFromISR
 368              	.LVL36:
 369              	.L33:
 421:..\common\rtos/timers.c **** /*-----------------------------------------------------------*/
 370              		.loc 1 421 0
 371 0038 04B0     		add	sp, sp, #16
 372              		.cfi_def_cfa_offset 16
 373              		@ sp needed
 374 003a 70BD     		pop	{r4, r5, r6, pc}
 375              	.LVL37:
 376              	.L39:
 377              		.align	2
 378              	.L38:
 379 003c 00000000 		.word	.LANCHOR0
 380              		.cfi_endproc
 381              	.LFE71:
 382              		.size	xTimerGenericCommand, .-xTimerGenericCommand
 383              		.section	.text.prvSwitchTimerLists,"ax",%progbits
 384              		.align	1
 385              		.thumb
 386              		.thumb_func
 387              		.type	prvSwitchTimerLists, %function
 388              	prvSwitchTimerLists:
 389              	.LFB85:
 894:..\common\rtos/timers.c ****         TickType_t xNextExpireTime, xReloadTime;
 390              		.loc 1 894 0
 391              		.cfi_startproc
 392              		@ args = 0, pretend = 0, frame = 0
 393              		@ frame_needed = 0, uses_anonymous_args = 0
 394 0000 2DE9F743 		push	{r0, r1, r2, r4, r5, r6, r7, r8, r9, lr}
 395              		.cfi_def_cfa_offset 40
 396              		.cfi_offset 4, -28
 397              		.cfi_offset 5, -24
 398              		.cfi_offset 6, -20
 399              		.cfi_offset 7, -16
 400              		.cfi_offset 8, -12
 401              		.cfi_offset 9, -8
 402              		.cfi_offset 14, -4
 904:..\common\rtos/timers.c ****         {
 403              		.loc 1 904 0
 404 0004 174D     		ldr	r5, .L49
 936:..\common\rtos/timers.c ****                     configASSERT( xResult );
 405              		.loc 1 936 0
 406 0006 0027     		movs	r7, #0
 904:..\common\rtos/timers.c ****         {
 407              		.loc 1 904 0
 408 0008 2E46     		mov	r6, r5
 409              	.L42:
 410 000a EA6A     		ldr	r2, [r5, #44]
 411 000c 154B     		ldr	r3, .L49
 412 000e 1168     		ldr	r1, [r2]
 413 0010 11B3     		cbz	r1, .L48
 906:..\common\rtos/timers.c **** 
 414              		.loc 1 906 0
 415 0012 D368     		ldr	r3, [r2, #12]
 909:..\common\rtos/timers.c ****             ( void ) uxListRemove( &( pxTimer->xTimerListItem ) );
 416              		.loc 1 909 0
ARM GAS  C:\Users\chemi\AppData\Local\Temp\ccWFGUfC.s 			page 27


 417 0014 DC68     		ldr	r4, [r3, #12]
 906:..\common\rtos/timers.c **** 
 418              		.loc 1 906 0
 419 0016 D3F80080 		ldr	r8, [r3]
 420              	.LVL38:
 910:..\common\rtos/timers.c ****             traceTIMER_EXPIRED( pxTimer );
 421              		.loc 1 910 0
 422 001a 04F10409 		add	r9, r4, #4
 423 001e 4846     		mov	r0, r9
 424 0020 FFF7FEFF 		bl	uxListRemove
 425              	.LVL39:
 916:..\common\rtos/timers.c **** 
 426              		.loc 1 916 0
 427 0024 236A     		ldr	r3, [r4, #32]
 428 0026 2046     		mov	r0, r4
 429 0028 9847     		blx	r3
 430              	.LVL40:
 918:..\common\rtos/timers.c ****             {
 431              		.loc 1 918 0
 432 002a 94F82830 		ldrb	r3, [r4, #40]	@ zero_extendqisi2
 433 002e 5B07     		lsls	r3, r3, #29
 434 0030 EBD5     		bpl	.L42
 926:..\common\rtos/timers.c **** 
 435              		.loc 1 926 0
 436 0032 A369     		ldr	r3, [r4, #24]
 437 0034 4344     		add	r3, r3, r8
 438              	.LVL41:
 928:..\common\rtos/timers.c ****                 {
 439              		.loc 1 928 0
 440 0036 9845     		cmp	r8, r3
 441 0038 06D2     		bcs	.L43
 930:..\common\rtos/timers.c ****                     listSET_LIST_ITEM_OWNER( &( pxTimer->xTimerListItem ), pxTimer );
 442              		.loc 1 930 0
 443 003a 6360     		str	r3, [r4, #4]
 931:..\common\rtos/timers.c ****                     vListInsert( pxCurrentTimerList, &( pxTimer->xTimerListItem ) );
 444              		.loc 1 931 0
 445 003c 2461     		str	r4, [r4, #16]
 932:..\common\rtos/timers.c ****                 }
 446              		.loc 1 932 0
 447 003e 4946     		mov	r1, r9
 448 0040 F06A     		ldr	r0, [r6, #44]
 449 0042 FFF7FEFF 		bl	vListInsert
 450              	.LVL42:
 451 0046 E0E7     		b	.L42
 452              	.LVL43:
 453              	.L43:
 936:..\common\rtos/timers.c ****                     configASSERT( xResult );
 454              		.loc 1 936 0
 455 0048 0023     		movs	r3, #0
 456              	.LVL44:
 457 004a 0097     		str	r7, [sp]
 458              	.LVL45:
 459 004c 4246     		mov	r2, r8
 460 004e 1946     		mov	r1, r3
 461 0050 2046     		mov	r0, r4
 462 0052 FFF7FEFF 		bl	xTimerGenericCommand
 463              	.LVL46:
ARM GAS  C:\Users\chemi\AppData\Local\Temp\ccWFGUfC.s 			page 28


 464 0056 D8E7     		b	.L42
 465              	.LVL47:
 466              	.L48:
 948:..\common\rtos/timers.c ****         pxOverflowTimerList = pxTemp;
 467              		.loc 1 948 0
 468 0058 196B     		ldr	r1, [r3, #48]
 949:..\common\rtos/timers.c ****     }
 469              		.loc 1 949 0
 470 005a 1A63     		str	r2, [r3, #48]
 948:..\common\rtos/timers.c ****         pxOverflowTimerList = pxTemp;
 471              		.loc 1 948 0
 472 005c D962     		str	r1, [r3, #44]
 950:..\common\rtos/timers.c **** /*-----------------------------------------------------------*/
 473              		.loc 1 950 0
 474 005e 03B0     		add	sp, sp, #12
 475              		.cfi_def_cfa_offset 28
 476              		@ sp needed
 477 0060 BDE8F083 		pop	{r4, r5, r6, r7, r8, r9, pc}
 478              	.L50:
 479              		.align	2
 480              	.L49:
 481 0064 00000000 		.word	.LANCHOR0
 482              		.cfi_endproc
 483              	.LFE85:
 484              		.size	prvSwitchTimerLists, .-prvSwitchTimerLists
 485              		.section	.text.prvTimerTask,"ax",%progbits
 486              		.align	1
 487              		.thumb
 488              		.thumb_func
 489              		.type	prvTimerTask, %function
 490              	prvTimerTask:
 491              	.LFB79:
 552:..\common\rtos/timers.c ****         TickType_t xNextExpireTime;
 492              		.loc 1 552 0
 493              		.cfi_startproc
 494              		@ args = 0, pretend = 0, frame = 16
 495              		@ frame_needed = 0, uses_anonymous_args = 0
 496              	.LVL48:
 497 0000 2DE9F043 		push	{r4, r5, r6, r7, r8, r9, lr}
 498              		.cfi_def_cfa_offset 28
 499              		.cfi_offset 4, -28
 500              		.cfi_offset 5, -24
 501              		.cfi_offset 6, -20
 502              		.cfi_offset 7, -16
 503              		.cfi_offset 8, -12
 504              		.cfi_offset 9, -8
 505              		.cfi_offset 14, -4
 506 0004 87B0     		sub	sp, sp, #28
 507              		.cfi_def_cfa_offset 56
 508              	.LVL49:
 509              	.L75:
 510              	.LBB22:
 511              	.LBB23:
 660:..\common\rtos/timers.c **** 
 512              		.loc 1 660 0 discriminator 1
 513 0006 634E     		ldr	r6, .L90
 514 0008 F36A     		ldr	r3, [r6, #44]
ARM GAS  C:\Users\chemi\AppData\Local\Temp\ccWFGUfC.s 			page 29


 515 000a B046     		mov	r8, r6
 516 000c 1D68     		ldr	r5, [r3]
 517 000e 002D     		cmp	r5, #0
 518 0010 40F0BB80 		bne	.L52
 660:..\common\rtos/timers.c **** 
 519              		.loc 1 660 0 is_stmt 0
 520 0014 0124     		movs	r4, #1
 521              	.L76:
 522              	.LVL50:
 523              	.LBE23:
 524              	.LBE22:
 525              	.LBB25:
 526              	.LBB26:
 593:..\common\rtos/timers.c ****         {
 527              		.loc 1 593 0 is_stmt 1
 528 0016 FFF7FEFF 		bl	vTaskSuspendAll
 529              	.LVL51:
 530              	.LBB27:
 531              	.LBB28:
 681:..\common\rtos/timers.c **** 
 532              		.loc 1 681 0
 533 001a FFF7FEFF 		bl	xTaskGetTickCount
 534              	.LVL52:
 683:..\common\rtos/timers.c ****         {
 535              		.loc 1 683 0
 536 001e B36B     		ldr	r3, [r6, #56]
 681:..\common\rtos/timers.c **** 
 537              		.loc 1 681 0
 538 0020 0746     		mov	r7, r0
 539              	.LVL53:
 683:..\common\rtos/timers.c ****         {
 540              		.loc 1 683 0
 541 0022 9842     		cmp	r0, r3
 542 0024 03D2     		bcs	.L77
 685:..\common\rtos/timers.c ****             *pxTimerListsWereSwitched = pdTRUE;
 543              		.loc 1 685 0
 544 0026 FFF7FEFF 		bl	prvSwitchTimerLists
 545              	.LVL54:
 686:..\common\rtos/timers.c ****         }
 546              		.loc 1 686 0
 547 002a 0123     		movs	r3, #1
 548 002c 00E0     		b	.L53
 549              	.LVL55:
 550              	.L77:
 690:..\common\rtos/timers.c ****         }
 551              		.loc 1 690 0
 552 002e 0023     		movs	r3, #0
 553              	.LVL56:
 554              	.L53:
 693:..\common\rtos/timers.c **** 
 555              		.loc 1 693 0
 556 0030 DFF86091 		ldr	r9, .L90
 557 0034 B763     		str	r7, [r6, #56]
 558              	.LVL57:
 559              	.LBE28:
 560              	.LBE27:
 602:..\common\rtos/timers.c ****             {
ARM GAS  C:\Users\chemi\AppData\Local\Temp\ccWFGUfC.s 			page 30


 561              		.loc 1 602 0
 562 0036 002B     		cmp	r3, #0
 563 0038 3ED1     		bne	.L54
 564              	.LVL58:
 605:..\common\rtos/timers.c ****                 {
 565              		.loc 1 605 0
 566 003a 34BB     		cbnz	r4, .L55
 567 003c AF42     		cmp	r7, r5
 568 003e 2AD3     		bcc	.L56
 607:..\common\rtos/timers.c ****                     prvProcessExpiredTimer( xNextExpireTime, xTimeNow );
 569              		.loc 1 607 0
 570 0040 FFF7FEFF 		bl	xTaskResumeAll
 571              	.LVL59:
 572              	.LBB29:
 573              	.LBB30:
 512:..\common\rtos/timers.c **** 
 574              		.loc 1 512 0
 575 0044 D9F82C30 		ldr	r3, [r9, #44]
 576 0048 DB68     		ldr	r3, [r3, #12]
 577 004a DE68     		ldr	r6, [r3, #12]
 578              	.LVL60:
 517:..\common\rtos/timers.c ****         traceTIMER_EXPIRED( pxTimer );
 579              		.loc 1 517 0
 580 004c 301D     		adds	r0, r6, #4
 581 004e FFF7FEFF 		bl	uxListRemove
 582              	.LVL61:
 522:..\common\rtos/timers.c ****         {
 583              		.loc 1 522 0
 584 0052 96F82830 		ldrb	r3, [r6, #40]	@ zero_extendqisi2
 585 0056 5807     		lsls	r0, r3, #29
 586 0058 0FD5     		bpl	.L57
 527:..\common\rtos/timers.c ****             {
 587              		.loc 1 527 0
 588 005a B169     		ldr	r1, [r6, #24]
 589 005c 2B46     		mov	r3, r5
 590 005e 3A46     		mov	r2, r7
 591 0060 2944     		add	r1, r1, r5
 592 0062 3046     		mov	r0, r6
 593 0064 FFF7FEFF 		bl	prvInsertTimerInActiveList
 594              	.LVL62:
 595 0068 58B1     		cbz	r0, .L58
 531:..\common\rtos/timers.c ****                 configASSERT( xResult );
 596              		.loc 1 531 0
 597 006a 0094     		str	r4, [sp]
 598 006c 2346     		mov	r3, r4
 599 006e 2A46     		mov	r2, r5
 600 0070 2146     		mov	r1, r4
 601 0072 3046     		mov	r0, r6
 602 0074 FFF7FEFF 		bl	xTimerGenericCommand
 603              	.LVL63:
 604 0078 03E0     		b	.L58
 605              	.L57:
 542:..\common\rtos/timers.c ****             mtCOVERAGE_TEST_MARKER();
 606              		.loc 1 542 0
 607 007a 23F00103 		bic	r3, r3, #1
 608 007e 86F82830 		strb	r3, [r6, #40]
 609              	.L58:
ARM GAS  C:\Users\chemi\AppData\Local\Temp\ccWFGUfC.s 			page 31


 547:..\common\rtos/timers.c ****     }
 610              		.loc 1 547 0
 611 0082 336A     		ldr	r3, [r6, #32]
 612 0084 3046     		mov	r0, r6
 613 0086 9847     		blx	r3
 614              	.LVL64:
 615 0088 1CE0     		b	.L61
 616              	.LVL65:
 617              	.L55:
 618              	.LBE30:
 619              	.LBE29:
 622:..\common\rtos/timers.c ****                     }
 620              		.loc 1 622 0
 621 008a D9F83030 		ldr	r3, [r9, #48]
 622 008e 1C68     		ldr	r4, [r3]
 623              	.LVL66:
 624 0090 B4FA84F4 		clz	r4, r4
 625 0094 6409     		lsrs	r4, r4, #5
 626              	.L56:
 627              	.LVL67:
 625:..\common\rtos/timers.c **** 
 628              		.loc 1 625 0
 629 0096 2246     		mov	r2, r4
 630 0098 E91B     		subs	r1, r5, r7
 631 009a 3068     		ldr	r0, [r6]
 632 009c FFF7FEFF 		bl	vQueueWaitForMessageRestricted
 633              	.LVL68:
 627:..\common\rtos/timers.c ****                     {
 634              		.loc 1 627 0
 635 00a0 FFF7FEFF 		bl	xTaskResumeAll
 636              	.LVL69:
 637 00a4 70B9     		cbnz	r0, .L61
 633:..\common\rtos/timers.c ****                     }
 638              		.loc 1 633 0
 639 00a6 3C4B     		ldr	r3, .L90+4
 640 00a8 4FF08052 		mov	r2, #268435456
 641 00ac 1A60     		str	r2, [r3]
 642              		.syntax unified
 643              	@ 633 "..\common\rtos\timers.c" 1
 644 00ae BFF34F8F 		dsb
 645              	@ 0 "" 2
 646              	@ 633 "..\common\rtos\timers.c" 1
 647 00b2 BFF36F8F 		isb
 648              	@ 0 "" 2
 649              		.thumb
 650              		.syntax unified
 651 00b6 05E0     		b	.L61
 652              	.LVL70:
 653              	.L54:
 643:..\common\rtos/timers.c ****             }
 654              		.loc 1 643 0
 655 00b8 FFF7FEFF 		bl	xTaskResumeAll
 656              	.LVL71:
 657 00bc 02E0     		b	.L61
 658              	.LVL72:
 659              	.L74:
 660              	.LBE26:
ARM GAS  C:\Users\chemi\AppData\Local\Temp\ccWFGUfC.s 			page 32


 661              	.LBE25:
 662              	.LBB31:
 663              	.LBB32:
 776:..\common\rtos/timers.c ****             {
 664              		.loc 1 776 0
 665 00be 039B     		ldr	r3, [sp, #12]
 666 00c0 002B     		cmp	r3, #0
 667 00c2 08DA     		bge	.L89
 668              	.L61:
 750:..\common\rtos/timers.c ****         {
 669              		.loc 1 750 0
 670 00c4 0022     		movs	r2, #0
 671 00c6 03A9     		add	r1, sp, #12
 672 00c8 D8F80000 		ldr	r0, [r8]
 673 00cc FFF7FEFF 		bl	xQueueReceive
 674              	.LVL73:
 675 00d0 0028     		cmp	r0, #0
 676 00d2 F4D1     		bne	.L74
 677 00d4 97E7     		b	.L75
 678              	.L89:
 780:..\common\rtos/timers.c **** 
 679              		.loc 1 780 0
 680 00d6 059C     		ldr	r4, [sp, #20]
 681              	.LVL74:
 782:..\common\rtos/timers.c ****                 {
 682              		.loc 1 782 0
 683 00d8 6369     		ldr	r3, [r4, #20]
 684 00da 13B1     		cbz	r3, .L62
 785:..\common\rtos/timers.c ****                 }
 685              		.loc 1 785 0
 686 00dc 201D     		adds	r0, r4, #4
 687 00de FFF7FEFF 		bl	uxListRemove
 688              	.LVL75:
 689              	.L62:
 690              	.LBB33:
 691              	.LBB34:
 681:..\common\rtos/timers.c **** 
 692              		.loc 1 681 0
 693 00e2 FFF7FEFF 		bl	xTaskGetTickCount
 694              	.LVL76:
 683:..\common\rtos/timers.c ****         {
 695              		.loc 1 683 0
 696 00e6 D8F83830 		ldr	r3, [r8, #56]
 681:..\common\rtos/timers.c **** 
 697              		.loc 1 681 0
 698 00ea 0546     		mov	r5, r0
 699              	.LVL77:
 683:..\common\rtos/timers.c ****         {
 700              		.loc 1 683 0
 701 00ec 9842     		cmp	r0, r3
 702 00ee 01D2     		bcs	.L63
 685:..\common\rtos/timers.c ****             *pxTimerListsWereSwitched = pdTRUE;
 703              		.loc 1 685 0
 704 00f0 FFF7FEFF 		bl	prvSwitchTimerLists
 705              	.LVL78:
 706              	.L63:
 707              	.LBE34:
ARM GAS  C:\Users\chemi\AppData\Local\Temp\ccWFGUfC.s 			page 33


 708              	.LBE33:
 802:..\common\rtos/timers.c ****                 {
 709              		.loc 1 802 0
 710 00f4 039B     		ldr	r3, [sp, #12]
 711              	.LBB36:
 712              	.LBB35:
 693:..\common\rtos/timers.c **** 
 713              		.loc 1 693 0
 714 00f6 C8F83850 		str	r5, [r8, #56]
 715              	.LVL79:
 716              	.LBE35:
 717              	.LBE36:
 802:..\common\rtos/timers.c ****                 {
 718              		.loc 1 802 0
 719 00fa 092B     		cmp	r3, #9
 720 00fc E2D8     		bhi	.L61
 721 00fe DFE803F0 		tbb	[pc, r3]
 722              	.L66:
 723 0102 05       		.byte	(.L65-.L66)/2
 724 0103 05       		.byte	(.L65-.L66)/2
 725 0104 05       		.byte	(.L65-.L66)/2
 726 0105 25       		.byte	(.L67-.L66)/2
 727 0106 28       		.byte	(.L68-.L66)/2
 728 0107 37       		.byte	(.L69-.L66)/2
 729 0108 05       		.byte	(.L65-.L66)/2
 730 0109 05       		.byte	(.L65-.L66)/2
 731 010a 25       		.byte	(.L67-.L66)/2
 732 010b 28       		.byte	(.L68-.L66)/2
 733              		.p2align 1
 734              	.L65:
 810:..\common\rtos/timers.c **** 
 735              		.loc 1 810 0
 736 010c 94F82830 		ldrb	r3, [r4, #40]	@ zero_extendqisi2
 812:..\common\rtos/timers.c ****                         {
 737              		.loc 1 812 0
 738 0110 A169     		ldr	r1, [r4, #24]
 810:..\common\rtos/timers.c **** 
 739              		.loc 1 810 0
 740 0112 43F00103 		orr	r3, r3, #1
 741 0116 84F82830 		strb	r3, [r4, #40]
 812:..\common\rtos/timers.c ****                         {
 742              		.loc 1 812 0
 743 011a 049B     		ldr	r3, [sp, #16]
 744 011c 2A46     		mov	r2, r5
 745 011e 1944     		add	r1, r1, r3
 746 0120 2046     		mov	r0, r4
 747 0122 FFF7FEFF 		bl	prvInsertTimerInActiveList
 748              	.LVL80:
 749 0126 0028     		cmp	r0, #0
 750 0128 CCD0     		beq	.L61
 816:..\common\rtos/timers.c ****                             traceTIMER_EXPIRED( pxTimer );
 751              		.loc 1 816 0
 752 012a 236A     		ldr	r3, [r4, #32]
 753 012c 2046     		mov	r0, r4
 754 012e 9847     		blx	r3
 755              	.LVL81:
 819:..\common\rtos/timers.c ****                             {
ARM GAS  C:\Users\chemi\AppData\Local\Temp\ccWFGUfC.s 			page 34


 756              		.loc 1 819 0
 757 0130 94F82830 		ldrb	r3, [r4, #40]	@ zero_extendqisi2
 758 0134 5907     		lsls	r1, r3, #29
 759 0136 C5D5     		bpl	.L61
 821:..\common\rtos/timers.c ****                                 configASSERT( xResult );
 760              		.loc 1 821 0
 761 0138 A269     		ldr	r2, [r4, #24]
 762 013a 0499     		ldr	r1, [sp, #16]
 763 013c 0023     		movs	r3, #0
 764 013e 0A44     		add	r2, r2, r1
 765 0140 0093     		str	r3, [sp]
 766 0142 1946     		mov	r1, r3
 767 0144 2046     		mov	r0, r4
 768 0146 FFF7FEFF 		bl	xTimerGenericCommand
 769              	.LVL82:
 770 014a BBE7     		b	.L61
 771              	.L67:
 840:..\common\rtos/timers.c ****                         break;
 772              		.loc 1 840 0
 773 014c 94F82830 		ldrb	r3, [r4, #40]	@ zero_extendqisi2
 774 0150 16E0     		b	.L73
 775              	.L68:
 845:..\common\rtos/timers.c ****                         pxTimer->xTimerPeriodInTicks = xMessage.u.xTimerParameters.xMessageValue;
 776              		.loc 1 845 0
 777 0152 94F82830 		ldrb	r3, [r4, #40]	@ zero_extendqisi2
 846:..\common\rtos/timers.c ****                         configASSERT( ( pxTimer->xTimerPeriodInTicks > 0 ) );
 778              		.loc 1 846 0
 779 0156 0499     		ldr	r1, [sp, #16]
 845:..\common\rtos/timers.c ****                         pxTimer->xTimerPeriodInTicks = xMessage.u.xTimerParameters.xMessageValue;
 780              		.loc 1 845 0
 781 0158 43F00103 		orr	r3, r3, #1
 782 015c 84F82830 		strb	r3, [r4, #40]
 846:..\common\rtos/timers.c ****                         configASSERT( ( pxTimer->xTimerPeriodInTicks > 0 ) );
 783              		.loc 1 846 0
 784 0160 A161     		str	r1, [r4, #24]
 855:..\common\rtos/timers.c ****                         break;
 785              		.loc 1 855 0
 786 0162 2B46     		mov	r3, r5
 787 0164 2A46     		mov	r2, r5
 788 0166 2944     		add	r1, r1, r5
 789 0168 2046     		mov	r0, r4
 790 016a FFF7FEFF 		bl	prvInsertTimerInActiveList
 791              	.LVL83:
 792 016e A9E7     		b	.L61
 793              	.L69:
 864:..\common\rtos/timers.c ****                                 {
 794              		.loc 1 864 0
 795 0170 94F82830 		ldrb	r3, [r4, #40]	@ zero_extendqisi2
 796 0174 9A07     		lsls	r2, r3, #30
 797 0176 03D4     		bmi	.L73
 866:..\common\rtos/timers.c ****                                 }
 798              		.loc 1 866 0
 799 0178 2046     		mov	r0, r4
 800 017a FFF7FEFF 		bl	vPortFree
 801              	.LVL84:
 802 017e A1E7     		b	.L61
 803              	.L73:
ARM GAS  C:\Users\chemi\AppData\Local\Temp\ccWFGUfC.s 			page 35


 870:..\common\rtos/timers.c ****                                 }
 804              		.loc 1 870 0
 805 0180 23F00103 		bic	r3, r3, #1
 806 0184 84F82830 		strb	r3, [r4, #40]
 807 0188 9CE7     		b	.L61
 808              	.LVL85:
 809              	.L52:
 810              	.LBE32:
 811              	.LBE31:
 812              	.LBB37:
 813              	.LBB24:
 664:..\common\rtos/timers.c ****         }
 814              		.loc 1 664 0
 815 018a DB68     		ldr	r3, [r3, #12]
 660:..\common\rtos/timers.c **** 
 816              		.loc 1 660 0
 817 018c 0024     		movs	r4, #0
 664:..\common\rtos/timers.c ****         }
 818              		.loc 1 664 0
 819 018e 1D68     		ldr	r5, [r3]
 820              	.LVL86:
 821 0190 41E7     		b	.L76
 822              	.L91:
 823 0192 00BF     		.align	2
 824              	.L90:
 825 0194 00000000 		.word	.LANCHOR0
 826 0198 04ED00E0 		.word	-536810236
 827              	.LBE24:
 828              	.LBE37:
 829              		.cfi_endproc
 830              	.LFE79:
 831              		.size	prvTimerTask, .-prvTimerTask
 832              		.section	.text.xTimerGetTimerDaemonTaskHandle,"ax",%progbits
 833              		.align	1
 834              		.global	xTimerGetTimerDaemonTaskHandle
 835              		.thumb
 836              		.thumb_func
 837              		.type	xTimerGetTimerDaemonTaskHandle, %function
 838              	xTimerGetTimerDaemonTaskHandle:
 839              	.LFB72:
 425:..\common\rtos/timers.c ****         /* If xTimerGetTimerDaemonTaskHandle() is called before the scheduler has been
 840              		.loc 1 425 0
 841              		.cfi_startproc
 842              		@ args = 0, pretend = 0, frame = 0
 843              		@ frame_needed = 0, uses_anonymous_args = 0
 844              		@ link register save eliminated.
 430:..\common\rtos/timers.c **** /*-----------------------------------------------------------*/
 845              		.loc 1 430 0
 846 0000 014B     		ldr	r3, .L93
 847 0002 586B     		ldr	r0, [r3, #52]
 848 0004 7047     		bx	lr
 849              	.L94:
 850 0006 00BF     		.align	2
 851              	.L93:
 852 0008 00000000 		.word	.LANCHOR0
 853              		.cfi_endproc
 854              	.LFE72:
ARM GAS  C:\Users\chemi\AppData\Local\Temp\ccWFGUfC.s 			page 36


 855              		.size	xTimerGetTimerDaemonTaskHandle, .-xTimerGetTimerDaemonTaskHandle
 856              		.section	.text.xTimerGetPeriod,"ax",%progbits
 857              		.align	1
 858              		.global	xTimerGetPeriod
 859              		.thumb
 860              		.thumb_func
 861              		.type	xTimerGetPeriod, %function
 862              	xTimerGetPeriod:
 863              	.LFB73:
 434:..\common\rtos/timers.c ****         Timer_t * pxTimer = xTimer;
 864              		.loc 1 434 0
 865              		.cfi_startproc
 866              		@ args = 0, pretend = 0, frame = 0
 867              		@ frame_needed = 0, uses_anonymous_args = 0
 868              		@ link register save eliminated.
 869              	.LVL87:
 439:..\common\rtos/timers.c **** /*-----------------------------------------------------------*/
 870              		.loc 1 439 0
 871 0000 8069     		ldr	r0, [r0, #24]
 872              	.LVL88:
 873 0002 7047     		bx	lr
 874              		.cfi_endproc
 875              	.LFE73:
 876              		.size	xTimerGetPeriod, .-xTimerGetPeriod
 877              		.section	.text.vTimerSetReloadMode,"ax",%progbits
 878              		.align	1
 879              		.global	vTimerSetReloadMode
 880              		.thumb
 881              		.thumb_func
 882              		.type	vTimerSetReloadMode, %function
 883              	vTimerSetReloadMode:
 884              	.LFB74:
 444:..\common\rtos/timers.c ****         Timer_t * pxTimer = xTimer;
 885              		.loc 1 444 0
 886              		.cfi_startproc
 887              		@ args = 0, pretend = 0, frame = 0
 888              		@ frame_needed = 0, uses_anonymous_args = 0
 889              	.LVL89:
 890 0000 38B5     		push	{r3, r4, r5, lr}
 891              		.cfi_def_cfa_offset 16
 892              		.cfi_offset 3, -16
 893              		.cfi_offset 4, -12
 894              		.cfi_offset 5, -8
 895              		.cfi_offset 14, -4
 444:..\common\rtos/timers.c ****         Timer_t * pxTimer = xTimer;
 896              		.loc 1 444 0
 897 0002 0446     		mov	r4, r0
 898              	.LVL90:
 899 0004 0D46     		mov	r5, r1
 448:..\common\rtos/timers.c ****         {
 900              		.loc 1 448 0
 901 0006 FFF7FEFF 		bl	vPortEnterCritical
 902              	.LVL91:
 903 000a 94F82830 		ldrb	r3, [r4, #40]	@ zero_extendqisi2
 450:..\common\rtos/timers.c ****             {
 904              		.loc 1 450 0
 905 000e 15B1     		cbz	r5, .L97
ARM GAS  C:\Users\chemi\AppData\Local\Temp\ccWFGUfC.s 			page 37


 452:..\common\rtos/timers.c ****             }
 906              		.loc 1 452 0
 907 0010 43F00403 		orr	r3, r3, #4
 908 0014 01E0     		b	.L99
 909              	.L97:
 456:..\common\rtos/timers.c ****             }
 910              		.loc 1 456 0
 911 0016 23F00403 		bic	r3, r3, #4
 912              	.L99:
 913 001a 84F82830 		strb	r3, [r4, #40]
 460:..\common\rtos/timers.c **** /*-----------------------------------------------------------*/
 914              		.loc 1 460 0
 915 001e BDE83840 		pop	{r3, r4, r5, lr}
 916              		.cfi_restore 14
 917              		.cfi_restore 5
 918              		.cfi_restore 4
 919              		.cfi_restore 3
 920              		.cfi_def_cfa_offset 0
 921              	.LVL92:
 459:..\common\rtos/timers.c ****     }
 922              		.loc 1 459 0
 923 0022 FFF7FEBF 		b	vPortExitCritical
 924              	.LVL93:
 925              		.cfi_endproc
 926              	.LFE74:
 927              		.size	vTimerSetReloadMode, .-vTimerSetReloadMode
 928              		.section	.text.uxTimerGetReloadMode,"ax",%progbits
 929              		.align	1
 930              		.global	uxTimerGetReloadMode
 931              		.thumb
 932              		.thumb_func
 933              		.type	uxTimerGetReloadMode, %function
 934              	uxTimerGetReloadMode:
 935              	.LFB75:
 464:..\common\rtos/timers.c ****         Timer_t * pxTimer = xTimer;
 936              		.loc 1 464 0
 937              		.cfi_startproc
 938              		@ args = 0, pretend = 0, frame = 0
 939              		@ frame_needed = 0, uses_anonymous_args = 0
 940              	.LVL94:
 941 0000 10B5     		push	{r4, lr}
 942              		.cfi_def_cfa_offset 8
 943              		.cfi_offset 4, -8
 944              		.cfi_offset 14, -4
 464:..\common\rtos/timers.c ****         Timer_t * pxTimer = xTimer;
 945              		.loc 1 464 0
 946 0002 0446     		mov	r4, r0
 947              	.LVL95:
 469:..\common\rtos/timers.c ****         {
 948              		.loc 1 469 0
 949 0004 FFF7FEFF 		bl	vPortEnterCritical
 950              	.LVL96:
 474:..\common\rtos/timers.c ****             }
 951              		.loc 1 474 0
 952 0008 94F82840 		ldrb	r4, [r4, #40]	@ zero_extendqisi2
 953              	.LVL97:
 482:..\common\rtos/timers.c **** 
ARM GAS  C:\Users\chemi\AppData\Local\Temp\ccWFGUfC.s 			page 38


 954              		.loc 1 482 0
 955 000c FFF7FEFF 		bl	vPortExitCritical
 956              	.LVL98:
 474:..\common\rtos/timers.c ****             }
 957              		.loc 1 474 0
 958 0010 C4F38004 		ubfx	r4, r4, #2, #1
 959              	.LVL99:
 485:..\common\rtos/timers.c **** /*-----------------------------------------------------------*/
 960              		.loc 1 485 0
 961 0014 2046     		mov	r0, r4
 962 0016 10BD     		pop	{r4, pc}
 963              		.cfi_endproc
 964              	.LFE75:
 965              		.size	uxTimerGetReloadMode, .-uxTimerGetReloadMode
 966              		.section	.text.xTimerGetExpiryTime,"ax",%progbits
 967              		.align	1
 968              		.global	xTimerGetExpiryTime
 969              		.thumb
 970              		.thumb_func
 971              		.type	xTimerGetExpiryTime, %function
 972              	xTimerGetExpiryTime:
 973              	.LFB76:
 489:..\common\rtos/timers.c ****         Timer_t * pxTimer = xTimer;
 974              		.loc 1 489 0
 975              		.cfi_startproc
 976              		@ args = 0, pretend = 0, frame = 0
 977              		@ frame_needed = 0, uses_anonymous_args = 0
 978              		@ link register save eliminated.
 979              	.LVL100:
 496:..\common\rtos/timers.c **** /*-----------------------------------------------------------*/
 980              		.loc 1 496 0
 981 0000 4068     		ldr	r0, [r0, #4]
 982              	.LVL101:
 983 0002 7047     		bx	lr
 984              		.cfi_endproc
 985              	.LFE76:
 986              		.size	xTimerGetExpiryTime, .-xTimerGetExpiryTime
 987              		.section	.text.pcTimerGetName,"ax",%progbits
 988              		.align	1
 989              		.global	pcTimerGetName
 990              		.thumb
 991              		.thumb_func
 992              		.type	pcTimerGetName, %function
 993              	pcTimerGetName:
 994              	.LFB77:
 500:..\common\rtos/timers.c ****         Timer_t * pxTimer = xTimer;
 995              		.loc 1 500 0
 996              		.cfi_startproc
 997              		@ args = 0, pretend = 0, frame = 0
 998              		@ frame_needed = 0, uses_anonymous_args = 0
 999              		@ link register save eliminated.
 1000              	.LVL102:
 505:..\common\rtos/timers.c **** /*-----------------------------------------------------------*/
 1001              		.loc 1 505 0
 1002 0000 0068     		ldr	r0, [r0]
 1003              	.LVL103:
 1004 0002 7047     		bx	lr
ARM GAS  C:\Users\chemi\AppData\Local\Temp\ccWFGUfC.s 			page 39


 1005              		.cfi_endproc
 1006              	.LFE77:
 1007              		.size	pcTimerGetName, .-pcTimerGetName
 1008              		.section	.text.xTimerIsTimerActive,"ax",%progbits
 1009              		.align	1
 1010              		.global	xTimerIsTimerActive
 1011              		.thumb
 1012              		.thumb_func
 1013              		.type	xTimerIsTimerActive, %function
 1014              	xTimerIsTimerActive:
 1015              	.LFB87:
1002:..\common\rtos/timers.c **** /*-----------------------------------------------------------*/
1003:..\common\rtos/timers.c **** 
1004:..\common\rtos/timers.c ****     BaseType_t xTimerIsTimerActive( TimerHandle_t xTimer )
1005:..\common\rtos/timers.c ****     {
 1016              		.loc 1 1005 0
 1017              		.cfi_startproc
 1018              		@ args = 0, pretend = 0, frame = 0
 1019              		@ frame_needed = 0, uses_anonymous_args = 0
 1020              	.LVL104:
 1021 0000 10B5     		push	{r4, lr}
 1022              		.cfi_def_cfa_offset 8
 1023              		.cfi_offset 4, -8
 1024              		.cfi_offset 14, -4
 1025              		.loc 1 1005 0
 1026 0002 0446     		mov	r4, r0
 1027              	.LVL105:
1006:..\common\rtos/timers.c ****         BaseType_t xReturn;
1007:..\common\rtos/timers.c ****         Timer_t * pxTimer = xTimer;
1008:..\common\rtos/timers.c **** 
1009:..\common\rtos/timers.c ****         configASSERT( xTimer );
1010:..\common\rtos/timers.c **** 
1011:..\common\rtos/timers.c ****         /* Is the timer in the list of active timers? */
1012:..\common\rtos/timers.c ****         taskENTER_CRITICAL();
 1028              		.loc 1 1012 0
 1029 0004 FFF7FEFF 		bl	vPortEnterCritical
 1030              	.LVL106:
1013:..\common\rtos/timers.c ****         {
1014:..\common\rtos/timers.c ****             if( ( pxTimer->ucStatus & tmrSTATUS_IS_ACTIVE ) == 0 )
1015:..\common\rtos/timers.c ****             {
1016:..\common\rtos/timers.c ****                 xReturn = pdFALSE;
 1031              		.loc 1 1016 0
 1032 0008 94F82840 		ldrb	r4, [r4, #40]	@ zero_extendqisi2
 1033              	.LVL107:
1017:..\common\rtos/timers.c ****             }
1018:..\common\rtos/timers.c ****             else
1019:..\common\rtos/timers.c ****             {
1020:..\common\rtos/timers.c ****                 xReturn = pdTRUE;
1021:..\common\rtos/timers.c ****             }
1022:..\common\rtos/timers.c ****         }
1023:..\common\rtos/timers.c ****         taskEXIT_CRITICAL();
 1034              		.loc 1 1023 0
 1035 000c FFF7FEFF 		bl	vPortExitCritical
 1036              	.LVL108:
1016:..\common\rtos/timers.c ****             }
 1037              		.loc 1 1016 0
 1038 0010 04F00104 		and	r4, r4, #1
ARM GAS  C:\Users\chemi\AppData\Local\Temp\ccWFGUfC.s 			page 40


 1039              	.LVL109:
1024:..\common\rtos/timers.c **** 
1025:..\common\rtos/timers.c ****         return xReturn;
1026:..\common\rtos/timers.c ****     } /*lint !e818 Can't be pointer to const due to the typedef. */
 1040              		.loc 1 1026 0
 1041 0014 2046     		mov	r0, r4
 1042 0016 10BD     		pop	{r4, pc}
 1043              		.cfi_endproc
 1044              	.LFE87:
 1045              		.size	xTimerIsTimerActive, .-xTimerIsTimerActive
 1046              		.section	.text.pvTimerGetTimerID,"ax",%progbits
 1047              		.align	1
 1048              		.global	pvTimerGetTimerID
 1049              		.thumb
 1050              		.thumb_func
 1051              		.type	pvTimerGetTimerID, %function
 1052              	pvTimerGetTimerID:
 1053              	.LFB88:
1027:..\common\rtos/timers.c **** /*-----------------------------------------------------------*/
1028:..\common\rtos/timers.c **** 
1029:..\common\rtos/timers.c ****     void * pvTimerGetTimerID( const TimerHandle_t xTimer )
1030:..\common\rtos/timers.c ****     {
 1054              		.loc 1 1030 0
 1055              		.cfi_startproc
 1056              		@ args = 0, pretend = 0, frame = 0
 1057              		@ frame_needed = 0, uses_anonymous_args = 0
 1058              	.LVL110:
 1059 0000 10B5     		push	{r4, lr}
 1060              		.cfi_def_cfa_offset 8
 1061              		.cfi_offset 4, -8
 1062              		.cfi_offset 14, -4
 1063              		.loc 1 1030 0
 1064 0002 0446     		mov	r4, r0
 1065              	.LVL111:
1031:..\common\rtos/timers.c ****         Timer_t * const pxTimer = xTimer;
1032:..\common\rtos/timers.c ****         void * pvReturn;
1033:..\common\rtos/timers.c **** 
1034:..\common\rtos/timers.c ****         configASSERT( xTimer );
1035:..\common\rtos/timers.c **** 
1036:..\common\rtos/timers.c ****         taskENTER_CRITICAL();
 1066              		.loc 1 1036 0
 1067 0004 FFF7FEFF 		bl	vPortEnterCritical
 1068              	.LVL112:
1037:..\common\rtos/timers.c ****         {
1038:..\common\rtos/timers.c ****             pvReturn = pxTimer->pvTimerID;
 1069              		.loc 1 1038 0
 1070 0008 E469     		ldr	r4, [r4, #28]
 1071              	.LVL113:
1039:..\common\rtos/timers.c ****         }
1040:..\common\rtos/timers.c ****         taskEXIT_CRITICAL();
 1072              		.loc 1 1040 0
 1073 000a FFF7FEFF 		bl	vPortExitCritical
 1074              	.LVL114:
1041:..\common\rtos/timers.c **** 
1042:..\common\rtos/timers.c ****         return pvReturn;
1043:..\common\rtos/timers.c ****     }
 1075              		.loc 1 1043 0
ARM GAS  C:\Users\chemi\AppData\Local\Temp\ccWFGUfC.s 			page 41


 1076 000e 2046     		mov	r0, r4
 1077 0010 10BD     		pop	{r4, pc}
 1078              		.cfi_endproc
 1079              	.LFE88:
 1080              		.size	pvTimerGetTimerID, .-pvTimerGetTimerID
 1081              		.section	.text.vTimerSetTimerID,"ax",%progbits
 1082              		.align	1
 1083              		.global	vTimerSetTimerID
 1084              		.thumb
 1085              		.thumb_func
 1086              		.type	vTimerSetTimerID, %function
 1087              	vTimerSetTimerID:
 1088              	.LFB89:
1044:..\common\rtos/timers.c **** /*-----------------------------------------------------------*/
1045:..\common\rtos/timers.c **** 
1046:..\common\rtos/timers.c ****     void vTimerSetTimerID( TimerHandle_t xTimer,
1047:..\common\rtos/timers.c ****                            void * pvNewID )
1048:..\common\rtos/timers.c ****     {
 1089              		.loc 1 1048 0
 1090              		.cfi_startproc
 1091              		@ args = 0, pretend = 0, frame = 0
 1092              		@ frame_needed = 0, uses_anonymous_args = 0
 1093              	.LVL115:
 1094 0000 38B5     		push	{r3, r4, r5, lr}
 1095              		.cfi_def_cfa_offset 16
 1096              		.cfi_offset 3, -16
 1097              		.cfi_offset 4, -12
 1098              		.cfi_offset 5, -8
 1099              		.cfi_offset 14, -4
 1100              		.loc 1 1048 0
 1101 0002 0446     		mov	r4, r0
 1102              	.LVL116:
 1103 0004 0D46     		mov	r5, r1
1049:..\common\rtos/timers.c ****         Timer_t * const pxTimer = xTimer;
1050:..\common\rtos/timers.c **** 
1051:..\common\rtos/timers.c ****         configASSERT( xTimer );
1052:..\common\rtos/timers.c **** 
1053:..\common\rtos/timers.c ****         taskENTER_CRITICAL();
 1104              		.loc 1 1053 0
 1105 0006 FFF7FEFF 		bl	vPortEnterCritical
 1106              	.LVL117:
1054:..\common\rtos/timers.c ****         {
1055:..\common\rtos/timers.c ****             pxTimer->pvTimerID = pvNewID;
 1107              		.loc 1 1055 0
 1108 000a E561     		str	r5, [r4, #28]
1056:..\common\rtos/timers.c ****         }
1057:..\common\rtos/timers.c ****         taskEXIT_CRITICAL();
1058:..\common\rtos/timers.c ****     }
 1109              		.loc 1 1058 0
 1110 000c BDE83840 		pop	{r3, r4, r5, lr}
 1111              		.cfi_restore 14
 1112              		.cfi_restore 5
 1113              		.cfi_restore 4
 1114              		.cfi_restore 3
 1115              		.cfi_def_cfa_offset 0
 1116              	.LVL118:
1057:..\common\rtos/timers.c ****     }
ARM GAS  C:\Users\chemi\AppData\Local\Temp\ccWFGUfC.s 			page 42


 1117              		.loc 1 1057 0
 1118 0010 FFF7FEBF 		b	vPortExitCritical
 1119              	.LVL119:
 1120              		.cfi_endproc
 1121              	.LFE89:
 1122              		.size	vTimerSetTimerID, .-vTimerSetTimerID
 1123              		.section	.text.uxTimerGetTimerNumber,"ax",%progbits
 1124              		.align	1
 1125              		.global	uxTimerGetTimerNumber
 1126              		.thumb
 1127              		.thumb_func
 1128              		.type	uxTimerGetTimerNumber, %function
 1129              	uxTimerGetTimerNumber:
 1130              	.LFB90:
1059:..\common\rtos/timers.c **** /*-----------------------------------------------------------*/
1060:..\common\rtos/timers.c **** 
1061:..\common\rtos/timers.c ****     #if ( INCLUDE_xTimerPendFunctionCall == 1 )
1062:..\common\rtos/timers.c **** 
1063:..\common\rtos/timers.c ****         BaseType_t xTimerPendFunctionCallFromISR( PendedFunction_t xFunctionToPend,
1064:..\common\rtos/timers.c ****                                                   void * pvParameter1,
1065:..\common\rtos/timers.c ****                                                   uint32_t ulParameter2,
1066:..\common\rtos/timers.c ****                                                   BaseType_t * pxHigherPriorityTaskWoken )
1067:..\common\rtos/timers.c ****         {
1068:..\common\rtos/timers.c ****             DaemonTaskMessage_t xMessage;
1069:..\common\rtos/timers.c ****             BaseType_t xReturn;
1070:..\common\rtos/timers.c **** 
1071:..\common\rtos/timers.c ****             /* Complete the message with the function parameters and post it to the
1072:..\common\rtos/timers.c ****              * daemon task. */
1073:..\common\rtos/timers.c ****             xMessage.xMessageID = tmrCOMMAND_EXECUTE_CALLBACK_FROM_ISR;
1074:..\common\rtos/timers.c ****             xMessage.u.xCallbackParameters.pxCallbackFunction = xFunctionToPend;
1075:..\common\rtos/timers.c ****             xMessage.u.xCallbackParameters.pvParameter1 = pvParameter1;
1076:..\common\rtos/timers.c ****             xMessage.u.xCallbackParameters.ulParameter2 = ulParameter2;
1077:..\common\rtos/timers.c **** 
1078:..\common\rtos/timers.c ****             xReturn = xQueueSendFromISR( xTimerQueue, &xMessage, pxHigherPriorityTaskWoken );
1079:..\common\rtos/timers.c **** 
1080:..\common\rtos/timers.c ****             tracePEND_FUNC_CALL_FROM_ISR( xFunctionToPend, pvParameter1, ulParameter2, xReturn );
1081:..\common\rtos/timers.c **** 
1082:..\common\rtos/timers.c ****             return xReturn;
1083:..\common\rtos/timers.c ****         }
1084:..\common\rtos/timers.c **** 
1085:..\common\rtos/timers.c ****     #endif /* INCLUDE_xTimerPendFunctionCall */
1086:..\common\rtos/timers.c **** /*-----------------------------------------------------------*/
1087:..\common\rtos/timers.c **** 
1088:..\common\rtos/timers.c ****     #if ( INCLUDE_xTimerPendFunctionCall == 1 )
1089:..\common\rtos/timers.c **** 
1090:..\common\rtos/timers.c ****         BaseType_t xTimerPendFunctionCall( PendedFunction_t xFunctionToPend,
1091:..\common\rtos/timers.c ****                                            void * pvParameter1,
1092:..\common\rtos/timers.c ****                                            uint32_t ulParameter2,
1093:..\common\rtos/timers.c ****                                            TickType_t xTicksToWait )
1094:..\common\rtos/timers.c ****         {
1095:..\common\rtos/timers.c ****             DaemonTaskMessage_t xMessage;
1096:..\common\rtos/timers.c ****             BaseType_t xReturn;
1097:..\common\rtos/timers.c **** 
1098:..\common\rtos/timers.c ****             /* This function can only be called after a timer has been created or
1099:..\common\rtos/timers.c ****              * after the scheduler has been started because, until then, the timer
1100:..\common\rtos/timers.c ****              * queue does not exist. */
1101:..\common\rtos/timers.c ****             configASSERT( xTimerQueue );
ARM GAS  C:\Users\chemi\AppData\Local\Temp\ccWFGUfC.s 			page 43


1102:..\common\rtos/timers.c **** 
1103:..\common\rtos/timers.c ****             /* Complete the message with the function parameters and post it to the
1104:..\common\rtos/timers.c ****              * daemon task. */
1105:..\common\rtos/timers.c ****             xMessage.xMessageID = tmrCOMMAND_EXECUTE_CALLBACK;
1106:..\common\rtos/timers.c ****             xMessage.u.xCallbackParameters.pxCallbackFunction = xFunctionToPend;
1107:..\common\rtos/timers.c ****             xMessage.u.xCallbackParameters.pvParameter1 = pvParameter1;
1108:..\common\rtos/timers.c ****             xMessage.u.xCallbackParameters.ulParameter2 = ulParameter2;
1109:..\common\rtos/timers.c **** 
1110:..\common\rtos/timers.c ****             xReturn = xQueueSendToBack( xTimerQueue, &xMessage, xTicksToWait );
1111:..\common\rtos/timers.c **** 
1112:..\common\rtos/timers.c ****             tracePEND_FUNC_CALL( xFunctionToPend, pvParameter1, ulParameter2, xReturn );
1113:..\common\rtos/timers.c **** 
1114:..\common\rtos/timers.c ****             return xReturn;
1115:..\common\rtos/timers.c ****         }
1116:..\common\rtos/timers.c **** 
1117:..\common\rtos/timers.c ****     #endif /* INCLUDE_xTimerPendFunctionCall */
1118:..\common\rtos/timers.c **** /*-----------------------------------------------------------*/
1119:..\common\rtos/timers.c **** 
1120:..\common\rtos/timers.c ****     #if ( configUSE_TRACE_FACILITY == 1 )
1121:..\common\rtos/timers.c **** 
1122:..\common\rtos/timers.c ****         UBaseType_t uxTimerGetTimerNumber( TimerHandle_t xTimer )
1123:..\common\rtos/timers.c ****         {
 1131              		.loc 1 1123 0
 1132              		.cfi_startproc
 1133              		@ args = 0, pretend = 0, frame = 0
 1134              		@ frame_needed = 0, uses_anonymous_args = 0
 1135              		@ link register save eliminated.
 1136              	.LVL120:
1124:..\common\rtos/timers.c ****             return ( ( Timer_t * ) xTimer )->uxTimerNumber;
1125:..\common\rtos/timers.c ****         }
 1137              		.loc 1 1125 0
 1138 0000 406A     		ldr	r0, [r0, #36]
 1139              	.LVL121:
 1140 0002 7047     		bx	lr
 1141              		.cfi_endproc
 1142              	.LFE90:
 1143              		.size	uxTimerGetTimerNumber, .-uxTimerGetTimerNumber
 1144              		.section	.text.vTimerSetTimerNumber,"ax",%progbits
 1145              		.align	1
 1146              		.global	vTimerSetTimerNumber
 1147              		.thumb
 1148              		.thumb_func
 1149              		.type	vTimerSetTimerNumber, %function
 1150              	vTimerSetTimerNumber:
 1151              	.LFB91:
1126:..\common\rtos/timers.c **** 
1127:..\common\rtos/timers.c ****     #endif /* configUSE_TRACE_FACILITY */
1128:..\common\rtos/timers.c **** /*-----------------------------------------------------------*/
1129:..\common\rtos/timers.c **** 
1130:..\common\rtos/timers.c ****     #if ( configUSE_TRACE_FACILITY == 1 )
1131:..\common\rtos/timers.c **** 
1132:..\common\rtos/timers.c ****         void vTimerSetTimerNumber( TimerHandle_t xTimer,
1133:..\common\rtos/timers.c ****                                    UBaseType_t uxTimerNumber )
1134:..\common\rtos/timers.c ****         {
 1152              		.loc 1 1134 0
 1153              		.cfi_startproc
 1154              		@ args = 0, pretend = 0, frame = 0
ARM GAS  C:\Users\chemi\AppData\Local\Temp\ccWFGUfC.s 			page 44


 1155              		@ frame_needed = 0, uses_anonymous_args = 0
 1156              		@ link register save eliminated.
 1157              	.LVL122:
1135:..\common\rtos/timers.c ****             ( ( Timer_t * ) xTimer )->uxTimerNumber = uxTimerNumber;
 1158              		.loc 1 1135 0
 1159 0000 4162     		str	r1, [r0, #36]
 1160 0002 7047     		bx	lr
 1161              		.cfi_endproc
 1162              	.LFE91:
 1163              		.size	vTimerSetTimerNumber, .-vTimerSetTimerNumber
 1164              		.section	.rodata.str1.1,"aMS",%progbits,1
 1165              	.LC0:
 1166 0000 546D7251 		.ascii	"TmrQ\000"
 1166      00
 1167              	.LC1:
 1168 0005 546D7220 		.ascii	"Tmr Svc\000"
 1168      53766300 
 1169              		.bss
 1170              		.align	2
 1171              		.set	.LANCHOR0,. + 0
 1172              		.type	xTimerQueue, %object
 1173              		.size	xTimerQueue, 4
 1174              	xTimerQueue:
 1175 0000 00000000 		.space	4
 1176              		.type	xActiveTimerList1, %object
 1177              		.size	xActiveTimerList1, 20
 1178              	xActiveTimerList1:
 1179 0004 00000000 		.space	20
 1179      00000000 
 1179      00000000 
 1179      00000000 
 1179      00000000 
 1180              		.type	xActiveTimerList2, %object
 1181              		.size	xActiveTimerList2, 20
 1182              	xActiveTimerList2:
 1183 0018 00000000 		.space	20
 1183      00000000 
 1183      00000000 
 1183      00000000 
 1183      00000000 
 1184              		.type	pxCurrentTimerList, %object
 1185              		.size	pxCurrentTimerList, 4
 1186              	pxCurrentTimerList:
 1187 002c 00000000 		.space	4
 1188              		.type	pxOverflowTimerList, %object
 1189              		.size	pxOverflowTimerList, 4
 1190              	pxOverflowTimerList:
 1191 0030 00000000 		.space	4
 1192              		.type	xTimerTaskHandle, %object
 1193              		.size	xTimerTaskHandle, 4
 1194              	xTimerTaskHandle:
 1195 0034 00000000 		.space	4
 1196              		.type	xLastTime.9213, %object
 1197              		.size	xLastTime.9213, 4
 1198              	xLastTime.9213:
 1199 0038 00000000 		.space	4
 1200              		.text
ARM GAS  C:\Users\chemi\AppData\Local\Temp\ccWFGUfC.s 			page 45


 1201              	.Letext0:
 1202              		.file 2 "c:\\program files (x86)\\cypress\\psoc creator\\4.4\\psoc creator\\import\\gnu\\arm\\5.4.
 1203              		.file 3 "c:\\program files (x86)\\cypress\\psoc creator\\4.4\\psoc creator\\import\\gnu\\arm\\5.4.
 1204              		.file 4 "..\\common\\rtos\\portable\\GCC\\ARM_CM3/portmacro.h"
 1205              		.file 5 "..\\common\\rtos\\include/list.h"
 1206              		.file 6 "..\\common\\rtos\\include/task.h"
 1207              		.file 7 "..\\common\\rtos\\include/queue.h"
 1208              		.file 8 "..\\common\\rtos\\include/timers.h"
 1209              		.file 9 "..\\common\\rtos\\include/portable.h"
 1210              		.file 10 "Generated_Source\\PSoC5/core_cm3.h"