ARM GAS  C:\Users\chemi\AppData\Local\Temp\ccZyO0Z2.s 			page 1


   1              		.syntax unified
   2              		.cpu cortex-m3
   3              		.fpu softvfp
   4              		.eabi_attribute 20, 1
   5              		.eabi_attribute 21, 1
   6              		.eabi_attribute 23, 3
   7              		.eabi_attribute 24, 1
   8              		.eabi_attribute 25, 1
   9              		.eabi_attribute 26, 1
  10              		.eabi_attribute 30, 4
  11              		.eabi_attribute 34, 1
  12              		.eabi_attribute 18, 4
  13              		.thumb
  14              		.syntax unified
  15              		.file	"top.c"
  16              		.text
  17              	.Ltext0:
  18              		.cfi_sections	.debug_frame
  19              		.section	.text.CMD_main,"ax",%progbits
  20              		.align	1
  21              		.global	CMD_main
  22              		.thumb
  23              		.thumb_func
  24              		.type	CMD_main, %function
  25              	CMD_main:
  26              	.LFB69:
  27              		.file 1 "..\\common\\tterm\\top.c"
   1:..\common\tterm/top.c **** /*
   2:..\common\tterm/top.c ****  * TTerm
   3:..\common\tterm/top.c ****  *
   4:..\common\tterm/top.c ****  * Copyright (c) 2020 Thorben Zethoff, Jens Kerrinnes
   5:..\common\tterm/top.c ****  *
   6:..\common\tterm/top.c ****  * Permission is hereby granted, free of charge, to any person obtaining a copy of
   7:..\common\tterm/top.c ****  * this software and associated documentation files (the "Software"), to deal in
   8:..\common\tterm/top.c ****  * the Software without restriction, including without limitation the rights to
   9:..\common\tterm/top.c ****  * use, copy, modify, merge, publish, distribute, sublicense, and/or sell copies of
  10:..\common\tterm/top.c ****  * the Software, and to permit persons to whom the Software is furnished to do so,
  11:..\common\tterm/top.c ****  * subject to the following conditions:
  12:..\common\tterm/top.c ****  *
  13:..\common\tterm/top.c ****  * The above copyright notice and this permission notice shall be included in all
  14:..\common\tterm/top.c ****  * copies or substantial portions of the Software.
  15:..\common\tterm/top.c ****  *
  16:..\common\tterm/top.c ****  * THE SOFTWARE IS PROVIDED "AS IS", WITHOUT WARRANTY OF ANY KIND, EXPRESS OR
  17:..\common\tterm/top.c ****  * IMPLIED, INCLUDING BUT NOT LIMITED TO THE WARRANTIES OF MERCHANTABILITY, FITNESS
  18:..\common\tterm/top.c ****  * FOR A PARTICULAR PURPOSE AND NONINFRINGEMENT. IN NO EVENT SHALL THE AUTHORS OR
  19:..\common\tterm/top.c ****  * COPYRIGHT HOLDERS BE LIABLE FOR ANY CLAIM, DAMAGES OR OTHER LIABILITY, WHETHER
  20:..\common\tterm/top.c ****  * IN AN ACTION OF CONTRACT, TORT OR OTHERWISE, ARISING FROM, OUT OF OR IN
  21:..\common\tterm/top.c ****  * CONNECTION WITH THE SOFTWARE OR THE USE OR OTHER DEALINGS IN THE SOFTWARE.
  22:..\common\tterm/top.c **** */
  23:..\common\tterm/top.c **** 
  24:..\common\tterm/top.c **** #include "top.h"
  25:..\common\tterm/top.c **** #include "string.h"
  26:..\common\tterm/top.c **** #include "system.h"
  27:..\common\tterm/top.c **** 
  28:..\common\tterm/top.c **** #define APP_NAME "top"
  29:..\common\tterm/top.c **** #define APP_DESCRIPTION "shows performance stats"
  30:..\common\tterm/top.c **** #define APP_STACK 250
ARM GAS  C:\Users\chemi\AppData\Local\Temp\ccZyO0Z2.s 			page 2


  31:..\common\tterm/top.c **** 
  32:..\common\tterm/top.c **** uint8_t CMD_main(TERMINAL_HANDLE * handle, uint8_t argCount, char ** args);
  33:..\common\tterm/top.c **** void TASK_main(void *pvParameters);
  34:..\common\tterm/top.c **** uint8_t INPUT_handler(TERMINAL_HANDLE * handle, uint16_t c);
  35:..\common\tterm/top.c **** 
  36:..\common\tterm/top.c **** uint8_t REGISTER_top(TermCommandDescriptor * desc){
  37:..\common\tterm/top.c ****     TERM_addCommand(CMD_main, APP_NAME, APP_DESCRIPTION, 0, desc); 
  38:..\common\tterm/top.c ****     return pdTRUE;
  39:..\common\tterm/top.c **** }
  40:..\common\tterm/top.c **** 
  41:..\common\tterm/top.c **** uint8_t CMD_main(TERMINAL_HANDLE * handle, uint8_t argCount, char ** args){
  28              		.loc 1 41 0
  29              		.cfi_startproc
  30              		@ args = 0, pretend = 0, frame = 8
  31              		@ frame_needed = 0, uses_anonymous_args = 0
  32              	.LVL0:
  33 0000 2DE9F04F 		push	{r4, r5, r6, r7, r8, r9, r10, fp, lr}
  34              		.cfi_def_cfa_offset 36
  35              		.cfi_offset 4, -36
  36              		.cfi_offset 5, -32
  37              		.cfi_offset 6, -28
  38              		.cfi_offset 7, -24
  39              		.cfi_offset 8, -20
  40              		.cfi_offset 9, -16
  41              		.cfi_offset 10, -12
  42              		.cfi_offset 11, -8
  43              		.cfi_offset 14, -4
  42:..\common\tterm/top.c ****     
  43:..\common\tterm/top.c ****     uint8_t currArg = 0;
  44:..\common\tterm/top.c ****     uint8_t returnCode = TERM_CMD_EXIT_SUCCESS;
  45:..\common\tterm/top.c ****     char ** cpy_args=NULL;
  46:..\common\tterm/top.c ****     argCount++;
  44              		.loc 1 46 0
  45 0004 0131     		adds	r1, r1, #1
  46              	.LVL1:
  47:..\common\tterm/top.c ****     if(argCount){
  47              		.loc 1 47 0
  48 0006 11F0FF05 		ands	r5, r1, #255
  41:..\common\tterm/top.c ****     
  49              		.loc 1 41 0
  50 000a 85B0     		sub	sp, sp, #20
  51              		.cfi_def_cfa_offset 56
  41:..\common\tterm/top.c ****     
  52              		.loc 1 41 0
  53 000c 0646     		mov	r6, r0
  54 000e 9146     		mov	r9, r2
  55              		.loc 1 47 0
  56 0010 2AD0     		beq	.L7
  48:..\common\tterm/top.c ****         cpy_args = pvPortMalloc(sizeof(char*)*argCount);
  57              		.loc 1 48 0
  58 0012 A800     		lsls	r0, r5, #2
  59              	.LVL2:
  60 0014 FFF7FEFF 		bl	pvPortMalloc
  61              	.LVL3:
  62 0018 0746     		mov	r7, r0
  63              	.LVL4:
  49:..\common\tterm/top.c ****         cpy_args[0] = pvPortMalloc(sizeof(APP_NAME));
ARM GAS  C:\Users\chemi\AppData\Local\Temp\ccZyO0Z2.s 			page 3


  64              		.loc 1 49 0
  65 001a 0420     		movs	r0, #4
  66              	.LVL5:
  67 001c FFF7FEFF 		bl	pvPortMalloc
  68              	.LVL6:
  50:..\common\tterm/top.c ****         cpy_args[0]=memcpy(cpy_args[0], APP_NAME, sizeof(APP_NAME));
  69              		.loc 1 50 0
  70 0020 244B     		ldr	r3, .L10
  51:..\common\tterm/top.c ****         for(;currArg<argCount-1; currArg++){
  71              		.loc 1 51 0
  72 0022 0024     		movs	r4, #0
  50:..\common\tterm/top.c ****         cpy_args[0]=memcpy(cpy_args[0], APP_NAME, sizeof(APP_NAME));
  73              		.loc 1 50 0
  74 0024 1B68     		ldr	r3, [r3]	@ unaligned
  75              		.loc 1 51 0
  76 0026 05F1FF3A 		add	r10, r5, #-1
  50:..\common\tterm/top.c ****         cpy_args[0]=memcpy(cpy_args[0], APP_NAME, sizeof(APP_NAME));
  77              		.loc 1 50 0
  78 002a 0360     		str	r3, [r0]	@ unaligned
  79 002c 3860     		str	r0, [r7]
  80              	.LVL7:
  81              	.L3:
  82 002e 04F1010B 		add	fp, r4, #1
  83              		.loc 1 51 0 discriminator 1
  84 0032 E4B2     		uxtb	r4, r4
  85 0034 5445     		cmp	r4, r10
  86 0036 18DA     		bge	.L2
  87              	.LBB2:
  52:..\common\tterm/top.c ****             uint16_t len = strlen(args[currArg])+1;
  88              		.loc 1 52 0 discriminator 2
  89 0038 59F82400 		ldr	r0, [r9, r4, lsl #2]
  90 003c FFF7FEFF 		bl	strlen
  91              	.LVL8:
  92 0040 4FEA8408 		lsl	r8, r4, #2
  53:..\common\tterm/top.c ****             cpy_args[currArg+1] = pvPortMalloc(len);
  93              		.loc 1 53 0 discriminator 2
  94 0044 0130     		adds	r0, r0, #1
  95              	.LVL9:
  96 0046 08F10403 		add	r3, r8, #4
  97 004a 1FFA80F8 		uxth	r8, r0
  98 004e 4046     		mov	r0, r8
  99 0050 0393     		str	r3, [sp, #12]
 100 0052 FFF7FEFF 		bl	pvPortMalloc
 101              	.LVL10:
 102 0056 039B     		ldr	r3, [sp, #12]
  54:..\common\tterm/top.c ****             memcpy(cpy_args[currArg+1], args[currArg], len);
 103              		.loc 1 54 0 discriminator 2
 104 0058 4246     		mov	r2, r8
  53:..\common\tterm/top.c ****             cpy_args[currArg+1] = pvPortMalloc(len);
 105              		.loc 1 53 0 discriminator 2
 106 005a F850     		str	r0, [r7, r3]
 107              		.loc 1 54 0 discriminator 2
 108 005c 59F82410 		ldr	r1, [r9, r4, lsl #2]
 109 0060 FFF7FEFF 		bl	memcpy
 110              	.LVL11:
 111 0064 5C46     		mov	r4, fp
 112 0066 E2E7     		b	.L3
ARM GAS  C:\Users\chemi\AppData\Local\Temp\ccZyO0Z2.s 			page 4


 113              	.LVL12:
 114              	.L7:
 115              	.LBE2:
  45:..\common\tterm/top.c ****     argCount++;
 116              		.loc 1 45 0
 117 0068 2F46     		mov	r7, r5
 118              	.LVL13:
 119              	.L2:
  55:..\common\tterm/top.c ****         }
  56:..\common\tterm/top.c ****     }
  57:..\common\tterm/top.c ****     TermProgram * prog = pvPortMalloc(sizeof(TermProgram));
 120              		.loc 1 57 0
 121 006a 1820     		movs	r0, #24
 122 006c FFF7FEFF 		bl	pvPortMalloc
 123              	.LVL14:
 124 0070 0446     		mov	r4, r0
 125              	.LVL15:
  58:..\common\tterm/top.c ****     prog->inputHandler = INPUT_handler;
 126              		.loc 1 58 0
 127 0072 114B     		ldr	r3, .L10+4
  59:..\common\tterm/top.c ****     prog->args = cpy_args;
 128              		.loc 1 59 0
 129 0074 0761     		str	r7, [r0, #16]
  58:..\common\tterm/top.c ****     prog->inputHandler = INPUT_handler;
 130              		.loc 1 58 0
 131 0076 4360     		str	r3, [r0, #4]
  60:..\common\tterm/top.c ****     prog->argCount = argCount;
 132              		.loc 1 60 0
 133 0078 0575     		strb	r5, [r0, #20]
  61:..\common\tterm/top.c ****     TERM_sendVT100Code(handle, _VT100_RESET, 0); TERM_sendVT100Code(handle, _VT100_CURSOR_POS1, 0);
 134              		.loc 1 61 0
 135 007a 0022     		movs	r2, #0
 136 007c 4FF48051 		mov	r1, #4096
 137 0080 3046     		mov	r0, r6
 138              	.LVL16:
 139 0082 FFF7FEFF 		bl	TERM_sendVT100Code
 140              	.LVL17:
 141 0086 0022     		movs	r2, #0
 142 0088 1146     		mov	r1, r2
 143 008a 3046     		mov	r0, r6
 144 008c FFF7FEFF 		bl	TERM_sendVT100Code
 145              	.LVL18:
  62:..\common\tterm/top.c ****     returnCode = xTaskCreate(TASK_main, APP_NAME, APP_STACK, handle, tskIDLE_PRIORITY + 1, &prog->t
 146              		.loc 1 62 0
 147 0090 0123     		movs	r3, #1
 148 0092 0093     		str	r3, [sp]
 149 0094 0194     		str	r4, [sp, #4]
 150 0096 3346     		mov	r3, r6
 151 0098 FA22     		movs	r2, #250
 152 009a 0649     		ldr	r1, .L10
 153 009c 0748     		ldr	r0, .L10+8
 154 009e FFF7FEFF 		bl	xTaskCreate
 155              	.LVL19:
 156 00a2 20B1     		cbz	r0, .L8
 157              	.LVL20:
  63:..\common\tterm/top.c ****     if(returnCode == TERM_CMD_EXIT_PROC_STARTED) TERM_attachProgramm(handle, prog);
 158              		.loc 1 63 0
ARM GAS  C:\Users\chemi\AppData\Local\Temp\ccZyO0Z2.s 			page 5


 159 00a4 3046     		mov	r0, r6
 160 00a6 2146     		mov	r1, r4
 161 00a8 FFF7FEFF 		bl	TERM_attachProgramm
 162              	.LVL21:
  62:..\common\tterm/top.c ****     returnCode = xTaskCreate(TASK_main, APP_NAME, APP_STACK, handle, tskIDLE_PRIORITY + 1, &prog->t
 163              		.loc 1 62 0
 164 00ac FE20     		movs	r0, #254
 165              	.LVL22:
 166              	.L8:
  64:..\common\tterm/top.c ****     return returnCode;
  65:..\common\tterm/top.c **** }
 167              		.loc 1 65 0
 168 00ae 05B0     		add	sp, sp, #20
 169              		.cfi_def_cfa_offset 36
 170              		@ sp needed
 171 00b0 BDE8F08F 		pop	{r4, r5, r6, r7, r8, r9, r10, fp, pc}
 172              	.LVL23:
 173              	.L11:
 174              		.align	2
 175              	.L10:
 176 00b4 00000000 		.word	.LC0
 177 00b8 00000000 		.word	INPUT_handler
 178 00bc 00000000 		.word	TASK_main
 179              		.cfi_endproc
 180              	.LFE69:
 181              		.size	CMD_main, .-CMD_main
 182              		.section	.text.TASK_main,"ax",%progbits
 183              		.align	1
 184              		.global	TASK_main
 185              		.thumb
 186              		.thumb_func
 187              		.type	TASK_main, %function
 188              	TASK_main:
 189              	.LFB70:
  66:..\common\tterm/top.c **** 
  67:..\common\tterm/top.c **** void TASK_main(void *pvParameters){
 190              		.loc 1 67 0
 191              		.cfi_startproc
 192              		@ args = 0, pretend = 0, frame = 40
 193              		@ frame_needed = 0, uses_anonymous_args = 0
 194              	.LVL24:
 195 0000 2DE9F04F 		push	{r4, r5, r6, r7, r8, r9, r10, fp, lr}
 196              		.cfi_def_cfa_offset 36
 197              		.cfi_offset 4, -36
 198              		.cfi_offset 5, -32
 199              		.cfi_offset 6, -28
 200              		.cfi_offset 7, -24
 201              		.cfi_offset 8, -20
 202              		.cfi_offset 9, -16
 203              		.cfi_offset 10, -12
 204              		.cfi_offset 11, -8
 205              		.cfi_offset 14, -4
 206 0004 0446     		mov	r4, r0
 207              	.LVL25:
 208 0006 99B0     		sub	sp, sp, #100
 209              		.cfi_def_cfa_offset 136
  68:..\common\tterm/top.c ****     TERMINAL_HANDLE * handle = (TERMINAL_HANDLE*)pvParameters;
ARM GAS  C:\Users\chemi\AppData\Local\Temp\ccZyO0Z2.s 			page 6


  69:..\common\tterm/top.c ****     char c=0;
 210              		.loc 1 69 0
 211 0008 0023     		movs	r3, #0
 212 000a 8DF84B30 		strb	r3, [sp, #75]
 213              	.LVL26:
 214              	.L20:
 215              	.LBB3:
  70:..\common\tterm/top.c ****     do{
  71:..\common\tterm/top.c ****         
  72:..\common\tterm/top.c ****         TaskStatus_t * taskStats;
  73:..\common\tterm/top.c ****         uint32_t taskCount = uxTaskGetNumberOfTasks();
 216              		.loc 1 73 0
 217 000e FFF7FEFF 		bl	uxTaskGetNumberOfTasks
 218              	.LVL27:
 219 0012 0546     		mov	r5, r0
 220              	.LVL28:
  74:..\common\tterm/top.c ****         uint32_t sysTime;
  75:..\common\tterm/top.c ****                 
  76:..\common\tterm/top.c ****         taskStats = pvPortMalloc( taskCount * sizeof( TaskStatus_t ) );
 221              		.loc 1 76 0
 222 0014 2820     		movs	r0, #40
 223              	.LVL29:
 224 0016 6843     		muls	r0, r5, r0
 225 0018 FFF7FEFF 		bl	pvPortMalloc
 226              	.LVL30:
  77:..\common\tterm/top.c ****         if(taskStats){
 227              		.loc 1 77 0
 228 001c 0F90     		str	r0, [sp, #60]
 229 001e 0028     		cmp	r0, #0
 230 0020 00F0E180 		beq	.L13
 231              	.LBB4:
  78:..\common\tterm/top.c ****             taskCount = uxTaskGetSystemState(taskStats, taskCount, &sysTime);
 232              		.loc 1 78 0
 233 0024 2946     		mov	r1, r5
 234 0026 13AA     		add	r2, sp, #76
 235 0028 FFF7FEFF 		bl	uxTaskGetSystemState
 236              	.LVL31:
 237 002c 0746     		mov	r7, r0
 238              	.LVL32:
  79:..\common\tterm/top.c ****             
  80:..\common\tterm/top.c ****             TERM_sendVT100Code(handle, _VT100_CURSOR_POS1, 0);
 239              		.loc 1 80 0
 240 002e 0022     		movs	r2, #0
 241 0030 1146     		mov	r1, r2
 242 0032 2046     		mov	r0, r4
 243              	.LVL33:
 244 0034 FFF7FEFF 		bl	TERM_sendVT100Code
 245              	.LVL34:
  81:..\common\tterm/top.c ****         
  82:..\common\tterm/top.c ****             uint32_t cpuLoad = SYS_getCPULoadFine(taskStats, taskCount, sysTime);
 246              		.loc 1 82 0
 247 0038 139A     		ldr	r2, [sp, #76]
 248 003a 3946     		mov	r1, r7
 249 003c 0F98     		ldr	r0, [sp, #60]
 250 003e FFF7FEFF 		bl	SYS_getCPULoadFine
 251              	.LVL35:
  83:..\common\tterm/top.c ****             ttprintf("%sbottom - %d\r\n%sTasks: \t%d\r\n%sCPU: \t%d,%d%%\r\n", TERM_getVT100Code(_V
ARM GAS  C:\Users\chemi\AppData\Local\Temp\ccZyO0Z2.s 			page 7


 252              		.loc 1 83 0
 253 0042 6368     		ldr	r3, [r4, #4]
  82:..\common\tterm/top.c ****             ttprintf("%sbottom - %d\r\n%sTasks: \t%d\r\n%sCPU: \t%d,%d%%\r\n", TERM_getVT100Code(_V
 254              		.loc 1 82 0
 255 0044 8046     		mov	r8, r0
 256              	.LVL36:
 257              		.loc 1 83 0
 258 0046 0021     		movs	r1, #0
 259 0048 1120     		movs	r0, #17
 260              	.LVL37:
 261 004a 1E46     		mov	r6, r3
 262 004c 656A     		ldr	r5, [r4, #36]
 263 004e FFF7FEFF 		bl	TERM_getVT100Code
 264              	.LVL38:
 265 0052 8146     		mov	r9, r0
 266 0054 FFF7FEFF 		bl	xTaskGetTickCount
 267              	.LVL39:
 268 0058 0021     		movs	r1, #0
 269 005a 8246     		mov	r10, r0
 270 005c 1120     		movs	r0, #17
 271 005e FFF7FEFF 		bl	TERM_getVT100Code
 272              	.LVL40:
 273 0062 0021     		movs	r1, #0
 274 0064 8346     		mov	fp, r0
 275 0066 1120     		movs	r0, #17
 276 0068 FFF7FEFF 		bl	TERM_getVT100Code
 277              	.LVL41:
 278 006c 0A21     		movs	r1, #10
 279 006e B8FBF1F2 		udiv	r2, r8, r1
 280 0072 01FB1281 		mls	r1, r1, r2, r8
 281 0076 5346     		mov	r3, r10
 282 0078 0491     		str	r1, [sp, #16]
 283 007a 0392     		str	r2, [sp, #12]
 284 007c 6649     		ldr	r1, .L27
 285 007e 4A46     		mov	r2, r9
 286 0080 0290     		str	r0, [sp, #8]
 287 0082 0197     		str	r7, [sp, #4]
 288 0084 CDF800B0 		str	fp, [sp]
 289 0088 3046     		mov	r0, r6
 290 008a A847     		blx	r5
 291              	.LVL42:
  84:..\common\tterm/top.c ****             
  85:..\common\tterm/top.c ****             uint32_t heapRemaining = xPortGetFreeHeapSize();
 292              		.loc 1 85 0
 293 008c FFF7FEFF 		bl	xPortGetFreeHeapSize
 294              	.LVL43:
 295 0090 8146     		mov	r9, r0
 296              	.LVL44:
  86:..\common\tterm/top.c ****             ttprintf("%sMem: \t%db total,\t %db free,\t %db used (%d%%)\r\n", TERM_getVT100Code(_VT
 297              		.loc 1 86 0
 298 0092 0021     		movs	r1, #0
 299 0094 1120     		movs	r0, #17
 300              	.LVL45:
 301 0096 656A     		ldr	r5, [r4, #36]
 302 0098 D4F80480 		ldr	r8, [r4, #4]
 303              	.LVL46:
 304 009c FFF7FEFF 		bl	TERM_getVT100Code
ARM GAS  C:\Users\chemi\AppData\Local\Temp\ccZyO0Z2.s 			page 8


 305              	.LVL47:
 306 00a0 6FF06302 		mvn	r2, #99
 307 00a4 02FB09F2 		mul	r2, r2, r9
 308 00a8 4FF44043 		mov	r3, #49152
 309 00ac 02F59602 		add	r2, r2, #4915200
 310 00b0 B2FBF3F2 		udiv	r2, r2, r3
 311 00b4 0292     		str	r2, [sp, #8]
 312 00b6 C9EB0302 		rsb	r2, r9, r3
 313 00ba 0192     		str	r2, [sp, #4]
 314 00bc CDF80090 		str	r9, [sp]
 315 00c0 0246     		mov	r2, r0
 316 00c2 5649     		ldr	r1, .L27+4
 317 00c4 4046     		mov	r0, r8
 318 00c6 A847     		blx	r5
 319              	.LVL48:
  87:..\common\tterm/top.c ****             //taskStats[0].
  88:..\common\tterm/top.c ****             ttprintf("%s%s%s", TERM_getVT100Code(_VT100_BACKGROUND_COLOR, _VT100_WHITE), TERM_getVT
 320              		.loc 1 88 0
 321 00c8 0721     		movs	r1, #7
 322 00ca 0320     		movs	r0, #3
 323 00cc 656A     		ldr	r5, [r4, #36]
 324 00ce D4F80480 		ldr	r8, [r4, #4]
 325 00d2 FFF7FEFF 		bl	TERM_getVT100Code
 326              	.LVL49:
 327 00d6 0021     		movs	r1, #0
 328 00d8 8146     		mov	r9, r0
 329              	.LVL50:
 330 00da 1120     		movs	r0, #17
 331 00dc FFF7FEFF 		bl	TERM_getVT100Code
 332              	.LVL51:
 333 00e0 0021     		movs	r1, #0
 334 00e2 8246     		mov	r10, r0
 335 00e4 0220     		movs	r0, #2
 336 00e6 FFF7FEFF 		bl	TERM_getVT100Code
 337              	.LVL52:
 338 00ea 4A46     		mov	r2, r9
 339 00ec 0090     		str	r0, [sp]
 340 00ee 5346     		mov	r3, r10
 341 00f0 4B49     		ldr	r1, .L27+8
 342 00f2 4046     		mov	r0, r8
 343 00f4 A847     		blx	r5
 344              	.LVL53:
  89:..\common\tterm/top.c ****             ttprintf("PID \r\x1b[%dCName \r\x1b[%dCstate \r\x1b[%dC%%Cpu \r\x1b[%dCtime  \r\x1b[%dC
 345              		.loc 1 89 0
 346 00f6 2020     		movs	r0, #32
 347 00f8 2721     		movs	r1, #39
 348 00fa 3222     		movs	r2, #50
 349 00fc 3923     		movs	r3, #57
 350 00fe 8DE80F00 		stmia	sp, {r0, r1, r2, r3}
 351 0102 656A     		ldr	r5, [r4, #36]
 352 0104 1323     		movs	r3, #19
 353 0106 0622     		movs	r2, #6
 354 0108 4649     		ldr	r1, .L27+12
 355 010a 6068     		ldr	r0, [r4, #4]
 356 010c A847     		blx	r5
 357              	.LVL54:
  90:..\common\tterm/top.c ****             ttprintf("%s", TERM_getVT100Code(_VT100_RESET_ATTRIB, 0));
ARM GAS  C:\Users\chemi\AppData\Local\Temp\ccZyO0Z2.s 			page 9


 358              		.loc 1 90 0
 359 010e 0021     		movs	r1, #0
 360 0110 0420     		movs	r0, #4
 361 0112 656A     		ldr	r5, [r4, #36]
 362 0114 D4F80480 		ldr	r8, [r4, #4]
 363 0118 FFF7FEFF 		bl	TERM_getVT100Code
 364              	.LVL55:
 365 011c 4249     		ldr	r1, .L27+16
 366 011e 0246     		mov	r2, r0
 367 0120 4046     		mov	r0, r8
 368 0122 A847     		blx	r5
 369              	.LVL56:
 370 0124 0F9D     		ldr	r5, [sp, #60]
  91:..\common\tterm/top.c ****             
  92:..\common\tterm/top.c ****             uint32_t currTask = 0;
 371              		.loc 1 92 0
 372 0126 4FF00008 		mov	r8, #0
 373              	.LBB5:
  93:..\common\tterm/top.c ****             for(;currTask < taskCount; currTask++){
  94:..\common\tterm/top.c ****                 if(strlen(taskStats[currTask].pcTaskName) != 4 || strcmp(taskStats[currTask].pcTask
  95:..\common\tterm/top.c ****                     char name[configMAX_TASK_NAME_LEN+1];
  96:..\common\tterm/top.c ****                     strncpy(name, taskStats[currTask].pcTaskName, configMAX_TASK_NAME_LEN);
 374              		.loc 1 96 0
 375 012a 0DF15009 		add	r9, sp, #80
 376              	.LVL57:
 377              	.L14:
 378              	.LBE5:
  93:..\common\tterm/top.c ****             for(;currTask < taskCount; currTask++){
 379              		.loc 1 93 0 discriminator 1
 380 012e B845     		cmp	r8, r7
 381 0130 55D0     		beq	.L26
  94:..\common\tterm/top.c ****                     char name[configMAX_TASK_NAME_LEN+1];
 382              		.loc 1 94 0
 383 0132 D5F804A0 		ldr	r10, [r5, #4]
 384 0136 5046     		mov	r0, r10
 385 0138 FFF7FEFF 		bl	strlen
 386              	.LVL58:
 387 013c 0428     		cmp	r0, #4
 388 013e 05D1     		bne	.L15
  94:..\common\tterm/top.c ****                     char name[configMAX_TASK_NAME_LEN+1];
 389              		.loc 1 94 0 is_stmt 0 discriminator 1
 390 0140 3A49     		ldr	r1, .L27+20
 391 0142 5046     		mov	r0, r10
 392 0144 FFF7FEFF 		bl	strcmp
 393              	.LVL59:
 394 0148 0028     		cmp	r0, #0
 395 014a 44D0     		beq	.L16
 396              	.L15:
 397              	.LBB6:
 398              		.loc 1 96 0 is_stmt 1
 399 014c 0C22     		movs	r2, #12
 400 014e 5146     		mov	r1, r10
 401 0150 4846     		mov	r0, r9
 402 0152 FFF7FEFF 		bl	strncpy
 403              	.LVL60:
  97:..\common\tterm/top.c ****                      uint32_t load=0;
  98:..\common\tterm/top.c ****                     if(sysTime>1000){
ARM GAS  C:\Users\chemi\AppData\Local\Temp\ccZyO0Z2.s 			page 10


 404              		.loc 1 98 0
 405 0156 139B     		ldr	r3, [sp, #76]
  99:..\common\tterm/top.c ****                         load = (taskStats[currTask].ulRunTimeCounter) / (sysTime/configTICK_RATE_HZ
 100:..\common\tterm/top.c ****                     }
 101:..\common\tterm/top.c ****                     ttprintf("%s%d\r\x1b[%dC%s\r\x1b[%dC%s\r\x1b[%dC%d,%d\r\x1b[%dC%d\r\x1b[%dC%u\r
 406              		.loc 1 101 0
 407 0158 0021     		movs	r1, #0
  98:..\common\tterm/top.c ****                         load = (taskStats[currTask].ulRunTimeCounter) / (sysTime/configTICK_RATE_HZ
 408              		.loc 1 98 0
 409 015a B3F57A7F 		cmp	r3, #1000
  99:..\common\tterm/top.c ****                         load = (taskStats[currTask].ulRunTimeCounter) / (sysTime/configTICK_RATE_HZ
 410              		.loc 1 99 0
 411 015e 82BF     		ittt	hi
 412 0160 4FF47A72 		movhi	r2, #1000
 413 0164 B3FBF2F3 		udivhi	r3, r3, r2
 414 0168 AA69     		ldrhi	r2, [r5, #24]
 415              		.loc 1 101 0
 416 016a 4FF01100 		mov	r0, #17
  99:..\common\tterm/top.c ****                         load = (taskStats[currTask].ulRunTimeCounter) / (sysTime/configTICK_RATE_HZ
 417              		.loc 1 99 0
 418 016e 88BF     		it	hi
 419 0170 B2FBF3FA 		udivhi	r10, r2, r3
 420              	.LVL61:
 421              		.loc 1 101 0
 422 0174 636A     		ldr	r3, [r4, #36]
  97:..\common\tterm/top.c ****                      uint32_t load=0;
 423              		.loc 1 97 0
 424 0176 98BF     		it	ls
 425 0178 4FF0000A 		movls	r10, #0
 426              	.LVL62:
 427              		.loc 1 101 0
 428 017c 1E46     		mov	r6, r3
 429 017e D4F804B0 		ldr	fp, [r4, #4]
 430 0182 FFF7FEFF 		bl	TERM_getVT100Code
 431              	.LVL63:
 432 0186 AB68     		ldr	r3, [r5, #8]
 433 0188 1190     		str	r0, [sp, #68]
 434 018a 287B     		ldrb	r0, [r5, #12]	@ zero_extendqisi2
 435 018c 1093     		str	r3, [sp, #64]
 436 018e FFF7FEFF 		bl	SYS_getTaskStateString
 437              	.LVL64:
 438 0192 4FF00A0E 		mov	lr, #10
 439 0196 BAFBFEF1 		udiv	r1, r10, lr
 440 019a 6B6A     		ldr	r3, [r5, #36]
 441 019c 119A     		ldr	r2, [sp, #68]
 442 019e 0C93     		str	r3, [sp, #48]
 443 01a0 3923     		movs	r3, #57
 444 01a2 0B93     		str	r3, [sp, #44]
 445 01a4 2B8C     		ldrh	r3, [r5, #32]
 446 01a6 0A93     		str	r3, [sp, #40]
 447 01a8 3223     		movs	r3, #50
 448 01aa 0993     		str	r3, [sp, #36]
 449 01ac AB69     		ldr	r3, [r5, #24]
 450 01ae 0591     		str	r1, [sp, #20]
 451 01b0 0893     		str	r3, [sp, #32]
 452 01b2 2723     		movs	r3, #39
 453 01b4 0793     		str	r3, [sp, #28]
ARM GAS  C:\Users\chemi\AppData\Local\Temp\ccZyO0Z2.s 			page 11


 454 01b6 0EFB11A3 		mls	r3, lr, r1, r10
 455 01ba 0693     		str	r3, [sp, #24]
 456 01bc 2023     		movs	r3, #32
 457 01be 0493     		str	r3, [sp, #16]
 458 01c0 1323     		movs	r3, #19
 459 01c2 0293     		str	r3, [sp, #8]
 460 01c4 0623     		movs	r3, #6
 461 01c6 0390     		str	r0, [sp, #12]
 462 01c8 0093     		str	r3, [sp]
 463 01ca CDF80490 		str	r9, [sp, #4]
 464 01ce 109B     		ldr	r3, [sp, #64]
 465 01d0 1749     		ldr	r1, .L27+24
 466 01d2 5846     		mov	r0, fp
 467 01d4 B047     		blx	r6
 468              	.LVL65:
 469              	.L16:
 470              	.LBE6:
  93:..\common\tterm/top.c ****                 if(strlen(taskStats[currTask].pcTaskName) != 4 || strcmp(taskStats[currTask].pcTask
 471              		.loc 1 93 0
 472 01d6 08F10108 		add	r8, r8, #1
 473              	.LVL66:
 474 01da 2835     		adds	r5, r5, #40
 475 01dc A7E7     		b	.L14
 476              	.L26:
 102:..\common\tterm/top.c ****                             , SYS_getTaskStateString(taskStats[currTask].eCurrentState), 20 + confi
 103:..\common\tterm/top.c ****                             , 38 + configMAX_TASK_NAME_LEN, taskStats[currTask].usStackHighWaterMar
 104:..\common\tterm/top.c ****                 }
 105:..\common\tterm/top.c ****             }
 106:..\common\tterm/top.c ****             vPortFree(taskStats);
 477              		.loc 1 106 0
 478 01de 0F98     		ldr	r0, [sp, #60]
 479 01e0 FFF7FEFF 		bl	vPortFree
 480              	.LVL67:
 481              	.LBE4:
 482 01e4 03E0     		b	.L19
 483              	.LVL68:
 484              	.L13:
 107:..\common\tterm/top.c ****         }else{
 108:..\common\tterm/top.c ****             ttprintf("Malloc failed\r\n");
 485              		.loc 1 108 0
 486 01e6 636A     		ldr	r3, [r4, #36]
 487 01e8 1249     		ldr	r1, .L27+28
 488 01ea 6068     		ldr	r0, [r4, #4]
 489              	.LVL69:
 490 01ec 9847     		blx	r3
 491              	.LVL70:
 492              	.L19:
 109:..\common\tterm/top.c ****         }
 110:..\common\tterm/top.c ****         
 111:..\common\tterm/top.c ****         xStreamBufferReceive(handle->currProgram->inputStream,&c,sizeof(c),pdMS_TO_TICKS(1000));
 493              		.loc 1 111 0
 494 01ee 6069     		ldr	r0, [r4, #20]
 495 01f0 4FF47A73 		mov	r3, #1000
 496 01f4 0122     		movs	r2, #1
 497 01f6 0DF14B01 		add	r1, sp, #75
 498 01fa C068     		ldr	r0, [r0, #12]
 499 01fc FFF7FEFF 		bl	xStreamBufferReceive
ARM GAS  C:\Users\chemi\AppData\Local\Temp\ccZyO0Z2.s 			page 12


 500              	.LVL71:
 501              	.LBE3:
 112:..\common\tterm/top.c ****     }while(c!=CTRL_C);
 502              		.loc 1 112 0
 503 0200 9DF84B30 		ldrb	r3, [sp, #75]	@ zero_extendqisi2
 504 0204 032B     		cmp	r3, #3
 505 0206 7FF402AF 		bne	.L20
 113:..\common\tterm/top.c ****     TERM_killProgramm(handle);
 506              		.loc 1 113 0
 507 020a 2046     		mov	r0, r4
 508 020c FFF7FEFF 		bl	TERM_killProgramm
 509              	.LVL72:
 114:..\common\tterm/top.c **** }
 510              		.loc 1 114 0
 511 0210 19B0     		add	sp, sp, #100
 512              		.cfi_def_cfa_offset 36
 513              		@ sp needed
 514 0212 BDE8F08F 		pop	{r4, r5, r6, r7, r8, r9, r10, fp, pc}
 515              	.LVL73:
 516              	.L28:
 517 0216 00BF     		.align	2
 518              	.L27:
 519 0218 04000000 		.word	.LC1
 520 021c 33000000 		.word	.LC2
 521 0220 64000000 		.word	.LC3
 522 0224 6B000000 		.word	.LC4
 523 0228 B7000000 		.word	.LC5
 524 022c BA000000 		.word	.LC6
 525 0230 BF000000 		.word	.LC7
 526 0234 F9000000 		.word	.LC8
 527              		.cfi_endproc
 528              	.LFE70:
 529              		.size	TASK_main, .-TASK_main
 530              		.section	.text.INPUT_handler,"ax",%progbits
 531              		.align	1
 532              		.global	INPUT_handler
 533              		.thumb
 534              		.thumb_func
 535              		.type	INPUT_handler, %function
 536              	INPUT_handler:
 537              	.LFB71:
 115:..\common\tterm/top.c **** 
 116:..\common\tterm/top.c **** uint8_t INPUT_handler(TERMINAL_HANDLE * handle, uint16_t c){
 538              		.loc 1 116 0
 539              		.cfi_startproc
 540              		@ args = 0, pretend = 0, frame = 8
 541              		@ frame_needed = 0, uses_anonymous_args = 0
 542              	.LVL74:
 543 0000 07B5     		push	{r0, r1, r2, lr}
 544              		.cfi_def_cfa_offset 16
 545              		.cfi_offset 14, -4
 117:..\common\tterm/top.c ****     if(handle->currProgram->inputStream==NULL) return TERM_CMD_EXIT_SUCCESS;
 546              		.loc 1 117 0
 547 0002 4369     		ldr	r3, [r0, #20]
 116:..\common\tterm/top.c ****     if(handle->currProgram->inputStream==NULL) return TERM_CMD_EXIT_SUCCESS;
 548              		.loc 1 116 0
 549 0004 ADF80610 		strh	r1, [sp, #6]	@ movhi
ARM GAS  C:\Users\chemi\AppData\Local\Temp\ccZyO0Z2.s 			page 13


 550              		.loc 1 117 0
 551 0008 D868     		ldr	r0, [r3, #12]
 552              	.LVL75:
 553 000a 60B1     		cbz	r0, .L32
 118:..\common\tterm/top.c ****     switch(c){
 554              		.loc 1 118 0
 555 000c 8BB2     		uxth	r3, r1
 556 000e 032B     		cmp	r3, #3
 557 0010 01D0     		beq	.L31
 558 0012 712B     		cmp	r3, #113
 559 0014 09D1     		bne	.L40
 560              	.L31:
 119:..\common\tterm/top.c ****         case 'q':
 120:..\common\tterm/top.c ****         case CTRL_C:
 121:..\common\tterm/top.c ****             c=CTRL_C;
 561              		.loc 1 121 0
 562 0016 0323     		movs	r3, #3
 563 0018 02A9     		add	r1, sp, #8
 564              	.LVL76:
 565 001a 21F8023D 		strh	r3, [r1, #-2]!	@ movhi
 566              	.LVL77:
 122:..\common\tterm/top.c ****             xStreamBufferSend(handle->currProgram->inputStream,&c,1,20);
 567              		.loc 1 122 0
 568 001e 0122     		movs	r2, #1
 569 0020 1423     		movs	r3, #20
 570 0022 FFF7FEFF 		bl	xStreamBufferSend
 571              	.LVL78:
 572              	.L32:
 117:..\common\tterm/top.c ****     switch(c){
 573              		.loc 1 117 0
 574 0026 FF20     		movs	r0, #255
 575 0028 00E0     		b	.L30
 576              	.LVL79:
 577              	.L40:
 123:..\common\tterm/top.c ****             return TERM_CMD_EXIT_SUCCESS;
 124:..\common\tterm/top.c ****         default:
 125:..\common\tterm/top.c ****             return TERM_CMD_CONTINUE;
 578              		.loc 1 125 0
 579 002a 8020     		movs	r0, #128
 580              	.LVL80:
 581              	.L30:
 126:..\common\tterm/top.c ****     }
 127:..\common\tterm/top.c **** }...
 582              		.loc 1 127 0
 583 002c 03B0     		add	sp, sp, #12
 584              		.cfi_def_cfa_offset 4
 585              		@ sp needed
 586 002e 5DF804FB 		ldr	pc, [sp], #4
 587              		.cfi_endproc
 588              	.LFE71:
 589              		.size	INPUT_handler, .-INPUT_handler
 590              		.section	.text.REGISTER_top,"ax",%progbits
 591              		.align	1
 592              		.global	REGISTER_top
 593              		.thumb
 594              		.thumb_func
 595              		.type	REGISTER_top, %function
ARM GAS  C:\Users\chemi\AppData\Local\Temp\ccZyO0Z2.s 			page 14


 596              	REGISTER_top:
 597              	.LFB68:
  36:..\common\tterm/top.c **** uint8_t REGISTER_top(TermCommandDescriptor * desc){
 598              		.loc 1 36 0
 599              		.cfi_startproc
 600              		@ args = 0, pretend = 0, frame = 0
 601              		@ frame_needed = 0, uses_anonymous_args = 0
 602              	.LVL81:
 603 0000 07B5     		push	{r0, r1, r2, lr}
 604              		.cfi_def_cfa_offset 16
 605              		.cfi_offset 14, -4
  37:..\common\tterm/top.c ****     TERM_addCommand(CMD_main, APP_NAME, APP_DESCRIPTION, 0, desc); 
 606              		.loc 1 37 0
 607 0002 0023     		movs	r3, #0
 608 0004 0090     		str	r0, [sp]
 609 0006 044A     		ldr	r2, .L42
 610 0008 0449     		ldr	r1, .L42+4
 611 000a 0548     		ldr	r0, .L42+8
 612              	.LVL82:
 613 000c FFF7FEFF 		bl	TERM_addCommand
 614              	.LVL83:
  39:..\common\tterm/top.c **** }
 615              		.loc 1 39 0
 616 0010 0120     		movs	r0, #1
 617 0012 03B0     		add	sp, sp, #12
 618              		.cfi_def_cfa_offset 4
 619              		@ sp needed
 620 0014 5DF804FB 		ldr	pc, [sp], #4
 621              	.L43:
 622              		.align	2
 623              	.L42:
 624 0018 09010000 		.word	.LC9
 625 001c 00000000 		.word	.LC0
 626 0020 00000000 		.word	CMD_main
 627              		.cfi_endproc
 628              	.LFE68:
 629              		.size	REGISTER_top, .-REGISTER_top
 630              		.section	.rodata.str1.1,"aMS",%progbits,1
 631              	.LC0:
 632 0000 746F7000 		.ascii	"top\000"
 633              	.LC1:
 634 0004 2573626F 		.ascii	"%sbottom - %d\015\012%sTasks: \011%d\015\012%sCPU: "
 634      74746F6D 
 634      202D2025 
 634      640D0A25 
 634      73546173 
 635 0028 0925642C 		.ascii	"\011%d,%d%%\015\012\000"
 635      25642525 
 635      0D0A00
 636              	.LC2:
 637 0033 25734D65 		.ascii	"%sMem: \011%db total,\011 %db free,\011 %db used (%"
 637      6D3A2009 
 637      25646220 
 637      746F7461 
 637      6C2C0920 
 638 005d 64252529 		.ascii	"d%%)\015\012\000"
 638      0D0A00
ARM GAS  C:\Users\chemi\AppData\Local\Temp\ccZyO0Z2.s 			page 15


 639              	.LC3:
 640 0064 25732573 		.ascii	"%s%s%s\000"
 640      257300
 641              	.LC4:
 642 006b 50494420 		.ascii	"PID \015\033[%dCName \015\033[%dCstate \015\033[%dC"
 642      0D1B5B25 
 642      64434E61 
 642      6D65200D 
 642      1B5B2564 
 643 008c 25254370 		.ascii	"%%Cpu \015\033[%dCtime  \015\033[%dCStack \015\033["
 643      75200D1B 
 643      5B256443 
 643      74696D65 
 643      20200D1B 
 644 00ad 25644348 		.ascii	"%dCHeap\015\012\000"
 644      6561700D 
 644      0A00
 645              	.LC5:
 646 00b7 257300   		.ascii	"%s\000"
 647              	.LC6:
 648 00ba 49444C45 		.ascii	"IDLE\000"
 648      00
 649              	.LC7:
 650 00bf 25732564 		.ascii	"%s%d\015\033[%dC%s\015\033[%dC%s\015\033[%dC%d,%d\015"
 650      0D1B5B25 
 650      64432573 
 650      0D1B5B25 
 650      64432573 
 651 00df 1B5B2564 		.ascii	"\033[%dC%d\015\033[%dC%u\015\033[%dC%d\015\012\000"
 651      4325640D 
 651      1B5B2564 
 651      4325750D 
 651      1B5B2564 
 652              	.LC8:
 653 00f9 4D616C6C 		.ascii	"Malloc failed\015\012\000"
 653      6F632066 
 653      61696C65 
 653      640D0A00 
 654              	.LC9:
 655 0109 73686F77 		.ascii	"shows performance stats\000"
 655      73207065 
 655      72666F72 
 655      6D616E63 
 655      65207374 
 656              		.text
 657              	.Letext0:
 658              		.file 2 "c:\\program files (x86)\\cypress\\psoc creator\\4.4\\psoc creator\\import\\gnu\\arm\\5.4.
 659              		.file 3 "c:\\program files (x86)\\cypress\\psoc creator\\4.4\\psoc creator\\import\\gnu\\arm\\5.4.
 660              		.file 4 "c:\\program files (x86)\\cypress\\psoc creator\\4.4\\psoc creator\\import\\gnu\\arm\\5.4.
 661              		.file 5 "..\\common\\rtos\\portable\\GCC\\ARM_CM3/portmacro.h"
 662              		.file 6 "..\\common\\rtos\\include/task.h"
 663              		.file 7 "..\\common\\rtos\\include/stream_buffer.h"
 664              		.file 8 "..\\common\\tterm\\TTerm.h"
 665              		.file 9 "c:\\program files (x86)\\cypress\\psoc creator\\4.4\\psoc creator\\import\\gnu\\arm\\5.4.
 666              		.file 10 "..\\common\\rtos\\include/portable.h"
 667              		.file 11 "..\\common\\ud3core/system.h"
 668              		.file 12 "Generated_Source\\PSoC5/core_cm3.h"
ARM GAS  C:\Users\chemi\AppData\Local\Temp\ccZyO0Z2.s 			page 16

