ARM GAS  C:\Users\chemi\AppData\Local\Temp\ccw63Ndb.s 			page 1


   1              		.syntax unified
   2              		.cpu cortex-m3
   3              		.fpu softvfp
   4              		.eabi_attribute 20, 1
   5              		.eabi_attribute 21, 1
   6              		.eabi_attribute 23, 3
   7              		.eabi_attribute 24, 1
   8              		.eabi_attribute 25, 1
   9              		.eabi_attribute 26, 1
  10              		.eabi_attribute 30, 4
  11              		.eabi_attribute 34, 1
  12              		.eabi_attribute 18, 4
  13              		.thumb
  14              		.syntax unified
  15              		.file	"tsk_eth_common.c"
  16              		.text
  17              	.Ltext0:
  18              		.cfi_sections	.debug_frame
  19              		.section	.text.process_midi,"ax",%progbits
  20              		.align	1
  21              		.global	process_midi
  22              		.thumb
  23              		.thumb_func
  24              		.type	process_midi, %function
  25              	process_midi:
  26              	.LFB68:
  27              		.file 1 "..\\common\\ud3core\\tasks\\tsk_eth_common.c"
   1:..\common\ud3core\tasks/tsk_eth_common.c **** /* ========================================
   2:..\common\ud3core\tasks/tsk_eth_common.c ****  *
   3:..\common\ud3core\tasks/tsk_eth_common.c ****  * Copyright YOUR COMPANY, THE YEAR
   4:..\common\ud3core\tasks/tsk_eth_common.c ****  * All Rights Reserved
   5:..\common\ud3core\tasks/tsk_eth_common.c ****  * UNPUBLISHED, LICENSED SOFTWARE.
   6:..\common\ud3core\tasks/tsk_eth_common.c ****  *
   7:..\common\ud3core\tasks/tsk_eth_common.c ****  * CONFIDENTIAL AND PROPRIETARY INFORMATION
   8:..\common\ud3core\tasks/tsk_eth_common.c ****  * WHICH IS THE PROPERTY OF your company.
   9:..\common\ud3core\tasks/tsk_eth_common.c ****  *
  10:..\common\ud3core\tasks/tsk_eth_common.c ****  * ========================================
  11:..\common\ud3core\tasks/tsk_eth_common.c **** */
  12:..\common\ud3core\tasks/tsk_eth_common.c **** 
  13:..\common\ud3core\tasks/tsk_eth_common.c **** /* [] END OF FILE */
  14:..\common\ud3core\tasks/tsk_eth_common.c **** #include "tsk_eth_common.h"
  15:..\common\ud3core\tasks/tsk_eth_common.c **** #include "cyapicallbacks.h"
  16:..\common\ud3core\tasks/tsk_eth_common.c **** #include <cytypes.h>
  17:..\common\ud3core\tasks/tsk_eth_common.c **** #include <device.h>
  18:..\common\ud3core\tasks/tsk_eth_common.c **** #include "telemetry.h"
  19:..\common\ud3core\tasks/tsk_eth_common.c **** #include "alarmevent.h"
  20:..\common\ud3core\tasks/tsk_eth_common.c **** #include "cli_common.h"
  21:..\common\ud3core\tasks/tsk_eth_common.c **** #include "tasks/tsk_midi.h"
  22:..\common\ud3core\tasks/tsk_eth_common.c **** #include "tasks/tsk_sid.h"
  23:..\common\ud3core\tasks/tsk_eth_common.c **** #include "tasks/tsk_fault.h"
  24:..\common\ud3core\tasks/tsk_eth_common.c **** #include "clock.h"
  25:..\common\ud3core\tasks/tsk_eth_common.c **** #include "SidFilter.h"
  26:..\common\ud3core\tasks/tsk_eth_common.c **** 
  27:..\common\ud3core\tasks/tsk_eth_common.c **** typedef struct{
  28:..\common\ud3core\tasks/tsk_eth_common.c ****     uint8_t cmd;
  29:..\common\ud3core\tasks/tsk_eth_common.c ****     int8_t message_size;
  30:..\common\ud3core\tasks/tsk_eth_common.c ****     uint8_t bytes_received;
ARM GAS  C:\Users\chemi\AppData\Local\Temp\ccw63Ndb.s 			page 2


  31:..\common\ud3core\tasks/tsk_eth_common.c ****     uint8_t msg[3];
  32:..\common\ud3core\tasks/tsk_eth_common.c **** } midi_cmd;
  33:..\common\ud3core\tasks/tsk_eth_common.c **** 
  34:..\common\ud3core\tasks/tsk_eth_common.c **** #define MIDI_NOTE_OFF           0x80
  35:..\common\ud3core\tasks/tsk_eth_common.c **** #define MIDI_NOTE_ON            0x90
  36:..\common\ud3core\tasks/tsk_eth_common.c **** #define MIDI_KEY_PRESSURE       0xA0
  37:..\common\ud3core\tasks/tsk_eth_common.c **** #define MIDI_CC                 0xB0
  38:..\common\ud3core\tasks/tsk_eth_common.c **** #define MIDI_PC                 0xC0
  39:..\common\ud3core\tasks/tsk_eth_common.c **** #define MIDI_CP                 0xD0
  40:..\common\ud3core\tasks/tsk_eth_common.c **** #define MIDI_PB                 0xE0
  41:..\common\ud3core\tasks/tsk_eth_common.c **** #define MIDI_FUNCTION           0xF0
  42:..\common\ud3core\tasks/tsk_eth_common.c **** 
  43:..\common\ud3core\tasks/tsk_eth_common.c **** #define MIDI_SYSEX_START        0xF0
  44:..\common\ud3core\tasks/tsk_eth_common.c **** #define MIDI_SONG_POSITION      0xF2
  45:..\common\ud3core\tasks/tsk_eth_common.c **** #define MIDI_SONG_SELECT        0xF3
  46:..\common\ud3core\tasks/tsk_eth_common.c **** #define MIDI_BUS_SELECT         0xF5
  47:..\common\ud3core\tasks/tsk_eth_common.c **** #define MIDI_TUNE_REQUEST       0xF6
  48:..\common\ud3core\tasks/tsk_eth_common.c **** #define MIDI_SYSEX_END          0xF7
  49:..\common\ud3core\tasks/tsk_eth_common.c **** #define MIDI_START_SONG         0xFA
  50:..\common\ud3core\tasks/tsk_eth_common.c **** #define MIDI_CONTINUE_SONG      0xFB
  51:..\common\ud3core\tasks/tsk_eth_common.c **** #define MIDI_STOP_SONG          0xFC
  52:..\common\ud3core\tasks/tsk_eth_common.c **** #define MIDI_ACTIVE_SENSING     0xFE
  53:..\common\ud3core\tasks/tsk_eth_common.c **** #define MIDI_SYSTEM_RESET       0xFF
  54:..\common\ud3core\tasks/tsk_eth_common.c **** 
  55:..\common\ud3core\tasks/tsk_eth_common.c **** #define MAX_SYSEX_SIZE          32
  56:..\common\ud3core\tasks/tsk_eth_common.c **** 
  57:..\common\ud3core\tasks/tsk_eth_common.c **** #define DATA_NOT_READY          -1
  58:..\common\ud3core\tasks/tsk_eth_common.c **** 
  59:..\common\ud3core\tasks/tsk_eth_common.c **** 
  60:..\common\ud3core\tasks/tsk_eth_common.c **** void process_midi(uint8_t* ptr, uint16_t len) {
  28              		.loc 1 60 0
  29              		.cfi_startproc
  30              		@ args = 0, pretend = 0, frame = 0
  31              		@ frame_needed = 0, uses_anonymous_args = 0
  32              	.LVL0:
  33 0000 F8B5     		push	{r3, r4, r5, r6, r7, lr}
  34              		.cfi_def_cfa_offset 24
  35              		.cfi_offset 3, -24
  36              		.cfi_offset 4, -20
  37              		.cfi_offset 5, -16
  38              		.cfi_offset 6, -12
  39              		.cfi_offset 7, -8
  40              		.cfi_offset 14, -4
  41              		.loc 1 60 0
  42 0002 0746     		mov	r7, r0
  43 0004 0D46     		mov	r5, r1
  44 0006 304C     		ldr	r4, .L27
  45              	.LBB2:
  61:..\common\ud3core\tasks/tsk_eth_common.c ****     static midi_cmd state = {.message_size = DATA_NOT_READY};
  62:..\common\ud3core\tasks/tsk_eth_common.c ****  
  63:..\common\ud3core\tasks/tsk_eth_common.c **** 	while (len) {
  64:..\common\ud3core\tasks/tsk_eth_common.c **** 		uint8_t c = *ptr;
  65:..\common\ud3core\tasks/tsk_eth_common.c ****         uint8_t c_masked = c & 0xF0;
  66:..\common\ud3core\tasks/tsk_eth_common.c ****         len--;
  67:..\common\ud3core\tasks/tsk_eth_common.c ****         ptr++;
  68:..\common\ud3core\tasks/tsk_eth_common.c **** 
  69:..\common\ud3core\tasks/tsk_eth_common.c **** 		if (c & 0x80) {  //MSB set  Reset
ARM GAS  C:\Users\chemi\AppData\Local\Temp\ccw63Ndb.s 			page 3


  70:..\common\ud3core\tasks/tsk_eth_common.c ****             state.bytes_received = 0;
  71:..\common\ud3core\tasks/tsk_eth_common.c ****             switch(c_masked){
  72:..\common\ud3core\tasks/tsk_eth_common.c ****                 case MIDI_PC:
  73:..\common\ud3core\tasks/tsk_eth_common.c ****                     state.cmd = c;
  74:..\common\ud3core\tasks/tsk_eth_common.c ****                     state.message_size = 1;
  75:..\common\ud3core\tasks/tsk_eth_common.c ****                 break;
  76:..\common\ud3core\tasks/tsk_eth_common.c ****                 case MIDI_CP:
  77:..\common\ud3core\tasks/tsk_eth_common.c ****                     state.cmd = c;
  78:..\common\ud3core\tasks/tsk_eth_common.c ****                     state.message_size = 1;
  79:..\common\ud3core\tasks/tsk_eth_common.c ****                 break;
  80:..\common\ud3core\tasks/tsk_eth_common.c ****                 case MIDI_FUNCTION:
  81:..\common\ud3core\tasks/tsk_eth_common.c ****                 
  82:..\common\ud3core\tasks/tsk_eth_common.c ****                     switch(c){
  83:..\common\ud3core\tasks/tsk_eth_common.c ****                         case MIDI_SYSEX_START:
  84:..\common\ud3core\tasks/tsk_eth_common.c ****                             state.cmd = c;
  85:..\common\ud3core\tasks/tsk_eth_common.c ****                             state.bytes_received = 0;
  86:..\common\ud3core\tasks/tsk_eth_common.c ****                             state.message_size = MAX_SYSEX_SIZE;
  87:..\common\ud3core\tasks/tsk_eth_common.c ****                         break;
  88:..\common\ud3core\tasks/tsk_eth_common.c ****                         case MIDI_SYSEX_END:
  89:..\common\ud3core\tasks/tsk_eth_common.c ****                             state.message_size = state.bytes_received;
  90:..\common\ud3core\tasks/tsk_eth_common.c ****                         break;
  91:..\common\ud3core\tasks/tsk_eth_common.c ****                         case MIDI_SONG_POSITION:
  92:..\common\ud3core\tasks/tsk_eth_common.c ****                             state.cmd = c;
  93:..\common\ud3core\tasks/tsk_eth_common.c ****                             state.message_size = 2;
  94:..\common\ud3core\tasks/tsk_eth_common.c ****                         break;
  95:..\common\ud3core\tasks/tsk_eth_common.c ****                         case MIDI_SONG_SELECT:
  96:..\common\ud3core\tasks/tsk_eth_common.c ****                             state.cmd = c;
  97:..\common\ud3core\tasks/tsk_eth_common.c ****                             state.message_size = 1;
  98:..\common\ud3core\tasks/tsk_eth_common.c ****                         break;
  99:..\common\ud3core\tasks/tsk_eth_common.c ****                         case MIDI_BUS_SELECT:
 100:..\common\ud3core\tasks/tsk_eth_common.c ****                             state.cmd = c;
 101:..\common\ud3core\tasks/tsk_eth_common.c ****                             state.message_size = 1;
 102:..\common\ud3core\tasks/tsk_eth_common.c ****                         break;
 103:..\common\ud3core\tasks/tsk_eth_common.c ****                         default:
 104:..\common\ud3core\tasks/tsk_eth_common.c ****                             state.cmd = c;
 105:..\common\ud3core\tasks/tsk_eth_common.c ****                             state.message_size = 0;
 106:..\common\ud3core\tasks/tsk_eth_common.c ****                         break;
 107:..\common\ud3core\tasks/tsk_eth_common.c ****                     }
 108:..\common\ud3core\tasks/tsk_eth_common.c ****                 break;
 109:..\common\ud3core\tasks/tsk_eth_common.c ****                 default:
 110:..\common\ud3core\tasks/tsk_eth_common.c ****                     state.cmd = c;
 111:..\common\ud3core\tasks/tsk_eth_common.c ****                     state.message_size = 2;
 112:..\common\ud3core\tasks/tsk_eth_common.c ****                 break;
 113:..\common\ud3core\tasks/tsk_eth_common.c ****             }
 114:..\common\ud3core\tasks/tsk_eth_common.c ****         }else{
 115:..\common\ud3core\tasks/tsk_eth_common.c ****                 if(state.bytes_received < state.message_size && state.cmd != MIDI_SYSEX_START){
 116:..\common\ud3core\tasks/tsk_eth_common.c ****                     state.msg[state.bytes_received + 1] = c;
 117:..\common\ud3core\tasks/tsk_eth_common.c ****                     state.bytes_received++;
 118:..\common\ud3core\tasks/tsk_eth_common.c ****                 } else if(state.bytes_received < state.message_size && state.cmd == MIDI_SYSEX_STAR
 119:..\common\ud3core\tasks/tsk_eth_common.c ****                     state.bytes_received++;
 120:..\common\ud3core\tasks/tsk_eth_common.c ****                 }
 121:..\common\ud3core\tasks/tsk_eth_common.c ****  
 122:..\common\ud3core\tasks/tsk_eth_common.c ****                 if(state.message_size != DATA_NOT_READY && state.bytes_received == state.message_si
 123:..\common\ud3core\tasks/tsk_eth_common.c ****                     state.msg[0] = state.cmd;
 124:..\common\ud3core\tasks/tsk_eth_common.c ****                     queue_midi_message(state.msg);
 125:..\common\ud3core\tasks/tsk_eth_common.c ****                     state.bytes_received = 0;
  46              		.loc 1 125 0
ARM GAS  C:\Users\chemi\AppData\Local\Temp\ccw63Ndb.s 			page 4


  47 0008 0026     		movs	r6, #0
  48              	.LVL1:
  49              	.L2:
  50              	.LBE2:
  63:..\common\ud3core\tasks/tsk_eth_common.c **** 		uint8_t c = *ptr;
  51              		.loc 1 63 0
  52 000a 002D     		cmp	r5, #0
  53 000c 5AD0     		beq	.L26
  54              	.LBB3:
  64:..\common\ud3core\tasks/tsk_eth_common.c ****         uint8_t c_masked = c & 0xF0;
  55              		.loc 1 64 0
  56 000e 17F8013B 		ldrb	r3, [r7], #1	@ zero_extendqisi2
  57              	.LVL2:
  66:..\common\ud3core\tasks/tsk_eth_common.c ****         ptr++;
  58              		.loc 1 66 0
  59 0012 013D     		subs	r5, r5, #1
  60              	.LVL3:
  69:..\common\ud3core\tasks/tsk_eth_common.c ****             state.bytes_received = 0;
  61              		.loc 1 69 0
  62 0014 1A06     		lsls	r2, r3, #24
  66:..\common\ud3core\tasks/tsk_eth_common.c ****         ptr++;
  63              		.loc 1 66 0
  64 0016 ADB2     		uxth	r5, r5
  65              	.LVL4:
  69:..\common\ud3core\tasks/tsk_eth_common.c ****             state.bytes_received = 0;
  66              		.loc 1 69 0
  67 0018 34D5     		bpl	.L3
  71:..\common\ud3core\tasks/tsk_eth_common.c ****                 case MIDI_PC:
  68              		.loc 1 71 0
  69 001a 03F0F002 		and	r2, r3, #240
  70 001e D02A     		cmp	r2, #208
  70:..\common\ud3core\tasks/tsk_eth_common.c ****             switch(c_masked){
  71              		.loc 1 70 0
  72 0020 A670     		strb	r6, [r4, #2]
  71:..\common\ud3core\tasks/tsk_eth_common.c ****                 case MIDI_PC:
  73              		.loc 1 71 0
  74 0022 06D0     		beq	.L5
  75 0024 F02A     		cmp	r2, #240
  76 0026 07D0     		beq	.L6
  77 0028 C02A     		cmp	r2, #192
  73:..\common\ud3core\tasks/tsk_eth_common.c ****                     state.message_size = 1;
  78              		.loc 1 73 0
  79 002a 2370     		strb	r3, [r4]
  71:..\common\ud3core\tasks/tsk_eth_common.c ****                 case MIDI_PC:
  80              		.loc 1 71 0
  81 002c 28D1     		bne	.L21
  82 002e 01E0     		b	.L24
  83              	.L13:
  96:..\common\ud3core\tasks/tsk_eth_common.c ****                             state.message_size = 1;
  84              		.loc 1 96 0
  85 0030 F323     		movs	r3, #243
  86              	.LVL5:
  87              	.L5:
  77:..\common\ud3core\tasks/tsk_eth_common.c ****                     state.message_size = 1;
  88              		.loc 1 77 0
  89 0032 2370     		strb	r3, [r4]
  90              	.L24:
ARM GAS  C:\Users\chemi\AppData\Local\Temp\ccw63Ndb.s 			page 5


  78:..\common\ud3core\tasks/tsk_eth_common.c ****                 break;
  91              		.loc 1 78 0
  92 0034 0123     		movs	r3, #1
  93 0036 43E0     		b	.L22
  94              	.LVL6:
  95              	.L6:
  82:..\common\ud3core\tasks/tsk_eth_common.c ****                         case MIDI_SYSEX_START:
  96              		.loc 1 82 0
  97 0038 A3F1F002 		sub	r2, r3, #240
  98 003c 072A     		cmp	r2, #7
  99 003e 1CD8     		bhi	.L9
 100 0040 01A1     		adr	r1, .L11
 101 0042 51F822F0 		ldr	pc, [r1, r2, lsl #2]
 102 0046 00BF     		.p2align 2
 103              	.L11:
 104 0048 69000000 		.word	.L10+1
 105 004c 7B000000 		.word	.L9+1
 106 0050 71000000 		.word	.L12+1
 107 0054 31000000 		.word	.L13+1
 108 0058 7B000000 		.word	.L9+1
 109 005c 77000000 		.word	.L14+1
 110 0060 7B000000 		.word	.L9+1
 111 0064 7D000000 		.word	.L23+1
 112              		.p2align 1
 113              	.L10:
  84:..\common\ud3core\tasks/tsk_eth_common.c ****                             state.bytes_received = 0;
 114              		.loc 1 84 0
 115 0068 F023     		movs	r3, #240
 116              	.LVL7:
 117 006a 2370     		strb	r3, [r4]
  86:..\common\ud3core\tasks/tsk_eth_common.c ****                         break;
 118              		.loc 1 86 0
 119 006c 2023     		movs	r3, #32
 120 006e 27E0     		b	.L22
 121              	.LVL8:
 122              	.L12:
  92:..\common\ud3core\tasks/tsk_eth_common.c ****                             state.message_size = 2;
 123              		.loc 1 92 0
 124 0070 F223     		movs	r3, #242
 125              	.LVL9:
 126 0072 2370     		strb	r3, [r4]
 127 0074 04E0     		b	.L21
 128              	.LVL10:
 129              	.L14:
 100:..\common\ud3core\tasks/tsk_eth_common.c ****                             state.message_size = 1;
 130              		.loc 1 100 0
 131 0076 F523     		movs	r3, #245
 132              	.LVL11:
 133 0078 DBE7     		b	.L5
 134              	.LVL12:
 135              	.L9:
 104:..\common\ud3core\tasks/tsk_eth_common.c ****                             state.message_size = 0;
 136              		.loc 1 104 0
 137 007a 2370     		strb	r3, [r4]
 138              	.L23:
 105:..\common\ud3core\tasks/tsk_eth_common.c ****                         break;
 139              		.loc 1 105 0
ARM GAS  C:\Users\chemi\AppData\Local\Temp\ccw63Ndb.s 			page 6


 140 007c 6670     		strb	r6, [r4, #1]
 106:..\common\ud3core\tasks/tsk_eth_common.c ****                     }
 141              		.loc 1 106 0
 142 007e C4E7     		b	.L2
 143              	.LVL13:
 144              	.L21:
 111:..\common\ud3core\tasks/tsk_eth_common.c ****                 break;
 145              		.loc 1 111 0
 146 0080 0223     		movs	r3, #2
 147 0082 1DE0     		b	.L22
 148              	.LVL14:
 149              	.L3:
 115:..\common\ud3core\tasks/tsk_eth_common.c ****                     state.msg[state.bytes_received + 1] = c;
 150              		.loc 1 115 0
 151 0084 A278     		ldrb	r2, [r4, #2]	@ zero_extendqisi2
 152 0086 94F90110 		ldrsb	r1, [r4, #1]
 153 008a 8A42     		cmp	r2, r1
 154 008c 07DA     		bge	.L16
 115:..\common\ud3core\tasks/tsk_eth_common.c ****                     state.msg[state.bytes_received + 1] = c;
 155              		.loc 1 115 0 is_stmt 0 discriminator 1
 156 008e 2078     		ldrb	r0, [r4]	@ zero_extendqisi2
 157 0090 F028     		cmp	r0, #240
 158 0092 02F10100 		add	r0, r2, #1
 116:..\common\ud3core\tasks/tsk_eth_common.c ****                     state.bytes_received++;
 159              		.loc 1 116 0 is_stmt 1 discriminator 1
 160 0096 1CBF     		itt	ne
 161 0098 1219     		addne	r2, r2, r4
 162 009a 1371     		strbne	r3, [r2, #4]
 119:..\common\ud3core\tasks/tsk_eth_common.c ****                 }
 163              		.loc 1 119 0 discriminator 1
 164 009c A070     		strb	r0, [r4, #2]
 165              	.L16:
 122:..\common\ud3core\tasks/tsk_eth_common.c ****                     state.msg[0] = state.cmd;
 166              		.loc 1 122 0
 167 009e 4B1C     		adds	r3, r1, #1
 168              	.LVL15:
 169 00a0 B3D0     		beq	.L2
 122:..\common\ud3core\tasks/tsk_eth_common.c ****                     state.msg[0] = state.cmd;
 170              		.loc 1 122 0 is_stmt 0 discriminator 1
 171 00a2 A378     		ldrb	r3, [r4, #2]	@ zero_extendqisi2
 172 00a4 9942     		cmp	r1, r3
 173 00a6 B0D1     		bne	.L2
 123:..\common\ud3core\tasks/tsk_eth_common.c ****                     queue_midi_message(state.msg);
 174              		.loc 1 123 0 is_stmt 1
 175 00a8 2378     		ldrb	r3, [r4]	@ zero_extendqisi2
 124:..\common\ud3core\tasks/tsk_eth_common.c ****                     state.bytes_received = 0;
 176              		.loc 1 124 0
 177 00aa 0848     		ldr	r0, .L27+4
 123:..\common\ud3core\tasks/tsk_eth_common.c ****                     queue_midi_message(state.msg);
 178              		.loc 1 123 0
 179 00ac E370     		strb	r3, [r4, #3]
 124:..\common\ud3core\tasks/tsk_eth_common.c ****                     state.bytes_received = 0;
 180              		.loc 1 124 0
 181 00ae FFF7FEFF 		bl	queue_midi_message
 182              	.LVL16:
 126:..\common\ud3core\tasks/tsk_eth_common.c ****                     if((state.cmd & 0xF0) == MIDI_FUNCTION){
 183              		.loc 1 126 0
ARM GAS  C:\Users\chemi\AppData\Local\Temp\ccw63Ndb.s 			page 7


 184 00b2 2378     		ldrb	r3, [r4]	@ zero_extendqisi2
 125:..\common\ud3core\tasks/tsk_eth_common.c ****                     if((state.cmd & 0xF0) == MIDI_FUNCTION){
 185              		.loc 1 125 0
 186 00b4 A670     		strb	r6, [r4, #2]
 187              		.loc 1 126 0
 188 00b6 03F0F003 		and	r3, r3, #240
 189 00ba F02B     		cmp	r3, #240
 190 00bc A5D1     		bne	.L2
 127:..\common\ud3core\tasks/tsk_eth_common.c ****                         state.message_size = DATA_NOT_READY;
 191              		.loc 1 127 0
 192 00be FF23     		movs	r3, #255
 193              	.L22:
 194 00c0 6370     		strb	r3, [r4, #1]
 195 00c2 A2E7     		b	.L2
 196              	.L26:
 197              	.LBE3:
 128:..\common\ud3core\tasks/tsk_eth_common.c ****                     }
 129:..\common\ud3core\tasks/tsk_eth_common.c ****                 }
 130:..\common\ud3core\tasks/tsk_eth_common.c ****         }
 131:..\common\ud3core\tasks/tsk_eth_common.c ****     }
 132:..\common\ud3core\tasks/tsk_eth_common.c **** }
 198              		.loc 1 132 0
 199 00c4 F8BD     		pop	{r3, r4, r5, r6, r7, pc}
 200              	.LVL17:
 201              	.L28:
 202 00c6 00BF     		.align	2
 203              	.L27:
 204 00c8 00000000 		.word	.LANCHOR0
 205 00cc 03000000 		.word	.LANCHOR0+3
 206              		.cfi_endproc
 207              	.LFE68:
 208              		.size	process_midi, .-process_midi
 209              		.section	.text.process_min_sid,"ax",%progbits
 210              		.align	1
 211              		.global	process_min_sid
 212              		.thumb
 213              		.thumb_func
 214              		.type	process_min_sid, %function
 215              	process_min_sid:
 216              	.LFB69:
 133:..\common\ud3core\tasks/tsk_eth_common.c **** 
 134:..\common\ud3core\tasks/tsk_eth_common.c **** 
 135:..\common\ud3core\tasks/tsk_eth_common.c **** #define SID_BYTES       29
 136:..\common\ud3core\tasks/tsk_eth_common.c **** 
 137:..\common\ud3core\tasks/tsk_eth_common.c **** #define SID_COMMAND_VOLUME       0
 138:..\common\ud3core\tasks/tsk_eth_common.c **** #define SID_COMMAND_NOISE_VOLUME 1
 139:..\common\ud3core\tasks/tsk_eth_common.c **** #define SID_COMMAND_HPV_ENABLE   2
 140:..\common\ud3core\tasks/tsk_eth_common.c **** 
 141:..\common\ud3core\tasks/tsk_eth_common.c **** void process_min_sid(uint8_t* ptr, uint16_t len) {
 217              		.loc 1 141 0
 218              		.cfi_startproc
 219              		@ args = 0, pretend = 0, frame = 64
 220              		@ frame_needed = 0, uses_anonymous_args = 0
 221              	.LVL18:
 222 0000 2DE9F04F 		push	{r4, r5, r6, r7, r8, r9, r10, fp, lr}
 223              		.cfi_def_cfa_offset 36
 224              		.cfi_offset 4, -36
ARM GAS  C:\Users\chemi\AppData\Local\Temp\ccw63Ndb.s 			page 8


 225              		.cfi_offset 5, -32
 226              		.cfi_offset 6, -28
 227              		.cfi_offset 7, -24
 228              		.cfi_offset 8, -20
 229              		.cfi_offset 9, -16
 230              		.cfi_offset 10, -12
 231              		.cfi_offset 11, -8
 232              		.cfi_offset 14, -4
 142:..\common\ud3core\tasks/tsk_eth_common.c ****     uint8_t n_frames = *ptr;
 233              		.loc 1 142 0
 234 0004 0578     		ldrb	r5, [r0]	@ zero_extendqisi2
 235              	.LVL19:
 143:..\common\ud3core\tasks/tsk_eth_common.c ****     len--;
 236              		.loc 1 143 0
 237 0006 0139     		subs	r1, r1, #1
 238              	.LVL20:
 141:..\common\ud3core\tasks/tsk_eth_common.c ****     uint8_t n_frames = *ptr;
 239              		.loc 1 141 0
 240 0008 91B0     		sub	sp, sp, #68
 241              		.cfi_def_cfa_offset 104
 242              		.loc 1 143 0
 243 000a 89B2     		uxth	r1, r1
 244              	.LVL21:
 144:..\common\ud3core\tasks/tsk_eth_common.c ****     ptr++;
 145:..\common\ud3core\tasks/tsk_eth_common.c ****     if (n_frames == 0 && len == 4) {
 245              		.loc 1 145 0
 246 000c CDB9     		cbnz	r5, .L30
 247              		.loc 1 145 0 is_stmt 0 discriminator 1
 248 000e 0429     		cmp	r1, #4
 249 0010 17D1     		bne	.L30
 250              	.LVL22:
 251              	.LBB4:
 146:..\common\ud3core\tasks/tsk_eth_common.c ****         uint8_t command = ptr[0];
 147:..\common\ud3core\tasks/tsk_eth_common.c ****         uint8_t channel = ptr[1];
 148:..\common\ud3core\tasks/tsk_eth_common.c ****         uint16_t value = (ptr[2] << 8) | ptr[3];
 252              		.loc 1 148 0 is_stmt 1
 253 0012 C278     		ldrb	r2, [r0, #3]	@ zero_extendqisi2
 254 0014 0379     		ldrb	r3, [r0, #4]	@ zero_extendqisi2
 255 0016 43EA0223 		orr	r3, r3, r2, lsl #8
 256              	.LVL23:
 149:..\common\ud3core\tasks/tsk_eth_common.c ****         switch (command) {
 257              		.loc 1 149 0
 258 001a 4278     		ldrb	r2, [r0, #1]	@ zero_extendqisi2
 259 001c 012A     		cmp	r2, #1
 260 001e 0DD0     		beq	.L31
 261 0020 07D3     		bcc	.L32
 262 0022 022A     		cmp	r2, #2
 263 0024 0DD1     		bne	.L30
 150:..\common\ud3core\tasks/tsk_eth_common.c ****             case SID_COMMAND_VOLUME:
 151:..\common\ud3core\tasks/tsk_eth_common.c ****                 SID_filterData.channelVolume[channel] = value;
 152:..\common\ud3core\tasks/tsk_eth_common.c ****                 return;
 153:..\common\ud3core\tasks/tsk_eth_common.c ****             case SID_COMMAND_NOISE_VOLUME:
 154:..\common\ud3core\tasks/tsk_eth_common.c ****                 SID_filterData.noiseVolume = value;
 155:..\common\ud3core\tasks/tsk_eth_common.c ****                 return;
 156:..\common\ud3core\tasks/tsk_eth_common.c ****             case SID_COMMAND_HPV_ENABLE:
 157:..\common\ud3core\tasks/tsk_eth_common.c ****                 SID_filterData.hpvEnabledGlobally = value != 0;
 264              		.loc 1 157 0
ARM GAS  C:\Users\chemi\AppData\Local\Temp\ccw63Ndb.s 			page 9


 265 0026 0033     		adds	r3, r3, #0
 266 0028 664A     		ldr	r2, .L76
 267 002a 18BF     		it	ne
 268 002c 0123     		movne	r3, #1
 269              	.LVL24:
 270 002e 1362     		str	r3, [r2, #32]
 271              	.LVL25:
 158:..\common\ud3core\tasks/tsk_eth_common.c ****                 return;
 272              		.loc 1 158 0
 273 0030 C4E0     		b	.L29
 274              	.LVL26:
 275              	.L32:
 151:..\common\ud3core\tasks/tsk_eth_common.c ****                 return;
 276              		.loc 1 151 0
 277 0032 8178     		ldrb	r1, [r0, #2]	@ zero_extendqisi2
 278              	.LVL27:
 279 0034 634A     		ldr	r2, .L76
 280 0036 42F82130 		str	r3, [r2, r1, lsl #2]
 281              	.LVL28:
 152:..\common\ud3core\tasks/tsk_eth_common.c ****             case SID_COMMAND_NOISE_VOLUME:
 282              		.loc 1 152 0
 283 003a BFE0     		b	.L29
 284              	.LVL29:
 285              	.L31:
 154:..\common\ud3core\tasks/tsk_eth_common.c ****                 return;
 286              		.loc 1 154 0
 287 003c 614A     		ldr	r2, .L76
 288 003e D361     		str	r3, [r2, #28]
 289              	.LVL30:
 155:..\common\ud3core\tasks/tsk_eth_common.c ****             case SID_COMMAND_HPV_ENABLE:
 290              		.loc 1 155 0
 291 0040 BCE0     		b	.L29
 292              	.LVL31:
 293              	.L30:
 294              	.LBE4:
 159:..\common\ud3core\tasks/tsk_eth_common.c ****         }
 160:..\common\ud3core\tasks/tsk_eth_common.c ****     }
 161:..\common\ud3core\tasks/tsk_eth_common.c ****     
 162:..\common\ud3core\tasks/tsk_eth_common.c ****     if(len!=(SID_BYTES*n_frames)){
 295              		.loc 1 162 0
 296 0042 1D23     		movs	r3, #29
 297 0044 6B43     		muls	r3, r5, r3
 298 0046 9942     		cmp	r1, r3
 299 0048 04D1     		bne	.L35
 144:..\common\ud3core\tasks/tsk_eth_common.c ****     if (n_frames == 0 && len == 4) {
 300              		.loc 1 144 0
 301 004a 441C     		adds	r4, r0, #1
 302              	.LBB5:
 303              	.LBB6:
 163:..\common\ud3core\tasks/tsk_eth_common.c ****         alarm_push(ALM_PRIO_WARN,"SID: Malformed SID frame", ALM_NO_VALUE);
 164:..\common\ud3core\tasks/tsk_eth_common.c ****         return;
 165:..\common\ud3core\tasks/tsk_eth_common.c ****     }
 166:..\common\ud3core\tasks/tsk_eth_common.c ****     
 167:..\common\ud3core\tasks/tsk_eth_common.c ****     SIDFrame_t SID_frame;
 168:..\common\ud3core\tasks/tsk_eth_common.c ****     
 169:..\common\ud3core\tasks/tsk_eth_common.c ****     //TODO add filter stuff?
 170:..\common\ud3core\tasks/tsk_eth_common.c ****     
ARM GAS  C:\Users\chemi\AppData\Local\Temp\ccw63Ndb.s 			page 10


 171:..\common\ud3core\tasks/tsk_eth_common.c ****     //uint16_t master_pw; //TODO: whats this used for?
 172:..\common\ud3core\tasks/tsk_eth_common.c **** 
 173:..\common\ud3core\tasks/tsk_eth_common.c ****     while(n_frames){
 174:..\common\ud3core\tasks/tsk_eth_common.c ****         uint32_t freq_tempFp8;
 175:..\common\ud3core\tasks/tsk_eth_common.c ****         for(uint32_t i = 0;i<N_SIDCHANNEL;i++){
 176:..\common\ud3core\tasks/tsk_eth_common.c ****             //SID_FREQLO1
 177:..\common\ud3core\tasks/tsk_eth_common.c ****             freq_tempFp8 = *ptr;
 178:..\common\ud3core\tasks/tsk_eth_common.c ****             
 179:..\common\ud3core\tasks/tsk_eth_common.c ****             ptr++;
 180:..\common\ud3core\tasks/tsk_eth_common.c ****             
 181:..\common\ud3core\tasks/tsk_eth_common.c ****             //SID_FREQHI1
 182:..\common\ud3core\tasks/tsk_eth_common.c ****             freq_tempFp8 |= ((uint16_t)*ptr << 8);
 183:..\common\ud3core\tasks/tsk_eth_common.c ****             freq_tempFp8 = (freq_tempFp8<<15)/2179;
 184:..\common\ud3core\tasks/tsk_eth_common.c ****             
 185:..\common\ud3core\tasks/tsk_eth_common.c ****             SID_frame.frequency_dHz[i] = (freq_tempFp8 * 10) >> 8;
 304              		.loc 1 185 0
 305 004c 40F68306 		movw	r6, #2179
 306              	.LBE6:
 186:..\common\ud3core\tasks/tsk_eth_common.c ****             
 187:..\common\ud3core\tasks/tsk_eth_common.c ****             ptr++;
 188:..\common\ud3core\tasks/tsk_eth_common.c ****             
 189:..\common\ud3core\tasks/tsk_eth_common.c ****             //SID_PWLO1
 190:..\common\ud3core\tasks/tsk_eth_common.c ****             SID_frame.pulsewidth[i] = (*ptr & 0xff);
 191:..\common\ud3core\tasks/tsk_eth_common.c ****             
 192:..\common\ud3core\tasks/tsk_eth_common.c ****             ptr++;
 193:..\common\ud3core\tasks/tsk_eth_common.c ****             
 194:..\common\ud3core\tasks/tsk_eth_common.c ****             //SID_PWHI1
 195:..\common\ud3core\tasks/tsk_eth_common.c ****             
 196:..\common\ud3core\tasks/tsk_eth_common.c ****             SID_frame.pulsewidth[i] = (SID_frame.pulsewidth[i] & 0xff) + (((uint16_t)*ptr << 8) & 0
 197:..\common\ud3core\tasks/tsk_eth_common.c ****             
 198:..\common\ud3core\tasks/tsk_eth_common.c ****             ptr++;
 199:..\common\ud3core\tasks/tsk_eth_common.c ****             
 200:..\common\ud3core\tasks/tsk_eth_common.c ****             //SID_CR1
 201:..\common\ud3core\tasks/tsk_eth_common.c ****             
 202:..\common\ud3core\tasks/tsk_eth_common.c ****             //start of with a clear flag set
 203:..\common\ud3core\tasks/tsk_eth_common.c ****             SID_frame.flags[i] = 0;
 204:..\common\ud3core\tasks/tsk_eth_common.c ****             
 205:..\common\ud3core\tasks/tsk_eth_common.c ****             //is noise bit set?
 206:..\common\ud3core\tasks/tsk_eth_common.c ****             if(*ptr & 0x80) SID_frame.flags[i] |= SID_FRAME_FLAG_NOISE;
 207:..\common\ud3core\tasks/tsk_eth_common.c ****             
 208:..\common\ud3core\tasks/tsk_eth_common.c ****             //is SQR bit set?
 209:..\common\ud3core\tasks/tsk_eth_common.c ****             if(*ptr & 0x40) SID_frame.flags[i] |= SID_FRAME_FLAG_SQUARE;
 210:..\common\ud3core\tasks/tsk_eth_common.c ****             
 211:..\common\ud3core\tasks/tsk_eth_common.c ****             //is SAW bit set?
 212:..\common\ud3core\tasks/tsk_eth_common.c ****             if(*ptr & 0x20) SID_frame.flags[i] |= SID_FRAME_FLAG_SAWTOOTH;
 213:..\common\ud3core\tasks/tsk_eth_common.c ****             
 214:..\common\ud3core\tasks/tsk_eth_common.c ****             //is TRI bit set?
 215:..\common\ud3core\tasks/tsk_eth_common.c ****             if(*ptr & 0x10) SID_frame.flags[i] |= SID_FRAME_FLAG_TRIANGLE;
 216:..\common\ud3core\tasks/tsk_eth_common.c ****             
 217:..\common\ud3core\tasks/tsk_eth_common.c ****             //is TEST bit set?
 218:..\common\ud3core\tasks/tsk_eth_common.c ****             if(*ptr & 0x08) SID_frame.flags[i] |= SID_FRAME_FLAG_TEST;
 219:..\common\ud3core\tasks/tsk_eth_common.c ****             
 220:..\common\ud3core\tasks/tsk_eth_common.c ****             //is RING bit set?
 221:..\common\ud3core\tasks/tsk_eth_common.c ****             if(*ptr & 0x04) SID_frame.flags[i] |= SID_FRAME_FLAG_RING;
 222:..\common\ud3core\tasks/tsk_eth_common.c ****             
 223:..\common\ud3core\tasks/tsk_eth_common.c ****             //is SYNC bit set?
 224:..\common\ud3core\tasks/tsk_eth_common.c ****             if(*ptr & 0x02) SID_frame.flags[i] |= SID_FRAME_FLAG_SYNC;
ARM GAS  C:\Users\chemi\AppData\Local\Temp\ccw63Ndb.s 			page 11


 225:..\common\ud3core\tasks/tsk_eth_common.c ****             
 226:..\common\ud3core\tasks/tsk_eth_common.c ****             //is GATE bit set?
 227:..\common\ud3core\tasks/tsk_eth_common.c ****             if(*ptr & 0x01) SID_frame.flags[i] |= SID_FRAME_FLAG_GATE;
 228:..\common\ud3core\tasks/tsk_eth_common.c ****             
 229:..\common\ud3core\tasks/tsk_eth_common.c ****             ptr++;
 230:..\common\ud3core\tasks/tsk_eth_common.c ****             
 231:..\common\ud3core\tasks/tsk_eth_common.c ****             //SID_AD1
 232:..\common\ud3core\tasks/tsk_eth_common.c ****             SID_frame.attack[i] = (*ptr >> 4) & 0x0F;
 233:..\common\ud3core\tasks/tsk_eth_common.c ****             SID_frame.decay[i] = (*ptr) & 0x0F;
 234:..\common\ud3core\tasks/tsk_eth_common.c ****             
 235:..\common\ud3core\tasks/tsk_eth_common.c ****             ptr++;
 236:..\common\ud3core\tasks/tsk_eth_common.c ****             
 237:..\common\ud3core\tasks/tsk_eth_common.c ****             //SID_SR1
 238:..\common\ud3core\tasks/tsk_eth_common.c ****             SID_frame.sustain[i] = ((*ptr & 0xF0) >> 1);
 239:..\common\ud3core\tasks/tsk_eth_common.c ****             SID_frame.release[i] = (*ptr) & 0x0F;
 240:..\common\ud3core\tasks/tsk_eth_common.c ****             
 241:..\common\ud3core\tasks/tsk_eth_common.c ****             ptr++;
 242:..\common\ud3core\tasks/tsk_eth_common.c ****         }
 243:..\common\ud3core\tasks/tsk_eth_common.c ****         //SID_FCLO
 244:..\common\ud3core\tasks/tsk_eth_common.c ****         
 245:..\common\ud3core\tasks/tsk_eth_common.c ****         ptr++;
 246:..\common\ud3core\tasks/tsk_eth_common.c ****         
 247:..\common\ud3core\tasks/tsk_eth_common.c ****         //SID_FCHI
 248:..\common\ud3core\tasks/tsk_eth_common.c ****         
 249:..\common\ud3core\tasks/tsk_eth_common.c ****         ptr++;
 250:..\common\ud3core\tasks/tsk_eth_common.c ****         
 251:..\common\ud3core\tasks/tsk_eth_common.c ****         //SID_Res_Filt
 252:..\common\ud3core\tasks/tsk_eth_common.c ****         
 253:..\common\ud3core\tasks/tsk_eth_common.c ****         ptr++;
 254:..\common\ud3core\tasks/tsk_eth_common.c ****         
 255:..\common\ud3core\tasks/tsk_eth_common.c ****         //SID_Mode_Vol
 256:..\common\ud3core\tasks/tsk_eth_common.c ****         if(*ptr & 0x80) SID_frame.flags[2] |= SID_FRAME_FLAG_CH3OFF;
 257:..\common\ud3core\tasks/tsk_eth_common.c ****         ptr++;
 258:..\common\ud3core\tasks/tsk_eth_common.c ****         
 259:..\common\ud3core\tasks/tsk_eth_common.c ****         //SID_UD_TIME0
 260:..\common\ud3core\tasks/tsk_eth_common.c ****         SID_frame.next_frame = *ptr<<24;
 261:..\common\ud3core\tasks/tsk_eth_common.c ****         
 262:..\common\ud3core\tasks/tsk_eth_common.c ****         ptr++;
 263:..\common\ud3core\tasks/tsk_eth_common.c ****         
 264:..\common\ud3core\tasks/tsk_eth_common.c ****         //SID_UD_TIME1
 265:..\common\ud3core\tasks/tsk_eth_common.c ****         SID_frame.next_frame |= *ptr<<16;
 266:..\common\ud3core\tasks/tsk_eth_common.c ****         
 267:..\common\ud3core\tasks/tsk_eth_common.c ****         ptr++;
 268:..\common\ud3core\tasks/tsk_eth_common.c ****         
 269:..\common\ud3core\tasks/tsk_eth_common.c ****         //SID_UD_TIME2
 270:..\common\ud3core\tasks/tsk_eth_common.c ****         SID_frame.next_frame |= *ptr<<8;
 271:..\common\ud3core\tasks/tsk_eth_common.c ****         
 272:..\common\ud3core\tasks/tsk_eth_common.c ****         ptr++;
 273:..\common\ud3core\tasks/tsk_eth_common.c ****         
 274:..\common\ud3core\tasks/tsk_eth_common.c ****         //SID_UD_TIME3
 275:..\common\ud3core\tasks/tsk_eth_common.c ****         SID_frame.next_frame |= *ptr;
 276:..\common\ud3core\tasks/tsk_eth_common.c ****         
 277:..\common\ud3core\tasks/tsk_eth_common.c ****         ptr++;
 278:..\common\ud3core\tasks/tsk_eth_common.c ****         
 279:..\common\ud3core\tasks/tsk_eth_common.c ****         n_frames--;
 280:..\common\ud3core\tasks/tsk_eth_common.c ****         
 281:..\common\ud3core\tasks/tsk_eth_common.c ****         int32_t diff = SID_frame.next_frame - l_time;
ARM GAS  C:\Users\chemi\AppData\Local\Temp\ccw63Ndb.s 			page 12


 307              		.loc 1 281 0
 308 0050 5D4F     		ldr	r7, .L76+4
 309 0052 9DE0     		b	.L36
 310              	.L35:
 311              	.LBE5:
 163:..\common\ud3core\tasks/tsk_eth_common.c ****         alarm_push(ALM_PRIO_WARN,"SID: Malformed SID frame", ALM_NO_VALUE);
 312              		.loc 1 163 0
 313 0054 4FF00042 		mov	r2, #-2147483648
 314 0058 5C49     		ldr	r1, .L76+8
 315              	.LVL32:
 316 005a 0120     		movs	r0, #1
 317              	.LVL33:
 318 005c FFF7FEFF 		bl	alarm_push
 319              	.LVL34:
 164:..\common\ud3core\tasks/tsk_eth_common.c ****     }
 320              		.loc 1 164 0
 321 0060 ACE0     		b	.L29
 322              	.LVL35:
 323              	.L45:
 324              	.LBB9:
 325              	.LBB7:
 183:..\common\ud3core\tasks/tsk_eth_common.c ****             
 326              		.loc 1 183 0
 327 0062 1088     		ldrh	r0, [r2]	@ unaligned
 196:..\common\ud3core\tasks/tsk_eth_common.c ****             
 328              		.loc 1 196 0
 329 0064 92F803B0 		ldrb	fp, [r2, #3]	@ zero_extendqisi2
 183:..\common\ud3core\tasks/tsk_eth_common.c ****             
 330              		.loc 1 183 0
 331 0068 C003     		lsls	r0, r0, #15
 332              	.LVL36:
 185:..\common\ud3core\tasks/tsk_eth_common.c ****             
 333              		.loc 1 185 0
 334 006a B0FBF6F0 		udiv	r0, r0, r6
 335              	.LVL37:
 336 006e 09FB00F0 		mul	r0, r9, r0
 337 0072 000A     		lsrs	r0, r0, #8
 338 0074 CEF82000 		str	r0, [lr, #32]
 196:..\common\ud3core\tasks/tsk_eth_common.c ****             
 339              		.loc 1 196 0
 340 0078 9078     		ldrb	r0, [r2, #2]	@ zero_extendqisi2
 341 007a 0732     		adds	r2, r2, #7
 342              	.LVL38:
 343 007c 00EB0B20 		add	r0, r0, fp, lsl #8
 344 0080 CEF82C00 		str	r0, [lr, #44]
 206:..\common\ud3core\tasks/tsk_eth_common.c ****             
 345              		.loc 1 206 0
 346 0084 12F8030C 		ldrb	r0, [r2, #-3]	@ zero_extendqisi2
 203:..\common\ud3core\tasks/tsk_eth_common.c ****             
 347              		.loc 1 203 0
 348 0088 A3F80080 		strh	r8, [r3]	@ movhi
 206:..\common\ud3core\tasks/tsk_eth_common.c ****             
 349              		.loc 1 206 0
 350 008c 10F0800F 		tst	r0, #128
 351 0090 18BF     		it	ne
 352 0092 A3F800C0 		strhne	ip, [r3]	@ movhi
 209:..\common\ud3core\tasks/tsk_eth_common.c ****             
ARM GAS  C:\Users\chemi\AppData\Local\Temp\ccw63Ndb.s 			page 13


 353              		.loc 1 209 0
 354 0096 10F0400F 		tst	r0, #64
 355 009a 18BF     		it	ne
 356 009c B3F800B0 		ldrhne	fp, [r3]
 357 00a0 0EF1040E 		add	lr, lr, #4
 358 00a4 1CBF     		itt	ne
 359 00a6 4BF0020B 		orrne	fp, fp, #2
 360 00aa A3F800B0 		strhne	fp, [r3]	@ movhi
 212:..\common\ud3core\tasks/tsk_eth_common.c ****             
 361              		.loc 1 212 0
 362 00ae 10F0200F 		tst	r0, #32
 363 00b2 18BF     		it	ne
 364 00b4 B3F800B0 		ldrhne	fp, [r3]
 365 00b8 03F10203 		add	r3, r3, #2
 366 00bc 1CBF     		itt	ne
 367 00be 4BF0040B 		orrne	fp, fp, #4
 368 00c2 23F802BC 		strhne	fp, [r3, #-2]	@ movhi
 215:..\common\ud3core\tasks/tsk_eth_common.c ****             
 369              		.loc 1 215 0
 370 00c6 10F0100F 		tst	r0, #16
 371 00ca 1EBF     		ittt	ne
 372 00cc 33F802BC 		ldrhne	fp, [r3, #-2]
 373 00d0 4BF0080B 		orrne	fp, fp, #8
 374 00d4 23F802BC 		strhne	fp, [r3, #-2]	@ movhi
 218:..\common\ud3core\tasks/tsk_eth_common.c ****             
 375              		.loc 1 218 0
 376 00d8 10F0080F 		tst	r0, #8
 377 00dc 1EBF     		ittt	ne
 378 00de 33F802BC 		ldrhne	fp, [r3, #-2]
 379 00e2 4BF0100B 		orrne	fp, fp, #16
 380 00e6 23F802BC 		strhne	fp, [r3, #-2]	@ movhi
 221:..\common\ud3core\tasks/tsk_eth_common.c ****             
 381              		.loc 1 221 0
 382 00ea 10F0040F 		tst	r0, #4
 383 00ee 1EBF     		ittt	ne
 384 00f0 33F802BC 		ldrhne	fp, [r3, #-2]
 385 00f4 4BF0200B 		orrne	fp, fp, #32
 386 00f8 23F802BC 		strhne	fp, [r3, #-2]	@ movhi
 224:..\common\ud3core\tasks/tsk_eth_common.c ****             
 387              		.loc 1 224 0
 388 00fc 10F0020F 		tst	r0, #2
 389 0100 1EBF     		ittt	ne
 390 0102 33F802BC 		ldrhne	fp, [r3, #-2]
 391 0106 4BF0400B 		orrne	fp, fp, #64
 392 010a 23F802BC 		strhne	fp, [r3, #-2]	@ movhi
 227:..\common\ud3core\tasks/tsk_eth_common.c ****             
 393              		.loc 1 227 0
 394 010e C007     		lsls	r0, r0, #31
 395 0110 42BF     		ittt	mi
 396 0112 33F8020C 		ldrhmi	r0, [r3, #-2]
 397 0116 40F08000 		orrmi	r0, r0, #128
 398 011a 23F8020C 		strhmi	r0, [r3, #-2]	@ movhi
 232:..\common\ud3core\tasks/tsk_eth_common.c ****             SID_frame.decay[i] = (*ptr) & 0x0F;
 399              		.loc 1 232 0
 400 011e 12F8020C 		ldrb	r0, [r2, #-2]	@ zero_extendqisi2
 401 0122 4FEA101B 		lsr	fp, r0, #4
 233:..\common\ud3core\tasks/tsk_eth_common.c ****             
ARM GAS  C:\Users\chemi\AppData\Local\Temp\ccw63Ndb.s 			page 14


 402              		.loc 1 233 0
 403 0126 00F00F00 		and	r0, r0, #15
 404 012a 5881     		strh	r0, [r3, #10]	@ movhi
 238:..\common\ud3core\tasks/tsk_eth_common.c ****             SID_frame.release[i] = (*ptr) & 0x0F;
 405              		.loc 1 238 0
 406 012c 12F8010C 		ldrb	r0, [r2, #-1]	@ zero_extendqisi2
 232:..\common\ud3core\tasks/tsk_eth_common.c ****             SID_frame.decay[i] = (*ptr) & 0x0F;
 407              		.loc 1 232 0
 408 0130 A3F804B0 		strh	fp, [r3, #4]	@ movhi
 238:..\common\ud3core\tasks/tsk_eth_common.c ****             SID_frame.release[i] = (*ptr) & 0x0F;
 409              		.loc 1 238 0
 410 0134 4FEA600B 		asr	fp, r0, #1
 411 0138 0BF0780B 		and	fp, fp, #120
 239:..\common\ud3core\tasks/tsk_eth_common.c ****             
 412              		.loc 1 239 0
 413 013c 00F00F00 		and	r0, r0, #15
 175:..\common\ud3core\tasks/tsk_eth_common.c ****             //SID_FREQLO1
 414              		.loc 1 175 0
 415 0140 5245     		cmp	r2, r10
 238:..\common\ud3core\tasks/tsk_eth_common.c ****             SID_frame.release[i] = (*ptr) & 0x0F;
 416              		.loc 1 238 0
 417 0142 A3F810B0 		strh	fp, [r3, #16]	@ movhi
 239:..\common\ud3core\tasks/tsk_eth_common.c ****             
 418              		.loc 1 239 0
 419 0146 D882     		strh	r0, [r3, #22]	@ movhi
 420              	.LVL39:
 175:..\common\ud3core\tasks/tsk_eth_common.c ****             //SID_FREQLO1
 421              		.loc 1 175 0
 422 0148 8BD1     		bne	.L45
 423              	.LBE7:
 256:..\common\ud3core\tasks/tsk_eth_common.c ****         ptr++;
 424              		.loc 1 256 0
 425 014a 94F91830 		ldrsb	r3, [r4, #24]
 275:..\common\ud3core\tasks/tsk_eth_common.c ****         
 426              		.loc 1 275 0
 427 014e A27E     		ldrb	r2, [r4, #26]	@ zero_extendqisi2
 428              	.LVL40:
 256:..\common\ud3core\tasks/tsk_eth_common.c ****         ptr++;
 429              		.loc 1 256 0
 430 0150 002B     		cmp	r3, #0
 431 0152 B8BF     		it	lt
 432 0154 BDF80830 		ldrhlt	r3, [sp, #8]
 275:..\common\ud3core\tasks/tsk_eth_common.c ****         
 433              		.loc 1 275 0
 434 0158 4FEA0242 		lsl	r2, r2, #16
 256:..\common\ud3core\tasks/tsk_eth_common.c ****         ptr++;
 435              		.loc 1 256 0
 436 015c BCBF     		itt	lt
 437 015e 43F48073 		orrlt	r3, r3, #256
 438 0162 ADF80830 		strhlt	r3, [sp, #8]	@ movhi
 275:..\common\ud3core\tasks/tsk_eth_common.c ****         
 439              		.loc 1 275 0
 440 0166 637E     		ldrb	r3, [r4, #25]	@ zero_extendqisi2
 279:..\common\ud3core\tasks/tsk_eth_common.c ****         
 441              		.loc 1 279 0
 442 0168 013D     		subs	r5, r5, #1
 443              	.LVL41:
ARM GAS  C:\Users\chemi\AppData\Local\Temp\ccw63Ndb.s 			page 15


 275:..\common\ud3core\tasks/tsk_eth_common.c ****         
 444              		.loc 1 275 0
 445 016a 42EA0362 		orr	r2, r2, r3, lsl #24
 446 016e 237F     		ldrb	r3, [r4, #28]	@ zero_extendqisi2
 279:..\common\ud3core\tasks/tsk_eth_common.c ****         
 447              		.loc 1 279 0
 448 0170 EDB2     		uxtb	r5, r5
 275:..\common\ud3core\tasks/tsk_eth_common.c ****         
 449              		.loc 1 275 0
 450 0172 1A43     		orrs	r2, r2, r3
 451 0174 E37E     		ldrb	r3, [r4, #27]	@ zero_extendqisi2
 452 0176 1D34     		adds	r4, r4, #29
 453              	.LVL42:
 454 0178 42EA0322 		orr	r2, r2, r3, lsl #8
 455              		.loc 1 281 0
 456 017c 3B68     		ldr	r3, [r7]
 275:..\common\ud3core\tasks/tsk_eth_common.c ****         
 457              		.loc 1 275 0
 458 017e 0F92     		str	r2, [sp, #60]
 459              		.loc 1 281 0
 460 0180 D21A     		subs	r2, r2, r3
 461              	.LVL43:
 282:..\common\ud3core\tasks/tsk_eth_common.c ****         if(diff<-1000){
 462              		.loc 1 282 0
 463 0182 12F57A7F 		cmn	r2, #1000
 464 0186 12DA     		bge	.L47
 283:..\common\ud3core\tasks/tsk_eth_common.c ****             alarm_push(ALM_PRIO_WARN,"SID: Old SID frame received", diff);
 465              		.loc 1 283 0
 466 0188 1149     		ldr	r1, .L76+12
 467 018a 0120     		movs	r0, #1
 468 018c FFF7FEFF 		bl	alarm_push
 469              	.LVL44:
 470              	.L36:
 471              	.LBE9:
 173:..\common\ud3core\tasks/tsk_eth_common.c ****         uint32_t freq_tempFp8;
 472              		.loc 1 173 0
 473 0190 A5B1     		cbz	r5, .L29
 474 0192 0DF1040E 		add	lr, sp, #4
 475 0196 04F1150A 		add	r10, r4, #21
 476 019a 7346     		mov	r3, lr
 477 019c 2246     		mov	r2, r4
 478 019e 7146     		mov	r1, lr
 479              	.LBB10:
 480              	.LBB8:
 185:..\common\ud3core\tasks/tsk_eth_common.c ****             
 481              		.loc 1 185 0
 482 01a0 4FF00A09 		mov	r9, #10
 203:..\common\ud3core\tasks/tsk_eth_common.c ****             
 483              		.loc 1 203 0
 484 01a4 4FF00008 		mov	r8, #0
 206:..\common\ud3core\tasks/tsk_eth_common.c ****             
 485              		.loc 1 206 0
 486 01a8 4FF0010C 		mov	ip, #1
 487 01ac 59E7     		b	.L45
 488              	.LVL45:
 489              	.L47:
 490              	.LBE8:
ARM GAS  C:\Users\chemi\AppData\Local\Temp\ccw63Ndb.s 			page 16


 284:..\common\ud3core\tasks/tsk_eth_common.c ****         }else{   
 285:..\common\ud3core\tasks/tsk_eth_common.c ****             xQueueSend(qSID,&SID_frame,0);
 491              		.loc 1 285 0
 492 01ae 0948     		ldr	r0, .L76+16
 493 01b0 0023     		movs	r3, #0
 494 01b2 1A46     		mov	r2, r3
 495              	.LVL46:
 496 01b4 0068     		ldr	r0, [r0]
 497 01b6 FFF7FEFF 		bl	xQueueGenericSend
 498              	.LVL47:
 499 01ba E9E7     		b	.L36
 500              	.LVL48:
 501              	.L29:
 502              	.LBE10:
 286:..\common\ud3core\tasks/tsk_eth_common.c ****         }
 287:..\common\ud3core\tasks/tsk_eth_common.c ****         
 288:..\common\ud3core\tasks/tsk_eth_common.c ****     }
 289:..\common\ud3core\tasks/tsk_eth_common.c ****    
 290:..\common\ud3core\tasks/tsk_eth_common.c **** }
 503              		.loc 1 290 0
 504 01bc 11B0     		add	sp, sp, #68
 505              		.cfi_def_cfa_offset 36
 506              		@ sp needed
 507 01be BDE8F08F 		pop	{r4, r5, r6, r7, r8, r9, r10, fp, pc}
 508              	.LVL49:
 509              	.L77:
 510 01c2 00BF     		.align	2
 511              	.L76:
 512 01c4 00000000 		.word	SID_filterData
 513 01c8 00000000 		.word	l_time
 514 01cc 00000000 		.word	.LC0
 515 01d0 19000000 		.word	.LC1
 516 01d4 00000000 		.word	qSID
 517              		.cfi_endproc
 518              	.LFE69:
 519              		.size	process_min_sid, .-process_min_sid
 520              		.comm	interrupter,12,4
 521              		.section	.rodata.str1.1,"aMS",%progbits,1
 522              	.LC0:
 523 0000 5349443A 		.ascii	"SID: Malformed SID frame\000"
 523      204D616C 
 523      666F726D 
 523      65642053 
 523      49442066 
 524              	.LC1:
 525 0019 5349443A 		.ascii	"SID: Old SID frame received\000"
 525      204F6C64 
 525      20534944 
 525      20667261 
 525      6D652072 
 526              		.data
 527              		.set	.LANCHOR0,. + 0
 528              		.type	state.9812, %object
 529              		.size	state.9812, 6
 530              	state.9812:
 531 0000 00       		.space	1
 532 0001 FF       		.byte	-1
ARM GAS  C:\Users\chemi\AppData\Local\Temp\ccw63Ndb.s 			page 17


 533 0002 00000000 		.space	4
 534              		.text
 535              	.Letext0:
 536              		.file 2 "c:\\program files (x86)\\cypress\\psoc creator\\4.4\\psoc creator\\import\\gnu\\arm\\5.4.
 537              		.file 3 "c:\\program files (x86)\\cypress\\psoc creator\\4.4\\psoc creator\\import\\gnu\\arm\\5.4.
 538              		.file 4 "..\\common\\rtos\\portable\\GCC\\ARM_CM3/portmacro.h"
 539              		.file 5 "..\\common\\rtos\\include/queue.h"
 540              		.file 6 "..\\common\\rtos\\include/timers.h"
 541              		.file 7 "..\\common\\ud3core/interrupter.h"
 542              		.file 8 "..\\common\\ud3core/tasks/tsk_sid.h"
 543              		.file 9 "Generated_Source\\PSoC5/core_cm3.h"
 544              		.file 10 "..\\common\\vms/SidFilter.h"
 545              		.file 11 "..\\common\\ud3core/clock.h"
 546              		.file 12 "..\\common\\ud3core/tasks/tsk_midi.h"
 547              		.file 13 "..\\common\\ud3core/alarmevent.h"