ARM GAS  C:\Users\chemi\AppData\Local\Temp\cc0HcYmn.s 			page 1


   1              		.syntax unified
   2              		.cpu cortex-m3
   3              		.fpu softvfp
   4              		.eabi_attribute 20, 1
   5              		.eabi_attribute 21, 1
   6              		.eabi_attribute 23, 3
   7              		.eabi_attribute 24, 1
   8              		.eabi_attribute 25, 1
   9              		.eabi_attribute 26, 1
  10              		.eabi_attribute 30, 4
  11              		.eabi_attribute 34, 1
  12              		.eabi_attribute 18, 4
  13              		.thumb
  14              		.syntax unified
  15              		.file	"tsk_duty.c"
  16              		.text
  17              	.Ltext0:
  18              		.cfi_sections	.debug_frame
  19              		.global	__aeabi_ui2d
  20              		.global	__aeabi_ddiv
  21              		.global	__aeabi_d2iz
  22              		.section	.text.tsk_duty_task,"ax",%progbits
  23              		.align	1
  24              		.global	tsk_duty_task
  25              		.thumb
  26              		.thumb_func
  27              		.type	tsk_duty_task, %function
  28              	tsk_duty_task:
  29              	.LFB68:
  30              		.file 1 "..\\common\\ud3core\\tasks\\tsk_duty.c"
   1:..\common\ud3core\tasks/tsk_duty.c **** #include "cyapicallbacks.h"
   2:..\common\ud3core\tasks/tsk_duty.c **** #include <cytypes.h>
   3:..\common\ud3core\tasks/tsk_duty.c **** 
   4:..\common\ud3core\tasks/tsk_duty.c **** /* RTOS includes. */
   5:..\common\ud3core\tasks/tsk_duty.c **** #include "FreeRTOS.h"
   6:..\common\ud3core\tasks/tsk_duty.c **** #include "task.h"
   7:..\common\ud3core\tasks/tsk_duty.c **** #include "queue.h"
   8:..\common\ud3core\tasks/tsk_duty.c **** #include "semphr.h"
   9:..\common\ud3core\tasks/tsk_duty.c **** 
  10:..\common\ud3core\tasks/tsk_duty.c **** #include "cli_common.h"
  11:..\common\ud3core\tasks/tsk_duty.c **** #include "tsk_cli.h"
  12:..\common\ud3core\tasks/tsk_duty.c **** #include "telemetry.h"
  13:..\common\ud3core\tasks/tsk_duty.c **** #include "tsk_priority.h"
  14:..\common\ud3core\tasks/tsk_duty.c **** 
  15:..\common\ud3core\tasks/tsk_duty.c **** #define TSK_DUTY_PERIOD_MS  100   //ms
  16:..\common\ud3core\tasks/tsk_duty.c **** 
  17:..\common\ud3core\tasks/tsk_duty.c **** void tsk_duty_task(void *pvParameters) {
  31              		.loc 1 17 0
  32              		.cfi_startproc
  33              		@ args = 0, pretend = 0, frame = 0
  34              		@ frame_needed = 0, uses_anonymous_args = 0
  35              	.LVL0:
  36 0000 38B5     		push	{r3, r4, r5, lr}
  37              		.cfi_def_cfa_offset 16
  38              		.cfi_offset 3, -16
  39              		.cfi_offset 4, -12
  40              		.cfi_offset 5, -8
ARM GAS  C:\Users\chemi\AppData\Local\Temp\cc0HcYmn.s 			page 2


  41              		.cfi_offset 14, -4
  18:..\common\ud3core\tasks/tsk_duty.c **** 	OnTimeCounter_Start();
  42              		.loc 1 18 0
  43 0002 FFF7FEFF 		bl	OnTimeCounter_Start
  44              	.LVL1:
  45              	.LBB2:
  19:..\common\ud3core\tasks/tsk_duty.c ****     
  20:..\common\ud3core\tasks/tsk_duty.c ****     while(1){
  21:..\common\ud3core\tasks/tsk_duty.c ****         vTaskDelay(pdMS_TO_TICKS(TSK_DUTY_PERIOD_MS));
  22:..\common\ud3core\tasks/tsk_duty.c ****         
  23:..\common\ud3core\tasks/tsk_duty.c ****         //read and reset counters
  24:..\common\ud3core\tasks/tsk_duty.c ****         uint32_t onTime_us = 0xffffff - OnTimeCounter_ReadCounter();
  25:..\common\ud3core\tasks/tsk_duty.c ****         
  26:..\common\ud3core\tasks/tsk_duty.c ****         OnTimeCounter_WriteCounter(0xffffff);
  27:..\common\ud3core\tasks/tsk_duty.c ****         // dutycycle := onTime_us / period
  28:..\common\ud3core\tasks/tsk_duty.c ****         // the period is 1000 times slower
  29:..\common\ud3core\tasks/tsk_duty.c ****         // to get the scaling (0,1% resolution) we do dutycycle * 1000
  30:..\common\ud3core\tasks/tsk_duty.c ****         // together with fixed point division that results in
  31:..\common\ud3core\tasks/tsk_duty.c ****         //      
  32:..\common\ud3core\tasks/tsk_duty.c ****         //      dutycycleScaled := (onTime_us * 1000) / ((TSK_DUTY_PERIOD_MS * 1e6) / 1000)
  33:..\common\ud3core\tasks/tsk_duty.c ****         
  34:..\common\ud3core\tasks/tsk_duty.c ****         tt.n.dutycycle.value = (onTime_us * 1000) / ((TSK_DUTY_PERIOD_MS * 1e6) / 1000);
  46              		.loc 1 34 0
  47 0006 124D     		ldr	r5, .L4+8
  48              	.L2:
  21:..\common\ud3core\tasks/tsk_duty.c ****         
  49              		.loc 1 21 0 discriminator 1
  50 0008 6420     		movs	r0, #100
  51 000a FFF7FEFF 		bl	vTaskDelay
  52              	.LVL2:
  24:..\common\ud3core\tasks/tsk_duty.c ****         
  53              		.loc 1 24 0 discriminator 1
  54 000e FFF7FEFF 		bl	OnTimeCounter_ReadCounter
  55              	.LVL3:
  56 0012 0446     		mov	r4, r0
  57              	.LVL4:
  26:..\common\ud3core\tasks/tsk_duty.c ****         // dutycycle := onTime_us / period
  58              		.loc 1 26 0 discriminator 1
  59 0014 6FF07F40 		mvn	r0, #-16777216
  60              	.LVL5:
  61 0018 FFF7FEFF 		bl	OnTimeCounter_WriteCounter
  62              	.LVL6:
  63              		.loc 1 34 0 discriminator 1
  64 001c C4F1FF10 		rsb	r0, r4, #16711935
  65 0020 4FF47A73 		mov	r3, #1000
  66 0024 00F57F40 		add	r0, r0, #65280
  67 0028 5843     		muls	r0, r3, r0
  68 002a FFF7FEFF 		bl	__aeabi_ui2d
  69              	.LVL7:
  70 002e 06A3     		adr	r3, .L4
  71 0030 D3E90023 		ldrd	r2, [r3]
  72 0034 FFF7FEFF 		bl	__aeabi_ddiv
  73              	.LVL8:
  74 0038 FFF7FEFF 		bl	__aeabi_d2iz
  75              	.LVL9:
  76 003c C5F8C001 		str	r0, [r5, #448]
  77 0040 E2E7     		b	.L2
ARM GAS  C:\Users\chemi\AppData\Local\Temp\cc0HcYmn.s 			page 3


  78              	.L5:
  79 0042 00BFAFF3 		.align	3
  79      0080
  80              	.L4:
  81 0048 00000000 		.word	0
  82 004c 006AF840 		.word	1090021888
  83 0050 00000000 		.word	tt
  84              	.LBE2:
  85              		.cfi_endproc
  86              	.LFE68:
  87              		.size	tsk_duty_task, .-tsk_duty_task
  88              		.section	.text.tsk_duty_Start,"ax",%progbits
  89              		.align	1
  90              		.global	tsk_duty_Start
  91              		.thumb
  92              		.thumb_func
  93              		.type	tsk_duty_Start, %function
  94              	tsk_duty_Start:
  95              	.LFB69:
  35:..\common\ud3core\tasks/tsk_duty.c ****        
  36:..\common\ud3core\tasks/tsk_duty.c ****     }
  37:..\common\ud3core\tasks/tsk_duty.c **** }
  38:..\common\ud3core\tasks/tsk_duty.c **** 
  39:..\common\ud3core\tasks/tsk_duty.c **** void tsk_duty_Start(void) {
  96              		.loc 1 39 0
  97              		.cfi_startproc
  98              		@ args = 0, pretend = 0, frame = 0
  99              		@ frame_needed = 0, uses_anonymous_args = 0
 100 0000 07B5     		push	{r0, r1, r2, lr}
 101              		.cfi_def_cfa_offset 16
 102              		.cfi_offset 14, -4
  40:..\common\ud3core\tasks/tsk_duty.c **** 	xTaskCreate(tsk_duty_task, "Duty", configMINIMAL_STACK_SIZE, NULL, PRIO_DUTY, NULL);
 103              		.loc 1 40 0
 104 0002 0023     		movs	r3, #0
 105 0004 0422     		movs	r2, #4
 106 0006 8DE80C00 		stmia	sp, {r2, r3}
 107 000a 0449     		ldr	r1, .L7
 108 000c 6422     		movs	r2, #100
 109 000e 0448     		ldr	r0, .L7+4
 110 0010 FFF7FEFF 		bl	xTaskCreate
 111              	.LVL10:
  41:..\common\ud3core\tasks/tsk_duty.c **** }
 112              		.loc 1 41 0
 113 0014 03B0     		add	sp, sp, #12
 114              		.cfi_def_cfa_offset 4
 115              		@ sp needed
 116 0016 5DF804FB 		ldr	pc, [sp], #4
 117              	.L8:
 118 001a 00BF     		.align	2
 119              	.L7:
 120 001c 00000000 		.word	.LC0
 121 0020 00000000 		.word	tsk_duty_task
 122              		.cfi_endproc
 123              	.LFE69:
 124              		.size	tsk_duty_Start, .-tsk_duty_Start
 125              		.comm	interrupter,12,4
 126              		.section	.rodata.str1.1,"aMS",%progbits,1
ARM GAS  C:\Users\chemi\AppData\Local\Temp\cc0HcYmn.s 			page 4


 127              	.LC0:
 128 0000 44757479 		.ascii	"Duty\000"
 128      00
 129              		.text
 130              	.Letext0:
 131              		.file 2 "c:\\program files (x86)\\cypress\\psoc creator\\4.4\\psoc creator\\import\\gnu\\arm\\5.4.
 132              		.file 3 "c:\\program files (x86)\\cypress\\psoc creator\\4.4\\psoc creator\\import\\gnu\\arm\\5.4.
 133              		.file 4 "..\\common\\rtos\\portable\\GCC\\ARM_CM3/portmacro.h"
 134              		.file 5 "..\\common\\rtos\\include/timers.h"
 135              		.file 6 "..\\common\\ud3core/interrupter.h"
 136              		.file 7 "..\\common\\ud3core/telemetry.h"
 137              		.file 8 "Generated_Source\\PSoC5/core_cm3.h"
 138              		.file 9 "..\\common\\rtos\\include/task.h"
 139              		.file 10 "Generated_Source\\PSoC5/OnTimeCounter.h"