ARM GAS  C:\Users\chemi\AppData\Local\Temp\ccQwa7yL.s 			page 1


   1              		.syntax unified
   2              		.cpu cortex-m3
   3              		.fpu softvfp
   4              		.eabi_attribute 20, 1
   5              		.eabi_attribute 21, 1
   6              		.eabi_attribute 23, 3
   7              		.eabi_attribute 24, 1
   8              		.eabi_attribute 25, 1
   9              		.eabi_attribute 26, 1
  10              		.eabi_attribute 30, 4
  11              		.eabi_attribute 34, 1
  12              		.eabi_attribute 18, 4
  13              		.thumb
  14              		.syntax unified
  15              		.file	"tsk_hypervisor.c"
  16              		.text
  17              	.Ltext0:
  18              		.cfi_sections	.debug_frame
  19              		.section	.text.tsk_hypervisor_task,"ax",%progbits
  20              		.align	1
  21              		.global	tsk_hypervisor_task
  22              		.thumb
  23              		.thumb_func
  24              		.type	tsk_hypervisor_task, %function
  25              	tsk_hypervisor_task:
  26              	.LFB68:
  27              		.file 1 "..\\common\\ud3core\\tasks\\tsk_hypervisor.c"
   1:..\common\ud3core\tasks/tsk_hypervisor.c **** #include "cyapicallbacks.h"
   2:..\common\ud3core\tasks/tsk_hypervisor.c **** #include <cytypes.h>
   3:..\common\ud3core\tasks/tsk_hypervisor.c **** 
   4:..\common\ud3core\tasks/tsk_hypervisor.c **** /* RTOS includes. */
   5:..\common\ud3core\tasks/tsk_hypervisor.c **** #include "FreeRTOS.h"
   6:..\common\ud3core\tasks/tsk_hypervisor.c **** #include "task.h"
   7:..\common\ud3core\tasks/tsk_hypervisor.c **** #include "queue.h"
   8:..\common\ud3core\tasks/tsk_hypervisor.c **** #include "semphr.h"
   9:..\common\ud3core\tasks/tsk_hypervisor.c **** 
  10:..\common\ud3core\tasks/tsk_hypervisor.c **** #include "cli_common.h"
  11:..\common\ud3core\tasks/tsk_hypervisor.c **** #include "tsk_cli.h"
  12:..\common\ud3core\tasks/tsk_hypervisor.c **** #include "telemetry.h"
  13:..\common\ud3core\tasks/tsk_hypervisor.c **** #include "tsk_priority.h"
  14:..\common\ud3core\tasks/tsk_hypervisor.c **** #include "alarmevent.h"
  15:..\common\ud3core\tasks/tsk_hypervisor.c **** #include "tsk_fault.h"
  16:..\common\ud3core\tasks/tsk_hypervisor.c **** #include "tsk_analog.h"
  17:..\common\ud3core\tasks/tsk_hypervisor.c **** 
  18:..\common\ud3core\tasks/tsk_hypervisor.c **** #define HYPERVISOR_CHECK_TIME   100     //ms
  19:..\common\ud3core\tasks/tsk_hypervisor.c **** #define FAULT_RESET_TIME        2000    //ms
  20:..\common\ud3core\tasks/tsk_hypervisor.c **** #define BUS_AUTOSTART_TIME      2000    //ms
  21:..\common\ud3core\tasks/tsk_hypervisor.c **** 
  22:..\common\ud3core\tasks/tsk_hypervisor.c **** void tsk_hypervisor_task(void *pvParameters) {
  28              		.loc 1 22 0
  29              		.cfi_startproc
  30              		@ args = 0, pretend = 0, frame = 0
  31              		@ frame_needed = 0, uses_anonymous_args = 0
  32              	.LVL0:
  33 0000 2DE9F041 		push	{r4, r5, r6, r7, r8, lr}
  34              		.cfi_def_cfa_offset 24
  35              		.cfi_offset 4, -24
ARM GAS  C:\Users\chemi\AppData\Local\Temp\ccQwa7yL.s 			page 2


  36              		.cfi_offset 5, -20
  37              		.cfi_offset 6, -16
  38              		.cfi_offset 7, -12
  39              		.cfi_offset 8, -8
  40              		.cfi_offset 14, -4
  23:..\common\ud3core\tasks/tsk_hypervisor.c ****     
  24:..\common\ud3core\tasks/tsk_hypervisor.c ****     alarm_push(ALM_PRIO_INFO,"TASK: Hypervisor started" , ALM_NO_VALUE);
  41              		.loc 1 24 0
  42 0004 4FF00042 		mov	r2, #-2147483648
  43 0008 1949     		ldr	r1, .L13
  44 000a 0020     		movs	r0, #0
  45              	.LVL1:
  25:..\common\ud3core\tasks/tsk_hypervisor.c ****     
  26:..\common\ud3core\tasks/tsk_hypervisor.c ****     int32_t fault_reset_time = FAULT_RESET_TIME;
  27:..\common\ud3core\tasks/tsk_hypervisor.c ****     int32_t bus_autostart_time = BUS_AUTOSTART_TIME;
  28:..\common\ud3core\tasks/tsk_hypervisor.c ****     
  29:..\common\ud3core\tasks/tsk_hypervisor.c ****     interrupter_update_ext();
  30:..\common\ud3core\tasks/tsk_hypervisor.c ****     
  31:..\common\ud3core\tasks/tsk_hypervisor.c **** 
  32:..\common\ud3core\tasks/tsk_hypervisor.c ****     WD_enable(pdFALSE);
  33:..\common\ud3core\tasks/tsk_hypervisor.c ****     while(1){
  34:..\common\ud3core\tasks/tsk_hypervisor.c **** 
  35:..\common\ud3core\tasks/tsk_hypervisor.c ****         if(tsk_fault_is_fault()){
  36:..\common\ud3core\tasks/tsk_hypervisor.c ****             fault_reset_time -= HYPERVISOR_CHECK_TIME;
  37:..\common\ud3core\tasks/tsk_hypervisor.c ****             if(fault_reset_time<0) fault_reset_time = 0;
  38:..\common\ud3core\tasks/tsk_hypervisor.c ****         }else{
  39:..\common\ud3core\tasks/tsk_hypervisor.c ****             fault_reset_time = FAULT_RESET_TIME;
  40:..\common\ud3core\tasks/tsk_hypervisor.c ****         }
  41:..\common\ud3core\tasks/tsk_hypervisor.c ****         
  42:..\common\ud3core\tasks/tsk_hypervisor.c ****         if(fault_reset_time == 0){
  43:..\common\ud3core\tasks/tsk_hypervisor.c ****             reset_fault();
  44:..\common\ud3core\tasks/tsk_hypervisor.c ****             fault_reset_time = FAULT_RESET_TIME;
  45:..\common\ud3core\tasks/tsk_hypervisor.c ****         }
  46:..\common\ud3core\tasks/tsk_hypervisor.c ****         
  47:..\common\ud3core\tasks/tsk_hypervisor.c ****         if(bus_command == BUS_COMMAND_FAULT){
  46              		.loc 1 47 0
  47 000c 194E     		ldr	r6, .L13+4
  24:..\common\ud3core\tasks/tsk_hypervisor.c ****     
  48              		.loc 1 24 0
  49 000e FFF7FEFF 		bl	alarm_push
  50              	.LVL2:
  27:..\common\ud3core\tasks/tsk_hypervisor.c ****     
  51              		.loc 1 27 0
  52 0012 4FF4FA64 		mov	r4, #2000
  29:..\common\ud3core\tasks/tsk_hypervisor.c ****     
  53              		.loc 1 29 0
  54 0016 FFF7FEFF 		bl	interrupter_update_ext
  55              	.LVL3:
  32:..\common\ud3core\tasks/tsk_hypervisor.c ****     while(1){
  56              		.loc 1 32 0
  57 001a 0020     		movs	r0, #0
  58 001c FFF7FEFF 		bl	WD_enable
  59              	.LVL4:
  26:..\common\ud3core\tasks/tsk_hypervisor.c ****     int32_t bus_autostart_time = BUS_AUTOSTART_TIME;
  60              		.loc 1 26 0
  61 0020 2546     		mov	r5, r4
  62 0022 3746     		mov	r7, r6
ARM GAS  C:\Users\chemi\AppData\Local\Temp\ccQwa7yL.s 			page 3


  48:..\common\ud3core\tasks/tsk_hypervisor.c ****             bus_command = BUS_COMMAND_OFF;
  63              		.loc 1 48 0
  64 0024 4FF00008 		mov	r8, #0
  65              	.LVL5:
  66              	.L7:
  35:..\common\ud3core\tasks/tsk_hypervisor.c ****             fault_reset_time -= HYPERVISOR_CHECK_TIME;
  67              		.loc 1 35 0
  68 0028 FFF7FEFF 		bl	tsk_fault_is_fault
  69              	.LVL6:
  70 002c 20B1     		cbz	r0, .L8
  36:..\common\ud3core\tasks/tsk_hypervisor.c ****             if(fault_reset_time<0) fault_reset_time = 0;
  71              		.loc 1 36 0
  72 002e 643D     		subs	r5, r5, #100
  73              	.LVL7:
  42:..\common\ud3core\tasks/tsk_hypervisor.c ****             reset_fault();
  74              		.loc 1 42 0
  75 0030 002D     		cmp	r5, #0
  76 0032 03DC     		bgt	.L2
  77              	.LVL8:
  43:..\common\ud3core\tasks/tsk_hypervisor.c ****             fault_reset_time = FAULT_RESET_TIME;
  78              		.loc 1 43 0
  79 0034 FFF7FEFF 		bl	reset_fault
  80              	.LVL9:
  81              	.L8:
  39:..\common\ud3core\tasks/tsk_hypervisor.c ****         }
  82              		.loc 1 39 0
  83 0038 4FF4FA65 		mov	r5, #2000
  84              	.L2:
  85              	.LVL10:
  47:..\common\ud3core\tasks/tsk_hypervisor.c ****             bus_command = BUS_COMMAND_OFF;
  86              		.loc 1 47 0
  87 003c 3378     		ldrb	r3, [r6]	@ zero_extendqisi2
  88 003e 022B     		cmp	r3, #2
  89              		.loc 1 48 0
  90 0040 08BF     		it	eq
  91 0042 86F80080 		strbeq	r8, [r6]
  92              	.LVL11:
  49:..\common\ud3core\tasks/tsk_hypervisor.c ****             bus_autostart_time = BUS_AUTOSTART_TIME;
  50:..\common\ud3core\tasks/tsk_hypervisor.c ****         }
  51:..\common\ud3core\tasks/tsk_hypervisor.c ****         
  52:..\common\ud3core\tasks/tsk_hypervisor.c ****         if(bus_command == BUS_COMMAND_OFF && tsk_fault_is_fault() == 0){
  93              		.loc 1 52 0
  94 0046 3B78     		ldrb	r3, [r7]	@ zero_extendqisi2
  49:..\common\ud3core\tasks/tsk_hypervisor.c ****             bus_autostart_time = BUS_AUTOSTART_TIME;
  95              		.loc 1 49 0
  96 0048 08BF     		it	eq
  97 004a 4FF4FA64 		moveq	r4, #2000
  98              	.LVL12:
  99              		.loc 1 52 0
 100 004e 4BB9     		cbnz	r3, .L4
 101              		.loc 1 52 0 is_stmt 0 discriminator 1
 102 0050 FFF7FEFF 		bl	tsk_fault_is_fault
 103              	.LVL13:
 104 0054 30B9     		cbnz	r0, .L4
 105              	.LVL14:
  53:..\common\ud3core\tasks/tsk_hypervisor.c ****             bus_autostart_time -= HYPERVISOR_CHECK_TIME;
  54:..\common\ud3core\tasks/tsk_hypervisor.c ****             if(bus_autostart_time < 0) bus_autostart_time = 0;
ARM GAS  C:\Users\chemi\AppData\Local\Temp\ccQwa7yL.s 			page 4


 106              		.loc 1 54 0 is_stmt 1
 107 0056 643C     		subs	r4, r4, #100
 108              	.LVL15:
 109 0058 04D5     		bpl	.L4
 110              	.L6:
 111              	.LVL16:
  55:..\common\ud3core\tasks/tsk_hypervisor.c ****         }
  56:..\common\ud3core\tasks/tsk_hypervisor.c ****         
  57:..\common\ud3core\tasks/tsk_hypervisor.c ****         if(bus_autostart_time == 0){
  58:..\common\ud3core\tasks/tsk_hypervisor.c ****             bus_command = BUS_COMMAND_ON;
 112              		.loc 1 58 0
 113 005a 0123     		movs	r3, #1
 114 005c 3B70     		strb	r3, [r7]
 115              	.LVL17:
  59:..\common\ud3core\tasks/tsk_hypervisor.c ****             bus_autostart_time = BUS_AUTOSTART_TIME;
 116              		.loc 1 59 0
 117 005e 4FF4FA64 		mov	r4, #2000
 118 0062 01E0     		b	.L5
 119              	.LVL18:
 120              	.L4:
  57:..\common\ud3core\tasks/tsk_hypervisor.c ****             bus_command = BUS_COMMAND_ON;
 121              		.loc 1 57 0
 122 0064 002C     		cmp	r4, #0
 123 0066 F8D0     		beq	.L6
 124              	.LVL19:
 125              	.L5:
  60:..\common\ud3core\tasks/tsk_hypervisor.c ****         }
  61:..\common\ud3core\tasks/tsk_hypervisor.c ****                
  62:..\common\ud3core\tasks/tsk_hypervisor.c ****         
  63:..\common\ud3core\tasks/tsk_hypervisor.c ****         vTaskDelay(pdMS_TO_TICKS(HYPERVISOR_CHECK_TIME));
 126              		.loc 1 63 0
 127 0068 6420     		movs	r0, #100
 128 006a FFF7FEFF 		bl	vTaskDelay
 129              	.LVL20:
  64:..\common\ud3core\tasks/tsk_hypervisor.c ****     }
 130              		.loc 1 64 0
 131 006e DBE7     		b	.L7
 132              	.L14:
 133              		.align	2
 134              	.L13:
 135 0070 00000000 		.word	.LC0
 136 0074 00000000 		.word	bus_command
 137              		.cfi_endproc
 138              	.LFE68:
 139              		.size	tsk_hypervisor_task, .-tsk_hypervisor_task
 140              		.section	.text.tsk_hypervisor_Start,"ax",%progbits
 141              		.align	1
 142              		.global	tsk_hypervisor_Start
 143              		.thumb
 144              		.thumb_func
 145              		.type	tsk_hypervisor_Start, %function
 146              	tsk_hypervisor_Start:
 147              	.LFB69:
  65:..\common\ud3core\tasks/tsk_hypervisor.c **** }
  66:..\common\ud3core\tasks/tsk_hypervisor.c **** 
  67:..\common\ud3core\tasks/tsk_hypervisor.c **** void tsk_hypervisor_Start(void) {
 148              		.loc 1 67 0
ARM GAS  C:\Users\chemi\AppData\Local\Temp\ccQwa7yL.s 			page 5


 149              		.cfi_startproc
 150              		@ args = 0, pretend = 0, frame = 0
 151              		@ frame_needed = 0, uses_anonymous_args = 0
 152 0000 07B5     		push	{r0, r1, r2, lr}
 153              		.cfi_def_cfa_offset 16
 154              		.cfi_offset 14, -4
  68:..\common\ud3core\tasks/tsk_hypervisor.c ****     if(configuration.autostart == pdTRUE){
 155              		.loc 1 68 0
 156 0002 084B     		ldr	r3, .L17
 157 0004 93F87130 		ldrb	r3, [r3, #113]	@ zero_extendqisi2
 158 0008 012B     		cmp	r3, #1
 159 000a 08D1     		bne	.L15
  69:..\common\ud3core\tasks/tsk_hypervisor.c **** 	    xTaskCreate(tsk_hypervisor_task, "Hyper", configMINIMAL_STACK_SIZE, NULL, PRIO_FAULT, NULL);
 160              		.loc 1 69 0
 161 000c 0422     		movs	r2, #4
 162 000e 0023     		movs	r3, #0
 163 0010 8DE80C00 		stmia	sp, {r2, r3}
 164 0014 0449     		ldr	r1, .L17+4
 165 0016 6422     		movs	r2, #100
 166 0018 0448     		ldr	r0, .L17+8
 167 001a FFF7FEFF 		bl	xTaskCreate
 168              	.LVL21:
 169              	.L15:
  70:..\common\ud3core\tasks/tsk_hypervisor.c ****     }
  71:..\common\ud3core\tasks/tsk_hypervisor.c **** }
 170              		.loc 1 71 0
 171 001e 03B0     		add	sp, sp, #12
 172              		.cfi_def_cfa_offset 4
 173              		@ sp needed
 174 0020 5DF804FB 		ldr	pc, [sp], #4
 175              	.L18:
 176              		.align	2
 177              	.L17:
 178 0024 00000000 		.word	configuration
 179 0028 19000000 		.word	.LC1
 180 002c 00000000 		.word	tsk_hypervisor_task
 181              		.cfi_endproc
 182              	.LFE69:
 183              		.size	tsk_hypervisor_Start, .-tsk_hypervisor_Start
 184              		.comm	bus_command,1,1
 185              		.comm	interrupter,12,4
 186              		.section	.rodata.str1.1,"aMS",%progbits,1
 187              	.LC0:
 188 0000 5441534B 		.ascii	"TASK: Hypervisor started\000"
 188      3A204879 
 188      70657276 
 188      69736F72 
 188      20737461 
 189              	.LC1:
 190 0019 48797065 		.ascii	"Hyper\000"
 190      7200
 191              		.text
 192              	.Letext0:
 193              		.file 2 "c:\\program files (x86)\\cypress\\psoc creator\\4.4\\psoc creator\\import\\gnu\\arm\\5.4.
 194              		.file 3 "c:\\program files (x86)\\cypress\\psoc creator\\4.4\\psoc creator\\import\\gnu\\arm\\5.4.
 195              		.file 4 "Generated_Source\\PSoC5/cytypes.h"
 196              		.file 5 "..\\common\\rtos\\portable\\GCC\\ARM_CM3/portmacro.h"
ARM GAS  C:\Users\chemi\AppData\Local\Temp\ccQwa7yL.s 			page 6


 197              		.file 6 "..\\common\\rtos\\include/timers.h"
 198              		.file 7 "..\\common\\ud3core/cli_common.h"
 199              		.file 8 "..\\common\\ud3core/interrupter.h"
 200              		.file 9 "Generated_Source\\PSoC5/core_cm3.h"
 201              		.file 10 "..\\common\\ud3core\\tasks\\tsk_analog.h"
 202              		.file 11 "..\\common\\ud3core/alarmevent.h"
 203              		.file 12 "..\\common\\ud3core\\tasks\\tsk_fault.h"
 204              		.file 13 "..\\common\\rtos\\include/task.h"