ARM GAS  C:\Users\chemi\AppData\Local\Temp\ccSW0GM3.s 			page 1


   1              		.syntax unified
   2              		.cpu cortex-m3
   3              		.fpu softvfp
   4              		.eabi_attribute 20, 1
   5              		.eabi_attribute 21, 1
   6              		.eabi_attribute 23, 3
   7              		.eabi_attribute 24, 1
   8              		.eabi_attribute 25, 1
   9              		.eabi_attribute 26, 1
  10              		.eabi_attribute 30, 4
  11              		.eabi_attribute 34, 1
  12              		.eabi_attribute 18, 4
  13              		.thumb
  14              		.syntax unified
  15              		.file	"tsk_fault.c"
  16              		.text
  17              	.Ltext0:
  18              		.cfi_sections	.debug_frame
  19              		.section	.text.vWD_Timer_Callback,"ax",%progbits
  20              		.align	1
  21              		.global	vWD_Timer_Callback
  22              		.thumb
  23              		.thumb_func
  24              		.type	vWD_Timer_Callback, %function
  25              	vWD_Timer_Callback:
  26              	.LFB79:
  27              		.file 1 "..\\common\\ud3core\\tasks\\tsk_fault.c"
   1:..\common\ud3core\tasks/tsk_fault.c **** /*
   2:..\common\ud3core\tasks/tsk_fault.c ****  * UD3
   3:..\common\ud3core\tasks/tsk_fault.c ****  *
   4:..\common\ud3core\tasks/tsk_fault.c ****  * Copyright (c) 2018 Jens Kerrinnes
   5:..\common\ud3core\tasks/tsk_fault.c ****  * Copyright (c) 2015 Steve Ward
   6:..\common\ud3core\tasks/tsk_fault.c ****  *
   7:..\common\ud3core\tasks/tsk_fault.c ****  * Permission is hereby granted, free of charge, to any person obtaining a copy of
   8:..\common\ud3core\tasks/tsk_fault.c ****  * this software and associated documentation files (the "Software"), to deal in
   9:..\common\ud3core\tasks/tsk_fault.c ****  * the Software without restriction, including without limitation the rights to
  10:..\common\ud3core\tasks/tsk_fault.c ****  * use, copy, modify, merge, publish, distribute, sublicense, and/or sell copies of
  11:..\common\ud3core\tasks/tsk_fault.c ****  * the Software, and to permit persons to whom the Software is furnished to do so,
  12:..\common\ud3core\tasks/tsk_fault.c ****  * subject to the following conditions:
  13:..\common\ud3core\tasks/tsk_fault.c ****  *
  14:..\common\ud3core\tasks/tsk_fault.c ****  * The above copyright notice and this permission notice shall be included in all
  15:..\common\ud3core\tasks/tsk_fault.c ****  * copies or substantial portions of the Software.
  16:..\common\ud3core\tasks/tsk_fault.c ****  *
  17:..\common\ud3core\tasks/tsk_fault.c ****  * THE SOFTWARE IS PROVIDED "AS IS", WITHOUT WARRANTY OF ANY KIND, EXPRESS OR
  18:..\common\ud3core\tasks/tsk_fault.c ****  * IMPLIED, INCLUDING BUT NOT LIMITED TO THE WARRANTIES OF MERCHANTABILITY, FITNESS
  19:..\common\ud3core\tasks/tsk_fault.c ****  * FOR A PARTICULAR PURPOSE AND NONINFRINGEMENT. IN NO EVENT SHALL THE AUTHORS OR
  20:..\common\ud3core\tasks/tsk_fault.c ****  * COPYRIGHT HOLDERS BE LIABLE FOR ANY CLAIM, DAMAGES OR OTHER LIABILITY, WHETHER
  21:..\common\ud3core\tasks/tsk_fault.c ****  * IN AN ACTION OF CONTRACT, TORT OR OTHERWISE, ARISING FROM, OUT OF OR IN
  22:..\common\ud3core\tasks/tsk_fault.c ****  * CONNECTION WITH THE SOFTWARE OR THE USE OR OTHER DEALINGS IN THE SOFTWARE.
  23:..\common\ud3core\tasks/tsk_fault.c **** */
  24:..\common\ud3core\tasks/tsk_fault.c **** 
  25:..\common\ud3core\tasks/tsk_fault.c **** #include "cyapicallbacks.h"
  26:..\common\ud3core\tasks/tsk_fault.c **** #include <cytypes.h>
  27:..\common\ud3core\tasks/tsk_fault.c **** 
  28:..\common\ud3core\tasks/tsk_fault.c **** #include "tsk_fault.h"
  29:..\common\ud3core\tasks/tsk_fault.c **** #include "tsk_midi.h"
  30:..\common\ud3core\tasks/tsk_fault.c **** #include "alarmevent.h"
ARM GAS  C:\Users\chemi\AppData\Local\Temp\ccSW0GM3.s 			page 2


  31:..\common\ud3core\tasks/tsk_fault.c **** 
  32:..\common\ud3core\tasks/tsk_fault.c **** 
  33:..\common\ud3core\tasks/tsk_fault.c **** /* RTOS includes. */
  34:..\common\ud3core\tasks/tsk_fault.c **** #include "FreeRTOS.h"
  35:..\common\ud3core\tasks/tsk_fault.c **** #include "task.h"
  36:..\common\ud3core\tasks/tsk_fault.c **** #include "queue.h"
  37:..\common\ud3core\tasks/tsk_fault.c **** #include "semphr.h"
  38:..\common\ud3core\tasks/tsk_fault.c **** #include "ZCDtoPWM.h"
  39:..\common\ud3core\tasks/tsk_fault.c **** 
  40:..\common\ud3core\tasks/tsk_fault.c **** xTaskHandle tsk_fault_TaskHandle;
  41:..\common\ud3core\tasks/tsk_fault.c **** uint8 tsk_fault_initVar = 0u;
  42:..\common\ud3core\tasks/tsk_fault.c **** 
  43:..\common\ud3core\tasks/tsk_fault.c **** #define FAULT_LOOP_SPEED_MS 50
  44:..\common\ud3core\tasks/tsk_fault.c **** #define FB_ERROR_TIME 1000 / FAULT_LOOP_SPEED_MS
  45:..\common\ud3core\tasks/tsk_fault.c **** 
  46:..\common\ud3core\tasks/tsk_fault.c **** 
  47:..\common\ud3core\tasks/tsk_fault.c **** /* ------------------------------------------------------------------------ */
  48:..\common\ud3core\tasks/tsk_fault.c **** /*
  49:..\common\ud3core\tasks/tsk_fault.c ****  * Place user included headers, defines and task global data in the
  50:..\common\ud3core\tasks/tsk_fault.c ****  * below merge region section.
  51:..\common\ud3core\tasks/tsk_fault.c ****  */
  52:..\common\ud3core\tasks/tsk_fault.c **** /* `#START USER_INCLUDE SECTION` */
  53:..\common\ud3core\tasks/tsk_fault.c **** #include "cli_common.h"
  54:..\common\ud3core\tasks/tsk_fault.c **** #include "telemetry.h"
  55:..\common\ud3core\tasks/tsk_fault.c **** #include "tsk_priority.h"
  56:..\common\ud3core\tasks/tsk_fault.c **** #include "tsk_analog.h"
  57:..\common\ud3core\tasks/tsk_fault.c **** 
  58:..\common\ud3core\tasks/tsk_fault.c **** /* `#END` */
  59:..\common\ud3core\tasks/tsk_fault.c **** /* ------------------------------------------------------------------------ */
  60:..\common\ud3core\tasks/tsk_fault.c **** /*
  61:..\common\ud3core\tasks/tsk_fault.c ****  * User defined task-local code that is used to process commands, control
  62:..\common\ud3core\tasks/tsk_fault.c ****  * operations, and/or generrally do stuff to make the taks do something
  63:..\common\ud3core\tasks/tsk_fault.c ****  * meaningful.
  64:..\common\ud3core\tasks/tsk_fault.c ****  */
  65:..\common\ud3core\tasks/tsk_fault.c **** /* `#START USER_TASK_LOCAL_CODE` */
  66:..\common\ud3core\tasks/tsk_fault.c **** 
  67:..\common\ud3core\tasks/tsk_fault.c **** TimerHandle_t xWD_Timer;
  68:..\common\ud3core\tasks/tsk_fault.c **** SYSFAULT sysfault;
  69:..\common\ud3core\tasks/tsk_fault.c **** uint32_t switch_without_fb = 0;
  70:..\common\ud3core\tasks/tsk_fault.c **** 
  71:..\common\ud3core\tasks/tsk_fault.c **** 
  72:..\common\ud3core\tasks/tsk_fault.c **** void WD_enable(uint8_t enable){
  73:..\common\ud3core\tasks/tsk_fault.c ****     if(xWD_Timer!=NULL){
  74:..\common\ud3core\tasks/tsk_fault.c ****         if(enable){
  75:..\common\ud3core\tasks/tsk_fault.c ****             xTimerStart(xWD_Timer,10);
  76:..\common\ud3core\tasks/tsk_fault.c ****         }else{  
  77:..\common\ud3core\tasks/tsk_fault.c ****             xTimerStop(xWD_Timer,10);
  78:..\common\ud3core\tasks/tsk_fault.c ****         }
  79:..\common\ud3core\tasks/tsk_fault.c ****     } 
  80:..\common\ud3core\tasks/tsk_fault.c **** }
  81:..\common\ud3core\tasks/tsk_fault.c **** 
  82:..\common\ud3core\tasks/tsk_fault.c **** void WD_reset(){
  83:..\common\ud3core\tasks/tsk_fault.c ****     if(xWD_Timer!=NULL && configuration.watchdog){
  84:..\common\ud3core\tasks/tsk_fault.c ****         xTimerStart(xWD_Timer,0);
  85:..\common\ud3core\tasks/tsk_fault.c ****     }
  86:..\common\ud3core\tasks/tsk_fault.c **** }
  87:..\common\ud3core\tasks/tsk_fault.c **** 
ARM GAS  C:\Users\chemi\AppData\Local\Temp\ccSW0GM3.s 			page 3


  88:..\common\ud3core\tasks/tsk_fault.c **** void WD_reset_from_ISR(){
  89:..\common\ud3core\tasks/tsk_fault.c ****     if(xWD_Timer!=NULL && configuration.watchdog){
  90:..\common\ud3core\tasks/tsk_fault.c ****         xTimerStartFromISR(xWD_Timer, NULL);
  91:..\common\ud3core\tasks/tsk_fault.c ****     }
  92:..\common\ud3core\tasks/tsk_fault.c **** }
  93:..\common\ud3core\tasks/tsk_fault.c **** 
  94:..\common\ud3core\tasks/tsk_fault.c **** void set_switch_without_fb(uint32_t en){
  95:..\common\ud3core\tasks/tsk_fault.c ****     switch_without_fb = en ? 0 : 0b10;
  96:..\common\ud3core\tasks/tsk_fault.c **** }
  97:..\common\ud3core\tasks/tsk_fault.c **** 
  98:..\common\ud3core\tasks/tsk_fault.c **** void handle_UVLO(void) {
  99:..\common\ud3core\tasks/tsk_fault.c ****     // read the driver voltage
 100:..\common\ud3core\tasks/tsk_fault.c ****     tt.n.driver_v.value = read_driver_mv();
 101:..\common\ud3core\tasks/tsk_fault.c ****     
 102:..\common\ud3core\tasks/tsk_fault.c ****     uint8_t undervoltage = pdFALSE;
 103:..\common\ud3core\tasks/tsk_fault.c ****     
 104:..\common\ud3core\tasks/tsk_fault.c ****     if(configuration.uvlo_analog){  //Analog UVLO
 105:..\common\ud3core\tasks/tsk_fault.c ****         if(tt.n.driver_v.value < configuration.uvlo_analog){
 106:..\common\ud3core\tasks/tsk_fault.c ****             undervoltage = pdTRUE;   
 107:..\common\ud3core\tasks/tsk_fault.c ****         }
 108:..\common\ud3core\tasks/tsk_fault.c ****     }else{  //Digital UVLO
 109:..\common\ud3core\tasks/tsk_fault.c ****         if(UVLO_Read() == 0){
 110:..\common\ud3core\tasks/tsk_fault.c ****             undervoltage = pdTRUE;
 111:..\common\ud3core\tasks/tsk_fault.c ****         }
 112:..\common\ud3core\tasks/tsk_fault.c ****     }
 113:..\common\ud3core\tasks/tsk_fault.c ****     
 114:..\common\ud3core\tasks/tsk_fault.c **** 	//UVLO feedback via system_fault (LED2)
 115:..\common\ud3core\tasks/tsk_fault.c **** 	if(undervoltage){
 116:..\common\ud3core\tasks/tsk_fault.c ****         if(sysfault.uvlo==0){
 117:..\common\ud3core\tasks/tsk_fault.c ****             alarm_push(ALM_PRIO_CRITICAL, "DRIVER: Undervoltage", ALM_NO_VALUE);
 118:..\common\ud3core\tasks/tsk_fault.c ****         }
 119:..\common\ud3core\tasks/tsk_fault.c ****         sysfault.uvlo=1;
 120:..\common\ud3core\tasks/tsk_fault.c ****     }else{
 121:..\common\ud3core\tasks/tsk_fault.c ****         sysfault.uvlo=0;
 122:..\common\ud3core\tasks/tsk_fault.c ****     }
 123:..\common\ud3core\tasks/tsk_fault.c **** }
 124:..\common\ud3core\tasks/tsk_fault.c **** 
 125:..\common\ud3core\tasks/tsk_fault.c **** uint32_t feedback_error_cnt=0;
 126:..\common\ud3core\tasks/tsk_fault.c **** 
 127:..\common\ud3core\tasks/tsk_fault.c **** void reset_fault(){
 128:..\common\ud3core\tasks/tsk_fault.c ****     feedback_error_cnt = 0;
 129:..\common\ud3core\tasks/tsk_fault.c ****     for(uint8_t i=0;i<sizeof(SYSFAULT);i++){
 130:..\common\ud3core\tasks/tsk_fault.c ****         ((uint8_t*)&sysfault)[i]=0;
 131:..\common\ud3core\tasks/tsk_fault.c ****     }
 132:..\common\ud3core\tasks/tsk_fault.c **** }
 133:..\common\ud3core\tasks/tsk_fault.c **** 
 134:..\common\ud3core\tasks/tsk_fault.c **** uint8_t tsk_fault_is_fault(){
 135:..\common\ud3core\tasks/tsk_fault.c ****     return (system_fault_Control & 0b1) ? pdFALSE : pdTRUE;   
 136:..\common\ud3core\tasks/tsk_fault.c **** }
 137:..\common\ud3core\tasks/tsk_fault.c **** 
 138:..\common\ud3core\tasks/tsk_fault.c **** void sysflt_set(uint32_t wait){
 139:..\common\ud3core\tasks/tsk_fault.c ****     system_fault_Control = (switch_without_fb & 0b10);
 140:..\common\ud3core\tasks/tsk_fault.c ****     if(wait) CyDelayUs(500); //TODO evaluate delay time
 141:..\common\ud3core\tasks/tsk_fault.c **** }
 142:..\common\ud3core\tasks/tsk_fault.c **** 
 143:..\common\ud3core\tasks/tsk_fault.c **** void sysflt_clr(uint32_t wait){
 144:..\common\ud3core\tasks/tsk_fault.c ****     system_fault_Control = (switch_without_fb & 0b10) | 0b1;
ARM GAS  C:\Users\chemi\AppData\Local\Temp\ccSW0GM3.s 			page 4


 145:..\common\ud3core\tasks/tsk_fault.c ****     if(wait) CyDelayUs(500); //TODO evaluate delay time
 146:..\common\ud3core\tasks/tsk_fault.c **** }
 147:..\common\ud3core\tasks/tsk_fault.c **** 
 148:..\common\ud3core\tasks/tsk_fault.c **** void handle_FAULT(void) {
 149:..\common\ud3core\tasks/tsk_fault.c **** 	//UVLO feedback via system_fault (LED2)
 150:..\common\ud3core\tasks/tsk_fault.c **** 	uint8_t flag = 1;
 151:..\common\ud3core\tasks/tsk_fault.c ****     
 152:..\common\ud3core\tasks/tsk_fault.c ****     for(uint8_t i=0;i<sizeof(SYSFAULT);i++){
 153:..\common\ud3core\tasks/tsk_fault.c ****         if(((uint8_t*)&sysfault)[i]) flag = 0; //Sysfault is active low
 154:..\common\ud3core\tasks/tsk_fault.c ****     }
 155:..\common\ud3core\tasks/tsk_fault.c ****     system_fault_Control = (switch_without_fb & 0b10) | (flag & 0b1);
 156:..\common\ud3core\tasks/tsk_fault.c ****     
 157:..\common\ud3core\tasks/tsk_fault.c ****     if(tsk_fault_is_fault()){
 158:..\common\ud3core\tasks/tsk_fault.c ****         LED_sysfault_Write(LED_ON);
 159:..\common\ud3core\tasks/tsk_fault.c ****     }else{
 160:..\common\ud3core\tasks/tsk_fault.c ****         LED_sysfault_Write(LED_OFF);
 161:..\common\ud3core\tasks/tsk_fault.c ****     }
 162:..\common\ud3core\tasks/tsk_fault.c **** }
 163:..\common\ud3core\tasks/tsk_fault.c **** 
 164:..\common\ud3core\tasks/tsk_fault.c **** 
 165:..\common\ud3core\tasks/tsk_fault.c **** 
 166:..\common\ud3core\tasks/tsk_fault.c **** void handle_no_fb(void){
 167:..\common\ud3core\tasks/tsk_fault.c ****     uint32_t time = ((uint32_t)fb_filter_out * 15625ul)/1000; //ns
 168:..\common\ud3core\tasks/tsk_fault.c ****     tt.n.fres.value = (5000000ul / time);
 169:..\common\ud3core\tasks/tsk_fault.c ****     static uint8_t fb_error_timer=FB_ERROR_TIME;
 170:..\common\ud3core\tasks/tsk_fault.c ****     
 171:..\common\ud3core\tasks/tsk_fault.c ****     if(no_fb_reg_Read()){
 172:..\common\ud3core\tasks/tsk_fault.c ****         feedback_error_cnt++;
 173:..\common\ud3core\tasks/tsk_fault.c ****         fb_error_timer=FB_ERROR_TIME;
 174:..\common\ud3core\tasks/tsk_fault.c ****     }else{
 175:..\common\ud3core\tasks/tsk_fault.c ****         fb_error_timer--;
 176:..\common\ud3core\tasks/tsk_fault.c ****         if(fb_error_timer==0){
 177:..\common\ud3core\tasks/tsk_fault.c ****             fb_error_timer = 20;
 178:..\common\ud3core\tasks/tsk_fault.c ****             feedback_error_cnt = 0;
 179:..\common\ud3core\tasks/tsk_fault.c ****         }
 180:..\common\ud3core\tasks/tsk_fault.c ****     }
 181:..\common\ud3core\tasks/tsk_fault.c ****     
 182:..\common\ud3core\tasks/tsk_fault.c ****     if(configuration.max_fb_errors){
 183:..\common\ud3core\tasks/tsk_fault.c ****         if(feedback_error_cnt > configuration.max_fb_errors){
 184:..\common\ud3core\tasks/tsk_fault.c ****             if(sysfault.feedback==0){
 185:..\common\ud3core\tasks/tsk_fault.c ****                 alarm_push(ALM_PRIO_CRITICAL, "FAULT: No Feedback", feedback_error_cnt);
 186:..\common\ud3core\tasks/tsk_fault.c ****             }
 187:..\common\ud3core\tasks/tsk_fault.c ****             sysfault.feedback = pdTRUE;          
 188:..\common\ud3core\tasks/tsk_fault.c ****         }
 189:..\common\ud3core\tasks/tsk_fault.c ****     }else{
 190:..\common\ud3core\tasks/tsk_fault.c ****         sysfault.feedback = pdFALSE;   
 191:..\common\ud3core\tasks/tsk_fault.c ****     }
 192:..\common\ud3core\tasks/tsk_fault.c ****     
 193:..\common\ud3core\tasks/tsk_fault.c ****     
 194:..\common\ud3core\tasks/tsk_fault.c ****     
 195:..\common\ud3core\tasks/tsk_fault.c **** }
 196:..\common\ud3core\tasks/tsk_fault.c **** 
 197:..\common\ud3core\tasks/tsk_fault.c **** void vWD_Timer_Callback(TimerHandle_t xTimer){
  28              		.loc 1 197 0
  29              		.cfi_startproc
  30              		@ args = 0, pretend = 0, frame = 0
  31              		@ frame_needed = 0, uses_anonymous_args = 0
ARM GAS  C:\Users\chemi\AppData\Local\Temp\ccSW0GM3.s 			page 5


  32              	.LVL0:
  33 0000 37B5     		push	{r0, r1, r2, r4, r5, lr}
  34              		.cfi_def_cfa_offset 24
  35              		.cfi_offset 4, -12
  36              		.cfi_offset 5, -8
  37              		.cfi_offset 14, -4
 198:..\common\ud3core\tasks/tsk_fault.c ****     if(sysfault.watchdog==0){
  38              		.loc 1 198 0
  39 0002 104B     		ldr	r3, .L4
 197:..\common\ud3core\tasks/tsk_fault.c ****     if(sysfault.watchdog==0){
  40              		.loc 1 197 0
  41 0004 0546     		mov	r5, r0
  42              		.loc 1 198 0
  43 0006 5A79     		ldrb	r2, [r3, #5]	@ zero_extendqisi2
  44 0008 1C46     		mov	r4, r3
  45 000a 2AB9     		cbnz	r2, .L2
 199:..\common\ud3core\tasks/tsk_fault.c ****         alarm_push(ALM_PRIO_CRITICAL, "WD: Watchdog triggered", ALM_NO_VALUE);
  46              		.loc 1 199 0
  47 000c 4FF00042 		mov	r2, #-2147483648
  48 0010 0D49     		ldr	r1, .L4+4
  49 0012 0320     		movs	r0, #3
  50              	.LVL1:
  51 0014 FFF7FEFF 		bl	alarm_push
  52              	.LVL2:
  53              	.L2:
 200:..\common\ud3core\tasks/tsk_fault.c ****     }
 201:..\common\ud3core\tasks/tsk_fault.c ****     sysfault.watchdog = 1;
  54              		.loc 1 201 0
  55 0018 0123     		movs	r3, #1
  56 001a 6371     		strb	r3, [r4, #5]
 202:..\common\ud3core\tasks/tsk_fault.c ****     interrupter1_control_Control = 0;
  57              		.loc 1 202 0
  58 001c 0B4B     		ldr	r3, .L4+8
  59 001e 0024     		movs	r4, #0
  60 0020 1C70     		strb	r4, [r3]
 203:..\common\ud3core\tasks/tsk_fault.c **** 	QCW_enable_Control = 0;
  61              		.loc 1 203 0
  62 0022 03F8044C 		strb	r4, [r3, #-4]
 204:..\common\ud3core\tasks/tsk_fault.c ****     interrupter_kill();
  63              		.loc 1 204 0
  64 0026 FFF7FEFF 		bl	interrupter_kill
  65              	.LVL3:
 205:..\common\ud3core\tasks/tsk_fault.c ****     tsk_midi_kill();
  66              		.loc 1 205 0
  67 002a FFF7FEFF 		bl	tsk_midi_kill
  68              	.LVL4:
 206:..\common\ud3core\tasks/tsk_fault.c ****     xTimerReset(xTimer,0);
  69              		.loc 1 206 0
  70 002e FFF7FEFF 		bl	xTaskGetTickCount
  71              	.LVL5:
  72 0032 0094     		str	r4, [sp]
  73 0034 0246     		mov	r2, r0
  74 0036 2346     		mov	r3, r4
  75 0038 0221     		movs	r1, #2
  76 003a 2846     		mov	r0, r5
  77 003c FFF7FEFF 		bl	xTimerGenericCommand
  78              	.LVL6:
ARM GAS  C:\Users\chemi\AppData\Local\Temp\ccSW0GM3.s 			page 6


 207:..\common\ud3core\tasks/tsk_fault.c **** }
  79              		.loc 1 207 0
  80 0040 03B0     		add	sp, sp, #12
  81              		.cfi_def_cfa_offset 12
  82              		@ sp needed
  83 0042 30BD     		pop	{r4, r5, pc}
  84              	.LVL7:
  85              	.L5:
  86              		.align	2
  87              	.L4:
  88 0044 00000000 		.word	sysfault
  89 0048 00000000 		.word	.LC0
  90 004c 7D640040 		.word	1073767549
  91              		.cfi_endproc
  92              	.LFE79:
  93              		.size	vWD_Timer_Callback, .-vWD_Timer_Callback
  94              		.section	.text.WD_enable,"ax",%progbits
  95              		.align	1
  96              		.global	WD_enable
  97              		.thumb
  98              		.thumb_func
  99              		.type	WD_enable, %function
 100              	WD_enable:
 101              	.LFB68:
  72:..\common\ud3core\tasks/tsk_fault.c ****     if(xWD_Timer!=NULL){
 102              		.loc 1 72 0
 103              		.cfi_startproc
 104              		@ args = 0, pretend = 0, frame = 0
 105              		@ frame_needed = 0, uses_anonymous_args = 0
 106              	.LVL8:
 107 0000 37B5     		push	{r0, r1, r2, r4, r5, lr}
 108              		.cfi_def_cfa_offset 24
 109              		.cfi_offset 4, -12
 110              		.cfi_offset 5, -8
 111              		.cfi_offset 14, -4
  73:..\common\ud3core\tasks/tsk_fault.c ****         if(enable){
 112              		.loc 1 73 0
 113 0002 0A4A     		ldr	r2, .L13
  72:..\common\ud3core\tasks/tsk_fault.c ****     if(xWD_Timer!=NULL){
 114              		.loc 1 72 0
 115 0004 0346     		mov	r3, r0
  73:..\common\ud3core\tasks/tsk_fault.c ****         if(enable){
 116              		.loc 1 73 0
 117 0006 1468     		ldr	r4, [r2]
 118 0008 74B1     		cbz	r4, .L6
 119 000a 0A25     		movs	r5, #10
  74:..\common\ud3core\tasks/tsk_fault.c ****             xTimerStart(xWD_Timer,10);
 120              		.loc 1 74 0
 121 000c 30B1     		cbz	r0, .L8
  75:..\common\ud3core\tasks/tsk_fault.c ****         }else{  
 122              		.loc 1 75 0
 123 000e FFF7FEFF 		bl	xTaskGetTickCount
 124              	.LVL9:
 125 0012 0095     		str	r5, [sp]
 126 0014 0023     		movs	r3, #0
 127 0016 0246     		mov	r2, r0
 128 0018 0121     		movs	r1, #1
ARM GAS  C:\Users\chemi\AppData\Local\Temp\ccSW0GM3.s 			page 7


 129 001a 02E0     		b	.L12
 130              	.LVL10:
 131              	.L8:
  77:..\common\ud3core\tasks/tsk_fault.c ****         }
 132              		.loc 1 77 0
 133 001c 0246     		mov	r2, r0
 134 001e 0095     		str	r5, [sp]
 135 0020 0321     		movs	r1, #3
 136              	.LVL11:
 137              	.L12:
 138 0022 2046     		mov	r0, r4
 139 0024 FFF7FEFF 		bl	xTimerGenericCommand
 140              	.LVL12:
 141              	.L6:
  80:..\common\ud3core\tasks/tsk_fault.c **** 
 142              		.loc 1 80 0
 143 0028 03B0     		add	sp, sp, #12
 144              		.cfi_def_cfa_offset 12
 145              		@ sp needed
 146 002a 30BD     		pop	{r4, r5, pc}
 147              	.L14:
 148              		.align	2
 149              	.L13:
 150 002c 00000000 		.word	xWD_Timer
 151              		.cfi_endproc
 152              	.LFE68:
 153              		.size	WD_enable, .-WD_enable
 154              		.section	.text.WD_reset,"ax",%progbits
 155              		.align	1
 156              		.global	WD_reset
 157              		.thumb
 158              		.thumb_func
 159              		.type	WD_reset, %function
 160              	WD_reset:
 161              	.LFB69:
  82:..\common\ud3core\tasks/tsk_fault.c ****     if(xWD_Timer!=NULL && configuration.watchdog){
 162              		.loc 1 82 0
 163              		.cfi_startproc
 164              		@ args = 0, pretend = 0, frame = 0
 165              		@ frame_needed = 0, uses_anonymous_args = 0
  83:..\common\ud3core\tasks/tsk_fault.c ****         xTimerStart(xWD_Timer,0);
 166              		.loc 1 83 0
 167 0000 084B     		ldr	r3, .L23
  82:..\common\ud3core\tasks/tsk_fault.c ****     if(xWD_Timer!=NULL && configuration.watchdog){
 168              		.loc 1 82 0
 169 0002 13B5     		push	{r0, r1, r4, lr}
 170              		.cfi_def_cfa_offset 16
 171              		.cfi_offset 4, -8
 172              		.cfi_offset 14, -4
  83:..\common\ud3core\tasks/tsk_fault.c ****         xTimerStart(xWD_Timer,0);
 173              		.loc 1 83 0
 174 0004 1C68     		ldr	r4, [r3]
 175 0006 5CB1     		cbz	r4, .L15
  83:..\common\ud3core\tasks/tsk_fault.c ****         xTimerStart(xWD_Timer,0);
 176              		.loc 1 83 0 is_stmt 0 discriminator 1
 177 0008 074B     		ldr	r3, .L23+4
 178 000a 1B78     		ldrb	r3, [r3]	@ zero_extendqisi2
ARM GAS  C:\Users\chemi\AppData\Local\Temp\ccSW0GM3.s 			page 8


 179 000c 43B1     		cbz	r3, .L15
  84:..\common\ud3core\tasks/tsk_fault.c ****     }
 180              		.loc 1 84 0 is_stmt 1
 181 000e FFF7FEFF 		bl	xTaskGetTickCount
 182              	.LVL13:
 183 0012 0023     		movs	r3, #0
 184 0014 0246     		mov	r2, r0
 185 0016 0093     		str	r3, [sp]
 186 0018 0121     		movs	r1, #1
 187 001a 2046     		mov	r0, r4
 188 001c FFF7FEFF 		bl	xTimerGenericCommand
 189              	.LVL14:
 190              	.L15:
  86:..\common\ud3core\tasks/tsk_fault.c **** 
 191              		.loc 1 86 0
 192 0020 02B0     		add	sp, sp, #8
 193              		.cfi_def_cfa_offset 8
 194              		@ sp needed
 195 0022 10BD     		pop	{r4, pc}
 196              	.L24:
 197              		.align	2
 198              	.L23:
 199 0024 00000000 		.word	xWD_Timer
 200 0028 00000000 		.word	configuration
 201              		.cfi_endproc
 202              	.LFE69:
 203              		.size	WD_reset, .-WD_reset
 204              		.section	.text.WD_reset_from_ISR,"ax",%progbits
 205              		.align	1
 206              		.global	WD_reset_from_ISR
 207              		.thumb
 208              		.thumb_func
 209              		.type	WD_reset_from_ISR, %function
 210              	WD_reset_from_ISR:
 211              	.LFB70:
  88:..\common\ud3core\tasks/tsk_fault.c ****     if(xWD_Timer!=NULL && configuration.watchdog){
 212              		.loc 1 88 0
 213              		.cfi_startproc
 214              		@ args = 0, pretend = 0, frame = 0
 215              		@ frame_needed = 0, uses_anonymous_args = 0
  89:..\common\ud3core\tasks/tsk_fault.c ****         xTimerStartFromISR(xWD_Timer, NULL);
 216              		.loc 1 89 0
 217 0000 084B     		ldr	r3, .L33
  88:..\common\ud3core\tasks/tsk_fault.c ****     if(xWD_Timer!=NULL && configuration.watchdog){
 218              		.loc 1 88 0
 219 0002 13B5     		push	{r0, r1, r4, lr}
 220              		.cfi_def_cfa_offset 16
 221              		.cfi_offset 4, -8
 222              		.cfi_offset 14, -4
  89:..\common\ud3core\tasks/tsk_fault.c ****         xTimerStartFromISR(xWD_Timer, NULL);
 223              		.loc 1 89 0
 224 0004 1C68     		ldr	r4, [r3]
 225 0006 5CB1     		cbz	r4, .L25
  89:..\common\ud3core\tasks/tsk_fault.c ****         xTimerStartFromISR(xWD_Timer, NULL);
 226              		.loc 1 89 0 is_stmt 0 discriminator 1
 227 0008 074B     		ldr	r3, .L33+4
 228 000a 1B78     		ldrb	r3, [r3]	@ zero_extendqisi2
ARM GAS  C:\Users\chemi\AppData\Local\Temp\ccSW0GM3.s 			page 9


 229 000c 43B1     		cbz	r3, .L25
  90:..\common\ud3core\tasks/tsk_fault.c ****     }
 230              		.loc 1 90 0 is_stmt 1
 231 000e FFF7FEFF 		bl	xTaskGetTickCountFromISR
 232              	.LVL15:
 233 0012 0023     		movs	r3, #0
 234 0014 0246     		mov	r2, r0
 235 0016 0093     		str	r3, [sp]
 236 0018 0621     		movs	r1, #6
 237 001a 2046     		mov	r0, r4
 238 001c FFF7FEFF 		bl	xTimerGenericCommand
 239              	.LVL16:
 240              	.L25:
  92:..\common\ud3core\tasks/tsk_fault.c **** 
 241              		.loc 1 92 0
 242 0020 02B0     		add	sp, sp, #8
 243              		.cfi_def_cfa_offset 8
 244              		@ sp needed
 245 0022 10BD     		pop	{r4, pc}
 246              	.L34:
 247              		.align	2
 248              	.L33:
 249 0024 00000000 		.word	xWD_Timer
 250 0028 00000000 		.word	configuration
 251              		.cfi_endproc
 252              	.LFE70:
 253              		.size	WD_reset_from_ISR, .-WD_reset_from_ISR
 254              		.section	.text.set_switch_without_fb,"ax",%progbits
 255              		.align	1
 256              		.global	set_switch_without_fb
 257              		.thumb
 258              		.thumb_func
 259              		.type	set_switch_without_fb, %function
 260              	set_switch_without_fb:
 261              	.LFB71:
  94:..\common\ud3core\tasks/tsk_fault.c ****     switch_without_fb = en ? 0 : 0b10;
 262              		.loc 1 94 0
 263              		.cfi_startproc
 264              		@ args = 0, pretend = 0, frame = 0
 265              		@ frame_needed = 0, uses_anonymous_args = 0
 266              		@ link register save eliminated.
 267              	.LVL17:
  95:..\common\ud3core\tasks/tsk_fault.c **** }
 268              		.loc 1 95 0
 269 0000 0028     		cmp	r0, #0
 270 0002 034B     		ldr	r3, .L38
 271 0004 14BF     		ite	ne
 272 0006 0022     		movne	r2, #0
 273 0008 0222     		moveq	r2, #2
 274 000a 1A60     		str	r2, [r3]
 275 000c 7047     		bx	lr
 276              	.L39:
 277 000e 00BF     		.align	2
 278              	.L38:
 279 0010 00000000 		.word	.LANCHOR0
 280              		.cfi_endproc
 281              	.LFE71:
ARM GAS  C:\Users\chemi\AppData\Local\Temp\ccSW0GM3.s 			page 10


 282              		.size	set_switch_without_fb, .-set_switch_without_fb
 283              		.section	.text.handle_UVLO,"ax",%progbits
 284              		.align	1
 285              		.global	handle_UVLO
 286              		.thumb
 287              		.thumb_func
 288              		.type	handle_UVLO, %function
 289              	handle_UVLO:
 290              	.LFB72:
  98:..\common\ud3core\tasks/tsk_fault.c ****     // read the driver voltage
 291              		.loc 1 98 0
 292              		.cfi_startproc
 293              		@ args = 0, pretend = 0, frame = 0
 294              		@ frame_needed = 0, uses_anonymous_args = 0
 295 0000 10B5     		push	{r4, lr}
 296              		.cfi_def_cfa_offset 8
 297              		.cfi_offset 4, -8
 298              		.cfi_offset 14, -4
 100:..\common\ud3core\tasks/tsk_fault.c ****     
 299              		.loc 1 100 0
 300 0002 FFF7FEFF 		bl	read_driver_mv
 301              	.LVL18:
 302 0006 0D4B     		ldr	r3, .L51
 303 0008 0D4C     		ldr	r4, .L51+4
 304 000a 1864     		str	r0, [r3, #64]
 305              	.LVL19:
 104:..\common\ud3core\tasks/tsk_fault.c ****         if(tt.n.driver_v.value < configuration.uvlo_analog){
 306              		.loc 1 104 0
 307 000c 0D4B     		ldr	r3, .L51+8
 308 000e B3F86830 		ldrh	r3, [r3, #104]
 309 0012 13B1     		cbz	r3, .L41
 105:..\common\ud3core\tasks/tsk_fault.c ****             undervoltage = pdTRUE;   
 310              		.loc 1 105 0
 311 0014 9842     		cmp	r0, r3
 312 0016 03DB     		blt	.L42
 313 0018 0CE0     		b	.L43
 314              	.L41:
 109:..\common\ud3core\tasks/tsk_fault.c ****             undervoltage = pdTRUE;
 315              		.loc 1 109 0
 316 001a FFF7FEFF 		bl	UVLO_Read
 317              	.LVL20:
 318 001e 48B9     		cbnz	r0, .L43
 319              	.L42:
 320              	.LVL21:
 321              	.LBB5:
 322              	.LBB6:
 116:..\common\ud3core\tasks/tsk_fault.c ****             alarm_push(ALM_PRIO_CRITICAL, "DRIVER: Undervoltage", ALM_NO_VALUE);
 323              		.loc 1 116 0
 324 0020 2378     		ldrb	r3, [r4]	@ zero_extendqisi2
 325 0022 2BB9     		cbnz	r3, .L45
 117:..\common\ud3core\tasks/tsk_fault.c ****         }
 326              		.loc 1 117 0
 327 0024 4FF00042 		mov	r2, #-2147483648
 328 0028 0749     		ldr	r1, .L51+12
 329 002a 0320     		movs	r0, #3
 330 002c FFF7FEFF 		bl	alarm_push
 331              	.LVL22:
ARM GAS  C:\Users\chemi\AppData\Local\Temp\ccSW0GM3.s 			page 11


 332              	.L45:
 119:..\common\ud3core\tasks/tsk_fault.c ****     }else{
 333              		.loc 1 119 0
 334 0030 0123     		movs	r3, #1
 335 0032 00E0     		b	.L50
 336              	.LVL23:
 337              	.L43:
 338              	.LBE6:
 339              	.LBE5:
 121:..\common\ud3core\tasks/tsk_fault.c ****     }
 340              		.loc 1 121 0
 341 0034 0023     		movs	r3, #0
 342              	.LVL24:
 343              	.L50:
 344 0036 2370     		strb	r3, [r4]
 345 0038 10BD     		pop	{r4, pc}
 346              	.L52:
 347 003a 00BF     		.align	2
 348              	.L51:
 349 003c 00000000 		.word	tt
 350 0040 00000000 		.word	sysfault
 351 0044 00000000 		.word	configuration
 352 0048 17000000 		.word	.LC1
 353              		.cfi_endproc
 354              	.LFE72:
 355              		.size	handle_UVLO, .-handle_UVLO
 356              		.section	.text.reset_fault,"ax",%progbits
 357              		.align	1
 358              		.global	reset_fault
 359              		.thumb
 360              		.thumb_func
 361              		.type	reset_fault, %function
 362              	reset_fault:
 363              	.LFB73:
 127:..\common\ud3core\tasks/tsk_fault.c ****     feedback_error_cnt = 0;
 364              		.loc 1 127 0
 365              		.cfi_startproc
 366              		@ args = 0, pretend = 0, frame = 0
 367              		@ frame_needed = 0, uses_anonymous_args = 0
 368              		@ link register save eliminated.
 128:..\common\ud3core\tasks/tsk_fault.c ****     for(uint8_t i=0;i<sizeof(SYSFAULT);i++){
 369              		.loc 1 128 0
 370 0000 0023     		movs	r3, #0
 371              	.LBB7:
 130:..\common\ud3core\tasks/tsk_fault.c ****     }
 372              		.loc 1 130 0
 373 0002 1946     		mov	r1, r3
 374              	.LBE7:
 128:..\common\ud3core\tasks/tsk_fault.c ****     for(uint8_t i=0;i<sizeof(SYSFAULT);i++){
 375              		.loc 1 128 0
 376 0004 034A     		ldr	r2, .L56
 377 0006 5360     		str	r3, [r2, #4]
 378              	.LVL25:
 379              	.LBB8:
 130:..\common\ud3core\tasks/tsk_fault.c ****     }
 380              		.loc 1 130 0
 381 0008 034A     		ldr	r2, .L56+4
ARM GAS  C:\Users\chemi\AppData\Local\Temp\ccSW0GM3.s 			page 12


 382              	.LVL26:
 383              	.L54:
 130:..\common\ud3core\tasks/tsk_fault.c ****     }
 384              		.loc 1 130 0 is_stmt 0 discriminator 3
 385 000a 9954     		strb	r1, [r3, r2]
 386              	.LVL27:
 387 000c 0133     		adds	r3, r3, #1
 388              	.LVL28:
 129:..\common\ud3core\tasks/tsk_fault.c ****         ((uint8_t*)&sysfault)[i]=0;
 389              		.loc 1 129 0 is_stmt 1 discriminator 3
 390 000e 0B2B     		cmp	r3, #11
 391 0010 FBD1     		bne	.L54
 392              	.LBE8:
 132:..\common\ud3core\tasks/tsk_fault.c **** 
 393              		.loc 1 132 0
 394 0012 7047     		bx	lr
 395              	.L57:
 396              		.align	2
 397              	.L56:
 398 0014 00000000 		.word	.LANCHOR0
 399 0018 00000000 		.word	sysfault
 400              		.cfi_endproc
 401              	.LFE73:
 402              		.size	reset_fault, .-reset_fault
 403              		.section	.text.tsk_fault_is_fault,"ax",%progbits
 404              		.align	1
 405              		.global	tsk_fault_is_fault
 406              		.thumb
 407              		.thumb_func
 408              		.type	tsk_fault_is_fault, %function
 409              	tsk_fault_is_fault:
 410              	.LFB74:
 134:..\common\ud3core\tasks/tsk_fault.c ****     return (system_fault_Control & 0b1) ? pdFALSE : pdTRUE;   
 411              		.loc 1 134 0
 412              		.cfi_startproc
 413              		@ args = 0, pretend = 0, frame = 0
 414              		@ frame_needed = 0, uses_anonymous_args = 0
 415              		@ link register save eliminated.
 135:..\common\ud3core\tasks/tsk_fault.c **** }
 416              		.loc 1 135 0
 417 0000 034B     		ldr	r3, .L59
 418 0002 1878     		ldrb	r0, [r3]	@ zero_extendqisi2
 419 0004 00F00100 		and	r0, r0, #1
 136:..\common\ud3core\tasks/tsk_fault.c **** 
 420              		.loc 1 136 0
 421 0008 80F00100 		eor	r0, r0, #1
 422 000c 7047     		bx	lr
 423              	.L60:
 424 000e 00BF     		.align	2
 425              	.L59:
 426 0010 7E640040 		.word	1073767550
 427              		.cfi_endproc
 428              	.LFE74:
 429              		.size	tsk_fault_is_fault, .-tsk_fault_is_fault
 430              		.section	.text.sysflt_set,"ax",%progbits
 431              		.align	1
 432              		.global	sysflt_set
ARM GAS  C:\Users\chemi\AppData\Local\Temp\ccSW0GM3.s 			page 13


 433              		.thumb
 434              		.thumb_func
 435              		.type	sysflt_set, %function
 436              	sysflt_set:
 437              	.LFB75:
 138:..\common\ud3core\tasks/tsk_fault.c ****     system_fault_Control = (switch_without_fb & 0b10);
 438              		.loc 1 138 0
 439              		.cfi_startproc
 440              		@ args = 0, pretend = 0, frame = 0
 441              		@ frame_needed = 0, uses_anonymous_args = 0
 442              		@ link register save eliminated.
 443              	.LVL29:
 139:..\common\ud3core\tasks/tsk_fault.c ****     if(wait) CyDelayUs(500); //TODO evaluate delay time
 444              		.loc 1 139 0
 445 0000 064B     		ldr	r3, .L63
 446 0002 074A     		ldr	r2, .L63+4
 447 0004 1B68     		ldr	r3, [r3]
 448 0006 03F00203 		and	r3, r3, #2
 449 000a DBB2     		uxtb	r3, r3
 450 000c 1370     		strb	r3, [r2]
 140:..\common\ud3core\tasks/tsk_fault.c **** }
 451              		.loc 1 140 0
 452 000e 18B1     		cbz	r0, .L61
 140:..\common\ud3core\tasks/tsk_fault.c **** }
 453              		.loc 1 140 0 is_stmt 0 discriminator 1
 454 0010 4FF4FA70 		mov	r0, #500
 455              	.LVL30:
 456 0014 FFF7FEBF 		b	CyDelayUs
 457              	.LVL31:
 458              	.L61:
 459 0018 7047     		bx	lr
 460              	.L64:
 461 001a 00BF     		.align	2
 462              	.L63:
 463 001c 00000000 		.word	.LANCHOR0
 464 0020 7E640040 		.word	1073767550
 465              		.cfi_endproc
 466              	.LFE75:
 467              		.size	sysflt_set, .-sysflt_set
 468              		.section	.text.sysflt_clr,"ax",%progbits
 469              		.align	1
 470              		.global	sysflt_clr
 471              		.thumb
 472              		.thumb_func
 473              		.type	sysflt_clr, %function
 474              	sysflt_clr:
 475              	.LFB76:
 143:..\common\ud3core\tasks/tsk_fault.c ****     system_fault_Control = (switch_without_fb & 0b10) | 0b1;
 476              		.loc 1 143 0 is_stmt 1
 477              		.cfi_startproc
 478              		@ args = 0, pretend = 0, frame = 0
 479              		@ frame_needed = 0, uses_anonymous_args = 0
 480              		@ link register save eliminated.
 481              	.LVL32:
 144:..\common\ud3core\tasks/tsk_fault.c ****     if(wait) CyDelayUs(500); //TODO evaluate delay time
 482              		.loc 1 144 0
 483 0000 074B     		ldr	r3, .L67
ARM GAS  C:\Users\chemi\AppData\Local\Temp\ccSW0GM3.s 			page 14


 484 0002 084A     		ldr	r2, .L67+4
 485 0004 1B68     		ldr	r3, [r3]
 486 0006 03F00203 		and	r3, r3, #2
 487 000a 43F00103 		orr	r3, r3, #1
 488 000e DBB2     		uxtb	r3, r3
 489 0010 1370     		strb	r3, [r2]
 145:..\common\ud3core\tasks/tsk_fault.c **** }
 490              		.loc 1 145 0
 491 0012 18B1     		cbz	r0, .L65
 145:..\common\ud3core\tasks/tsk_fault.c **** }
 492              		.loc 1 145 0 is_stmt 0 discriminator 1
 493 0014 4FF4FA70 		mov	r0, #500
 494              	.LVL33:
 495 0018 FFF7FEBF 		b	CyDelayUs
 496              	.LVL34:
 497              	.L65:
 498 001c 7047     		bx	lr
 499              	.L68:
 500 001e 00BF     		.align	2
 501              	.L67:
 502 0020 00000000 		.word	.LANCHOR0
 503 0024 7E640040 		.word	1073767550
 504              		.cfi_endproc
 505              	.LFE76:
 506              		.size	sysflt_clr, .-sysflt_clr
 507              		.section	.text.handle_FAULT,"ax",%progbits
 508              		.align	1
 509              		.global	handle_FAULT
 510              		.thumb
 511              		.thumb_func
 512              		.type	handle_FAULT, %function
 513              	handle_FAULT:
 514              	.LFB77:
 148:..\common\ud3core\tasks/tsk_fault.c **** 	//UVLO feedback via system_fault (LED2)
 515              		.loc 1 148 0 is_stmt 1
 516              		.cfi_startproc
 517              		@ args = 0, pretend = 0, frame = 0
 518              		@ frame_needed = 0, uses_anonymous_args = 0
 519              	.LVL35:
 520 0000 08B5     		push	{r3, lr}
 521              		.cfi_def_cfa_offset 8
 522              		.cfi_offset 3, -8
 523              		.cfi_offset 14, -4
 524              	.LBB13:
 153:..\common\ud3core\tasks/tsk_fault.c ****     }
 525              		.loc 1 153 0
 526 0002 1248     		ldr	r0, .L77
 527              	.LBE13:
 148:..\common\ud3core\tasks/tsk_fault.c **** 	//UVLO feedback via system_fault (LED2)
 528              		.loc 1 148 0
 529 0004 0022     		movs	r2, #0
 150:..\common\ud3core\tasks/tsk_fault.c ****     
 530              		.loc 1 150 0
 531 0006 0121     		movs	r1, #1
 532              	.LVL36:
 533              	.L71:
 534              	.LBB14:
ARM GAS  C:\Users\chemi\AppData\Local\Temp\ccSW0GM3.s 			page 15


 153:..\common\ud3core\tasks/tsk_fault.c ****     }
 535              		.loc 1 153 0
 536 0008 135C     		ldrb	r3, [r2, r0]	@ zero_extendqisi2
 537 000a 0132     		adds	r2, r2, #1
 538              	.LVL37:
 539 000c 002B     		cmp	r3, #0
 540 000e 18BF     		it	ne
 541 0010 0021     		movne	r1, #0
 542              	.LVL38:
 152:..\common\ud3core\tasks/tsk_fault.c ****         if(((uint8_t*)&sysfault)[i]) flag = 0; //Sysfault is active low
 543              		.loc 1 152 0
 544 0012 0B2A     		cmp	r2, #11
 545 0014 F8D1     		bne	.L71
 546              	.LBE14:
 155:..\common\ud3core\tasks/tsk_fault.c ****     
 547              		.loc 1 155 0
 548 0016 0E4B     		ldr	r3, .L77+4
 549 0018 0E4A     		ldr	r2, .L77+8
 550 001a 1B68     		ldr	r3, [r3]
 551 001c 03F00203 		and	r3, r3, #2
 552 0020 0B43     		orrs	r3, r3, r1
 553 0022 DBB2     		uxtb	r3, r3
 554 0024 1370     		strb	r3, [r2]
 157:..\common\ud3core\tasks/tsk_fault.c ****         LED_sysfault_Write(LED_ON);
 555              		.loc 1 157 0
 556 0026 FFF7FEFF 		bl	tsk_fault_is_fault
 557              	.LVL39:
 558 002a 0B4B     		ldr	r3, .L77+12
 559 002c 28B1     		cbz	r0, .L72
 560              	.LBB15:
 561              	.LBB16:
 158:..\common\ud3core\tasks/tsk_fault.c ****     }else{
 562              		.loc 1 158 0
 563 002e 93F86600 		ldrb	r0, [r3, #102]	@ zero_extendqisi2
 564 0032 B0FA80F0 		clz	r0, r0
 565 0036 4009     		lsrs	r0, r0, #5
 566 0038 04E0     		b	.L76
 567              	.L72:
 568              	.LBE16:
 569              	.LBE15:
 160:..\common\ud3core\tasks/tsk_fault.c ****     }
 570              		.loc 1 160 0
 571 003a 93F86600 		ldrb	r0, [r3, #102]	@ zero_extendqisi2
 572 003e 0030     		adds	r0, r0, #0
 573 0040 18BF     		it	ne
 574 0042 0120     		movne	r0, #1
 575              	.L76:
 162:..\common\ud3core\tasks/tsk_fault.c **** 
 576              		.loc 1 162 0
 577 0044 BDE80840 		pop	{r3, lr}
 578              		.cfi_restore 14
 579              		.cfi_restore 3
 580              		.cfi_def_cfa_offset 0
 160:..\common\ud3core\tasks/tsk_fault.c ****     }
 581              		.loc 1 160 0
 582 0048 FFF7FEBF 		b	LED_sysfault_Write
 583              	.LVL40:
ARM GAS  C:\Users\chemi\AppData\Local\Temp\ccSW0GM3.s 			page 16


 584              	.L78:
 585              		.align	2
 586              	.L77:
 587 004c 00000000 		.word	sysfault
 588 0050 00000000 		.word	.LANCHOR0
 589 0054 7E640040 		.word	1073767550
 590 0058 00000000 		.word	configuration
 591              		.cfi_endproc
 592              	.LFE77:
 593              		.size	handle_FAULT, .-handle_FAULT
 594              		.section	.text.handle_no_fb,"ax",%progbits
 595              		.align	1
 596              		.global	handle_no_fb
 597              		.thumb
 598              		.thumb_func
 599              		.type	handle_no_fb, %function
 600              	handle_no_fb:
 601              	.LFB78:
 166:..\common\ud3core\tasks/tsk_fault.c ****     uint32_t time = ((uint32_t)fb_filter_out * 15625ul)/1000; //ns
 602              		.loc 1 166 0
 603              		.cfi_startproc
 604              		@ args = 0, pretend = 0, frame = 0
 605              		@ frame_needed = 0, uses_anonymous_args = 0
 606              	.LVL41:
 167:..\common\ud3core\tasks/tsk_fault.c ****     tt.n.fres.value = (5000000ul / time);
 607              		.loc 1 167 0
 608 0000 1D4B     		ldr	r3, .L87
 609              	.LVL42:
 166:..\common\ud3core\tasks/tsk_fault.c ****     uint32_t time = ((uint32_t)fb_filter_out * 15625ul)/1000; //ns
 610              		.loc 1 166 0
 611 0002 10B5     		push	{r4, lr}
 612              		.cfi_def_cfa_offset 8
 613              		.cfi_offset 4, -8
 614              		.cfi_offset 14, -4
 168:..\common\ud3core\tasks/tsk_fault.c ****     static uint8_t fb_error_timer=FB_ERROR_TIME;
 615              		.loc 1 168 0
 616 0004 1A88     		ldrh	r2, [r3]
 617 0006 43F60953 		movw	r3, #15625
 618              	.LVL43:
 619 000a 5343     		muls	r3, r2, r3
 620 000c 4FF47A72 		mov	r2, #1000
 621 0010 B3FBF2F3 		udiv	r3, r3, r2
 622              	.LVL44:
 623 0014 194A     		ldr	r2, .L87+4
 624 0016 B2FBF3F3 		udiv	r3, r2, r3
 625              	.LVL45:
 626 001a 194A     		ldr	r2, .L87+8
 627 001c C2F86031 		str	r3, [r2, #352]
 171:..\common\ud3core\tasks/tsk_fault.c ****         feedback_error_cnt++;
 628              		.loc 1 171 0
 629 0020 FFF7FEFF 		bl	no_fb_reg_Read
 630              	.LVL46:
 631 0024 174A     		ldr	r2, .L87+12
 632 0026 28B1     		cbz	r0, .L80
 172:..\common\ud3core\tasks/tsk_fault.c ****         fb_error_timer=FB_ERROR_TIME;
 633              		.loc 1 172 0
 634 0028 1749     		ldr	r1, .L87+16
ARM GAS  C:\Users\chemi\AppData\Local\Temp\ccSW0GM3.s 			page 17


 635 002a 4B68     		ldr	r3, [r1, #4]
 636 002c 0133     		adds	r3, r3, #1
 637 002e 4B60     		str	r3, [r1, #4]
 173:..\common\ud3core\tasks/tsk_fault.c ****     }else{
 638              		.loc 1 173 0
 639 0030 1423     		movs	r3, #20
 640 0032 04E0     		b	.L86
 641              	.L80:
 175:..\common\ud3core\tasks/tsk_fault.c ****         if(fb_error_timer==0){
 642              		.loc 1 175 0
 643 0034 1378     		ldrb	r3, [r2]	@ zero_extendqisi2
 644 0036 013B     		subs	r3, r3, #1
 176:..\common\ud3core\tasks/tsk_fault.c ****             fb_error_timer = 20;
 645              		.loc 1 176 0
 646 0038 13F0FF03 		ands	r3, r3, #255
 647 003c 01D0     		beq	.L82
 648              	.L86:
 175:..\common\ud3core\tasks/tsk_fault.c ****         if(fb_error_timer==0){
 649              		.loc 1 175 0
 650 003e 1370     		strb	r3, [r2]
 651 0040 03E0     		b	.L81
 652              	.L82:
 177:..\common\ud3core\tasks/tsk_fault.c ****             feedback_error_cnt = 0;
 653              		.loc 1 177 0
 654 0042 1421     		movs	r1, #20
 655 0044 1170     		strb	r1, [r2]
 178:..\common\ud3core\tasks/tsk_fault.c ****         }
 656              		.loc 1 178 0
 657 0046 104A     		ldr	r2, .L87+16
 658 0048 5360     		str	r3, [r2, #4]
 659              	.L81:
 182:..\common\ud3core\tasks/tsk_fault.c ****         if(feedback_error_cnt > configuration.max_fb_errors){
 660              		.loc 1 182 0
 661 004a 104B     		ldr	r3, .L87+20
 662 004c B3F85E30 		ldrh	r3, [r3, #94]
 663 0050 73B1     		cbz	r3, .L83
 183:..\common\ud3core\tasks/tsk_fault.c ****             if(sysfault.feedback==0){
 664              		.loc 1 183 0
 665 0052 0D4A     		ldr	r2, .L87+16
 666 0054 5268     		ldr	r2, [r2, #4]
 667 0056 9342     		cmp	r3, r2
 668 0058 0CD2     		bcs	.L79
 184:..\common\ud3core\tasks/tsk_fault.c ****                 alarm_push(ALM_PRIO_CRITICAL, "FAULT: No Feedback", feedback_error_cnt);
 669              		.loc 1 184 0
 670 005a 0D4B     		ldr	r3, .L87+24
 671 005c 997A     		ldrb	r1, [r3, #10]	@ zero_extendqisi2
 672 005e 1C46     		mov	r4, r3
 673 0060 19B9     		cbnz	r1, .L85
 185:..\common\ud3core\tasks/tsk_fault.c ****             }
 674              		.loc 1 185 0
 675 0062 0C49     		ldr	r1, .L87+28
 676 0064 0320     		movs	r0, #3
 677 0066 FFF7FEFF 		bl	alarm_push
 678              	.LVL47:
 679              	.L85:
 187:..\common\ud3core\tasks/tsk_fault.c ****         }
 680              		.loc 1 187 0
ARM GAS  C:\Users\chemi\AppData\Local\Temp\ccSW0GM3.s 			page 18


 681 006a 0123     		movs	r3, #1
 682 006c A372     		strb	r3, [r4, #10]
 683 006e 10BD     		pop	{r4, pc}
 684              	.L83:
 190:..\common\ud3core\tasks/tsk_fault.c ****     }
 685              		.loc 1 190 0
 686 0070 074A     		ldr	r2, .L87+24
 687 0072 9372     		strb	r3, [r2, #10]
 688              	.L79:
 689 0074 10BD     		pop	{r4, pc}
 690              	.L88:
 691 0076 00BF     		.align	2
 692              	.L87:
 693 0078 00000000 		.word	fb_filter_out
 694 007c 404B4C00 		.word	5000000
 695 0080 00000000 		.word	tt
 696 0084 00000000 		.word	.LANCHOR1
 697 0088 00000000 		.word	.LANCHOR0
 698 008c 00000000 		.word	configuration
 699 0090 00000000 		.word	sysfault
 700 0094 2C000000 		.word	.LC2
 701              		.cfi_endproc
 702              	.LFE78:
 703              		.size	handle_no_fb, .-handle_no_fb
 704              		.section	.text.tsk_fault_TaskProc,"ax",%progbits
 705              		.align	1
 706              		.global	tsk_fault_TaskProc
 707              		.thumb
 708              		.thumb_func
 709              		.type	tsk_fault_TaskProc, %function
 710              	tsk_fault_TaskProc:
 711              	.LFB80:
 208:..\common\ud3core\tasks/tsk_fault.c **** 
 209:..\common\ud3core\tasks/tsk_fault.c **** /* `#END` */
 210:..\common\ud3core\tasks/tsk_fault.c **** /* ------------------------------------------------------------------------ */
 211:..\common\ud3core\tasks/tsk_fault.c **** /*
 212:..\common\ud3core\tasks/tsk_fault.c ****  * This is the main procedure that comprises the task.  Place the code required
 213:..\common\ud3core\tasks/tsk_fault.c ****  * to preform the desired function within the merge regions of the task procedure
 214:..\common\ud3core\tasks/tsk_fault.c ****  * to add functionality to the task.
 215:..\common\ud3core\tasks/tsk_fault.c ****  */
 216:..\common\ud3core\tasks/tsk_fault.c **** void tsk_fault_TaskProc(void *pvParameters) {
 712              		.loc 1 216 0
 713              		.cfi_startproc
 714              		@ Volatile: function does not return.
 715              		@ args = 0, pretend = 0, frame = 0
 716              		@ frame_needed = 0, uses_anonymous_args = 0
 717              	.LVL48:
 718 0000 07B5     		push	{r0, r1, r2, lr}
 719              		.cfi_def_cfa_offset 16
 720              		.cfi_offset 14, -4
 217:..\common\ud3core\tasks/tsk_fault.c **** 	/*
 218:..\common\ud3core\tasks/tsk_fault.c **** 	 * Add and initialize local variables that are allocated on the Task stack
 219:..\common\ud3core\tasks/tsk_fault.c **** 	 * the the section below.
 220:..\common\ud3core\tasks/tsk_fault.c **** 	 */
 221:..\common\ud3core\tasks/tsk_fault.c **** 	/* `#START TASK_VARIABLES` */
 222:..\common\ud3core\tasks/tsk_fault.c **** 
 223:..\common\ud3core\tasks/tsk_fault.c **** 	/* `#END` */
ARM GAS  C:\Users\chemi\AppData\Local\Temp\ccSW0GM3.s 			page 19


 224:..\common\ud3core\tasks/tsk_fault.c **** 
 225:..\common\ud3core\tasks/tsk_fault.c **** 	/*
 226:..\common\ud3core\tasks/tsk_fault.c **** 	 * Add the task initialzation code in the below merge region to be included
 227:..\common\ud3core\tasks/tsk_fault.c **** 	 * in the task.
 228:..\common\ud3core\tasks/tsk_fault.c **** 	 */
 229:..\common\ud3core\tasks/tsk_fault.c **** 	/* `#START TASK_INIT_CODE` */
 230:..\common\ud3core\tasks/tsk_fault.c ****     
 231:..\common\ud3core\tasks/tsk_fault.c ****     xWD_Timer = xTimerCreate("WD-Tmr", configuration.watchdog_timeout / portTICK_PERIOD_MS, pdFALSE
 721              		.loc 1 231 0
 722 0002 134B     		ldr	r3, .L91
 723 0004 134C     		ldr	r4, .L91+4
 724 0006 0093     		str	r3, [sp]
 725 0008 0023     		movs	r3, #0
 726 000a 1A46     		mov	r2, r3
 727 000c 6188     		ldrh	r1, [r4, #2]
 728 000e 1248     		ldr	r0, .L91+8
 729              	.LVL49:
 730 0010 FFF7FEFF 		bl	xTimerCreate
 731              	.LVL50:
 732 0014 114B     		ldr	r3, .L91+12
 733 0016 1860     		str	r0, [r3]
 232:..\common\ud3core\tasks/tsk_fault.c ****     
 233:..\common\ud3core\tasks/tsk_fault.c ****     WD_enable(configuration.watchdog);
 734              		.loc 1 233 0
 735 0018 2078     		ldrb	r0, [r4]	@ zero_extendqisi2
 736 001a FFF7FEFF 		bl	WD_enable
 737              	.LVL51:
 234:..\common\ud3core\tasks/tsk_fault.c ****     reset_fault();
 738              		.loc 1 234 0
 739 001e FFF7FEFF 		bl	reset_fault
 740              	.LVL52:
 235:..\common\ud3core\tasks/tsk_fault.c ****     alarm_push(ALM_PRIO_INFO, "TASK: Fault started", ALM_NO_VALUE);
 741              		.loc 1 235 0
 742 0022 4FF00042 		mov	r2, #-2147483648
 743 0026 0E49     		ldr	r1, .L91+16
 744 0028 0020     		movs	r0, #0
 745 002a FFF7FEFF 		bl	alarm_push
 746              	.LVL53:
 747              	.L90:
 236:..\common\ud3core\tasks/tsk_fault.c **** 	/* `#END` */
 237:..\common\ud3core\tasks/tsk_fault.c **** 	for (;;) {
 238:..\common\ud3core\tasks/tsk_fault.c **** 		/* `#START TASK_LOOP_CODE` */
 239:..\common\ud3core\tasks/tsk_fault.c **** 		handle_UVLO();
 748              		.loc 1 239 0 discriminator 1
 749 002e FFF7FEFF 		bl	handle_UVLO
 750              	.LVL54:
 240:..\common\ud3core\tasks/tsk_fault.c ****         handle_FAULT();
 751              		.loc 1 240 0 discriminator 1
 752 0032 FFF7FEFF 		bl	handle_FAULT
 753              	.LVL55:
 241:..\common\ud3core\tasks/tsk_fault.c ****         LED_com_Write(LED_OFF);
 754              		.loc 1 241 0 discriminator 1
 755 0036 94F86600 		ldrb	r0, [r4, #102]	@ zero_extendqisi2
 756 003a 0030     		adds	r0, r0, #0
 757 003c 18BF     		it	ne
 758 003e 0120     		movne	r0, #1
 759 0040 FFF7FEFF 		bl	LED_com_Write
ARM GAS  C:\Users\chemi\AppData\Local\Temp\ccSW0GM3.s 			page 20


 760              	.LVL56:
 242:..\common\ud3core\tasks/tsk_fault.c ****         handle_no_fb();
 761              		.loc 1 242 0 discriminator 1
 762 0044 FFF7FEFF 		bl	handle_no_fb
 763              	.LVL57:
 243:..\common\ud3core\tasks/tsk_fault.c **** 		/* `#END` */
 244:..\common\ud3core\tasks/tsk_fault.c **** 		vTaskDelay(FAULT_LOOP_SPEED_MS / portTICK_PERIOD_MS);
 764              		.loc 1 244 0 discriminator 1
 765 0048 3220     		movs	r0, #50
 766 004a FFF7FEFF 		bl	vTaskDelay
 767              	.LVL58:
 768 004e EEE7     		b	.L90
 769              	.L92:
 770              		.align	2
 771              	.L91:
 772 0050 00000000 		.word	vWD_Timer_Callback
 773 0054 00000000 		.word	configuration
 774 0058 3F000000 		.word	.LC3
 775 005c 00000000 		.word	xWD_Timer
 776 0060 46000000 		.word	.LC4
 777              		.cfi_endproc
 778              	.LFE80:
 779              		.size	tsk_fault_TaskProc, .-tsk_fault_TaskProc
 780              		.section	.text.tsk_fault_Start,"ax",%progbits
 781              		.align	1
 782              		.global	tsk_fault_Start
 783              		.thumb
 784              		.thumb_func
 785              		.type	tsk_fault_Start, %function
 786              	tsk_fault_Start:
 787              	.LFB81:
 245:..\common\ud3core\tasks/tsk_fault.c **** 	}
 246:..\common\ud3core\tasks/tsk_fault.c **** }
 247:..\common\ud3core\tasks/tsk_fault.c **** /* ------------------------------------------------------------------------ */
 248:..\common\ud3core\tasks/tsk_fault.c **** void tsk_fault_Start(void) {
 788              		.loc 1 248 0
 789              		.cfi_startproc
 790              		@ args = 0, pretend = 0, frame = 0
 791              		@ frame_needed = 0, uses_anonymous_args = 0
 792 0000 13B5     		push	{r0, r1, r4, lr}
 793              		.cfi_def_cfa_offset 16
 794              		.cfi_offset 4, -8
 795              		.cfi_offset 14, -4
 249:..\common\ud3core\tasks/tsk_fault.c **** 	/*
 250:..\common\ud3core\tasks/tsk_fault.c **** 	 * Insert task global memeory initialization here. Since the OS does not
 251:..\common\ud3core\tasks/tsk_fault.c **** 	 * initialize ANY global memory, execute the initialization here to make
 252:..\common\ud3core\tasks/tsk_fault.c **** 	 * sure that your task data is properly 
 253:..\common\ud3core\tasks/tsk_fault.c **** 	 */
 254:..\common\ud3core\tasks/tsk_fault.c **** 	/* `#START TASK_GLOBAL_INIT` */
 255:..\common\ud3core\tasks/tsk_fault.c ****     
 256:..\common\ud3core\tasks/tsk_fault.c ****     
 257:..\common\ud3core\tasks/tsk_fault.c **** 
 258:..\common\ud3core\tasks/tsk_fault.c **** 	/* `#END` */
 259:..\common\ud3core\tasks/tsk_fault.c **** 
 260:..\common\ud3core\tasks/tsk_fault.c **** 	if (tsk_fault_initVar != 1) {
 796              		.loc 1 260 0
 797 0002 094C     		ldr	r4, .L98
ARM GAS  C:\Users\chemi\AppData\Local\Temp\ccSW0GM3.s 			page 21


 798 0004 237A     		ldrb	r3, [r4, #8]	@ zero_extendqisi2
 799 0006 012B     		cmp	r3, #1
 800 0008 0BD0     		beq	.L93
 261:..\common\ud3core\tasks/tsk_fault.c **** 
 262:..\common\ud3core\tasks/tsk_fault.c **** 		/*
 263:..\common\ud3core\tasks/tsk_fault.c **** 	 	* Create the task and then leave. When FreeRTOS starts up the scheduler
 264:..\common\ud3core\tasks/tsk_fault.c **** 	 	* will call the task procedure and start execution of the task.
 265:..\common\ud3core\tasks/tsk_fault.c **** 	 	*/
 266:..\common\ud3core\tasks/tsk_fault.c **** 		xTaskCreate(tsk_fault_TaskProc, "Fault-Svc", STACK_FAULT, NULL, PRIO_FAULT, &tsk_fault_TaskHandle
 801              		.loc 1 266 0
 802 000a 084B     		ldr	r3, .L98+4
 803 000c 6422     		movs	r2, #100
 804 000e 0193     		str	r3, [sp, #4]
 805 0010 0423     		movs	r3, #4
 806 0012 0093     		str	r3, [sp]
 807 0014 0649     		ldr	r1, .L98+8
 808 0016 0023     		movs	r3, #0
 809 0018 0648     		ldr	r0, .L98+12
 810 001a FFF7FEFF 		bl	xTaskCreate
 811              	.LVL59:
 267:..\common\ud3core\tasks/tsk_fault.c **** 		tsk_fault_initVar = 1;
 812              		.loc 1 267 0
 813 001e 0123     		movs	r3, #1
 814 0020 2372     		strb	r3, [r4, #8]
 815              	.L93:
 268:..\common\ud3core\tasks/tsk_fault.c **** 	}
 269:..\common\ud3core\tasks/tsk_fault.c **** }
 816              		.loc 1 269 0
 817 0022 02B0     		add	sp, sp, #8
 818              		.cfi_def_cfa_offset 8
 819              		@ sp needed
 820 0024 10BD     		pop	{r4, pc}
 821              	.L99:
 822 0026 00BF     		.align	2
 823              	.L98:
 824 0028 00000000 		.word	.LANCHOR0
 825 002c 00000000 		.word	tsk_fault_TaskHandle
 826 0030 5A000000 		.word	.LC5
 827 0034 00000000 		.word	tsk_fault_TaskProc
 828              		.cfi_endproc
 829              	.LFE81:
 830              		.size	tsk_fault_Start, .-tsk_fault_Start
 831              		.global	feedback_error_cnt
 832              		.global	switch_without_fb
 833              		.comm	sysfault,11,1
 834              		.comm	xWD_Timer,4,4
 835              		.comm	bus_command,1,1
 836              		.comm	interrupter,12,4
 837              		.global	tsk_fault_initVar
 838              		.comm	tsk_fault_TaskHandle,4,4
 839              		.comm	ct1_dac_val,3,1
 840              		.comm	params,26,2
 841              		.section	.rodata.str1.1,"aMS",%progbits,1
 842              	.LC0:
 843 0000 57443A20 		.ascii	"WD: Watchdog triggered\000"
 843      57617463 
 843      68646F67 
ARM GAS  C:\Users\chemi\AppData\Local\Temp\ccSW0GM3.s 			page 22


 843      20747269 
 843      67676572 
 844              	.LC1:
 845 0017 44524956 		.ascii	"DRIVER: Undervoltage\000"
 845      45523A20 
 845      556E6465 
 845      72766F6C 
 845      74616765 
 846              	.LC2:
 847 002c 4641554C 		.ascii	"FAULT: No Feedback\000"
 847      543A204E 
 847      6F204665 
 847      65646261 
 847      636B00
 848              	.LC3:
 849 003f 57442D54 		.ascii	"WD-Tmr\000"
 849      6D7200
 850              	.LC4:
 851 0046 5441534B 		.ascii	"TASK: Fault started\000"
 851      3A204661 
 851      756C7420 
 851      73746172 
 851      74656400 
 852              	.LC5:
 853 005a 4661756C 		.ascii	"Fault-Svc\000"
 853      742D5376 
 853      6300
 854              		.data
 855              		.set	.LANCHOR1,. + 0
 856              		.type	fb_error_timer.9853, %object
 857              		.size	fb_error_timer.9853, 1
 858              	fb_error_timer.9853:
 859 0000 14       		.byte	20
 860              		.bss
 861              		.align	2
 862              		.set	.LANCHOR0,. + 0
 863              		.type	switch_without_fb, %object
 864              		.size	switch_without_fb, 4
 865              	switch_without_fb:
 866 0000 00000000 		.space	4
 867              		.type	feedback_error_cnt, %object
 868              		.size	feedback_error_cnt, 4
 869              	feedback_error_cnt:
 870 0004 00000000 		.space	4
 871              		.type	tsk_fault_initVar, %object
 872              		.size	tsk_fault_initVar, 1
 873              	tsk_fault_initVar:
 874 0008 00       		.space	1
 875              		.text
 876              	.Letext0:
 877              		.file 2 "c:\\program files (x86)\\cypress\\psoc creator\\4.4\\psoc creator\\import\\gnu\\arm\\5.4.
 878              		.file 3 "c:\\program files (x86)\\cypress\\psoc creator\\4.4\\psoc creator\\import\\gnu\\arm\\5.4.
 879              		.file 4 "Generated_Source\\PSoC5/cytypes.h"
 880              		.file 5 "..\\common\\ud3core\\tasks\\tsk_fault.h"
 881              		.file 6 "..\\common\\rtos\\portable\\GCC\\ARM_CM3/portmacro.h"
 882              		.file 7 "..\\common\\rtos\\include/task.h"
 883              		.file 8 "..\\common\\ud3core/ZCDtoPWM.h"
ARM GAS  C:\Users\chemi\AppData\Local\Temp\ccSW0GM3.s 			page 23


 884              		.file 9 "..\\common\\rtos\\include/timers.h"
 885              		.file 10 "..\\common\\ud3core/cli_common.h"
 886              		.file 11 "..\\common\\ud3core/interrupter.h"
 887              		.file 12 "..\\common\\ud3core/telemetry.h"
 888              		.file 13 "Generated_Source\\PSoC5/core_cm3.h"
 889              		.file 14 "..\\common\\ud3core\\tasks\\tsk_analog.h"
 890              		.file 15 "..\\common\\ud3core/alarmevent.h"
 891              		.file 16 "..\\common\\ud3core\\tasks\\tsk_midi.h"
 892              		.file 17 "Generated_Source\\PSoC5/UVLO.h"
 893              		.file 18 "Generated_Source\\PSoC5/CyLib.h"
 894              		.file 19 "Generated_Source\\PSoC5/LED_sysfault.h"
 895              		.file 20 "Generated_Source\\PSoC5/no_fb_reg.h"
 896              		.file 21 "Generated_Source\\PSoC5/LED_com.h"