ARM GAS  C:\Users\chemi\AppData\Local\Temp\ccN9mSKQ.s 			page 1


   1              		.syntax unified
   2              		.cpu cortex-m3
   3              		.fpu softvfp
   4              		.eabi_attribute 20, 1
   5              		.eabi_attribute 21, 1
   6              		.eabi_attribute 23, 3
   7              		.eabi_attribute 24, 1
   8              		.eabi_attribute 25, 1
   9              		.eabi_attribute 26, 1
  10              		.eabi_attribute 30, 4
  11              		.eabi_attribute 34, 1
  12              		.eabi_attribute 18, 4
  13              		.thumb
  14              		.syntax unified
  15              		.file	"tsk_usb.c"
  16              		.text
  17              	.Ltext0:
  18              		.cfi_sections	.debug_frame
  19              		.section	.text.tsk_usb_Task,"ax",%progbits
  20              		.align	1
  21              		.global	tsk_usb_Task
  22              		.thumb
  23              		.thumb_func
  24              		.type	tsk_usb_Task, %function
  25              	tsk_usb_Task:
  26              	.LFB72:
  27              		.file 1 "..\\common\\ud3core\\tasks\\tsk_usb.c"
   1:..\common\ud3core\tasks/tsk_usb.c **** /* ======================================================================== */
   2:..\common\ud3core\tasks/tsk_usb.c **** /*
   3:..\common\ud3core\tasks/tsk_usb.c ****  * Copyright (c) 2015, E2ForLife.com
   4:..\common\ud3core\tasks/tsk_usb.c ****  * All rights reserved.
   5:..\common\ud3core\tasks/tsk_usb.c ****  * 
   6:..\common\ud3core\tasks/tsk_usb.c ****  * Redistribution and use in source and binary forms, with or without
   7:..\common\ud3core\tasks/tsk_usb.c ****  * modification, are permitted provided that the following conditions are met:
   8:..\common\ud3core\tasks/tsk_usb.c ****  *     * Redistributions of source code must retain the above copyright
   9:..\common\ud3core\tasks/tsk_usb.c ****  *       notice, this list of conditions and the following disclaimer.
  10:..\common\ud3core\tasks/tsk_usb.c ****  *     * Redistributions in binary form must reproduce the above copyright
  11:..\common\ud3core\tasks/tsk_usb.c ****  *       notice, this list of conditions and the following disclaimer in the
  12:..\common\ud3core\tasks/tsk_usb.c ****  *       documentation and/or other materials provided with the distribution.
  13:..\common\ud3core\tasks/tsk_usb.c ****  *     * Neither the name of the E2ForLife.com nor the
  14:..\common\ud3core\tasks/tsk_usb.c ****  *       names of its contributors may be used to endorse or promote products
  15:..\common\ud3core\tasks/tsk_usb.c ****  *       derived from this software without specific prior written permission.
  16:..\common\ud3core\tasks/tsk_usb.c ****  * 
  17:..\common\ud3core\tasks/tsk_usb.c ****  * THIS SOFTWARE IS PROVIDED BY THE COPYRIGHT HOLDERS AND CONTRIBUTORS "AS IS" AND
  18:..\common\ud3core\tasks/tsk_usb.c ****  * ANY EXPRESS OR IMPLIED WARRANTIES, INCLUDING, BUT NOT LIMITED TO, THE IMPLIED
  19:..\common\ud3core\tasks/tsk_usb.c ****  * WARRANTIES OF MERCHANTABILITY AND FITNESS FOR A PARTICULAR PURPOSE ARE
  20:..\common\ud3core\tasks/tsk_usb.c ****  * DISCLAIMED. IN NO EVENT SHALL E2FORLIFE.COM BE LIABLE FOR ANY
  21:..\common\ud3core\tasks/tsk_usb.c ****  * DIRECT, INDIRECT, INCIDENTAL, SPECIAL, EXEMPLARY, OR CONSEQUENTIAL DAMAGES
  22:..\common\ud3core\tasks/tsk_usb.c ****  * (INCLUDING, BUT NOT LIMITED TO, PROCUREMENT OF SUBSTITUTE GOODS OR SERVICES;
  23:..\common\ud3core\tasks/tsk_usb.c ****  * LOSS OF USE, DATA, OR PROFITS; OR BUSINESS INTERRUPTION) HOWEVER CAUSED AND
  24:..\common\ud3core\tasks/tsk_usb.c ****  * ON ANY THEORY OF LIABILITY, WHETHER IN CONTRACT, STRICT LIABILITY, OR TORT
  25:..\common\ud3core\tasks/tsk_usb.c ****  * (INCLUDING NEGLIGENCE OR OTHERWISE) ARISING IN ANY WAY OUT OF THE USE OF THIS
  26:..\common\ud3core\tasks/tsk_usb.c ****  * SOFTWARE, EVEN IF ADVISED OF THE POSSIBILITY OF SUCH DAMAGE.
  27:..\common\ud3core\tasks/tsk_usb.c ****  */
  28:..\common\ud3core\tasks/tsk_usb.c **** /* ======================================================================== */
  29:..\common\ud3core\tasks/tsk_usb.c **** #include <CyLib.h>
  30:..\common\ud3core\tasks/tsk_usb.c **** #include <cytypes.h>
ARM GAS  C:\Users\chemi\AppData\Local\Temp\ccN9mSKQ.s 			page 2


  31:..\common\ud3core\tasks/tsk_usb.c **** #include <stdio.h>
  32:..\common\ud3core\tasks/tsk_usb.c **** 
  33:..\common\ud3core\tasks/tsk_usb.c **** #include "USBUART_1.h"
  34:..\common\ud3core\tasks/tsk_usb.c **** #include "USBUART_1_cdc.h"
  35:..\common\ud3core\tasks/tsk_usb.c **** #include "tsk_priority.h"
  36:..\common\ud3core\tasks/tsk_usb.c **** #include "tsk_usb.h"
  37:..\common\ud3core\tasks/tsk_usb.c **** #include "tsk_fault.h"
  38:..\common\ud3core\tasks/tsk_usb.c **** #include "alarmevent.h"
  39:..\common\ud3core\tasks/tsk_usb.c **** 
  40:..\common\ud3core\tasks/tsk_usb.c **** 
  41:..\common\ud3core\tasks/tsk_usb.c **** /* ======================================================================== */
  42:..\common\ud3core\tasks/tsk_usb.c **** 
  43:..\common\ud3core\tasks/tsk_usb.c **** #include "cli_common.h"
  44:..\common\ud3core\tasks/tsk_usb.c **** #include "interrupter.h"
  45:..\common\ud3core\tasks/tsk_usb.c **** #include "tsk_midi.h"
  46:..\common\ud3core\tasks/tsk_usb.c **** #include "tsk_cli.h"
  47:..\common\ud3core\tasks/tsk_usb.c **** uint8 tsk_usb_initVar;
  48:..\common\ud3core\tasks/tsk_usb.c **** xTaskHandle tsk_usb_TaskHandle;
  49:..\common\ud3core\tasks/tsk_usb.c **** 
  50:..\common\ud3core\tasks/tsk_usb.c **** uint32_t usb_bytes_rx=0;
  51:..\common\ud3core\tasks/tsk_usb.c **** uint32_t usb_bytes_tx=0;
  52:..\common\ud3core\tasks/tsk_usb.c **** 
  53:..\common\ud3core\tasks/tsk_usb.c **** 
  54:..\common\ud3core\tasks/tsk_usb.c **** /* ======================================================================== */
  55:..\common\ud3core\tasks/tsk_usb.c **** void tsk_usb_Start(void) {
  56:..\common\ud3core\tasks/tsk_usb.c **** 	if (tsk_usb_initVar != 1) {
  57:..\common\ud3core\tasks/tsk_usb.c **** 		tsk_usb_Init();
  58:..\common\ud3core\tasks/tsk_usb.c **** 	}
  59:..\common\ud3core\tasks/tsk_usb.c **** 
  60:..\common\ud3core\tasks/tsk_usb.c **** 	/* Check for enumeration after initialization */
  61:..\common\ud3core\tasks/tsk_usb.c **** 	tsk_usb_Enable();
  62:..\common\ud3core\tasks/tsk_usb.c **** }
  63:..\common\ud3core\tasks/tsk_usb.c **** /* ------------------------------------------------------------------------ */
  64:..\common\ud3core\tasks/tsk_usb.c **** void tsk_usb_Init(void) {
  65:..\common\ud3core\tasks/tsk_usb.c **** 	/*  Initialize the USB COM port */
  66:..\common\ud3core\tasks/tsk_usb.c **** 
  67:..\common\ud3core\tasks/tsk_usb.c **** 	if (USBUART_1_initVar == 0) {
  68:..\common\ud3core\tasks/tsk_usb.c **** /* Start USBFS Operation with 3V operation */
  69:..\common\ud3core\tasks/tsk_usb.c **** #if (CYDEV_VDDIO1_MV < 5000)
  70:..\common\ud3core\tasks/tsk_usb.c **** 		USBUART_1_Start(0u, USBUART_1_3V_OPERATION);
  71:..\common\ud3core\tasks/tsk_usb.c **** #else
  72:..\common\ud3core\tasks/tsk_usb.c **** 		USBUART_1_Start(0u, USBUART_1_5V_OPERATION);
  73:..\common\ud3core\tasks/tsk_usb.c **** #endif
  74:..\common\ud3core\tasks/tsk_usb.c **** 	}
  75:..\common\ud3core\tasks/tsk_usb.c **** 
  76:..\common\ud3core\tasks/tsk_usb.c **** 	xTaskCreate(tsk_usb_Task, "USB-Svc", STACK_USB, NULL, PRIO_USB, &tsk_usb_TaskHandle);
  77:..\common\ud3core\tasks/tsk_usb.c **** 
  78:..\common\ud3core\tasks/tsk_usb.c **** 	tsk_usb_initVar = 1;
  79:..\common\ud3core\tasks/tsk_usb.c **** }
  80:..\common\ud3core\tasks/tsk_usb.c **** /* ------------------------------------------------------------------------ */
  81:..\common\ud3core\tasks/tsk_usb.c **** void tsk_usb_Enable(void) {
  82:..\common\ud3core\tasks/tsk_usb.c **** 	if (tsk_usb_initVar != 0) {
  83:..\common\ud3core\tasks/tsk_usb.c **** 		/*
  84:..\common\ud3core\tasks/tsk_usb.c **** 		 * COMIO was initialized, and now is bing enabled for use.
  85:..\common\ud3core\tasks/tsk_usb.c **** 		 * Enter user extension enables within the merge region below.
  86:..\common\ud3core\tasks/tsk_usb.c **** 		 */
  87:..\common\ud3core\tasks/tsk_usb.c **** 		/* `#START COMIO_ENABLE` */
ARM GAS  C:\Users\chemi\AppData\Local\Temp\ccN9mSKQ.s 			page 3


  88:..\common\ud3core\tasks/tsk_usb.c **** 
  89:..\common\ud3core\tasks/tsk_usb.c **** 		/* `#END` */
  90:..\common\ud3core\tasks/tsk_usb.c **** 	}
  91:..\common\ud3core\tasks/tsk_usb.c **** }
  92:..\common\ud3core\tasks/tsk_usb.c **** /* ======================================================================== */
  93:..\common\ud3core\tasks/tsk_usb.c **** void tsk_usb_Task(void *pvParameters) {
  28              		.loc 1 93 0
  29              		.cfi_startproc
  30              		@ args = 0, pretend = 0, frame = 64
  31              		@ frame_needed = 0, uses_anonymous_args = 0
  32              	.LVL0:
  33 0000 F0B5     		push	{r4, r5, r6, r7, lr}
  34              		.cfi_def_cfa_offset 20
  35              		.cfi_offset 4, -20
  36              		.cfi_offset 5, -16
  37              		.cfi_offset 6, -12
  38              		.cfi_offset 7, -8
  39              		.cfi_offset 14, -4
  94:..\common\ud3core\tasks/tsk_usb.c **** 	uint16 count;
  95:..\common\ud3core\tasks/tsk_usb.c **** 	uint8 buffer[tsk_usb_BUFFER_LEN];
  96:..\common\ud3core\tasks/tsk_usb.c ****     alarm_push(ALM_PRIO_INFO, "TASK: USB started", ALM_NO_VALUE);
  40              		.loc 1 96 0
  41 0002 4FF00042 		mov	r2, #-2147483648
  93:..\common\ud3core\tasks/tsk_usb.c **** 	uint16 count;
  42              		.loc 1 93 0
  43 0006 91B0     		sub	sp, sp, #68
  44              		.cfi_def_cfa_offset 88
  45              		.loc 1 96 0
  46 0008 3349     		ldr	r1, .L38
  47 000a 0020     		movs	r0, #0
  48              	.LVL1:
  49 000c FFF7FEFF 		bl	alarm_push
  50              	.LVL2:
  51 0010 324C     		ldr	r4, .L38+4
  97:..\common\ud3core\tasks/tsk_usb.c **** 	for (;;) {
  98:..\common\ud3core\tasks/tsk_usb.c **** 		/* Handle enumeration of USB port */
  99:..\common\ud3core\tasks/tsk_usb.c **** 		if (USBUART_1_IsConfigurationChanged() != 0u) /* Host could send double SET_INTERFACE request */
 100:..\common\ud3core\tasks/tsk_usb.c **** 		{
 101:..\common\ud3core\tasks/tsk_usb.c **** 			if (USBUART_1_GetConfiguration() != 0u) /* Init IN endpoints when device configured */
 102:..\common\ud3core\tasks/tsk_usb.c **** 			{
 103:..\common\ud3core\tasks/tsk_usb.c **** 				/* Enumeration is done, enable OUT endpoint for receive data from Host */
 104:..\common\ud3core\tasks/tsk_usb.c **** 				USBUART_1_CDC_Init();
 105:..\common\ud3core\tasks/tsk_usb.c **** 			}
 106:..\common\ud3core\tasks/tsk_usb.c **** 		}
 107:..\common\ud3core\tasks/tsk_usb.c **** 		/*
 108:..\common\ud3core\tasks/tsk_usb.c **** 		 *
 109:..\common\ud3core\tasks/tsk_usb.c **** 		 */
 110:..\common\ud3core\tasks/tsk_usb.c **** 		if (USBUART_1_GetConfiguration() != 0u) {
 111:..\common\ud3core\tasks/tsk_usb.c **** /*
 112:..\common\ud3core\tasks/tsk_usb.c **** 			 * Process received data from the USB, and store it in to the
 113:..\common\ud3core\tasks/tsk_usb.c **** 			 * receiver message Q.
 114:..\common\ud3core\tasks/tsk_usb.c **** 			 */
 115:..\common\ud3core\tasks/tsk_usb.c **** 
 116:..\common\ud3core\tasks/tsk_usb.c **** 			if (USBUART_1_DataIsReady() != 0u) {
 117:..\common\ud3core\tasks/tsk_usb.c **** 				count = USBUART_1_GetAll(buffer);
 118:..\common\ud3core\tasks/tsk_usb.c **** 				if (count != 0u) {
 119:..\common\ud3core\tasks/tsk_usb.c **** 					/* insert data in to Receive FIFO */
ARM GAS  C:\Users\chemi\AppData\Local\Temp\ccN9mSKQ.s 			page 4


 120:..\common\ud3core\tasks/tsk_usb.c ****                     LED_com_Write(LED_ON);
 121:..\common\ud3core\tasks/tsk_usb.c ****                     usb_bytes_rx+=count;
 122:..\common\ud3core\tasks/tsk_usb.c ****                     xStreamBufferSend(usb_port.rx, &buffer,count, 0);
 123:..\common\ud3core\tasks/tsk_usb.c **** 				}
 124:..\common\ud3core\tasks/tsk_usb.c **** 			}
 125:..\common\ud3core\tasks/tsk_usb.c **** 			/*
 126:..\common\ud3core\tasks/tsk_usb.c **** 			 * Send a block of data ack through the USB port to the PC,
 127:..\common\ud3core\tasks/tsk_usb.c **** 			 * by checkig to see if there is data to send, then sending
 128:..\common\ud3core\tasks/tsk_usb.c **** 			 * up to the BUFFER_LEN of data (64 bytes)
 129:..\common\ud3core\tasks/tsk_usb.c **** 			 */
 130:..\common\ud3core\tasks/tsk_usb.c ****             
 131:..\common\ud3core\tasks/tsk_usb.c ****             count = xStreamBufferBytesAvailable(usb_port.tx);
 132:..\common\ud3core\tasks/tsk_usb.c **** 
 133:..\common\ud3core\tasks/tsk_usb.c **** 			/* When component is ready to send more data to the PC */
 134:..\common\ud3core\tasks/tsk_usb.c **** 			if ((USBUART_1_CDCIsReady() != 0u) && (count > 0)) {
 135:..\common\ud3core\tasks/tsk_usb.c **** 				/*
 136:..\common\ud3core\tasks/tsk_usb.c **** 				 * Read the data from the transmit queue and buffer it
 137:..\common\ud3core\tasks/tsk_usb.c **** 				 * locally so that the data can be utilized.
 138:..\common\ud3core\tasks/tsk_usb.c **** 				 */
 139:..\common\ud3core\tasks/tsk_usb.c ****                 count = xStreamBufferReceive(usb_port.tx,&buffer,tsk_usb_BUFFER_LEN,0);
 140:..\common\ud3core\tasks/tsk_usb.c **** 				/* Send data back to host */
 141:..\common\ud3core\tasks/tsk_usb.c ****                 LED_com_Write(LED_ON);
  52              		.loc 1 141 0
  53 0012 334F     		ldr	r7, .L38+8
 142:..\common\ud3core\tasks/tsk_usb.c ****                 usb_bytes_tx+=count;
  54              		.loc 1 142 0
  55 0014 334D     		ldr	r5, .L38+12
  56              	.L2:
  99:..\common\ud3core\tasks/tsk_usb.c **** 		{
  57              		.loc 1 99 0
  58 0016 FFF7FEFF 		bl	USBUART_1_IsConfigurationChanged
  59              	.LVL3:
  60 001a 20B1     		cbz	r0, .L4
 101:..\common\ud3core\tasks/tsk_usb.c **** 			{
  61              		.loc 1 101 0
  62 001c FFF7FEFF 		bl	USBUART_1_GetConfiguration
  63              	.LVL4:
  64 0020 08B1     		cbz	r0, .L4
 104:..\common\ud3core\tasks/tsk_usb.c **** 			}
  65              		.loc 1 104 0
  66 0022 FFF7FEFF 		bl	USBUART_1_CDC_Init
  67              	.LVL5:
  68              	.L4:
 110:..\common\ud3core\tasks/tsk_usb.c **** /*
  69              		.loc 1 110 0
  70 0026 FFF7FEFF 		bl	USBUART_1_GetConfiguration
  71              	.LVL6:
  72 002a 0028     		cmp	r0, #0
  73 002c 42D0     		beq	.L7
 116:..\common\ud3core\tasks/tsk_usb.c **** 				count = USBUART_1_GetAll(buffer);
  74              		.loc 1 116 0
  75 002e FFF7FEFF 		bl	USBUART_1_DataIsReady
  76              	.LVL7:
  77 0032 A0B1     		cbz	r0, .L9
 117:..\common\ud3core\tasks/tsk_usb.c **** 				if (count != 0u) {
  78              		.loc 1 117 0
  79 0034 6846     		mov	r0, sp
ARM GAS  C:\Users\chemi\AppData\Local\Temp\ccN9mSKQ.s 			page 5


  80 0036 FFF7FEFF 		bl	USBUART_1_GetAll
  81              	.LVL8:
 118:..\common\ud3core\tasks/tsk_usb.c **** 					/* insert data in to Receive FIFO */
  82              		.loc 1 118 0
  83 003a 0646     		mov	r6, r0
  84 003c 78B1     		cbz	r0, .L9
 120:..\common\ud3core\tasks/tsk_usb.c ****                     usb_bytes_rx+=count;
  85              		.loc 1 120 0
  86 003e 97F86600 		ldrb	r0, [r7, #102]	@ zero_extendqisi2
  87              	.LVL9:
  88 0042 B0FA80F0 		clz	r0, r0
  89 0046 4009     		lsrs	r0, r0, #5
  90 0048 FFF7FEFF 		bl	LED_com_Write
  91              	.LVL10:
 121:..\common\ud3core\tasks/tsk_usb.c ****                     xStreamBufferSend(usb_port.rx, &buffer,count, 0);
  92              		.loc 1 121 0
  93 004c 2B68     		ldr	r3, [r5]
 122:..\common\ud3core\tasks/tsk_usb.c **** 				}
  94              		.loc 1 122 0
  95 004e 3246     		mov	r2, r6
 121:..\common\ud3core\tasks/tsk_usb.c ****                     xStreamBufferSend(usb_port.rx, &buffer,count, 0);
  96              		.loc 1 121 0
  97 0050 3344     		add	r3, r3, r6
  98 0052 2B60     		str	r3, [r5]
 122:..\common\ud3core\tasks/tsk_usb.c **** 				}
  99              		.loc 1 122 0
 100 0054 6946     		mov	r1, sp
 101 0056 0023     		movs	r3, #0
 102 0058 A068     		ldr	r0, [r4, #8]
 103 005a FFF7FEFF 		bl	xStreamBufferSend
 104              	.LVL11:
 105              	.L9:
 131:..\common\ud3core\tasks/tsk_usb.c **** 
 106              		.loc 1 131 0
 107 005e 6068     		ldr	r0, [r4, #4]
 108 0060 FFF7FEFF 		bl	xStreamBufferBytesAvailable
 109              	.LVL12:
 110 0064 0646     		mov	r6, r0
 111              	.LVL13:
 134:..\common\ud3core\tasks/tsk_usb.c **** 				/*
 112              		.loc 1 134 0
 113 0066 FFF7FEFF 		bl	USBUART_1_CDCIsReady
 114              	.LVL14:
 115 006a 18B3     		cbz	r0, .L7
 134:..\common\ud3core\tasks/tsk_usb.c **** 				/*
 116              		.loc 1 134 0 is_stmt 0 discriminator 1
 117 006c B6B2     		uxth	r6, r6
 118 006e 0EB3     		cbz	r6, .L7
 139:..\common\ud3core\tasks/tsk_usb.c **** 				/* Send data back to host */
 119              		.loc 1 139 0 is_stmt 1
 120 0070 0023     		movs	r3, #0
 121 0072 4022     		movs	r2, #64
 122 0074 6946     		mov	r1, sp
 123 0076 6068     		ldr	r0, [r4, #4]
 124 0078 FFF7FEFF 		bl	xStreamBufferReceive
 125              	.LVL15:
 126 007c 86B2     		uxth	r6, r0
ARM GAS  C:\Users\chemi\AppData\Local\Temp\ccN9mSKQ.s 			page 6


 127              	.LVL16:
 141:..\common\ud3core\tasks/tsk_usb.c ****                 usb_bytes_tx+=count;
 128              		.loc 1 141 0
 129 007e 97F86600 		ldrb	r0, [r7, #102]	@ zero_extendqisi2
 130 0082 B0FA80F0 		clz	r0, r0
 131 0086 4009     		lsrs	r0, r0, #5
 132 0088 FFF7FEFF 		bl	LED_com_Write
 133              	.LVL17:
 134              		.loc 1 142 0
 135 008c 6B68     		ldr	r3, [r5, #4]
 143:..\common\ud3core\tasks/tsk_usb.c **** 				USBUART_1_PutData(buffer, count);
 136              		.loc 1 143 0
 137 008e 3146     		mov	r1, r6
 142:..\common\ud3core\tasks/tsk_usb.c **** 				USBUART_1_PutData(buffer, count);
 138              		.loc 1 142 0
 139 0090 3344     		add	r3, r3, r6
 140              		.loc 1 143 0
 141 0092 6846     		mov	r0, sp
 142:..\common\ud3core\tasks/tsk_usb.c **** 				USBUART_1_PutData(buffer, count);
 142              		.loc 1 142 0
 143 0094 6B60     		str	r3, [r5, #4]
 144              		.loc 1 143 0
 145 0096 FFF7FEFF 		bl	USBUART_1_PutData
 146              	.LVL18:
 144:..\common\ud3core\tasks/tsk_usb.c **** 
 145:..\common\ud3core\tasks/tsk_usb.c **** 				/* If the last sent packet is exactly maximum packet size, 
 146:..\common\ud3core\tasks/tsk_usb.c ****             	 *  it shall be followed by a zero-length packet to assure the
 147:..\common\ud3core\tasks/tsk_usb.c ****              	 *  end of segment is properly identified by the terminal.
 148:..\common\ud3core\tasks/tsk_usb.c ****              	 */
 149:..\common\ud3core\tasks/tsk_usb.c **** 				if (count == tsk_usb_BUFFER_LEN) {
 147              		.loc 1 149 0
 148 009a 402E     		cmp	r6, #64
 149 009c 0AD1     		bne	.L7
 150              	.L12:
 150:..\common\ud3core\tasks/tsk_usb.c **** 					/* Wait till component is ready to send more data to the PC */
 151:..\common\ud3core\tasks/tsk_usb.c **** 					while (USBUART_1_CDCIsReady() == 0u) {
 151              		.loc 1 151 0
 152 009e FFF7FEFF 		bl	USBUART_1_CDCIsReady
 153              	.LVL19:
 154 00a2 18B9     		cbnz	r0, .L37
 152:..\common\ud3core\tasks/tsk_usb.c **** 						vTaskDelay(1);
 155              		.loc 1 152 0
 156 00a4 0120     		movs	r0, #1
 157 00a6 FFF7FEFF 		bl	vTaskDelay
 158              	.LVL20:
 159 00aa F8E7     		b	.L12
 160              	.L37:
 153:..\common\ud3core\tasks/tsk_usb.c **** 					}
 154:..\common\ud3core\tasks/tsk_usb.c **** 					USBUART_1_PutData(NULL, 0u); /* Send zero-length packet to PC */
 161              		.loc 1 154 0
 162 00ac 0021     		movs	r1, #0
 163 00ae 0846     		mov	r0, r1
 164 00b0 FFF7FEFF 		bl	USBUART_1_PutData
 165              	.LVL21:
 166              	.L7:
 155:..\common\ud3core\tasks/tsk_usb.c **** 				}
 156:..\common\ud3core\tasks/tsk_usb.c **** 			}
ARM GAS  C:\Users\chemi\AppData\Local\Temp\ccN9mSKQ.s 			page 7


 157:..\common\ud3core\tasks/tsk_usb.c **** 		}
 158:..\common\ud3core\tasks/tsk_usb.c ****         if(xStreamBufferBytesAvailable(usb_port.tx)==0 || xStreamBufferBytesAvailable(usb_port.rx)=
 167              		.loc 1 158 0
 168 00b4 6068     		ldr	r0, [r4, #4]
 169 00b6 FFF7FEFF 		bl	xStreamBufferBytesAvailable
 170              	.LVL22:
 171 00ba 18B9     		cbnz	r0, .L14
 172              	.L16:
 159:..\common\ud3core\tasks/tsk_usb.c **** 		    vTaskDelay(2 / portTICK_PERIOD_MS);
 173              		.loc 1 159 0
 174 00bc 0220     		movs	r0, #2
 175 00be FFF7FEFF 		bl	vTaskDelay
 176              	.LVL23:
 177 00c2 A8E7     		b	.L2
 178              	.L14:
 158:..\common\ud3core\tasks/tsk_usb.c **** 		    vTaskDelay(2 / portTICK_PERIOD_MS);
 179              		.loc 1 158 0 discriminator 1
 180 00c4 A068     		ldr	r0, [r4, #8]
 181 00c6 FFF7FEFF 		bl	xStreamBufferBytesAvailable
 182              	.LVL24:
 183 00ca 0028     		cmp	r0, #0
 184 00cc F6D0     		beq	.L16
 158:..\common\ud3core\tasks/tsk_usb.c **** 		    vTaskDelay(2 / portTICK_PERIOD_MS);
 185              		.loc 1 158 0 is_stmt 0 discriminator 2
 186 00ce FFF7FEFF 		bl	USBUART_1_CDCIsReady
 187              	.LVL25:
 188 00d2 0028     		cmp	r0, #0
 189 00d4 F2D0     		beq	.L16
 190 00d6 9EE7     		b	.L2
 191              	.L39:
 192              		.align	2
 193              	.L38:
 194 00d8 00000000 		.word	.LC0
 195 00dc 00000000 		.word	usb_port
 196 00e0 00000000 		.word	configuration
 197 00e4 00000000 		.word	.LANCHOR0
 198              		.cfi_endproc
 199              	.LFE72:
 200              		.size	tsk_usb_Task, .-tsk_usb_Task
 201              		.section	.text.tsk_usb_Init,"ax",%progbits
 202              		.align	1
 203              		.global	tsk_usb_Init
 204              		.thumb
 205              		.thumb_func
 206              		.type	tsk_usb_Init, %function
 207              	tsk_usb_Init:
 208              	.LFB70:
  64:..\common\ud3core\tasks/tsk_usb.c **** 	/*  Initialize the USB COM port */
 209              		.loc 1 64 0 is_stmt 1
 210              		.cfi_startproc
 211              		@ args = 0, pretend = 0, frame = 0
 212              		@ frame_needed = 0, uses_anonymous_args = 0
 213 0000 07B5     		push	{r0, r1, r2, lr}
 214              		.cfi_def_cfa_offset 16
 215              		.cfi_offset 14, -4
  67:..\common\ud3core\tasks/tsk_usb.c **** /* Start USBFS Operation with 3V operation */
 216              		.loc 1 67 0
ARM GAS  C:\Users\chemi\AppData\Local\Temp\ccN9mSKQ.s 			page 8


 217 0002 0B4B     		ldr	r3, .L42
 218 0004 1878     		ldrb	r0, [r3]	@ zero_extendqisi2
 219 0006 10B9     		cbnz	r0, .L41
  72:..\common\ud3core\tasks/tsk_usb.c **** #endif
 220              		.loc 1 72 0
 221 0008 0121     		movs	r1, #1
 222 000a FFF7FEFF 		bl	USBUART_1_Start
 223              	.LVL26:
 224              	.L41:
  76:..\common\ud3core\tasks/tsk_usb.c **** 
 225              		.loc 1 76 0
 226 000e 094B     		ldr	r3, .L42+4
 227 0010 8022     		movs	r2, #128
 228 0012 0193     		str	r3, [sp, #4]
 229 0014 0323     		movs	r3, #3
 230 0016 0093     		str	r3, [sp]
 231 0018 0749     		ldr	r1, .L42+8
 232 001a 0023     		movs	r3, #0
 233 001c 0748     		ldr	r0, .L42+12
 234 001e FFF7FEFF 		bl	xTaskCreate
 235              	.LVL27:
  78:..\common\ud3core\tasks/tsk_usb.c **** }
 236              		.loc 1 78 0
 237 0022 074B     		ldr	r3, .L42+16
 238 0024 0122     		movs	r2, #1
 239 0026 1A70     		strb	r2, [r3]
  79:..\common\ud3core\tasks/tsk_usb.c **** /* ------------------------------------------------------------------------ */
 240              		.loc 1 79 0
 241 0028 03B0     		add	sp, sp, #12
 242              		.cfi_def_cfa_offset 4
 243              		@ sp needed
 244 002a 5DF804FB 		ldr	pc, [sp], #4
 245              	.L43:
 246 002e 00BF     		.align	2
 247              	.L42:
 248 0030 00000000 		.word	USBUART_1_initVar
 249 0034 00000000 		.word	tsk_usb_TaskHandle
 250 0038 12000000 		.word	.LC1
 251 003c 00000000 		.word	tsk_usb_Task
 252 0040 00000000 		.word	tsk_usb_initVar
 253              		.cfi_endproc
 254              	.LFE70:
 255              		.size	tsk_usb_Init, .-tsk_usb_Init
 256              		.section	.text.tsk_usb_Start,"ax",%progbits
 257              		.align	1
 258              		.global	tsk_usb_Start
 259              		.thumb
 260              		.thumb_func
 261              		.type	tsk_usb_Start, %function
 262              	tsk_usb_Start:
 263              	.LFB69:
  55:..\common\ud3core\tasks/tsk_usb.c **** 	if (tsk_usb_initVar != 1) {
 264              		.loc 1 55 0
 265              		.cfi_startproc
 266              		@ args = 0, pretend = 0, frame = 0
 267              		@ frame_needed = 0, uses_anonymous_args = 0
 268              		@ link register save eliminated.
ARM GAS  C:\Users\chemi\AppData\Local\Temp\ccN9mSKQ.s 			page 9


  56:..\common\ud3core\tasks/tsk_usb.c **** 		tsk_usb_Init();
 269              		.loc 1 56 0
 270 0000 034B     		ldr	r3, .L46
 271 0002 1B78     		ldrb	r3, [r3]	@ zero_extendqisi2
 272 0004 012B     		cmp	r3, #1
 273 0006 01D0     		beq	.L44
  57:..\common\ud3core\tasks/tsk_usb.c **** 	}
 274              		.loc 1 57 0
 275 0008 FFF7FEBF 		b	tsk_usb_Init
 276              	.LVL28:
 277              	.L44:
 278 000c 7047     		bx	lr
 279              	.L47:
 280 000e 00BF     		.align	2
 281              	.L46:
 282 0010 00000000 		.word	tsk_usb_initVar
 283              		.cfi_endproc
 284              	.LFE69:
 285              		.size	tsk_usb_Start, .-tsk_usb_Start
 286              		.section	.text.tsk_usb_Enable,"ax",%progbits
 287              		.align	1
 288              		.global	tsk_usb_Enable
 289              		.thumb
 290              		.thumb_func
 291              		.type	tsk_usb_Enable, %function
 292              	tsk_usb_Enable:
 293              	.LFB71:
  81:..\common\ud3core\tasks/tsk_usb.c **** 	if (tsk_usb_initVar != 0) {
 294              		.loc 1 81 0
 295              		.cfi_startproc
 296              		@ args = 0, pretend = 0, frame = 0
 297              		@ frame_needed = 0, uses_anonymous_args = 0
 298              		@ link register save eliminated.
 299 0000 7047     		bx	lr
 300              		.cfi_endproc
 301              	.LFE71:
 302              		.size	tsk_usb_Enable, .-tsk_usb_Enable
 303              		.global	usb_bytes_tx
 304              		.global	usb_bytes_rx
 305              		.comm	tsk_usb_TaskHandle,4,4
 306              		.comm	tsk_usb_initVar,1,1
 307              		.comm	interrupter,12,4
 308              		.section	.rodata.str1.1,"aMS",%progbits,1
 309              	.LC0:
 310 0000 5441534B 		.ascii	"TASK: USB started\000"
 310      3A205553 
 310      42207374 
 310      61727465 
 310      6400
 311              	.LC1:
 312 0012 5553422D 		.ascii	"USB-Svc\000"
 312      53766300 
 313              		.bss
 314              		.align	2
 315              		.set	.LANCHOR0,. + 0
 316              		.type	usb_bytes_rx, %object
 317              		.size	usb_bytes_rx, 4
ARM GAS  C:\Users\chemi\AppData\Local\Temp\ccN9mSKQ.s 			page 10


 318              	usb_bytes_rx:
 319 0000 00000000 		.space	4
 320              		.type	usb_bytes_tx, %object
 321              		.size	usb_bytes_tx, 4
 322              	usb_bytes_tx:
 323 0004 00000000 		.space	4
 324              		.text
 325              	.Letext0:
 326              		.file 2 "c:\\program files (x86)\\cypress\\psoc creator\\4.4\\psoc creator\\import\\gnu\\arm\\5.4.
 327              		.file 3 "c:\\program files (x86)\\cypress\\psoc creator\\4.4\\psoc creator\\import\\gnu\\arm\\5.4.
 328              		.file 4 "Generated_Source\\PSoC5/cytypes.h"
 329              		.file 5 "..\\common\\rtos\\portable\\GCC\\ARM_CM3/portmacro.h"
 330              		.file 6 "..\\common\\rtos\\include/task.h"
 331              		.file 7 "..\\common\\rtos\\include/queue.h"
 332              		.file 8 "..\\common\\rtos\\include/semphr.h"
 333              		.file 9 "..\\common\\rtos\\include/stream_buffer.h"
 334              		.file 10 "..\\common\\ud3core/cli_basic.h"
 335              		.file 11 "..\\common\\rtos\\include/timers.h"
 336              		.file 12 "..\\common\\ud3core/cli_common.h"
 337              		.file 13 "..\\common\\ud3core/interrupter.h"
 338              		.file 14 "Generated_Source\\PSoC5/USBUART_1.h"
 339              		.file 15 "Generated_Source\\PSoC5/core_cm3.h"
 340              		.file 16 "..\\common\\ud3core\\tasks\\tsk_cli.h"
 341              		.file 17 "..\\common\\ud3core/alarmevent.h"
 342              		.file 18 "Generated_Source\\PSoC5/USBUART_1_cdc.h"
 343              		.file 19 "Generated_Source\\PSoC5/LED_com.h"