ARM GAS  C:\Users\chemi\AppData\Local\Temp\ccKmfC0B.s 			page 1


   1              		.syntax unified
   2              		.cpu cortex-m3
   3              		.fpu softvfp
   4              		.eabi_attribute 20, 1
   5              		.eabi_attribute 21, 1
   6              		.eabi_attribute 23, 3
   7              		.eabi_attribute 24, 1
   8              		.eabi_attribute 25, 1
   9              		.eabi_attribute 26, 1
  10              		.eabi_attribute 30, 4
  11              		.eabi_attribute 34, 1
  12              		.eabi_attribute 18, 4
  13              		.thumb
  14              		.syntax unified
  15              		.file	"tsk_analog.c"
  16              		.text
  17              	.Ltext0:
  18              		.cfi_sections	.debug_frame
  19              		.section	.text.ADC_data_ready_ISR,"ax",%progbits
  20              		.align	1
  21              		.global	ADC_data_ready_ISR
  22              		.thumb
  23              		.thumb_func
  24              		.type	ADC_data_ready_ISR, %function
  25              	ADC_data_ready_ISR:
  26              	.LFB68:
  27              		.file 1 "..\\common\\ud3core\\tasks\\tsk_analog.c"
   1:..\common\ud3core\tasks/tsk_analog.c **** /*
   2:..\common\ud3core\tasks/tsk_analog.c ****  * UD3
   3:..\common\ud3core\tasks/tsk_analog.c ****  *
   4:..\common\ud3core\tasks/tsk_analog.c ****  * Copyright (c) 2018 Jens Kerrinnes
   5:..\common\ud3core\tasks/tsk_analog.c ****  * Copyright (c) 2015 Steve Ward
   6:..\common\ud3core\tasks/tsk_analog.c ****  *
   7:..\common\ud3core\tasks/tsk_analog.c ****  * Permission is hereby granted, free of charge, to any person obtaining a copy of
   8:..\common\ud3core\tasks/tsk_analog.c ****  * this software and associated documentation files (the "Software"), to deal in
   9:..\common\ud3core\tasks/tsk_analog.c ****  * the Software without restriction, including without limitation the rights to
  10:..\common\ud3core\tasks/tsk_analog.c ****  * use, copy, modify, merge, publish, distribute, sublicense, and/or sell copies of
  11:..\common\ud3core\tasks/tsk_analog.c ****  * the Software, and to permit persons to whom the Software is furnished to do so,
  12:..\common\ud3core\tasks/tsk_analog.c ****  * subject to the following conditions:
  13:..\common\ud3core\tasks/tsk_analog.c ****  *
  14:..\common\ud3core\tasks/tsk_analog.c ****  * The above copyright notice and this permission notice shall be included in all
  15:..\common\ud3core\tasks/tsk_analog.c ****  * copies or substantial portions of the Software.
  16:..\common\ud3core\tasks/tsk_analog.c ****  *
  17:..\common\ud3core\tasks/tsk_analog.c ****  * THE SOFTWARE IS PROVIDED "AS IS", WITHOUT WARRANTY OF ANY KIND, EXPRESS OR
  18:..\common\ud3core\tasks/tsk_analog.c ****  * IMPLIED, INCLUDING BUT NOT LIMITED TO THE WARRANTIES OF MERCHANTABILITY, FITNESS
  19:..\common\ud3core\tasks/tsk_analog.c ****  * FOR A PARTICULAR PURPOSE AND NONINFRINGEMENT. IN NO EVENT SHALL THE AUTHORS OR
  20:..\common\ud3core\tasks/tsk_analog.c ****  * COPYRIGHT HOLDERS BE LIABLE FOR ANY CLAIM, DAMAGES OR OTHER LIABILITY, WHETHER
  21:..\common\ud3core\tasks/tsk_analog.c ****  * IN AN ACTION OF CONTRACT, TORT OR OTHERWISE, ARISING FROM, OUT OF OR IN
  22:..\common\ud3core\tasks/tsk_analog.c ****  * CONNECTION WITH THE SOFTWARE OR THE USE OR OTHER DEALINGS IN THE SOFTWARE.
  23:..\common\ud3core\tasks/tsk_analog.c **** */
  24:..\common\ud3core\tasks/tsk_analog.c **** 
  25:..\common\ud3core\tasks/tsk_analog.c **** #include "cyapicallbacks.h"
  26:..\common\ud3core\tasks/tsk_analog.c **** #include <cytypes.h>
  27:..\common\ud3core\tasks/tsk_analog.c **** 
  28:..\common\ud3core\tasks/tsk_analog.c **** #include "tsk_analog.h"
  29:..\common\ud3core\tasks/tsk_analog.c **** #include "tsk_fault.h"
  30:..\common\ud3core\tasks/tsk_analog.c **** #include "alarmevent.h"
ARM GAS  C:\Users\chemi\AppData\Local\Temp\ccKmfC0B.s 			page 2


  31:..\common\ud3core\tasks/tsk_analog.c **** 
  32:..\common\ud3core\tasks/tsk_analog.c **** /* RTOS includes. */
  33:..\common\ud3core\tasks/tsk_analog.c **** #include "FreeRTOS.h"
  34:..\common\ud3core\tasks/tsk_analog.c **** #include "task.h"
  35:..\common\ud3core\tasks/tsk_analog.c **** #include "queue.h"
  36:..\common\ud3core\tasks/tsk_analog.c **** #include "semphr.h"
  37:..\common\ud3core\tasks/tsk_analog.c **** #include "timers.h"
  38:..\common\ud3core\tasks/tsk_analog.c **** #include "interrupter.h"
  39:..\common\ud3core\tasks/tsk_analog.c **** #include "helper/FastPID.h"
  40:..\common\ud3core\tasks/tsk_analog.c **** 
  41:..\common\ud3core\tasks/tsk_analog.c **** #include <stdlib.h>
  42:..\common\ud3core\tasks/tsk_analog.c **** #include "math.h"
  43:..\common\ud3core\tasks/tsk_analog.c **** 
  44:..\common\ud3core\tasks/tsk_analog.c **** 
  45:..\common\ud3core\tasks/tsk_analog.c **** xTaskHandle tsk_analog_TaskHandle;
  46:..\common\ud3core\tasks/tsk_analog.c **** uint8 tsk_analog_initVar = 0u;
  47:..\common\ud3core\tasks/tsk_analog.c **** 
  48:..\common\ud3core\tasks/tsk_analog.c **** SemaphoreHandle_t adc_ready_Semaphore;
  49:..\common\ud3core\tasks/tsk_analog.c **** 
  50:..\common\ud3core\tasks/tsk_analog.c **** xQueueHandle adc_data;
  51:..\common\ud3core\tasks/tsk_analog.c **** 
  52:..\common\ud3core\tasks/tsk_analog.c **** TimerHandle_t xCharge_Timer;
  53:..\common\ud3core\tasks/tsk_analog.c **** 
  54:..\common\ud3core\tasks/tsk_analog.c **** 
  55:..\common\ud3core\tasks/tsk_analog.c **** /* ------------------------------------------------------------------------ */
  56:..\common\ud3core\tasks/tsk_analog.c **** /*
  57:..\common\ud3core\tasks/tsk_analog.c ****  * Place user included headers, defines and task global data in the
  58:..\common\ud3core\tasks/tsk_analog.c ****  * below merge region section.
  59:..\common\ud3core\tasks/tsk_analog.c ****  */
  60:..\common\ud3core\tasks/tsk_analog.c **** /* `#START USER_INCLUDE SECTION` */
  61:..\common\ud3core\tasks/tsk_analog.c **** #include "ZCDtoPWM.h"
  62:..\common\ud3core\tasks/tsk_analog.c **** #include "cli_common.h"
  63:..\common\ud3core\tasks/tsk_analog.c **** #include "telemetry.h"
  64:..\common\ud3core\tasks/tsk_analog.c **** #include "tsk_priority.h"
  65:..\common\ud3core\tasks/tsk_analog.c **** #include "tsk_midi.h"
  66:..\common\ud3core\tasks/tsk_analog.c **** #include <device.h>
  67:..\common\ud3core\tasks/tsk_analog.c **** 
  68:..\common\ud3core\tasks/tsk_analog.c **** /* Defines for MUX_DMA */
  69:..\common\ud3core\tasks/tsk_analog.c **** #define MUX_DMA_BYTES_PER_BURST 1
  70:..\common\ud3core\tasks/tsk_analog.c **** #define MUX_DMA_REQUEST_PER_BURST 1
  71:..\common\ud3core\tasks/tsk_analog.c **** #define MUX_DMA_SRC_BASE (CYDEV_SRAM_BASE)
  72:..\common\ud3core\tasks/tsk_analog.c **** #define MUX_DMA_DST_BASE (CYDEV_PERIPH_BASE)
  73:..\common\ud3core\tasks/tsk_analog.c **** 
  74:..\common\ud3core\tasks/tsk_analog.c **** /* DMA Configuration for ADC_DMA */
  75:..\common\ud3core\tasks/tsk_analog.c **** #define ADC_DMA_BYTES_PER_BURST 2
  76:..\common\ud3core\tasks/tsk_analog.c **** #define ADC_DMA_REQUEST_PER_BURST 1
  77:..\common\ud3core\tasks/tsk_analog.c **** #define ADC_DMA_SRC_BASE (CYDEV_PERIPH_BASE)
  78:..\common\ud3core\tasks/tsk_analog.c **** #define ADC_DMA_DST_BASE (CYDEV_SRAM_BASE)
  79:..\common\ud3core\tasks/tsk_analog.c **** 
  80:..\common\ud3core\tasks/tsk_analog.c **** #define INITIAL 0 /* Initial value of the filter memory. */
  81:..\common\ud3core\tasks/tsk_analog.c **** 
  82:..\common\ud3core\tasks/tsk_analog.c **** typedef struct
  83:..\common\ud3core\tasks/tsk_analog.c **** {
  84:..\common\ud3core\tasks/tsk_analog.c **** 	uint16_t rms;
  85:..\common\ud3core\tasks/tsk_analog.c **** 	uint64_t sum_squares;
  86:..\common\ud3core\tasks/tsk_analog.c **** } rms_t;
  87:..\common\ud3core\tasks/tsk_analog.c **** 
ARM GAS  C:\Users\chemi\AppData\Local\Temp\ccKmfC0B.s 			page 3


  88:..\common\ud3core\tasks/tsk_analog.c **** 
  89:..\common\ud3core\tasks/tsk_analog.c **** adc_sample_t ADC_sample_buf_0[ADC_BUFFER_CNT];
  90:..\common\ud3core\tasks/tsk_analog.c **** adc_sample_t ADC_sample_buf_1[ADC_BUFFER_CNT];
  91:..\common\ud3core\tasks/tsk_analog.c **** adc_sample_t *ADC_active_sample_buf = ADC_sample_buf_0;
  92:..\common\ud3core\tasks/tsk_analog.c **** 
  93:..\common\ud3core\tasks/tsk_analog.c **** rms_t current_idc;
  94:..\common\ud3core\tasks/tsk_analog.c **** rms_t voltage_bus;
  95:..\common\ud3core\tasks/tsk_analog.c **** rms_t voltage_batt;
  96:..\common\ud3core\tasks/tsk_analog.c **** 
  97:..\common\ud3core\tasks/tsk_analog.c **** uint8_t ADC_mux_ctl[4] = {0x05, 0x02, 0x03, 0x00};
  98:..\common\ud3core\tasks/tsk_analog.c **** static uint32_t drive_top_r_corrected = DRIVEV_R_TOP;
  99:..\common\ud3core\tasks/tsk_analog.c **** 
 100:..\common\ud3core\tasks/tsk_analog.c **** static uint32_t vdriver_raw;
 101:..\common\ud3core\tasks/tsk_analog.c **** 
 102:..\common\ud3core\tasks/tsk_analog.c **** /* `#END` */
 103:..\common\ud3core\tasks/tsk_analog.c **** /* ------------------------------------------------------------------------ */
 104:..\common\ud3core\tasks/tsk_analog.c **** /*
 105:..\common\ud3core\tasks/tsk_analog.c ****  * User defined task-local code that is used to process commands, control
 106:..\common\ud3core\tasks/tsk_analog.c ****  * operations, and/or generrally do stuff to make the taks do something
 107:..\common\ud3core\tasks/tsk_analog.c ****  * meaningful.
 108:..\common\ud3core\tasks/tsk_analog.c ****  */
 109:..\common\ud3core\tasks/tsk_analog.c **** /* `#START USER_TASK_LOCAL_CODE` */
 110:..\common\ud3core\tasks/tsk_analog.c **** 
 111:..\common\ud3core\tasks/tsk_analog.c **** CY_ISR(ADC_data_ready_ISR) {
  28              		.loc 1 111 0
  29              		.cfi_startproc
  30              		@ args = 0, pretend = 0, frame = 0
  31              		@ frame_needed = 0, uses_anonymous_args = 0
  32              		@ link register save eliminated.
 112:..\common\ud3core\tasks/tsk_analog.c ****     if(ADC_active_sample_buf==ADC_sample_buf_0 ){
  33              		.loc 1 112 0
  34 0000 054B     		ldr	r3, .L4
  35 0002 064A     		ldr	r2, .L4+4
  36 0004 1968     		ldr	r1, [r3]
  37 0006 9142     		cmp	r1, r2
 113:..\common\ud3core\tasks/tsk_analog.c ****         ADC_active_sample_buf = ADC_sample_buf_1;
  38              		.loc 1 113 0
  39 0008 08BF     		it	eq
  40 000a 054A     		ldreq	r2, .L4+8
 114:..\common\ud3core\tasks/tsk_analog.c ****     } else {
 115:..\common\ud3core\tasks/tsk_analog.c ****         ADC_active_sample_buf = ADC_sample_buf_0;
 116:..\common\ud3core\tasks/tsk_analog.c ****     }
 117:..\common\ud3core\tasks/tsk_analog.c **** 	xSemaphoreGiveFromISR(adc_ready_Semaphore, NULL);
  41              		.loc 1 117 0
  42 000c 0021     		movs	r1, #0
 115:..\common\ud3core\tasks/tsk_analog.c ****     }
  43              		.loc 1 115 0
  44 000e 1A60     		str	r2, [r3]
  45              		.loc 1 117 0
  46 0010 044B     		ldr	r3, .L4+12
  47 0012 1868     		ldr	r0, [r3]
  48 0014 FFF7FEBF 		b	xQueueGiveFromISR
  49              	.LVL0:
  50              	.L5:
  51              		.align	2
  52              	.L4:
  53 0018 00000000 		.word	.LANCHOR0
ARM GAS  C:\Users\chemi\AppData\Local\Temp\ccKmfC0B.s 			page 4


  54 001c 00000000 		.word	ADC_sample_buf_0
  55 0020 00000000 		.word	ADC_sample_buf_1
  56 0024 00000000 		.word	adc_ready_Semaphore
  57              		.cfi_endproc
  58              	.LFE68:
  59              		.size	ADC_data_ready_ISR, .-ADC_data_ready_ISR
  60              		.section	.text.vCharge_Timer_Callback,"ax",%progbits
  61              		.align	1
  62              		.global	vCharge_Timer_Callback
  63              		.thumb
  64              		.thumb_func
  65              		.type	vCharge_Timer_Callback, %function
  66              	vCharge_Timer_Callback:
  67              	.LFB84:
 118:..\common\ud3core\tasks/tsk_analog.c **** }
 119:..\common\ud3core\tasks/tsk_analog.c **** 
 120:..\common\ud3core\tasks/tsk_analog.c **** 
 121:..\common\ud3core\tasks/tsk_analog.c **** uint32_t read_bus_mv(uint16_t raw_adc) {
 122:..\common\ud3core\tasks/tsk_analog.c **** 	uint32_t bus_voltage;
 123:..\common\ud3core\tasks/tsk_analog.c **** 	bus_voltage = ((configuration.r_top + BUSV_R_BOT) * raw_adc) / (BUSV_R_BOT * 819 / 1000);
 124:..\common\ud3core\tasks/tsk_analog.c **** 	return bus_voltage;
 125:..\common\ud3core\tasks/tsk_analog.c **** }
 126:..\common\ud3core\tasks/tsk_analog.c **** 
 127:..\common\ud3core\tasks/tsk_analog.c **** void tsk_analog_recalc_drive_top(float factor){
 128:..\common\ud3core\tasks/tsk_analog.c ****     float scaled_val = (float)DRIVEV_R_TOP * factor;
 129:..\common\ud3core\tasks/tsk_analog.c ****     drive_top_r_corrected = roundf(scaled_val);
 130:..\common\ud3core\tasks/tsk_analog.c **** }
 131:..\common\ud3core\tasks/tsk_analog.c **** 
 132:..\common\ud3core\tasks/tsk_analog.c **** uint16_t read_driver_mv(){
 133:..\common\ud3core\tasks/tsk_analog.c **** 	uint32_t driver_voltage = (drive_top_r_corrected + DRIVEV_R_BOT) * vdriver_raw;
 134:..\common\ud3core\tasks/tsk_analog.c ****     
 135:..\common\ud3core\tasks/tsk_analog.c ****     if(configuration.hw_rev > 0){
 136:..\common\ud3core\tasks/tsk_analog.c ****         driver_voltage /= (DRIVEV_R_BOT * 819 / 1000);
 137:..\common\ud3core\tasks/tsk_analog.c ****     } else {
 138:..\common\ud3core\tasks/tsk_analog.c ****         driver_voltage /= (DRIVEV_R_BOT_V3 * 819 / 1000);
 139:..\common\ud3core\tasks/tsk_analog.c ****     }
 140:..\common\ud3core\tasks/tsk_analog.c ****     
 141:..\common\ud3core\tasks/tsk_analog.c ****     return driver_voltage;
 142:..\common\ud3core\tasks/tsk_analog.c **** }
 143:..\common\ud3core\tasks/tsk_analog.c **** 
 144:..\common\ud3core\tasks/tsk_analog.c **** uint32_t CT1_Get_Current() {
 145:..\common\ud3core\tasks/tsk_analog.c ****     int32_t counts = ADC_peak_GetResult16();
 146:..\common\ud3core\tasks/tsk_analog.c **** 	return ((ADC_peak_CountsTo_mVolts(counts) * configuration.ct1_ratio) / configuration.ct1_burden) /
 147:..\common\ud3core\tasks/tsk_analog.c **** }
 148:..\common\ud3core\tasks/tsk_analog.c **** 
 149:..\common\ud3core\tasks/tsk_analog.c **** float CT1_Get_Current_f() {
 150:..\common\ud3core\tasks/tsk_analog.c ****     int32_t counts = ADC_peak_GetResult16();
 151:..\common\ud3core\tasks/tsk_analog.c **** 	return ((float)(ADC_peak_CountsTo_Volts(counts) * 10) / (float)(configuration.ct1_burden) * config
 152:..\common\ud3core\tasks/tsk_analog.c **** }
 153:..\common\ud3core\tasks/tsk_analog.c **** 
 154:..\common\ud3core\tasks/tsk_analog.c **** void init_rms_filter(rms_t *ptr, uint16_t init_val) {
 155:..\common\ud3core\tasks/tsk_analog.c **** 	ptr->rms = init_val;
 156:..\common\ud3core\tasks/tsk_analog.c **** 	ptr->sum_squares = 1UL * SAMPLES_COUNT * init_val * init_val;
 157:..\common\ud3core\tasks/tsk_analog.c **** }
 158:..\common\ud3core\tasks/tsk_analog.c **** 
 159:..\common\ud3core\tasks/tsk_analog.c **** uint16_t rms_filter(rms_t *ptr, int16_t sample) {
 160:..\common\ud3core\tasks/tsk_analog.c **** 	ptr->sum_squares -= ptr->sum_squares / SAMPLES_COUNT;
ARM GAS  C:\Users\chemi\AppData\Local\Temp\ccKmfC0B.s 			page 5


 161:..\common\ud3core\tasks/tsk_analog.c **** 	ptr->sum_squares += (int32_t)sample * sample;
 162:..\common\ud3core\tasks/tsk_analog.c **** 	if (ptr->rms == 0)
 163:..\common\ud3core\tasks/tsk_analog.c **** 		ptr->rms = 1; /* do not divide by zero */
 164:..\common\ud3core\tasks/tsk_analog.c **** 	ptr->rms = (ptr->rms + ptr->sum_squares / SAMPLES_COUNT / ptr->rms) / 2;
 165:..\common\ud3core\tasks/tsk_analog.c **** 	return ptr->rms;
 166:..\common\ud3core\tasks/tsk_analog.c **** }
 167:..\common\ud3core\tasks/tsk_analog.c **** 
 168:..\common\ud3core\tasks/tsk_analog.c **** void init_average_filter(uint32_t *ptr, uint16_t init_val) {
 169:..\common\ud3core\tasks/tsk_analog.c **** 	*ptr = 1UL * SAMPLES_COUNT * init_val;
 170:..\common\ud3core\tasks/tsk_analog.c **** }
 171:..\common\ud3core\tasks/tsk_analog.c **** 
 172:..\common\ud3core\tasks/tsk_analog.c **** uint16_t average_filter(uint32_t *ptr, uint16_t sample) {
 173:..\common\ud3core\tasks/tsk_analog.c **** 	*ptr -= *ptr / SAMPLES_COUNT;
 174:..\common\ud3core\tasks/tsk_analog.c **** 	*ptr += (uint32_t)sample;
 175:..\common\ud3core\tasks/tsk_analog.c **** 	*ptr = *ptr / SAMPLES_COUNT;
 176:..\common\ud3core\tasks/tsk_analog.c **** 	return *ptr;
 177:..\common\ud3core\tasks/tsk_analog.c **** }
 178:..\common\ud3core\tasks/tsk_analog.c **** 
 179:..\common\ud3core\tasks/tsk_analog.c **** void calculate_rms(void) {
 180:..\common\ud3core\tasks/tsk_analog.c ****     
 181:..\common\ud3core\tasks/tsk_analog.c ****     uint32_t vdriver_accu=0;
 182:..\common\ud3core\tasks/tsk_analog.c ****     
 183:..\common\ud3core\tasks/tsk_analog.c ****     for(uint8_t i=0;i<ADC_BUFFER_CNT;i++){
 184:..\common\ud3core\tasks/tsk_analog.c **** 
 185:..\common\ud3core\tasks/tsk_analog.c **** 		// read the battery voltage
 186:..\common\ud3core\tasks/tsk_analog.c **** 		tt.n.batt_v.value = read_bus_mv(rms_filter(&voltage_batt, ADC_active_sample_buf[i].v_batt)) / 100
 187:..\common\ud3core\tasks/tsk_analog.c **** 
 188:..\common\ud3core\tasks/tsk_analog.c **** 		// read the bus voltage
 189:..\common\ud3core\tasks/tsk_analog.c **** 		tt.n.bus_v.value = read_bus_mv(rms_filter(&voltage_bus, ADC_active_sample_buf[i].v_bus)) / 1000;
 190:..\common\ud3core\tasks/tsk_analog.c **** 
 191:..\common\ud3core\tasks/tsk_analog.c **** 		// read the battery current
 192:..\common\ud3core\tasks/tsk_analog.c ****         if(configuration.ct2_type==CT2_TYPE_CURRENT){
 193:..\common\ud3core\tasks/tsk_analog.c **** 		    tt.n.batt_i.value = (((uint32_t)rms_filter(&current_idc, ADC_active_sample_buf[i].i_bus) * pa
 194:..\common\ud3core\tasks/tsk_analog.c ****         }else{
 195:..\common\ud3core\tasks/tsk_analog.c ****             tt.n.batt_i.value = ((((int32_t)rms_filter(&current_idc, ADC_active_sample_buf[i].i_bus
 196:..\common\ud3core\tasks/tsk_analog.c ****         }
 197:..\common\ud3core\tasks/tsk_analog.c **** 
 198:..\common\ud3core\tasks/tsk_analog.c **** 		tt.n.avg_power.value = tt.n.batt_i.value * tt.n.bus_v.value / 10;
 199:..\common\ud3core\tasks/tsk_analog.c ****         
 200:..\common\ud3core\tasks/tsk_analog.c ****         vdriver_accu += ADC_active_sample_buf[i].v_driver;  
 201:..\common\ud3core\tasks/tsk_analog.c ****         
 202:..\common\ud3core\tasks/tsk_analog.c **** 	}
 203:..\common\ud3core\tasks/tsk_analog.c ****     
 204:..\common\ud3core\tasks/tsk_analog.c ****     vdriver_raw = vdriver_accu / ADC_BUFFER_CNT;
 205:..\common\ud3core\tasks/tsk_analog.c ****     
 206:..\common\ud3core\tasks/tsk_analog.c ****     tt.n.primary_i.value = CT1_Get_Current();
 207:..\common\ud3core\tasks/tsk_analog.c ****       
 208:..\common\ud3core\tasks/tsk_analog.c ****    
 209:..\common\ud3core\tasks/tsk_analog.c **** 	control_precharge();
 210:..\common\ud3core\tasks/tsk_analog.c **** 
 211:..\common\ud3core\tasks/tsk_analog.c **** }
 212:..\common\ud3core\tasks/tsk_analog.c **** 
 213:..\common\ud3core\tasks/tsk_analog.c **** 
 214:..\common\ud3core\tasks/tsk_analog.c **** 
 215:..\common\ud3core\tasks/tsk_analog.c **** void initialize_analogs(void) {
 216:..\common\ud3core\tasks/tsk_analog.c ****     ADC_peak_Start();
 217:..\common\ud3core\tasks/tsk_analog.c **** 	Sample_Hold_1_Start();
ARM GAS  C:\Users\chemi\AppData\Local\Temp\ccKmfC0B.s 			page 6


 218:..\common\ud3core\tasks/tsk_analog.c **** 	Comp_1_Start();
 219:..\common\ud3core\tasks/tsk_analog.c **** 
 220:..\common\ud3core\tasks/tsk_analog.c **** 	/* Variable declarations for ADC_DMA */
 221:..\common\ud3core\tasks/tsk_analog.c **** 	/* Move these variable declarations to the top of the function */
 222:..\common\ud3core\tasks/tsk_analog.c **** 	uint8 ADC_DMA_Chan;
 223:..\common\ud3core\tasks/tsk_analog.c **** 	uint8 ADC_DMA_TD[2];
 224:..\common\ud3core\tasks/tsk_analog.c **** 
 225:..\common\ud3core\tasks/tsk_analog.c **** 	ADC_DMA_Chan = ADC_DMA_DmaInitialize(ADC_DMA_BYTES_PER_BURST, ADC_DMA_REQUEST_PER_BURST, HI16(ADC_
 226:..\common\ud3core\tasks/tsk_analog.c **** 	ADC_DMA_TD[0] = CyDmaTdAllocate();
 227:..\common\ud3core\tasks/tsk_analog.c ****     ADC_DMA_TD[1] = CyDmaTdAllocate();
 228:..\common\ud3core\tasks/tsk_analog.c **** 	CyDmaTdSetConfiguration(ADC_DMA_TD[0], 8*ADC_BUFFER_CNT, ADC_DMA_TD[1], ADC_DMA__TD_TERMOUT_EN | T
 229:..\common\ud3core\tasks/tsk_analog.c ****     CyDmaTdSetConfiguration(ADC_DMA_TD[1], 8*ADC_BUFFER_CNT, ADC_DMA_TD[0], ADC_DMA__TD_TERMOUT_EN 
 230:..\common\ud3core\tasks/tsk_analog.c **** 	CyDmaTdSetAddress(ADC_DMA_TD[0], LO16((uint32)ADC_SAR_WRK0_PTR), LO16((uint32)ADC_sample_buf_0));
 231:..\common\ud3core\tasks/tsk_analog.c ****     CyDmaTdSetAddress(ADC_DMA_TD[1], LO16((uint32)ADC_SAR_WRK0_PTR), LO16((uint32)ADC_sample_buf_1)
 232:..\common\ud3core\tasks/tsk_analog.c **** 	CyDmaChSetInitialTd(ADC_DMA_Chan, ADC_DMA_TD[0]);
 233:..\common\ud3core\tasks/tsk_analog.c **** 	CyDmaChEnable(ADC_DMA_Chan, 1);
 234:..\common\ud3core\tasks/tsk_analog.c **** 
 235:..\common\ud3core\tasks/tsk_analog.c **** 	/* Variable declarations for MUX_DMA */
 236:..\common\ud3core\tasks/tsk_analog.c **** 	/* Move these variable declarations to the top of the function */
 237:..\common\ud3core\tasks/tsk_analog.c **** 	uint8 MUX_DMA_Chan;
 238:..\common\ud3core\tasks/tsk_analog.c **** 	uint8 MUX_DMA_TD[1];
 239:..\common\ud3core\tasks/tsk_analog.c **** 
 240:..\common\ud3core\tasks/tsk_analog.c **** 	/* DMA Configuration for MUX_DMA */
 241:..\common\ud3core\tasks/tsk_analog.c **** 	MUX_DMA_Chan = MUX_DMA_DmaInitialize(MUX_DMA_BYTES_PER_BURST, MUX_DMA_REQUEST_PER_BURST, HI16(MUX_
 242:..\common\ud3core\tasks/tsk_analog.c **** 	MUX_DMA_TD[0] = CyDmaTdAllocate();
 243:..\common\ud3core\tasks/tsk_analog.c **** 	CyDmaTdSetConfiguration(MUX_DMA_TD[0], 4, MUX_DMA_TD[0], CY_DMA_TD_INC_SRC_ADR);
 244:..\common\ud3core\tasks/tsk_analog.c **** 	CyDmaTdSetAddress(MUX_DMA_TD[0], LO16((uint32)ADC_mux_ctl), LO16((uint32)Amux_Ctrl_Control_PTR));
 245:..\common\ud3core\tasks/tsk_analog.c **** 	CyDmaChSetInitialTd(MUX_DMA_Chan, MUX_DMA_TD[0]);
 246:..\common\ud3core\tasks/tsk_analog.c **** 	CyDmaChEnable(MUX_DMA_Chan, 1);
 247:..\common\ud3core\tasks/tsk_analog.c ****     
 248:..\common\ud3core\tasks/tsk_analog.c **** 
 249:..\common\ud3core\tasks/tsk_analog.c **** 	ADC_data_ready_StartEx(ADC_data_ready_ISR);
 250:..\common\ud3core\tasks/tsk_analog.c **** 
 251:..\common\ud3core\tasks/tsk_analog.c **** 	init_rms_filter(&current_idc, INITIAL);
 252:..\common\ud3core\tasks/tsk_analog.c ****     
 253:..\common\ud3core\tasks/tsk_analog.c ****     ADC_Start();
 254:..\common\ud3core\tasks/tsk_analog.c **** }
 255:..\common\ud3core\tasks/tsk_analog.c **** 
 256:..\common\ud3core\tasks/tsk_analog.c **** int16 initial_vbus, final_vbus, delta_vbus;
 257:..\common\ud3core\tasks/tsk_analog.c **** uint32 charging_counter;
 258:..\common\ud3core\tasks/tsk_analog.c **** uint8_t timer_triggerd=0;
 259:..\common\ud3core\tasks/tsk_analog.c **** 
 260:..\common\ud3core\tasks/tsk_analog.c **** 
 261:..\common\ud3core\tasks/tsk_analog.c **** void initialize_charging(void) {
 262:..\common\ud3core\tasks/tsk_analog.c **** 	tt.n.bus_status.value = BUS_OFF;
 263:..\common\ud3core\tasks/tsk_analog.c **** 	initial_vbus = 0;
 264:..\common\ud3core\tasks/tsk_analog.c **** 	final_vbus = 0;
 265:..\common\ud3core\tasks/tsk_analog.c **** 	charging_counter = 0;
 266:..\common\ud3core\tasks/tsk_analog.c **** }
 267:..\common\ud3core\tasks/tsk_analog.c **** 
 268:..\common\ud3core\tasks/tsk_analog.c **** 
 269:..\common\ud3core\tasks/tsk_analog.c **** 
 270:..\common\ud3core\tasks/tsk_analog.c **** void ac_precharge_bus_scheme(){
 271:..\common\ud3core\tasks/tsk_analog.c **** 	//we cant know the AC line voltage so we will watch the bus voltage climb and infer when its charg
 272:..\common\ud3core\tasks/tsk_analog.c **** 	//this logic is part of a charging counter
 273:..\common\ud3core\tasks/tsk_analog.c ****     if(tt.n.bus_status.value == BUS_READY && tt.n.bus_v.value <20){
 274:..\common\ud3core\tasks/tsk_analog.c ****         tt.n.bus_status.value=BUS_BATT_UV_FLT;
ARM GAS  C:\Users\chemi\AppData\Local\Temp\ccKmfC0B.s 			page 7


 275:..\common\ud3core\tasks/tsk_analog.c ****         if(sysfault.bus_uv==0){
 276:..\common\ud3core\tasks/tsk_analog.c ****             alarm_push(ALM_PRIO_ALARM, "BUS: Undervoltage",tt.n.bus_v.value);
 277:..\common\ud3core\tasks/tsk_analog.c ****         }
 278:..\common\ud3core\tasks/tsk_analog.c ****         sysfault.bus_uv=1;
 279:..\common\ud3core\tasks/tsk_analog.c ****         bus_command=BUS_COMMAND_FAULT;
 280:..\common\ud3core\tasks/tsk_analog.c ****     }
 281:..\common\ud3core\tasks/tsk_analog.c **** 	if (charging_counter == 0)
 282:..\common\ud3core\tasks/tsk_analog.c **** 		initial_vbus = tt.n.bus_v.value;
 283:..\common\ud3core\tasks/tsk_analog.c **** 	charging_counter++;
 284:..\common\ud3core\tasks/tsk_analog.c **** 	if (charging_counter > AC_PRECHARGE_TIMEOUT) {
 285:..\common\ud3core\tasks/tsk_analog.c **** 		final_vbus = tt.n.bus_v.value;
 286:..\common\ud3core\tasks/tsk_analog.c **** 		delta_vbus = final_vbus - initial_vbus;
 287:..\common\ud3core\tasks/tsk_analog.c **** 		if ((delta_vbus < 4) && (tt.n.bus_v.value > 20) && tt.n.bus_status.value == BUS_CHARGING) {
 288:..\common\ud3core\tasks/tsk_analog.c ****             if(!timer_triggerd){
 289:..\common\ud3core\tasks/tsk_analog.c ****                 timer_triggerd=1;
 290:..\common\ud3core\tasks/tsk_analog.c **** 			    xTimerStart(xCharge_Timer,0);
 291:..\common\ud3core\tasks/tsk_analog.c ****             }
 292:..\common\ud3core\tasks/tsk_analog.c **** 		} else if (tt.n.bus_status.value != BUS_READY) {
 293:..\common\ud3core\tasks/tsk_analog.c ****             if(tt.n.bus_status.value != BUS_CHARGING){
 294:..\common\ud3core\tasks/tsk_analog.c ****                 alarm_push(ALM_PRIO_INFO, "BUS: Charging", ALM_NO_VALUE);
 295:..\common\ud3core\tasks/tsk_analog.c ****             }
 296:..\common\ud3core\tasks/tsk_analog.c ****             sysfault.charge=1;
 297:..\common\ud3core\tasks/tsk_analog.c **** 			relay_write_bus(1);
 298:..\common\ud3core\tasks/tsk_analog.c **** 			tt.n.bus_status.value = BUS_CHARGING;
 299:..\common\ud3core\tasks/tsk_analog.c **** 		}
 300:..\common\ud3core\tasks/tsk_analog.c **** 		charging_counter = 0;
 301:..\common\ud3core\tasks/tsk_analog.c **** 	}
 302:..\common\ud3core\tasks/tsk_analog.c **** }
 303:..\common\ud3core\tasks/tsk_analog.c **** 
 304:..\common\ud3core\tasks/tsk_analog.c **** void ac_dual_meas_scheme(){
 305:..\common\ud3core\tasks/tsk_analog.c **** }
 306:..\common\ud3core\tasks/tsk_analog.c **** 
 307:..\common\ud3core\tasks/tsk_analog.c **** void ac_precharge_fixed_delay(){
 308:..\common\ud3core\tasks/tsk_analog.c ****     if(!relay_read_bus() && !relay_read_charge_end()){
 309:..\common\ud3core\tasks/tsk_analog.c ****         alarm_push(ALM_PRIO_INFO, "BUS: Charging", ALM_NO_VALUE);
 310:..\common\ud3core\tasks/tsk_analog.c ****         sysfault.charge=1;
 311:..\common\ud3core\tasks/tsk_analog.c ****         xTimerStart(xCharge_Timer,0);
 312:..\common\ud3core\tasks/tsk_analog.c ****         relay_write_bus(1);
 313:..\common\ud3core\tasks/tsk_analog.c ****         tt.n.bus_status.value = BUS_CHARGING;
 314:..\common\ud3core\tasks/tsk_analog.c ****     }    
 315:..\common\ud3core\tasks/tsk_analog.c **** }
 316:..\common\ud3core\tasks/tsk_analog.c **** 
 317:..\common\ud3core\tasks/tsk_analog.c **** void vCharge_Timer_Callback(TimerHandle_t xTimer){
  68              		.loc 1 317 0
  69              		.cfi_startproc
  70              		@ args = 0, pretend = 0, frame = 0
  71              		@ frame_needed = 0, uses_anonymous_args = 0
  72              	.LVL1:
  73 0000 38B5     		push	{r3, r4, r5, lr}
  74              		.cfi_def_cfa_offset 16
  75              		.cfi_offset 3, -16
  76              		.cfi_offset 4, -12
  77              		.cfi_offset 5, -8
  78              		.cfi_offset 14, -4
 318:..\common\ud3core\tasks/tsk_analog.c ****     timer_triggerd=0;
  79              		.loc 1 318 0
  80 0002 174B     		ldr	r3, .L13
ARM GAS  C:\Users\chemi\AppData\Local\Temp\ccKmfC0B.s 			page 8


  81 0004 0024     		movs	r4, #0
  82 0006 1C70     		strb	r4, [r3]
 319:..\common\ud3core\tasks/tsk_analog.c ****     if(bus_command== BUS_COMMAND_ON){
  83              		.loc 1 319 0
  84 0008 164B     		ldr	r3, .L13+4
  85 000a 1D78     		ldrb	r5, [r3]	@ zero_extendqisi2
  86 000c EDB2     		uxtb	r5, r5
  87 000e 012D     		cmp	r5, #1
  88 0010 13D1     		bne	.L7
 320:..\common\ud3core\tasks/tsk_analog.c ****         if(relay_read_bus()){
  89              		.loc 1 320 0
  90 0012 FFF7FEFF 		bl	Relay1_Read
  91              	.LVL2:
  92 0016 08B3     		cbz	r0, .L6
  93              	.LVL3:
  94              	.LBB8:
  95              	.LBB9:
 321:..\common\ud3core\tasks/tsk_analog.c ****             alarm_push(ALM_PRIO_INFO, "BUS: Ready", ALM_NO_VALUE);
  96              		.loc 1 321 0
  97 0018 4FF00042 		mov	r2, #-2147483648
  98 001c 1249     		ldr	r1, .L13+8
  99 001e 2046     		mov	r0, r4
 100 0020 FFF7FEFF 		bl	alarm_push
 101              	.LVL4:
 322:..\common\ud3core\tasks/tsk_analog.c ****             relay_write_charge_end(1);
 102              		.loc 1 322 0
 103 0024 2846     		mov	r0, r5
 104 0026 FFF7FEFF 		bl	Relay2_Write
 105              	.LVL5:
 323:..\common\ud3core\tasks/tsk_analog.c ****             tt.n.bus_status.value = BUS_READY;
 106              		.loc 1 323 0
 107 002a 104B     		ldr	r3, .L13+12
 108 002c 0222     		movs	r2, #2
 109 002e C3F8A020 		str	r2, [r3, #160]
 324:..\common\ud3core\tasks/tsk_analog.c ****             sysfault.charge=0;
 110              		.loc 1 324 0
 111 0032 0F4B     		ldr	r3, .L13+16
 112 0034 1C71     		strb	r4, [r3, #4]
 325:..\common\ud3core\tasks/tsk_analog.c ****             sysfault.bus_uv=0;
 113              		.loc 1 325 0
 114 0036 DC71     		strb	r4, [r3, #7]
 115 0038 38BD     		pop	{r3, r4, r5, pc}
 116              	.LVL6:
 117              	.L7:
 118              	.LBE9:
 119              	.LBE8:
 326:..\common\ud3core\tasks/tsk_analog.c ****         }
 327:..\common\ud3core\tasks/tsk_analog.c ****     }else{
 328:..\common\ud3core\tasks/tsk_analog.c ****         relay_write_bus(0);
 120              		.loc 1 328 0
 121 003a 2046     		mov	r0, r4
 122              	.LVL7:
 123 003c FFF7FEFF 		bl	Relay1_Write
 124              	.LVL8:
 329:..\common\ud3core\tasks/tsk_analog.c ****         relay_write_charge_end(0);
 125              		.loc 1 329 0
 126 0040 2046     		mov	r0, r4
ARM GAS  C:\Users\chemi\AppData\Local\Temp\ccKmfC0B.s 			page 9


 127 0042 FFF7FEFF 		bl	Relay2_Write
 128              	.LVL9:
 330:..\common\ud3core\tasks/tsk_analog.c ****         sysfault.charge=0;
 129              		.loc 1 330 0
 130 0046 0A4B     		ldr	r3, .L13+16
 331:..\common\ud3core\tasks/tsk_analog.c ****         alarm_push(ALM_PRIO_INFO, "BUS: Off", ALM_NO_VALUE);
 131              		.loc 1 331 0
 132 0048 4FF00042 		mov	r2, #-2147483648
 133 004c 0949     		ldr	r1, .L13+20
 134 004e 2046     		mov	r0, r4
 330:..\common\ud3core\tasks/tsk_analog.c ****         sysfault.charge=0;
 135              		.loc 1 330 0
 136 0050 1C71     		strb	r4, [r3, #4]
 137              		.loc 1 331 0
 138 0052 FFF7FEFF 		bl	alarm_push
 139              	.LVL10:
 332:..\common\ud3core\tasks/tsk_analog.c ****         tt.n.bus_status.value = BUS_OFF;
 140              		.loc 1 332 0
 141 0056 054B     		ldr	r3, .L13+12
 142 0058 C3F8A040 		str	r4, [r3, #160]
 143              	.L6:
 144 005c 38BD     		pop	{r3, r4, r5, pc}
 145              	.L14:
 146 005e 00BF     		.align	2
 147              	.L13:
 148 0060 00000000 		.word	.LANCHOR1
 149 0064 00000000 		.word	bus_command
 150 0068 00000000 		.word	.LC0
 151 006c 00000000 		.word	tt
 152 0070 00000000 		.word	sysfault
 153 0074 0B000000 		.word	.LC1
 154              		.cfi_endproc
 155              	.LFE84:
 156              		.size	vCharge_Timer_Callback, .-vCharge_Timer_Callback
 157              		.section	.text.read_bus_mv,"ax",%progbits
 158              		.align	1
 159              		.global	read_bus_mv
 160              		.thumb
 161              		.thumb_func
 162              		.type	read_bus_mv, %function
 163              	read_bus_mv:
 164              	.LFB69:
 121:..\common\ud3core\tasks/tsk_analog.c **** 	uint32_t bus_voltage;
 165              		.loc 1 121 0
 166              		.cfi_startproc
 167              		@ args = 0, pretend = 0, frame = 0
 168              		@ frame_needed = 0, uses_anonymous_args = 0
 169              		@ link register save eliminated.
 170              	.LVL11:
 124:..\common\ud3core\tasks/tsk_analog.c **** }
 171              		.loc 1 124 0
 172 0000 054B     		ldr	r3, .L16
 173 0002 5B6D     		ldr	r3, [r3, #84]
 174 0004 03F59C53 		add	r3, r3, #4992
 175 0008 0833     		adds	r3, r3, #8
 176 000a 5843     		muls	r0, r3, r0
 177              	.LVL12:
ARM GAS  C:\Users\chemi\AppData\Local\Temp\ccKmfC0B.s 			page 10


 125:..\common\ud3core\tasks/tsk_analog.c **** 
 178              		.loc 1 125 0
 179 000c 40F6FF73 		movw	r3, #4095
 180 0010 B0FBF3F0 		udiv	r0, r0, r3
 181 0014 7047     		bx	lr
 182              	.L17:
 183 0016 00BF     		.align	2
 184              	.L16:
 185 0018 00000000 		.word	configuration
 186              		.cfi_endproc
 187              	.LFE69:
 188              		.size	read_bus_mv, .-read_bus_mv
 189              		.global	__aeabi_fmul
 190              		.global	__aeabi_f2uiz
 191              		.section	.text.tsk_analog_recalc_drive_top,"ax",%progbits
 192              		.align	1
 193              		.global	tsk_analog_recalc_drive_top
 194              		.thumb
 195              		.thumb_func
 196              		.type	tsk_analog_recalc_drive_top, %function
 197              	tsk_analog_recalc_drive_top:
 198              	.LFB70:
 127:..\common\ud3core\tasks/tsk_analog.c ****     float scaled_val = (float)DRIVEV_R_TOP * factor;
 199              		.loc 1 127 0
 200              		.cfi_startproc
 201              		@ args = 0, pretend = 0, frame = 0
 202              		@ frame_needed = 0, uses_anonymous_args = 0
 203              	.LVL13:
 204 0000 08B5     		push	{r3, lr}
 205              		.cfi_def_cfa_offset 8
 206              		.cfi_offset 3, -8
 207              		.cfi_offset 14, -4
 129:..\common\ud3core\tasks/tsk_analog.c **** }
 208              		.loc 1 129 0
 209 0002 0549     		ldr	r1, .L19
 210 0004 FFF7FEFF 		bl	__aeabi_fmul
 211              	.LVL14:
 212 0008 FFF7FEFF 		bl	roundf
 213              	.LVL15:
 214 000c FFF7FEFF 		bl	__aeabi_f2uiz
 215              	.LVL16:
 216 0010 024B     		ldr	r3, .L19+4
 217 0012 5860     		str	r0, [r3, #4]
 218 0014 08BD     		pop	{r3, pc}
 219              	.L20:
 220 0016 00BF     		.align	2
 221              	.L19:
 222 0018 00401C46 		.word	1176256512
 223 001c 00000000 		.word	.LANCHOR0
 224              		.cfi_endproc
 225              	.LFE70:
 226              		.size	tsk_analog_recalc_drive_top, .-tsk_analog_recalc_drive_top
 227              		.section	.text.read_driver_mv,"ax",%progbits
 228              		.align	1
 229              		.global	read_driver_mv
 230              		.thumb
 231              		.thumb_func
ARM GAS  C:\Users\chemi\AppData\Local\Temp\ccKmfC0B.s 			page 11


 232              		.type	read_driver_mv, %function
 233              	read_driver_mv:
 234              	.LFB71:
 132:..\common\ud3core\tasks/tsk_analog.c **** 	uint32_t driver_voltage = (drive_top_r_corrected + DRIVEV_R_BOT) * vdriver_raw;
 235              		.loc 1 132 0
 236              		.cfi_startproc
 237              		@ args = 0, pretend = 0, frame = 0
 238              		@ frame_needed = 0, uses_anonymous_args = 0
 239              		@ link register save eliminated.
 133:..\common\ud3core\tasks/tsk_analog.c ****     
 240              		.loc 1 133 0
 241 0000 094B     		ldr	r3, .L25
 242 0002 5868     		ldr	r0, [r3, #4]
 243 0004 094B     		ldr	r3, .L25+4
 244 0006 00F69800 		addw	r0, r0, #2200
 245 000a 5B68     		ldr	r3, [r3, #4]
 246 000c 5843     		muls	r0, r3, r0
 247              	.LVL17:
 135:..\common\ud3core\tasks/tsk_analog.c ****         driver_voltage /= (DRIVEV_R_BOT * 819 / 1000);
 248              		.loc 1 135 0
 249 000e 084B     		ldr	r3, .L25+8
 250 0010 93F87030 		ldrb	r3, [r3, #112]	@ zero_extendqisi2
 251 0014 13B1     		cbz	r3, .L22
 136:..\common\ud3core\tasks/tsk_analog.c ****     } else {
 252              		.loc 1 136 0
 253 0016 40F20973 		movw	r3, #1801
 254 001a 01E0     		b	.L24
 255              	.L22:
 138:..\common\ud3core\tasks/tsk_analog.c ****     }
 256              		.loc 1 138 0
 257 001c 40F23333 		movw	r3, #819
 258              	.L24:
 259 0020 B0FBF3F0 		udiv	r0, r0, r3
 260              	.LVL18:
 142:..\common\ud3core\tasks/tsk_analog.c **** 
 261              		.loc 1 142 0
 262 0024 80B2     		uxth	r0, r0
 263              	.LVL19:
 264 0026 7047     		bx	lr
 265              	.L26:
 266              		.align	2
 267              	.L25:
 268 0028 00000000 		.word	.LANCHOR0
 269 002c 00000000 		.word	.LANCHOR1
 270 0030 00000000 		.word	configuration
 271              		.cfi_endproc
 272              	.LFE71:
 273              		.size	read_driver_mv, .-read_driver_mv
 274              		.section	.text.CT1_Get_Current,"ax",%progbits
 275              		.align	1
 276              		.global	CT1_Get_Current
 277              		.thumb
 278              		.thumb_func
 279              		.type	CT1_Get_Current, %function
 280              	CT1_Get_Current:
 281              	.LFB72:
 144:..\common\ud3core\tasks/tsk_analog.c ****     int32_t counts = ADC_peak_GetResult16();
ARM GAS  C:\Users\chemi\AppData\Local\Temp\ccKmfC0B.s 			page 12


 282              		.loc 1 144 0
 283              		.cfi_startproc
 284              		@ args = 0, pretend = 0, frame = 0
 285              		@ frame_needed = 0, uses_anonymous_args = 0
 286 0000 08B5     		push	{r3, lr}
 287              		.cfi_def_cfa_offset 8
 288              		.cfi_offset 3, -8
 289              		.cfi_offset 14, -4
 145:..\common\ud3core\tasks/tsk_analog.c **** 	return ((ADC_peak_CountsTo_mVolts(counts) * configuration.ct1_ratio) / configuration.ct1_burden) /
 290              		.loc 1 145 0
 291 0002 FFF7FEFF 		bl	ADC_peak_GetResult16
 292              	.LVL20:
 146:..\common\ud3core\tasks/tsk_analog.c **** }
 293              		.loc 1 146 0
 294 0006 FFF7FEFF 		bl	ADC_peak_CountsTo_mVolts
 295              	.LVL21:
 296 000a 054A     		ldr	r2, .L28
 297 000c 538A     		ldrh	r3, [r2, #18]
 298 000e 5843     		muls	r0, r3, r0
 299 0010 D38A     		ldrh	r3, [r2, #22]
 300 0012 90FBF3F0 		sdiv	r0, r0, r3
 147:..\common\ud3core\tasks/tsk_analog.c **** 
 301              		.loc 1 147 0
 302 0016 6423     		movs	r3, #100
 303 0018 90FBF3F0 		sdiv	r0, r0, r3
 304 001c 08BD     		pop	{r3, pc}
 305              	.L29:
 306 001e 00BF     		.align	2
 307              	.L28:
 308 0020 00000000 		.word	configuration
 309              		.cfi_endproc
 310              	.LFE72:
 311              		.size	CT1_Get_Current, .-CT1_Get_Current
 312              		.global	__aeabi_ui2f
 313              		.global	__aeabi_fdiv
 314              		.global	__aeabi_i2f
 315              		.section	.text.CT1_Get_Current_f,"ax",%progbits
 316              		.align	1
 317              		.global	CT1_Get_Current_f
 318              		.thumb
 319              		.thumb_func
 320              		.type	CT1_Get_Current_f, %function
 321              	CT1_Get_Current_f:
 322              	.LFB73:
 149:..\common\ud3core\tasks/tsk_analog.c ****     int32_t counts = ADC_peak_GetResult16();
 323              		.loc 1 149 0
 324              		.cfi_startproc
 325              		@ args = 0, pretend = 0, frame = 0
 326              		@ frame_needed = 0, uses_anonymous_args = 0
 327 0000 38B5     		push	{r3, r4, r5, lr}
 328              		.cfi_def_cfa_offset 16
 329              		.cfi_offset 3, -16
 330              		.cfi_offset 4, -12
 331              		.cfi_offset 5, -8
 332              		.cfi_offset 14, -4
 150:..\common\ud3core\tasks/tsk_analog.c **** 	return ((float)(ADC_peak_CountsTo_Volts(counts) * 10) / (float)(configuration.ct1_burden) * config
 333              		.loc 1 150 0
ARM GAS  C:\Users\chemi\AppData\Local\Temp\ccKmfC0B.s 			page 13


 334 0002 FFF7FEFF 		bl	ADC_peak_GetResult16
 335              	.LVL22:
 151:..\common\ud3core\tasks/tsk_analog.c **** }
 336              		.loc 1 151 0
 337 0006 FFF7FEFF 		bl	ADC_peak_CountsTo_Volts
 338              	.LVL23:
 339 000a 0A49     		ldr	r1, .L31
 340 000c FFF7FEFF 		bl	__aeabi_fmul
 341              	.LVL24:
 342 0010 094C     		ldr	r4, .L31+4
 343 0012 0546     		mov	r5, r0
 344 0014 E08A     		ldrh	r0, [r4, #22]
 345 0016 FFF7FEFF 		bl	__aeabi_ui2f
 346              	.LVL25:
 347 001a 0146     		mov	r1, r0
 348 001c 2846     		mov	r0, r5
 349 001e FFF7FEFF 		bl	__aeabi_fdiv
 350              	.LVL26:
 351 0022 0546     		mov	r5, r0
 352 0024 608A     		ldrh	r0, [r4, #18]
 353 0026 FFF7FEFF 		bl	__aeabi_i2f
 354              	.LVL27:
 355 002a 0146     		mov	r1, r0
 356 002c 2846     		mov	r0, r5
 357 002e FFF7FEFF 		bl	__aeabi_fmul
 358              	.LVL28:
 152:..\common\ud3core\tasks/tsk_analog.c **** 
 359              		.loc 1 152 0
 360 0032 38BD     		pop	{r3, r4, r5, pc}
 361              	.L32:
 362              		.align	2
 363              	.L31:
 364 0034 00002041 		.word	1092616192
 365 0038 00000000 		.word	configuration
 366              		.cfi_endproc
 367              	.LFE73:
 368              		.size	CT1_Get_Current_f, .-CT1_Get_Current_f
 369              		.section	.text.init_rms_filter,"ax",%progbits
 370              		.align	1
 371              		.global	init_rms_filter
 372              		.thumb
 373              		.thumb_func
 374              		.type	init_rms_filter, %function
 375              	init_rms_filter:
 376              	.LFB74:
 154:..\common\ud3core\tasks/tsk_analog.c **** 	ptr->rms = init_val;
 377              		.loc 1 154 0
 378              		.cfi_startproc
 379              		@ args = 0, pretend = 0, frame = 0
 380              		@ frame_needed = 0, uses_anonymous_args = 0
 381              		@ link register save eliminated.
 382              	.LVL29:
 155:..\common\ud3core\tasks/tsk_analog.c **** 	ptr->sum_squares = 1UL * SAMPLES_COUNT * init_val * init_val;
 383              		.loc 1 155 0
 384 0000 0180     		strh	r1, [r0]	@ movhi
 156:..\common\ud3core\tasks/tsk_analog.c **** }
 385              		.loc 1 156 0
ARM GAS  C:\Users\chemi\AppData\Local\Temp\ccKmfC0B.s 			page 14


 386 0002 4943     		muls	r1, r1, r1
 387              	.LVL30:
 388 0004 0023     		movs	r3, #0
 389 0006 C902     		lsls	r1, r1, #11
 390 0008 8160     		str	r1, [r0, #8]
 391 000a C360     		str	r3, [r0, #12]
 392 000c 7047     		bx	lr
 393              		.cfi_endproc
 394              	.LFE74:
 395              		.size	init_rms_filter, .-init_rms_filter
 396              		.global	__aeabi_uldivmod
 397              		.section	.text.rms_filter,"ax",%progbits
 398              		.align	1
 399              		.global	rms_filter
 400              		.thumb
 401              		.thumb_func
 402              		.type	rms_filter, %function
 403              	rms_filter:
 404              	.LFB75:
 159:..\common\ud3core\tasks/tsk_analog.c **** 	ptr->sum_squares -= ptr->sum_squares / SAMPLES_COUNT;
 405              		.loc 1 159 0
 406              		.cfi_startproc
 407              		@ args = 0, pretend = 0, frame = 0
 408              		@ frame_needed = 0, uses_anonymous_args = 0
 409              	.LVL31:
 160:..\common\ud3core\tasks/tsk_analog.c **** 	ptr->sum_squares += (int32_t)sample * sample;
 410              		.loc 1 160 0
 411 0000 D0E90223 		ldrd	r2, [r0, #8]
 159:..\common\ud3core\tasks/tsk_analog.c **** 	ptr->sum_squares -= ptr->sum_squares / SAMPLES_COUNT;
 412              		.loc 1 159 0
 413 0004 2DE97043 		push	{r4, r5, r6, r8, r9, lr}
 414              		.cfi_def_cfa_offset 24
 415              		.cfi_offset 4, -24
 416              		.cfi_offset 5, -20
 417              		.cfi_offset 6, -16
 418              		.cfi_offset 8, -12
 419              		.cfi_offset 9, -8
 420              		.cfi_offset 14, -4
 161:..\common\ud3core\tasks/tsk_analog.c **** 	if (ptr->rms == 0)
 421              		.loc 1 161 0
 422 0008 D40A     		lsrs	r4, r2, #11
 423 000a 44EA4354 		orr	r4, r4, r3, lsl #21
 424 000e DD0A     		lsrs	r5, r3, #11
 425 0010 141B     		subs	r4, r2, r4
 426 0012 63EB0505 		sbc	r5, r3, r5
 427 0016 C1FB0145 		smlal	r4, r5, r1, r1
 162:..\common\ud3core\tasks/tsk_analog.c **** 		ptr->rms = 1; /* do not divide by zero */
 428              		.loc 1 162 0
 429 001a 0388     		ldrh	r3, [r0]
 159:..\common\ud3core\tasks/tsk_analog.c **** 	ptr->sum_squares -= ptr->sum_squares / SAMPLES_COUNT;
 430              		.loc 1 159 0
 431 001c 0646     		mov	r6, r0
 161:..\common\ud3core\tasks/tsk_analog.c **** 	if (ptr->rms == 0)
 432              		.loc 1 161 0
 433 001e C0E90245 		strd	r4, [r0, #8]
 162:..\common\ud3core\tasks/tsk_analog.c **** 		ptr->rms = 1; /* do not divide by zero */
 434              		.loc 1 162 0
ARM GAS  C:\Users\chemi\AppData\Local\Temp\ccKmfC0B.s 			page 15


 435 0022 0BB9     		cbnz	r3, .L35
 163:..\common\ud3core\tasks/tsk_analog.c **** 	ptr->rms = (ptr->rms + ptr->sum_squares / SAMPLES_COUNT / ptr->rms) / 2;
 436              		.loc 1 163 0
 437 0024 0123     		movs	r3, #1
 438 0026 0380     		strh	r3, [r0]	@ movhi
 439              	.L35:
 164:..\common\ud3core\tasks/tsk_analog.c **** 	return ptr->rms;
 440              		.loc 1 164 0
 441 0028 B6F80080 		ldrh	r8, [r6]
 442 002c 4FF00009 		mov	r9, #0
 443 0030 E00A     		lsrs	r0, r4, #11
 444              	.LVL32:
 445 0032 4246     		mov	r2, r8
 446 0034 4B46     		mov	r3, r9
 447 0036 40EA4550 		orr	r0, r0, r5, lsl #21
 448 003a E90A     		lsrs	r1, r5, #11
 449              	.LVL33:
 450 003c FFF7FEFF 		bl	__aeabi_uldivmod
 451              	.LVL34:
 452 0040 10EB0800 		adds	r0, r0, r8
 453 0044 41EB0901 		adc	r1, r1, r9
 454 0048 4908     		movs	r1, r1, lsr #1
 455 004a 4FEA3000 		mov	r0, r0, rrx
 456 004e 80B2     		uxth	r0, r0
 457 0050 3080     		strh	r0, [r6]	@ movhi
 166:..\common\ud3core\tasks/tsk_analog.c **** 
 458              		.loc 1 166 0
 459 0052 BDE87083 		pop	{r4, r5, r6, r8, r9, pc}
 460              		.cfi_endproc
 461              	.LFE75:
 462              		.size	rms_filter, .-rms_filter
 463              		.section	.text.init_average_filter,"ax",%progbits
 464              		.align	1
 465              		.global	init_average_filter
 466              		.thumb
 467              		.thumb_func
 468              		.type	init_average_filter, %function
 469              	init_average_filter:
 470              	.LFB76:
 168:..\common\ud3core\tasks/tsk_analog.c **** 	*ptr = 1UL * SAMPLES_COUNT * init_val;
 471              		.loc 1 168 0
 472              		.cfi_startproc
 473              		@ args = 0, pretend = 0, frame = 0
 474              		@ frame_needed = 0, uses_anonymous_args = 0
 475              		@ link register save eliminated.
 476              	.LVL35:
 169:..\common\ud3core\tasks/tsk_analog.c **** }
 477              		.loc 1 169 0
 478 0000 C902     		lsls	r1, r1, #11
 479              	.LVL36:
 480 0002 0160     		str	r1, [r0]
 481 0004 7047     		bx	lr
 482              		.cfi_endproc
 483              	.LFE76:
 484              		.size	init_average_filter, .-init_average_filter
 485              		.section	.text.average_filter,"ax",%progbits
 486              		.align	1
ARM GAS  C:\Users\chemi\AppData\Local\Temp\ccKmfC0B.s 			page 16


 487              		.global	average_filter
 488              		.thumb
 489              		.thumb_func
 490              		.type	average_filter, %function
 491              	average_filter:
 492              	.LFB77:
 172:..\common\ud3core\tasks/tsk_analog.c **** 	*ptr -= *ptr / SAMPLES_COUNT;
 493              		.loc 1 172 0
 494              		.cfi_startproc
 495              		@ args = 0, pretend = 0, frame = 0
 496              		@ frame_needed = 0, uses_anonymous_args = 0
 497              		@ link register save eliminated.
 498              	.LVL37:
 173:..\common\ud3core\tasks/tsk_analog.c **** 	*ptr += (uint32_t)sample;
 499              		.loc 1 173 0
 500 0000 0368     		ldr	r3, [r0]
 175:..\common\ud3core\tasks/tsk_analog.c **** 	return *ptr;
 501              		.loc 1 175 0
 502 0002 1944     		add	r1, r1, r3
 503              	.LVL38:
 504 0004 A1EBD321 		sub	r1, r1, r3, lsr #11
 505 0008 C90A     		lsrs	r1, r1, #11
 506 000a 0160     		str	r1, [r0]
 177:..\common\ud3core\tasks/tsk_analog.c **** 
 507              		.loc 1 177 0
 508 000c 88B2     		uxth	r0, r1
 509              	.LVL39:
 510 000e 7047     		bx	lr
 511              		.cfi_endproc
 512              	.LFE77:
 513              		.size	average_filter, .-average_filter
 514              		.section	.text.initialize_analogs,"ax",%progbits
 515              		.align	1
 516              		.global	initialize_analogs
 517              		.thumb
 518              		.thumb_func
 519              		.type	initialize_analogs, %function
 520              	initialize_analogs:
 521              	.LFB79:
 215:..\common\ud3core\tasks/tsk_analog.c ****     ADC_peak_Start();
 522              		.loc 1 215 0
 523              		.cfi_startproc
 524              		@ args = 0, pretend = 0, frame = 0
 525              		@ frame_needed = 0, uses_anonymous_args = 0
 526 0000 70B5     		push	{r4, r5, r6, lr}
 527              		.cfi_def_cfa_offset 16
 528              		.cfi_offset 4, -16
 529              		.cfi_offset 5, -12
 530              		.cfi_offset 6, -8
 531              		.cfi_offset 14, -4
 216:..\common\ud3core\tasks/tsk_analog.c **** 	Sample_Hold_1_Start();
 532              		.loc 1 216 0
 533 0002 FFF7FEFF 		bl	ADC_peak_Start
 534              	.LVL40:
 217:..\common\ud3core\tasks/tsk_analog.c **** 	Comp_1_Start();
 535              		.loc 1 217 0
 536 0006 FFF7FEFF 		bl	Sample_Hold_1_Start
ARM GAS  C:\Users\chemi\AppData\Local\Temp\ccKmfC0B.s 			page 17


 537              	.LVL41:
 218:..\common\ud3core\tasks/tsk_analog.c **** 
 538              		.loc 1 218 0
 539 000a FFF7FEFF 		bl	Comp_1_Start
 540              	.LVL42:
 225:..\common\ud3core\tasks/tsk_analog.c **** 	ADC_DMA_TD[0] = CyDmaTdAllocate();
 541              		.loc 1 225 0
 542 000e 41F6FF73 		movw	r3, #8191
 543 0012 4FF48042 		mov	r2, #16384
 544 0016 0121     		movs	r1, #1
 545 0018 0220     		movs	r0, #2
 546 001a FFF7FEFF 		bl	ADC_DMA_DmaInitialize
 547              	.LVL43:
 548 001e 0646     		mov	r6, r0
 549              	.LVL44:
 226:..\common\ud3core\tasks/tsk_analog.c ****     ADC_DMA_TD[1] = CyDmaTdAllocate();
 550              		.loc 1 226 0
 551 0020 FFF7FEFF 		bl	CyDmaTdAllocate
 552              	.LVL45:
 553 0024 0446     		mov	r4, r0
 554              	.LVL46:
 227:..\common\ud3core\tasks/tsk_analog.c **** 	CyDmaTdSetConfiguration(ADC_DMA_TD[0], 8*ADC_BUFFER_CNT, ADC_DMA_TD[1], ADC_DMA__TD_TERMOUT_EN | T
 555              		.loc 1 227 0
 556 0026 FFF7FEFF 		bl	CyDmaTdAllocate
 557              	.LVL47:
 558 002a 0546     		mov	r5, r0
 559              	.LVL48:
 228:..\common\ud3core\tasks/tsk_analog.c ****     CyDmaTdSetConfiguration(ADC_DMA_TD[1], 8*ADC_BUFFER_CNT, ADC_DMA_TD[0], ADC_DMA__TD_TERMOUT_EN 
 560              		.loc 1 228 0
 561 002c 0246     		mov	r2, r0
 562 002e 0623     		movs	r3, #6
 563 0030 C821     		movs	r1, #200
 564 0032 2046     		mov	r0, r4
 565              	.LVL49:
 566 0034 FFF7FEFF 		bl	CyDmaTdSetConfiguration
 567              	.LVL50:
 229:..\common\ud3core\tasks/tsk_analog.c **** 	CyDmaTdSetAddress(ADC_DMA_TD[0], LO16((uint32)ADC_SAR_WRK0_PTR), LO16((uint32)ADC_sample_buf_0));
 568              		.loc 1 229 0
 569 0038 0623     		movs	r3, #6
 570 003a 2246     		mov	r2, r4
 571 003c C821     		movs	r1, #200
 572 003e 2846     		mov	r0, r5
 573 0040 FFF7FEFF 		bl	CyDmaTdSetConfiguration
 574              	.LVL51:
 230:..\common\ud3core\tasks/tsk_analog.c ****     CyDmaTdSetAddress(ADC_DMA_TD[1], LO16((uint32)ADC_SAR_WRK0_PTR), LO16((uint32)ADC_sample_buf_1)
 575              		.loc 1 230 0
 576 0044 214A     		ldr	r2, .L39
 577 0046 45F6A231 		movw	r1, #23458
 578 004a 92B2     		uxth	r2, r2
 579 004c 2046     		mov	r0, r4
 580 004e FFF7FEFF 		bl	CyDmaTdSetAddress
 581              	.LVL52:
 231:..\common\ud3core\tasks/tsk_analog.c **** 	CyDmaChSetInitialTd(ADC_DMA_Chan, ADC_DMA_TD[0]);
 582              		.loc 1 231 0
 583 0052 1F4A     		ldr	r2, .L39+4
 584 0054 45F6A231 		movw	r1, #23458
 585 0058 92B2     		uxth	r2, r2
ARM GAS  C:\Users\chemi\AppData\Local\Temp\ccKmfC0B.s 			page 18


 586 005a 2846     		mov	r0, r5
 587 005c FFF7FEFF 		bl	CyDmaTdSetAddress
 588              	.LVL53:
 232:..\common\ud3core\tasks/tsk_analog.c **** 	CyDmaChEnable(ADC_DMA_Chan, 1);
 589              		.loc 1 232 0
 590 0060 2146     		mov	r1, r4
 591 0062 3046     		mov	r0, r6
 592 0064 FFF7FEFF 		bl	CyDmaChSetInitialTd
 593              	.LVL54:
 233:..\common\ud3core\tasks/tsk_analog.c **** 
 594              		.loc 1 233 0
 595 0068 0121     		movs	r1, #1
 596 006a 3046     		mov	r0, r6
 597 006c FFF7FEFF 		bl	CyDmaChEnable
 598              	.LVL55:
 241:..\common\ud3core\tasks/tsk_analog.c **** 	MUX_DMA_TD[0] = CyDmaTdAllocate();
 599              		.loc 1 241 0
 600 0070 0121     		movs	r1, #1
 601 0072 4FF48043 		mov	r3, #16384
 602 0076 41F6FF72 		movw	r2, #8191
 603 007a 0846     		mov	r0, r1
 604 007c FFF7FEFF 		bl	MUX_DMA_DmaInitialize
 605              	.LVL56:
 606 0080 0546     		mov	r5, r0
 607              	.LVL57:
 242:..\common\ud3core\tasks/tsk_analog.c **** 	CyDmaTdSetConfiguration(MUX_DMA_TD[0], 4, MUX_DMA_TD[0], CY_DMA_TD_INC_SRC_ADR);
 608              		.loc 1 242 0
 609 0082 FFF7FEFF 		bl	CyDmaTdAllocate
 610              	.LVL58:
 611 0086 0446     		mov	r4, r0
 612              	.LVL59:
 243:..\common\ud3core\tasks/tsk_analog.c **** 	CyDmaTdSetAddress(MUX_DMA_TD[0], LO16((uint32)ADC_mux_ctl), LO16((uint32)Amux_Ctrl_Control_PTR));
 613              		.loc 1 243 0
 614 0088 0123     		movs	r3, #1
 615 008a 0246     		mov	r2, r0
 616 008c 0421     		movs	r1, #4
 617 008e FFF7FEFF 		bl	CyDmaTdSetConfiguration
 618              	.LVL60:
 244:..\common\ud3core\tasks/tsk_analog.c **** 	CyDmaChSetInitialTd(MUX_DMA_Chan, MUX_DMA_TD[0]);
 619              		.loc 1 244 0
 620 0092 1049     		ldr	r1, .L39+8
 621 0094 46F27242 		movw	r2, #25714
 622 0098 89B2     		uxth	r1, r1
 623 009a 2046     		mov	r0, r4
 624 009c FFF7FEFF 		bl	CyDmaTdSetAddress
 625              	.LVL61:
 245:..\common\ud3core\tasks/tsk_analog.c **** 	CyDmaChEnable(MUX_DMA_Chan, 1);
 626              		.loc 1 245 0
 627 00a0 2146     		mov	r1, r4
 628 00a2 2846     		mov	r0, r5
 629 00a4 FFF7FEFF 		bl	CyDmaChSetInitialTd
 630              	.LVL62:
 246:..\common\ud3core\tasks/tsk_analog.c ****     
 631              		.loc 1 246 0
 632 00a8 0121     		movs	r1, #1
 633 00aa 2846     		mov	r0, r5
 634 00ac FFF7FEFF 		bl	CyDmaChEnable
ARM GAS  C:\Users\chemi\AppData\Local\Temp\ccKmfC0B.s 			page 19


 635              	.LVL63:
 249:..\common\ud3core\tasks/tsk_analog.c **** 
 636              		.loc 1 249 0
 637 00b0 0948     		ldr	r0, .L39+12
 638 00b2 FFF7FEFF 		bl	ADC_data_ready_StartEx
 639              	.LVL64:
 254:..\common\ud3core\tasks/tsk_analog.c **** 
 640              		.loc 1 254 0
 641 00b6 BDE87040 		pop	{r4, r5, r6, lr}
 642              		.cfi_restore 14
 643              		.cfi_restore 6
 644              		.cfi_restore 5
 645              		.cfi_restore 4
 646              		.cfi_def_cfa_offset 0
 647              	.LVL65:
 648              	.LBB10:
 649              	.LBB11:
 155:..\common\ud3core\tasks/tsk_analog.c **** 	ptr->sum_squares = 1UL * SAMPLES_COUNT * init_val * init_val;
 650              		.loc 1 155 0
 651 00ba 084B     		ldr	r3, .L39+16
 652 00bc 0022     		movs	r2, #0
 156:..\common\ud3core\tasks/tsk_analog.c **** }
 653              		.loc 1 156 0
 654 00be 0020     		movs	r0, #0
 655 00c0 0021     		movs	r1, #0
 155:..\common\ud3core\tasks/tsk_analog.c **** 	ptr->sum_squares = 1UL * SAMPLES_COUNT * init_val * init_val;
 656              		.loc 1 155 0
 657 00c2 1A80     		strh	r2, [r3]	@ movhi
 156:..\common\ud3core\tasks/tsk_analog.c **** }
 658              		.loc 1 156 0
 659 00c4 C3E90201 		strd	r0, [r3, #8]
 660              	.LVL66:
 661              	.LBE11:
 662              	.LBE10:
 253:..\common\ud3core\tasks/tsk_analog.c **** }
 663              		.loc 1 253 0
 664 00c8 FFF7FEBF 		b	ADC_Start
 665              	.LVL67:
 666              	.L40:
 667              		.align	2
 668              	.L39:
 669 00cc 00000000 		.word	ADC_sample_buf_0
 670 00d0 00000000 		.word	ADC_sample_buf_1
 671 00d4 08000000 		.word	.LANCHOR0+8
 672 00d8 00000000 		.word	ADC_data_ready_ISR
 673 00dc 00000000 		.word	current_idc
 674              		.cfi_endproc
 675              	.LFE79:
 676              		.size	initialize_analogs, .-initialize_analogs
 677              		.section	.text.initialize_charging,"ax",%progbits
 678              		.align	1
 679              		.global	initialize_charging
 680              		.thumb
 681              		.thumb_func
 682              		.type	initialize_charging, %function
 683              	initialize_charging:
 684              	.LFB80:
ARM GAS  C:\Users\chemi\AppData\Local\Temp\ccKmfC0B.s 			page 20


 261:..\common\ud3core\tasks/tsk_analog.c **** 	tt.n.bus_status.value = BUS_OFF;
 685              		.loc 1 261 0
 686              		.cfi_startproc
 687              		@ args = 0, pretend = 0, frame = 0
 688              		@ frame_needed = 0, uses_anonymous_args = 0
 689              		@ link register save eliminated.
 262:..\common\ud3core\tasks/tsk_analog.c **** 	initial_vbus = 0;
 690              		.loc 1 262 0
 691 0000 054A     		ldr	r2, .L42
 692 0002 0023     		movs	r3, #0
 693 0004 C2F8A030 		str	r3, [r2, #160]
 263:..\common\ud3core\tasks/tsk_analog.c **** 	final_vbus = 0;
 694              		.loc 1 263 0
 695 0008 044A     		ldr	r2, .L42+4
 696 000a 1380     		strh	r3, [r2]	@ movhi
 264:..\common\ud3core\tasks/tsk_analog.c **** 	charging_counter = 0;
 697              		.loc 1 264 0
 698 000c 044A     		ldr	r2, .L42+8
 699 000e 1380     		strh	r3, [r2]	@ movhi
 265:..\common\ud3core\tasks/tsk_analog.c **** }
 700              		.loc 1 265 0
 701 0010 044A     		ldr	r2, .L42+12
 702 0012 1360     		str	r3, [r2]
 703 0014 7047     		bx	lr
 704              	.L43:
 705 0016 00BF     		.align	2
 706              	.L42:
 707 0018 00000000 		.word	tt
 708 001c 00000000 		.word	initial_vbus
 709 0020 00000000 		.word	final_vbus
 710 0024 00000000 		.word	charging_counter
 711              		.cfi_endproc
 712              	.LFE80:
 713              		.size	initialize_charging, .-initialize_charging
 714              		.section	.text.ac_precharge_bus_scheme,"ax",%progbits
 715              		.align	1
 716              		.global	ac_precharge_bus_scheme
 717              		.thumb
 718              		.thumb_func
 719              		.type	ac_precharge_bus_scheme, %function
 720              	ac_precharge_bus_scheme:
 721              	.LFB81:
 270:..\common\ud3core\tasks/tsk_analog.c **** 	//we cant know the AC line voltage so we will watch the bus voltage climb and infer when its charg
 722              		.loc 1 270 0
 723              		.cfi_startproc
 724              		@ args = 0, pretend = 0, frame = 0
 725              		@ frame_needed = 0, uses_anonymous_args = 0
 726 0000 F7B5     		push	{r0, r1, r2, r4, r5, r6, r7, lr}
 727              		.cfi_def_cfa_offset 32
 728              		.cfi_offset 4, -20
 729              		.cfi_offset 5, -16
 730              		.cfi_offset 6, -12
 731              		.cfi_offset 7, -8
 732              		.cfi_offset 14, -4
 273:..\common\ud3core\tasks/tsk_analog.c ****         tt.n.bus_status.value=BUS_BATT_UV_FLT;
 733              		.loc 1 273 0
 734 0002 2D4C     		ldr	r4, .L58
ARM GAS  C:\Users\chemi\AppData\Local\Temp\ccKmfC0B.s 			page 21


 735 0004 D4F8A000 		ldr	r0, [r4, #160]
 736 0008 0228     		cmp	r0, #2
 737 000a 11D1     		bne	.L45
 273:..\common\ud3core\tasks/tsk_analog.c ****         tt.n.bus_status.value=BUS_BATT_UV_FLT;
 738              		.loc 1 273 0 is_stmt 0 discriminator 1
 739 000c 2268     		ldr	r2, [r4]
 740 000e 132A     		cmp	r2, #19
 741 0010 0EDC     		bgt	.L45
 274:..\common\ud3core\tasks/tsk_analog.c ****         if(sysfault.bus_uv==0){
 742              		.loc 1 274 0 is_stmt 1
 743 0012 0723     		movs	r3, #7
 744 0014 C4F8A030 		str	r3, [r4, #160]
 275:..\common\ud3core\tasks/tsk_analog.c ****             alarm_push(ALM_PRIO_ALARM, "BUS: Undervoltage",tt.n.bus_v.value);
 745              		.loc 1 275 0
 746 0018 284B     		ldr	r3, .L58+4
 747 001a D979     		ldrb	r1, [r3, #7]	@ zero_extendqisi2
 748 001c 1D46     		mov	r5, r3
 749 001e 11B9     		cbnz	r1, .L46
 276:..\common\ud3core\tasks/tsk_analog.c ****         }
 750              		.loc 1 276 0
 751 0020 2749     		ldr	r1, .L58+8
 752 0022 FFF7FEFF 		bl	alarm_push
 753              	.LVL68:
 754              	.L46:
 278:..\common\ud3core\tasks/tsk_analog.c ****         bus_command=BUS_COMMAND_FAULT;
 755              		.loc 1 278 0
 756 0026 0123     		movs	r3, #1
 757 0028 EB71     		strb	r3, [r5, #7]
 279:..\common\ud3core\tasks/tsk_analog.c ****     }
 758              		.loc 1 279 0
 759 002a 264B     		ldr	r3, .L58+12
 760 002c 0222     		movs	r2, #2
 761 002e 1A70     		strb	r2, [r3]
 762              	.L45:
 281:..\common\ud3core\tasks/tsk_analog.c **** 		initial_vbus = tt.n.bus_v.value;
 763              		.loc 1 281 0
 764 0030 254D     		ldr	r5, .L58+16
 765 0032 2B68     		ldr	r3, [r5]
 766 0034 13B9     		cbnz	r3, .L47
 282:..\common\ud3core\tasks/tsk_analog.c **** 	charging_counter++;
 767              		.loc 1 282 0
 768 0036 2168     		ldr	r1, [r4]
 769 0038 244A     		ldr	r2, .L58+20
 770 003a 1180     		strh	r1, [r2]	@ movhi
 771              	.L47:
 283:..\common\ud3core\tasks/tsk_analog.c **** 	if (charging_counter > AC_PRECHARGE_TIMEOUT) {
 772              		.loc 1 283 0
 773 003c 0133     		adds	r3, r3, #1
 284:..\common\ud3core\tasks/tsk_analog.c **** 		final_vbus = tt.n.bus_v.value;
 774              		.loc 1 284 0
 775 003e 642B     		cmp	r3, #100
 283:..\common\ud3core\tasks/tsk_analog.c **** 	if (charging_counter > AC_PRECHARGE_TIMEOUT) {
 776              		.loc 1 283 0
 777 0040 2B60     		str	r3, [r5]
 284:..\common\ud3core\tasks/tsk_analog.c **** 		final_vbus = tt.n.bus_v.value;
 778              		.loc 1 284 0
 779 0042 37D9     		bls	.L44
ARM GAS  C:\Users\chemi\AppData\Local\Temp\ccKmfC0B.s 			page 22


 780              	.LBB14:
 781              	.LBB15:
 285:..\common\ud3core\tasks/tsk_analog.c **** 		delta_vbus = final_vbus - initial_vbus;
 782              		.loc 1 285 0
 783 0044 2268     		ldr	r2, [r4]
 784 0046 224B     		ldr	r3, .L58+24
 286:..\common\ud3core\tasks/tsk_analog.c **** 		if ((delta_vbus < 4) && (tt.n.bus_v.value > 20) && tt.n.bus_status.value == BUS_CHARGING) {
 785              		.loc 1 286 0
 786 0048 2249     		ldr	r1, .L58+28
 285:..\common\ud3core\tasks/tsk_analog.c **** 		delta_vbus = final_vbus - initial_vbus;
 787              		.loc 1 285 0
 788 004a 1A80     		strh	r2, [r3]	@ movhi
 286:..\common\ud3core\tasks/tsk_analog.c **** 		if ((delta_vbus < 4) && (tt.n.bus_v.value > 20) && tt.n.bus_status.value == BUS_CHARGING) {
 789              		.loc 1 286 0
 790 004c 1F4B     		ldr	r3, .L58+20
 791 004e 1B88     		ldrh	r3, [r3]
 792 0050 D31A     		subs	r3, r2, r3
 793 0052 1BB2     		sxth	r3, r3
 287:..\common\ud3core\tasks/tsk_analog.c ****             if(!timer_triggerd){
 794              		.loc 1 287 0
 795 0054 032B     		cmp	r3, #3
 286:..\common\ud3core\tasks/tsk_analog.c **** 		if ((delta_vbus < 4) && (tt.n.bus_v.value > 20) && tt.n.bus_status.value == BUS_CHARGING) {
 796              		.loc 1 286 0
 797 0056 0B80     		strh	r3, [r1]	@ movhi
 287:..\common\ud3core\tasks/tsk_analog.c ****             if(!timer_triggerd){
 798              		.loc 1 287 0
 799 0058 16DC     		bgt	.L49
 800 005a 142A     		cmp	r2, #20
 801 005c 14DD     		ble	.L49
 802 005e 164B     		ldr	r3, .L58
 803 0060 D3F8A060 		ldr	r6, [r3, #160]
 804 0064 012E     		cmp	r6, #1
 805 0066 0FD1     		bne	.L49
 288:..\common\ud3core\tasks/tsk_analog.c ****                 timer_triggerd=1;
 806              		.loc 1 288 0
 807 0068 1B4B     		ldr	r3, .L58+32
 808 006a 1C78     		ldrb	r4, [r3]	@ zero_extendqisi2
 809 006c 04BB     		cbnz	r4, .L50
 289:..\common\ud3core\tasks/tsk_analog.c **** 			    xTimerStart(xCharge_Timer,0);
 810              		.loc 1 289 0
 811 006e 1E70     		strb	r6, [r3]
 290:..\common\ud3core\tasks/tsk_analog.c ****             }
 812              		.loc 1 290 0
 813 0070 1A4B     		ldr	r3, .L58+36
 814 0072 1F68     		ldr	r7, [r3]
 815 0074 FFF7FEFF 		bl	xTaskGetTickCount
 816              	.LVL69:
 817 0078 0094     		str	r4, [sp]
 818 007a 0246     		mov	r2, r0
 819 007c 2346     		mov	r3, r4
 820 007e 3146     		mov	r1, r6
 821 0080 3846     		mov	r0, r7
 822 0082 FFF7FEFF 		bl	xTimerGenericCommand
 823              	.LVL70:
 824 0086 13E0     		b	.L50
 825              	.L49:
 292:..\common\ud3core\tasks/tsk_analog.c ****             if(tt.n.bus_status.value != BUS_CHARGING){
ARM GAS  C:\Users\chemi\AppData\Local\Temp\ccKmfC0B.s 			page 23


 826              		.loc 1 292 0
 827 0088 D4F8A030 		ldr	r3, [r4, #160]
 828 008c 022B     		cmp	r3, #2
 829 008e 0FD0     		beq	.L50
 293:..\common\ud3core\tasks/tsk_analog.c ****                 alarm_push(ALM_PRIO_INFO, "BUS: Charging", ALM_NO_VALUE);
 830              		.loc 1 293 0
 831 0090 012B     		cmp	r3, #1
 832 0092 05D0     		beq	.L51
 294:..\common\ud3core\tasks/tsk_analog.c ****             }
 833              		.loc 1 294 0
 834 0094 4FF00042 		mov	r2, #-2147483648
 835 0098 1149     		ldr	r1, .L58+40
 836 009a 0020     		movs	r0, #0
 837 009c FFF7FEFF 		bl	alarm_push
 838              	.LVL71:
 839              	.L51:
 296:..\common\ud3core\tasks/tsk_analog.c **** 			relay_write_bus(1);
 840              		.loc 1 296 0
 841 00a0 0126     		movs	r6, #1
 842 00a2 064B     		ldr	r3, .L58+4
 297:..\common\ud3core\tasks/tsk_analog.c **** 			tt.n.bus_status.value = BUS_CHARGING;
 843              		.loc 1 297 0
 844 00a4 3046     		mov	r0, r6
 296:..\common\ud3core\tasks/tsk_analog.c **** 			relay_write_bus(1);
 845              		.loc 1 296 0
 846 00a6 1E71     		strb	r6, [r3, #4]
 297:..\common\ud3core\tasks/tsk_analog.c **** 			tt.n.bus_status.value = BUS_CHARGING;
 847              		.loc 1 297 0
 848 00a8 FFF7FEFF 		bl	Relay1_Write
 849              	.LVL72:
 298:..\common\ud3core\tasks/tsk_analog.c **** 		}
 850              		.loc 1 298 0
 851 00ac C4F8A060 		str	r6, [r4, #160]
 852              	.L50:
 300:..\common\ud3core\tasks/tsk_analog.c **** 	}
 853              		.loc 1 300 0
 854 00b0 0023     		movs	r3, #0
 855 00b2 2B60     		str	r3, [r5]
 856              	.L44:
 857              	.LBE15:
 858              	.LBE14:
 302:..\common\ud3core\tasks/tsk_analog.c **** 
 859              		.loc 1 302 0
 860 00b4 03B0     		add	sp, sp, #12
 861              		.cfi_def_cfa_offset 20
 862              		@ sp needed
 863 00b6 F0BD     		pop	{r4, r5, r6, r7, pc}
 864              	.L59:
 865              		.align	2
 866              	.L58:
 867 00b8 00000000 		.word	tt
 868 00bc 00000000 		.word	sysfault
 869 00c0 14000000 		.word	.LC2
 870 00c4 00000000 		.word	bus_command
 871 00c8 00000000 		.word	charging_counter
 872 00cc 00000000 		.word	initial_vbus
 873 00d0 00000000 		.word	final_vbus
ARM GAS  C:\Users\chemi\AppData\Local\Temp\ccKmfC0B.s 			page 24


 874 00d4 00000000 		.word	delta_vbus
 875 00d8 00000000 		.word	.LANCHOR1
 876 00dc 00000000 		.word	xCharge_Timer
 877 00e0 26000000 		.word	.LC3
 878              		.cfi_endproc
 879              	.LFE81:
 880              		.size	ac_precharge_bus_scheme, .-ac_precharge_bus_scheme
 881              		.section	.text.ac_dual_meas_scheme,"ax",%progbits
 882              		.align	1
 883              		.global	ac_dual_meas_scheme
 884              		.thumb
 885              		.thumb_func
 886              		.type	ac_dual_meas_scheme, %function
 887              	ac_dual_meas_scheme:
 888              	.LFB82:
 304:..\common\ud3core\tasks/tsk_analog.c **** }
 889              		.loc 1 304 0
 890              		.cfi_startproc
 891              		@ args = 0, pretend = 0, frame = 0
 892              		@ frame_needed = 0, uses_anonymous_args = 0
 893              		@ link register save eliminated.
 894 0000 7047     		bx	lr
 895              		.cfi_endproc
 896              	.LFE82:
 897              		.size	ac_dual_meas_scheme, .-ac_dual_meas_scheme
 898              		.section	.text.ac_precharge_fixed_delay,"ax",%progbits
 899              		.align	1
 900              		.global	ac_precharge_fixed_delay
 901              		.thumb
 902              		.thumb_func
 903              		.type	ac_precharge_fixed_delay, %function
 904              	ac_precharge_fixed_delay:
 905              	.LFB83:
 307:..\common\ud3core\tasks/tsk_analog.c ****     if(!relay_read_bus() && !relay_read_charge_end()){
 906              		.loc 1 307 0
 907              		.cfi_startproc
 908              		@ args = 0, pretend = 0, frame = 0
 909              		@ frame_needed = 0, uses_anonymous_args = 0
 307:..\common\ud3core\tasks/tsk_analog.c ****     if(!relay_read_bus() && !relay_read_charge_end()){
 910              		.loc 1 307 0
 911 0000 73B5     		push	{r0, r1, r4, r5, r6, lr}
 912              		.cfi_def_cfa_offset 24
 913              		.cfi_offset 4, -16
 914              		.cfi_offset 5, -12
 915              		.cfi_offset 6, -8
 916              		.cfi_offset 14, -4
 308:..\common\ud3core\tasks/tsk_analog.c ****         alarm_push(ALM_PRIO_INFO, "BUS: Charging", ALM_NO_VALUE);
 917              		.loc 1 308 0
 918 0002 FFF7FEFF 		bl	Relay1_Read
 919              	.LVL73:
 920 0006 E0B9     		cbnz	r0, .L61
 308:..\common\ud3core\tasks/tsk_analog.c ****         alarm_push(ALM_PRIO_INFO, "BUS: Charging", ALM_NO_VALUE);
 921              		.loc 1 308 0 is_stmt 0 discriminator 1
 922 0008 FFF7FEFF 		bl	Relay2_Read
 923              	.LVL74:
 924 000c 0546     		mov	r5, r0
 925 000e C0B9     		cbnz	r0, .L61
ARM GAS  C:\Users\chemi\AppData\Local\Temp\ccKmfC0B.s 			page 25


 926              	.LBB18:
 927              	.LBB19:
 309:..\common\ud3core\tasks/tsk_analog.c ****         sysfault.charge=1;
 928              		.loc 1 309 0 is_stmt 1
 929 0010 4FF00042 		mov	r2, #-2147483648
 930 0014 0C49     		ldr	r1, .L65
 931 0016 FFF7FEFF 		bl	alarm_push
 932              	.LVL75:
 310:..\common\ud3core\tasks/tsk_analog.c ****         xTimerStart(xCharge_Timer,0);
 933              		.loc 1 310 0
 934 001a 0C4B     		ldr	r3, .L65+4
 935 001c 0124     		movs	r4, #1
 936 001e 1C71     		strb	r4, [r3, #4]
 311:..\common\ud3core\tasks/tsk_analog.c ****         relay_write_bus(1);
 937              		.loc 1 311 0
 938 0020 0B4B     		ldr	r3, .L65+8
 939 0022 1E68     		ldr	r6, [r3]
 940 0024 FFF7FEFF 		bl	xTaskGetTickCount
 941              	.LVL76:
 942 0028 2B46     		mov	r3, r5
 943 002a 0246     		mov	r2, r0
 944 002c 2146     		mov	r1, r4
 945 002e 0095     		str	r5, [sp]
 946 0030 3046     		mov	r0, r6
 947 0032 FFF7FEFF 		bl	xTimerGenericCommand
 948              	.LVL77:
 312:..\common\ud3core\tasks/tsk_analog.c ****         tt.n.bus_status.value = BUS_CHARGING;
 949              		.loc 1 312 0
 950 0036 2046     		mov	r0, r4
 951 0038 FFF7FEFF 		bl	Relay1_Write
 952              	.LVL78:
 313:..\common\ud3core\tasks/tsk_analog.c ****     }    
 953              		.loc 1 313 0
 954 003c 054B     		ldr	r3, .L65+12
 955 003e C3F8A040 		str	r4, [r3, #160]
 956              	.L61:
 957              	.LBE19:
 958              	.LBE18:
 315:..\common\ud3core\tasks/tsk_analog.c **** 
 959              		.loc 1 315 0
 960 0042 02B0     		add	sp, sp, #8
 961              		.cfi_def_cfa_offset 16
 962              		@ sp needed
 963 0044 70BD     		pop	{r4, r5, r6, pc}
 964              	.L66:
 965 0046 00BF     		.align	2
 966              	.L65:
 967 0048 26000000 		.word	.LC3
 968 004c 00000000 		.word	sysfault
 969 0050 00000000 		.word	xCharge_Timer
 970 0054 00000000 		.word	tt
 971              		.cfi_endproc
 972              	.LFE83:
 973              		.size	ac_precharge_fixed_delay, .-ac_precharge_fixed_delay
 974              		.section	.text.control_precharge,"ax",%progbits
 975              		.align	1
 976              		.global	control_precharge
ARM GAS  C:\Users\chemi\AppData\Local\Temp\ccKmfC0B.s 			page 26


 977              		.thumb
 978              		.thumb_func
 979              		.type	control_precharge, %function
 980              	control_precharge:
 981              	.LFB85:
 333:..\common\ud3core\tasks/tsk_analog.c ****     }
 334:..\common\ud3core\tasks/tsk_analog.c **** }
 335:..\common\ud3core\tasks/tsk_analog.c **** 
 336:..\common\ud3core\tasks/tsk_analog.c **** void control_precharge(void) { //this gets called from tsk_analogs.c when the ADC data set is ready
 982              		.loc 1 336 0
 983              		.cfi_startproc
 984              		@ args = 0, pretend = 0, frame = 0
 985              		@ frame_needed = 0, uses_anonymous_args = 0
 986 0000 73B5     		push	{r0, r1, r4, r5, r6, lr}
 987              		.cfi_def_cfa_offset 24
 988              		.cfi_offset 4, -16
 989              		.cfi_offset 5, -12
 990              		.cfi_offset 6, -8
 991              		.cfi_offset 14, -4
 337:..\common\ud3core\tasks/tsk_analog.c **** 
 338:..\common\ud3core\tasks/tsk_analog.c **** 	if (bus_command == BUS_COMMAND_ON) {
 992              		.loc 1 338 0
 993 0002 1B4B     		ldr	r3, .L76
 994 0004 1B78     		ldrb	r3, [r3]	@ zero_extendqisi2
 995 0006 012B     		cmp	r3, #1
 996 0008 10D1     		bne	.L68
 339:..\common\ud3core\tasks/tsk_analog.c ****         switch(configuration.ps_scheme){
 997              		.loc 1 339 0
 998 000a 1A4B     		ldr	r3, .L76+4
 999 000c 93F83530 		ldrb	r3, [r3, #53]	@ zero_extendqisi2
 1000 0010 022B     		cmp	r3, #2
 1001 0012 06D0     		beq	.L70
 1002 0014 052B     		cmp	r3, #5
 1003 0016 29D1     		bne	.L67
 340:..\common\ud3core\tasks/tsk_analog.c ****             case BAT_PRECHARGE_BUS_SCHEME:
 341:..\common\ud3core\tasks/tsk_analog.c ****                 //Not implemented
 342:..\common\ud3core\tasks/tsk_analog.c ****             break;
 343:..\common\ud3core\tasks/tsk_analog.c ****             case BAT_BOOST_BUS_SCHEME:
 344:..\common\ud3core\tasks/tsk_analog.c ****                 //Not implemented
 345:..\common\ud3core\tasks/tsk_analog.c ****             break;
 346:..\common\ud3core\tasks/tsk_analog.c ****             case AC_PRECHARGE_BUS_SCHEME:
 347:..\common\ud3core\tasks/tsk_analog.c ****                 ac_precharge_bus_scheme();
 348:..\common\ud3core\tasks/tsk_analog.c ****             break;
 349:..\common\ud3core\tasks/tsk_analog.c ****             case AC_DUAL_MEAS_SCHEME:
 350:..\common\ud3core\tasks/tsk_analog.c ****                 ac_dual_meas_scheme();      // Not implemented
 351:..\common\ud3core\tasks/tsk_analog.c ****             break;
 352:..\common\ud3core\tasks/tsk_analog.c ****             case AC_PRECHARGE_FIXED_DELAY:
 353:..\common\ud3core\tasks/tsk_analog.c ****                 ac_precharge_fixed_delay();
 354:..\common\ud3core\tasks/tsk_analog.c ****             break;
 355:..\common\ud3core\tasks/tsk_analog.c ****         } 
 356:..\common\ud3core\tasks/tsk_analog.c **** 	} else {
 357:..\common\ud3core\tasks/tsk_analog.c **** 		if ((relay_read_charge_end() || relay_read_bus()) && timer_triggerd==0){
 358:..\common\ud3core\tasks/tsk_analog.c ****             sysfault.charge=1;
 359:..\common\ud3core\tasks/tsk_analog.c **** 			relay_write_bus(1);
 360:..\common\ud3core\tasks/tsk_analog.c ****             relay_write_charge_end(0);
 361:..\common\ud3core\tasks/tsk_analog.c ****             timer_triggerd=1;
 362:..\common\ud3core\tasks/tsk_analog.c ****             xTimerStart(xCharge_Timer,0);
ARM GAS  C:\Users\chemi\AppData\Local\Temp\ccKmfC0B.s 			page 27


 363:..\common\ud3core\tasks/tsk_analog.c **** 		}
 364:..\common\ud3core\tasks/tsk_analog.c **** 	}
 365:..\common\ud3core\tasks/tsk_analog.c **** }
 1004              		.loc 1 365 0
 1005 0018 02B0     		add	sp, sp, #8
 1006              		.cfi_remember_state
 1007              		.cfi_def_cfa_offset 16
 1008              		@ sp needed
 1009 001a BDE87040 		pop	{r4, r5, r6, lr}
 1010              		.cfi_restore 14
 1011              		.cfi_restore 6
 1012              		.cfi_restore 5
 1013              		.cfi_restore 4
 1014              		.cfi_def_cfa_offset 0
 353:..\common\ud3core\tasks/tsk_analog.c ****             break;
 1015              		.loc 1 353 0
 1016 001e FFF7FEBF 		b	ac_precharge_fixed_delay
 1017              	.LVL79:
 1018              	.L70:
 1019              		.cfi_restore_state
 1020              		.loc 1 365 0
 1021 0022 02B0     		add	sp, sp, #8
 1022              		.cfi_remember_state
 1023              		.cfi_def_cfa_offset 16
 1024              		@ sp needed
 1025 0024 BDE87040 		pop	{r4, r5, r6, lr}
 1026              		.cfi_restore 14
 1027              		.cfi_restore 6
 1028              		.cfi_restore 5
 1029              		.cfi_restore 4
 1030              		.cfi_def_cfa_offset 0
 347:..\common\ud3core\tasks/tsk_analog.c ****             break;
 1031              		.loc 1 347 0
 1032 0028 FFF7FEBF 		b	ac_precharge_bus_scheme
 1033              	.LVL80:
 1034              	.L68:
 1035              		.cfi_restore_state
 357:..\common\ud3core\tasks/tsk_analog.c ****             sysfault.charge=1;
 1036              		.loc 1 357 0
 1037 002c FFF7FEFF 		bl	Relay2_Read
 1038              	.LVL81:
 1039 0030 C0B1     		cbz	r0, .L72
 1040              	.L75:
 1041 0032 114E     		ldr	r6, .L76+8
 1042 0034 3578     		ldrb	r5, [r6]	@ zero_extendqisi2
 1043 0036 CDB9     		cbnz	r5, .L67
 1044              	.LBB22:
 1045              	.LBB23:
 358:..\common\ud3core\tasks/tsk_analog.c **** 			relay_write_bus(1);
 1046              		.loc 1 358 0
 1047 0038 0124     		movs	r4, #1
 1048 003a 104B     		ldr	r3, .L76+12
 359:..\common\ud3core\tasks/tsk_analog.c ****             relay_write_charge_end(0);
 1049              		.loc 1 359 0
 1050 003c 2046     		mov	r0, r4
 358:..\common\ud3core\tasks/tsk_analog.c **** 			relay_write_bus(1);
 1051              		.loc 1 358 0
ARM GAS  C:\Users\chemi\AppData\Local\Temp\ccKmfC0B.s 			page 28


 1052 003e 1C71     		strb	r4, [r3, #4]
 359:..\common\ud3core\tasks/tsk_analog.c ****             relay_write_charge_end(0);
 1053              		.loc 1 359 0
 1054 0040 FFF7FEFF 		bl	Relay1_Write
 1055              	.LVL82:
 360:..\common\ud3core\tasks/tsk_analog.c ****             timer_triggerd=1;
 1056              		.loc 1 360 0
 1057 0044 2846     		mov	r0, r5
 1058 0046 FFF7FEFF 		bl	Relay2_Write
 1059              	.LVL83:
 362:..\common\ud3core\tasks/tsk_analog.c **** 		}
 1060              		.loc 1 362 0
 1061 004a 0D4B     		ldr	r3, .L76+16
 361:..\common\ud3core\tasks/tsk_analog.c ****             xTimerStart(xCharge_Timer,0);
 1062              		.loc 1 361 0
 1063 004c 3470     		strb	r4, [r6]
 362:..\common\ud3core\tasks/tsk_analog.c **** 		}
 1064              		.loc 1 362 0
 1065 004e 1E68     		ldr	r6, [r3]
 1066 0050 FFF7FEFF 		bl	xTaskGetTickCount
 1067              	.LVL84:
 1068 0054 0095     		str	r5, [sp]
 1069 0056 0246     		mov	r2, r0
 1070 0058 2B46     		mov	r3, r5
 1071 005a 2146     		mov	r1, r4
 1072 005c 3046     		mov	r0, r6
 1073 005e FFF7FEFF 		bl	xTimerGenericCommand
 1074              	.LVL85:
 1075              	.LBE23:
 1076              	.LBE22:
 1077              		.loc 1 365 0
 1078 0062 03E0     		b	.L67
 1079              	.L72:
 357:..\common\ud3core\tasks/tsk_analog.c ****             sysfault.charge=1;
 1080              		.loc 1 357 0 discriminator 2
 1081 0064 FFF7FEFF 		bl	Relay1_Read
 1082              	.LVL86:
 1083 0068 0028     		cmp	r0, #0
 1084 006a E2D1     		bne	.L75
 1085              	.L67:
 1086              		.loc 1 365 0
 1087 006c 02B0     		add	sp, sp, #8
 1088              		.cfi_def_cfa_offset 16
 1089              		@ sp needed
 1090 006e 70BD     		pop	{r4, r5, r6, pc}
 1091              	.L77:
 1092              		.align	2
 1093              	.L76:
 1094 0070 00000000 		.word	bus_command
 1095 0074 00000000 		.word	configuration
 1096 0078 00000000 		.word	.LANCHOR1
 1097 007c 00000000 		.word	sysfault
 1098 0080 00000000 		.word	xCharge_Timer
 1099              		.cfi_endproc
 1100              	.LFE85:
 1101              		.size	control_precharge, .-control_precharge
 1102              		.section	.text.calculate_rms,"ax",%progbits
ARM GAS  C:\Users\chemi\AppData\Local\Temp\ccKmfC0B.s 			page 29


 1103              		.align	1
 1104              		.global	calculate_rms
 1105              		.thumb
 1106              		.thumb_func
 1107              		.type	calculate_rms, %function
 1108              	calculate_rms:
 1109              	.LFB78:
 179:..\common\ud3core\tasks/tsk_analog.c ****     
 1110              		.loc 1 179 0
 1111              		.cfi_startproc
 1112              		@ args = 0, pretend = 0, frame = 0
 1113              		@ frame_needed = 0, uses_anonymous_args = 0
 1114              	.LVL87:
 1115 0000 2DE9F843 		push	{r3, r4, r5, r6, r7, r8, r9, lr}
 1116              		.cfi_def_cfa_offset 32
 1117              		.cfi_offset 3, -32
 1118              		.cfi_offset 4, -28
 1119              		.cfi_offset 5, -24
 1120              		.cfi_offset 6, -20
 1121              		.cfi_offset 7, -16
 1122              		.cfi_offset 8, -12
 1123              		.cfi_offset 9, -8
 1124              		.cfi_offset 14, -4
 1125              	.LBB24:
 186:..\common\ud3core\tasks/tsk_analog.c **** 
 1126              		.loc 1 186 0
 1127 0004 324E     		ldr	r6, .L84
 1128              	.LBE24:
 179:..\common\ud3core\tasks/tsk_analog.c ****     
 1129              		.loc 1 179 0
 1130 0006 0024     		movs	r4, #0
 181:..\common\ud3core\tasks/tsk_analog.c ****     
 1131              		.loc 1 181 0
 1132 0008 2546     		mov	r5, r4
 1133 000a B046     		mov	r8, r6
 1134              	.LBB25:
 186:..\common\ud3core\tasks/tsk_analog.c **** 
 1135              		.loc 1 186 0
 1136 000c 314F     		ldr	r7, .L84+4
 1137              	.LVL88:
 1138              	.L81:
 1139 000e 3B68     		ldr	r3, [r7]
 1140 0010 3148     		ldr	r0, .L84+8
 1141 0012 2344     		add	r3, r3, r4
 1142 0014 B3F90210 		ldrsh	r1, [r3, #2]
 1143 0018 FFF7FEFF 		bl	rms_filter
 1144              	.LVL89:
 1145 001c FFF7FEFF 		bl	read_bus_mv
 1146              	.LVL90:
 1147 0020 4FF47A79 		mov	r9, #1000
 1148 0024 B0FBF9F0 		udiv	r0, r0, r9
 189:..\common\ud3core\tasks/tsk_analog.c **** 
 1149              		.loc 1 189 0
 1150 0028 3B68     		ldr	r3, [r7]
 186:..\common\ud3core\tasks/tsk_analog.c **** 
 1151              		.loc 1 186 0
 1152 002a 3062     		str	r0, [r6, #32]
ARM GAS  C:\Users\chemi\AppData\Local\Temp\ccKmfC0B.s 			page 30


 189:..\common\ud3core\tasks/tsk_analog.c **** 
 1153              		.loc 1 189 0
 1154 002c 195F     		ldrsh	r1, [r3, r4]
 1155 002e 2B48     		ldr	r0, .L84+12
 1156 0030 FFF7FEFF 		bl	rms_filter
 1157              	.LVL91:
 1158 0034 FFF7FEFF 		bl	read_bus_mv
 1159              	.LVL92:
 1160 0038 B0FBF9F0 		udiv	r0, r0, r9
 192:..\common\ud3core\tasks/tsk_analog.c **** 		    tt.n.batt_i.value = (((uint32_t)rms_filter(&current_idc, ADC_active_sample_buf[i].i_bus) * pa
 1161              		.loc 1 192 0
 1162 003c 284B     		ldr	r3, .L84+16
 189:..\common\ud3core\tasks/tsk_analog.c **** 
 1163              		.loc 1 189 0
 1164 003e 3060     		str	r0, [r6]
 192:..\common\ud3core\tasks/tsk_analog.c **** 		    tt.n.batt_i.value = (((uint32_t)rms_filter(&current_idc, ADC_active_sample_buf[i].i_bus) * pa
 1165              		.loc 1 192 0
 1166 0040 93F84C30 		ldrb	r3, [r3, #76]	@ zero_extendqisi2
 1167 0044 DFF8A490 		ldr	r9, .L84+28
 1168 0048 73B9     		cbnz	r3, .L79
 193:..\common\ud3core\tasks/tsk_analog.c ****         }else{
 1169              		.loc 1 193 0
 1170 004a 3B68     		ldr	r3, [r7]
 1171 004c 2548     		ldr	r0, .L84+20
 1172 004e 2344     		add	r3, r3, r4
 1173 0050 B3F90410 		ldrsh	r1, [r3, #4]
 1174 0054 FFF7FEFF 		bl	rms_filter
 1175              	.LVL93:
 1176 0058 B9F81630 		ldrh	r3, [r9, #22]
 1177 005c 9BB2     		uxth	r3, r3
 1178 005e 5843     		muls	r0, r3, r0
 1179 0060 6423     		movs	r3, #100
 1180 0062 B0FBF3F0 		udiv	r0, r0, r3
 1181 0066 10E0     		b	.L83
 1182              	.L79:
 195:..\common\ud3core\tasks/tsk_analog.c ****         }
 1183              		.loc 1 195 0
 1184 0068 3B68     		ldr	r3, [r7]
 1185 006a B9F81810 		ldrh	r1, [r9, #24]
 1186 006e 2344     		add	r3, r3, r4
 1187 0070 9B88     		ldrh	r3, [r3, #4]
 1188 0072 1C48     		ldr	r0, .L84+20
 1189 0074 591A     		subs	r1, r3, r1
 1190 0076 09B2     		sxth	r1, r1
 1191 0078 FFF7FEFF 		bl	rms_filter
 1192              	.LVL94:
 1193 007c B9F81630 		ldrh	r3, [r9, #22]
 1194 0080 9BB2     		uxth	r3, r3
 1195 0082 5843     		muls	r0, r3, r0
 1196 0084 6423     		movs	r3, #100
 1197 0086 90FBF3F0 		sdiv	r0, r0, r3
 1198              	.L83:
 1199 008a C6F8E000 		str	r0, [r6, #224]
 198:..\common\ud3core\tasks/tsk_analog.c ****         
 1200              		.loc 1 198 0
 1201 008e D8F8E020 		ldr	r2, [r8, #224]
 1202 0092 D8F80030 		ldr	r3, [r8]
ARM GAS  C:\Users\chemi\AppData\Local\Temp\ccKmfC0B.s 			page 31


 1203 0096 5343     		muls	r3, r2, r3
 1204 0098 0A22     		movs	r2, #10
 1205 009a 93FBF2F3 		sdiv	r3, r3, r2
 1206 009e C8F8C030 		str	r3, [r8, #192]
 200:..\common\ud3core\tasks/tsk_analog.c ****         
 1207              		.loc 1 200 0
 1208 00a2 0C4B     		ldr	r3, .L84+4
 1209 00a4 1B68     		ldr	r3, [r3]
 1210 00a6 2344     		add	r3, r3, r4
 1211 00a8 DB88     		ldrh	r3, [r3, #6]
 1212 00aa 0834     		adds	r4, r4, #8
 183:..\common\ud3core\tasks/tsk_analog.c **** 
 1213              		.loc 1 183 0
 1214 00ac C82C     		cmp	r4, #200
 200:..\common\ud3core\tasks/tsk_analog.c ****         
 1215              		.loc 1 200 0
 1216 00ae 1D44     		add	r5, r5, r3
 1217              	.LVL95:
 183:..\common\ud3core\tasks/tsk_analog.c **** 
 1218              		.loc 1 183 0
 1219 00b0 ADD1     		bne	.L81
 1220              	.LBE25:
 204:..\common\ud3core\tasks/tsk_analog.c ****     
 1221              		.loc 1 204 0
 1222 00b2 1923     		movs	r3, #25
 1223 00b4 B5FBF3F5 		udiv	r5, r5, r3
 1224              	.LVL96:
 1225 00b8 0B4B     		ldr	r3, .L84+24
 1226 00ba 5D60     		str	r5, [r3, #4]
 206:..\common\ud3core\tasks/tsk_analog.c ****       
 1227              		.loc 1 206 0
 1228 00bc FFF7FEFF 		bl	CT1_Get_Current
 1229              	.LVL97:
 1230 00c0 034B     		ldr	r3, .L84
 1231 00c2 C3F82001 		str	r0, [r3, #288]
 211:..\common\ud3core\tasks/tsk_analog.c **** 
 1232              		.loc 1 211 0
 1233 00c6 BDE8F843 		pop	{r3, r4, r5, r6, r7, r8, r9, lr}
 1234              		.cfi_restore 14
 1235              		.cfi_restore 9
 1236              		.cfi_restore 8
 1237              		.cfi_restore 7
 1238              		.cfi_restore 6
 1239              		.cfi_restore 5
 1240              		.cfi_restore 4
 1241              		.cfi_restore 3
 1242              		.cfi_def_cfa_offset 0
 209:..\common\ud3core\tasks/tsk_analog.c **** 
 1243              		.loc 1 209 0
 1244 00ca FFF7FEBF 		b	control_precharge
 1245              	.LVL98:
 1246              	.L85:
 1247 00ce 00BF     		.align	2
 1248              	.L84:
 1249 00d0 00000000 		.word	tt
 1250 00d4 00000000 		.word	.LANCHOR0
 1251 00d8 00000000 		.word	voltage_batt
ARM GAS  C:\Users\chemi\AppData\Local\Temp\ccKmfC0B.s 			page 32


 1252 00dc 00000000 		.word	voltage_bus
 1253 00e0 00000000 		.word	configuration
 1254 00e4 00000000 		.word	current_idc
 1255 00e8 00000000 		.word	.LANCHOR1
 1256 00ec 00000000 		.word	params
 1257              		.cfi_endproc
 1258              	.LFE78:
 1259              		.size	calculate_rms, .-calculate_rms
 1260              		.section	.text.tsk_analog_TaskProc,"ax",%progbits
 1261              		.align	1
 1262              		.global	tsk_analog_TaskProc
 1263              		.thumb
 1264              		.thumb_func
 1265              		.type	tsk_analog_TaskProc, %function
 1266              	tsk_analog_TaskProc:
 1267              	.LFB87:
 366:..\common\ud3core\tasks/tsk_analog.c **** 
 367:..\common\ud3core\tasks/tsk_analog.c **** void reconfig_charge_timer(){
 368:..\common\ud3core\tasks/tsk_analog.c ****     if(xCharge_Timer!=NULL){
 369:..\common\ud3core\tasks/tsk_analog.c ****         xTimerChangePeriod(xCharge_Timer,configuration.chargedelay / portTICK_PERIOD_MS,0);
 370:..\common\ud3core\tasks/tsk_analog.c ****     }
 371:..\common\ud3core\tasks/tsk_analog.c **** }
 372:..\common\ud3core\tasks/tsk_analog.c **** 
 373:..\common\ud3core\tasks/tsk_analog.c **** 
 374:..\common\ud3core\tasks/tsk_analog.c **** /* `#END` */
 375:..\common\ud3core\tasks/tsk_analog.c **** /* ------------------------------------------------------------------------ */
 376:..\common\ud3core\tasks/tsk_analog.c **** /*
 377:..\common\ud3core\tasks/tsk_analog.c ****  * This is the main procedure that comprises the task.  Place the code required
 378:..\common\ud3core\tasks/tsk_analog.c ****  * to preform the desired function within the merge regions of the task procedure
 379:..\common\ud3core\tasks/tsk_analog.c ****  * to add functionality to the task.
 380:..\common\ud3core\tasks/tsk_analog.c ****  */
 381:..\common\ud3core\tasks/tsk_analog.c **** void tsk_analog_TaskProc(void *pvParameters) {
 1268              		.loc 1 381 0
 1269              		.cfi_startproc
 1270              		@ Volatile: function does not return.
 1271              		@ args = 0, pretend = 0, frame = 0
 1272              		@ frame_needed = 0, uses_anonymous_args = 0
 1273              	.LVL99:
 1274 0000 07B5     		push	{r0, r1, r2, lr}
 1275              		.cfi_def_cfa_offset 16
 1276              		.cfi_offset 14, -4
 382:..\common\ud3core\tasks/tsk_analog.c **** 	/*
 383:..\common\ud3core\tasks/tsk_analog.c **** 	 * Add and initialize local variables that are allocated on the Task stack
 384:..\common\ud3core\tasks/tsk_analog.c **** 	 * the the section below.
 385:..\common\ud3core\tasks/tsk_analog.c **** 	 */
 386:..\common\ud3core\tasks/tsk_analog.c **** 	/* `#START TASK_VARIABLES` */
 387:..\common\ud3core\tasks/tsk_analog.c **** 
 388:..\common\ud3core\tasks/tsk_analog.c **** 	//adc_data = xQueueCreate(128, sizeof(ADC_sample));
 389:..\common\ud3core\tasks/tsk_analog.c ****     
 390:..\common\ud3core\tasks/tsk_analog.c ****     xCharge_Timer = xTimerCreate("Chrg-Tmr", configuration.chargedelay / portTICK_PERIOD_MS, pdFALS
 1277              		.loc 1 390 0
 1278 0002 124B     		ldr	r3, .L88
 1279 0004 1248     		ldr	r0, .L88+4
 1280              	.LVL100:
 1281 0006 B3F85810 		ldrh	r1, [r3, #88]
 1282 000a 124B     		ldr	r3, .L88+8
 391:..\common\ud3core\tasks/tsk_analog.c **** 
ARM GAS  C:\Users\chemi\AppData\Local\Temp\ccKmfC0B.s 			page 33


 392:..\common\ud3core\tasks/tsk_analog.c ****     /* `#END` */
 393:..\common\ud3core\tasks/tsk_analog.c **** 
 394:..\common\ud3core\tasks/tsk_analog.c **** 	/*
 395:..\common\ud3core\tasks/tsk_analog.c **** 	 * Add the task initialzation code in the below merge region to be included
 396:..\common\ud3core\tasks/tsk_analog.c **** 	 * in the task.
 397:..\common\ud3core\tasks/tsk_analog.c **** 	 */
 398:..\common\ud3core\tasks/tsk_analog.c **** 	/* `#START TASK_INIT_CODE` */
 399:..\common\ud3core\tasks/tsk_analog.c ****     
 400:..\common\ud3core\tasks/tsk_analog.c **** 	adc_ready_Semaphore = xSemaphoreCreateBinary();
 1283              		.loc 1 400 0
 1284 000c 124C     		ldr	r4, .L88+12
 390:..\common\ud3core\tasks/tsk_analog.c **** 
 1285              		.loc 1 390 0
 1286 000e 0093     		str	r3, [sp]
 1287 0010 0023     		movs	r3, #0
 1288 0012 1A46     		mov	r2, r3
 1289 0014 FFF7FEFF 		bl	xTimerCreate
 1290              	.LVL101:
 1291 0018 104B     		ldr	r3, .L88+16
 1292              		.loc 1 400 0
 1293 001a 0322     		movs	r2, #3
 390:..\common\ud3core\tasks/tsk_analog.c **** 
 1294              		.loc 1 390 0
 1295 001c 1860     		str	r0, [r3]
 1296              		.loc 1 400 0
 1297 001e 0021     		movs	r1, #0
 1298 0020 0120     		movs	r0, #1
 1299 0022 FFF7FEFF 		bl	xQueueGenericCreate
 1300              	.LVL102:
 1301 0026 2060     		str	r0, [r4]
 401:..\common\ud3core\tasks/tsk_analog.c ****     
 402:..\common\ud3core\tasks/tsk_analog.c **** 	initialize_analogs();
 1302              		.loc 1 402 0
 1303 0028 FFF7FEFF 		bl	initialize_analogs
 1304              	.LVL103:
 403:..\common\ud3core\tasks/tsk_analog.c ****     
 404:..\common\ud3core\tasks/tsk_analog.c ****     CyGlobalIntEnable;
 1305              		.loc 1 404 0
 1306              		.syntax unified
 1307              	@ 404 "..\common\ud3core\tasks\tsk_analog.c" 1
 1308 002c 62B6     		CPSIE   i
 1309              	@ 0 "" 2
 405:..\common\ud3core\tasks/tsk_analog.c **** 
 406:..\common\ud3core\tasks/tsk_analog.c ****     
 407:..\common\ud3core\tasks/tsk_analog.c ****     alarm_push(ALM_PRIO_INFO,"TASK: Analog started" , ALM_NO_VALUE);
 1310              		.loc 1 407 0
 1311              		.thumb
 1312              		.syntax unified
 1313 002e 4FF00042 		mov	r2, #-2147483648
 1314 0032 0B49     		ldr	r1, .L88+20
 1315 0034 0020     		movs	r0, #0
 1316 0036 FFF7FEFF 		bl	alarm_push
 1317              	.LVL104:
 1318              	.L87:
 408:..\common\ud3core\tasks/tsk_analog.c **** 
 409:..\common\ud3core\tasks/tsk_analog.c **** 	/* `#END` */
 410:..\common\ud3core\tasks/tsk_analog.c **** 
ARM GAS  C:\Users\chemi\AppData\Local\Temp\ccKmfC0B.s 			page 34


 411:..\common\ud3core\tasks/tsk_analog.c **** 	for (;;) {
 412:..\common\ud3core\tasks/tsk_analog.c **** 		/* `#START TASK_LOOP_CODE` */
 413:..\common\ud3core\tasks/tsk_analog.c **** 		xSemaphoreTake(adc_ready_Semaphore, portMAX_DELAY);
 1319              		.loc 1 413 0 discriminator 1
 1320 003a 4FF0FF31 		mov	r1, #-1
 1321 003e 2068     		ldr	r0, [r4]
 1322 0040 FFF7FEFF 		bl	xQueueSemaphoreTake
 1323              	.LVL105:
 414:..\common\ud3core\tasks/tsk_analog.c **** 		calculate_rms();
 1324              		.loc 1 414 0 discriminator 1
 1325 0044 FFF7FEFF 		bl	calculate_rms
 1326              	.LVL106:
 1327 0048 F7E7     		b	.L87
 1328              	.L89:
 1329 004a 00BF     		.align	2
 1330              	.L88:
 1331 004c 00000000 		.word	configuration
 1332 0050 34000000 		.word	.LC4
 1333 0054 00000000 		.word	vCharge_Timer_Callback
 1334 0058 00000000 		.word	adc_ready_Semaphore
 1335 005c 00000000 		.word	xCharge_Timer
 1336 0060 3D000000 		.word	.LC5
 1337              		.cfi_endproc
 1338              	.LFE87:
 1339              		.size	tsk_analog_TaskProc, .-tsk_analog_TaskProc
 1340              		.section	.text.reconfig_charge_timer,"ax",%progbits
 1341              		.align	1
 1342              		.global	reconfig_charge_timer
 1343              		.thumb
 1344              		.thumb_func
 1345              		.type	reconfig_charge_timer, %function
 1346              	reconfig_charge_timer:
 1347              	.LFB86:
 367:..\common\ud3core\tasks/tsk_analog.c ****     if(xCharge_Timer!=NULL){
 1348              		.loc 1 367 0
 1349              		.cfi_startproc
 1350              		@ args = 0, pretend = 0, frame = 0
 1351              		@ frame_needed = 0, uses_anonymous_args = 0
 368:..\common\ud3core\tasks/tsk_analog.c ****         xTimerChangePeriod(xCharge_Timer,configuration.chargedelay / portTICK_PERIOD_MS,0);
 1352              		.loc 1 368 0
 1353 0000 074B     		ldr	r3, .L95
 367:..\common\ud3core\tasks/tsk_analog.c ****     if(xCharge_Timer!=NULL){
 1354              		.loc 1 367 0
 1355 0002 07B5     		push	{r0, r1, r2, lr}
 1356              		.cfi_def_cfa_offset 16
 1357              		.cfi_offset 14, -4
 368:..\common\ud3core\tasks/tsk_analog.c ****         xTimerChangePeriod(xCharge_Timer,configuration.chargedelay / portTICK_PERIOD_MS,0);
 1358              		.loc 1 368 0
 1359 0004 1868     		ldr	r0, [r3]
 1360 0006 38B1     		cbz	r0, .L90
 369:..\common\ud3core\tasks/tsk_analog.c ****     }
 1361              		.loc 1 369 0
 1362 0008 064B     		ldr	r3, .L95+4
 1363 000a 0421     		movs	r1, #4
 1364 000c B3F85820 		ldrh	r2, [r3, #88]
 1365 0010 0023     		movs	r3, #0
 1366 0012 0093     		str	r3, [sp]
ARM GAS  C:\Users\chemi\AppData\Local\Temp\ccKmfC0B.s 			page 35


 1367 0014 FFF7FEFF 		bl	xTimerGenericCommand
 1368              	.LVL107:
 1369              	.L90:
 371:..\common\ud3core\tasks/tsk_analog.c **** 
 1370              		.loc 1 371 0
 1371 0018 03B0     		add	sp, sp, #12
 1372              		.cfi_def_cfa_offset 4
 1373              		@ sp needed
 1374 001a 5DF804FB 		ldr	pc, [sp], #4
 1375              	.L96:
 1376 001e 00BF     		.align	2
 1377              	.L95:
 1378 0020 00000000 		.word	xCharge_Timer
 1379 0024 00000000 		.word	configuration
 1380              		.cfi_endproc
 1381              	.LFE86:
 1382              		.size	reconfig_charge_timer, .-reconfig_charge_timer
 1383              		.section	.text.tsk_analog_Start,"ax",%progbits
 1384              		.align	1
 1385              		.global	tsk_analog_Start
 1386              		.thumb
 1387              		.thumb_func
 1388              		.type	tsk_analog_Start, %function
 1389              	tsk_analog_Start:
 1390              	.LFB88:
 415:..\common\ud3core\tasks/tsk_analog.c **** 
 416:..\common\ud3core\tasks/tsk_analog.c **** 		/* `#END` */
 417:..\common\ud3core\tasks/tsk_analog.c **** 	}
 418:..\common\ud3core\tasks/tsk_analog.c **** }
 419:..\common\ud3core\tasks/tsk_analog.c **** /* ------------------------------------------------------------------------ */
 420:..\common\ud3core\tasks/tsk_analog.c **** void tsk_analog_Start(void) {
 1391              		.loc 1 420 0
 1392              		.cfi_startproc
 1393              		@ args = 0, pretend = 0, frame = 0
 1394              		@ frame_needed = 0, uses_anonymous_args = 0
 1395 0000 37B5     		push	{r0, r1, r2, r4, r5, lr}
 1396              		.cfi_def_cfa_offset 24
 1397              		.cfi_offset 4, -12
 1398              		.cfi_offset 5, -8
 1399              		.cfi_offset 14, -4
 421:..\common\ud3core\tasks/tsk_analog.c **** 	/*
 422:..\common\ud3core\tasks/tsk_analog.c **** 	 * Insert task global memeory initialization here. Since the OS does not
 423:..\common\ud3core\tasks/tsk_analog.c **** 	 * initialize ANY global memory, execute the initialization here to make
 424:..\common\ud3core\tasks/tsk_analog.c **** 	 * sure that your task data is properly 
 425:..\common\ud3core\tasks/tsk_analog.c **** 	 */
 426:..\common\ud3core\tasks/tsk_analog.c **** 	/* `#START TASK_GLOBAL_INIT` */
 427:..\common\ud3core\tasks/tsk_analog.c **** 
 428:..\common\ud3core\tasks/tsk_analog.c **** 	/* `#END` */
 429:..\common\ud3core\tasks/tsk_analog.c **** 
 430:..\common\ud3core\tasks/tsk_analog.c **** 	if (tsk_analog_initVar != 1) {
 1400              		.loc 1 430 0
 1401 0002 084C     		ldr	r4, .L102
 1402 0004 237A     		ldrb	r3, [r4, #8]	@ zero_extendqisi2
 1403 0006 012B     		cmp	r3, #1
 1404 0008 0AD0     		beq	.L97
 431:..\common\ud3core\tasks/tsk_analog.c **** 
 432:..\common\ud3core\tasks/tsk_analog.c **** 		/*
ARM GAS  C:\Users\chemi\AppData\Local\Temp\ccKmfC0B.s 			page 36


 433:..\common\ud3core\tasks/tsk_analog.c **** 	 	* Create the task and then leave. When FreeRTOS starts up the scheduler
 434:..\common\ud3core\tasks/tsk_analog.c **** 	 	* will call the task procedure and start execution of the task.
 435:..\common\ud3core\tasks/tsk_analog.c **** 	 	*/
 436:..\common\ud3core\tasks/tsk_analog.c **** 		xTaskCreate(tsk_analog_TaskProc, "Analog", STACK_ANALOG, NULL, PRIO_ANALOG, &tsk_analog_TaskHandl
 1405              		.loc 1 436 0
 1406 000a 074B     		ldr	r3, .L102+4
 1407 000c 0125     		movs	r5, #1
 1408 000e 0193     		str	r3, [sp, #4]
 1409 0010 0095     		str	r5, [sp]
 1410 0012 0023     		movs	r3, #0
 1411 0014 8022     		movs	r2, #128
 1412 0016 0549     		ldr	r1, .L102+8
 1413 0018 0548     		ldr	r0, .L102+12
 1414 001a FFF7FEFF 		bl	xTaskCreate
 1415              	.LVL108:
 437:..\common\ud3core\tasks/tsk_analog.c **** 		tsk_analog_initVar = 1;
 1416              		.loc 1 437 0
 1417 001e 2572     		strb	r5, [r4, #8]
 1418              	.L97:
 438:..\common\ud3core\tasks/tsk_analog.c **** 	}
 439:..\common\ud3core\tasks/tsk_analog.c **** }
 1419              		.loc 1 439 0
 1420 0020 03B0     		add	sp, sp, #12
 1421              		.cfi_def_cfa_offset 12
 1422              		@ sp needed
 1423 0022 30BD     		pop	{r4, r5, pc}
 1424              	.L103:
 1425              		.align	2
 1426              	.L102:
 1427 0024 00000000 		.word	.LANCHOR1
 1428 0028 00000000 		.word	tsk_analog_TaskHandle
 1429 002c 52000000 		.word	.LC6
 1430 0030 00000000 		.word	tsk_analog_TaskProc
 1431              		.cfi_endproc
 1432              	.LFE88:
 1433              		.size	tsk_analog_Start, .-tsk_analog_Start
 1434              		.global	timer_triggerd
 1435              		.comm	charging_counter,4,4
 1436              		.comm	delta_vbus,2,2
 1437              		.comm	final_vbus,2,2
 1438              		.comm	initial_vbus,2,2
 1439              		.global	ADC_mux_ctl
 1440              		.comm	voltage_batt,16,8
 1441              		.comm	voltage_bus,16,8
 1442              		.comm	current_idc,16,8
 1443              		.global	ADC_active_sample_buf
 1444              		.comm	ADC_sample_buf_1,200,2
 1445              		.comm	ADC_sample_buf_0,200,2
 1446              		.comm	ct1_dac_val,3,1
 1447              		.comm	params,26,2
 1448              		.comm	xCharge_Timer,4,4
 1449              		.comm	adc_data,4,4
 1450              		.comm	adc_ready_Semaphore,4,4
 1451              		.global	tsk_analog_initVar
 1452              		.comm	tsk_analog_TaskHandle,4,4
 1453              		.comm	interrupter,12,4
 1454              		.comm	bus_command,1,1
ARM GAS  C:\Users\chemi\AppData\Local\Temp\ccKmfC0B.s 			page 37


 1455              		.section	.rodata.str1.1,"aMS",%progbits,1
 1456              	.LC0:
 1457 0000 4255533A 		.ascii	"BUS: Ready\000"
 1457      20526561 
 1457      647900
 1458              	.LC1:
 1459 000b 4255533A 		.ascii	"BUS: Off\000"
 1459      204F6666 
 1459      00
 1460              	.LC2:
 1461 0014 4255533A 		.ascii	"BUS: Undervoltage\000"
 1461      20556E64 
 1461      6572766F 
 1461      6C746167 
 1461      6500
 1462              	.LC3:
 1463 0026 4255533A 		.ascii	"BUS: Charging\000"
 1463      20436861 
 1463      7267696E 
 1463      6700
 1464              	.LC4:
 1465 0034 43687267 		.ascii	"Chrg-Tmr\000"
 1465      2D546D72 
 1465      00
 1466              	.LC5:
 1467 003d 5441534B 		.ascii	"TASK: Analog started\000"
 1467      3A20416E 
 1467      616C6F67 
 1467      20737461 
 1467      72746564 
 1468              	.LC6:
 1469 0052 416E616C 		.ascii	"Analog\000"
 1469      6F6700
 1470              		.data
 1471              		.align	2
 1472              		.set	.LANCHOR0,. + 0
 1473              		.type	ADC_active_sample_buf, %object
 1474              		.size	ADC_active_sample_buf, 4
 1475              	ADC_active_sample_buf:
 1476 0000 00000000 		.word	ADC_sample_buf_0
 1477              		.type	drive_top_r_corrected, %object
 1478              		.size	drive_top_r_corrected, 4
 1479              	drive_top_r_corrected:
 1480 0004 10270000 		.word	10000
 1481              		.type	ADC_mux_ctl, %object
 1482              		.size	ADC_mux_ctl, 4
 1483              	ADC_mux_ctl:
 1484 0008 05       		.byte	5
 1485 0009 02       		.byte	2
 1486 000a 03       		.byte	3
 1487 000b 00       		.byte	0
 1488              		.bss
 1489              		.align	2
 1490              		.set	.LANCHOR1,. + 0
 1491              		.type	timer_triggerd, %object
 1492              		.size	timer_triggerd, 1
 1493              	timer_triggerd:
ARM GAS  C:\Users\chemi\AppData\Local\Temp\ccKmfC0B.s 			page 38


 1494 0000 00       		.space	1
 1495 0001 000000   		.space	3
 1496              		.type	vdriver_raw, %object
 1497              		.size	vdriver_raw, 4
 1498              	vdriver_raw:
 1499 0004 00000000 		.space	4
 1500              		.type	tsk_analog_initVar, %object
 1501              		.size	tsk_analog_initVar, 1
 1502              	tsk_analog_initVar:
 1503 0008 00       		.space	1
 1504              		.text
 1505              	.Letext0:
 1506              		.file 2 "c:\\program files (x86)\\cypress\\psoc creator\\4.4\\psoc creator\\import\\gnu\\arm\\5.4.
 1507              		.file 3 "c:\\program files (x86)\\cypress\\psoc creator\\4.4\\psoc creator\\import\\gnu\\arm\\5.4.
 1508              		.file 4 "Generated_Source\\PSoC5/cytypes.h"
 1509              		.file 5 "..\\common\\rtos\\portable\\GCC\\ARM_CM3/portmacro.h"
 1510              		.file 6 "..\\common\\rtos\\include/task.h"
 1511              		.file 7 "..\\common\\rtos\\include/queue.h"
 1512              		.file 8 "..\\common\\rtos\\include/semphr.h"
 1513              		.file 9 "..\\common\\ud3core\\tasks\\tsk_analog.h"
 1514              		.file 10 "..\\common\\ud3core\\tasks\\tsk_fault.h"
 1515              		.file 11 "..\\common\\rtos\\include/timers.h"
 1516              		.file 12 "..\\common\\ud3core/interrupter.h"
 1517              		.file 13 "..\\common\\ud3core/ZCDtoPWM.h"
 1518              		.file 14 "..\\common\\ud3core/cli_common.h"
 1519              		.file 15 "..\\common\\ud3core/telemetry.h"
 1520              		.file 16 "Generated_Source\\PSoC5/core_cm3.h"
 1521              		.file 17 "..\\common\\ud3core/alarmevent.h"
 1522              		.file 18 "Generated_Source\\PSoC5/Relay2.h"
 1523              		.file 19 "Generated_Source\\PSoC5/Relay1.h"
 1524              		.file 20 "c:\\program files (x86)\\cypress\\psoc creator\\4.4\\psoc creator\\import\\gnu\\arm\\5.4
 1525              		.file 21 "Generated_Source\\PSoC5/ADC_peak.h"
 1526              		.file 22 "Generated_Source\\PSoC5/Sample_Hold_1.h"
 1527              		.file 23 "Generated_Source\\PSoC5/Comp_1.h"
 1528              		.file 24 "Generated_Source\\PSoC5/ADC_DMA_dma.h"
 1529              		.file 25 "Generated_Source\\PSoC5/CYDMAC.H"
 1530              		.file 26 "Generated_Source\\PSoC5/MUX_DMA_dma.h"
 1531              		.file 27 "Generated_Source\\PSoC5/ADC_data_ready.h"
 1532              		.file 28 "Generated_Source\\PSoC5/ADC.h"