ARM GAS  C:\Users\chemi\AppData\Local\Temp\ccULJIkS.s 			page 1


   1              		.syntax unified
   2              		.cpu cortex-m3
   3              		.fpu softvfp
   4              		.eabi_attribute 20, 1
   5              		.eabi_attribute 21, 1
   6              		.eabi_attribute 23, 3
   7              		.eabi_attribute 24, 1
   8              		.eabi_attribute 25, 1
   9              		.eabi_attribute 26, 1
  10              		.eabi_attribute 30, 4
  11              		.eabi_attribute 34, 1
  12              		.eabi_attribute 18, 4
  13              		.thumb
  14              		.syntax unified
  15              		.file	"tsk_cli.c"
  16              		.text
  17              	.Ltext0:
  18              		.cfi_sections	.debug_frame
  19              		.section	.text.tsk_cli_TaskProc,"ax",%progbits
  20              		.align	1
  21              		.global	tsk_cli_TaskProc
  22              		.thumb
  23              		.thumb_func
  24              		.type	tsk_cli_TaskProc, %function
  25              	tsk_cli_TaskProc:
  26              	.LFB69:
  27              		.file 1 "..\\common\\ud3core\\tasks\\tsk_cli.c"
   1:..\common\ud3core\tasks/tsk_cli.c **** /*
   2:..\common\ud3core\tasks/tsk_cli.c ****  * UD3
   3:..\common\ud3core\tasks/tsk_cli.c ****  *
   4:..\common\ud3core\tasks/tsk_cli.c ****  * Copyright (c) 2018 Jens Kerrinnes
   5:..\common\ud3core\tasks/tsk_cli.c ****  * Copyright (c) 2015 Steve Ward
   6:..\common\ud3core\tasks/tsk_cli.c ****  *
   7:..\common\ud3core\tasks/tsk_cli.c ****  * Permission is hereby granted, free of charge, to any person obtaining a copy of
   8:..\common\ud3core\tasks/tsk_cli.c ****  * this software and associated documentation files (the "Software"), to deal in
   9:..\common\ud3core\tasks/tsk_cli.c ****  * the Software without restriction, including without limitation the rights to
  10:..\common\ud3core\tasks/tsk_cli.c ****  * use, copy, modify, merge, publish, distribute, sublicense, and/or sell copies of
  11:..\common\ud3core\tasks/tsk_cli.c ****  * the Software, and to permit persons to whom the Software is furnished to do so,
  12:..\common\ud3core\tasks/tsk_cli.c ****  * subject to the following conditions:
  13:..\common\ud3core\tasks/tsk_cli.c ****  *
  14:..\common\ud3core\tasks/tsk_cli.c ****  * The above copyright notice and this permission notice shall be included in all
  15:..\common\ud3core\tasks/tsk_cli.c ****  * copies or substantial portions of the Software.
  16:..\common\ud3core\tasks/tsk_cli.c ****  *
  17:..\common\ud3core\tasks/tsk_cli.c ****  * THE SOFTWARE IS PROVIDED "AS IS", WITHOUT WARRANTY OF ANY KIND, EXPRESS OR
  18:..\common\ud3core\tasks/tsk_cli.c ****  * IMPLIED, INCLUDING BUT NOT LIMITED TO THE WARRANTIES OF MERCHANTABILITY, FITNESS
  19:..\common\ud3core\tasks/tsk_cli.c ****  * FOR A PARTICULAR PURPOSE AND NONINFRINGEMENT. IN NO EVENT SHALL THE AUTHORS OR
  20:..\common\ud3core\tasks/tsk_cli.c ****  * COPYRIGHT HOLDERS BE LIABLE FOR ANY CLAIM, DAMAGES OR OTHER LIABILITY, WHETHER
  21:..\common\ud3core\tasks/tsk_cli.c ****  * IN AN ACTION OF CONTRACT, TORT OR OTHERWISE, ARISING FROM, OUT OF OR IN
  22:..\common\ud3core\tasks/tsk_cli.c ****  * CONNECTION WITH THE SOFTWARE OR THE USE OR OTHER DEALINGS IN THE SOFTWARE.
  23:..\common\ud3core\tasks/tsk_cli.c **** */
  24:..\common\ud3core\tasks/tsk_cli.c **** 
  25:..\common\ud3core\tasks/tsk_cli.c **** #include "cyapicallbacks.h"
  26:..\common\ud3core\tasks/tsk_cli.c **** #include <cytypes.h>
  27:..\common\ud3core\tasks/tsk_cli.c **** #include <stdarg.h>
  28:..\common\ud3core\tasks/tsk_cli.c **** 
  29:..\common\ud3core\tasks/tsk_cli.c **** #include "tsk_cli.h"
  30:..\common\ud3core\tasks/tsk_cli.c **** #include "tsk_fault.h"
ARM GAS  C:\Users\chemi\AppData\Local\Temp\ccULJIkS.s 			page 2


  31:..\common\ud3core\tasks/tsk_cli.c **** #include "tsk_overlay.h"
  32:..\common\ud3core\tasks/tsk_cli.c **** #include "tsk_midi.h"
  33:..\common\ud3core\tasks/tsk_cli.c **** #include "cli_basic.h"
  34:..\common\ud3core\tasks/tsk_cli.c **** #include "alarmevent.h"
  35:..\common\ud3core\tasks/tsk_cli.c **** #include "autotune.h"
  36:..\common\ud3core\tasks/tsk_cli.c **** #include "qcw.h"
  37:..\common\ud3core\tasks/tsk_cli.c **** #include "helper/debug.h"
  38:..\common\ud3core\tasks/tsk_cli.c **** #include "helper/nvm.h"
  39:..\common\ud3core\tasks/tsk_cli.c **** 
  40:..\common\ud3core\tasks/tsk_cli.c **** #include "helper/printf.h"
  41:..\common\ud3core\tasks/tsk_cli.c **** 
  42:..\common\ud3core\tasks/tsk_cli.c **** /* RTOS includes. */
  43:..\common\ud3core\tasks/tsk_cli.c **** #include "FreeRTOS.h"
  44:..\common\ud3core\tasks/tsk_cli.c **** #include "task.h"
  45:..\common\ud3core\tasks/tsk_cli.c **** #include "queue.h"
  46:..\common\ud3core\tasks/tsk_cli.c **** #include "semphr.h"
  47:..\common\ud3core\tasks/tsk_cli.c **** 
  48:..\common\ud3core\tasks/tsk_cli.c **** #include "TTerm_AC.h"
  49:..\common\ud3core\tasks/tsk_cli.c **** 
  50:..\common\ud3core\tasks/tsk_cli.c **** 
  51:..\common\ud3core\tasks/tsk_cli.c **** 
  52:..\common\ud3core\tasks/tsk_cli.c **** xTaskHandle UART_Terminal_TaskHandle;
  53:..\common\ud3core\tasks/tsk_cli.c **** xTaskHandle USB_Terminal_TaskHandle;
  54:..\common\ud3core\tasks/tsk_cli.c **** xTaskHandle MIN_Terminal_TaskHandle[NUM_MIN_CON];
  55:..\common\ud3core\tasks/tsk_cli.c **** uint8 tsk_cli_initVar = 0u;
  56:..\common\ud3core\tasks/tsk_cli.c **** 
  57:..\common\ud3core\tasks/tsk_cli.c **** //port_str serial_port;
  58:..\common\ud3core\tasks/tsk_cli.c **** port_str usb_port;
  59:..\common\ud3core\tasks/tsk_cli.c **** port_str min_port[NUM_MIN_CON];
  60:..\common\ud3core\tasks/tsk_cli.c **** port_str null_port;
  61:..\common\ud3core\tasks/tsk_cli.c **** 
  62:..\common\ud3core\tasks/tsk_cli.c **** TERMINAL_HANDLE * usb_handle;
  63:..\common\ud3core\tasks/tsk_cli.c **** TERMINAL_HANDLE * min_handle[NUM_MIN_CON];
  64:..\common\ud3core\tasks/tsk_cli.c **** 
  65:..\common\ud3core\tasks/tsk_cli.c **** TERMINAL_HANDLE null;
  66:..\common\ud3core\tasks/tsk_cli.c **** TERMINAL_HANDLE * null_handle = &null;
  67:..\common\ud3core\tasks/tsk_cli.c **** 
  68:..\common\ud3core\tasks/tsk_cli.c **** static const char * AC_start_stop[] = {
  69:..\common\ud3core\tasks/tsk_cli.c ****     "start",
  70:..\common\ud3core\tasks/tsk_cli.c ****     "stop"
  71:..\common\ud3core\tasks/tsk_cli.c **** };
  72:..\common\ud3core\tasks/tsk_cli.c **** 
  73:..\common\ud3core\tasks/tsk_cli.c **** static const char * AC_on_off[] = {
  74:..\common\ud3core\tasks/tsk_cli.c ****     "off",
  75:..\common\ud3core\tasks/tsk_cli.c ****     "on"
  76:..\common\ud3core\tasks/tsk_cli.c ****     
  77:..\common\ud3core\tasks/tsk_cli.c **** };
  78:..\common\ud3core\tasks/tsk_cli.c **** 
  79:..\common\ud3core\tasks/tsk_cli.c **** static const char * AC_con[] = {
  80:..\common\ud3core\tasks/tsk_cli.c ****     "info",
  81:..\common\ud3core\tasks/tsk_cli.c ****     "min",
  82:..\common\ud3core\tasks/tsk_cli.c ****     "numcon"
  83:..\common\ud3core\tasks/tsk_cli.c **** };
  84:..\common\ud3core\tasks/tsk_cli.c **** 
  85:..\common\ud3core\tasks/tsk_cli.c **** static const char * AC_ramp[] = {
  86:..\common\ud3core\tasks/tsk_cli.c ****     "clear",
  87:..\common\ud3core\tasks/tsk_cli.c ****     "draw",
ARM GAS  C:\Users\chemi\AppData\Local\Temp\ccULJIkS.s 			page 3


  88:..\common\ud3core\tasks/tsk_cli.c ****     "line",
  89:..\common\ud3core\tasks/tsk_cli.c ****     "point"
  90:..\common\ud3core\tasks/tsk_cli.c **** };
  91:..\common\ud3core\tasks/tsk_cli.c **** 
  92:..\common\ud3core\tasks/tsk_cli.c **** static const char * AC_alarms[] = {
  93:..\common\ud3core\tasks/tsk_cli.c ****     "get",
  94:..\common\ud3core\tasks/tsk_cli.c ****     "reset",
  95:..\common\ud3core\tasks/tsk_cli.c ****     "roll"
  96:..\common\ud3core\tasks/tsk_cli.c **** };
  97:..\common\ud3core\tasks/tsk_cli.c **** 
  98:..\common\ud3core\tasks/tsk_cli.c **** static const char * AC_hwGauge[] = {
  99:..\common\ud3core\tasks/tsk_cli.c ****     "assign",
 100:..\common\ud3core\tasks/tsk_cli.c ****     "clear",
 101:..\common\ud3core\tasks/tsk_cli.c ****     "calibrate",
 102:..\common\ud3core\tasks/tsk_cli.c ****     "endColor",
 103:..\common\ud3core\tasks/tsk_cli.c ****     "startColor",
 104:..\common\ud3core\tasks/tsk_cli.c ****     "transition"
 105:..\common\ud3core\tasks/tsk_cli.c **** };
 106:..\common\ud3core\tasks/tsk_cli.c **** 
 107:..\common\ud3core\tasks/tsk_cli.c **** static const char * AC_display[] = {
 108:..\common\ud3core\tasks/tsk_cli.c ****     "assign",
 109:..\common\ud3core\tasks/tsk_cli.c ****     "blue",
 110:..\common\ud3core\tasks/tsk_cli.c ****     "bus",
 111:..\common\ud3core\tasks/tsk_cli.c ****     "clear",
 112:..\common\ud3core\tasks/tsk_cli.c ****     "cyan",
 113:..\common\ud3core\tasks/tsk_cli.c ****     "gauge0",
 114:..\common\ud3core\tasks/tsk_cli.c ****     "gauge1",
 115:..\common\ud3core\tasks/tsk_cli.c ****     "gauge2",
 116:..\common\ud3core\tasks/tsk_cli.c ****     "gauge3",
 117:..\common\ud3core\tasks/tsk_cli.c ****     "gauge4",
 118:..\common\ud3core\tasks/tsk_cli.c ****     "gauge5",
 119:..\common\ud3core\tasks/tsk_cli.c ****     "green",
 120:..\common\ud3core\tasks/tsk_cli.c ****     "magenta",
 121:..\common\ud3core\tasks/tsk_cli.c ****     "off",
 122:..\common\ud3core\tasks/tsk_cli.c ****     "red",
 123:..\common\ud3core\tasks/tsk_cli.c ****     "select",
 124:..\common\ud3core\tasks/tsk_cli.c ****     "synth",
 125:..\common\ud3core\tasks/tsk_cli.c ****     "white",
 126:..\common\ud3core\tasks/tsk_cli.c ****     "yellow"
 127:..\common\ud3core\tasks/tsk_cli.c **** };
 128:..\common\ud3core\tasks/tsk_cli.c **** 
 129:..\common\ud3core\tasks/tsk_cli.c **** static const char * AC_eeprom[] = {
 130:..\common\ud3core\tasks/tsk_cli.c ****     "load",
 131:..\common\ud3core\tasks/tsk_cli.c ****     "save"
 132:..\common\ud3core\tasks/tsk_cli.c **** };
 133:..\common\ud3core\tasks/tsk_cli.c **** 
 134:..\common\ud3core\tasks/tsk_cli.c **** static const char * AC_tune[] = {
 135:..\common\ud3core\tasks/tsk_cli.c ****     "prim",
 136:..\common\ud3core\tasks/tsk_cli.c ****     "sec"
 137:..\common\ud3core\tasks/tsk_cli.c **** };
 138:..\common\ud3core\tasks/tsk_cli.c **** 
 139:..\common\ud3core\tasks/tsk_cli.c **** static const char * AC_nvm[] = {
 140:..\common\ud3core\tasks/tsk_cli.c ****     "blocks",
 141:..\common\ud3core\tasks/tsk_cli.c ****     "maps"
 142:..\common\ud3core\tasks/tsk_cli.c **** };
 143:..\common\ud3core\tasks/tsk_cli.c **** 
 144:..\common\ud3core\tasks/tsk_cli.c **** static const char * AC_set_get[] = {
ARM GAS  C:\Users\chemi\AppData\Local\Temp\ccULJIkS.s 			page 4


 145:..\common\ud3core\tasks/tsk_cli.c ****     "autostart",
 146:..\common\ud3core\tasks/tsk_cli.c ****     "autotune_s",
 147:..\common\ud3core\tasks/tsk_cli.c ****     "baudrate",
 148:..\common\ud3core\tasks/tsk_cli.c ****     "boff",
 149:..\common\ud3core\tasks/tsk_cli.c ****     "bon",
 150:..\common\ud3core\tasks/tsk_cli.c ****     "charge_delay",
 151:..\common\ud3core\tasks/tsk_cli.c ****     "comp_attac",
 152:..\common\ud3core\tasks/tsk_cli.c ****     "comp_dutyOffset",
 153:..\common\ud3core\tasks/tsk_cli.c ****     "comp_release",
 154:..\common\ud3core\tasks/tsk_cli.c ****     "comp_sustain",
 155:..\common\ud3core\tasks/tsk_cli.c ****     "ct1_burden",
 156:..\common\ud3core\tasks/tsk_cli.c ****     "ct1_ratio",
 157:..\common\ud3core\tasks/tsk_cli.c ****     "ct2_burden",
 158:..\common\ud3core\tasks/tsk_cli.c ****     "ct2_current",
 159:..\common\ud3core\tasks/tsk_cli.c ****     "ct2_offset",
 160:..\common\ud3core\tasks/tsk_cli.c ****     "ct2_ratio",
 161:..\common\ud3core\tasks/tsk_cli.c ****     "ct2_type",
 162:..\common\ud3core\tasks/tsk_cli.c ****     "ct2_voltage",
 163:..\common\ud3core\tasks/tsk_cli.c ****     "ct3_burden",
 164:..\common\ud3core\tasks/tsk_cli.c ****     "ct3_ratio",
 165:..\common\ud3core\tasks/tsk_cli.c ****     "d_calib",
 166:..\common\ud3core\tasks/tsk_cli.c ****     "ena_display",
 167:..\common\ud3core\tasks/tsk_cli.c ****     "ena_ext_int",
 168:..\common\ud3core\tasks/tsk_cli.c ****     "hw_rev",
 169:..\common\ud3core\tasks/tsk_cli.c ****     "ivo_led",
 170:..\common\ud3core\tasks/tsk_cli.c ****     "ivo_uart",
 171:..\common\ud3core\tasks/tsk_cli.c ****     "lead_time",
 172:..\common\ud3core\tasks/tsk_cli.c ****     "maxDutyOffset",
 173:..\common\ud3core\tasks/tsk_cli.c ****     "minDutyOffset",
 174:..\common\ud3core\tasks/tsk_cli.c ****     "max_const_i",
 175:..\common\ud3core\tasks/tsk_cli.c ****     "max_fb_errors",
 176:..\common\ud3core\tasks/tsk_cli.c ****     "max_qcw_current",
 177:..\common\ud3core\tasks/tsk_cli.c ****     "max_qcw_duty",
 178:..\common\ud3core\tasks/tsk_cli.c ****     "max_qcw_pw",
 179:..\common\ud3core\tasks/tsk_cli.c ****     "max_tr_current",
 180:..\common\ud3core\tasks/tsk_cli.c ****     "max_tr_duty",
 181:..\common\ud3core\tasks/tsk_cli.c ****     "max_tr_prf",
 182:..\common\ud3core\tasks/tsk_cli.c ****     "max_tr_pw",
 183:..\common\ud3core\tasks/tsk_cli.c ****     "min_enable",
 184:..\common\ud3core\tasks/tsk_cli.c ****     "min_fb_current",
 185:..\common\ud3core\tasks/tsk_cli.c ****     "min_tr_current",
 186:..\common\ud3core\tasks/tsk_cli.c ****     "noise_div",
 187:..\common\ud3core\tasks/tsk_cli.c ****     "offtime",
 188:..\common\ud3core\tasks/tsk_cli.c ****     "pca9685",
 189:..\common\ud3core\tasks/tsk_cli.c ****     "pid_temp_i",
 190:..\common\ud3core\tasks/tsk_cli.c ****     "pid_temp_mode",
 191:..\common\ud3core\tasks/tsk_cli.c ****     "pid_temp_p",
 192:..\common\ud3core\tasks/tsk_cli.c ****     "pid_temp_set",
 193:..\common\ud3core\tasks/tsk_cli.c ****     "ps_scheme",
 194:..\common\ud3core\tasks/tsk_cli.c ****     "pw",
 195:..\common\ud3core\tasks/tsk_cli.c ****     "pwd",
 196:..\common\ud3core\tasks/tsk_cli.c ****     "qcw_coil",
 197:..\common\ud3core\tasks/tsk_cli.c ****     "qcw_freq",
 198:..\common\ud3core\tasks/tsk_cli.c ****     "qcw_hold",
 199:..\common\ud3core\tasks/tsk_cli.c ****     "qcw_max",
 200:..\common\ud3core\tasks/tsk_cli.c ****     "qcw_offset",
 201:..\common\ud3core\tasks/tsk_cli.c ****     "qcw_ramp",
ARM GAS  C:\Users\chemi\AppData\Local\Temp\ccULJIkS.s 			page 5


 202:..\common\ud3core\tasks/tsk_cli.c ****     "qcw_repeat",
 203:..\common\ud3core\tasks/tsk_cli.c ****     "qcw_vol",
 204:..\common\ud3core\tasks/tsk_cli.c ****     "r_bus",
 205:..\common\ud3core\tasks/tsk_cli.c ****     "sid_hpv_enabled",
 206:..\common\ud3core\tasks/tsk_cli.c ****     "sid_noise_volume",
 207:..\common\ud3core\tasks/tsk_cli.c ****     "spi_speed",
 208:..\common\ud3core\tasks/tsk_cli.c ****     "start_cycles",
 209:..\common\ud3core\tasks/tsk_cli.c ****     "start_freq",
 210:..\common\ud3core\tasks/tsk_cli.c ****     "synth",
 211:..\common\ud3core\tasks/tsk_cli.c ****     "temp1_max",
 212:..\common\ud3core\tasks/tsk_cli.c ****     "temp1_setpoint",
 213:..\common\ud3core\tasks/tsk_cli.c ****     "temp2_max",
 214:..\common\ud3core\tasks/tsk_cli.c ****     "temp2_mode",
 215:..\common\ud3core\tasks/tsk_cli.c ****     "temp2_setpoint",
 216:..\common\ud3core\tasks/tsk_cli.c ****     "transpose",
 217:..\common\ud3core\tasks/tsk_cli.c ****     "tune_delay",
 218:..\common\ud3core\tasks/tsk_cli.c ****     "tune_end",
 219:..\common\ud3core\tasks/tsk_cli.c ****     "tune_pw",
 220:..\common\ud3core\tasks/tsk_cli.c ****     "tune_start",
 221:..\common\ud3core\tasks/tsk_cli.c ****     "ud_name",
 222:..\common\ud3core\tasks/tsk_cli.c ****     "uvlo_analog",
 223:..\common\ud3core\tasks/tsk_cli.c ****     "vdrive",
 224:..\common\ud3core\tasks/tsk_cli.c ****     "watchdog"
 225:..\common\ud3core\tasks/tsk_cli.c **** };
 226:..\common\ud3core\tasks/tsk_cli.c **** 
 227:..\common\ud3core\tasks/tsk_cli.c **** static const char * min_names[] = {
 228:..\common\ud3core\tasks/tsk_cli.c ****     "MIN0",
 229:..\common\ud3core\tasks/tsk_cli.c ****     "MIN1",
 230:..\common\ud3core\tasks/tsk_cli.c ****     "MIN2",
 231:..\common\ud3core\tasks/tsk_cli.c ****     "MIN3",
 232:..\common\ud3core\tasks/tsk_cli.c **** };
 233:..\common\ud3core\tasks/tsk_cli.c **** 
 234:..\common\ud3core\tasks/tsk_cli.c **** 
 235:..\common\ud3core\tasks/tsk_cli.c **** /* ------------------------------------------------------------------------ */
 236:..\common\ud3core\tasks/tsk_cli.c **** /*
 237:..\common\ud3core\tasks/tsk_cli.c ****  * Place user included headers, defines and task global data in the
 238:..\common\ud3core\tasks/tsk_cli.c ****  * below merge region section.
 239:..\common\ud3core\tasks/tsk_cli.c ****  */
 240:..\common\ud3core\tasks/tsk_cli.c **** /* `#START USER_INCLUDE SECTION` */
 241:..\common\ud3core\tasks/tsk_cli.c **** 
 242:..\common\ud3core\tasks/tsk_cli.c **** #include "cli_common.h"
 243:..\common\ud3core\tasks/tsk_cli.c **** 
 244:..\common\ud3core\tasks/tsk_cli.c **** #include "tsk_priority.h"
 245:..\common\ud3core\tasks/tsk_cli.c **** #include "tsk_usb.h"
 246:..\common\ud3core\tasks/tsk_cli.c **** #include "tsk_hwGauge.h"
 247:..\common\ud3core\tasks/tsk_cli.c **** #include <project.h>
 248:..\common\ud3core\tasks/tsk_cli.c **** #include "tsk_eth_common.h"
 249:..\common\ud3core\tasks/tsk_cli.c **** 
 250:..\common\ud3core\tasks/tsk_cli.c **** 
 251:..\common\ud3core\tasks/tsk_cli.c **** /* `#END` */
 252:..\common\ud3core\tasks/tsk_cli.c **** /* ------------------------------------------------------------------------ */
 253:..\common\ud3core\tasks/tsk_cli.c **** /*
 254:..\common\ud3core\tasks/tsk_cli.c ****  * User defined task-local code that is used to process commands, control
 255:..\common\ud3core\tasks/tsk_cli.c ****  * operations, and/or generrally do stuff to make the taks do something
 256:..\common\ud3core\tasks/tsk_cli.c ****  * meaningful.
 257:..\common\ud3core\tasks/tsk_cli.c ****  */
 258:..\common\ud3core\tasks/tsk_cli.c **** /* `#START USER_TASK_LOCAL_CODE` */
ARM GAS  C:\Users\chemi\AppData\Local\Temp\ccULJIkS.s 			page 6


 259:..\common\ud3core\tasks/tsk_cli.c **** 
 260:..\common\ud3core\tasks/tsk_cli.c **** 
 261:..\common\ud3core\tasks/tsk_cli.c **** 
 262:..\common\ud3core\tasks/tsk_cli.c **** 
 263:..\common\ud3core\tasks/tsk_cli.c **** 
 264:..\common\ud3core\tasks/tsk_cli.c **** /* `#END` */
 265:..\common\ud3core\tasks/tsk_cli.c **** /* ------------------------------------------------------------------------ */
 266:..\common\ud3core\tasks/tsk_cli.c **** /*
 267:..\common\ud3core\tasks/tsk_cli.c ****  * This is the main procedure that comprises the task.  Place the code required
 268:..\common\ud3core\tasks/tsk_cli.c ****  * to preform the desired function within the merge regions of the task procedure
 269:..\common\ud3core\tasks/tsk_cli.c ****  * to add functionality to the task.
 270:..\common\ud3core\tasks/tsk_cli.c ****  */
 271:..\common\ud3core\tasks/tsk_cli.c **** 
 272:..\common\ud3core\tasks/tsk_cli.c **** void tsk_cli_TaskProc(void *pvParameters) {
  28              		.loc 1 272 0
  29              		.cfi_startproc
  30              		@ args = 0, pretend = 0, frame = 8
  31              		@ frame_needed = 0, uses_anonymous_args = 0
  32              	.LVL0:
  33 0000 37B5     		push	{r0, r1, r2, r4, r5, lr}
  34              		.cfi_def_cfa_offset 24
  35              		.cfi_offset 4, -12
  36              		.cfi_offset 5, -8
  37              		.cfi_offset 14, -4
 273:..\common\ud3core\tasks/tsk_cli.c **** 	/*
 274:..\common\ud3core\tasks/tsk_cli.c **** 	 * Add and initialize local variables that are allocated on the Task stack
 275:..\common\ud3core\tasks/tsk_cli.c **** 	 * the the section below.
 276:..\common\ud3core\tasks/tsk_cli.c **** 	 */
 277:..\common\ud3core\tasks/tsk_cli.c **** 	/* `#START TASK_VARIABLES` */
 278:..\common\ud3core\tasks/tsk_cli.c **** 
 279:..\common\ud3core\tasks/tsk_cli.c **** 	TERMINAL_HANDLE * handle = pvParameters;
 280:..\common\ud3core\tasks/tsk_cli.c **** 
 281:..\common\ud3core\tasks/tsk_cli.c **** 
 282:..\common\ud3core\tasks/tsk_cli.c ****     /* `#END` */
 283:..\common\ud3core\tasks/tsk_cli.c **** 
 284:..\common\ud3core\tasks/tsk_cli.c **** 	/*
 285:..\common\ud3core\tasks/tsk_cli.c **** 	 * Add the task initialzation code in the below merge region to be included
 286:..\common\ud3core\tasks/tsk_cli.c ****      * in the task.
 287:..\common\ud3core\tasks/tsk_cli.c **** 	 */
 288:..\common\ud3core\tasks/tsk_cli.c **** 	/* `#START TASK_INIT_CODE` */
 289:..\common\ud3core\tasks/tsk_cli.c **** 
 290:..\common\ud3core\tasks/tsk_cli.c ****     switch(portM->type) {
  38              		.loc 1 290 0
  39 0002 4268     		ldr	r2, [r0, #4]
 272:..\common\ud3core\tasks/tsk_cli.c **** 	/*
  40              		.loc 1 272 0
  41 0004 0446     		mov	r4, r0
  42              		.loc 1 290 0
  43 0006 1378     		ldrb	r3, [r2]	@ zero_extendqisi2
  44 0008 022B     		cmp	r3, #2
  45 000a 07D0     		beq	.L3
  46 000c 032B     		cmp	r3, #3
  47 000e 09D0     		beq	.L4
  48 0010 012B     		cmp	r3, #1
  49 0012 0CD1     		bne	.L7
 291:..\common\ud3core\tasks/tsk_cli.c ****         case PORT_TYPE_SERIAL:
 292:..\common\ud3core\tasks/tsk_cli.c ****             alarm_push(ALM_PRIO_INFO, "TASK: Serial-CLI started", ALM_NO_VALUE);
ARM GAS  C:\Users\chemi\AppData\Local\Temp\ccULJIkS.s 			page 7


  50              		.loc 1 292 0
  51 0014 4FF00042 		mov	r2, #-2147483648
  52 0018 1549     		ldr	r1, .L12
  53 001a 05E0     		b	.L10
  54              	.L3:
 293:..\common\ud3core\tasks/tsk_cli.c ****         break;
 294:..\common\ud3core\tasks/tsk_cli.c ****         case PORT_TYPE_USB:
 295:..\common\ud3core\tasks/tsk_cli.c ****             alarm_push(ALM_PRIO_INFO, "TASK: USB-CLI started", ALM_NO_VALUE);
  55              		.loc 1 295 0
  56 001c 4FF00042 		mov	r2, #-2147483648
  57 0020 1449     		ldr	r1, .L12+4
  58 0022 01E0     		b	.L10
  59              	.L4:
 296:..\common\ud3core\tasks/tsk_cli.c ****         break;
 297:..\common\ud3core\tasks/tsk_cli.c ****         case PORT_TYPE_MIN:
 298:..\common\ud3core\tasks/tsk_cli.c ****             alarm_push(ALM_PRIO_INFO, "TASK: MIN-CLI started", portM->num);
  60              		.loc 1 298 0
  61 0024 5278     		ldrb	r2, [r2, #1]	@ zero_extendqisi2
  62 0026 1449     		ldr	r1, .L12+8
  63              	.L10:
  64 0028 0020     		movs	r0, #0
  65              	.LVL1:
  66 002a FFF7FEFF 		bl	alarm_push
  67              	.LVL2:
  68              	.L7:
 299:..\common\ud3core\tasks/tsk_cli.c ****         break;      
 300:..\common\ud3core\tasks/tsk_cli.c ****     }
 301:..\common\ud3core\tasks/tsk_cli.c **** 
 302:..\common\ud3core\tasks/tsk_cli.c ****     /* `#END` */
 303:..\common\ud3core\tasks/tsk_cli.c ****     uint8_t c;
 304:..\common\ud3core\tasks/tsk_cli.c ****     uint8_t len;
 305:..\common\ud3core\tasks/tsk_cli.c **** 	for (;;) {
 306:..\common\ud3core\tasks/tsk_cli.c **** 		/* `#START TASK_LOOP_CODE` */
 307:..\common\ud3core\tasks/tsk_cli.c ****             len = xStreamBufferReceive(portM->rx, &c,sizeof(c), portMAX_DELAY);
  69              		.loc 1 307 0
  70 002e 6068     		ldr	r0, [r4, #4]
  71 0030 4FF0FF33 		mov	r3, #-1
  72 0034 0DF10701 		add	r1, sp, #7
  73 0038 0122     		movs	r2, #1
  74 003a 8068     		ldr	r0, [r0, #8]
  75 003c FFF7FEFF 		bl	xStreamBufferReceive
  76              	.LVL3:
 308:..\common\ud3core\tasks/tsk_cli.c ****             if (xSemaphoreTake(portM->term_block, portMAX_DELAY)) {
  77              		.loc 1 308 0
  78 0040 6368     		ldr	r3, [r4, #4]
 307:..\common\ud3core\tasks/tsk_cli.c ****             if (xSemaphoreTake(portM->term_block, portMAX_DELAY)) {
  79              		.loc 1 307 0
  80 0042 0546     		mov	r5, r0
  81              	.LVL4:
  82              		.loc 1 308 0
  83 0044 4FF0FF31 		mov	r1, #-1
  84 0048 D868     		ldr	r0, [r3, #12]
  85              	.LVL5:
  86 004a FFF7FEFF 		bl	xQueueSemaphoreTake
  87              	.LVL6:
  88 004e 0028     		cmp	r0, #0
  89 0050 EDD0     		beq	.L7
ARM GAS  C:\Users\chemi\AppData\Local\Temp\ccULJIkS.s 			page 8


 309:..\common\ud3core\tasks/tsk_cli.c ****                 TERM_processBuffer(&c,len,handle);
  90              		.loc 1 309 0
  91 0052 2246     		mov	r2, r4
  92 0054 E9B2     		uxtb	r1, r5
  93 0056 0DF10700 		add	r0, sp, #7
  94 005a FFF7FEFF 		bl	TERM_processBuffer
  95              	.LVL7:
 310:..\common\ud3core\tasks/tsk_cli.c ****                 xSemaphoreGive(portM->term_block);
  96              		.loc 1 310 0
  97 005e 6068     		ldr	r0, [r4, #4]
  98 0060 0023     		movs	r3, #0
  99 0062 1A46     		mov	r2, r3
 100 0064 1946     		mov	r1, r3
 101 0066 C068     		ldr	r0, [r0, #12]
 102 0068 FFF7FEFF 		bl	xQueueGenericSend
 103              	.LVL8:
 104 006c DFE7     		b	.L7
 105              	.L13:
 106 006e 00BF     		.align	2
 107              	.L12:
 108 0070 00000000 		.word	.LC0
 109 0074 19000000 		.word	.LC1
 110 0078 2F000000 		.word	.LC2
 111              		.cfi_endproc
 112              	.LFE69:
 113              		.size	tsk_cli_TaskProc, .-tsk_cli_TaskProc
 114              		.section	.text.tsk_cli_Start,"ax",%progbits
 115              		.align	1
 116              		.global	tsk_cli_Start
 117              		.thumb
 118              		.thumb_func
 119              		.type	tsk_cli_Start, %function
 120              	tsk_cli_Start:
 121              	.LFB70:
 311:..\common\ud3core\tasks/tsk_cli.c ****             }
 312:..\common\ud3core\tasks/tsk_cli.c **** 
 313:..\common\ud3core\tasks/tsk_cli.c ****         /* `#END` */
 314:..\common\ud3core\tasks/tsk_cli.c **** 	}
 315:..\common\ud3core\tasks/tsk_cli.c **** }
 316:..\common\ud3core\tasks/tsk_cli.c **** 
 317:..\common\ud3core\tasks/tsk_cli.c **** 
 318:..\common\ud3core\tasks/tsk_cli.c **** 
 319:..\common\ud3core\tasks/tsk_cli.c **** /* ------------------------------------------------------------------------ */
 320:..\common\ud3core\tasks/tsk_cli.c **** void tsk_cli_Start(void) {
 122              		.loc 1 320 0
 123              		.cfi_startproc
 124              		@ args = 0, pretend = 0, frame = 0
 125              		@ frame_needed = 0, uses_anonymous_args = 0
 126 0000 2DE9F74F 		push	{r0, r1, r2, r4, r5, r6, r7, r8, r9, r10, fp, lr}
 127              		.cfi_def_cfa_offset 48
 128              		.cfi_offset 4, -36
 129              		.cfi_offset 5, -32
 130              		.cfi_offset 6, -28
 131              		.cfi_offset 7, -24
 132              		.cfi_offset 8, -20
 133              		.cfi_offset 9, -16
 134              		.cfi_offset 10, -12
ARM GAS  C:\Users\chemi\AppData\Local\Temp\ccULJIkS.s 			page 9


 135              		.cfi_offset 11, -8
 136              		.cfi_offset 14, -4
 321:..\common\ud3core\tasks/tsk_cli.c **** /*
 322:..\common\ud3core\tasks/tsk_cli.c **** 	 * Insert task global memeory initialization here. Since the OS does not
 323:..\common\ud3core\tasks/tsk_cli.c **** 	 * initialize ANY global memory, execute the initialization here to make
 324:..\common\ud3core\tasks/tsk_cli.c **** 	 * sure that your task data is properly 
 325:..\common\ud3core\tasks/tsk_cli.c **** 	 */
 326:..\common\ud3core\tasks/tsk_cli.c **** /* `#START TASK_GLOBAL_INIT` */
 327:..\common\ud3core\tasks/tsk_cli.c **** 
 328:..\common\ud3core\tasks/tsk_cli.c **** /* `#END` */
 329:..\common\ud3core\tasks/tsk_cli.c **** 
 330:..\common\ud3core\tasks/tsk_cli.c **** 	if (tsk_cli_initVar != 1) {
 137              		.loc 1 330 0
 138 0004 B34B     		ldr	r3, .L21
 139 0006 1A78     		ldrb	r2, [r3]	@ zero_extendqisi2
 140 0008 9B46     		mov	fp, r3
 141 000a 012A     		cmp	r2, #1
 142 000c 00F09782 		beq	.L14
 331:..\common\ud3core\tasks/tsk_cli.c **** 
 332:..\common\ud3core\tasks/tsk_cli.c ****         usb_port.type = PORT_TYPE_USB;
 333:..\common\ud3core\tasks/tsk_cli.c ****         usb_port.term_mode = PORT_TERM_VT100;
 334:..\common\ud3core\tasks/tsk_cli.c ****         usb_port.term_send_alarms = false;
 143              		.loc 1 334 0
 144 0010 0024     		movs	r4, #0
 332:..\common\ud3core\tasks/tsk_cli.c ****         usb_port.term_mode = PORT_TERM_VT100;
 145              		.loc 1 332 0
 146 0012 B14E     		ldr	r6, .L21+4
 147 0014 4FF00208 		mov	r8, #2
 333:..\common\ud3core\tasks/tsk_cli.c ****         usb_port.term_send_alarms = false;
 148              		.loc 1 333 0
 149 0018 4FF00409 		mov	r9, #4
 335:..\common\ud3core\tasks/tsk_cli.c ****         usb_port.term_block = xSemaphoreCreateBinary();
 150              		.loc 1 335 0
 151 001c 0322     		movs	r2, #3
 152 001e 2146     		mov	r1, r4
 153 0020 0120     		movs	r0, #1
 332:..\common\ud3core\tasks/tsk_cli.c ****         usb_port.term_mode = PORT_TERM_VT100;
 154              		.loc 1 332 0
 155 0022 86F80080 		strb	r8, [r6]
 333:..\common\ud3core\tasks/tsk_cli.c ****         usb_port.term_send_alarms = false;
 156              		.loc 1 333 0
 157 0026 86F80290 		strb	r9, [r6, #2]
 334:..\common\ud3core\tasks/tsk_cli.c ****         usb_port.term_block = xSemaphoreCreateBinary();
 158              		.loc 1 334 0
 159 002a F470     		strb	r4, [r6, #3]
 160              		.loc 1 335 0
 161 002c FFF7FEFF 		bl	xQueueGenericCreate
 162              	.LVL9:
 336:..\common\ud3core\tasks/tsk_cli.c ****         usb_port.rx = xStreamBufferCreate(STREAMBUFFER_RX_SIZE,1);
 163              		.loc 1 336 0
 164 0030 2246     		mov	r2, r4
 335:..\common\ud3core\tasks/tsk_cli.c ****         usb_port.term_block = xSemaphoreCreateBinary();
 165              		.loc 1 335 0
 166 0032 F060     		str	r0, [r6, #12]
 167              		.loc 1 336 0
 168 0034 0121     		movs	r1, #1
 169 0036 4FF48070 		mov	r0, #256
ARM GAS  C:\Users\chemi\AppData\Local\Temp\ccULJIkS.s 			page 10


 170 003a FFF7FEFF 		bl	xStreamBufferGenericCreate
 171              	.LVL10:
 337:..\common\ud3core\tasks/tsk_cli.c ****         usb_port.tx = xStreamBufferCreate(STREAMBUFFER_TX_SIZE,64);
 172              		.loc 1 337 0
 173 003e 2246     		mov	r2, r4
 336:..\common\ud3core\tasks/tsk_cli.c ****         usb_port.rx = xStreamBufferCreate(STREAMBUFFER_RX_SIZE,1);
 174              		.loc 1 336 0
 175 0040 B060     		str	r0, [r6, #8]
 176              		.loc 1 337 0
 177 0042 4021     		movs	r1, #64
 178 0044 4FF40070 		mov	r0, #512
 179 0048 FFF7FEFF 		bl	xStreamBufferGenericCreate
 180              	.LVL11:
 338:..\common\ud3core\tasks/tsk_cli.c ****         xSemaphoreGive(usb_port.term_block);
 181              		.loc 1 338 0
 182 004c 2346     		mov	r3, r4
 337:..\common\ud3core\tasks/tsk_cli.c ****         usb_port.tx = xStreamBufferCreate(STREAMBUFFER_TX_SIZE,64);
 183              		.loc 1 337 0
 184 004e 7060     		str	r0, [r6, #4]
 185              		.loc 1 338 0
 186 0050 2246     		mov	r2, r4
 187 0052 2146     		mov	r1, r4
 188 0054 F068     		ldr	r0, [r6, #12]
 339:..\common\ud3core\tasks/tsk_cli.c ****         
 340:..\common\ud3core\tasks/tsk_cli.c ****         usb_handle = TERM_createNewHandle(stream_printf,&usb_port,pdTRUE,&TERM_cmdListHead,NULL,"us
 189              		.loc 1 340 0
 190 0056 A14D     		ldr	r5, .L21+8
 338:..\common\ud3core\tasks/tsk_cli.c ****         xSemaphoreGive(usb_port.term_block);
 191              		.loc 1 338 0
 192 0058 FFF7FEFF 		bl	xQueueGenericSend
 193              	.LVL12:
 194              		.loc 1 340 0
 195 005c A04B     		ldr	r3, .L21+12
 196 005e 3146     		mov	r1, r6
 197 0060 0193     		str	r3, [sp, #4]
 198 0062 0122     		movs	r2, #1
 199 0064 2B46     		mov	r3, r5
 200 0066 0094     		str	r4, [sp]
 201 0068 9E48     		ldr	r0, .L21+16
 202 006a FFF7FEFF 		bl	TERM_createNewHandle
 203              	.LVL13:
 204 006e 9E4F     		ldr	r7, .L21+20
 341:..\common\ud3core\tasks/tsk_cli.c **** 
 342:..\common\ud3core\tasks/tsk_cli.c ****         TERM_addCommand(CMD_signals, "signals","For debugging",0,&TERM_cmdListHead);
 205              		.loc 1 342 0
 206 0070 2346     		mov	r3, r4
 340:..\common\ud3core\tasks/tsk_cli.c **** 
 207              		.loc 1 340 0
 208 0072 3860     		str	r0, [r7]
 209              		.loc 1 342 0
 210 0074 9D4A     		ldr	r2, .L21+24
 211 0076 0095     		str	r5, [sp]
 212 0078 9D49     		ldr	r1, .L21+28
 213 007a 9E48     		ldr	r0, .L21+32
 214 007c FFF7FEFF 		bl	TERM_addCommand
 215              	.LVL14:
 343:..\common\ud3core\tasks/tsk_cli.c ****            
ARM GAS  C:\Users\chemi\AppData\Local\Temp\ccULJIkS.s 			page 11


 344:..\common\ud3core\tasks/tsk_cli.c ****         TERM_addCommandConstAC(CMD_tr, "tr", "Transient [start/stop]", AC_start_stop,&TERM_cmdListH
 216              		.loc 1 344 0
 217 0080 2346     		mov	r3, r4
 218 0082 9D4A     		ldr	r2, .L21+36
 219 0084 0095     		str	r5, [sp]
 220 0086 9D49     		ldr	r1, .L21+40
 221 0088 9D48     		ldr	r0, .L21+44
 222 008a FFF7FEFF 		bl	TERM_addCommand
 223              	.LVL15:
 224 008e 4146     		mov	r1, r8
 225 0090 0646     		mov	r6, r0
 226 0092 9C48     		ldr	r0, .L21+48
 227 0094 FFF7FEFF 		bl	ACL_createConst
 228              	.LVL16:
 229 0098 9B49     		ldr	r1, .L21+52
 230 009a 0246     		mov	r2, r0
 231 009c 3046     		mov	r0, r6
 232 009e FFF7FEFF 		bl	TERM_addCommandAC
 233              	.LVL17:
 345:..\common\ud3core\tasks/tsk_cli.c ****         TERM_addCommandConstAC(CMD_con, "con","Prints the connections",AC_con,&TERM_cmdListHead);
 234              		.loc 1 345 0
 235 00a2 2346     		mov	r3, r4
 236 00a4 994A     		ldr	r2, .L21+56
 237 00a6 0095     		str	r5, [sp]
 238 00a8 9949     		ldr	r1, .L21+60
 239 00aa 9A48     		ldr	r0, .L21+64
 240 00ac FFF7FEFF 		bl	TERM_addCommand
 241              	.LVL18:
 242 00b0 0321     		movs	r1, #3
 243 00b2 0646     		mov	r6, r0
 244 00b4 9848     		ldr	r0, .L21+68
 245 00b6 FFF7FEFF 		bl	ACL_createConst
 246              	.LVL19:
 247 00ba 9349     		ldr	r1, .L21+52
 248 00bc 0246     		mov	r2, r0
 249 00be 3046     		mov	r0, r6
 250 00c0 FFF7FEFF 		bl	TERM_addCommandAC
 251              	.LVL20:
 346:..\common\ud3core\tasks/tsk_cli.c ****         TERM_addCommandConstAC(CMD_alarms, "alarms","Alarms [get/roll/reset]",AC_alarms,&TERM_cmdLi
 252              		.loc 1 346 0
 253 00c4 2346     		mov	r3, r4
 254 00c6 954A     		ldr	r2, .L21+72
 255 00c8 0095     		str	r5, [sp]
 256 00ca 9549     		ldr	r1, .L21+76
 257 00cc 9548     		ldr	r0, .L21+80
 258 00ce FFF7FEFF 		bl	TERM_addCommand
 259              	.LVL21:
 260 00d2 0321     		movs	r1, #3
 261 00d4 0646     		mov	r6, r0
 262 00d6 9448     		ldr	r0, .L21+84
 263 00d8 FFF7FEFF 		bl	ACL_createConst
 264              	.LVL22:
 265 00dc 8A49     		ldr	r1, .L21+52
 266 00de 0246     		mov	r2, r0
 267 00e0 3046     		mov	r0, r6
 268 00e2 FFF7FEFF 		bl	TERM_addCommandAC
 269              	.LVL23:
ARM GAS  C:\Users\chemi\AppData\Local\Temp\ccULJIkS.s 			page 12


 347:..\common\ud3core\tasks/tsk_cli.c ****         TERM_addCommand(CMD_SynthMon, "synthmon","Synthesizer status",0,&TERM_cmdListHead);
 270              		.loc 1 347 0
 271 00e6 0095     		str	r5, [sp]
 272 00e8 2346     		mov	r3, r4
 273 00ea 904A     		ldr	r2, .L21+88
 274 00ec 9049     		ldr	r1, .L21+92
 275 00ee 9148     		ldr	r0, .L21+96
 276 00f0 FFF7FEFF 		bl	TERM_addCommand
 277              	.LVL24:
 348:..\common\ud3core\tasks/tsk_cli.c ****         TERM_addCommand(CMD_bootloader, "bootloader","Enters the bootloader",0,&TERM_cmdListHead);
 278              		.loc 1 348 0
 279 00f4 0095     		str	r5, [sp]
 280 00f6 2346     		mov	r3, r4
 281 00f8 8F4A     		ldr	r2, .L21+100
 282 00fa 9049     		ldr	r1, .L21+104
 283 00fc 9048     		ldr	r0, .L21+108
 284 00fe FFF7FEFF 		bl	TERM_addCommand
 285              	.LVL25:
 349:..\common\ud3core\tasks/tsk_cli.c ****         TERM_addCommandConstAC(CMD_bus, "bus","bus [on/off]",AC_on_off,&TERM_cmdListHead);
 286              		.loc 1 349 0
 287 0102 2346     		mov	r3, r4
 288 0104 8F4A     		ldr	r2, .L21+112
 289 0106 0095     		str	r5, [sp]
 290 0108 8F49     		ldr	r1, .L21+116
 291 010a 9048     		ldr	r0, .L21+120
 292 010c FFF7FEFF 		bl	TERM_addCommand
 293              	.LVL26:
 294 0110 4146     		mov	r1, r8
 295 0112 0646     		mov	r6, r0
 296 0114 8E48     		ldr	r0, .L21+124
 297 0116 FFF7FEFF 		bl	ACL_createConst
 298              	.LVL27:
 299 011a 7B49     		ldr	r1, .L21+52
 300 011c 0246     		mov	r2, r0
 301 011e 3046     		mov	r0, r6
 302 0120 FFF7FEFF 		bl	TERM_addCommandAC
 303              	.LVL28:
 350:..\common\ud3core\tasks/tsk_cli.c ****         TERM_addCommand(CMD_calib, "calib","Calibrate Vdriver",0,&TERM_cmdListHead);
 304              		.loc 1 350 0
 305 0124 0095     		str	r5, [sp]
 306 0126 2346     		mov	r3, r4
 307 0128 8A4A     		ldr	r2, .L21+128
 308 012a 8B49     		ldr	r1, .L21+132
 309 012c 8B48     		ldr	r0, .L21+136
 310 012e FFF7FEFF 		bl	TERM_addCommand
 311              	.LVL29:
 351:..\common\ud3core\tasks/tsk_cli.c ****         TERM_addCommand(CMD_config_get, "config_get","Internal use",0,&TERM_cmdListHead);
 312              		.loc 1 351 0
 313 0132 0095     		str	r5, [sp]
 314 0134 2346     		mov	r3, r4
 315 0136 8A4A     		ldr	r2, .L21+140
 316 0138 8A49     		ldr	r1, .L21+144
 317 013a 8B48     		ldr	r0, .L21+148
 318 013c FFF7FEFF 		bl	TERM_addCommand
 319              	.LVL30:
 352:..\common\ud3core\tasks/tsk_cli.c ****         TERM_addCommand(CMD_features, "features","Get supported features",0,&TERM_cmdListHead);
 320              		.loc 1 352 0
ARM GAS  C:\Users\chemi\AppData\Local\Temp\ccULJIkS.s 			page 13


 321 0140 0095     		str	r5, [sp]
 322 0142 2346     		mov	r3, r4
 323 0144 894A     		ldr	r2, .L21+152
 324 0146 8A49     		ldr	r1, .L21+156
 325 0148 8A48     		ldr	r0, .L21+160
 326 014a FFF7FEFF 		bl	TERM_addCommand
 327              	.LVL31:
 353:..\common\ud3core\tasks/tsk_cli.c ****         TERM_addCommandConstAC(CMD_eeprom, "eeprom","Save/Load config [load/save]",AC_eeprom,&TERM_
 328              		.loc 1 353 0
 329 014e 2346     		mov	r3, r4
 330 0150 894A     		ldr	r2, .L21+164
 331 0152 0095     		str	r5, [sp]
 332 0154 8949     		ldr	r1, .L21+168
 333 0156 8A48     		ldr	r0, .L21+172
 334 0158 FFF7FEFF 		bl	TERM_addCommand
 335              	.LVL32:
 336 015c 4146     		mov	r1, r8
 337 015e 0646     		mov	r6, r0
 338 0160 8848     		ldr	r0, .L21+176
 339 0162 FFF7FEFF 		bl	ACL_createConst
 340              	.LVL33:
 341 0166 6849     		ldr	r1, .L21+52
 342 0168 0246     		mov	r2, r0
 343 016a 3046     		mov	r0, r6
 344 016c FFF7FEFF 		bl	TERM_addCommandAC
 345              	.LVL34:
 354:..\common\ud3core\tasks/tsk_cli.c ****         TERM_addCommand(CMD_udkill, "kill","Stops the output",0,&TERM_cmdListHead);
 346              		.loc 1 354 0
 347 0170 0095     		str	r5, [sp]
 348 0172 2346     		mov	r3, r4
 349 0174 844A     		ldr	r2, .L21+180
 350 0176 8549     		ldr	r1, .L21+184
 351 0178 8548     		ldr	r0, .L21+188
 352 017a FFF7FEFF 		bl	TERM_addCommand
 353              	.LVL35:
 355:..\common\ud3core\tasks/tsk_cli.c ****         TERM_addCommand(CMD_load_defaults, "load_default","Loads the default parameters",0,&TERM_cm
 354              		.loc 1 355 0
 355 017e 0095     		str	r5, [sp]
 356 0180 2346     		mov	r3, r4
 357 0182 844A     		ldr	r2, .L21+192
 358 0184 8449     		ldr	r1, .L21+196
 359 0186 8548     		ldr	r0, .L21+200
 360 0188 FFF7FEFF 		bl	TERM_addCommand
 361              	.LVL36:
 356:..\common\ud3core\tasks/tsk_cli.c ****         
 357:..\common\ud3core\tasks/tsk_cli.c ****         TERM_addCommandConstAC(CMD_get, "get", "Usage get [param]", AC_set_get,&TERM_cmdListHead); 
 362              		.loc 1 357 0
 363 018c 2346     		mov	r3, r4
 364 018e 844A     		ldr	r2, .L21+204
 365 0190 0095     		str	r5, [sp]
 366 0192 8449     		ldr	r1, .L21+208
 367 0194 8448     		ldr	r0, .L21+212
 368 0196 FFF7FEFF 		bl	TERM_addCommand
 369              	.LVL37:
 370 019a 5021     		movs	r1, #80
 371 019c 0646     		mov	r6, r0
 372 019e 8348     		ldr	r0, .L21+216
ARM GAS  C:\Users\chemi\AppData\Local\Temp\ccULJIkS.s 			page 14


 373 01a0 FFF7FEFF 		bl	ACL_createConst
 374              	.LVL38:
 375 01a4 5849     		ldr	r1, .L21+52
 376 01a6 0246     		mov	r2, r0
 377 01a8 3046     		mov	r0, r6
 378 01aa FFF7FEFF 		bl	TERM_addCommandAC
 379              	.LVL39:
 358:..\common\ud3core\tasks/tsk_cli.c ****         TERM_addCommandConstAC(CMD_set, "set","Usage set [param] [value]",AC_set_get,&TERM_cmdListH
 380              		.loc 1 358 0
 381 01ae 2346     		mov	r3, r4
 382 01b0 7F4A     		ldr	r2, .L21+220
 383 01b2 0095     		str	r5, [sp]
 384 01b4 7F49     		ldr	r1, .L21+224
 385 01b6 8048     		ldr	r0, .L21+228
 386 01b8 FFF7FEFF 		bl	TERM_addCommand
 387              	.LVL40:
 388 01bc 5021     		movs	r1, #80
 389 01be 0646     		mov	r6, r0
 390 01c0 7A48     		ldr	r0, .L21+216
 391 01c2 FFF7FEFF 		bl	ACL_createConst
 392              	.LVL41:
 393 01c6 5049     		ldr	r1, .L21+52
 394 01c8 0246     		mov	r2, r0
 395 01ca 3046     		mov	r0, r6
 396 01cc FFF7FEFF 		bl	TERM_addCommandAC
 397              	.LVL42:
 359:..\common\ud3core\tasks/tsk_cli.c ****         
 360:..\common\ud3core\tasks/tsk_cli.c ****         TERM_addCommandConstAC(CMD_nvm, "nvm","NVM-Test Func", AC_nvm,&TERM_cmdListHead); 
 398              		.loc 1 360 0
 399 01d0 2346     		mov	r3, r4
 400 01d2 7A4A     		ldr	r2, .L21+232
 401 01d4 0095     		str	r5, [sp]
 402 01d6 7A49     		ldr	r1, .L21+236
 403 01d8 7A48     		ldr	r0, .L21+240
 404 01da FFF7FEFF 		bl	TERM_addCommand
 405              	.LVL43:
 406 01de 4146     		mov	r1, r8
 407 01e0 0646     		mov	r6, r0
 408 01e2 7948     		ldr	r0, .L21+244
 409 01e4 FFF7FEFF 		bl	ACL_createConst
 410              	.LVL44:
 411 01e8 4749     		ldr	r1, .L21+52
 412 01ea 0246     		mov	r2, r0
 413 01ec 3046     		mov	r0, r6
 414 01ee FFF7FEFF 		bl	TERM_addCommandAC
 415              	.LVL45:
 361:..\common\ud3core\tasks/tsk_cli.c ****         
 362:..\common\ud3core\tasks/tsk_cli.c ****         TERM_addCommandConstAC(CMD_qcw, "qcw","QCW [start/stop]",AC_start_stop,&TERM_cmdListHead);
 416              		.loc 1 362 0
 417 01f2 2346     		mov	r3, r4
 418 01f4 754A     		ldr	r2, .L21+248
 419 01f6 0095     		str	r5, [sp]
 420 01f8 7549     		ldr	r1, .L21+252
 421 01fa 7648     		ldr	r0, .L21+256
 422 01fc FFF7FEFF 		bl	TERM_addCommand
 423              	.LVL46:
 424 0200 4146     		mov	r1, r8
ARM GAS  C:\Users\chemi\AppData\Local\Temp\ccULJIkS.s 			page 15


 425 0202 0646     		mov	r6, r0
 426 0204 3F48     		ldr	r0, .L21+48
 427 0206 FFF7FEFF 		bl	ACL_createConst
 428              	.LVL47:
 429 020a 3F49     		ldr	r1, .L21+52
 430 020c 0246     		mov	r2, r0
 431 020e 3046     		mov	r0, r6
 432 0210 FFF7FEFF 		bl	TERM_addCommandAC
 433              	.LVL48:
 363:..\common\ud3core\tasks/tsk_cli.c ****         TERM_addCommand(CMD_relay, "relay","Switch user relay 3/4",0,&TERM_cmdListHead);
 434              		.loc 1 363 0
 435 0214 0095     		str	r5, [sp]
 436 0216 2346     		mov	r3, r4
 437 0218 6F4A     		ldr	r2, .L21+260
 438 021a 7049     		ldr	r1, .L21+264
 439 021c 7048     		ldr	r0, .L21+268
 440 021e FFF7FEFF 		bl	TERM_addCommand
 441              	.LVL49:
 364:..\common\ud3core\tasks/tsk_cli.c ****         TERM_addCommand(CMD_pwm, "pwm","Set user pwm 3/4",0,&TERM_cmdListHead);
 442              		.loc 1 364 0
 443 0222 0095     		str	r5, [sp]
 444 0224 2346     		mov	r3, r4
 445 0226 6F4A     		ldr	r2, .L21+272
 446 0228 6F49     		ldr	r1, .L21+276
 447 022a 7048     		ldr	r0, .L21+280
 448 022c FFF7FEFF 		bl	TERM_addCommand
 449              	.LVL50:
 365:..\common\ud3core\tasks/tsk_cli.c ****         TERM_addCommand(CMD_reset, "reset","Resets UD3",0,&TERM_cmdListHead);
 450              		.loc 1 365 0
 451 0230 0095     		str	r5, [sp]
 452 0232 2346     		mov	r3, r4
 453 0234 6E4A     		ldr	r2, .L21+284
 454 0236 6F49     		ldr	r1, .L21+288
 455 0238 6F48     		ldr	r0, .L21+292
 456 023a FFF7FEFF 		bl	TERM_addCommand
 457              	.LVL51:
 366:..\common\ud3core\tasks/tsk_cli.c ****         TERM_addCommand(CMD_status, "status","Displays coil status",0,&TERM_cmdListHead);
 458              		.loc 1 366 0
 459 023e 0095     		str	r5, [sp]
 460 0240 2346     		mov	r3, r4
 461 0242 6E4A     		ldr	r2, .L21+296
 462 0244 6E49     		ldr	r1, .L21+300
 463 0246 6F48     		ldr	r0, .L21+304
 464 0248 FFF7FEFF 		bl	TERM_addCommand
 465              	.LVL52:
 367:..\common\ud3core\tasks/tsk_cli.c ****         TERM_addCommand(CMD_tterm, "tterm","Changes terminal mode",0,&TERM_cmdListHead);
 466              		.loc 1 367 0
 467 024c 0095     		str	r5, [sp]
 468 024e 2346     		mov	r3, r4
 469 0250 6D4A     		ldr	r2, .L21+308
 470 0252 6E49     		ldr	r1, .L21+312
 471 0254 6E48     		ldr	r0, .L21+316
 472 0256 FFF7FEFF 		bl	TERM_addCommand
 473              	.LVL53:
 368:..\common\ud3core\tasks/tsk_cli.c ****         TERM_addCommandConstAC(CMD_tune, "tune","Autotune [prim/sec]",AC_tune,&TERM_cmdListHead);
 474              		.loc 1 368 0
 475 025a 2346     		mov	r3, r4
ARM GAS  C:\Users\chemi\AppData\Local\Temp\ccULJIkS.s 			page 16


 476 025c 6D4A     		ldr	r2, .L21+320
 477 025e 0095     		str	r5, [sp]
 478 0260 6D49     		ldr	r1, .L21+324
 479 0262 6E48     		ldr	r0, .L21+328
 480 0264 FFF7FEFF 		bl	TERM_addCommand
 481              	.LVL54:
 482 0268 4146     		mov	r1, r8
 483 026a 0646     		mov	r6, r0
 484 026c 6C48     		ldr	r0, .L21+332
 485 026e FFF7FEFF 		bl	ACL_createConst
 486              	.LVL55:
 487 0272 2549     		ldr	r1, .L21+52
 488 0274 0246     		mov	r2, r0
 489 0276 3046     		mov	r0, r6
 490 0278 FFF7FEFF 		bl	TERM_addCommandAC
 491              	.LVL56:
 369:..\common\ud3core\tasks/tsk_cli.c ****         TERM_addCommand(CMD_telemetry, "telemetry","Telemetry options",0,&TERM_cmdListHead);
 492              		.loc 1 369 0
 493 027c 0095     		str	r5, [sp]
 494 027e 2346     		mov	r3, r4
 495 0280 684A     		ldr	r2, .L21+336
 496 0282 6949     		ldr	r1, .L21+340
 497 0284 6948     		ldr	r0, .L21+344
 498 0286 FFF7FEFF 		bl	TERM_addCommand
 499              	.LVL57:
 370:..\common\ud3core\tasks/tsk_cli.c ****         TERM_addCommandConstAC(CMD_ramp, "ramp","Write QCW ramp",AC_ramp,&TERM_cmdListHead);
 500              		.loc 1 370 0
 501 028a 2346     		mov	r3, r4
 502 028c 684A     		ldr	r2, .L21+348
 503 028e 0095     		str	r5, [sp]
 504 0290 6849     		ldr	r1, .L21+352
 505 0292 6948     		ldr	r0, .L21+356
 506 0294 FFF7FEFF 		bl	TERM_addCommand
 507              	.LVL58:
 508 0298 4946     		mov	r1, r9
 509 029a 0646     		mov	r6, r0
 510 029c 6748     		ldr	r0, .L21+360
 511 029e FFF7FEFF 		bl	ACL_createConst
 512              	.LVL59:
 513 02a2 1949     		ldr	r1, .L21+52
 514 02a4 0246     		mov	r2, r0
 515 02a6 3046     		mov	r0, r6
 516 02a8 FFF7FEFF 		bl	TERM_addCommandAC
 517              	.LVL60:
 371:..\common\ud3core\tasks/tsk_cli.c ****         TERM_addCommand(CMD_debug, "debug","Debug mode",0,&TERM_cmdListHead);
 518              		.loc 1 371 0
 519 02ac 0095     		str	r5, [sp]
 520 02ae 2346     		mov	r3, r4
 521 02b0 634A     		ldr	r2, .L21+364
 522 02b2 6449     		ldr	r1, .L21+368
 523 02b4 6448     		ldr	r0, .L21+372
 524 02b6 FFF7FEFF 		bl	TERM_addCommand
 525              	.LVL61:
 372:..\common\ud3core\tasks/tsk_cli.c ****         TERM_addCommand(CMD_ntc, "ntc","Calibrate NTC iDAC",0,&TERM_cmdListHead);
 526              		.loc 1 372 0
 527 02ba 0095     		str	r5, [sp]
 528 02bc 2346     		mov	r3, r4
ARM GAS  C:\Users\chemi\AppData\Local\Temp\ccULJIkS.s 			page 17


 529 02be 634A     		ldr	r2, .L21+376
 530 02c0 6349     		ldr	r1, .L21+380
 531 02c2 6448     		ldr	r0, .L21+384
 532 02c4 FFF7FEFF 		bl	TERM_addCommand
 533              	.LVL62:
 373:..\common\ud3core\tasks/tsk_cli.c ****         TERM_addCommandConstAC(CMD_hwGauge, "hwGauge","adjust hardware gauge parameters",AC_hwGauge
 534              		.loc 1 373 0
 535 02c8 2346     		mov	r3, r4
 536 02ca 634A     		ldr	r2, .L21+388
 537 02cc 0095     		str	r5, [sp]
 538 02ce 6349     		ldr	r1, .L21+392
 539 02d0 C6E0     		b	.L22
 540              	.L23:
 541 02d2 00BF     		.align	2
 542              	.L21:
 543 02d4 00000000 		.word	.LANCHOR0
 544 02d8 00000000 		.word	usb_port
 545 02dc 00000000 		.word	TERM_cmdListHead
 546 02e0 45000000 		.word	.LC3
 547 02e4 00000000 		.word	stream_printf
 548 02e8 00000000 		.word	usb_handle
 549 02ec 49000000 		.word	.LC4
 550 02f0 57000000 		.word	.LC5
 551 02f4 00000000 		.word	CMD_signals
 552 02f8 5F000000 		.word	.LC6
 553 02fc 76000000 		.word	.LC7
 554 0300 00000000 		.word	CMD_tr
 555 0304 00000000 		.word	.LANCHOR1
 556 0308 00000000 		.word	ACL_defaultCompleter
 557 030c 79000000 		.word	.LC8
 558 0310 90000000 		.word	.LC9
 559 0314 00000000 		.word	CMD_con
 560 0318 08000000 		.word	.LANCHOR1+8
 561 031c 94000000 		.word	.LC10
 562 0320 AC000000 		.word	.LC11
 563 0324 00000000 		.word	CMD_alarms
 564 0328 14000000 		.word	.LANCHOR1+20
 565 032c B3000000 		.word	.LC12
 566 0330 C6000000 		.word	.LC13
 567 0334 00000000 		.word	CMD_SynthMon
 568 0338 CF000000 		.word	.LC14
 569 033c E5000000 		.word	.LC15
 570 0340 00000000 		.word	CMD_bootloader
 571 0344 F0000000 		.word	.LC16
 572 0348 FD000000 		.word	.LC17
 573 034c 00000000 		.word	CMD_bus
 574 0350 20000000 		.word	.LANCHOR1+32
 575 0354 01010000 		.word	.LC18
 576 0358 13010000 		.word	.LC19
 577 035c 00000000 		.word	CMD_calib
 578 0360 19010000 		.word	.LC20
 579 0364 26010000 		.word	.LC21
 580 0368 00000000 		.word	CMD_config_get
 581 036c 31010000 		.word	.LC22
 582 0370 48010000 		.word	.LC23
 583 0374 00000000 		.word	CMD_features
 584 0378 51010000 		.word	.LC24
ARM GAS  C:\Users\chemi\AppData\Local\Temp\ccULJIkS.s 			page 18


 585 037c 6E010000 		.word	.LC25
 586 0380 00000000 		.word	CMD_eeprom
 587 0384 28000000 		.word	.LANCHOR1+40
 588 0388 75010000 		.word	.LC26
 589 038c 86010000 		.word	.LC27
 590 0390 00000000 		.word	CMD_udkill
 591 0394 8B010000 		.word	.LC28
 592 0398 A8010000 		.word	.LC29
 593 039c 00000000 		.word	CMD_load_defaults
 594 03a0 B5010000 		.word	.LC30
 595 03a4 C7010000 		.word	.LC31
 596 03a8 00000000 		.word	CMD_get
 597 03ac 30000000 		.word	.LANCHOR1+48
 598 03b0 CB010000 		.word	.LC32
 599 03b4 E5010000 		.word	.LC33
 600 03b8 00000000 		.word	CMD_set
 601 03bc E9010000 		.word	.LC34
 602 03c0 F7010000 		.word	.LC35
 603 03c4 00000000 		.word	CMD_nvm
 604 03c8 70010000 		.word	.LANCHOR1+368
 605 03cc FB010000 		.word	.LC36
 606 03d0 0C020000 		.word	.LC37
 607 03d4 00000000 		.word	CMD_qcw
 608 03d8 10020000 		.word	.LC38
 609 03dc 26020000 		.word	.LC39
 610 03e0 00000000 		.word	CMD_relay
 611 03e4 2C020000 		.word	.LC40
 612 03e8 3D020000 		.word	.LC41
 613 03ec 00000000 		.word	CMD_pwm
 614 03f0 41020000 		.word	.LC42
 615 03f4 4C020000 		.word	.LC43
 616 03f8 00000000 		.word	CMD_reset
 617 03fc 52020000 		.word	.LC44
 618 0400 67020000 		.word	.LC45
 619 0404 00000000 		.word	CMD_status
 620 0408 6E020000 		.word	.LC46
 621 040c 84020000 		.word	.LC47
 622 0410 00000000 		.word	CMD_tterm
 623 0414 8A020000 		.word	.LC48
 624 0418 9E020000 		.word	.LC49
 625 041c 00000000 		.word	CMD_tune
 626 0420 78010000 		.word	.LANCHOR1+376
 627 0424 A3020000 		.word	.LC50
 628 0428 B5020000 		.word	.LC51
 629 042c 00000000 		.word	CMD_telemetry
 630 0430 BF020000 		.word	.LC52
 631 0434 CE020000 		.word	.LC53
 632 0438 00000000 		.word	CMD_ramp
 633 043c 80010000 		.word	.LANCHOR1+384
 634 0440 D3020000 		.word	.LC54
 635 0444 DE020000 		.word	.LC55
 636 0448 00000000 		.word	CMD_debug
 637 044c E4020000 		.word	.LC56
 638 0450 F7020000 		.word	.LC57
 639 0454 00000000 		.word	CMD_ntc
 640 0458 FB020000 		.word	.LC58
 641 045c 1C030000 		.word	.LC59
ARM GAS  C:\Users\chemi\AppData\Local\Temp\ccULJIkS.s 			page 19


 642              	.L22:
 643 0460 3848     		ldr	r0, .L24
 644 0462 FFF7FEFF 		bl	TERM_addCommand
 645              	.LVL63:
 646 0466 0621     		movs	r1, #6
 647 0468 0646     		mov	r6, r0
 648 046a 3748     		ldr	r0, .L24+4
 649 046c FFF7FEFF 		bl	ACL_createConst
 650              	.LVL64:
 651 0470 3649     		ldr	r1, .L24+8
 652 0472 0246     		mov	r2, r0
 653 0474 3046     		mov	r0, r6
 654 0476 FFF7FEFF 		bl	TERM_addCommandAC
 655              	.LVL65:
 374:..\common\ud3core\tasks/tsk_cli.c ****         TERM_addCommand(CMD_hwrev, "hwrev","Display hardware revision",0,&TERM_cmdListHead);
 656              		.loc 1 374 0
 657 047a 0095     		str	r5, [sp]
 658 047c 2346     		mov	r3, r4
 659 047e 344A     		ldr	r2, .L24+12
 660 0480 3449     		ldr	r1, .L24+16
 661 0482 3548     		ldr	r0, .L24+20
 662 0484 FFF7FEFF 		bl	TERM_addCommand
 663              	.LVL66:
 375:..\common\ud3core\tasks/tsk_cli.c ****         TERM_addCommand(CMD_midi_inject, "midi","Inject a MIDI message",0,&TERM_cmdListHead);
 664              		.loc 1 375 0
 665 0488 0095     		str	r5, [sp]
 666 048a 2346     		mov	r3, r4
 667 048c 334A     		ldr	r2, .L24+24
 668 048e 3449     		ldr	r1, .L24+28
 669 0490 3448     		ldr	r0, .L24+32
 670 0492 FFF7FEFF 		bl	TERM_addCommand
 671              	.LVL67:
 672 0496 344D     		ldr	r5, .L24+36
 673              	.LVL68:
 674              	.L16:
 675              	.LBB2:
 376:..\common\ud3core\tasks/tsk_cli.c **** 
 377:..\common\ud3core\tasks/tsk_cli.c ****         for(uint8_t i=0;i<NUM_MIN_CON;i++){
 378:..\common\ud3core\tasks/tsk_cli.c ****             min_port[i].type = PORT_TYPE_MIN;
 379:..\common\ud3core\tasks/tsk_cli.c ****             min_port[i].num = i;
 380:..\common\ud3core\tasks/tsk_cli.c ****             min_port[i].term_mode = PORT_TERM_VT100;
 381:..\common\ud3core\tasks/tsk_cli.c ****             min_port[i].term_send_alarms = false;
 676              		.loc 1 381 0 discriminator 3
 677 0498 0026     		movs	r6, #0
 380:..\common\ud3core\tasks/tsk_cli.c ****             min_port[i].term_send_alarms = false;
 678              		.loc 1 380 0 discriminator 3
 679 049a 0423     		movs	r3, #4
 378:..\common\ud3core\tasks/tsk_cli.c ****             min_port[i].num = i;
 680              		.loc 1 378 0 discriminator 3
 681 049c 4FF00308 		mov	r8, #3
 380:..\common\ud3core\tasks/tsk_cli.c ****             min_port[i].term_send_alarms = false;
 682              		.loc 1 380 0 discriminator 3
 683 04a0 AB70     		strb	r3, [r5, #2]
 379:..\common\ud3core\tasks/tsk_cli.c ****             min_port[i].term_mode = PORT_TERM_VT100;
 684              		.loc 1 379 0 discriminator 3
 685 04a2 6C70     		strb	r4, [r5, #1]
 378:..\common\ud3core\tasks/tsk_cli.c ****             min_port[i].num = i;
ARM GAS  C:\Users\chemi\AppData\Local\Temp\ccULJIkS.s 			page 20


 686              		.loc 1 378 0 discriminator 3
 687 04a4 85F80080 		strb	r8, [r5]
 688              		.loc 1 381 0 discriminator 3
 689 04a8 EE70     		strb	r6, [r5, #3]
 382:..\common\ud3core\tasks/tsk_cli.c ****             min_port[i].term_block = xSemaphoreCreateBinary();
 690              		.loc 1 382 0 discriminator 3
 691 04aa 4246     		mov	r2, r8
 692 04ac 3146     		mov	r1, r6
 693 04ae 0120     		movs	r0, #1
 694 04b0 FFF7FEFF 		bl	xQueueGenericCreate
 695              	.LVL69:
 383:..\common\ud3core\tasks/tsk_cli.c ****             min_port[i].rx = xStreamBufferCreate(STREAMBUFFER_RX_SIZE,1);
 696              		.loc 1 383 0 discriminator 3
 697 04b4 3246     		mov	r2, r6
 382:..\common\ud3core\tasks/tsk_cli.c ****             min_port[i].term_block = xSemaphoreCreateBinary();
 698              		.loc 1 382 0 discriminator 3
 699 04b6 E860     		str	r0, [r5, #12]
 700              		.loc 1 383 0 discriminator 3
 701 04b8 0121     		movs	r1, #1
 702 04ba 4FF48070 		mov	r0, #256
 703 04be FFF7FEFF 		bl	xStreamBufferGenericCreate
 704              	.LVL70:
 384:..\common\ud3core\tasks/tsk_cli.c ****             min_port[i].tx = xStreamBufferCreate(STREAMBUFFER_TX_SIZE,256);
 705              		.loc 1 384 0 discriminator 3
 706 04c2 3246     		mov	r2, r6
 383:..\common\ud3core\tasks/tsk_cli.c ****             min_port[i].rx = xStreamBufferCreate(STREAMBUFFER_RX_SIZE,1);
 707              		.loc 1 383 0 discriminator 3
 708 04c4 A860     		str	r0, [r5, #8]
 709              		.loc 1 384 0 discriminator 3
 710 04c6 4FF48071 		mov	r1, #256
 711 04ca 4FF40070 		mov	r0, #512
 712 04ce FFF7FEFF 		bl	xStreamBufferGenericCreate
 713              	.LVL71:
 385:..\common\ud3core\tasks/tsk_cli.c ****             xSemaphoreGive(min_port[i].term_block);
 714              		.loc 1 385 0 discriminator 3
 715 04d2 3346     		mov	r3, r6
 384:..\common\ud3core\tasks/tsk_cli.c ****             min_port[i].tx = xStreamBufferCreate(STREAMBUFFER_TX_SIZE,256);
 716              		.loc 1 384 0 discriminator 3
 717 04d4 6860     		str	r0, [r5, #4]
 718              		.loc 1 385 0 discriminator 3
 719 04d6 3246     		mov	r2, r6
 720 04d8 3146     		mov	r1, r6
 721 04da E868     		ldr	r0, [r5, #12]
 722 04dc FFF7FEFF 		bl	xQueueGenericSend
 723              	.LVL72:
 386:..\common\ud3core\tasks/tsk_cli.c ****             
 387:..\common\ud3core\tasks/tsk_cli.c ****             min_handle[i] = TERM_createNewHandle(stream_printf,&min_port[i],pdTRUE,&TERM_cmdListHea
 724              		.loc 1 387 0 discriminator 3
 725 04e0 224B     		ldr	r3, .L24+40
 726 04e2 2946     		mov	r1, r5
 727 04e4 53F82490 		ldr	r9, [r3, r4, lsl #2]
 728 04e8 0122     		movs	r2, #1
 729 04ea 214B     		ldr	r3, .L24+44
 730 04ec 8DE84002 		stmia	sp, {r6, r9}
 731 04f0 2048     		ldr	r0, .L24+48
 732 04f2 FFF7FEFF 		bl	TERM_createNewHandle
 733              	.LVL73:
ARM GAS  C:\Users\chemi\AppData\Local\Temp\ccULJIkS.s 			page 21


 734 04f6 204A     		ldr	r2, .L24+52
 735 04f8 4FEA840A 		lsl	r10, r4, #2
 736 04fc 42F82400 		str	r0, [r2, r4, lsl #2]
 388:..\common\ud3core\tasks/tsk_cli.c ****             
 389:..\common\ud3core\tasks/tsk_cli.c ****             xTaskCreate(tsk_cli_TaskProc, min_names[i], STACK_TERMINAL, min_handle[i], PRIO_TERMINA
 737              		.loc 1 389 0 discriminator 3
 738 0500 1E4A     		ldr	r2, .L24+56
 387:..\common\ud3core\tasks/tsk_cli.c ****             
 739              		.loc 1 387 0 discriminator 3
 740 0502 0346     		mov	r3, r0
 741              		.loc 1 389 0 discriminator 3
 742 0504 5244     		add	r2, r2, r10
 743 0506 0192     		str	r2, [sp, #4]
 744 0508 CDF80080 		str	r8, [sp]
 745 050c 4FF48072 		mov	r2, #256
 746 0510 4946     		mov	r1, r9
 747 0512 1B48     		ldr	r0, .L24+60
 748 0514 0134     		adds	r4, r4, #1
 749              	.LVL74:
 750 0516 FFF7FEFF 		bl	xTaskCreate
 751              	.LVL75:
 377:..\common\ud3core\tasks/tsk_cli.c ****             min_port[i].type = PORT_TYPE_MIN;
 752              		.loc 1 377 0 discriminator 3
 753 051a 042C     		cmp	r4, #4
 754 051c 05F11405 		add	r5, r5, #20
 755 0520 BAD1     		bne	.L16
 756              	.LBE2:
 390:..\common\ud3core\tasks/tsk_cli.c ****         }
 391:..\common\ud3core\tasks/tsk_cli.c ****         
 392:..\common\ud3core\tasks/tsk_cli.c **** 
 393:..\common\ud3core\tasks/tsk_cli.c **** 		/*
 394:..\common\ud3core\tasks/tsk_cli.c **** 	 	* Create the task and then leave. When FreeRTOS starts up the scheduler
 395:..\common\ud3core\tasks/tsk_cli.c **** 	 	* will call the task procedure and start execution of the task.
 396:..\common\ud3core\tasks/tsk_cli.c **** 	 	*/
 397:..\common\ud3core\tasks/tsk_cli.c **** 
 398:..\common\ud3core\tasks/tsk_cli.c **** 		xTaskCreate(tsk_cli_TaskProc, "USB-CLI", STACK_TERMINAL,  usb_handle, PRIO_TERMINAL, &USB_Termina
 757              		.loc 1 398 0
 758 0522 184B     		ldr	r3, .L24+64
 759 0524 CDF80080 		str	r8, [sp]
 760 0528 0193     		str	r3, [sp, #4]
 761 052a 3B68     		ldr	r3, [r7]
 762 052c 4FF48072 		mov	r2, #256
 763 0530 1549     		ldr	r1, .L24+68
 764 0532 1348     		ldr	r0, .L24+60
 765 0534 FFF7FEFF 		bl	xTaskCreate
 766              	.LVL76:
 399:..\common\ud3core\tasks/tsk_cli.c **** 		tsk_cli_initVar = 1;
 767              		.loc 1 399 0
 768 0538 0123     		movs	r3, #1
 769 053a 8BF80030 		strb	r3, [fp]
 770              	.L14:
 400:..\common\ud3core\tasks/tsk_cli.c **** 	}
 401:..\common\ud3core\tasks/tsk_cli.c **** }
 771              		.loc 1 401 0
 772 053e 03B0     		add	sp, sp, #12
 773              		.cfi_def_cfa_offset 36
 774              		@ sp needed
ARM GAS  C:\Users\chemi\AppData\Local\Temp\ccULJIkS.s 			page 22


 775 0540 BDE8F08F 		pop	{r4, r5, r6, r7, r8, r9, r10, fp, pc}
 776              	.L25:
 777              		.align	2
 778              	.L24:
 779 0544 00000000 		.word	CMD_hwGauge
 780 0548 90010000 		.word	.LANCHOR1+400
 781 054c 00000000 		.word	ACL_defaultCompleter
 782 0550 24030000 		.word	.LC60
 783 0554 3E030000 		.word	.LC61
 784 0558 00000000 		.word	CMD_hwrev
 785 055c 44030000 		.word	.LC62
 786 0560 5A030000 		.word	.LC63
 787 0564 00000000 		.word	CMD_midi_inject
 788 0568 00000000 		.word	min_port
 789 056c 00000000 		.word	.LANCHOR2
 790 0570 00000000 		.word	TERM_cmdListHead
 791 0574 00000000 		.word	stream_printf
 792 0578 00000000 		.word	min_handle
 793 057c 00000000 		.word	MIN_Terminal_TaskHandle
 794 0580 00000000 		.word	tsk_cli_TaskProc
 795 0584 00000000 		.word	USB_Terminal_TaskHandle
 796 0588 5F030000 		.word	.LC64
 797              		.cfi_endproc
 798              	.LFE70:
 799              		.size	tsk_cli_Start, .-tsk_cli_Start
 800              		.comm	interrupter,12,4
 801              		.global	null_handle
 802              		.comm	null,148,4
 803              		.comm	min_handle,16,4
 804              		.comm	usb_handle,4,4
 805              		.comm	null_port,20,4
 806              		.comm	min_port,80,4
 807              		.comm	usb_port,20,4
 808              		.global	tsk_cli_initVar
 809              		.comm	MIN_Terminal_TaskHandle,16,4
 810              		.comm	USB_Terminal_TaskHandle,4,4
 811              		.comm	UART_Terminal_TaskHandle,4,4
 812              		.comm	ramp,406,2
 813              		.section	.rodata
 814              		.align	2
 815              		.set	.LANCHOR2,. + 0
 816              		.type	min_names, %object
 817              		.size	min_names, 16
 818              	min_names:
 819 0000 67030000 		.word	.LC65
 820 0004 6C030000 		.word	.LC66
 821 0008 71030000 		.word	.LC67
 822 000c 76030000 		.word	.LC68
 823              		.section	.rodata.str1.1,"aMS",%progbits,1
 824              	.LC0:
 825 0000 5441534B 		.ascii	"TASK: Serial-CLI started\000"
 825      3A205365 
 825      7269616C 
 825      2D434C49 
 825      20737461 
 826              	.LC1:
 827 0019 5441534B 		.ascii	"TASK: USB-CLI started\000"
ARM GAS  C:\Users\chemi\AppData\Local\Temp\ccULJIkS.s 			page 23


 827      3A205553 
 827      422D434C 
 827      49207374 
 827      61727465 
 828              	.LC2:
 829 002f 5441534B 		.ascii	"TASK: MIN-CLI started\000"
 829      3A204D49 
 829      4E2D434C 
 829      49207374 
 829      61727465 
 830              	.LC3:
 831 0045 75736200 		.ascii	"usb\000"
 832              	.LC4:
 833 0049 466F7220 		.ascii	"For debugging\000"
 833      64656275 
 833      6767696E 
 833      6700
 834              	.LC5:
 835 0057 7369676E 		.ascii	"signals\000"
 835      616C7300 
 836              	.LC6:
 837 005f 5472616E 		.ascii	"Transient [start/stop]\000"
 837      7369656E 
 837      74205B73 
 837      74617274 
 837      2F73746F 
 838              	.LC7:
 839 0076 747200   		.ascii	"tr\000"
 840              	.LC8:
 841 0079 5072696E 		.ascii	"Prints the connections\000"
 841      74732074 
 841      68652063 
 841      6F6E6E65 
 841      6374696F 
 842              	.LC9:
 843 0090 636F6E00 		.ascii	"con\000"
 844              	.LC10:
 845 0094 416C6172 		.ascii	"Alarms [get/roll/reset]\000"
 845      6D73205B 
 845      6765742F 
 845      726F6C6C 
 845      2F726573 
 846              	.LC11:
 847 00ac 616C6172 		.ascii	"alarms\000"
 847      6D7300
 848              	.LC12:
 849 00b3 53796E74 		.ascii	"Synthesizer status\000"
 849      68657369 
 849      7A657220 
 849      73746174 
 849      757300
 850              	.LC13:
 851 00c6 73796E74 		.ascii	"synthmon\000"
 851      686D6F6E 
 851      00
 852              	.LC14:
 853 00cf 456E7465 		.ascii	"Enters the bootloader\000"
ARM GAS  C:\Users\chemi\AppData\Local\Temp\ccULJIkS.s 			page 24


 853      72732074 
 853      68652062 
 853      6F6F746C 
 853      6F616465 
 854              	.LC15:
 855 00e5 626F6F74 		.ascii	"bootloader\000"
 855      6C6F6164 
 855      657200
 856              	.LC16:
 857 00f0 62757320 		.ascii	"bus [on/off]\000"
 857      5B6F6E2F 
 857      6F66665D 
 857      00
 858              	.LC17:
 859 00fd 62757300 		.ascii	"bus\000"
 860              	.LC18:
 861 0101 43616C69 		.ascii	"Calibrate Vdriver\000"
 861      62726174 
 861      65205664 
 861      72697665 
 861      7200
 862              	.LC19:
 863 0113 63616C69 		.ascii	"calib\000"
 863      6200
 864              	.LC20:
 865 0119 496E7465 		.ascii	"Internal use\000"
 865      726E616C 
 865      20757365 
 865      00
 866              	.LC21:
 867 0126 636F6E66 		.ascii	"config_get\000"
 867      69675F67 
 867      657400
 868              	.LC22:
 869 0131 47657420 		.ascii	"Get supported features\000"
 869      73757070 
 869      6F727465 
 869      64206665 
 869      61747572 
 870              	.LC23:
 871 0148 66656174 		.ascii	"features\000"
 871      75726573 
 871      00
 872              	.LC24:
 873 0151 53617665 		.ascii	"Save/Load config [load/save]\000"
 873      2F4C6F61 
 873      6420636F 
 873      6E666967 
 873      205B6C6F 
 874              	.LC25:
 875 016e 65657072 		.ascii	"eeprom\000"
 875      6F6D00
 876              	.LC26:
 877 0175 53746F70 		.ascii	"Stops the output\000"
 877      73207468 
 877      65206F75 
 877      74707574 
ARM GAS  C:\Users\chemi\AppData\Local\Temp\ccULJIkS.s 			page 25


 877      00
 878              	.LC27:
 879 0186 6B696C6C 		.ascii	"kill\000"
 879      00
 880              	.LC28:
 881 018b 4C6F6164 		.ascii	"Loads the default parameters\000"
 881      73207468 
 881      65206465 
 881      6661756C 
 881      74207061 
 882              	.LC29:
 883 01a8 6C6F6164 		.ascii	"load_default\000"
 883      5F646566 
 883      61756C74 
 883      00
 884              	.LC30:
 885 01b5 55736167 		.ascii	"Usage get [param]\000"
 885      65206765 
 885      74205B70 
 885      6172616D 
 885      5D00
 886              	.LC31:
 887 01c7 67657400 		.ascii	"get\000"
 888              	.LC32:
 889 01cb 55736167 		.ascii	"Usage set [param] [value]\000"
 889      65207365 
 889      74205B70 
 889      6172616D 
 889      5D205B76 
 890              	.LC33:
 891 01e5 73657400 		.ascii	"set\000"
 892              	.LC34:
 893 01e9 4E564D2D 		.ascii	"NVM-Test Func\000"
 893      54657374 
 893      2046756E 
 893      6300
 894              	.LC35:
 895 01f7 6E766D00 		.ascii	"nvm\000"
 896              	.LC36:
 897 01fb 51435720 		.ascii	"QCW [start/stop]\000"
 897      5B737461 
 897      72742F73 
 897      746F705D 
 897      00
 898              	.LC37:
 899 020c 71637700 		.ascii	"qcw\000"
 900              	.LC38:
 901 0210 53776974 		.ascii	"Switch user relay 3/4\000"
 901      63682075 
 901      73657220 
 901      72656C61 
 901      7920332F 
 902              	.LC39:
 903 0226 72656C61 		.ascii	"relay\000"
 903      7900
 904              	.LC40:
 905 022c 53657420 		.ascii	"Set user pwm 3/4\000"
ARM GAS  C:\Users\chemi\AppData\Local\Temp\ccULJIkS.s 			page 26


 905      75736572 
 905      2070776D 
 905      20332F34 
 905      00
 906              	.LC41:
 907 023d 70776D00 		.ascii	"pwm\000"
 908              	.LC42:
 909 0241 52657365 		.ascii	"Resets UD3\000"
 909      74732055 
 909      443300
 910              	.LC43:
 911 024c 72657365 		.ascii	"reset\000"
 911      7400
 912              	.LC44:
 913 0252 44697370 		.ascii	"Displays coil status\000"
 913      6C617973 
 913      20636F69 
 913      6C207374 
 913      61747573 
 914              	.LC45:
 915 0267 73746174 		.ascii	"status\000"
 915      757300
 916              	.LC46:
 917 026e 4368616E 		.ascii	"Changes terminal mode\000"
 917      67657320 
 917      7465726D 
 917      696E616C 
 917      206D6F64 
 918              	.LC47:
 919 0284 74746572 		.ascii	"tterm\000"
 919      6D00
 920              	.LC48:
 921 028a 4175746F 		.ascii	"Autotune [prim/sec]\000"
 921      74756E65 
 921      205B7072 
 921      696D2F73 
 921      65635D00 
 922              	.LC49:
 923 029e 74756E65 		.ascii	"tune\000"
 923      00
 924              	.LC50:
 925 02a3 54656C65 		.ascii	"Telemetry options\000"
 925      6D657472 
 925      79206F70 
 925      74696F6E 
 925      7300
 926              	.LC51:
 927 02b5 74656C65 		.ascii	"telemetry\000"
 927      6D657472 
 927      7900
 928              	.LC52:
 929 02bf 57726974 		.ascii	"Write QCW ramp\000"
 929      65205143 
 929      57207261 
 929      6D7000
 930              	.LC53:
 931 02ce 72616D70 		.ascii	"ramp\000"
ARM GAS  C:\Users\chemi\AppData\Local\Temp\ccULJIkS.s 			page 27


 931      00
 932              	.LC54:
 933 02d3 44656275 		.ascii	"Debug mode\000"
 933      67206D6F 
 933      646500
 934              	.LC55:
 935 02de 64656275 		.ascii	"debug\000"
 935      6700
 936              	.LC56:
 937 02e4 43616C69 		.ascii	"Calibrate NTC iDAC\000"
 937      62726174 
 937      65204E54 
 937      43206944 
 937      414300
 938              	.LC57:
 939 02f7 6E746300 		.ascii	"ntc\000"
 940              	.LC58:
 941 02fb 61646A75 		.ascii	"adjust hardware gauge parameters\000"
 941      73742068 
 941      61726477 
 941      61726520 
 941      67617567 
 942              	.LC59:
 943 031c 68774761 		.ascii	"hwGauge\000"
 943      75676500 
 944              	.LC60:
 945 0324 44697370 		.ascii	"Display hardware revision\000"
 945      6C617920 
 945      68617264 
 945      77617265 
 945      20726576 
 946              	.LC61:
 947 033e 68777265 		.ascii	"hwrev\000"
 947      7600
 948              	.LC62:
 949 0344 496E6A65 		.ascii	"Inject a MIDI message\000"
 949      63742061 
 949      204D4944 
 949      49206D65 
 949      73736167 
 950              	.LC63:
 951 035a 6D696469 		.ascii	"midi\000"
 951      00
 952              	.LC64:
 953 035f 5553422D 		.ascii	"USB-CLI\000"
 953      434C4900 
 954              	.LC65:
 955 0367 4D494E30 		.ascii	"MIN0\000"
 955      00
 956              	.LC66:
 957 036c 4D494E31 		.ascii	"MIN1\000"
 957      00
 958              	.LC67:
 959 0371 4D494E32 		.ascii	"MIN2\000"
 959      00
 960              	.LC68:
 961 0376 4D494E33 		.ascii	"MIN3\000"
ARM GAS  C:\Users\chemi\AppData\Local\Temp\ccULJIkS.s 			page 28


 961      00
 962              	.LC69:
 963 037b 6175746F 		.ascii	"autostart\000"
 963      73746172 
 963      7400
 964              	.LC70:
 965 0385 6175746F 		.ascii	"autotune_s\000"
 965      74756E65 
 965      5F7300
 966              	.LC71:
 967 0390 62617564 		.ascii	"baudrate\000"
 967      72617465 
 967      00
 968              	.LC72:
 969 0399 626F6666 		.ascii	"boff\000"
 969      00
 970              	.LC73:
 971 039e 626F6E00 		.ascii	"bon\000"
 972              	.LC74:
 973 03a2 63686172 		.ascii	"charge_delay\000"
 973      67655F64 
 973      656C6179 
 973      00
 974              	.LC75:
 975 03af 636F6D70 		.ascii	"comp_attac\000"
 975      5F617474 
 975      616300
 976              	.LC76:
 977 03ba 636F6D70 		.ascii	"comp_dutyOffset\000"
 977      5F647574 
 977      794F6666 
 977      73657400 
 978              	.LC77:
 979 03ca 636F6D70 		.ascii	"comp_release\000"
 979      5F72656C 
 979      65617365 
 979      00
 980              	.LC78:
 981 03d7 636F6D70 		.ascii	"comp_sustain\000"
 981      5F737573 
 981      7461696E 
 981      00
 982              	.LC79:
 983 03e4 6374315F 		.ascii	"ct1_burden\000"
 983      62757264 
 983      656E00
 984              	.LC80:
 985 03ef 6374315F 		.ascii	"ct1_ratio\000"
 985      72617469 
 985      6F00
 986              	.LC81:
 987 03f9 6374325F 		.ascii	"ct2_burden\000"
 987      62757264 
 987      656E00
 988              	.LC82:
 989 0404 6374325F 		.ascii	"ct2_current\000"
 989      63757272 
ARM GAS  C:\Users\chemi\AppData\Local\Temp\ccULJIkS.s 			page 29


 989      656E7400 
 990              	.LC83:
 991 0410 6374325F 		.ascii	"ct2_offset\000"
 991      6F666673 
 991      657400
 992              	.LC84:
 993 041b 6374325F 		.ascii	"ct2_ratio\000"
 993      72617469 
 993      6F00
 994              	.LC85:
 995 0425 6374325F 		.ascii	"ct2_type\000"
 995      74797065 
 995      00
 996              	.LC86:
 997 042e 6374325F 		.ascii	"ct2_voltage\000"
 997      766F6C74 
 997      61676500 
 998              	.LC87:
 999 043a 6374335F 		.ascii	"ct3_burden\000"
 999      62757264 
 999      656E00
 1000              	.LC88:
 1001 0445 6374335F 		.ascii	"ct3_ratio\000"
 1001      72617469 
 1001      6F00
 1002              	.LC89:
 1003 044f 645F6361 		.ascii	"d_calib\000"
 1003      6C696200 
 1004              	.LC90:
 1005 0457 656E615F 		.ascii	"ena_display\000"
 1005      64697370 
 1005      6C617900 
 1006              	.LC91:
 1007 0463 656E615F 		.ascii	"ena_ext_int\000"
 1007      6578745F 
 1007      696E7400 
 1008              	.LC92:
 1009 046f 68775F72 		.ascii	"hw_rev\000"
 1009      657600
 1010              	.LC93:
 1011 0476 69766F5F 		.ascii	"ivo_led\000"
 1011      6C656400 
 1012              	.LC94:
 1013 047e 69766F5F 		.ascii	"ivo_uart\000"
 1013      75617274 
 1013      00
 1014              	.LC95:
 1015 0487 6C656164 		.ascii	"lead_time\000"
 1015      5F74696D 
 1015      6500
 1016              	.LC96:
 1017 0491 6D617844 		.ascii	"maxDutyOffset\000"
 1017      7574794F 
 1017      66667365 
 1017      7400
 1018              	.LC97:
 1019 049f 6D696E44 		.ascii	"minDutyOffset\000"
ARM GAS  C:\Users\chemi\AppData\Local\Temp\ccULJIkS.s 			page 30


 1019      7574794F 
 1019      66667365 
 1019      7400
 1020              	.LC98:
 1021 04ad 6D61785F 		.ascii	"max_const_i\000"
 1021      636F6E73 
 1021      745F6900 
 1022              	.LC99:
 1023 04b9 6D61785F 		.ascii	"max_fb_errors\000"
 1023      66625F65 
 1023      72726F72 
 1023      7300
 1024              	.LC100:
 1025 04c7 6D61785F 		.ascii	"max_qcw_current\000"
 1025      7163775F 
 1025      63757272 
 1025      656E7400 
 1026              	.LC101:
 1027 04d7 6D61785F 		.ascii	"max_qcw_duty\000"
 1027      7163775F 
 1027      64757479 
 1027      00
 1028              	.LC102:
 1029 04e4 6D61785F 		.ascii	"max_qcw_pw\000"
 1029      7163775F 
 1029      707700
 1030              	.LC103:
 1031 04ef 6D61785F 		.ascii	"max_tr_current\000"
 1031      74725F63 
 1031      75727265 
 1031      6E7400
 1032              	.LC104:
 1033 04fe 6D61785F 		.ascii	"max_tr_duty\000"
 1033      74725F64 
 1033      75747900 
 1034              	.LC105:
 1035 050a 6D61785F 		.ascii	"max_tr_prf\000"
 1035      74725F70 
 1035      726600
 1036              	.LC106:
 1037 0515 6D61785F 		.ascii	"max_tr_pw\000"
 1037      74725F70 
 1037      7700
 1038              	.LC107:
 1039 051f 6D696E5F 		.ascii	"min_enable\000"
 1039      656E6162 
 1039      6C6500
 1040              	.LC108:
 1041 052a 6D696E5F 		.ascii	"min_fb_current\000"
 1041      66625F63 
 1041      75727265 
 1041      6E7400
 1042              	.LC109:
 1043 0539 6D696E5F 		.ascii	"min_tr_current\000"
 1043      74725F63 
 1043      75727265 
 1043      6E7400
ARM GAS  C:\Users\chemi\AppData\Local\Temp\ccULJIkS.s 			page 31


 1044              	.LC110:
 1045 0548 6E6F6973 		.ascii	"noise_div\000"
 1045      655F6469 
 1045      7600
 1046              	.LC111:
 1047 0552 6F666674 		.ascii	"offtime\000"
 1047      696D6500 
 1048              	.LC112:
 1049 055a 70636139 		.ascii	"pca9685\000"
 1049      36383500 
 1050              	.LC113:
 1051 0562 7069645F 		.ascii	"pid_temp_i\000"
 1051      74656D70 
 1051      5F6900
 1052              	.LC114:
 1053 056d 7069645F 		.ascii	"pid_temp_mode\000"
 1053      74656D70 
 1053      5F6D6F64 
 1053      6500
 1054              	.LC115:
 1055 057b 7069645F 		.ascii	"pid_temp_p\000"
 1055      74656D70 
 1055      5F7000
 1056              	.LC116:
 1057 0586 7069645F 		.ascii	"pid_temp_set\000"
 1057      74656D70 
 1057      5F736574 
 1057      00
 1058              	.LC117:
 1059 0593 70735F73 		.ascii	"ps_scheme\000"
 1059      6368656D 
 1059      6500
 1060              	.LC118:
 1061 059d 707700   		.ascii	"pw\000"
 1062              	.LC119:
 1063 05a0 70776400 		.ascii	"pwd\000"
 1064              	.LC120:
 1065 05a4 7163775F 		.ascii	"qcw_coil\000"
 1065      636F696C 
 1065      00
 1066              	.LC121:
 1067 05ad 7163775F 		.ascii	"qcw_freq\000"
 1067      66726571 
 1067      00
 1068              	.LC122:
 1069 05b6 7163775F 		.ascii	"qcw_hold\000"
 1069      686F6C64 
 1069      00
 1070              	.LC123:
 1071 05bf 7163775F 		.ascii	"qcw_max\000"
 1071      6D617800 
 1072              	.LC124:
 1073 05c7 7163775F 		.ascii	"qcw_offset\000"
 1073      6F666673 
 1073      657400
 1074              	.LC125:
 1075 05d2 7163775F 		.ascii	"qcw_ramp\000"
ARM GAS  C:\Users\chemi\AppData\Local\Temp\ccULJIkS.s 			page 32


 1075      72616D70 
 1075      00
 1076              	.LC126:
 1077 05db 7163775F 		.ascii	"qcw_repeat\000"
 1077      72657065 
 1077      617400
 1078              	.LC127:
 1079 05e6 7163775F 		.ascii	"qcw_vol\000"
 1079      766F6C00 
 1080              	.LC128:
 1081 05ee 725F6275 		.ascii	"r_bus\000"
 1081      7300
 1082              	.LC129:
 1083 05f4 7369645F 		.ascii	"sid_hpv_enabled\000"
 1083      6870765F 
 1083      656E6162 
 1083      6C656400 
 1084              	.LC130:
 1085 0604 7369645F 		.ascii	"sid_noise_volume\000"
 1085      6E6F6973 
 1085      655F766F 
 1085      6C756D65 
 1085      00
 1086              	.LC131:
 1087 0615 7370695F 		.ascii	"spi_speed\000"
 1087      73706565 
 1087      6400
 1088              	.LC132:
 1089 061f 73746172 		.ascii	"start_cycles\000"
 1089      745F6379 
 1089      636C6573 
 1089      00
 1090              	.LC133:
 1091 062c 73746172 		.ascii	"start_freq\000"
 1091      745F6672 
 1091      657100
 1092              	.LC134:
 1093 0637 73796E74 		.ascii	"synth\000"
 1093      6800
 1094              	.LC135:
 1095 063d 74656D70 		.ascii	"temp1_max\000"
 1095      315F6D61 
 1095      7800
 1096              	.LC136:
 1097 0647 74656D70 		.ascii	"temp1_setpoint\000"
 1097      315F7365 
 1097      74706F69 
 1097      6E7400
 1098              	.LC137:
 1099 0656 74656D70 		.ascii	"temp2_max\000"
 1099      325F6D61 
 1099      7800
 1100              	.LC138:
 1101 0660 74656D70 		.ascii	"temp2_mode\000"
 1101      325F6D6F 
 1101      646500
 1102              	.LC139:
ARM GAS  C:\Users\chemi\AppData\Local\Temp\ccULJIkS.s 			page 33


 1103 066b 74656D70 		.ascii	"temp2_setpoint\000"
 1103      325F7365 
 1103      74706F69 
 1103      6E7400
 1104              	.LC140:
 1105 067a 7472616E 		.ascii	"transpose\000"
 1105      73706F73 
 1105      6500
 1106              	.LC141:
 1107 0684 74756E65 		.ascii	"tune_delay\000"
 1107      5F64656C 
 1107      617900
 1108              	.LC142:
 1109 068f 74756E65 		.ascii	"tune_end\000"
 1109      5F656E64 
 1109      00
 1110              	.LC143:
 1111 0698 74756E65 		.ascii	"tune_pw\000"
 1111      5F707700 
 1112              	.LC144:
 1113 06a0 74756E65 		.ascii	"tune_start\000"
 1113      5F737461 
 1113      727400
 1114              	.LC145:
 1115 06ab 75645F6E 		.ascii	"ud_name\000"
 1115      616D6500 
 1116              	.LC146:
 1117 06b3 75766C6F 		.ascii	"uvlo_analog\000"
 1117      5F616E61 
 1117      6C6F6700 
 1118              	.LC147:
 1119 06bf 76647269 		.ascii	"vdrive\000"
 1119      766500
 1120              	.LC148:
 1121 06c6 77617463 		.ascii	"watchdog\000"
 1121      68646F67 
 1121      00
 1122              	.LC149:
 1123 06cf 626C6F63 		.ascii	"blocks\000"
 1123      6B7300
 1124              	.LC150:
 1125 06d6 6D617073 		.ascii	"maps\000"
 1125      00
 1126              	.LC151:
 1127 06db 7072696D 		.ascii	"prim\000"
 1127      00
 1128              	.LC152:
 1129 06e0 73656300 		.ascii	"sec\000"
 1130              	.LC153:
 1131 06e4 6C6F6164 		.ascii	"load\000"
 1131      00
 1132              	.LC154:
 1133 06e9 73617665 		.ascii	"save\000"
 1133      00
 1134              	.LC155:
 1135 06ee 61737369 		.ascii	"assign\000"
 1135      676E00
ARM GAS  C:\Users\chemi\AppData\Local\Temp\ccULJIkS.s 			page 34


 1136              	.LC156:
 1137 06f5 636C6561 		.ascii	"clear\000"
 1137      7200
 1138              	.LC157:
 1139 06fb 63616C69 		.ascii	"calibrate\000"
 1139      62726174 
 1139      6500
 1140              	.LC158:
 1141 0705 656E6443 		.ascii	"endColor\000"
 1141      6F6C6F72 
 1141      00
 1142              	.LC159:
 1143 070e 73746172 		.ascii	"startColor\000"
 1143      74436F6C 
 1143      6F7200
 1144              	.LC160:
 1145 0719 7472616E 		.ascii	"transition\000"
 1145      73697469 
 1145      6F6E00
 1146              	.LC161:
 1147 0724 726F6C6C 		.ascii	"roll\000"
 1147      00
 1148              	.LC162:
 1149 0729 64726177 		.ascii	"draw\000"
 1149      00
 1150              	.LC163:
 1151 072e 6C696E65 		.ascii	"line\000"
 1151      00
 1152              	.LC164:
 1153 0733 706F696E 		.ascii	"point\000"
 1153      7400
 1154              	.LC165:
 1155 0739 696E666F 		.ascii	"info\000"
 1155      00
 1156              	.LC166:
 1157 073e 6D696E00 		.ascii	"min\000"
 1158              	.LC167:
 1159 0742 6E756D63 		.ascii	"numcon\000"
 1159      6F6E00
 1160              	.LC168:
 1161 0749 6F666600 		.ascii	"off\000"
 1162              	.LC169:
 1163 074d 6F6E00   		.ascii	"on\000"
 1164              	.LC170:
 1165 0750 73746172 		.ascii	"start\000"
 1165      7400
 1166              	.LC171:
 1167 0756 73746F70 		.ascii	"stop\000"
 1167      00
 1168              		.data
 1169              		.align	2
 1170              		.set	.LANCHOR1,. + 0
 1171              		.type	AC_start_stop, %object
 1172              		.size	AC_start_stop, 8
 1173              	AC_start_stop:
 1174 0000 50070000 		.word	.LC170
 1175 0004 56070000 		.word	.LC171
ARM GAS  C:\Users\chemi\AppData\Local\Temp\ccULJIkS.s 			page 35


 1176              		.type	AC_con, %object
 1177              		.size	AC_con, 12
 1178              	AC_con:
 1179 0008 39070000 		.word	.LC165
 1180 000c 3E070000 		.word	.LC166
 1181 0010 42070000 		.word	.LC167
 1182              		.type	AC_alarms, %object
 1183              		.size	AC_alarms, 12
 1184              	AC_alarms:
 1185 0014 C7010000 		.word	.LC31
 1186 0018 4C020000 		.word	.LC43
 1187 001c 24070000 		.word	.LC161
 1188              		.type	AC_on_off, %object
 1189              		.size	AC_on_off, 8
 1190              	AC_on_off:
 1191 0020 49070000 		.word	.LC168
 1192 0024 4D070000 		.word	.LC169
 1193              		.type	AC_eeprom, %object
 1194              		.size	AC_eeprom, 8
 1195              	AC_eeprom:
 1196 0028 E4060000 		.word	.LC153
 1197 002c E9060000 		.word	.LC154
 1198              		.type	AC_set_get, %object
 1199              		.size	AC_set_get, 320
 1200              	AC_set_get:
 1201 0030 7B030000 		.word	.LC69
 1202 0034 85030000 		.word	.LC70
 1203 0038 90030000 		.word	.LC71
 1204 003c 99030000 		.word	.LC72
 1205 0040 9E030000 		.word	.LC73
 1206 0044 A2030000 		.word	.LC74
 1207 0048 AF030000 		.word	.LC75
 1208 004c BA030000 		.word	.LC76
 1209 0050 CA030000 		.word	.LC77
 1210 0054 D7030000 		.word	.LC78
 1211 0058 E4030000 		.word	.LC79
 1212 005c EF030000 		.word	.LC80
 1213 0060 F9030000 		.word	.LC81
 1214 0064 04040000 		.word	.LC82
 1215 0068 10040000 		.word	.LC83
 1216 006c 1B040000 		.word	.LC84
 1217 0070 25040000 		.word	.LC85
 1218 0074 2E040000 		.word	.LC86
 1219 0078 3A040000 		.word	.LC87
 1220 007c 45040000 		.word	.LC88
 1221 0080 4F040000 		.word	.LC89
 1222 0084 57040000 		.word	.LC90
 1223 0088 63040000 		.word	.LC91
 1224 008c 6F040000 		.word	.LC92
 1225 0090 76040000 		.word	.LC93
 1226 0094 7E040000 		.word	.LC94
 1227 0098 87040000 		.word	.LC95
 1228 009c 91040000 		.word	.LC96
 1229 00a0 9F040000 		.word	.LC97
 1230 00a4 AD040000 		.word	.LC98
 1231 00a8 B9040000 		.word	.LC99
 1232 00ac C7040000 		.word	.LC100
ARM GAS  C:\Users\chemi\AppData\Local\Temp\ccULJIkS.s 			page 36


 1233 00b0 D7040000 		.word	.LC101
 1234 00b4 E4040000 		.word	.LC102
 1235 00b8 EF040000 		.word	.LC103
 1236 00bc FE040000 		.word	.LC104
 1237 00c0 0A050000 		.word	.LC105
 1238 00c4 15050000 		.word	.LC106
 1239 00c8 1F050000 		.word	.LC107
 1240 00cc 2A050000 		.word	.LC108
 1241 00d0 39050000 		.word	.LC109
 1242 00d4 48050000 		.word	.LC110
 1243 00d8 52050000 		.word	.LC111
 1244 00dc 5A050000 		.word	.LC112
 1245 00e0 62050000 		.word	.LC113
 1246 00e4 6D050000 		.word	.LC114
 1247 00e8 7B050000 		.word	.LC115
 1248 00ec 86050000 		.word	.LC116
 1249 00f0 93050000 		.word	.LC117
 1250 00f4 9D050000 		.word	.LC118
 1251 00f8 A0050000 		.word	.LC119
 1252 00fc A4050000 		.word	.LC120
 1253 0100 AD050000 		.word	.LC121
 1254 0104 B6050000 		.word	.LC122
 1255 0108 BF050000 		.word	.LC123
 1256 010c C7050000 		.word	.LC124
 1257 0110 D2050000 		.word	.LC125
 1258 0114 DB050000 		.word	.LC126
 1259 0118 E6050000 		.word	.LC127
 1260 011c EE050000 		.word	.LC128
 1261 0120 F4050000 		.word	.LC129
 1262 0124 04060000 		.word	.LC130
 1263 0128 15060000 		.word	.LC131
 1264 012c 1F060000 		.word	.LC132
 1265 0130 2C060000 		.word	.LC133
 1266 0134 37060000 		.word	.LC134
 1267 0138 3D060000 		.word	.LC135
 1268 013c 47060000 		.word	.LC136
 1269 0140 56060000 		.word	.LC137
 1270 0144 60060000 		.word	.LC138
 1271 0148 6B060000 		.word	.LC139
 1272 014c 7A060000 		.word	.LC140
 1273 0150 84060000 		.word	.LC141
 1274 0154 8F060000 		.word	.LC142
 1275 0158 98060000 		.word	.LC143
 1276 015c A0060000 		.word	.LC144
 1277 0160 AB060000 		.word	.LC145
 1278 0164 B3060000 		.word	.LC146
 1279 0168 BF060000 		.word	.LC147
 1280 016c C6060000 		.word	.LC148
 1281              		.type	AC_nvm, %object
 1282              		.size	AC_nvm, 8
 1283              	AC_nvm:
 1284 0170 CF060000 		.word	.LC149
 1285 0174 D6060000 		.word	.LC150
 1286              		.type	AC_tune, %object
 1287              		.size	AC_tune, 8
 1288              	AC_tune:
 1289 0178 DB060000 		.word	.LC151
ARM GAS  C:\Users\chemi\AppData\Local\Temp\ccULJIkS.s 			page 37


 1290 017c E0060000 		.word	.LC152
 1291              		.type	AC_ramp, %object
 1292              		.size	AC_ramp, 16
 1293              	AC_ramp:
 1294 0180 F5060000 		.word	.LC156
 1295 0184 29070000 		.word	.LC162
 1296 0188 2E070000 		.word	.LC163
 1297 018c 33070000 		.word	.LC164
 1298              		.type	AC_hwGauge, %object
 1299              		.size	AC_hwGauge, 24
 1300              	AC_hwGauge:
 1301 0190 EE060000 		.word	.LC155
 1302 0194 F5060000 		.word	.LC156
 1303 0198 FB060000 		.word	.LC157
 1304 019c 05070000 		.word	.LC158
 1305 01a0 0E070000 		.word	.LC159
 1306 01a4 19070000 		.word	.LC160
 1307              		.type	null_handle, %object
 1308              		.size	null_handle, 4
 1309              	null_handle:
 1310 01a8 00000000 		.word	null
 1311              		.bss
 1312              		.set	.LANCHOR0,. + 0
 1313              		.type	tsk_cli_initVar, %object
 1314              		.size	tsk_cli_initVar, 1
 1315              	tsk_cli_initVar:
 1316 0000 00       		.space	1
 1317              		.text
 1318              	.Letext0:
 1319              		.file 2 "c:\\program files (x86)\\cypress\\psoc creator\\4.4\\psoc creator\\import\\gnu\\arm\\5.4.
 1320              		.file 3 "c:\\program files (x86)\\cypress\\psoc creator\\4.4\\psoc creator\\import\\gnu\\arm\\5.4.
 1321              		.file 4 "Generated_Source\\PSoC5/cytypes.h"
 1322              		.file 5 "..\\common\\rtos\\portable\\GCC\\ARM_CM3/portmacro.h"
 1323              		.file 6 "..\\common\\rtos\\include/task.h"
 1324              		.file 7 "..\\common\\rtos\\include/queue.h"
 1325              		.file 8 "..\\common\\rtos\\include/semphr.h"
 1326              		.file 9 "..\\common\\rtos\\include/stream_buffer.h"
 1327              		.file 10 "..\\common\\tterm/TTerm.h"
 1328              		.file 11 "..\\common\\ud3core/cli_basic.h"
 1329              		.file 12 "..\\common\\rtos\\include/timers.h"
 1330              		.file 13 "..\\common\\ud3core/qcw.h"
 1331              		.file 14 "..\\common\\ud3core/interrupter.h"
 1332              		.file 15 "Generated_Source\\PSoC5/core_cm3.h"
 1333              		.file 16 "..\\common\\ud3core/alarmevent.h"
 1334              		.file 17 "..\\common\\tterm/TTerm_AC.h"