ARM GAS  C:\Users\chemi\AppData\Local\Temp\ccVrHZQF.s 			page 1


   1              		.syntax unified
   2              		.cpu cortex-m3
   3              		.fpu softvfp
   4              		.eabi_attribute 20, 1
   5              		.eabi_attribute 21, 1
   6              		.eabi_attribute 23, 3
   7              		.eabi_attribute 24, 1
   8              		.eabi_attribute 25, 1
   9              		.eabi_attribute 26, 1
  10              		.eabi_attribute 30, 4
  11              		.eabi_attribute 34, 1
  12              		.eabi_attribute 18, 4
  13              		.thumb
  14              		.syntax unified
  15              		.file	"tsk_thermistor.c"
  16              		.text
  17              	.Ltext0:
  18              		.cfi_sections	.debug_frame
  19              		.global	__aeabi_i2d
  20              		.global	__aeabi_dmul
  21              		.global	__aeabi_d2f
  22              		.global	__aeabi_i2f
  23              		.global	__aeabi_fdiv
  24              		.global	__aeabi_fmul
  25              		.global	__aeabi_ui2f
  26              		.global	__aeabi_f2d
  27              		.global	__aeabi_ddiv
  28              		.global	__aeabi_dsub
  29              		.global	__aeabi_f2iz
  30              		.section	.text.calc_table_128,"ax",%progbits
  31              		.align	1
  32              		.global	calc_table_128
  33              		.thumb
  34              		.thumb_func
  35              		.type	calc_table_128, %function
  36              	calc_table_128:
  37              	.LFB68:
  38              		.file 1 "..\\common\\ud3core\\tasks\\tsk_thermistor.c"
   1:..\common\ud3core\tasks/tsk_thermistor.c **** /*
   2:..\common\ud3core\tasks/tsk_thermistor.c ****  * UD3
   3:..\common\ud3core\tasks/tsk_thermistor.c ****  *
   4:..\common\ud3core\tasks/tsk_thermistor.c ****  * Copyright (c) 2018 Jens Kerrinnes
   5:..\common\ud3core\tasks/tsk_thermistor.c ****  * Copyright (c) 2015 Steve Ward
   6:..\common\ud3core\tasks/tsk_thermistor.c ****  *
   7:..\common\ud3core\tasks/tsk_thermistor.c ****  * Permission is hereby granted, free of charge, to any person obtaining a copy of
   8:..\common\ud3core\tasks/tsk_thermistor.c ****  * this software and associated documentation files (the "Software"), to deal in
   9:..\common\ud3core\tasks/tsk_thermistor.c ****  * the Software without restriction, including without limitation the rights to
  10:..\common\ud3core\tasks/tsk_thermistor.c ****  * use, copy, modify, merge, publish, distribute, sublicense, and/or sell copies of
  11:..\common\ud3core\tasks/tsk_thermistor.c ****  * the Software, and to permit persons to whom the Software is furnished to do so,
  12:..\common\ud3core\tasks/tsk_thermistor.c ****  * subject to the following conditions:
  13:..\common\ud3core\tasks/tsk_thermistor.c ****  *
  14:..\common\ud3core\tasks/tsk_thermistor.c ****  * The above copyright notice and this permission notice shall be included in all
  15:..\common\ud3core\tasks/tsk_thermistor.c ****  * copies or substantial portions of the Software.
  16:..\common\ud3core\tasks/tsk_thermistor.c ****  *
  17:..\common\ud3core\tasks/tsk_thermistor.c ****  * THE SOFTWARE IS PROVIDED "AS IS", WITHOUT WARRANTY OF ANY KIND, EXPRESS OR
  18:..\common\ud3core\tasks/tsk_thermistor.c ****  * IMPLIED, INCLUDING BUT NOT LIMITED TO THE WARRANTIES OF MERCHANTABILITY, FITNESS
  19:..\common\ud3core\tasks/tsk_thermistor.c ****  * FOR A PARTICULAR PURPOSE AND NONINFRINGEMENT. IN NO EVENT SHALL THE AUTHORS OR
ARM GAS  C:\Users\chemi\AppData\Local\Temp\ccVrHZQF.s 			page 2


  20:..\common\ud3core\tasks/tsk_thermistor.c ****  * COPYRIGHT HOLDERS BE LIABLE FOR ANY CLAIM, DAMAGES OR OTHER LIABILITY, WHETHER
  21:..\common\ud3core\tasks/tsk_thermistor.c ****  * IN AN ACTION OF CONTRACT, TORT OR OTHERWISE, ARISING FROM, OUT OF OR IN
  22:..\common\ud3core\tasks/tsk_thermistor.c ****  * CONNECTION WITH THE SOFTWARE OR THE USE OR OTHER DEALINGS IN THE SOFTWARE.
  23:..\common\ud3core\tasks/tsk_thermistor.c **** */
  24:..\common\ud3core\tasks/tsk_thermistor.c **** 
  25:..\common\ud3core\tasks/tsk_thermistor.c **** #include "cyapicallbacks.h"
  26:..\common\ud3core\tasks/tsk_thermistor.c **** #include <cytypes.h>
  27:..\common\ud3core\tasks/tsk_thermistor.c **** #include <math.h>
  28:..\common\ud3core\tasks/tsk_thermistor.c **** 
  29:..\common\ud3core\tasks/tsk_thermistor.c **** #include "tsk_thermistor.h"
  30:..\common\ud3core\tasks/tsk_thermistor.c **** #include "tsk_fault.h"
  31:..\common\ud3core\tasks/tsk_thermistor.c **** #include "alarmevent.h"
  32:..\common\ud3core\tasks/tsk_thermistor.c **** #include "helper/FastPID.h"
  33:..\common\ud3core\tasks/tsk_thermistor.c **** 
  34:..\common\ud3core\tasks/tsk_thermistor.c **** /* RTOS includes. */
  35:..\common\ud3core\tasks/tsk_thermistor.c **** #include "FreeRTOS.h"
  36:..\common\ud3core\tasks/tsk_thermistor.c **** #include "task.h"
  37:..\common\ud3core\tasks/tsk_thermistor.c **** #include "queue.h"
  38:..\common\ud3core\tasks/tsk_thermistor.c **** #include "semphr.h"
  39:..\common\ud3core\tasks/tsk_thermistor.c **** 
  40:..\common\ud3core\tasks/tsk_thermistor.c **** xTaskHandle tsk_thermistor_TaskHandle;
  41:..\common\ud3core\tasks/tsk_thermistor.c **** uint8 tsk_thermistor_initVar = 0u;
  42:..\common\ud3core\tasks/tsk_thermistor.c **** 
  43:..\common\ud3core\tasks/tsk_thermistor.c **** FastPID pid_temp;
  44:..\common\ud3core\tasks/tsk_thermistor.c **** 
  45:..\common\ud3core\tasks/tsk_thermistor.c **** SemaphoreHandle_t adc_sem;
  46:..\common\ud3core\tasks/tsk_thermistor.c **** 
  47:..\common\ud3core\tasks/tsk_thermistor.c **** enum fan_mode{
  48:..\common\ud3core\tasks/tsk_thermistor.c ****     FAN_NORMAL = 0,
  49:..\common\ud3core\tasks/tsk_thermistor.c ****     FAN_TEMP1_TEMP2 = 1,
  50:..\common\ud3core\tasks/tsk_thermistor.c ****     FAN_NOT_USED = 2,
  51:..\common\ud3core\tasks/tsk_thermistor.c ****     FAN_TEMP2_RELAY3 = 3,
  52:..\common\ud3core\tasks/tsk_thermistor.c ****     FAN_TEMP2_RELAY4 = 4,
  53:..\common\ud3core\tasks/tsk_thermistor.c **** };
  54:..\common\ud3core\tasks/tsk_thermistor.c **** 
  55:..\common\ud3core\tasks/tsk_thermistor.c **** typedef struct{
  56:..\common\ud3core\tasks/tsk_thermistor.c ****     uint16_t fault1_cnt;
  57:..\common\ud3core\tasks/tsk_thermistor.c ****     uint16_t fault2_cnt;
  58:..\common\ud3core\tasks/tsk_thermistor.c **** }TEMP_FAULT;
  59:..\common\ud3core\tasks/tsk_thermistor.c **** 
  60:..\common\ud3core\tasks/tsk_thermistor.c **** #define THERM_1 0
  61:..\common\ud3core\tasks/tsk_thermistor.c **** #define THERM_2 1
  62:..\common\ud3core\tasks/tsk_thermistor.c **** #define THERM_GND 2
  63:..\common\ud3core\tasks/tsk_thermistor.c **** 
  64:..\common\ud3core\tasks/tsk_thermistor.c **** /* ------------------------------------------------------------------------ */
  65:..\common\ud3core\tasks/tsk_thermistor.c **** /*
  66:..\common\ud3core\tasks/tsk_thermistor.c ****  * Place user included headers, defines and task global data in the
  67:..\common\ud3core\tasks/tsk_thermistor.c ****  * below merge region section.
  68:..\common\ud3core\tasks/tsk_thermistor.c ****  */
  69:..\common\ud3core\tasks/tsk_thermistor.c **** /* `#START USER_INCLUDE SECTION` */
  70:..\common\ud3core\tasks/tsk_thermistor.c **** #include "tsk_analog.h"
  71:..\common\ud3core\tasks/tsk_thermistor.c **** #include "cli_common.h"
  72:..\common\ud3core\tasks/tsk_thermistor.c **** #include "telemetry.h"
  73:..\common\ud3core\tasks/tsk_thermistor.c **** #include "tsk_priority.h"
  74:..\common\ud3core\tasks/tsk_thermistor.c **** 
  75:..\common\ud3core\tasks/tsk_thermistor.c **** #define THERM_DAC_VAL 23
  76:..\common\ud3core\tasks/tsk_thermistor.c **** 
ARM GAS  C:\Users\chemi\AppData\Local\Temp\ccVrHZQF.s 			page 3


  77:..\common\ud3core\tasks/tsk_thermistor.c **** #define TEMP1_FAULT 0x00FF
  78:..\common\ud3core\tasks/tsk_thermistor.c **** #define TEMP2_FAULT 0xFF00
  79:..\common\ud3core\tasks/tsk_thermistor.c **** 
  80:..\common\ud3core\tasks/tsk_thermistor.c **** #define TEMP_FAULT_LOW -32640
  81:..\common\ud3core\tasks/tsk_thermistor.c **** 
  82:..\common\ud3core\tasks/tsk_thermistor.c **** #define TEMP_FAULT_COUNTER_MAX 5
  83:..\common\ud3core\tasks/tsk_thermistor.c **** 
  84:..\common\ud3core\tasks/tsk_thermistor.c **** #define TEMP_TABLE_SIZE 32
  85:..\common\ud3core\tasks/tsk_thermistor.c **** 
  86:..\common\ud3core\tasks/tsk_thermistor.c **** //temperature *128
  87:..\common\ud3core\tasks/tsk_thermistor.c **** int16_t count_temp_table[TEMP_TABLE_SIZE];
  88:..\common\ud3core\tasks/tsk_thermistor.c **** 
  89:..\common\ud3core\tasks/tsk_thermistor.c **** void calc_table_128(int16_t t_table[], uint8_t bits, uint16_t table_size, uint32_t B, uint32_t RN, 
  39              		.loc 1 89 0
  40              		.cfi_startproc
  41              		@ args = 8, pretend = 0, frame = 8
  42              		@ frame_needed = 0, uses_anonymous_args = 0
  43              	.LVL0:
  44 0000 2DE9F74F 		push	{r0, r1, r2, r4, r5, r6, r7, r8, r9, r10, fp, lr}
  45              		.cfi_def_cfa_offset 48
  46              		.cfi_offset 4, -36
  47              		.cfi_offset 5, -32
  48              		.cfi_offset 6, -28
  49              		.cfi_offset 7, -24
  50              		.cfi_offset 8, -20
  51              		.cfi_offset 9, -16
  52              		.cfi_offset 10, -12
  53              		.cfi_offset 11, -8
  54              		.cfi_offset 14, -4
  90:..\common\ud3core\tasks/tsk_thermistor.c **** 	
  91:..\common\ud3core\tasks/tsk_thermistor.c **** 	int32_t max_cnt = 1 << bits;
  55              		.loc 1 91 0
  56 0004 0126     		movs	r6, #1
  57 0006 8E40     		lsls	r6, r6, r1
  58              	.LVL1:
  89:..\common\ud3core\tasks/tsk_thermistor.c **** 	
  59              		.loc 1 89 0
  60 0008 8246     		mov	r10, r0
  92:..\common\ud3core\tasks/tsk_thermistor.c **** 	uint32_t steps =  max_cnt / table_size;
  93:..\common\ud3core\tasks/tsk_thermistor.c **** 
  94:..\common\ud3core\tasks/tsk_thermistor.c **** 	float meas_current = meas_curr_uA * 1e-6;
  61              		.loc 1 94 0
  62 000a BDF83400 		ldrh	r0, [sp, #52]
  63              	.LVL2:
  89:..\common\ud3core\tasks/tsk_thermistor.c **** 	
  64              		.loc 1 89 0
  65 000e 1746     		mov	r7, r2
  66 0010 9B46     		mov	fp, r3
  92:..\common\ud3core\tasks/tsk_thermistor.c **** 	uint32_t steps =  max_cnt / table_size;
  67              		.loc 1 92 0
  68 0012 96FBF2F8 		sdiv	r8, r6, r2
  69              	.LVL3:
  70              		.loc 1 94 0
  71 0016 FFF7FEFF 		bl	__aeabi_i2d
  72              	.LVL4:
  73 001a 33A3     		adr	r3, .L9
  74 001c D3E90023 		ldrd	r2, [r3]
ARM GAS  C:\Users\chemi\AppData\Local\Temp\ccVrHZQF.s 			page 4


  75 0020 FFF7FEFF 		bl	__aeabi_dmul
  76              	.LVL5:
  77 0024 FFF7FEFF 		bl	__aeabi_d2f
  78              	.LVL6:
  95:..\common\ud3core\tasks/tsk_thermistor.c **** 
  96:..\common\ud3core\tasks/tsk_thermistor.c **** 	float u_ref_mv = 5.0;
  97:..\common\ud3core\tasks/tsk_thermistor.c **** 	float r_cnt;
  98:..\common\ud3core\tasks/tsk_thermistor.c **** 	float temp_cnt;
  99:..\common\ud3core\tasks/tsk_thermistor.c **** 	
 100:..\common\ud3core\tasks/tsk_thermistor.c **** 
 101:..\common\ud3core\tasks/tsk_thermistor.c **** 	int32_t i;
 102:..\common\ud3core\tasks/tsk_thermistor.c **** 	uint16_t w=0;
 103:..\common\ud3core\tasks/tsk_thermistor.c **** 	for(i=0;i<=max_cnt;i+=steps){
  79              		.loc 1 103 0
  80 0028 0024     		movs	r4, #0
  94:..\common\ud3core\tasks/tsk_thermistor.c **** 
  81              		.loc 1 94 0
  82 002a 8146     		mov	r9, r0
  83              	.LVL7:
 102:..\common\ud3core\tasks/tsk_thermistor.c **** 	for(i=0;i<=max_cnt;i+=steps){
  84              		.loc 1 102 0
  85 002c 2546     		mov	r5, r4
  86              	.LVL8:
  87              	.L2:
  88              		.loc 1 103 0 discriminator 1
  89 002e B442     		cmp	r4, r6
  90 0030 56DC     		bgt	.L8
 104:..\common\ud3core\tasks/tsk_thermistor.c **** 		if(i>0){
  91              		.loc 1 104 0
  92 0032 002C     		cmp	r4, #0
  93 0034 14DD     		ble	.L6
 105:..\common\ud3core\tasks/tsk_thermistor.c **** 			r_cnt = u_ref_mv / max_cnt * i / meas_current;
  94              		.loc 1 105 0
  95 0036 3046     		mov	r0, r6
  96 0038 FFF7FEFF 		bl	__aeabi_i2f
  97              	.LVL9:
  98 003c 0146     		mov	r1, r0
  99 003e 3048     		ldr	r0, .L9+24
 100 0040 FFF7FEFF 		bl	__aeabi_fdiv
 101              	.LVL10:
 102 0044 0090     		str	r0, [sp]
 103 0046 2046     		mov	r0, r4
 104 0048 FFF7FEFF 		bl	__aeabi_i2f
 105              	.LVL11:
 106 004c 009B     		ldr	r3, [sp]
 107 004e 0146     		mov	r1, r0
 108 0050 1846     		mov	r0, r3
 109 0052 FFF7FEFF 		bl	__aeabi_fmul
 110              	.LVL12:
 111 0056 4946     		mov	r1, r9
 112 0058 FFF7FEFF 		bl	__aeabi_fdiv
 113              	.LVL13:
 114 005c 0146     		mov	r1, r0
 115              	.LVL14:
 116 005e 00E0     		b	.L3
 117              	.LVL15:
 118              	.L6:
ARM GAS  C:\Users\chemi\AppData\Local\Temp\ccVrHZQF.s 			page 5


 106:..\common\ud3core\tasks/tsk_thermistor.c **** 		}else{
 107:..\common\ud3core\tasks/tsk_thermistor.c **** 			r_cnt = 0;
 119              		.loc 1 107 0
 120 0060 0021     		movs	r1, #0
 121              	.L3:
 108:..\common\ud3core\tasks/tsk_thermistor.c **** 		}
 109:..\common\ud3core\tasks/tsk_thermistor.c **** 		
 110:..\common\ud3core\tasks/tsk_thermistor.c **** 		temp_cnt = (298.15/(1-(log(((float)RN/r_cnt))*(298.15/(float)B))))-273.15; 
 122              		.loc 1 110 0
 123 0062 0C98     		ldr	r0, [sp, #48]
 124 0064 0091     		str	r1, [sp]
 125              	.LVL16:
 126 0066 FFF7FEFF 		bl	__aeabi_ui2f
 127              	.LVL17:
 128 006a 0099     		ldr	r1, [sp]
 129 006c FFF7FEFF 		bl	__aeabi_fdiv
 130              	.LVL18:
 131 0070 FFF7FEFF 		bl	__aeabi_f2d
 132              	.LVL19:
 133 0074 FFF7FEFF 		bl	log
 134              	.LVL20:
 135 0078 CDE90001 		strd	r0, [sp]
 136              	.LVL21:
 137 007c 5846     		mov	r0, fp
 138 007e FFF7FEFF 		bl	__aeabi_ui2f
 139              	.LVL22:
 140 0082 FFF7FEFF 		bl	__aeabi_f2d
 141              	.LVL23:
 142 0086 0246     		mov	r2, r0
 143 0088 0B46     		mov	r3, r1
 144 008a 19A1     		adr	r1, .L9+8
 145 008c D1E90001 		ldrd	r0, [r1]
 146 0090 FFF7FEFF 		bl	__aeabi_ddiv
 147              	.LVL24:
 148 0094 DDE90023 		ldrd	r2, [sp]
 149 0098 FFF7FEFF 		bl	__aeabi_dmul
 150              	.LVL25:
 151 009c 0246     		mov	r2, r0
 152 009e 0B46     		mov	r3, r1
 153 00a0 0020     		movs	r0, #0
 154 00a2 1849     		ldr	r1, .L9+28
 155 00a4 FFF7FEFF 		bl	__aeabi_dsub
 156              	.LVL26:
 157 00a8 0246     		mov	r2, r0
 158 00aa 0B46     		mov	r3, r1
 159 00ac 10A1     		adr	r1, .L9+8
 160 00ae D1E90001 		ldrd	r0, [r1]
 161 00b2 FFF7FEFF 		bl	__aeabi_ddiv
 162              	.LVL27:
 163 00b6 10A3     		adr	r3, .L9+16
 164 00b8 D3E90023 		ldrd	r2, [r3]
 165 00bc FFF7FEFF 		bl	__aeabi_dsub
 166              	.LVL28:
 167 00c0 FFF7FEFF 		bl	__aeabi_d2f
 168              	.LVL29:
 111:..\common\ud3core\tasks/tsk_thermistor.c **** 		temp_cnt *= 128;
 112:..\common\ud3core\tasks/tsk_thermistor.c **** 		
ARM GAS  C:\Users\chemi\AppData\Local\Temp\ccVrHZQF.s 			page 6


 113:..\common\ud3core\tasks/tsk_thermistor.c **** 		t_table[w] = temp_cnt;
 169              		.loc 1 113 0
 170 00c4 4FF08641 		mov	r1, #1124073472
 171 00c8 FFF7FEFF 		bl	__aeabi_fmul
 172              	.LVL30:
 173 00cc FFF7FEFF 		bl	__aeabi_f2iz
 174              	.LVL31:
 114:..\common\ud3core\tasks/tsk_thermistor.c ****         if(w<table_size) w++;
 175              		.loc 1 114 0
 176 00d0 BD42     		cmp	r5, r7
 113:..\common\ud3core\tasks/tsk_thermistor.c ****         if(w<table_size) w++;
 177              		.loc 1 113 0
 178 00d2 2AF81500 		strh	r0, [r10, r5, lsl #1]	@ movhi
 179              		.loc 1 114 0
 180 00d6 3CBF     		itt	cc
 181 00d8 0135     		addcc	r5, r5, #1
 182              	.LVL32:
 183 00da ADB2     		uxthcc	r5, r5
 184              	.LVL33:
 185 00dc 4444     		add	r4, r4, r8
 186              	.LVL34:
 187 00de A6E7     		b	.L2
 188              	.LVL35:
 189              	.L8:
 115:..\common\ud3core\tasks/tsk_thermistor.c **** 		
 116:..\common\ud3core\tasks/tsk_thermistor.c **** 	}	
 117:..\common\ud3core\tasks/tsk_thermistor.c **** }
 190              		.loc 1 117 0
 191 00e0 03B0     		add	sp, sp, #12
 192              		.cfi_def_cfa_offset 36
 193              		@ sp needed
 194 00e2 BDE8F08F 		pop	{r4, r5, r6, r7, r8, r9, r10, fp, pc}
 195              	.LVL36:
 196              	.L10:
 197 00e6 00BF     		.align	3
 198              	.L9:
 199 00e8 8DEDB5A0 		.word	-1598689907
 200 00ec F7C6B03E 		.word	1051772663
 201 00f0 66666666 		.word	1717986918
 202 00f4 66A27240 		.word	1081254502
 203 00f8 66666666 		.word	1717986918
 204 00fc 66127140 		.word	1081152102
 205 0100 0000A040 		.word	1084227584
 206 0104 0000F03F 		.word	1072693248
 207              		.cfi_endproc
 208              	.LFE68:
 209              		.size	calc_table_128, .-calc_table_128
 210              		.section	.text.initialize_thermistor,"ax",%progbits
 211              		.align	1
 212              		.global	initialize_thermistor
 213              		.thumb
 214              		.thumb_func
 215              		.type	initialize_thermistor, %function
 216              	initialize_thermistor:
 217              	.LFB69:
 118:..\common\ud3core\tasks/tsk_thermistor.c **** 
 119:..\common\ud3core\tasks/tsk_thermistor.c **** 
ARM GAS  C:\Users\chemi\AppData\Local\Temp\ccVrHZQF.s 			page 7


 120:..\common\ud3core\tasks/tsk_thermistor.c **** /* `#END` */
 121:..\common\ud3core\tasks/tsk_thermistor.c **** /* ------------------------------------------------------------------------ */
 122:..\common\ud3core\tasks/tsk_thermistor.c **** /*
 123:..\common\ud3core\tasks/tsk_thermistor.c ****  * User defined task-local code that is used to process commands, control
 124:..\common\ud3core\tasks/tsk_thermistor.c ****  * operations, and/or generrally do stuff to make the taks do something
 125:..\common\ud3core\tasks/tsk_thermistor.c ****  * meaningful.
 126:..\common\ud3core\tasks/tsk_thermistor.c ****  */
 127:..\common\ud3core\tasks/tsk_thermistor.c **** /* `#START USER_TASK_LOCAL_CODE` */
 128:..\common\ud3core\tasks/tsk_thermistor.c **** 
 129:..\common\ud3core\tasks/tsk_thermistor.c **** void initialize_thermistor(void) {
 218              		.loc 1 129 0
 219              		.cfi_startproc
 220              		@ args = 0, pretend = 0, frame = 0
 221              		@ frame_needed = 0, uses_anonymous_args = 0
 222 0000 08B5     		push	{r3, lr}
 223              		.cfi_def_cfa_offset 8
 224              		.cfi_offset 3, -8
 225              		.cfi_offset 14, -4
 130:..\common\ud3core\tasks/tsk_thermistor.c **** 	IDAC_therm_Start();
 226              		.loc 1 130 0
 227 0002 FFF7FEFF 		bl	IDAC_therm_Start
 228              	.LVL37:
 131:..\common\ud3core\tasks/tsk_thermistor.c **** 	ADC_therm_Start();
 229              		.loc 1 131 0
 230 0006 FFF7FEFF 		bl	ADC_therm_Start
 231              	.LVL38:
 132:..\common\ud3core\tasks/tsk_thermistor.c ****     Therm_Mux_Start();
 232              		.loc 1 132 0
 233 000a FFF7FEFF 		bl	Therm_Mux_Start
 234              	.LVL39:
 133:..\common\ud3core\tasks/tsk_thermistor.c **** 	temp_pwm_Start();
 134:..\common\ud3core\tasks/tsk_thermistor.c **** }
 235              		.loc 1 134 0
 236 000e BDE80840 		pop	{r3, lr}
 237              		.cfi_restore 14
 238              		.cfi_restore 3
 239              		.cfi_def_cfa_offset 0
 133:..\common\ud3core\tasks/tsk_thermistor.c **** 	temp_pwm_Start();
 240              		.loc 1 133 0
 241 0012 FFF7FEBF 		b	temp_pwm_Start
 242              	.LVL40:
 243              		.cfi_endproc
 244              	.LFE69:
 245              		.size	initialize_thermistor, .-initialize_thermistor
 246              		.section	.text.get_temp_128,"ax",%progbits
 247              		.align	1
 248              		.global	get_temp_128
 249              		.thumb
 250              		.thumb_func
 251              		.type	get_temp_128, %function
 252              	get_temp_128:
 253              	.LFB70:
 135:..\common\ud3core\tasks/tsk_thermistor.c **** 
 136:..\common\ud3core\tasks/tsk_thermistor.c **** int32_t get_temp_128(int32_t counts) {
 254              		.loc 1 136 0
 255              		.cfi_startproc
 256              		@ args = 0, pretend = 0, frame = 0
ARM GAS  C:\Users\chemi\AppData\Local\Temp\ccVrHZQF.s 			page 8


 257              		@ frame_needed = 0, uses_anonymous_args = 0
 258              	.LVL41:
 137:..\common\ud3core\tasks/tsk_thermistor.c **** 	uint16_t counts_div = counts / 128;
 259              		.loc 1 137 0
 260 0000 8023     		movs	r3, #128
 261 0002 90FBF3F3 		sdiv	r3, r0, r3
 262              	.LVL42:
 138:..\common\ud3core\tasks/tsk_thermistor.c **** 	if (counts_div == TEMP_TABLE_SIZE-1){
 263              		.loc 1 138 0
 264 0006 9BB2     		uxth	r3, r3
 265 0008 1F2B     		cmp	r3, #31
 136:..\common\ud3core\tasks/tsk_thermistor.c **** 	uint16_t counts_div = counts / 128;
 266              		.loc 1 136 0
 267 000a 10B5     		push	{r4, lr}
 268              		.cfi_def_cfa_offset 8
 269              		.cfi_offset 4, -8
 270              		.cfi_offset 14, -4
 271              		.loc 1 138 0
 272 000c 0DD0     		beq	.L14
 273              	.LVL43:
 139:..\common\ud3core\tasks/tsk_thermistor.c **** 		return TEMP_FAULT_LOW;
 140:..\common\ud3core\tasks/tsk_thermistor.c ****     }
 141:..\common\ud3core\tasks/tsk_thermistor.c **** 	uint32_t counts_window = counts_div * 128;
 142:..\common\ud3core\tasks/tsk_thermistor.c **** 
 143:..\common\ud3core\tasks/tsk_thermistor.c **** 	return count_temp_table[counts_div] - (((int32_t)(count_temp_table[counts_div] - count_temp_table[
 274              		.loc 1 143 0
 275 000e 0849     		ldr	r1, .L15
 276 0010 5C1C     		adds	r4, r3, #1
 277 0012 31F91320 		ldrsh	r2, [r1, r3, lsl #1]
 278 0016 31F91410 		ldrsh	r1, [r1, r4, lsl #1]
 279 001a A0EBC313 		sub	r3, r0, r3, lsl #7
 280              	.LVL44:
 281 001e 511A     		subs	r1, r2, r1
 282 0020 03FB01F0 		mul	r0, r3, r1
 283              	.LVL45:
 284 0024 A2EBD010 		sub	r0, r2, r0, lsr #7
 285 0028 10BD     		pop	{r4, pc}
 286              	.LVL46:
 287              	.L14:
 139:..\common\ud3core\tasks/tsk_thermistor.c **** 		return TEMP_FAULT_LOW;
 288              		.loc 1 139 0
 289 002a 0248     		ldr	r0, .L15+4
 290              	.LVL47:
 144:..\common\ud3core\tasks/tsk_thermistor.c **** 
 145:..\common\ud3core\tasks/tsk_thermistor.c **** }
 291              		.loc 1 145 0
 292 002c 10BD     		pop	{r4, pc}
 293              	.L16:
 294 002e 00BF     		.align	2
 295              	.L15:
 296 0030 00000000 		.word	count_temp_table
 297 0034 8080FFFF 		.word	-32640
 298              		.cfi_endproc
 299              	.LFE70:
 300              		.size	get_temp_128, .-get_temp_128
 301              		.section	.text.get_temp_counts,"ax",%progbits
 302              		.align	1
ARM GAS  C:\Users\chemi\AppData\Local\Temp\ccVrHZQF.s 			page 9


 303              		.global	get_temp_counts
 304              		.thumb
 305              		.thumb_func
 306              		.type	get_temp_counts, %function
 307              	get_temp_counts:
 308              	.LFB71:
 146:..\common\ud3core\tasks/tsk_thermistor.c **** 
 147:..\common\ud3core\tasks/tsk_thermistor.c **** int32_t get_temp_counts(uint8_t channel){
 309              		.loc 1 147 0
 310              		.cfi_startproc
 311              		@ args = 0, pretend = 0, frame = 0
 312              		@ frame_needed = 0, uses_anonymous_args = 0
 313              	.LVL48:
 314 0000 08B5     		push	{r3, lr}
 315              		.cfi_def_cfa_offset 8
 316              		.cfi_offset 3, -8
 317              		.cfi_offset 14, -4
 148:..\common\ud3core\tasks/tsk_thermistor.c ****     Therm_Mux_Select(channel);
 318              		.loc 1 148 0
 319 0002 FFF7FEFF 		bl	Therm_Mux_FastSelect
 320              	.LVL49:
 149:..\common\ud3core\tasks/tsk_thermistor.c ****     vTaskDelay(50);     // DS: this used to delay just 20 ticks which wasn't long enough on my boar
 321              		.loc 1 149 0
 322 0006 3220     		movs	r0, #50
 323 0008 FFF7FEFF 		bl	vTaskDelay
 324              	.LVL50:
 150:..\common\ud3core\tasks/tsk_thermistor.c ****                         // The temps were all off by 10 degrees or so.  Once I changed this to 50 t
 151:..\common\ud3core\tasks/tsk_thermistor.c ****                         // temps were all within a degree of where they should be.
 152:..\common\ud3core\tasks/tsk_thermistor.c ****     ADC_therm_StartConvert();
 325              		.loc 1 152 0
 326 000c FFF7FEFF 		bl	ADC_therm_StartConvert
 327              	.LVL51:
 153:..\common\ud3core\tasks/tsk_thermistor.c ****     vTaskDelay(50);
 328              		.loc 1 153 0
 329 0010 3220     		movs	r0, #50
 330 0012 FFF7FEFF 		bl	vTaskDelay
 331              	.LVL52:
 154:..\common\ud3core\tasks/tsk_thermistor.c ****     int16_t temp = ADC_therm_GetResult16()-ADC_therm_Offset;
 332              		.loc 1 154 0
 333 0016 FFF7FEFF 		bl	ADC_therm_GetResult16
 334              	.LVL53:
 335 001a 034B     		ldr	r3, .L18
 336 001c 1B68     		ldr	r3, [r3]
 337 001e C01A     		subs	r0, r0, r3
 338 0020 00B2     		sxth	r0, r0
 339              	.LVL54:
 155:..\common\ud3core\tasks/tsk_thermistor.c ****     if(temp<0)temp=0;
 156:..\common\ud3core\tasks/tsk_thermistor.c ****     return temp;
 157:..\common\ud3core\tasks/tsk_thermistor.c **** }
 340              		.loc 1 157 0
 341 0022 20EAE070 		bic	r0, r0, r0, asr #31
 342              	.LVL55:
 343 0026 08BD     		pop	{r3, pc}
 344              	.L19:
 345              		.align	2
 346              	.L18:
 347 0028 00000000 		.word	ADC_therm_Offset
ARM GAS  C:\Users\chemi\AppData\Local\Temp\ccVrHZQF.s 			page 10


 348              		.cfi_endproc
 349              	.LFE71:
 350              		.size	get_temp_counts, .-get_temp_counts
 351              		.section	.text.run_temp_check,"ax",%progbits
 352              		.align	1
 353              		.global	run_temp_check
 354              		.thumb
 355              		.thumb_func
 356              		.type	run_temp_check, %function
 357              	run_temp_check:
 358              	.LFB72:
 158:..\common\ud3core\tasks/tsk_thermistor.c **** 
 159:..\common\ud3core\tasks/tsk_thermistor.c **** void run_temp_check(TEMP_FAULT * ret) {
 359              		.loc 1 159 0
 360              		.cfi_startproc
 361              		@ args = 0, pretend = 0, frame = 0
 362              		@ frame_needed = 0, uses_anonymous_args = 0
 363              	.LVL56:
 364 0000 2DE9F843 		push	{r3, r4, r5, r6, r7, r8, r9, lr}
 365              		.cfi_def_cfa_offset 32
 366              		.cfi_offset 3, -32
 367              		.cfi_offset 4, -28
 368              		.cfi_offset 5, -24
 369              		.cfi_offset 6, -20
 370              		.cfi_offset 7, -16
 371              		.cfi_offset 8, -12
 372              		.cfi_offset 9, -8
 373              		.cfi_offset 14, -4
 374              		.loc 1 159 0
 375 0004 0646     		mov	r6, r0
 160:..\common\ud3core\tasks/tsk_thermistor.c **** 	//this function looks at all the thermistor temperatures, compares them against limits and returns
 161:..\common\ud3core\tasks/tsk_thermistor.c ****     int32_t temp1_fp = get_temp_128(get_temp_counts(THERM_1));
 376              		.loc 1 161 0
 377 0006 0020     		movs	r0, #0
 378              	.LVL57:
 379 0008 FFF7FEFF 		bl	get_temp_counts
 380              	.LVL58:
 381 000c FFF7FEFF 		bl	get_temp_128
 382              	.LVL59:
 383 0010 8046     		mov	r8, r0
 384              	.LVL60:
 162:..\common\ud3core\tasks/tsk_thermistor.c ****     int32_t temp2_fp = get_temp_128(get_temp_counts(THERM_2));
 385              		.loc 1 162 0
 386 0012 0120     		movs	r0, #1
 387              	.LVL61:
 388 0014 FFF7FEFF 		bl	get_temp_counts
 389              	.LVL62:
 390 0018 FFF7FEFF 		bl	get_temp_128
 391              	.LVL63:
 392 001c 0746     		mov	r7, r0
 393              	.LVL64:
 163:..\common\ud3core\tasks/tsk_thermistor.c ****     int32_t temp1 = temp1_fp / 128;
 394              		.loc 1 163 0
 395 001e 8021     		movs	r1, #128
 164:..\common\ud3core\tasks/tsk_thermistor.c ****     int32_t temp2 = temp2_fp / 128;
 165:..\common\ud3core\tasks/tsk_thermistor.c ****     tt.n.temp1.value = (temp1_fp*10) / 128;
 396              		.loc 1 165 0
ARM GAS  C:\Users\chemi\AppData\Local\Temp\ccVrHZQF.s 			page 11


 397 0020 0A23     		movs	r3, #10
 164:..\common\ud3core\tasks/tsk_thermistor.c ****     int32_t temp2 = temp2_fp / 128;
 398              		.loc 1 164 0
 399 0022 90FBF1F9 		sdiv	r9, r0, r1
 400              		.loc 1 165 0
 401 0026 03FB08F0 		mul	r0, r3, r8
 402              	.LVL65:
 166:..\common\ud3core\tasks/tsk_thermistor.c ****     tt.n.temp2.value = (temp2_fp*10) / 128;
 403              		.loc 1 166 0
 404 002a 7B43     		muls	r3, r7, r3
 165:..\common\ud3core\tasks/tsk_thermistor.c ****     tt.n.temp2.value = (temp2_fp*10) / 128;
 405              		.loc 1 165 0
 406 002c 90FBF1F0 		sdiv	r0, r0, r1
 407              		.loc 1 166 0
 408 0030 93FBF1F3 		sdiv	r3, r3, r1
 163:..\common\ud3core\tasks/tsk_thermistor.c ****     int32_t temp2 = temp2_fp / 128;
 409              		.loc 1 163 0
 410 0034 98FBF1F2 		sdiv	r2, r8, r1
 411              	.LVL66:
 165:..\common\ud3core\tasks/tsk_thermistor.c ****     tt.n.temp2.value = (temp2_fp*10) / 128;
 412              		.loc 1 165 0
 413 0038 394C     		ldr	r4, .L55
 414              		.loc 1 166 0
 415 003a C4F88030 		str	r3, [r4, #128]
 165:..\common\ud3core\tasks/tsk_thermistor.c ****     tt.n.temp2.value = (temp2_fp*10) / 128;
 416              		.loc 1 165 0
 417 003e 2066     		str	r0, [r4, #96]
 167:..\common\ud3core\tasks/tsk_thermistor.c **** 
 168:..\common\ud3core\tasks/tsk_thermistor.c **** 	// check for faults
 169:..\common\ud3core\tasks/tsk_thermistor.c **** 	if (temp1 > configuration.temp1_max && configuration.temp1_max) {
 418              		.loc 1 169 0
 419 0040 384C     		ldr	r4, .L55+4
 420 0042 237C     		ldrb	r3, [r4, #16]	@ zero_extendqisi2
 421 0044 9A42     		cmp	r2, r3
 422 0046 04DD     		ble	.L21
 423              		.loc 1 169 0 is_stmt 0 discriminator 1
 424 0048 1BB1     		cbz	r3, .L21
 170:..\common\ud3core\tasks/tsk_thermistor.c ****         if(ret->fault1_cnt){
 425              		.loc 1 170 0 is_stmt 1
 426 004a 3388     		ldrh	r3, [r6]
 427 004c 1BB1     		cbz	r3, .L22
 171:..\common\ud3core\tasks/tsk_thermistor.c ****             ret->fault1_cnt--;
 428              		.loc 1 171 0
 429 004e 013B     		subs	r3, r3, #1
 430 0050 00E0     		b	.L51
 431              	.L21:
 172:..\common\ud3core\tasks/tsk_thermistor.c ****         }
 173:..\common\ud3core\tasks/tsk_thermistor.c **** 	}else{
 174:..\common\ud3core\tasks/tsk_thermistor.c ****         ret->fault1_cnt = TEMP_FAULT_COUNTER_MAX;
 432              		.loc 1 174 0
 433 0052 0523     		movs	r3, #5
 434              	.L51:
 435 0054 3380     		strh	r3, [r6]	@ movhi
 436              	.L22:
 175:..\common\ud3core\tasks/tsk_thermistor.c ****     }
 176:..\common\ud3core\tasks/tsk_thermistor.c **** 	if (temp2 > configuration.temp2_max && configuration.temp2_max) {
 437              		.loc 1 176 0
ARM GAS  C:\Users\chemi\AppData\Local\Temp\ccVrHZQF.s 			page 12


 438 0056 637C     		ldrb	r3, [r4, #17]	@ zero_extendqisi2
 439 0058 9945     		cmp	r9, r3
 440 005a 04DD     		ble	.L23
 441              		.loc 1 176 0 is_stmt 0 discriminator 1
 442 005c 1BB1     		cbz	r3, .L23
 177:..\common\ud3core\tasks/tsk_thermistor.c **** 		if(ret->fault2_cnt){
 443              		.loc 1 177 0 is_stmt 1
 444 005e 7388     		ldrh	r3, [r6, #2]
 445 0060 1BB1     		cbz	r3, .L24
 178:..\common\ud3core\tasks/tsk_thermistor.c ****             ret->fault2_cnt--;
 446              		.loc 1 178 0
 447 0062 013B     		subs	r3, r3, #1
 448 0064 00E0     		b	.L52
 449              	.L23:
 179:..\common\ud3core\tasks/tsk_thermistor.c ****         }
 180:..\common\ud3core\tasks/tsk_thermistor.c **** 	}else{
 181:..\common\ud3core\tasks/tsk_thermistor.c ****         ret->fault2_cnt = TEMP_FAULT_COUNTER_MAX;
 450              		.loc 1 181 0
 451 0066 0523     		movs	r3, #5
 452              	.L52:
 453 0068 7380     		strh	r3, [r6, #2]	@ movhi
 454              	.L24:
 182:..\common\ud3core\tasks/tsk_thermistor.c ****     }
 183:..\common\ud3core\tasks/tsk_thermistor.c ****     
 184:..\common\ud3core\tasks/tsk_thermistor.c ****     uint_fast8_t temp1_high = (temp1 > configuration.temp1_setpoint);
 455              		.loc 1 184 0
 456 006a A38C     		ldrh	r3, [r4, #36]
 185:..\common\ud3core\tasks/tsk_thermistor.c ****     uint_fast8_t temp2_high = (temp2 > configuration.temp2_setpoint);
 186:..\common\ud3core\tasks/tsk_thermistor.c **** 
 187:..\common\ud3core\tasks/tsk_thermistor.c ****     switch(configuration.temp2_mode){
 457              		.loc 1 187 0
 458 006c 94F83410 		ldrb	r1, [r4, #52]	@ zero_extendqisi2
 184:..\common\ud3core\tasks/tsk_thermistor.c ****     uint_fast8_t temp2_high = (temp2 > configuration.temp2_setpoint);
 459              		.loc 1 184 0
 460 0070 9A42     		cmp	r2, r3
 461 0072 D4BF     		ite	le
 462 0074 0020     		movle	r0, #0
 463 0076 0120     		movgt	r0, #1
 464              	.LVL67:
 185:..\common\ud3core\tasks/tsk_thermistor.c ****     uint_fast8_t temp2_high = (temp2 > configuration.temp2_setpoint);
 465              		.loc 1 185 0
 466 0078 E58C     		ldrh	r5, [r4, #38]
 467              	.LVL68:
 468              		.loc 1 187 0
 469 007a 0429     		cmp	r1, #4
 470 007c 20D8     		bhi	.L25
 471 007e DFE801F0 		tbb	[pc, r1]
 472              	.LVL69:
 473              	.L27:
 474 0082 0B       		.byte	(.L31-.L27)/2
 475 0083 03       		.byte	(.L28-.L27)/2
 476 0084 1F       		.byte	(.L25-.L27)/2
 477 0085 0E       		.byte	(.L29-.L27)/2
 478 0086 17       		.byte	(.L30-.L27)/2
 479 0087 00       		.p2align 1
 480              	.L28:
 188:..\common\ud3core\tasks/tsk_thermistor.c ****         case FAN_NORMAL:
ARM GAS  C:\Users\chemi\AppData\Local\Temp\ccVrHZQF.s 			page 13


 189:..\common\ud3core\tasks/tsk_thermistor.c ****             Fan_Write(temp1_high);
 190:..\common\ud3core\tasks/tsk_thermistor.c ****             break;
 191:..\common\ud3core\tasks/tsk_thermistor.c ****         case FAN_TEMP1_TEMP2:
 192:..\common\ud3core\tasks/tsk_thermistor.c ****             Fan_Write( (temp1_high || temp2_high) ? 1 : 0);
 481              		.loc 1 192 0
 482 0088 9A42     		cmp	r2, r3
 483 008a 04DC     		bgt	.L38
 484              		.loc 1 192 0 is_stmt 0 discriminator 2
 485 008c A945     		cmp	r9, r5
 486 008e D4BF     		ite	le
 487 0090 0020     		movle	r0, #0
 488              	.LVL70:
 489 0092 0120     		movgt	r0, #1
 490 0094 00E0     		b	.L31
 491              	.LVL71:
 492              	.L38:
 493              		.loc 1 192 0
 494 0096 0120     		movs	r0, #1
 495              	.LVL72:
 496              	.L31:
 497              		.loc 1 192 0 discriminator 6
 498 0098 FFF7FEFF 		bl	Fan_Write
 499              	.LVL73:
 193:..\common\ud3core\tasks/tsk_thermistor.c ****             break;
 500              		.loc 1 193 0 is_stmt 1 discriminator 6
 501 009c 10E0     		b	.L25
 502              	.LVL74:
 503              	.L29:
 194:..\common\ud3core\tasks/tsk_thermistor.c ****         case FAN_NOT_USED:
 195:..\common\ud3core\tasks/tsk_thermistor.c ****             
 196:..\common\ud3core\tasks/tsk_thermistor.c ****             break;
 197:..\common\ud3core\tasks/tsk_thermistor.c ****         case FAN_TEMP2_RELAY3:
 198:..\common\ud3core\tasks/tsk_thermistor.c ****             Fan_Write(temp1_high);
 504              		.loc 1 198 0
 505 009e FFF7FEFF 		bl	Fan_Write
 506              	.LVL75:
 199:..\common\ud3core\tasks/tsk_thermistor.c ****             temp_pwm_WriteCompare1(temp2_high? 255 :0);
 507              		.loc 1 199 0
 508 00a2 A945     		cmp	r9, r5
 509 00a4 CCBF     		ite	gt
 510 00a6 FF20     		movgt	r0, #255
 511 00a8 0020     		movle	r0, #0
 512 00aa FFF7FEFF 		bl	temp_pwm_WriteCompare1
 513              	.LVL76:
 200:..\common\ud3core\tasks/tsk_thermistor.c ****             break;
 514              		.loc 1 200 0
 515 00ae 07E0     		b	.L25
 516              	.LVL77:
 517              	.L30:
 201:..\common\ud3core\tasks/tsk_thermistor.c ****         case FAN_TEMP2_RELAY4:
 202:..\common\ud3core\tasks/tsk_thermistor.c ****             Fan_Write(temp1_high);
 518              		.loc 1 202 0
 519 00b0 FFF7FEFF 		bl	Fan_Write
 520              	.LVL78:
 203:..\common\ud3core\tasks/tsk_thermistor.c ****             temp_pwm_WriteCompare2(temp2_high? 255 :0);
 521              		.loc 1 203 0
 522 00b4 A945     		cmp	r9, r5
ARM GAS  C:\Users\chemi\AppData\Local\Temp\ccVrHZQF.s 			page 14


 523 00b6 CCBF     		ite	gt
 524 00b8 FF20     		movgt	r0, #255
 525 00ba 0020     		movle	r0, #0
 526 00bc FFF7FEFF 		bl	temp_pwm_WriteCompare2
 527              	.LVL79:
 528              	.L25:
 204:..\common\ud3core\tasks/tsk_thermistor.c ****             break;
 205:..\common\ud3core\tasks/tsk_thermistor.c ****     }
 206:..\common\ud3core\tasks/tsk_thermistor.c ****     switch(configuration.pid_temp_mode){
 529              		.loc 1 206 0
 530 00c0 94F82A30 		ldrb	r3, [r4, #42]	@ zero_extendqisi2
 531 00c4 013B     		subs	r3, r3, #1
 532 00c6 032B     		cmp	r3, #3
 533 00c8 27D8     		bhi	.L20
 534 00ca DFE803F0 		tbb	[pc, r3]
 535              	.L34:
 536 00ce 02       		.byte	(.L33-.L34)/2
 537 00cf 07       		.byte	(.L35-.L34)/2
 538 00d0 0C       		.byte	(.L36-.L34)/2
 539 00d1 19       		.byte	(.L37-.L34)/2
 540              		.p2align 1
 541              	.L33:
 207:..\common\ud3core\tasks/tsk_thermistor.c ****         case 0:
 208:..\common\ud3core\tasks/tsk_thermistor.c ****             break;
 209:..\common\ud3core\tasks/tsk_thermistor.c ****         case 1:
 210:..\common\ud3core\tasks/tsk_thermistor.c ****             temp_pwm_WriteCompare1(255-pid_step(&pid_temp,configuration.pid_temp_set*128,temp1_fp))
 542              		.loc 1 210 0
 543 00d2 218D     		ldrh	r1, [r4, #40]
 544 00d4 0FFA88F2 		sxth	r2, r8
 545 00d8 C901     		lsls	r1, r1, #7
 546 00da 07E0     		b	.L53
 547              	.L35:
 211:..\common\ud3core\tasks/tsk_thermistor.c ****             break;
 212:..\common\ud3core\tasks/tsk_thermistor.c ****         case 2:
 213:..\common\ud3core\tasks/tsk_thermistor.c ****             temp_pwm_WriteCompare2(255-pid_step(&pid_temp,configuration.pid_temp_set*128,temp1_fp))
 548              		.loc 1 213 0
 549 00dc 218D     		ldrh	r1, [r4, #40]
 550 00de 0FFA88F2 		sxth	r2, r8
 551 00e2 C901     		lsls	r1, r1, #7
 552 00e4 0FE0     		b	.L54
 553              	.L36:
 214:..\common\ud3core\tasks/tsk_thermistor.c ****             break;
 215:..\common\ud3core\tasks/tsk_thermistor.c ****         case 3:
 216:..\common\ud3core\tasks/tsk_thermistor.c ****             temp_pwm_WriteCompare1(255-pid_step(&pid_temp,configuration.pid_temp_set*128,temp2_fp))
 554              		.loc 1 216 0
 555 00e6 218D     		ldrh	r1, [r4, #40]
 556 00e8 3AB2     		sxth	r2, r7
 557 00ea C901     		lsls	r1, r1, #7
 558              	.L53:
 559 00ec 09B2     		sxth	r1, r1
 560 00ee 0E48     		ldr	r0, .L55+8
 561 00f0 FFF7FEFF 		bl	pid_step
 562              	.LVL80:
 217:..\common\ud3core\tasks/tsk_thermistor.c ****             break;
 218:..\common\ud3core\tasks/tsk_thermistor.c ****         case 4:
 219:..\common\ud3core\tasks/tsk_thermistor.c ****             temp_pwm_WriteCompare2(255-pid_step(&pid_temp,configuration.pid_temp_set*128,temp2_fp))
 220:..\common\ud3core\tasks/tsk_thermistor.c ****             break;
ARM GAS  C:\Users\chemi\AppData\Local\Temp\ccVrHZQF.s 			page 15


 221:..\common\ud3core\tasks/tsk_thermistor.c ****     }
 222:..\common\ud3core\tasks/tsk_thermistor.c **** 	return;
 223:..\common\ud3core\tasks/tsk_thermistor.c **** }
 563              		.loc 1 223 0
 564 00f4 BDE8F843 		pop	{r3, r4, r5, r6, r7, r8, r9, lr}
 565              		.cfi_remember_state
 566              		.cfi_restore 14
 567              		.cfi_restore 9
 568              		.cfi_restore 8
 569              		.cfi_restore 7
 570              		.cfi_restore 6
 571              		.cfi_restore 5
 572              		.cfi_restore 4
 573              		.cfi_restore 3
 574              		.cfi_def_cfa_offset 0
 575              	.LVL81:
 216:..\common\ud3core\tasks/tsk_thermistor.c ****             break;
 576              		.loc 1 216 0
 577 00f8 C043     		mvns	r0, r0
 578 00fa C0B2     		uxtb	r0, r0
 579 00fc FFF7FEBF 		b	temp_pwm_WriteCompare1
 580              	.LVL82:
 581              	.L37:
 582              		.cfi_restore_state
 219:..\common\ud3core\tasks/tsk_thermistor.c ****             break;
 583              		.loc 1 219 0
 584 0100 218D     		ldrh	r1, [r4, #40]
 585 0102 3AB2     		sxth	r2, r7
 586 0104 C901     		lsls	r1, r1, #7
 587              	.L54:
 588 0106 09B2     		sxth	r1, r1
 589 0108 0748     		ldr	r0, .L55+8
 590 010a FFF7FEFF 		bl	pid_step
 591              	.LVL83:
 592              		.loc 1 223 0
 593 010e BDE8F843 		pop	{r3, r4, r5, r6, r7, r8, r9, lr}
 594              		.cfi_restore 14
 595              		.cfi_restore 9
 596              		.cfi_restore 8
 597              		.cfi_restore 7
 598              		.cfi_restore 6
 599              		.cfi_restore 5
 600              		.cfi_restore 4
 601              		.cfi_restore 3
 602              		.cfi_def_cfa_offset 0
 603              	.LVL84:
 219:..\common\ud3core\tasks/tsk_thermistor.c ****             break;
 604              		.loc 1 219 0
 605 0112 C043     		mvns	r0, r0
 606 0114 C0B2     		uxtb	r0, r0
 607 0116 FFF7FEBF 		b	temp_pwm_WriteCompare2
 608              	.LVL85:
 609              	.L20:
 610 011a BDE8F883 		pop	{r3, r4, r5, r6, r7, r8, r9, pc}
 611              	.LVL86:
 612              	.L56:
 613 011e 00BF     		.align	2
ARM GAS  C:\Users\chemi\AppData\Local\Temp\ccVrHZQF.s 			page 16


 614              	.L55:
 615 0120 00000000 		.word	tt
 616 0124 00000000 		.word	configuration
 617 0128 00000000 		.word	pid_temp
 618              		.cfi_endproc
 619              	.LFE72:
 620              		.size	run_temp_check, .-run_temp_check
 621              		.section	.text.callback_ntc,"ax",%progbits
 622              		.align	1
 623              		.global	callback_ntc
 624              		.thumb
 625              		.thumb_func
 626              		.type	callback_ntc, %function
 627              	callback_ntc:
 628              	.LFB73:
 224:..\common\ud3core\tasks/tsk_thermistor.c **** 
 225:..\common\ud3core\tasks/tsk_thermistor.c **** uint8_t callback_ntc(parameter_entry * params, uint8_t index, TERMINAL_HANDLE * handle){
 629              		.loc 1 225 0
 630              		.cfi_startproc
 631              		@ args = 0, pretend = 0, frame = 0
 632              		@ frame_needed = 0, uses_anonymous_args = 0
 633              	.LVL87:
 634 0000 07B5     		push	{r0, r1, r2, lr}
 635              		.cfi_def_cfa_offset 16
 636              		.cfi_offset 14, -4
 226:..\common\ud3core\tasks/tsk_thermistor.c ****     calc_table_128(count_temp_table, 12 , sizeof(count_temp_table) / sizeof(int16_t),
 227:..\common\ud3core\tasks/tsk_thermistor.c ****         configuration.ntc_b, configuration.ntc_r25, configuration.idac);
 637              		.loc 1 227 0
 638 0002 094A     		ldr	r2, .L58
 639              	.LVL88:
 226:..\common\ud3core\tasks/tsk_thermistor.c ****     calc_table_128(count_temp_table, 12 , sizeof(count_temp_table) / sizeof(int16_t),
 640              		.loc 1 226 0
 641 0004 0948     		ldr	r0, .L58+4
 642              	.LVL89:
 643 0006 B2F86410 		ldrh	r1, [r2, #100]
 644              	.LVL90:
 645 000a B2F86030 		ldrh	r3, [r2, #96]
 646 000e 0191     		str	r1, [sp, #4]
 647 0010 B2F86220 		ldrh	r2, [r2, #98]
 648 0014 0C21     		movs	r1, #12
 649 0016 0092     		str	r2, [sp]
 650 0018 2022     		movs	r2, #32
 651 001a FFF7FEFF 		bl	calc_table_128
 652              	.LVL91:
 228:..\common\ud3core\tasks/tsk_thermistor.c ****     return 1;
 229:..\common\ud3core\tasks/tsk_thermistor.c **** }
 653              		.loc 1 229 0
 654 001e 0120     		movs	r0, #1
 655 0020 03B0     		add	sp, sp, #12
 656              		.cfi_def_cfa_offset 4
 657              		@ sp needed
 658 0022 5DF804FB 		ldr	pc, [sp], #4
 659              	.L59:
 660 0026 00BF     		.align	2
 661              	.L58:
 662 0028 00000000 		.word	configuration
 663 002c 00000000 		.word	count_temp_table
ARM GAS  C:\Users\chemi\AppData\Local\Temp\ccVrHZQF.s 			page 17


 664              		.cfi_endproc
 665              	.LFE73:
 666              		.size	callback_ntc, .-callback_ntc
 667              		.global	__aeabi_f2uiz
 668              		.section	.text.CMD_ntc,"ax",%progbits
 669              		.align	1
 670              		.global	CMD_ntc
 671              		.thumb
 672              		.thumb_func
 673              		.type	CMD_ntc, %function
 674              	CMD_ntc:
 675              	.LFB74:
 230:..\common\ud3core\tasks/tsk_thermistor.c **** 
 231:..\common\ud3core\tasks/tsk_thermistor.c **** uint8_t CMD_ntc(TERMINAL_HANDLE * handle, uint8_t argCount, char ** args) {
 676              		.loc 1 231 0
 677              		.cfi_startproc
 678              		@ args = 0, pretend = 0, frame = 0
 679              		@ frame_needed = 0, uses_anonymous_args = 0
 680              	.LVL92:
 681 0000 38B5     		push	{r3, r4, r5, lr}
 682              		.cfi_def_cfa_offset 16
 683              		.cfi_offset 3, -16
 684              		.cfi_offset 4, -12
 685              		.cfi_offset 5, -8
 686              		.cfi_offset 14, -4
 687              		.loc 1 231 0
 688 0002 0446     		mov	r4, r0
 232:..\common\ud3core\tasks/tsk_thermistor.c ****     xSemaphoreTake(adc_sem, portMAX_DELAY);
 689              		.loc 1 232 0
 690 0004 254D     		ldr	r5, .L63
 691 0006 4FF0FF31 		mov	r1, #-1
 692              	.LVL93:
 693 000a 2868     		ldr	r0, [r5]
 694              	.LVL94:
 695 000c FFF7FEFF 		bl	xQueueSemaphoreTake
 696              	.LVL95:
 233:..\common\ud3core\tasks/tsk_thermistor.c ****     
 234:..\common\ud3core\tasks/tsk_thermistor.c ****     ttprintf("Connect a precision 10k to therm 1\r\n");
 697              		.loc 1 234 0
 698 0010 636A     		ldr	r3, [r4, #36]
 699 0012 2349     		ldr	r1, .L63+4
 700 0014 6068     		ldr	r0, [r4, #4]
 701 0016 9847     		blx	r3
 702              	.LVL96:
 235:..\common\ud3core\tasks/tsk_thermistor.c ****     ttprintf("Press [y] to proceed\r\n");
 703              		.loc 1 235 0
 704 0018 636A     		ldr	r3, [r4, #36]
 705 001a 2249     		ldr	r1, .L63+8
 706 001c 6068     		ldr	r0, [r4, #4]
 707 001e 9847     		blx	r3
 708              	.LVL97:
 236:..\common\ud3core\tasks/tsk_thermistor.c ****    
 237:..\common\ud3core\tasks/tsk_thermistor.c ****     if(getch(handle, portMAX_DELAY) != 'y'){
 709              		.loc 1 237 0
 710 0020 4FF0FF31 		mov	r1, #-1
 711 0024 2046     		mov	r0, r4
 712 0026 FFF7FEFF 		bl	getch
ARM GAS  C:\Users\chemi\AppData\Local\Temp\ccVrHZQF.s 			page 18


 713              	.LVL98:
 714 002a 7928     		cmp	r0, #121
 715 002c 04D0     		beq	.L61
 238:..\common\ud3core\tasks/tsk_thermistor.c ****         ttprintf("Calibration aborted\r\n");
 716              		.loc 1 238 0
 717 002e 636A     		ldr	r3, [r4, #36]
 718 0030 1D49     		ldr	r1, .L63+12
 719 0032 6068     		ldr	r0, [r4, #4]
 720 0034 9847     		blx	r3
 721              	.LVL99:
 239:..\common\ud3core\tasks/tsk_thermistor.c ****         return TERM_CMD_EXIT_SUCCESS;
 722              		.loc 1 239 0
 723 0036 2EE0     		b	.L62
 724              	.L61:
 240:..\common\ud3core\tasks/tsk_thermistor.c ****     }
 241:..\common\ud3core\tasks/tsk_thermistor.c ****     
 242:..\common\ud3core\tasks/tsk_thermistor.c ****     Therm_Mux_Select(THERM_1);
 725              		.loc 1 242 0
 726 0038 0020     		movs	r0, #0
 727 003a FFF7FEFF 		bl	Therm_Mux_FastSelect
 728              	.LVL100:
 243:..\common\ud3core\tasks/tsk_thermistor.c ****     vTaskDelay(100);
 729              		.loc 1 243 0
 730 003e 6420     		movs	r0, #100
 731 0040 FFF7FEFF 		bl	vTaskDelay
 732              	.LVL101:
 244:..\common\ud3core\tasks/tsk_thermistor.c ****     ADC_therm_StartConvert();
 733              		.loc 1 244 0
 734 0044 FFF7FEFF 		bl	ADC_therm_StartConvert
 735              	.LVL102:
 245:..\common\ud3core\tasks/tsk_thermistor.c ****     vTaskDelay(100);
 736              		.loc 1 245 0
 737 0048 6420     		movs	r0, #100
 738 004a FFF7FEFF 		bl	vTaskDelay
 739              	.LVL103:
 246:..\common\ud3core\tasks/tsk_thermistor.c ****     float temp = ADC_therm_CountsTo_Volts(ADC_therm_GetResult16())*100;
 740              		.loc 1 246 0
 741 004e FFF7FEFF 		bl	ADC_therm_GetResult16
 742              	.LVL104:
 743 0052 FFF7FEFF 		bl	ADC_therm_CountsTo_Volts
 744              	.LVL105:
 247:..\common\ud3core\tasks/tsk_thermistor.c ****     configuration.idac = temp;
 745              		.loc 1 247 0
 746 0056 1549     		ldr	r1, .L63+16
 747 0058 FFF7FEFF 		bl	__aeabi_fmul
 748              	.LVL106:
 749 005c FFF7FEFF 		bl	__aeabi_f2uiz
 750              	.LVL107:
 751 0060 134B     		ldr	r3, .L63+20
 752 0062 82B2     		uxth	r2, r0
 753 0064 A3F86420 		strh	r2, [r3, #100]	@ movhi
 248:..\common\ud3core\tasks/tsk_thermistor.c ****     ttprintf("Calibration finished: %u uA\r\n", configuration.idac);
 754              		.loc 1 248 0
 755 0068 1249     		ldr	r1, .L63+24
 756 006a 636A     		ldr	r3, [r4, #36]
 757 006c 6068     		ldr	r0, [r4, #4]
 758 006e 9847     		blx	r3
ARM GAS  C:\Users\chemi\AppData\Local\Temp\ccVrHZQF.s 			page 19


 759              	.LVL108:
 249:..\common\ud3core\tasks/tsk_thermistor.c ****     ttprintf("Recalculate NTC LUT...\r\n");
 760              		.loc 1 249 0
 761 0070 636A     		ldr	r3, [r4, #36]
 762 0072 1149     		ldr	r1, .L63+28
 763 0074 6068     		ldr	r0, [r4, #4]
 764 0076 9847     		blx	r3
 765              	.LVL109:
 250:..\common\ud3core\tasks/tsk_thermistor.c ****     callback_ntc(NULL, 0, handle);
 766              		.loc 1 250 0
 767 0078 0021     		movs	r1, #0
 768 007a 2246     		mov	r2, r4
 769 007c 0846     		mov	r0, r1
 770 007e FFF7FEFF 		bl	callback_ntc
 771              	.LVL110:
 251:..\common\ud3core\tasks/tsk_thermistor.c ****     ttprintf("Finished... Please save to eeprom.\r\n");
 772              		.loc 1 251 0
 773 0082 636A     		ldr	r3, [r4, #36]
 774 0084 0D49     		ldr	r1, .L63+32
 775 0086 6068     		ldr	r0, [r4, #4]
 776 0088 9847     		blx	r3
 777              	.LVL111:
 252:..\common\ud3core\tasks/tsk_thermistor.c ****     xSemaphoreGive(adc_sem);
 778              		.loc 1 252 0
 779 008a 0023     		movs	r3, #0
 780 008c 1A46     		mov	r2, r3
 781 008e 1946     		mov	r1, r3
 782 0090 2868     		ldr	r0, [r5]
 783 0092 FFF7FEFF 		bl	xQueueGenericSend
 784              	.LVL112:
 785              	.L62:
 253:..\common\ud3core\tasks/tsk_thermistor.c ****     return TERM_CMD_EXIT_SUCCESS;
 254:..\common\ud3core\tasks/tsk_thermistor.c **** }
 786              		.loc 1 254 0
 787 0096 FF20     		movs	r0, #255
 788 0098 38BD     		pop	{r3, r4, r5, pc}
 789              	.LVL113:
 790              	.L64:
 791 009a 00BF     		.align	2
 792              	.L63:
 793 009c 00000000 		.word	adc_sem
 794 00a0 00000000 		.word	.LC0
 795 00a4 25000000 		.word	.LC1
 796 00a8 3C000000 		.word	.LC2
 797 00ac 0000C842 		.word	1120403456
 798 00b0 00000000 		.word	configuration
 799 00b4 52000000 		.word	.LC3
 800 00b8 70000000 		.word	.LC4
 801 00bc 89000000 		.word	.LC5
 802              		.cfi_endproc
 803              	.LFE74:
 804              		.size	CMD_ntc, .-CMD_ntc
 805              		.section	.text.calib_adc,"ax",%progbits
 806              		.align	1
 807              		.global	calib_adc
 808              		.thumb
 809              		.thumb_func
ARM GAS  C:\Users\chemi\AppData\Local\Temp\ccVrHZQF.s 			page 20


 810              		.type	calib_adc, %function
 811              	calib_adc:
 812              	.LFB75:
 255:..\common\ud3core\tasks/tsk_thermistor.c **** 
 256:..\common\ud3core\tasks/tsk_thermistor.c **** void calib_adc(){
 813              		.loc 1 256 0
 814              		.cfi_startproc
 815              		@ args = 0, pretend = 0, frame = 0
 816              		@ frame_needed = 0, uses_anonymous_args = 0
 817 0000 70B5     		push	{r4, r5, r6, lr}
 818              		.cfi_def_cfa_offset 16
 819              		.cfi_offset 4, -16
 820              		.cfi_offset 5, -12
 821              		.cfi_offset 6, -8
 822              		.cfi_offset 14, -4
 257:..\common\ud3core\tasks/tsk_thermistor.c ****     
 258:..\common\ud3core\tasks/tsk_thermistor.c ****     IDAC_therm_SetValue(THERM_DAC_VAL*3);
 823              		.loc 1 258 0
 824 0002 4520     		movs	r0, #69
 825 0004 FFF7FEFF 		bl	IDAC_therm_SetValue
 826              	.LVL114:
 259:..\common\ud3core\tasks/tsk_thermistor.c ****     Therm_Mux_Select(THERM_GND);
 827              		.loc 1 259 0
 828 0008 0220     		movs	r0, #2
 829 000a FFF7FEFF 		bl	Therm_Mux_FastSelect
 830              	.LVL115:
 260:..\common\ud3core\tasks/tsk_thermistor.c ****     vTaskDelay(50);
 831              		.loc 1 260 0
 832 000e 0025     		movs	r5, #0
 833 0010 3220     		movs	r0, #50
 834 0012 FFF7FEFF 		bl	vTaskDelay
 835              	.LVL116:
 261:..\common\ud3core\tasks/tsk_thermistor.c ****     int32_t cnt=0;
 836              		.loc 1 261 0
 837 0016 2C46     		mov	r4, r5
 838              	.LBB2:
 262:..\common\ud3core\tasks/tsk_thermistor.c ****     for(uint8_t i = 0;i<4;i++){
 263:..\common\ud3core\tasks/tsk_thermistor.c ****         ADC_therm_StartConvert();
 264:..\common\ud3core\tasks/tsk_thermistor.c ****         vTaskDelay(50);
 265:..\common\ud3core\tasks/tsk_thermistor.c ****         cnt += ADC_therm_GetResult16();
 266:..\common\ud3core\tasks/tsk_thermistor.c ****         if(i==3){
 267:..\common\ud3core\tasks/tsk_thermistor.c ****             cnt /= 4;
 839              		.loc 1 267 0
 840 0018 0426     		movs	r6, #4
 841              	.LVL117:
 842              	.L67:
 263:..\common\ud3core\tasks/tsk_thermistor.c ****         vTaskDelay(50);
 843              		.loc 1 263 0
 844 001a FFF7FEFF 		bl	ADC_therm_StartConvert
 845              	.LVL118:
 264:..\common\ud3core\tasks/tsk_thermistor.c ****         cnt += ADC_therm_GetResult16();
 846              		.loc 1 264 0
 847 001e 3220     		movs	r0, #50
 848 0020 FFF7FEFF 		bl	vTaskDelay
 849              	.LVL119:
 265:..\common\ud3core\tasks/tsk_thermistor.c ****         if(i==3){
 850              		.loc 1 265 0
ARM GAS  C:\Users\chemi\AppData\Local\Temp\ccVrHZQF.s 			page 21


 851 0024 FFF7FEFF 		bl	ADC_therm_GetResult16
 852              	.LVL120:
 266:..\common\ud3core\tasks/tsk_thermistor.c ****             cnt /= 4;
 853              		.loc 1 266 0
 854 0028 032D     		cmp	r5, #3
 265:..\common\ud3core\tasks/tsk_thermistor.c ****         if(i==3){
 855              		.loc 1 265 0
 856 002a 0444     		add	r4, r4, r0
 857              	.LVL121:
 266:..\common\ud3core\tasks/tsk_thermistor.c ****             cnt /= 4;
 858              		.loc 1 266 0
 859 002c 09D1     		bne	.L66
 860              		.loc 1 267 0
 861 002e 94FBF6F4 		sdiv	r4, r4, r6
 862              	.LVL122:
 268:..\common\ud3core\tasks/tsk_thermistor.c ****             ADC_therm_SetOffset(cnt);
 863              		.loc 1 268 0
 864 0032 2046     		mov	r0, r4
 865 0034 FFF7FEFF 		bl	ADC_therm_SetOffset
 866              	.LVL123:
 269:..\common\ud3core\tasks/tsk_thermistor.c ****             alarm_push(ALM_PRIO_INFO, "ADC: Temperature ADC offset", cnt);
 867              		.loc 1 269 0
 868 0038 2246     		mov	r2, r4
 869 003a 0449     		ldr	r1, .L69
 870 003c 0020     		movs	r0, #0
 871 003e FFF7FEFF 		bl	alarm_push
 872              	.LVL124:
 873              	.L66:
 874 0042 0135     		adds	r5, r5, #1
 875              	.LVL125:
 262:..\common\ud3core\tasks/tsk_thermistor.c ****         ADC_therm_StartConvert();
 876              		.loc 1 262 0 discriminator 2
 877 0044 042D     		cmp	r5, #4
 878 0046 E8D1     		bne	.L67
 879              	.LBE2:
 270:..\common\ud3core\tasks/tsk_thermistor.c ****         }
 271:..\common\ud3core\tasks/tsk_thermistor.c ****     }    
 272:..\common\ud3core\tasks/tsk_thermistor.c **** }
 880              		.loc 1 272 0
 881 0048 70BD     		pop	{r4, r5, r6, pc}
 882              	.L70:
 883 004a 00BF     		.align	2
 884              	.L69:
 885 004c AE000000 		.word	.LC6
 886              		.cfi_endproc
 887              	.LFE75:
 888              		.size	calib_adc, .-calib_adc
 889              		.section	.text.callback_temp_pid,"ax",%progbits
 890              		.align	1
 891              		.global	callback_temp_pid
 892              		.thumb
 893              		.thumb_func
 894              		.type	callback_temp_pid, %function
 895              	callback_temp_pid:
 896              	.LFB76:
 273:..\common\ud3core\tasks/tsk_thermistor.c **** 
 274:..\common\ud3core\tasks/tsk_thermistor.c **** uint8_t callback_temp_pid(parameter_entry * params, uint8_t index, TERMINAL_HANDLE * handle){
ARM GAS  C:\Users\chemi\AppData\Local\Temp\ccVrHZQF.s 			page 22


 897              		.loc 1 274 0
 898              		.cfi_startproc
 899              		@ args = 0, pretend = 0, frame = 0
 900              		@ frame_needed = 0, uses_anonymous_args = 0
 901              	.LVL126:
 902 0000 7FB5     		push	{r0, r1, r2, r3, r4, r5, r6, lr}
 903              		.cfi_def_cfa_offset 32
 904              		.cfi_offset 4, -16
 905              		.cfi_offset 5, -12
 906              		.cfi_offset 6, -8
 907              		.cfi_offset 14, -4
 275:..\common\ud3core\tasks/tsk_thermistor.c ****     pid_new(&pid_temp,configuration.pid_temp_p,configuration.pid_temp_i,0,10,8,false);
 908              		.loc 1 275 0
 909 0002 0823     		movs	r3, #8
 910 0004 0193     		str	r3, [sp, #4]
 911 0006 134B     		ldr	r3, .L76
 912 0008 134C     		ldr	r4, .L76+4
 913 000a 0025     		movs	r5, #0
 914 000c 1349     		ldr	r1, .L76+8
 915              	.LVL127:
 916 000e 0093     		str	r3, [sp]	@ float
 917 0010 0295     		str	r5, [sp, #8]
 918 0012 0023     		movs	r3, #0
 919 0014 2046     		mov	r0, r4
 920              	.LVL128:
 274:..\common\ud3core\tasks/tsk_thermistor.c ****     pid_new(&pid_temp,configuration.pid_temp_p,configuration.pid_temp_i,0,10,8,false);
 921              		.loc 1 274 0
 922 0016 1646     		mov	r6, r2
 923              		.loc 1 275 0
 924 0018 0A6B     		ldr	r2, [r1, #48]	@ float
 925              	.LVL129:
 926 001a C96A     		ldr	r1, [r1, #44]	@ float
 927 001c FFF7FEFF 		bl	pid_new
 928              	.LVL130:
 276:..\common\ud3core\tasks/tsk_thermistor.c ****     pid_set_anti_windup(&pid_temp,0,255);
 929              		.loc 1 276 0
 930 0020 FF22     		movs	r2, #255
 931 0022 2946     		mov	r1, r5
 932 0024 2046     		mov	r0, r4
 933 0026 FFF7FEFF 		bl	pid_set_anti_windup
 934              	.LVL131:
 277:..\common\ud3core\tasks/tsk_thermistor.c ****     pid_set_limits(&pid_temp,0,255);
 935              		.loc 1 277 0
 936 002a FF22     		movs	r2, #255
 937 002c 2946     		mov	r1, r5
 938 002e 2046     		mov	r0, r4
 939 0030 FFF7FEFF 		bl	pid_set_limits
 940              	.LVL132:
 278:..\common\ud3core\tasks/tsk_thermistor.c ****     if(pid_temp._cfg_err==true){
 941              		.loc 1 278 0
 942 0034 94F82830 		ldrb	r3, [r4, #40]	@ zero_extendqisi2
 943 0038 4BB1     		cbz	r3, .L72
 944              	.LVL133:
 945              	.LBB5:
 946              	.LBB6:
 279:..\common\ud3core\tasks/tsk_thermistor.c ****         ttprintf("PID: Thermistor config error");
 947              		.loc 1 279 0
ARM GAS  C:\Users\chemi\AppData\Local\Temp\ccVrHZQF.s 			page 23


 948 003a 0949     		ldr	r1, .L76+12
 949 003c 736A     		ldr	r3, [r6, #36]
 950 003e 7068     		ldr	r0, [r6, #4]
 951 0040 9847     		blx	r3
 952              	.LVL134:
 280:..\common\ud3core\tasks/tsk_thermistor.c ****         alarm_push(ALM_PRIO_WARN, "PID: Thermistor config error", ALM_NO_VALUE);  
 953              		.loc 1 280 0
 954 0042 4FF00042 		mov	r2, #-2147483648
 955 0046 0649     		ldr	r1, .L76+12
 956 0048 0120     		movs	r0, #1
 957 004a FFF7FEFF 		bl	alarm_push
 958              	.LVL135:
 959              	.L72:
 960              	.LBE6:
 961              	.LBE5:
 281:..\common\ud3core\tasks/tsk_thermistor.c ****     }
 282:..\common\ud3core\tasks/tsk_thermistor.c ****     return pdFAIL;
 283:..\common\ud3core\tasks/tsk_thermistor.c **** }
 962              		.loc 1 283 0
 963 004e 0020     		movs	r0, #0
 964 0050 04B0     		add	sp, sp, #16
 965              		.cfi_def_cfa_offset 16
 966              		@ sp needed
 967 0052 70BD     		pop	{r4, r5, r6, pc}
 968              	.LVL136:
 969              	.L77:
 970              		.align	2
 971              	.L76:
 972 0054 00002041 		.word	1092616192
 973 0058 00000000 		.word	pid_temp
 974 005c 00000000 		.word	configuration
 975 0060 CA000000 		.word	.LC7
 976              		.cfi_endproc
 977              	.LFE76:
 978              		.size	callback_temp_pid, .-callback_temp_pid
 979              		.section	.text.tsk_thermistor_TaskProc,"ax",%progbits
 980              		.align	1
 981              		.global	tsk_thermistor_TaskProc
 982              		.thumb
 983              		.thumb_func
 984              		.type	tsk_thermistor_TaskProc, %function
 985              	tsk_thermistor_TaskProc:
 986              	.LFB77:
 284:..\common\ud3core\tasks/tsk_thermistor.c **** 
 285:..\common\ud3core\tasks/tsk_thermistor.c **** 
 286:..\common\ud3core\tasks/tsk_thermistor.c **** /* `#END` */
 287:..\common\ud3core\tasks/tsk_thermistor.c **** /* ------------------------------------------------------------------------ */
 288:..\common\ud3core\tasks/tsk_thermistor.c **** /*
 289:..\common\ud3core\tasks/tsk_thermistor.c ****  * This is the main procedure that comprises the task.  Place the code required
 290:..\common\ud3core\tasks/tsk_thermistor.c ****  * to preform the desired function within the merge regions of the task procedure
 291:..\common\ud3core\tasks/tsk_thermistor.c ****  * to add functionality to the task.
 292:..\common\ud3core\tasks/tsk_thermistor.c ****  */
 293:..\common\ud3core\tasks/tsk_thermistor.c **** void tsk_thermistor_TaskProc(void *pvParameters) {
 987              		.loc 1 293 0
 988              		.cfi_startproc
 989              		@ args = 0, pretend = 0, frame = 8
 990              		@ frame_needed = 0, uses_anonymous_args = 0
ARM GAS  C:\Users\chemi\AppData\Local\Temp\ccVrHZQF.s 			page 24


 991              	.LVL137:
 992 0000 F7B5     		push	{r0, r1, r2, r4, r5, r6, r7, lr}
 993              		.cfi_def_cfa_offset 32
 994              		.cfi_offset 4, -20
 995              		.cfi_offset 5, -16
 996              		.cfi_offset 6, -12
 997              		.cfi_offset 7, -8
 998              		.cfi_offset 14, -4
 294:..\common\ud3core\tasks/tsk_thermistor.c **** 	/*
 295:..\common\ud3core\tasks/tsk_thermistor.c **** 	 * Add and initialize local variables that are allocated on the Task stack
 296:..\common\ud3core\tasks/tsk_thermistor.c **** 	 * the the section below.
 297:..\common\ud3core\tasks/tsk_thermistor.c **** 	 */
 298:..\common\ud3core\tasks/tsk_thermistor.c **** 	/* `#START TASK_VARIABLES` */
 299:..\common\ud3core\tasks/tsk_thermistor.c **** 
 300:..\common\ud3core\tasks/tsk_thermistor.c **** 	/* `#END` */
 301:..\common\ud3core\tasks/tsk_thermistor.c **** 
 302:..\common\ud3core\tasks/tsk_thermistor.c **** 	/*
 303:..\common\ud3core\tasks/tsk_thermistor.c **** 	 * Add the task initialzation code in the below merge region to be included
 304:..\common\ud3core\tasks/tsk_thermistor.c **** 	 * in the task.
 305:..\common\ud3core\tasks/tsk_thermistor.c **** 	 */
 306:..\common\ud3core\tasks/tsk_thermistor.c **** 	/* `#START TASK_INIT_CODE` */
 307:..\common\ud3core\tasks/tsk_thermistor.c ****     
 308:..\common\ud3core\tasks/tsk_thermistor.c ****     adc_sem = xSemaphoreCreateBinary();
 999              		.loc 1 308 0
 1000 0002 0322     		movs	r2, #3
 1001 0004 0021     		movs	r1, #0
 1002 0006 0120     		movs	r0, #1
 1003              	.LVL138:
 1004 0008 FFF7FEFF 		bl	xQueueGenericCreate
 1005              	.LVL139:
 1006 000c 2B4C     		ldr	r4, .L87
 309:..\common\ud3core\tasks/tsk_thermistor.c ****     xSemaphoreGive(adc_sem);
 1007              		.loc 1 309 0
 1008 000e 0023     		movs	r3, #0
 1009 0010 1A46     		mov	r2, r3
 1010 0012 1946     		mov	r1, r3
 308:..\common\ud3core\tasks/tsk_thermistor.c ****     xSemaphoreGive(adc_sem);
 1011              		.loc 1 308 0
 1012 0014 2060     		str	r0, [r4]
 1013              		.loc 1 309 0
 1014 0016 FFF7FEFF 		bl	xQueueGenericSend
 1015              	.LVL140:
 310:..\common\ud3core\tasks/tsk_thermistor.c ****     
 311:..\common\ud3core\tasks/tsk_thermistor.c **** 	initialize_thermistor();
 1016              		.loc 1 311 0
 1017 001a FFF7FEFF 		bl	initialize_thermistor
 1018              	.LVL141:
 312:..\common\ud3core\tasks/tsk_thermistor.c ****     calib_adc();
 1019              		.loc 1 312 0
 1020 001e FFF7FEFF 		bl	calib_adc
 1021              	.LVL142:
 313:..\common\ud3core\tasks/tsk_thermistor.c **** 
 314:..\common\ud3core\tasks/tsk_thermistor.c ****     IDAC_therm_SetValue(THERM_DAC_VAL);
 1022              		.loc 1 314 0
 1023 0022 1720     		movs	r0, #23
 1024 0024 FFF7FEFF 		bl	IDAC_therm_SetValue
 1025              	.LVL143:
ARM GAS  C:\Users\chemi\AppData\Local\Temp\ccVrHZQF.s 			page 25


 315:..\common\ud3core\tasks/tsk_thermistor.c ****     
 316:..\common\ud3core\tasks/tsk_thermistor.c ****     callback_ntc(NULL,0,NULL);
 1026              		.loc 1 316 0
 1027 0028 0022     		movs	r2, #0
 1028 002a 1146     		mov	r1, r2
 1029 002c 1046     		mov	r0, r2
 1030 002e FFF7FEFF 		bl	callback_ntc
 1031              	.LVL144:
 317:..\common\ud3core\tasks/tsk_thermistor.c ****     
 318:..\common\ud3core\tasks/tsk_thermistor.c ****     TEMP_FAULT temp;
 319:..\common\ud3core\tasks/tsk_thermistor.c ****     temp.fault1_cnt = TEMP_FAULT_COUNTER_MAX;
 320:..\common\ud3core\tasks/tsk_thermistor.c ****     temp.fault2_cnt = TEMP_FAULT_COUNTER_MAX;
 321:..\common\ud3core\tasks/tsk_thermistor.c ****     
 322:..\common\ud3core\tasks/tsk_thermistor.c ****     callback_temp_pid(NULL,0,NULL);
 1032              		.loc 1 322 0
 1033 0032 0022     		movs	r2, #0
 319:..\common\ud3core\tasks/tsk_thermistor.c ****     temp.fault2_cnt = TEMP_FAULT_COUNTER_MAX;
 1034              		.loc 1 319 0
 1035 0034 0523     		movs	r3, #5
 1036              		.loc 1 322 0
 1037 0036 1146     		mov	r1, r2
 1038 0038 1046     		mov	r0, r2
 323:..\common\ud3core\tasks/tsk_thermistor.c **** 
 324:..\common\ud3core\tasks/tsk_thermistor.c **** 	/* `#END` */
 325:..\common\ud3core\tasks/tsk_thermistor.c ****     alarm_push(ALM_PRIO_INFO, "TASK: Thermistor started", ALM_NO_VALUE);
 326:..\common\ud3core\tasks/tsk_thermistor.c **** 	for (;;) {
 327:..\common\ud3core\tasks/tsk_thermistor.c ****         xSemaphoreTake(adc_sem, portMAX_DELAY);
 328:..\common\ud3core\tasks/tsk_thermistor.c **** 		/* `#START TASK_LOOP_CODE` */
 329:..\common\ud3core\tasks/tsk_thermistor.c ****         run_temp_check(&temp);
 330:..\common\ud3core\tasks/tsk_thermistor.c ****         
 331:..\common\ud3core\tasks/tsk_thermistor.c ****                 
 332:..\common\ud3core\tasks/tsk_thermistor.c ****         if(temp.fault1_cnt == 0){
 333:..\common\ud3core\tasks/tsk_thermistor.c ****             if(sysfault.temp1==0){
 1039              		.loc 1 333 0
 1040 003a 214D     		ldr	r5, .L87+4
 319:..\common\ud3core\tasks/tsk_thermistor.c ****     temp.fault2_cnt = TEMP_FAULT_COUNTER_MAX;
 1041              		.loc 1 319 0
 1042 003c ADF80430 		strh	r3, [sp, #4]	@ movhi
 320:..\common\ud3core\tasks/tsk_thermistor.c ****     
 1043              		.loc 1 320 0
 1044 0040 ADF80630 		strh	r3, [sp, #6]	@ movhi
 322:..\common\ud3core\tasks/tsk_thermistor.c **** 
 1045              		.loc 1 322 0
 1046 0044 FFF7FEFF 		bl	callback_temp_pid
 1047              	.LVL145:
 325:..\common\ud3core\tasks/tsk_thermistor.c **** 	for (;;) {
 1048              		.loc 1 325 0
 1049 0048 4FF00042 		mov	r2, #-2147483648
 1050 004c 1D49     		ldr	r1, .L87+8
 1051 004e 0020     		movs	r0, #0
 1052 0050 FFF7FEFF 		bl	alarm_push
 1053              	.LVL146:
 1054 0054 2E46     		mov	r6, r5
 334:..\common\ud3core\tasks/tsk_thermistor.c ****                 alarm_push(ALM_PRIO_CRITICAL, "NTC: Temperature Therm1 high", tt.n.temp1.value);
 1055              		.loc 1 334 0
 1056 0056 1C4F     		ldr	r7, .L87+12
 1057              	.L79:
ARM GAS  C:\Users\chemi\AppData\Local\Temp\ccVrHZQF.s 			page 26


 327:..\common\ud3core\tasks/tsk_thermistor.c **** 		/* `#START TASK_LOOP_CODE` */
 1058              		.loc 1 327 0
 1059 0058 4FF0FF31 		mov	r1, #-1
 1060 005c 2068     		ldr	r0, [r4]
 1061 005e FFF7FEFF 		bl	xQueueSemaphoreTake
 1062              	.LVL147:
 329:..\common\ud3core\tasks/tsk_thermistor.c ****         
 1063              		.loc 1 329 0
 1064 0062 01A8     		add	r0, sp, #4
 1065 0064 FFF7FEFF 		bl	run_temp_check
 1066              	.LVL148:
 332:..\common\ud3core\tasks/tsk_thermistor.c ****             if(sysfault.temp1==0){
 1067              		.loc 1 332 0
 1068 0068 BDF80430 		ldrh	r3, [sp, #4]
 1069 006c 43B9     		cbnz	r3, .L80
 333:..\common\ud3core\tasks/tsk_thermistor.c ****                 alarm_push(ALM_PRIO_CRITICAL, "NTC: Temperature Therm1 high", tt.n.temp1.value);
 1070              		.loc 1 333 0
 1071 006e 6B78     		ldrb	r3, [r5, #1]	@ zero_extendqisi2
 1072 0070 23B9     		cbnz	r3, .L81
 1073              		.loc 1 334 0
 1074 0072 3A6E     		ldr	r2, [r7, #96]
 1075 0074 1549     		ldr	r1, .L87+16
 1076 0076 0320     		movs	r0, #3
 1077 0078 FFF7FEFF 		bl	alarm_push
 1078              	.LVL149:
 1079              	.L81:
 335:..\common\ud3core\tasks/tsk_thermistor.c ****             }
 336:..\common\ud3core\tasks/tsk_thermistor.c ****             sysfault.temp1 = 1;
 1080              		.loc 1 336 0
 1081 007c 0123     		movs	r3, #1
 1082 007e 7370     		strb	r3, [r6, #1]
 1083              	.L80:
 337:..\common\ud3core\tasks/tsk_thermistor.c ****         }
 338:..\common\ud3core\tasks/tsk_thermistor.c ****         
 339:..\common\ud3core\tasks/tsk_thermistor.c ****         if(temp.fault2_cnt == 0){
 1084              		.loc 1 339 0
 1085 0080 BDF80630 		ldrh	r3, [sp, #6]
 1086 0084 4BB9     		cbnz	r3, .L82
 340:..\common\ud3core\tasks/tsk_thermistor.c ****             if(sysfault.temp2==0){
 1087              		.loc 1 340 0
 1088 0086 AB78     		ldrb	r3, [r5, #2]	@ zero_extendqisi2
 1089 0088 2BB9     		cbnz	r3, .L83
 341:..\common\ud3core\tasks/tsk_thermistor.c ****                 alarm_push(ALM_PRIO_CRITICAL, "NTC: Temperature Therm2 high", tt.n.temp2.value);
 1090              		.loc 1 341 0
 1091 008a D7F88020 		ldr	r2, [r7, #128]
 1092 008e 1049     		ldr	r1, .L87+20
 1093 0090 0320     		movs	r0, #3
 1094 0092 FFF7FEFF 		bl	alarm_push
 1095              	.LVL150:
 1096              	.L83:
 342:..\common\ud3core\tasks/tsk_thermistor.c ****             }
 343:..\common\ud3core\tasks/tsk_thermistor.c ****             sysfault.temp2 = 1;
 1097              		.loc 1 343 0
 1098 0096 0123     		movs	r3, #1
 1099 0098 B370     		strb	r3, [r6, #2]
 1100              	.L82:
 344:..\common\ud3core\tasks/tsk_thermistor.c ****         }
ARM GAS  C:\Users\chemi\AppData\Local\Temp\ccVrHZQF.s 			page 27


 345:..\common\ud3core\tasks/tsk_thermistor.c ****         xSemaphoreGive(adc_sem);
 1101              		.loc 1 345 0
 1102 009a 0023     		movs	r3, #0
 1103 009c 1A46     		mov	r2, r3
 1104 009e 1946     		mov	r1, r3
 1105 00a0 2068     		ldr	r0, [r4]
 1106 00a2 FFF7FEFF 		bl	xQueueGenericSend
 1107              	.LVL151:
 346:..\common\ud3core\tasks/tsk_thermistor.c ****       
 347:..\common\ud3core\tasks/tsk_thermistor.c **** 		/* `#END` */
 348:..\common\ud3core\tasks/tsk_thermistor.c ****         if(configuration.pid_temp_mode != 0){
 1108              		.loc 1 348 0
 1109 00a6 0B4B     		ldr	r3, .L87+24
 1110 00a8 93F82A30 		ldrb	r3, [r3, #42]	@ zero_extendqisi2
 1111 00ac 0BB1     		cbz	r3, .L84
 349:..\common\ud3core\tasks/tsk_thermistor.c ****             vTaskDelay(100 / portTICK_PERIOD_MS);
 1112              		.loc 1 349 0
 1113 00ae 6420     		movs	r0, #100
 1114 00b0 01E0     		b	.L86
 1115              	.L84:
 350:..\common\ud3core\tasks/tsk_thermistor.c ****         } else {
 351:..\common\ud3core\tasks/tsk_thermistor.c **** 		    vTaskDelay(1000 / portTICK_PERIOD_MS);
 1116              		.loc 1 351 0
 1117 00b2 4FF47A70 		mov	r0, #1000
 1118              	.L86:
 1119 00b6 FFF7FEFF 		bl	vTaskDelay
 1120              	.LVL152:
 1121 00ba CDE7     		b	.L79
 1122              	.L88:
 1123              		.align	2
 1124              	.L87:
 1125 00bc 00000000 		.word	adc_sem
 1126 00c0 00000000 		.word	sysfault
 1127 00c4 E7000000 		.word	.LC8
 1128 00c8 00000000 		.word	tt
 1129 00cc 00010000 		.word	.LC9
 1130 00d0 1D010000 		.word	.LC10
 1131 00d4 00000000 		.word	configuration
 1132              		.cfi_endproc
 1133              	.LFE77:
 1134              		.size	tsk_thermistor_TaskProc, .-tsk_thermistor_TaskProc
 1135              		.section	.text.tsk_thermistor_Start,"ax",%progbits
 1136              		.align	1
 1137              		.global	tsk_thermistor_Start
 1138              		.thumb
 1139              		.thumb_func
 1140              		.type	tsk_thermistor_Start, %function
 1141              	tsk_thermistor_Start:
 1142              	.LFB78:
 352:..\common\ud3core\tasks/tsk_thermistor.c ****         }
 353:..\common\ud3core\tasks/tsk_thermistor.c **** 	}
 354:..\common\ud3core\tasks/tsk_thermistor.c **** }
 355:..\common\ud3core\tasks/tsk_thermistor.c **** /* ------------------------------------------------------------------------ */
 356:..\common\ud3core\tasks/tsk_thermistor.c **** void tsk_thermistor_Start(void) {
 1143              		.loc 1 356 0
 1144              		.cfi_startproc
 1145              		@ args = 0, pretend = 0, frame = 0
ARM GAS  C:\Users\chemi\AppData\Local\Temp\ccVrHZQF.s 			page 28


 1146              		@ frame_needed = 0, uses_anonymous_args = 0
 1147 0000 37B5     		push	{r0, r1, r2, r4, r5, lr}
 1148              		.cfi_def_cfa_offset 24
 1149              		.cfi_offset 4, -12
 1150              		.cfi_offset 5, -8
 1151              		.cfi_offset 14, -4
 357:..\common\ud3core\tasks/tsk_thermistor.c **** 	/*
 358:..\common\ud3core\tasks/tsk_thermistor.c **** 	 * Insert task global memeory initialization here. Since the OS does not
 359:..\common\ud3core\tasks/tsk_thermistor.c **** 	 * initialize ANY global memory, execute the initialization here to make
 360:..\common\ud3core\tasks/tsk_thermistor.c **** 	 * sure that your task data is properly 
 361:..\common\ud3core\tasks/tsk_thermistor.c **** 	 */
 362:..\common\ud3core\tasks/tsk_thermistor.c **** 	/* `#START TASK_GLOBAL_INIT` */
 363:..\common\ud3core\tasks/tsk_thermistor.c **** 
 364:..\common\ud3core\tasks/tsk_thermistor.c **** 	/* `#END` */
 365:..\common\ud3core\tasks/tsk_thermistor.c **** 
 366:..\common\ud3core\tasks/tsk_thermistor.c **** 	if (tsk_thermistor_initVar != 1) {
 1152              		.loc 1 366 0
 1153 0002 084C     		ldr	r4, .L94
 1154 0004 2378     		ldrb	r3, [r4]	@ zero_extendqisi2
 1155 0006 012B     		cmp	r3, #1
 1156 0008 0AD0     		beq	.L89
 367:..\common\ud3core\tasks/tsk_thermistor.c **** 
 368:..\common\ud3core\tasks/tsk_thermistor.c **** 		/*
 369:..\common\ud3core\tasks/tsk_thermistor.c **** 	 	* Create the task and then leave. When FreeRTOS starts up the scheduler
 370:..\common\ud3core\tasks/tsk_thermistor.c **** 	 	* will call the task procedure and start execution of the task.
 371:..\common\ud3core\tasks/tsk_thermistor.c **** 	 	*/
 372:..\common\ud3core\tasks/tsk_thermistor.c **** 		xTaskCreate(tsk_thermistor_TaskProc, "Therm", STACK_THERMISTOR, NULL, PRIO_THERMISTOR, &tsk_therm
 1157              		.loc 1 372 0
 1158 000a 074B     		ldr	r3, .L94+4
 1159 000c 0125     		movs	r5, #1
 1160 000e 0193     		str	r3, [sp, #4]
 1161 0010 0095     		str	r5, [sp]
 1162 0012 0023     		movs	r3, #0
 1163 0014 6422     		movs	r2, #100
 1164 0016 0549     		ldr	r1, .L94+8
 1165 0018 0548     		ldr	r0, .L94+12
 1166 001a FFF7FEFF 		bl	xTaskCreate
 1167              	.LVL153:
 373:..\common\ud3core\tasks/tsk_thermistor.c **** 		tsk_thermistor_initVar = 1;
 1168              		.loc 1 373 0
 1169 001e 2570     		strb	r5, [r4]
 1170              	.L89:
 374:..\common\ud3core\tasks/tsk_thermistor.c **** 	}
 375:..\common\ud3core\tasks/tsk_thermistor.c **** }
 1171              		.loc 1 375 0
 1172 0020 03B0     		add	sp, sp, #12
 1173              		.cfi_def_cfa_offset 12
 1174              		@ sp needed
 1175 0022 30BD     		pop	{r4, r5, pc}
 1176              	.L95:
 1177              		.align	2
 1178              	.L94:
 1179 0024 00000000 		.word	.LANCHOR0
 1180 0028 00000000 		.word	tsk_thermistor_TaskHandle
 1181 002c 3A010000 		.word	.LC11
 1182 0030 00000000 		.word	tsk_thermistor_TaskProc
 1183              		.cfi_endproc
ARM GAS  C:\Users\chemi\AppData\Local\Temp\ccVrHZQF.s 			page 29


 1184              	.LFE78:
 1185              		.size	tsk_thermistor_Start, .-tsk_thermistor_Start
 1186              		.comm	count_temp_table,64,2
 1187              		.comm	interrupter,12,4
 1188              		.comm	bus_command,1,1
 1189              		.comm	adc_sem,4,4
 1190              		.comm	pid_temp,64,8
 1191              		.global	tsk_thermistor_initVar
 1192              		.comm	tsk_thermistor_TaskHandle,4,4
 1193              		.section	.rodata.str1.1,"aMS",%progbits,1
 1194              	.LC0:
 1195 0000 436F6E6E 		.ascii	"Connect a precision 10k to therm 1\015\012\000"
 1195      65637420 
 1195      61207072 
 1195      65636973 
 1195      696F6E20 
 1196              	.LC1:
 1197 0025 50726573 		.ascii	"Press [y] to proceed\015\012\000"
 1197      73205B79 
 1197      5D20746F 
 1197      2070726F 
 1197      63656564 
 1198              	.LC2:
 1199 003c 43616C69 		.ascii	"Calibration aborted\015\012\000"
 1199      62726174 
 1199      696F6E20 
 1199      61626F72 
 1199      7465640D 
 1200              	.LC3:
 1201 0052 43616C69 		.ascii	"Calibration finished: %u uA\015\012\000"
 1201      62726174 
 1201      696F6E20 
 1201      66696E69 
 1201      73686564 
 1202              	.LC4:
 1203 0070 52656361 		.ascii	"Recalculate NTC LUT...\015\012\000"
 1203      6C63756C 
 1203      61746520 
 1203      4E544320 
 1203      4C55542E 
 1204              	.LC5:
 1205 0089 46696E69 		.ascii	"Finished... Please save to eeprom.\015\012\000"
 1205      73686564 
 1205      2E2E2E20 
 1205      506C6561 
 1205      73652073 
 1206              	.LC6:
 1207 00ae 4144433A 		.ascii	"ADC: Temperature ADC offset\000"
 1207      2054656D 
 1207      70657261 
 1207      74757265 
 1207      20414443 
 1208              	.LC7:
 1209 00ca 5049443A 		.ascii	"PID: Thermistor config error\000"
 1209      20546865 
 1209      726D6973 
 1209      746F7220 
ARM GAS  C:\Users\chemi\AppData\Local\Temp\ccVrHZQF.s 			page 30


 1209      636F6E66 
 1210              	.LC8:
 1211 00e7 5441534B 		.ascii	"TASK: Thermistor started\000"
 1211      3A205468 
 1211      65726D69 
 1211      73746F72 
 1211      20737461 
 1212              	.LC9:
 1213 0100 4E54433A 		.ascii	"NTC: Temperature Therm1 high\000"
 1213      2054656D 
 1213      70657261 
 1213      74757265 
 1213      20546865 
 1214              	.LC10:
 1215 011d 4E54433A 		.ascii	"NTC: Temperature Therm2 high\000"
 1215      2054656D 
 1215      70657261 
 1215      74757265 
 1215      20546865 
 1216              	.LC11:
 1217 013a 54686572 		.ascii	"Therm\000"
 1217      6D00
 1218              		.bss
 1219              		.set	.LANCHOR0,. + 0
 1220              		.type	tsk_thermistor_initVar, %object
 1221              		.size	tsk_thermistor_initVar, 1
 1222              	tsk_thermistor_initVar:
 1223 0000 00       		.space	1
 1224              		.text
 1225              	.Letext0:
 1226              		.file 2 "c:\\program files (x86)\\cypress\\psoc creator\\4.4\\psoc creator\\import\\gnu\\arm\\5.4.
 1227              		.file 3 "c:\\program files (x86)\\cypress\\psoc creator\\4.4\\psoc creator\\import\\gnu\\arm\\5.4.
 1228              		.file 4 "c:\\program files (x86)\\cypress\\psoc creator\\4.4\\psoc creator\\import\\gnu\\arm\\5.4.
 1229              		.file 5 "Generated_Source\\PSoC5/cytypes.h"
 1230              		.file 6 "..\\common\\rtos\\portable\\GCC\\ARM_CM3/portmacro.h"
 1231              		.file 7 "..\\common\\rtos\\include/task.h"
 1232              		.file 8 "..\\common\\rtos\\include/queue.h"
 1233              		.file 9 "..\\common\\rtos\\include/semphr.h"
 1234              		.file 10 "..\\common\\rtos\\include/stream_buffer.h"
 1235              		.file 11 "..\\common\\tterm/TTerm.h"
 1236              		.file 12 "..\\common\\ud3core/cli_basic.h"
 1237              		.file 13 "..\\common\\ud3core\\tasks\\tsk_fault.h"
 1238              		.file 14 "..\\common\\ud3core/helper/FastPID.h"
 1239              		.file 15 "..\\common\\rtos\\include/timers.h"
 1240              		.file 16 "..\\common\\ud3core/cli_common.h"
 1241              		.file 17 "..\\common\\ud3core/interrupter.h"
 1242              		.file 18 "..\\common\\ud3core/telemetry.h"
 1243              		.file 19 "Generated_Source\\PSoC5/ADC_therm.h"
 1244              		.file 20 "Generated_Source\\PSoC5/core_cm3.h"
 1245              		.file 21 "..\\common\\ud3core\\tasks\\tsk_analog.h"
 1246              		.file 22 "Generated_Source\\PSoC5/IDAC_therm.h"
 1247              		.file 23 "Generated_Source\\PSoC5/Therm_Mux.h"
 1248              		.file 24 "Generated_Source\\PSoC5/temp_pwm.h"
 1249              		.file 25 "Generated_Source\\PSoC5/Fan.h"
 1250              		.file 26 "..\\common\\ud3core/alarmevent.h"
 1251              		.file 27 "c:\\program files (x86)\\cypress\\psoc creator\\4.4\\psoc creator\\import\\gnu\\arm\\5.4