ARM GAS  C:\Users\chemi\AppData\Local\Temp\cc0tO343.s 			page 1


   1              		.syntax unified
   2              		.cpu cortex-m3
   3              		.fpu softvfp
   4              		.eabi_attribute 20, 1
   5              		.eabi_attribute 21, 1
   6              		.eabi_attribute 23, 3
   7              		.eabi_attribute 24, 1
   8              		.eabi_attribute 25, 1
   9              		.eabi_attribute 26, 1
  10              		.eabi_attribute 30, 4
  11              		.eabi_attribute 34, 1
  12              		.eabi_attribute 18, 4
  13              		.thumb
  14              		.syntax unified
  15              		.file	"TTerm.c"
  16              		.text
  17              	.Ltext0:
  18              		.cfi_sections	.debug_frame
  19              		.section	.text.TERM_defaultErrorPrinter,"ax",%progbits
  20              		.align	1
  21              		.global	TERM_defaultErrorPrinter
  22              		.thumb
  23              		.thumb_func
  24              		.type	TERM_defaultErrorPrinter, %function
  25              	TERM_defaultErrorPrinter:
  26              	.LFB77:
  27              		.file 1 "..\\common\\tterm\\TTerm.c"
   1:..\common\tterm/TTerm.c **** /*
   2:..\common\tterm/TTerm.c ****  * TTerm
   3:..\common\tterm/TTerm.c ****  *
   4:..\common\tterm/TTerm.c ****  * Copyright (c) 2020 Thorben Zethoff
   5:..\common\tterm/TTerm.c ****  *
   6:..\common\tterm/TTerm.c ****  * Permission is hereby granted, free of charge, to any person obtaining a copy of
   7:..\common\tterm/TTerm.c ****  * this software and associated documentation files (the "Software"), to deal in
   8:..\common\tterm/TTerm.c ****  * the Software without restriction, including without limitation the rights to
   9:..\common\tterm/TTerm.c ****  * use, copy, modify, merge, publish, distribute, sublicense, and/or sell copies of
  10:..\common\tterm/TTerm.c ****  * the Software, and to permit persons to whom the Software is furnished to do so,
  11:..\common\tterm/TTerm.c ****  * subject to the following conditions:
  12:..\common\tterm/TTerm.c ****  *
  13:..\common\tterm/TTerm.c ****  * The above copyright notice and this permission notice shall be included in all
  14:..\common\tterm/TTerm.c ****  * copies or substantial portions of the Software.
  15:..\common\tterm/TTerm.c ****  *
  16:..\common\tterm/TTerm.c ****  * THE SOFTWARE IS PROVIDED "AS IS", WITHOUT WARRANTY OF ANY KIND, EXPRESS OR
  17:..\common\tterm/TTerm.c ****  * IMPLIED, INCLUDING BUT NOT LIMITED TO THE WARRANTIES OF MERCHANTABILITY, FITNESS
  18:..\common\tterm/TTerm.c ****  * FOR A PARTICULAR PURPOSE AND NONINFRINGEMENT. IN NO EVENT SHALL THE AUTHORS OR
  19:..\common\tterm/TTerm.c ****  * COPYRIGHT HOLDERS BE LIABLE FOR ANY CLAIM, DAMAGES OR OTHER LIABILITY, WHETHER
  20:..\common\tterm/TTerm.c ****  * IN AN ACTION OF CONTRACT, TORT OR OTHERWISE, ARISING FROM, OUT OF OR IN
  21:..\common\tterm/TTerm.c ****  * CONNECTION WITH THE SOFTWARE OR THE USE OR OTHER DEALINGS IN THE SOFTWARE.
  22:..\common\tterm/TTerm.c **** */
  23:..\common\tterm/TTerm.c ****     
  24:..\common\tterm/TTerm.c **** #if PIC32
  25:..\common\tterm/TTerm.c **** #include <xc.h>
  26:..\common\tterm/TTerm.c **** #endif    
  27:..\common\tterm/TTerm.c **** #include <stdint.h>
  28:..\common\tterm/TTerm.c **** #include <stdio.h>
  29:..\common\tterm/TTerm.c **** #include <string.h>
  30:..\common\tterm/TTerm.c **** #include <stdarg.h>
ARM GAS  C:\Users\chemi\AppData\Local\Temp\cc0tO343.s 			page 2


  31:..\common\tterm/TTerm.c **** 
  32:..\common\tterm/TTerm.c **** #include "FreeRTOS.h"
  33:..\common\tterm/TTerm.c **** #include "task.h"
  34:..\common\tterm/TTerm.c **** #include "stream_buffer.h"
  35:..\common\tterm/TTerm.c **** #include "UART.h"
  36:..\common\tterm/TTerm.c **** #include "TTerm.h"
  37:..\common\tterm/TTerm.c **** #include "TTerm_cmd.h"
  38:..\common\tterm/TTerm.c **** #include "TTerm_AC.h"
  39:..\common\tterm/TTerm.c **** #if TERM_SUPPORT_CWD
  40:..\common\tterm/TTerm.c **** #include "TTerm_cwd.h"
  41:..\common\tterm/TTerm.c **** #endif    
  42:..\common\tterm/TTerm.c **** 
  43:..\common\tterm/TTerm.c **** #include "apps.h"
  44:..\common\tterm/TTerm.c **** 
  45:..\common\tterm/TTerm.c **** TermCommandDescriptor TERM_cmdListHead = {.nextCmd = 0, .commandLength = 0};
  46:..\common\tterm/TTerm.c **** unsigned TERM_baseCMDsAdded = 0;
  47:..\common\tterm/TTerm.c **** 
  48:..\common\tterm/TTerm.c **** #define ESC_STR "\x1b"
  49:..\common\tterm/TTerm.c **** 
  50:..\common\tterm/TTerm.c **** #if EXTENDED_PRINTF == 1
  51:..\common\tterm/TTerm.c **** TERMINAL_HANDLE * TERM_createNewHandle(TermPrintHandler printFunction, void * port, unsigned echoEn
  52:..\common\tterm/TTerm.c **** #else
  53:..\common\tterm/TTerm.c **** TERMINAL_HANDLE * TERM_createNewHandle(TermPrintHandler printFunction, unsigned echoEnabled, TermCo
  54:..\common\tterm/TTerm.c **** #endif    
  55:..\common\tterm/TTerm.c ****     TERMINAL_HANDLE * ret = pvPortMalloc(sizeof(TERMINAL_HANDLE));
  56:..\common\tterm/TTerm.c ****     memset(ret, 0, sizeof(TERMINAL_HANDLE));
  57:..\common\tterm/TTerm.c ****     ret->inputBuffer = pvPortMalloc(TERM_INPUTBUFFER_SIZE);
  58:..\common\tterm/TTerm.c ****     ret->print = printFunction;
  59:..\common\tterm/TTerm.c ****     #if EXTENDED_PRINTF == 1
  60:..\common\tterm/TTerm.c ****     ret->port = port;
  61:..\common\tterm/TTerm.c ****     #endif    
  62:..\common\tterm/TTerm.c ****     ret->echoEnabled = echoEnabled;
  63:..\common\tterm/TTerm.c ****     ret->cmdListHead = cmdListHead;
  64:..\common\tterm/TTerm.c ****     ret->currUserName = pvPortMalloc(strlen(usr) + 1 + strlen(TERM_getVT100Code(_VT100_FOREGROUND_C
  65:..\common\tterm/TTerm.c ****     sprintf(ret->currUserName, "%s%s%s", TERM_getVT100Code(_VT100_FOREGROUND_COLOR, _VT100_BLUE), u
  66:..\common\tterm/TTerm.c ****     ret->currEscSeqPos = 0xff;
  67:..\common\tterm/TTerm.c ****     
  68:..\common\tterm/TTerm.c ****     if(errorPrinter == 0){
  69:..\common\tterm/TTerm.c ****         ret->errorPrinter = TERM_defaultErrorPrinter;
  70:..\common\tterm/TTerm.c ****     }else{
  71:..\common\tterm/TTerm.c ****         ret->errorPrinter = errorPrinter;
  72:..\common\tterm/TTerm.c ****     }
  73:..\common\tterm/TTerm.c ****     
  74:..\common\tterm/TTerm.c ****     #if TERM_SUPPORT_CWD
  75:..\common\tterm/TTerm.c ****     ret->cwdPath = pvPortMalloc(2);
  76:..\common\tterm/TTerm.c ****     strcpy(ret->cwdPath, "/");
  77:..\common\tterm/TTerm.c ****     #endif
  78:..\common\tterm/TTerm.c **** 
  79:..\common\tterm/TTerm.c ****     //if this is the first console we initialize we need to add the static commands
  80:..\common\tterm/TTerm.c ****     if(!TERM_baseCMDsAdded){
  81:..\common\tterm/TTerm.c ****         TERM_baseCMDsAdded = 1;
  82:..\common\tterm/TTerm.c ****         
  83:..\common\tterm/TTerm.c ****         TERM_addCommand(CMD_help, "help", "Displays this help message", 0, &TERM_cmdListHead);
  84:..\common\tterm/TTerm.c ****         TERM_addCommand(CMD_cls, "cls", "Clears the screen", 0, &TERM_cmdListHead);
  85:..\common\tterm/TTerm.c ****         TERM_addCommand(CMD_testCommandHandler, "test", "Test input", 0, &TERM_cmdListHead);
  86:..\common\tterm/TTerm.c ****         //TERM_addCommand(CMD_reset, "reset", "resets the fibernet", 0, &TERM_cmdListHead);
  87:..\common\tterm/TTerm.c ****         
ARM GAS  C:\Users\chemi\AppData\Local\Temp\cc0tO343.s 			page 3


  88:..\common\tterm/TTerm.c ****         REGISTER_apps(&TERM_cmdListHead);
  89:..\common\tterm/TTerm.c ****         
  90:..\common\tterm/TTerm.c ****         #if TERM_SUPPORT_CWD
  91:..\common\tterm/TTerm.c ****         TERM_addCommand(CMD_ls, "ls", "List directory", 0, &TERM_cmdListHead);
  92:..\common\tterm/TTerm.c ****         TERM_addCommand(CMD_cd, "cd", "Change directory", 0, &TERM_cmdListHead);
  93:..\common\tterm/TTerm.c ****         TERM_addCommand(CMD_mkdir, "mkdir", "Make directory", 0, &TERM_cmdListHead);
  94:..\common\tterm/TTerm.c ****         #endif  
  95:..\common\tterm/TTerm.c ****     }
  96:..\common\tterm/TTerm.c ****     
  97:..\common\tterm/TTerm.c **** #ifdef TERM_ENABLE_STARTUP_TEXT
  98:..\common\tterm/TTerm.c ****     //TODO VT100 reset at boot
  99:..\common\tterm/TTerm.c ****     //TODO add min start frame to signal that debugging started and print this again
 100:..\common\tterm/TTerm.c ****     //TODO colors in the boot message
 101:..\common\tterm/TTerm.c ****     TERM_printBootMessage(ret);
 102:..\common\tterm/TTerm.c **** #endif
 103:..\common\tterm/TTerm.c ****     return ret;
 104:..\common\tterm/TTerm.c **** }
 105:..\common\tterm/TTerm.c **** 
 106:..\common\tterm/TTerm.c **** void TERM_destroyHandle(TERMINAL_HANDLE * handle){
 107:..\common\tterm/TTerm.c ****     if(handle->currProgram != NULL){
 108:..\common\tterm/TTerm.c ****         //try to gracefully shutdown the running program
 109:..\common\tterm/TTerm.c ****         (*handle->currProgram->inputHandler)(handle, 0x03);
 110:..\common\tterm/TTerm.c ****     }
 111:..\common\tterm/TTerm.c ****     
 112:..\common\tterm/TTerm.c ****     vPortFree(handle->inputBuffer);
 113:..\common\tterm/TTerm.c ****     vPortFree(handle->currUserName);
 114:..\common\tterm/TTerm.c ****     
 115:..\common\tterm/TTerm.c ****     uint8_t currHistoryPos = 0;
 116:..\common\tterm/TTerm.c ****     for(;currHistoryPos < TERM_HISTORYSIZE; currHistoryPos++){
 117:..\common\tterm/TTerm.c ****         if(handle->historyBuffer[currHistoryPos] != 0){
 118:..\common\tterm/TTerm.c ****             vPortFree(handle->historyBuffer[currHistoryPos]);
 119:..\common\tterm/TTerm.c ****             handle->historyBuffer[currHistoryPos] = 0;
 120:..\common\tterm/TTerm.c ****         }
 121:..\common\tterm/TTerm.c ****     }
 122:..\common\tterm/TTerm.c ****     
 123:..\common\tterm/TTerm.c ****     vPortFree(handle->autocompleteBuffer);
 124:..\common\tterm/TTerm.c ****     handle->autocompleteBuffer = NULL;
 125:..\common\tterm/TTerm.c ****     vPortFree(handle);
 126:..\common\tterm/TTerm.c **** }
 127:..\common\tterm/TTerm.c **** 
 128:..\common\tterm/TTerm.c **** void TERM_printDebug(TERMINAL_HANDLE * handle, char * format, ...){
 129:..\common\tterm/TTerm.c ****     //TODO make this nicer... we don't need a double buffer allocation, we should instead send the 
 130:..\common\tterm/TTerm.c ****     //TODO implement a debug level control in the terminal handle (permission level?)
 131:..\common\tterm/TTerm.c ****     va_list arg;
 132:..\common\tterm/TTerm.c ****     va_start(arg, format);
 133:..\common\tterm/TTerm.c ****     
 134:..\common\tterm/TTerm.c ****     char * buff = (char*) pvPortMalloc(256);
 135:..\common\tterm/TTerm.c ****     vsnprintf(buff, 256,format, arg);
 136:..\common\tterm/TTerm.c ****     
 137:..\common\tterm/TTerm.c ****     ttprintfEcho("\r\n%s", buff);
 138:..\common\tterm/TTerm.c ****     
 139:..\common\tterm/TTerm.c ****     if(handle->currBufferLength == 0){
 140:..\common\tterm/TTerm.c ****         ttprintfEcho("%s@%s>", handle->currUserName, TERM_DEVICE_NAME);
 141:..\common\tterm/TTerm.c ****     }else{
 142:..\common\tterm/TTerm.c ****         ttprintfEcho("%s@%s>%s", handle->currUserName, TERM_DEVICE_NAME, handle->inputBuffer);
 143:..\common\tterm/TTerm.c ****         if(handle->inputBuffer[handle->currBufferPosition] != 0) TERM_sendVT100Code(handle, _VT100_
 144:..\common\tterm/TTerm.c ****     }
ARM GAS  C:\Users\chemi\AppData\Local\Temp\cc0tO343.s 			page 4


 145:..\common\tterm/TTerm.c ****     
 146:..\common\tterm/TTerm.c ****     vPortFree(buff);
 147:..\common\tterm/TTerm.c ****     
 148:..\common\tterm/TTerm.c ****     va_end(arg);
 149:..\common\tterm/TTerm.c **** }
 150:..\common\tterm/TTerm.c **** 
 151:..\common\tterm/TTerm.c **** #define ESC_IDLE 0xff
 152:..\common\tterm/TTerm.c **** #define ESC_START 0
 153:..\common\tterm/TTerm.c **** 
 154:..\common\tterm/TTerm.c **** uint8_t TERM_processBuffer(uint8_t * data, uint16_t length, TERMINAL_HANDLE * handle){
 155:..\common\tterm/TTerm.c ****     uint16_t currPos = 0;
 156:..\common\tterm/TTerm.c ****     for(;currPos < length; currPos++){
 157:..\common\tterm/TTerm.c **** 
 158:..\common\tterm/TTerm.c ****     	if(handle->currProgram != NULL && handle->currProgram->raw_input == 1){
 159:..\common\tterm/TTerm.c ****     		TERM_handleInput(data[currPos], handle);
 160:..\common\tterm/TTerm.c ****     	}else{
 161:..\common\tterm/TTerm.c ****     	//ttprintfEcho("checking 0x%02x\r\n", data[currPos]);
 162:..\common\tterm/TTerm.c **** 			if(handle->currEscSeqPos != 0xff){
 163:..\common\tterm/TTerm.c **** 				if(handle->currEscSeqPos == 0){
 164:..\common\tterm/TTerm.c **** 					if(data[currPos] == '['){
 165:..\common\tterm/TTerm.c **** 						if(handle->currEscSeqPos < TTERM_ESC_SEQ_BUFFER_SIZE){
 166:..\common\tterm/TTerm.c **** 							handle->escSeqBuff[handle->currEscSeqPos] = data[currPos];
 167:..\common\tterm/TTerm.c **** 							handle->currEscSeqPos++;
 168:..\common\tterm/TTerm.c **** 						}
 169:..\common\tterm/TTerm.c **** 					}else{
 170:..\common\tterm/TTerm.c **** 						switch(data[currPos]){
 171:..\common\tterm/TTerm.c **** 							case 'c':
 172:..\common\tterm/TTerm.c **** 								handle->currEscSeqPos = 0xff;
 173:..\common\tterm/TTerm.c **** 								TERM_handleInput(_VT100_RESET, handle);
 174:..\common\tterm/TTerm.c **** 								break;
 175:..\common\tterm/TTerm.c **** 							case 0x1b:
 176:..\common\tterm/TTerm.c **** 								handle->currEscSeqPos = 0;
 177:..\common\tterm/TTerm.c **** 								break;
 178:..\common\tterm/TTerm.c **** 							default:
 179:..\common\tterm/TTerm.c **** 								handle->currEscSeqPos = 0xff;
 180:..\common\tterm/TTerm.c **** 								TERM_handleInput(0x1b, handle);
 181:..\common\tterm/TTerm.c **** 								TERM_handleInput(data[currPos], handle);
 182:..\common\tterm/TTerm.c **** 								break;
 183:..\common\tterm/TTerm.c **** 						}
 184:..\common\tterm/TTerm.c **** 					}
 185:..\common\tterm/TTerm.c **** 				}else{
 186:..\common\tterm/TTerm.c **** 					if(isACIILetter(data[currPos])){
 187:..\common\tterm/TTerm.c **** 						if(data[currPos] == 'n'){
 188:..\common\tterm/TTerm.c **** 							if(handle->currEscSeqPos == 2){
 189:..\common\tterm/TTerm.c **** 								if(handle->escSeqBuff[0] == '5'){        //Query device status
 190:..\common\tterm/TTerm.c **** 								}else if(handle->escSeqBuff[0] == '6'){  //Query cursor position
 191:..\common\tterm/TTerm.c **** 								}
 192:..\common\tterm/TTerm.c **** 							}
 193:..\common\tterm/TTerm.c **** 						}else if(data[currPos] == 'c'){
 194:..\common\tterm/TTerm.c **** 							if(handle->currEscSeqPos == 1){              //Query device code
 195:..\common\tterm/TTerm.c **** 							}
 196:..\common\tterm/TTerm.c **** 						}else if(data[currPos] == 'F'){
 197:..\common\tterm/TTerm.c **** 							if(handle->currEscSeqPos == 1){              //end
 198:..\common\tterm/TTerm.c **** 								TERM_handleInput(_VT100_KEY_END, handle);
 199:..\common\tterm/TTerm.c **** 							}
 200:..\common\tterm/TTerm.c **** 						}else if(data[currPos] == 'H'){
 201:..\common\tterm/TTerm.c **** 							if(handle->currEscSeqPos == 1){              //pos1
ARM GAS  C:\Users\chemi\AppData\Local\Temp\cc0tO343.s 			page 5


 202:..\common\tterm/TTerm.c **** 								TERM_handleInput(_VT100_KEY_POS1, handle);
 203:..\common\tterm/TTerm.c **** 							}
 204:..\common\tterm/TTerm.c **** 						}else if(data[currPos] == 'C'){                      //cursor forward
 205:..\common\tterm/TTerm.c **** 							if(handle->currEscSeqPos > 1){
 206:..\common\tterm/TTerm.c **** 								handle->escSeqBuff[handle->currEscSeqPos] = 0;
 207:..\common\tterm/TTerm.c **** 							}else{
 208:..\common\tterm/TTerm.c **** 								TERM_handleInput(_VT100_CURSOR_FORWARD, handle);
 209:..\common\tterm/TTerm.c **** 							}
 210:..\common\tterm/TTerm.c **** 						}else if(data[currPos] == 'D'){                      //cursor backward
 211:..\common\tterm/TTerm.c **** 							if(handle->currEscSeqPos > 1){
 212:..\common\tterm/TTerm.c **** 								handle->escSeqBuff[handle->currEscSeqPos] = 0;
 213:..\common\tterm/TTerm.c **** 							}else{
 214:..\common\tterm/TTerm.c **** 								TERM_handleInput(_VT100_CURSOR_BACK, handle);
 215:..\common\tterm/TTerm.c **** 							}
 216:..\common\tterm/TTerm.c **** 						}else if(data[currPos] == 'A'){                      //cursor up
 217:..\common\tterm/TTerm.c **** 							if(handle->currEscSeqPos > 1){
 218:..\common\tterm/TTerm.c **** 								handle->escSeqBuff[handle->currEscSeqPos] = 0;
 219:..\common\tterm/TTerm.c **** 							}else{
 220:..\common\tterm/TTerm.c **** 								TERM_handleInput(_VT100_CURSOR_UP, handle);
 221:..\common\tterm/TTerm.c **** 							}
 222:..\common\tterm/TTerm.c **** 						}else if(data[currPos] == 'B'){                      //cursor down
 223:..\common\tterm/TTerm.c **** 							if(handle->currEscSeqPos > 1){
 224:..\common\tterm/TTerm.c **** 								handle->escSeqBuff[handle->currEscSeqPos] = 0;
 225:..\common\tterm/TTerm.c **** 							}else{
 226:..\common\tterm/TTerm.c **** 								TERM_handleInput(_VT100_CURSOR_DOWN, handle);
 227:..\common\tterm/TTerm.c **** 							}
 228:..\common\tterm/TTerm.c **** 						}else if(data[currPos] == 'Z'){                      //shift tab or ident request(at least fr
 229:..\common\tterm/TTerm.c **** 							TERM_handleInput(_VT100_BACKWARDS_TAB, handle);
 230:..\common\tterm/TTerm.c **** 
 231:..\common\tterm/TTerm.c **** 						}else if(data[currPos] == '~'){                      //Tilde the end of a special key command
 232:..\common\tterm/TTerm.c **** 							if(handle->escSeqBuff[1] == 0x32){            //insert
 233:..\common\tterm/TTerm.c **** 								TERM_handleInput(_VT100_KEY_INS, handle);
 234:..\common\tterm/TTerm.c **** 							}else if(handle->escSeqBuff[1] == 0x33){      //delete
 235:..\common\tterm/TTerm.c **** 								TERM_handleInput(_VT100_KEY_DEL, handle);
 236:..\common\tterm/TTerm.c **** 							}else if(handle->escSeqBuff[1] == 0x35){      //page up
 237:..\common\tterm/TTerm.c **** 								TERM_handleInput(_VT100_KEY_PAGE_UP, handle);
 238:..\common\tterm/TTerm.c **** 							}else if(handle->escSeqBuff[1] == 0x36){      //page down
 239:..\common\tterm/TTerm.c **** 								TERM_handleInput(_VT100_KEY_PAGE_DOWN, handle);
 240:..\common\tterm/TTerm.c **** 							}else{
 241:..\common\tterm/TTerm.c **** 								TERM_handleInput(_VT100_INVALID, handle);
 242:..\common\tterm/TTerm.c **** 							}
 243:..\common\tterm/TTerm.c **** 						}else{                      //others
 244:..\common\tterm/TTerm.c **** 							handle->escSeqBuff[handle->currEscSeqPos+1] = 0;
 245:..\common\tterm/TTerm.c **** 						}
 246:..\common\tterm/TTerm.c **** 						handle->currEscSeqPos = 0xff;
 247:..\common\tterm/TTerm.c **** 					}else{
 248:..\common\tterm/TTerm.c **** 						handle->escSeqBuff[handle->currEscSeqPos++] = data[currPos];
 249:..\common\tterm/TTerm.c **** 					}
 250:..\common\tterm/TTerm.c **** 				}
 251:..\common\tterm/TTerm.c **** 			}else{
 252:..\common\tterm/TTerm.c **** 				if(data[currPos] == 0x1B){     //ESC for V100 control sequences
 253:..\common\tterm/TTerm.c **** 					handle->currEscSeqPos = 0;
 254:..\common\tterm/TTerm.c **** 				}else{
 255:..\common\tterm/TTerm.c **** 					TERM_handleInput(data[currPos], handle);
 256:..\common\tterm/TTerm.c **** 				}
 257:..\common\tterm/TTerm.c **** 			}
 258:..\common\tterm/TTerm.c ****     	}
ARM GAS  C:\Users\chemi\AppData\Local\Temp\cc0tO343.s 			page 6


 259:..\common\tterm/TTerm.c ****     }
 260:..\common\tterm/TTerm.c ****     return length;
 261:..\common\tterm/TTerm.c **** }
 262:..\common\tterm/TTerm.c **** 
 263:..\common\tterm/TTerm.c **** unsigned isACIILetter(char c){
 264:..\common\tterm/TTerm.c ****     return (c > 64 && c < 91) || (c > 96 && c < 122) || c == '~';
 265:..\common\tterm/TTerm.c **** }
 266:..\common\tterm/TTerm.c **** 
 267:..\common\tterm/TTerm.c **** void TERM_printBootMessage(TERMINAL_HANDLE * handle){
 268:..\common\tterm/TTerm.c ****     TERM_sendVT100Code(handle, _VT100_RESET, 0); TERM_sendVT100Code(handle, _VT100_CURSOR_POS1, 0);
 269:..\common\tterm/TTerm.c ****     ttprintfEcho("\33[?7l\r\n\n\n%s\r\n", TERM_startupText1);
 270:..\common\tterm/TTerm.c ****     ttprintfEcho("%s\r\n", TERM_startupText2);
 271:..\common\tterm/TTerm.c ****     ttprintfEcho("%s\r\n", TERM_startupText3);
 272:..\common\tterm/TTerm.c ****     
 273:..\common\tterm/TTerm.c ****     if(handle->currBufferLength == 0){
 274:..\common\tterm/TTerm.c ****         ttprintfEcho("\r\n\r\n%s@%s>", handle->currUserName, TERM_DEVICE_NAME);
 275:..\common\tterm/TTerm.c ****     }else{
 276:..\common\tterm/TTerm.c ****         ttprintfEcho("\r\n\r\n%s@%s>%s", handle->currUserName, TERM_DEVICE_NAME, handle->inputBuffe
 277:..\common\tterm/TTerm.c ****         if(handle->inputBuffer[handle->currBufferPosition] != 0) TERM_sendVT100Code(handle, _VT100_
 278:..\common\tterm/TTerm.c ****     }
 279:..\common\tterm/TTerm.c **** }
 280:..\common\tterm/TTerm.c **** 
 281:..\common\tterm/TTerm.c **** BaseType_t ptr_is_in_ram(void* ptr){
 282:..\common\tterm/TTerm.c ****     if(ptr > (void*)START_OF_RAM && ptr < (void*)END_OF_RAM){
 283:..\common\tterm/TTerm.c ****         return pdTRUE;
 284:..\common\tterm/TTerm.c ****     }
 285:..\common\tterm/TTerm.c ****     return pdFALSE;
 286:..\common\tterm/TTerm.c **** }
 287:..\common\tterm/TTerm.c **** 
 288:..\common\tterm/TTerm.c **** BaseType_t ptr_is_in_flash(void* ptr){
 289:..\common\tterm/TTerm.c ****     if(ptr > (void*)START_OF_FLASH && ptr < (void*)END_OF_FLASH){
 290:..\common\tterm/TTerm.c ****         return pdTRUE;
 291:..\common\tterm/TTerm.c ****     }
 292:..\common\tterm/TTerm.c ****     return pdFALSE;
 293:..\common\tterm/TTerm.c **** }
 294:..\common\tterm/TTerm.c **** 
 295:..\common\tterm/TTerm.c **** uint8_t TERM_defaultErrorPrinter(TERMINAL_HANDLE * handle, uint32_t retCode){
  28              		.loc 1 295 0
  29              		.cfi_startproc
  30              		@ args = 0, pretend = 0, frame = 0
  31              		@ frame_needed = 0, uses_anonymous_args = 0
  32              	.LVL0:
 296:..\common\tterm/TTerm.c ****     switch(retCode){
  33              		.loc 1 296 0
  34 0000 0129     		cmp	r1, #1
 295:..\common\tterm/TTerm.c ****     switch(retCode){
  35              		.loc 1 295 0
  36 0002 13B5     		push	{r0, r1, r4, lr}
  37              		.cfi_def_cfa_offset 16
  38              		.cfi_offset 4, -8
  39              		.cfi_offset 14, -4
  40              		.loc 1 296 0
  41 0004 16D0     		beq	.L3
  42 0006 0BD3     		bcc	.L4
  43 0008 FF29     		cmp	r1, #255
  44 000a 1ED1     		bne	.L2
 297:..\common\tterm/TTerm.c ****         case TERM_CMD_EXIT_SUCCESS:
ARM GAS  C:\Users\chemi\AppData\Local\Temp\cc0tO343.s 			page 7


 298:..\common\tterm/TTerm.c ****             ttprintfEcho("\r\n%s@%s>", handle->currUserName, TERM_DEVICE_NAME);
  45              		.loc 1 298 0
  46 000c D0F88830 		ldr	r3, [r0, #136]
  47 0010 DBB1     		cbz	r3, .L2
  48              		.loc 1 298 0 is_stmt 0 discriminator 1
  49 0012 446A     		ldr	r4, [r0, #36]
  50 0014 826A     		ldr	r2, [r0, #40]
  51 0016 0E4B     		ldr	r3, .L17
  52 0018 0E49     		ldr	r1, .L17+4
  53              	.LVL1:
  54 001a 4068     		ldr	r0, [r0, #4]
  55              	.LVL2:
  56 001c A047     		blx	r4
  57              	.LVL3:
  58 001e 14E0     		b	.L2
  59              	.LVL4:
  60              	.L4:
 299:..\common\tterm/TTerm.c ****             break;
 300:..\common\tterm/TTerm.c **** 
 301:..\common\tterm/TTerm.c ****         case TERM_CMD_EXIT_ERROR:
 302:..\common\tterm/TTerm.c ****             ttprintfEcho("\r\nTask returned with error code %d\r\n%s@%s>", retCode, handle->currUse
  61              		.loc 1 302 0 is_stmt 1
  62 0020 D0F88830 		ldr	r3, [r0, #136]
  63 0024 8BB1     		cbz	r3, .L2
  64              		.loc 1 302 0 is_stmt 0 discriminator 1
  65 0026 0A4B     		ldr	r3, .L17
  66 0028 0022     		movs	r2, #0
  67 002a 0093     		str	r3, [sp]
  68 002c 446A     		ldr	r4, [r0, #36]
  69 002e 836A     		ldr	r3, [r0, #40]
  70 0030 0949     		ldr	r1, .L17+8
  71              	.LVL5:
  72 0032 08E0     		b	.L15
  73              	.LVL6:
  74              	.L3:
  75              	.LBB28:
  76              	.LBB29:
 303:..\common\tterm/TTerm.c ****             break;
 304:..\common\tterm/TTerm.c **** 
 305:..\common\tterm/TTerm.c ****         case TERM_CMD_EXIT_NOT_FOUND:
 306:..\common\tterm/TTerm.c ****             ttprintfEcho("\"%s\" is not a valid command. Type \"help\" to see a list of available o
  77              		.loc 1 306 0 is_stmt 1
  78 0034 D0F88830 		ldr	r3, [r0, #136]
  79 0038 3BB1     		cbz	r3, .L2
  80 003a 054B     		ldr	r3, .L17
  81 003c 0749     		ldr	r1, .L17+12
  82              	.LVL7:
  83 003e 0093     		str	r3, [sp]
  84 0040 446A     		ldr	r4, [r0, #36]
  85 0042 836A     		ldr	r3, [r0, #40]
  86 0044 0268     		ldr	r2, [r0]
  87              	.LVL8:
  88              	.L15:
  89 0046 4068     		ldr	r0, [r0, #4]
  90              	.LVL9:
  91 0048 A047     		blx	r4
  92              	.LVL10:
ARM GAS  C:\Users\chemi\AppData\Local\Temp\cc0tO343.s 			page 8


  93              	.L2:
  94              	.LBE29:
  95              	.LBE28:
 307:..\common\tterm/TTerm.c ****             break;
 308:..\common\tterm/TTerm.c ****     }
 309:..\common\tterm/TTerm.c ****     return TERM_CMD_EXIT_SUCCESS;
 310:..\common\tterm/TTerm.c **** }
  96              		.loc 1 310 0
  97 004a FF20     		movs	r0, #255
  98 004c 02B0     		add	sp, sp, #8
  99              		.cfi_def_cfa_offset 8
 100              		@ sp needed
 101 004e 10BD     		pop	{r4, pc}
 102              	.L18:
 103              		.align	2
 104              	.L17:
 105 0050 00000000 		.word	.LC0
 106 0054 04000000 		.word	.LC1
 107 0058 0D000000 		.word	.LC2
 108 005c 38000000 		.word	.LC3
 109              		.cfi_endproc
 110              	.LFE77:
 111              		.size	TERM_defaultErrorPrinter, .-TERM_defaultErrorPrinter
 112              		.section	.text.TERM_destroyHandle,"ax",%progbits
 113              		.align	1
 114              		.global	TERM_destroyHandle
 115              		.thumb
 116              		.thumb_func
 117              		.type	TERM_destroyHandle, %function
 118              	TERM_destroyHandle:
 119              	.LFB70:
 106:..\common\tterm/TTerm.c ****     if(handle->currProgram != NULL){
 120              		.loc 1 106 0
 121              		.cfi_startproc
 122              		@ args = 0, pretend = 0, frame = 0
 123              		@ frame_needed = 0, uses_anonymous_args = 0
 124              	.LVL11:
 125 0000 F8B5     		push	{r3, r4, r5, r6, r7, lr}
 126              		.cfi_def_cfa_offset 24
 127              		.cfi_offset 3, -24
 128              		.cfi_offset 4, -20
 129              		.cfi_offset 5, -16
 130              		.cfi_offset 6, -12
 131              		.cfi_offset 7, -8
 132              		.cfi_offset 14, -4
 107:..\common\tterm/TTerm.c ****         //try to gracefully shutdown the running program
 133              		.loc 1 107 0
 134 0002 4369     		ldr	r3, [r0, #20]
 106:..\common\tterm/TTerm.c ****     if(handle->currProgram != NULL){
 135              		.loc 1 106 0
 136 0004 0446     		mov	r4, r0
 107:..\common\tterm/TTerm.c ****         //try to gracefully shutdown the running program
 137              		.loc 1 107 0
 138 0006 13B1     		cbz	r3, .L20
 109:..\common\tterm/TTerm.c ****     }
 139              		.loc 1 109 0
 140 0008 5B68     		ldr	r3, [r3, #4]
ARM GAS  C:\Users\chemi\AppData\Local\Temp\cc0tO343.s 			page 9


 141 000a 0321     		movs	r1, #3
 142 000c 9847     		blx	r3
 143              	.LVL12:
 144              	.L20:
 113:..\common\tterm/TTerm.c ****     
 145              		.loc 1 113 0
 146 000e 2546     		mov	r5, r4
 112:..\common\tterm/TTerm.c ****     vPortFree(handle->currUserName);
 147              		.loc 1 112 0
 148 0010 2068     		ldr	r0, [r4]
 149 0012 FFF7FEFF 		bl	vPortFree
 150              	.LVL13:
 113:..\common\tterm/TTerm.c ****     
 151              		.loc 1 113 0
 152 0016 55F8280F 		ldr	r0, [r5, #40]!
 153 001a FFF7FEFF 		bl	vPortFree
 154              	.LVL14:
 155 001e 04F16806 		add	r6, r4, #104
 119:..\common\tterm/TTerm.c ****         }
 156              		.loc 1 119 0
 157 0022 0027     		movs	r7, #0
 158              	.LVL15:
 159              	.L22:
 117:..\common\tterm/TTerm.c ****             vPortFree(handle->historyBuffer[currHistoryPos]);
 160              		.loc 1 117 0
 161 0024 55F8040F 		ldr	r0, [r5, #4]!
 162 0028 10B1     		cbz	r0, .L21
 118:..\common\tterm/TTerm.c ****             handle->historyBuffer[currHistoryPos] = 0;
 163              		.loc 1 118 0
 164 002a FFF7FEFF 		bl	vPortFree
 165              	.LVL16:
 119:..\common\tterm/TTerm.c ****         }
 166              		.loc 1 119 0
 167 002e 2F60     		str	r7, [r5]
 168              	.L21:
 116:..\common\tterm/TTerm.c ****         if(handle->historyBuffer[currHistoryPos] != 0){
 169              		.loc 1 116 0
 170 0030 B542     		cmp	r5, r6
 171 0032 F7D1     		bne	.L22
 123:..\common\tterm/TTerm.c ****     handle->autocompleteBuffer = NULL;
 172              		.loc 1 123 0
 173 0034 A069     		ldr	r0, [r4, #24]
 174 0036 FFF7FEFF 		bl	vPortFree
 175              	.LVL17:
 124:..\common\tterm/TTerm.c ****     vPortFree(handle);
 176              		.loc 1 124 0
 177 003a 0023     		movs	r3, #0
 178 003c A361     		str	r3, [r4, #24]
 125:..\common\tterm/TTerm.c **** }
 179              		.loc 1 125 0
 180 003e 2046     		mov	r0, r4
 126:..\common\tterm/TTerm.c **** 
 181              		.loc 1 126 0
 182 0040 BDE8F840 		pop	{r3, r4, r5, r6, r7, lr}
 183              		.cfi_restore 14
 184              		.cfi_restore 7
 185              		.cfi_restore 6
ARM GAS  C:\Users\chemi\AppData\Local\Temp\cc0tO343.s 			page 10


 186              		.cfi_restore 5
 187              		.cfi_restore 4
 188              		.cfi_restore 3
 189              		.cfi_def_cfa_offset 0
 190              	.LVL18:
 125:..\common\tterm/TTerm.c **** }
 191              		.loc 1 125 0
 192 0044 FFF7FEBF 		b	vPortFree
 193              	.LVL19:
 194              		.cfi_endproc
 195              	.LFE70:
 196              		.size	TERM_destroyHandle, .-TERM_destroyHandle
 197              		.section	.text.isACIILetter,"ax",%progbits
 198              		.align	1
 199              		.global	isACIILetter
 200              		.thumb
 201              		.thumb_func
 202              		.type	isACIILetter, %function
 203              	isACIILetter:
 204              	.LFB73:
 263:..\common\tterm/TTerm.c ****     return (c > 64 && c < 91) || (c > 96 && c < 122) || c == '~';
 205              		.loc 1 263 0
 206              		.cfi_startproc
 207              		@ args = 0, pretend = 0, frame = 0
 208              		@ frame_needed = 0, uses_anonymous_args = 0
 209              		@ link register save eliminated.
 210              	.LVL20:
 264:..\common\tterm/TTerm.c **** }
 211              		.loc 1 264 0
 212 0000 A0F14103 		sub	r3, r0, #65
 213 0004 192B     		cmp	r3, #25
 214 0006 08D9     		bls	.L33
 264:..\common\tterm/TTerm.c **** }
 215              		.loc 1 264 0 is_stmt 0 discriminator 2
 216 0008 A0F16103 		sub	r3, r0, #97
 217 000c 182B     		cmp	r3, #24
 218 000e 04D9     		bls	.L33
 264:..\common\tterm/TTerm.c **** }
 219              		.loc 1 264 0 discriminator 4
 220 0010 A0F17E03 		sub	r3, r0, #126
 221 0014 5842     		rsbs	r0, r3, #0
 222              	.LVL21:
 223 0016 5841     		adcs	r0, r0, r3
 224 0018 7047     		bx	lr
 225              	.LVL22:
 226              	.L33:
 264:..\common\tterm/TTerm.c **** }
 227              		.loc 1 264 0
 228 001a 0120     		movs	r0, #1
 229              	.LVL23:
 265:..\common\tterm/TTerm.c **** 
 230              		.loc 1 265 0 is_stmt 1
 231 001c 7047     		bx	lr
 232              		.cfi_endproc
 233              	.LFE73:
 234              		.size	isACIILetter, .-isACIILetter
 235              		.section	.text.ptr_is_in_ram,"ax",%progbits
ARM GAS  C:\Users\chemi\AppData\Local\Temp\cc0tO343.s 			page 11


 236              		.align	1
 237              		.global	ptr_is_in_ram
 238              		.thumb
 239              		.thumb_func
 240              		.type	ptr_is_in_ram, %function
 241              	ptr_is_in_ram:
 242              	.LFB75:
 281:..\common\tterm/TTerm.c ****     if(ptr > (void*)START_OF_RAM && ptr < (void*)END_OF_RAM){
 243              		.loc 1 281 0
 244              		.cfi_startproc
 245              		@ args = 0, pretend = 0, frame = 0
 246              		@ frame_needed = 0, uses_anonymous_args = 0
 247              		@ link register save eliminated.
 248              	.LVL24:
 249 0000 044B     		ldr	r3, .L35
 250 0002 0344     		add	r3, r3, r0
 286:..\common\tterm/TTerm.c **** 
 251              		.loc 1 286 0
 252 0004 4FF6FD70 		movw	r0, #65533
 253              	.LVL25:
 254 0008 8342     		cmp	r3, r0
 255 000a 8CBF     		ite	hi
 256 000c 0020     		movhi	r0, #0
 257 000e 0120     		movls	r0, #1
 258 0010 7047     		bx	lr
 259              	.L36:
 260 0012 00BF     		.align	2
 261              	.L35:
 262 0014 FF7F00E0 		.word	-536838145
 263              		.cfi_endproc
 264              	.LFE75:
 265              		.size	ptr_is_in_ram, .-ptr_is_in_ram
 266              		.section	.text.ptr_is_in_flash,"ax",%progbits
 267              		.align	1
 268              		.global	ptr_is_in_flash
 269              		.thumb
 270              		.thumb_func
 271              		.type	ptr_is_in_flash, %function
 272              	ptr_is_in_flash:
 273              	.LFB76:
 288:..\common\tterm/TTerm.c ****     if(ptr > (void*)START_OF_FLASH && ptr < (void*)END_OF_FLASH){
 274              		.loc 1 288 0
 275              		.cfi_startproc
 276              		@ args = 0, pretend = 0, frame = 0
 277              		@ frame_needed = 0, uses_anonymous_args = 0
 278              		@ link register save eliminated.
 279              	.LVL26:
 293:..\common\tterm/TTerm.c **** 
 280              		.loc 1 293 0
 281 0000 034B     		ldr	r3, .L38
 282 0002 0138     		subs	r0, r0, #1
 283              	.LVL27:
 284 0004 9842     		cmp	r0, r3
 285 0006 8CBF     		ite	hi
 286 0008 0020     		movhi	r0, #0
 287              	.LVL28:
 288 000a 0120     		movls	r0, #1
ARM GAS  C:\Users\chemi\AppData\Local\Temp\cc0tO343.s 			page 12


 289 000c 7047     		bx	lr
 290              	.L39:
 291 000e 00BF     		.align	2
 292              	.L38:
 293 0010 FE7FFF1F 		.word	536838142
 294              		.cfi_endproc
 295              	.LFE76:
 296              		.size	ptr_is_in_flash, .-ptr_is_in_flash
 297              		.section	.text.TERM_checkForCopy,"ax",%progbits
 298              		.align	1
 299              		.global	TERM_checkForCopy
 300              		.thumb
 301              		.thumb_func
 302              		.type	TERM_checkForCopy, %function
 303              	TERM_checkForCopy:
 304              	.LFB79:
 311:..\common\tterm/TTerm.c **** 
 312:..\common\tterm/TTerm.c **** uint8_t TERM_handleInput(uint16_t c, TERMINAL_HANDLE * handle){
 313:..\common\tterm/TTerm.c ****     //ttprintfEcho("received 0x%04x\r\n", c);
 314:..\common\tterm/TTerm.c ****     if(handle->currProgram != NULL){
 315:..\common\tterm/TTerm.c ****         //call the handler of the current override
 316:..\common\tterm/TTerm.c ****         uint8_t currRetCode = (*handle->currProgram->inputHandler)(handle, c);
 317:..\common\tterm/TTerm.c ****         
 318:..\common\tterm/TTerm.c ****         (*handle->errorPrinter)(handle, currRetCode);
 319:..\common\tterm/TTerm.c ****         
 320:..\common\tterm/TTerm.c ****         return 1;
 321:..\common\tterm/TTerm.c ****     }
 322:..\common\tterm/TTerm.c ****     
 323:..\common\tterm/TTerm.c ****     switch(c){
 324:..\common\tterm/TTerm.c ****         case '\r':      //enter
 325:..\common\tterm/TTerm.c ****             TERM_checkForCopy(handle, TERM_CHECK_COMP_AND_HIST);
 326:..\common\tterm/TTerm.c ****             
 327:..\common\tterm/TTerm.c ****             if(handle->currBufferLength != 0){
 328:..\common\tterm/TTerm.c ****                 ttprintfEcho("\r\n", handle->inputBuffer);
 329:..\common\tterm/TTerm.c **** 
 330:..\common\tterm/TTerm.c ****                 if(handle->historyBuffer[handle->currHistoryWritePosition] != 0){
 331:..\common\tterm/TTerm.c ****                     vPortFree(handle->historyBuffer[handle->currHistoryWritePosition]);
 332:..\common\tterm/TTerm.c ****                     handle->historyBuffer[handle->currHistoryWritePosition] = 0;
 333:..\common\tterm/TTerm.c ****                 }
 334:..\common\tterm/TTerm.c **** 
 335:..\common\tterm/TTerm.c ****                 handle->historyBuffer[handle->currHistoryWritePosition] = pvPortMalloc(handle->curr
 336:..\common\tterm/TTerm.c ****                 memcpy(handle->historyBuffer[handle->currHistoryWritePosition], handle->inputBuffer
 337:..\common\tterm/TTerm.c ****                 
 338:..\common\tterm/TTerm.c ****                 if(++handle->currHistoryWritePosition >= TERM_HISTORYSIZE) handle->currHistoryWrite
 339:..\common\tterm/TTerm.c ****                 
 340:..\common\tterm/TTerm.c ****                 handle->currHistoryReadPosition = handle->currHistoryWritePosition;
 341:..\common\tterm/TTerm.c **** 
 342:..\common\tterm/TTerm.c ****                 uint8_t retCode = TERM_interpretCMD(handle->inputBuffer, handle->currBufferLength, 
 343:..\common\tterm/TTerm.c ****                 (*handle->errorPrinter)(handle, retCode);
 344:..\common\tterm/TTerm.c ****                 
 345:..\common\tterm/TTerm.c ****                 handle->currBufferPosition = 0;
 346:..\common\tterm/TTerm.c ****                 handle->currBufferLength = 0;
 347:..\common\tterm/TTerm.c ****                 handle->inputBuffer[handle->currBufferPosition] = 0;
 348:..\common\tterm/TTerm.c ****             }else{
 349:..\common\tterm/TTerm.c ****                 ttprintfEcho("\r\n%s@%s>", handle->currUserName, TERM_DEVICE_NAME);
 350:..\common\tterm/TTerm.c ****             }       
 351:..\common\tterm/TTerm.c ****             break;
ARM GAS  C:\Users\chemi\AppData\Local\Temp\cc0tO343.s 			page 13


 352:..\common\tterm/TTerm.c ****             
 353:..\common\tterm/TTerm.c ****         case 0x03:      //CTRL+c
 354:..\common\tterm/TTerm.c ****         	handle->currBufferPosition=0;
 355:..\common\tterm/TTerm.c ****         	handle->currBufferLength=0;
 356:..\common\tterm/TTerm.c ****         	handle->inputBuffer[0]=0;
 357:..\common\tterm/TTerm.c ****         	TERM_sendVT100Code(handle, _VT100_ERASE_LINE, 0);
 358:..\common\tterm/TTerm.c ****         	ttprintfEcho("\r%s@%s>", handle->currUserName, TERM_DEVICE_NAME);
 359:..\common\tterm/TTerm.c ****             break;
 360:..\common\tterm/TTerm.c ****         case 0x0a: 		//LF
 361:..\common\tterm/TTerm.c ****         case 0x08:      //backspace (used by xTerm)
 362:..\common\tterm/TTerm.c ****         case 0x7f:      //DEL       (used by hTerm)
 363:..\common\tterm/TTerm.c ****         case _VT100_KEY_DEL:
 364:..\common\tterm/TTerm.c ****             TERM_checkForCopy(handle, TERM_CHECK_COMP_AND_HIST);
 365:..\common\tterm/TTerm.c **** 
 366:..\common\tterm/TTerm.c ****             if(handle->currBufferPosition < handle->currBufferLength && c == _VT100_KEY_DEL){
 367:..\common\tterm/TTerm.c ****                 handle->currBufferPosition ++;
 368:..\common\tterm/TTerm.c ****                 TERM_sendVT100Code(handle, _VT100_CURSOR_FORWARD, 0);
 369:..\common\tterm/TTerm.c ****             }else if (c == _VT100_KEY_DEL) {
 370:..\common\tterm/TTerm.c ****                 break;
 371:..\common\tterm/TTerm.c ****             }
 372:..\common\tterm/TTerm.c **** 
 373:..\common\tterm/TTerm.c ****             if(handle->currBufferPosition == 0) break;
 374:..\common\tterm/TTerm.c **** 
 375:..\common\tterm/TTerm.c ****             if(handle->inputBuffer[handle->currBufferPosition] != 0){      //check if we are at the
 376:..\common\tterm/TTerm.c ****                 //we are somewhere in the middle -> move back existing characters
 377:..\common\tterm/TTerm.c ****                 strsft(handle->inputBuffer, handle->currBufferPosition - 1, -1);
 378:..\common\tterm/TTerm.c ****                 ttprintfEcho("\x08");   
 379:..\common\tterm/TTerm.c ****                 TERM_sendVT100Code(handle, _VT100_ERASE_LINE_END, 0);
 380:..\common\tterm/TTerm.c ****                 ttprintfEcho("%s", &handle->inputBuffer[handle->currBufferPosition - 1]);
 381:..\common\tterm/TTerm.c ****                 TERM_sendVT100Code(handle, _VT100_CURSOR_BACK_BY, handle->currBufferLength - handle
 382:..\common\tterm/TTerm.c ****                 handle->currBufferPosition --;
 383:..\common\tterm/TTerm.c ****                 handle->currBufferLength --;
 384:..\common\tterm/TTerm.c ****             }else{
 385:..\common\tterm/TTerm.c ****                 //we are somewhere at the end -> just delete the current one
 386:..\common\tterm/TTerm.c ****                 handle->inputBuffer[--handle->currBufferPosition] = 0;
 387:..\common\tterm/TTerm.c ****                 ttprintfEcho("\x08 \x08");           
 388:..\common\tterm/TTerm.c ****                 handle->currBufferLength --;
 389:..\common\tterm/TTerm.c ****             }
 390:..\common\tterm/TTerm.c ****             break;
 391:..\common\tterm/TTerm.c ****             
 392:..\common\tterm/TTerm.c ****         case _VT100_KEY_END:
 393:..\common\tterm/TTerm.c ****         	TERM_checkForCopy(handle, TERM_CHECK_COMP_AND_HIST); //is the user browsing the history ri
 394:..\common\tterm/TTerm.c **** 
 395:..\common\tterm/TTerm.c **** 			if(handle->currBufferLength > handle->currBufferPosition){
 396:..\common\tterm/TTerm.c **** 				//move the cursor to the right position
 397:..\common\tterm/TTerm.c **** 				TERM_sendVT100Code(handle, _VT100_CURSOR_FORWARD_BY, handle->currBufferLength - handle->currBuf
 398:..\common\tterm/TTerm.c **** 				handle->currBufferPosition = handle->currBufferLength;
 399:..\common\tterm/TTerm.c **** 			}
 400:..\common\tterm/TTerm.c ****             break;
 401:..\common\tterm/TTerm.c ****             
 402:..\common\tterm/TTerm.c ****         case _VT100_KEY_POS1:
 403:..\common\tterm/TTerm.c ****         	TERM_checkForCopy(handle, TERM_CHECK_COMP_AND_HIST); //is the user browsing the history ri
 404:..\common\tterm/TTerm.c **** 
 405:..\common\tterm/TTerm.c **** 			if(handle->currBufferPosition > 0){
 406:..\common\tterm/TTerm.c **** 				//move the cursor to the right position
 407:..\common\tterm/TTerm.c **** 				TERM_sendVT100Code(handle, _VT100_CURSOR_BACK_BY, handle->currBufferPosition);
 408:..\common\tterm/TTerm.c **** 				handle->currBufferPosition = 0;
ARM GAS  C:\Users\chemi\AppData\Local\Temp\cc0tO343.s 			page 14


 409:..\common\tterm/TTerm.c **** 			}
 410:..\common\tterm/TTerm.c ****             break;
 411:..\common\tterm/TTerm.c ****             
 412:..\common\tterm/TTerm.c ****         case _VT100_CURSOR_FORWARD:
 413:..\common\tterm/TTerm.c ****             TERM_checkForCopy(handle, TERM_CHECK_COMP_AND_HIST);
 414:..\common\tterm/TTerm.c ****             
 415:..\common\tterm/TTerm.c ****             if(handle->currBufferPosition < handle->currBufferLength){
 416:..\common\tterm/TTerm.c ****                 handle->currBufferPosition ++;
 417:..\common\tterm/TTerm.c ****                 TERM_sendVT100Code(handle, _VT100_CURSOR_FORWARD, 0);
 418:..\common\tterm/TTerm.c ****             }
 419:..\common\tterm/TTerm.c ****             break;
 420:..\common\tterm/TTerm.c ****             
 421:..\common\tterm/TTerm.c ****         case _VT100_CURSOR_BACK:
 422:..\common\tterm/TTerm.c ****             TERM_checkForCopy(handle, TERM_CHECK_COMP_AND_HIST);
 423:..\common\tterm/TTerm.c ****             
 424:..\common\tterm/TTerm.c ****             if(handle->currBufferPosition > 0){
 425:..\common\tterm/TTerm.c ****                 handle->currBufferPosition --;
 426:..\common\tterm/TTerm.c ****                 TERM_sendVT100Code(handle, _VT100_CURSOR_BACK, 0);
 427:..\common\tterm/TTerm.c ****             }
 428:..\common\tterm/TTerm.c ****             break;
 429:..\common\tterm/TTerm.c ****             
 430:..\common\tterm/TTerm.c ****         case _VT100_CURSOR_UP:
 431:..\common\tterm/TTerm.c ****             TERM_checkForCopy(handle, TERM_CHECK_COMP);
 432:..\common\tterm/TTerm.c ****             
 433:..\common\tterm/TTerm.c ****             do{
 434:..\common\tterm/TTerm.c ****                 if(--handle->currHistoryReadPosition >= TERM_HISTORYSIZE) handle->currHistoryReadPo
 435:..\common\tterm/TTerm.c ****                 
 436:..\common\tterm/TTerm.c ****                 if(handle->historyBuffer[handle->currHistoryReadPosition] != 0){
 437:..\common\tterm/TTerm.c ****                     break;
 438:..\common\tterm/TTerm.c ****                 }
 439:..\common\tterm/TTerm.c ****             }while(handle->currHistoryReadPosition != handle->currHistoryWritePosition);
 440:..\common\tterm/TTerm.c ****             
 441:..\common\tterm/TTerm.c ****             //print out the command at the current history read position
 442:..\common\tterm/TTerm.c ****             if(handle->currHistoryReadPosition == handle->currHistoryWritePosition){
 443:..\common\tterm/TTerm.c ****                 ttprintfEcho("\x07");   //rings a bell doesn't it?                                 
 444:..\common\tterm/TTerm.c ****                 TERM_sendVT100Code(handle, _VT100_ERASE_LINE, 0);
 445:..\common\tterm/TTerm.c ****                 ttprintfEcho("\r%s@%s>%s", handle->currUserName, TERM_DEVICE_NAME, handle->inputBuf
 446:..\common\tterm/TTerm.c ****             }else{
 447:..\common\tterm/TTerm.c ****                 TERM_sendVT100Code(handle, _VT100_ERASE_LINE, 0);
 448:..\common\tterm/TTerm.c ****                 ttprintfEcho("\r%s@%s>%s", handle->currUserName, TERM_DEVICE_NAME, handle->historyB
 449:..\common\tterm/TTerm.c ****             }
 450:..\common\tterm/TTerm.c ****             break;
 451:..\common\tterm/TTerm.c ****             
 452:..\common\tterm/TTerm.c ****         case _VT100_CURSOR_DOWN:
 453:..\common\tterm/TTerm.c ****             TERM_checkForCopy(handle, TERM_CHECK_COMP);
 454:..\common\tterm/TTerm.c ****             
 455:..\common\tterm/TTerm.c ****             while(handle->currHistoryReadPosition != handle->currHistoryWritePosition){
 456:..\common\tterm/TTerm.c ****                 if(++handle->currHistoryReadPosition >= TERM_HISTORYSIZE) handle->currHistoryReadPo
 457:..\common\tterm/TTerm.c ****                 
 458:..\common\tterm/TTerm.c ****                 if(handle->historyBuffer[handle->currHistoryReadPosition] != 0){
 459:..\common\tterm/TTerm.c ****                     break;
 460:..\common\tterm/TTerm.c ****                 }
 461:..\common\tterm/TTerm.c ****             }
 462:..\common\tterm/TTerm.c ****             
 463:..\common\tterm/TTerm.c ****             //print out the command at the current history read position
 464:..\common\tterm/TTerm.c ****             if(handle->currHistoryReadPosition == handle->currHistoryWritePosition){
 465:..\common\tterm/TTerm.c ****                 ttprintfEcho("\x07");   //rings a bell doesn't it?                                 
ARM GAS  C:\Users\chemi\AppData\Local\Temp\cc0tO343.s 			page 15


 466:..\common\tterm/TTerm.c ****                 TERM_sendVT100Code(handle, _VT100_ERASE_LINE, 0);
 467:..\common\tterm/TTerm.c ****                 ttprintfEcho("\r%s@%s>%s", handle->currUserName, TERM_DEVICE_NAME, handle->inputBuf
 468:..\common\tterm/TTerm.c ****             }else{
 469:..\common\tterm/TTerm.c ****                 TERM_sendVT100Code(handle, _VT100_ERASE_LINE, 0);
 470:..\common\tterm/TTerm.c ****                 ttprintfEcho("\r%s@%s>%s", handle->currUserName, TERM_DEVICE_NAME, handle->historyB
 471:..\common\tterm/TTerm.c ****             }
 472:..\common\tterm/TTerm.c ****             break;
 473:..\common\tterm/TTerm.c ****             
 474:..\common\tterm/TTerm.c ****         case '\t':      //tab
 475:..\common\tterm/TTerm.c ****             TERM_checkForCopy(handle, TERM_CHECK_HIST);
 476:..\common\tterm/TTerm.c ****             
 477:..\common\tterm/TTerm.c ****             if(handle->autocompleteBuffer == NULL){ 
 478:..\common\tterm/TTerm.c ****                 TERM_doAutoComplete(handle);
 479:..\common\tterm/TTerm.c ****             }
 480:..\common\tterm/TTerm.c ****             
 481:..\common\tterm/TTerm.c ****             if(++handle->currAutocompleteCount > handle->autocompleteBufferLength) handle->currAuto
 482:..\common\tterm/TTerm.c ****             
 483:..\common\tterm/TTerm.c ****             if(handle->currAutocompleteCount == 0){
 484:..\common\tterm/TTerm.c ****                 ttprintfEcho("\x07");
 485:..\common\tterm/TTerm.c ****                 TERM_sendVT100Code(handle, _VT100_ERASE_LINE, 0);
 486:..\common\tterm/TTerm.c ****                 ttprintfEcho("\r%s@%s>%s", handle->currUserName, TERM_DEVICE_NAME, handle->inputBuf
 487:..\common\tterm/TTerm.c ****             }else{
 488:..\common\tterm/TTerm.c ****                 TERM_sendVT100Code(handle, _VT100_ERASE_LINE, 0);
 489:..\common\tterm/TTerm.c ****                 unsigned printQuotationMarks = strchr(handle->autocompleteBuffer[handle->currAutoco
 490:..\common\tterm/TTerm.c ****                 
 491:..\common\tterm/TTerm.c ****                 //workaround for inconsistent printf behaviour when using %.*s with length 0
 492:..\common\tterm/TTerm.c ****                 if(handle->autocompleteStart == 0){
 493:..\common\tterm/TTerm.c ****                     ttprintfEcho(printQuotationMarks ? "\r%s@%s>\"%s\"" : "\r%s@%s>%s", handle->cur
 494:..\common\tterm/TTerm.c ****                 }else{
 495:..\common\tterm/TTerm.c ****                     ttprintfEcho(printQuotationMarks ? "\r%s@%s>%.*s\"%s\"" : "\r%s@%s>%.*s%s", han
 496:..\common\tterm/TTerm.c ****                 }
 497:..\common\tterm/TTerm.c ****             }
 498:..\common\tterm/TTerm.c ****             break;
 499:..\common\tterm/TTerm.c ****             
 500:..\common\tterm/TTerm.c ****         case _VT100_BACKWARDS_TAB:
 501:..\common\tterm/TTerm.c ****             TERM_checkForCopy(handle, TERM_CHECK_HIST);
 502:..\common\tterm/TTerm.c ****             
 503:..\common\tterm/TTerm.c ****             if(handle->autocompleteBuffer == NULL){ 
 504:..\common\tterm/TTerm.c ****                 TERM_doAutoComplete(handle);
 505:..\common\tterm/TTerm.c ****             }
 506:..\common\tterm/TTerm.c ****             
 507:..\common\tterm/TTerm.c ****             if(--handle->currAutocompleteCount > handle->autocompleteBufferLength - 1) handle->curr
 508:..\common\tterm/TTerm.c ****             
 509:..\common\tterm/TTerm.c ****             if(handle->currAutocompleteCount == 0){
 510:..\common\tterm/TTerm.c ****                 ttprintfEcho("\x07");
 511:..\common\tterm/TTerm.c ****                 TERM_sendVT100Code(handle, _VT100_ERASE_LINE, 0);
 512:..\common\tterm/TTerm.c ****                 ttprintfEcho("\r%s@%s>%s", handle->currUserName, TERM_DEVICE_NAME, handle->inputBuf
 513:..\common\tterm/TTerm.c ****             }else{
 514:..\common\tterm/TTerm.c ****                 TERM_sendVT100Code(handle, _VT100_ERASE_LINE, 0);
 515:..\common\tterm/TTerm.c ****                 unsigned printQuotationMarks = strchr(handle->autocompleteBuffer[handle->currAutoco
 516:..\common\tterm/TTerm.c ****                 ttprintfEcho(printQuotationMarks ? "\r%s@%s>%.*s\"%s\"" : "\r%s@%s>%.*s%s", handle-
 517:..\common\tterm/TTerm.c ****             }
 518:..\common\tterm/TTerm.c ****             break;
 519:..\common\tterm/TTerm.c ****             
 520:..\common\tterm/TTerm.c ****         case _VT100_RESET:
 521:..\common\tterm/TTerm.c ****             TERM_printBootMessage(handle);
 522:..\common\tterm/TTerm.c ****             break;
ARM GAS  C:\Users\chemi\AppData\Local\Temp\cc0tO343.s 			page 16


 523:..\common\tterm/TTerm.c ****            
 524:..\common\tterm/TTerm.c ****         case 32 ... 126:
 525:..\common\tterm/TTerm.c ****             TERM_checkForCopy(handle, TERM_CHECK_COMP_AND_HIST);
 526:..\common\tterm/TTerm.c **** 
 527:..\common\tterm/TTerm.c **** 			//TODO check for string length overflow
 528:..\common\tterm/TTerm.c **** 
 529:..\common\tterm/TTerm.c **** 			if(handle->inputBuffer[handle->currBufferPosition] != 0 && handle->currBufferLength < TERM_INPUT
 530:..\common\tterm/TTerm.c **** 				strsft(handle->inputBuffer, handle->currBufferPosition, 1);
 531:..\common\tterm/TTerm.c **** 				handle->inputBuffer[handle->currBufferPosition] = c;
 532:..\common\tterm/TTerm.c **** 				TERM_sendVT100Code(handle, _VT100_ERASE_LINE_END, 0);
 533:..\common\tterm/TTerm.c **** 				ttprintfEcho("%s", &handle->inputBuffer[handle->currBufferPosition]);
 534:..\common\tterm/TTerm.c **** 				TERM_sendVT100Code(handle, _VT100_CURSOR_BACK_BY, handle->currBufferLength - handle->currBuffer
 535:..\common\tterm/TTerm.c **** 				handle->currBufferLength ++;
 536:..\common\tterm/TTerm.c **** 				handle->currBufferPosition ++;
 537:..\common\tterm/TTerm.c **** 			}else{
 538:..\common\tterm/TTerm.c **** 
 539:..\common\tterm/TTerm.c **** 				//we are at the end -> just delete the current one
 540:..\common\tterm/TTerm.c **** 				handle->inputBuffer[handle->currBufferPosition++] = c;
 541:..\common\tterm/TTerm.c **** 				handle->inputBuffer[handle->currBufferPosition] = 0;
 542:..\common\tterm/TTerm.c **** 				handle->currBufferLength ++;
 543:..\common\tterm/TTerm.c **** 				if(handle->currBufferPosition < TERM_INPUTBUFFER_SIZE -1){
 544:..\common\tterm/TTerm.c **** 					ttprintfEcho("%c", c);
 545:..\common\tterm/TTerm.c **** 				}
 546:..\common\tterm/TTerm.c **** 			}
 547:..\common\tterm/TTerm.c **** 
 548:..\common\tterm/TTerm.c **** 
 549:..\common\tterm/TTerm.c **** 			if(handle->currBufferPosition > TERM_INPUTBUFFER_SIZE -2){
 550:..\common\tterm/TTerm.c **** 				handle->currBufferPosition = TERM_INPUTBUFFER_SIZE -2;
 551:..\common\tterm/TTerm.c **** 			}
 552:..\common\tterm/TTerm.c **** 			if(handle->currBufferLength > TERM_INPUTBUFFER_SIZE -2){
 553:..\common\tterm/TTerm.c **** 				handle->currBufferLength = TERM_INPUTBUFFER_SIZE -2;
 554:..\common\tterm/TTerm.c **** 			}
 555:..\common\tterm/TTerm.c **** 
 556:..\common\tterm/TTerm.c ****             break;
 557:..\common\tterm/TTerm.c ****             
 558:..\common\tterm/TTerm.c ****         default:
 559:..\common\tterm/TTerm.c ****             TERM_printDebug(handle, "unknown code received: 0x%02x\r\n", c);
 560:..\common\tterm/TTerm.c ****             break;
 561:..\common\tterm/TTerm.c ****     }
 562:..\common\tterm/TTerm.c ****     return 1;
 563:..\common\tterm/TTerm.c **** }
 564:..\common\tterm/TTerm.c **** 
 565:..\common\tterm/TTerm.c **** void TERM_checkForCopy(TERMINAL_HANDLE * handle, COPYCHECK_MODE mode){
 305              		.loc 1 565 0
 306              		.cfi_startproc
 307              		@ args = 0, pretend = 0, frame = 0
 308              		@ frame_needed = 0, uses_anonymous_args = 0
 309              	.LVL29:
 566:..\common\tterm/TTerm.c ****     if((mode & TERM_CHECK_COMP) && handle->autocompleteBuffer != NULL){ 
 310              		.loc 1 566 0
 311 0000 CA07     		lsls	r2, r1, #31
 565:..\common\tterm/TTerm.c ****     if((mode & TERM_CHECK_COMP) && handle->autocompleteBuffer != NULL){ 
 312              		.loc 1 565 0
 313 0002 F8B5     		push	{r3, r4, r5, r6, r7, lr}
 314              		.cfi_def_cfa_offset 24
 315              		.cfi_offset 3, -24
 316              		.cfi_offset 4, -20
ARM GAS  C:\Users\chemi\AppData\Local\Temp\cc0tO343.s 			page 17


 317              		.cfi_offset 5, -16
 318              		.cfi_offset 6, -12
 319              		.cfi_offset 7, -8
 320              		.cfi_offset 14, -4
 565:..\common\tterm/TTerm.c ****     if((mode & TERM_CHECK_COMP) && handle->autocompleteBuffer != NULL){ 
 321              		.loc 1 565 0
 322 0004 0446     		mov	r4, r0
 323 0006 0F46     		mov	r7, r1
 324              		.loc 1 566 0
 325 0008 27D5     		bpl	.L41
 326              		.loc 1 566 0 is_stmt 0 discriminator 1
 327 000a 8169     		ldr	r1, [r0, #24]
 328              	.LVL30:
 329 000c 29B3     		cbz	r1, .L41
 567:..\common\tterm/TTerm.c ****         
 568:..\common\tterm/TTerm.c ****         if(handle->currAutocompleteCount != 0){
 330              		.loc 1 568 0 is_stmt 1
 331 000e 0369     		ldr	r3, [r0, #16]
 332 0010 F3B1     		cbz	r3, .L42
 333              	.LBB30:
 569:..\common\tterm/TTerm.c ****             char * dst = handle->inputBuffer + handle->autocompleteStart;
 570:..\common\tterm/TTerm.c **** 
 571:..\common\tterm/TTerm.c ****             if(strchr(handle->autocompleteBuffer[handle->currAutocompleteCount - 1], ' ') != 0){
 334              		.loc 1 571 0
 335 0012 03F18043 		add	r3, r3, #1073741824
 336 0016 013B     		subs	r3, r3, #1
 337 0018 51F82360 		ldr	r6, [r1, r3, lsl #2]
 569:..\common\tterm/TTerm.c ****             char * dst = handle->inputBuffer + handle->autocompleteStart;
 338              		.loc 1 569 0
 339 001c 0568     		ldr	r5, [r0]
 340 001e 026A     		ldr	r2, [r0, #32]
 341              		.loc 1 571 0
 342 0020 2021     		movs	r1, #32
 343 0022 3046     		mov	r0, r6
 344              	.LVL31:
 569:..\common\tterm/TTerm.c ****             char * dst = handle->inputBuffer + handle->autocompleteStart;
 345              		.loc 1 569 0
 346 0024 1544     		add	r5, r5, r2
 347              	.LVL32:
 348              		.loc 1 571 0
 349 0026 FFF7FEFF 		bl	strchr
 350              	.LVL33:
 351 002a 28B1     		cbz	r0, .L43
 572:..\common\tterm/TTerm.c ****                 sprintf(dst, "\"%s\"", handle->autocompleteBuffer[handle->currAutocompleteCount - 1
 352              		.loc 1 572 0
 353 002c 3246     		mov	r2, r6
 354 002e 1549     		ldr	r1, .L58
 355 0030 2846     		mov	r0, r5
 356 0032 FFF7FEFF 		bl	sprintf
 357              	.LVL34:
 358 0036 03E0     		b	.L44
 359              	.L43:
 573:..\common\tterm/TTerm.c ****             }else{
 574:..\common\tterm/TTerm.c ****                 strcpy(dst, handle->autocompleteBuffer[handle->currAutocompleteCount - 1]);
 360              		.loc 1 574 0
 361 0038 3146     		mov	r1, r6
 362 003a 2846     		mov	r0, r5
ARM GAS  C:\Users\chemi\AppData\Local\Temp\cc0tO343.s 			page 18


 363 003c FFF7FEFF 		bl	strcpy
 364              	.LVL35:
 365              	.L44:
 575:..\common\tterm/TTerm.c ****             }
 576:..\common\tterm/TTerm.c ****             handle->currBufferLength = strlen(handle->inputBuffer);
 366              		.loc 1 576 0
 367 0040 2568     		ldr	r5, [r4]
 368              	.LVL36:
 369 0042 2846     		mov	r0, r5
 370 0044 FFF7FEFF 		bl	strlen
 371              	.LVL37:
 577:..\common\tterm/TTerm.c ****             handle->currBufferPosition = handle->currBufferLength;
 578:..\common\tterm/TTerm.c ****             handle->inputBuffer[handle->currBufferPosition] = 0;
 372              		.loc 1 578 0
 373 0048 0023     		movs	r3, #0
 576:..\common\tterm/TTerm.c ****             handle->currBufferPosition = handle->currBufferLength;
 374              		.loc 1 576 0
 375 004a E060     		str	r0, [r4, #12]
 577:..\common\tterm/TTerm.c ****             handle->currBufferPosition = handle->currBufferLength;
 376              		.loc 1 577 0
 377 004c A060     		str	r0, [r4, #8]
 378              		.loc 1 578 0
 379 004e 2B54     		strb	r3, [r5, r0]
 380              	.L42:
 381              	.LBE30:
 579:..\common\tterm/TTerm.c ****         }
 580:..\common\tterm/TTerm.c ****         vPortFree(handle->autocompleteBuffer);
 382              		.loc 1 580 0
 383 0050 A069     		ldr	r0, [r4, #24]
 384 0052 FFF7FEFF 		bl	vPortFree
 385              	.LVL38:
 581:..\common\tterm/TTerm.c ****         handle->autocompleteBuffer = NULL;
 386              		.loc 1 581 0
 387 0056 0023     		movs	r3, #0
 388 0058 A361     		str	r3, [r4, #24]
 389              	.L41:
 582:..\common\tterm/TTerm.c ****     }
 583:..\common\tterm/TTerm.c ****     
 584:..\common\tterm/TTerm.c ****     if((mode & TERM_CHECK_HIST) && handle->currHistoryWritePosition != handle->currHistoryReadPosit
 390              		.loc 1 584 0
 391 005a BB07     		lsls	r3, r7, #30
 392 005c 10D5     		bpl	.L40
 393              		.loc 1 584 0 is_stmt 0 discriminator 1
 394 005e 236F     		ldr	r3, [r4, #112]
 395 0060 E26E     		ldr	r2, [r4, #108]
 396 0062 9A42     		cmp	r2, r3
 397 0064 0CD0     		beq	.L40
 585:..\common\tterm/TTerm.c ****         strcpy(handle->inputBuffer, handle->historyBuffer[handle->currHistoryReadPosition]);
 398              		.loc 1 585 0 is_stmt 1
 399 0066 04EB8303 		add	r3, r4, r3, lsl #2
 400 006a D96A     		ldr	r1, [r3, #44]
 401 006c 2068     		ldr	r0, [r4]
 402 006e FFF7FEFF 		bl	strcpy
 403              	.LVL39:
 586:..\common\tterm/TTerm.c ****         handle->currBufferLength = strlen(handle->inputBuffer);
 404              		.loc 1 586 0
 405 0072 2068     		ldr	r0, [r4]
ARM GAS  C:\Users\chemi\AppData\Local\Temp\cc0tO343.s 			page 19


 406 0074 FFF7FEFF 		bl	strlen
 407              	.LVL40:
 587:..\common\tterm/TTerm.c ****         handle->currBufferPosition = handle->currBufferLength;
 588:..\common\tterm/TTerm.c ****         handle->currHistoryReadPosition = handle->currHistoryWritePosition;
 408              		.loc 1 588 0
 409 0078 E36E     		ldr	r3, [r4, #108]
 586:..\common\tterm/TTerm.c ****         handle->currBufferLength = strlen(handle->inputBuffer);
 410              		.loc 1 586 0
 411 007a E060     		str	r0, [r4, #12]
 587:..\common\tterm/TTerm.c ****         handle->currBufferPosition = handle->currBufferLength;
 412              		.loc 1 587 0
 413 007c A060     		str	r0, [r4, #8]
 414              		.loc 1 588 0
 415 007e 2367     		str	r3, [r4, #112]
 416              	.L40:
 417 0080 F8BD     		pop	{r3, r4, r5, r6, r7, pc}
 418              	.LVL41:
 419              	.L59:
 420 0082 00BF     		.align	2
 421              	.L58:
 422 0084 89000000 		.word	.LC4
 423              		.cfi_endproc
 424              	.LFE79:
 425              		.size	TERM_checkForCopy, .-TERM_checkForCopy
 426              		.section	.text.strnchr,"ax",%progbits
 427              		.align	1
 428              		.global	strnchr
 429              		.thumb
 430              		.thumb_func
 431              		.type	strnchr, %function
 432              	strnchr:
 433              	.LFB80:
 589:..\common\tterm/TTerm.c ****     }
 590:..\common\tterm/TTerm.c **** }
 591:..\common\tterm/TTerm.c **** 
 592:..\common\tterm/TTerm.c **** char * strnchr(char * str, char c, uint32_t length){
 434              		.loc 1 592 0
 435              		.cfi_startproc
 436              		@ args = 0, pretend = 0, frame = 0
 437              		@ frame_needed = 0, uses_anonymous_args = 0
 438              	.LVL42:
 439 0000 10B5     		push	{r4, lr}
 440              		.cfi_def_cfa_offset 8
 441              		.cfi_offset 4, -8
 442              		.cfi_offset 14, -4
 443 0002 0244     		add	r2, r2, r0
 444              	.LVL43:
 445              	.L61:
 593:..\common\tterm/TTerm.c ****     uint32_t currPos = 0;
 594:..\common\tterm/TTerm.c ****     for(;currPos < length && str[currPos] != 0; currPos++){
 446              		.loc 1 594 0 discriminator 1
 447 0004 9042     		cmp	r0, r2
 448 0006 08D0     		beq	.L64
 449              		.loc 1 594 0 is_stmt 0 discriminator 2
 450 0008 0478     		ldrb	r4, [r0]	@ zero_extendqisi2
 451 000a 0346     		mov	r3, r0
 452 000c 0130     		adds	r0, r0, #1
ARM GAS  C:\Users\chemi\AppData\Local\Temp\cc0tO343.s 			page 20


 453              	.LVL44:
 454 000e 14B1     		cbz	r4, .L66
 595:..\common\tterm/TTerm.c ****         if(str[currPos] == c) return &str[currPos];
 455              		.loc 1 595 0 is_stmt 1
 456 0010 8C42     		cmp	r4, r1
 457 0012 F7D1     		bne	.L61
 458 0014 02E0     		b	.L62
 459              	.L66:
 596:..\common\tterm/TTerm.c ****     }
 597:..\common\tterm/TTerm.c ****     return NULL;
 460              		.loc 1 597 0
 461 0016 2346     		mov	r3, r4
 462              	.LVL45:
 463 0018 00E0     		b	.L62
 464              	.LVL46:
 465              	.L64:
 466 001a 0023     		movs	r3, #0
 467              	.LVL47:
 468              	.L62:
 598:..\common\tterm/TTerm.c **** }
 469              		.loc 1 598 0
 470 001c 1846     		mov	r0, r3
 471 001e 10BD     		pop	{r4, pc}
 472              		.cfi_endproc
 473              	.LFE80:
 474              		.size	strnchr, .-strnchr
 475              		.section	.text.strsft,"ax",%progbits
 476              		.align	1
 477              		.global	strsft
 478              		.thumb
 479              		.thumb_func
 480              		.type	strsft, %function
 481              	strsft:
 482              	.LFB81:
 599:..\common\tterm/TTerm.c **** 
 600:..\common\tterm/TTerm.c **** void strsft(char * src, int32_t startByte, int32_t offset){
 483              		.loc 1 600 0
 484              		.cfi_startproc
 485              		@ args = 0, pretend = 0, frame = 0
 486              		@ frame_needed = 0, uses_anonymous_args = 0
 487              	.LVL48:
 488 0000 70B5     		push	{r4, r5, r6, lr}
 489              		.cfi_def_cfa_offset 16
 490              		.cfi_offset 4, -16
 491              		.cfi_offset 5, -12
 492              		.cfi_offset 6, -8
 493              		.cfi_offset 14, -4
 601:..\common\tterm/TTerm.c ****     if(offset == 0) return;
 494              		.loc 1 601 0
 495 0002 151E     		subs	r5, r2, #0
 600:..\common\tterm/TTerm.c ****     if(offset == 0) return;
 496              		.loc 1 600 0
 497 0004 0446     		mov	r4, r0
 498 0006 0E46     		mov	r6, r1
 499              		.loc 1 601 0
 500 0008 1BD0     		beq	.L67
 602:..\common\tterm/TTerm.c ****     
ARM GAS  C:\Users\chemi\AppData\Local\Temp\cc0tO343.s 			page 21


 603:..\common\tterm/TTerm.c ****     if(offset > 0){     //shift forward
 501              		.loc 1 603 0
 502 000a 11DD     		ble	.L70
 503              	.LBB36:
 604:..\common\tterm/TTerm.c ****         uint32_t currPos = strlen(src) + offset;
 504              		.loc 1 604 0
 505 000c FFF7FEFF 		bl	strlen
 506              	.LVL49:
 605:..\common\tterm/TTerm.c ****         src[currPos--] = 0;
 507              		.loc 1 605 0
 508 0010 0022     		movs	r2, #0
 604:..\common\tterm/TTerm.c ****         uint32_t currPos = strlen(src) + offset;
 509              		.loc 1 604 0
 510 0012 2844     		add	r0, r0, r5
 511              	.LVL50:
 512              		.loc 1 605 0
 513 0014 431E     		subs	r3, r0, #1
 514              	.LVL51:
 515 0016 2254     		strb	r2, [r4, r0]
 606:..\common\tterm/TTerm.c ****         for(; currPos >= startByte; currPos--){
 607:..\common\tterm/TTerm.c ****             if(currPos == 0){
 608:..\common\tterm/TTerm.c ****                 src[currPos] = ' ';
 609:..\common\tterm/TTerm.c ****                 break;
 610:..\common\tterm/TTerm.c ****             }
 611:..\common\tterm/TTerm.c ****             src[currPos] = src[currPos - offset];
 516              		.loc 1 611 0
 517 0018 651B     		subs	r5, r4, r5
 518              	.LVL52:
 519              	.L71:
 606:..\common\tterm/TTerm.c ****         for(; currPos >= startByte; currPos--){
 520              		.loc 1 606 0 discriminator 1
 521 001a B342     		cmp	r3, r6
 522 001c 07D3     		bcc	.L77
 607:..\common\tterm/TTerm.c ****                 src[currPos] = ' ';
 523              		.loc 1 607 0
 524 001e 13B9     		cbnz	r3, .L72
 608:..\common\tterm/TTerm.c ****                 break;
 525              		.loc 1 608 0
 526 0020 2023     		movs	r3, #32
 527              	.LVL53:
 528 0022 2370     		strb	r3, [r4]
 609:..\common\tterm/TTerm.c ****             }
 529              		.loc 1 609 0
 530 0024 70BD     		pop	{r4, r5, r6, pc}
 531              	.LVL54:
 532              	.L72:
 533              		.loc 1 611 0
 534 0026 EA5C     		ldrb	r2, [r5, r3]	@ zero_extendqisi2
 535 0028 E254     		strb	r2, [r4, r3]
 606:..\common\tterm/TTerm.c ****             if(currPos == 0){
 536              		.loc 1 606 0
 537 002a 013B     		subs	r3, r3, #1
 538              	.LVL55:
 539 002c F5E7     		b	.L71
 540              	.L77:
 541 002e 70BD     		pop	{r4, r5, r6, pc}
 542              	.LVL56:
ARM GAS  C:\Users\chemi\AppData\Local\Temp\cc0tO343.s 			page 22


 543              	.L70:
 544 0030 4118     		adds	r1, r0, r1
 545              	.LVL57:
 546              	.LBE36:
 547              	.LBB37:
 548              	.LBB38:
 612:..\common\tterm/TTerm.c ****         }
 613:..\common\tterm/TTerm.c ****         return;
 614:..\common\tterm/TTerm.c ****     }else{              //shift backward
 615:..\common\tterm/TTerm.c ****         uint32_t currPos = startByte;
 616:..\common\tterm/TTerm.c ****         for(; src[currPos - offset] != 0; currPos++){
 549              		.loc 1 616 0
 550 0032 6D42     		negs	r5, r5
 551              	.LVL58:
 552              	.L75:
 553 0034 4B5D     		ldrb	r3, [r1, r5]	@ zero_extendqisi2
 554 0036 0A1B     		subs	r2, r1, r4
 555              	.LVL59:
 556 0038 13B1     		cbz	r3, .L78
 617:..\common\tterm/TTerm.c ****             src[currPos] = src[currPos - offset];
 557              		.loc 1 617 0
 558 003a 01F8013B 		strb	r3, [r1], #1
 559              	.LVL60:
 560 003e F9E7     		b	.L75
 561              	.LVL61:
 562              	.L78:
 618:..\common\tterm/TTerm.c ****         }
 619:..\common\tterm/TTerm.c ****         src[currPos] = src[currPos - offset];
 563              		.loc 1 619 0
 564 0040 A354     		strb	r3, [r4, r2]
 565              	.LVL62:
 566              	.L67:
 567 0042 70BD     		pop	{r4, r5, r6, pc}
 568              	.LBE38:
 569              	.LBE37:
 570              		.cfi_endproc
 571              	.LFE81:
 572              		.size	strsft, .-strsft
 573              		.section	.text.TERM_findCMD,"ax",%progbits
 574              		.align	1
 575              		.global	TERM_findCMD
 576              		.thumb
 577              		.thumb_func
 578              		.type	TERM_findCMD, %function
 579              	TERM_findCMD:
 580              	.LFB82:
 620:..\common\tterm/TTerm.c ****         return;
 621:..\common\tterm/TTerm.c ****     }
 622:..\common\tterm/TTerm.c **** }
 623:..\common\tterm/TTerm.c **** 
 624:..\common\tterm/TTerm.c **** TermCommandDescriptor * TERM_findCMD(TERMINAL_HANDLE * handle){
 581              		.loc 1 624 0
 582              		.cfi_startproc
 583              		@ args = 0, pretend = 0, frame = 0
 584              		@ frame_needed = 0, uses_anonymous_args = 0
 585              	.LVL63:
 586 0000 2DE9F041 		push	{r4, r5, r6, r7, r8, lr}
ARM GAS  C:\Users\chemi\AppData\Local\Temp\cc0tO343.s 			page 23


 587              		.cfi_def_cfa_offset 24
 588              		.cfi_offset 4, -24
 589              		.cfi_offset 5, -20
 590              		.cfi_offset 6, -16
 591              		.cfi_offset 7, -12
 592              		.cfi_offset 8, -8
 593              		.cfi_offset 14, -4
 625:..\common\tterm/TTerm.c ****     uint8_t currPos = 0;
 626:..\common\tterm/TTerm.c ****     uint16_t cmdLength = handle->currBufferLength;
 627:..\common\tterm/TTerm.c ****     
 628:..\common\tterm/TTerm.c ****     char * firstSpace = strchr(handle->inputBuffer, ' ');
 594              		.loc 1 628 0
 595 0004 0768     		ldr	r7, [r0]
 624:..\common\tterm/TTerm.c ****     uint8_t currPos = 0;
 596              		.loc 1 624 0
 597 0006 0446     		mov	r4, r0
 626:..\common\tterm/TTerm.c ****     
 598              		.loc 1 626 0
 599 0008 C568     		ldr	r5, [r0, #12]
 600              	.LVL64:
 601              		.loc 1 628 0
 602 000a 2021     		movs	r1, #32
 603 000c 3846     		mov	r0, r7
 604              	.LVL65:
 605 000e FFF7FEFF 		bl	strchr
 606              	.LVL66:
 629:..\common\tterm/TTerm.c ****     if(firstSpace != 0){
 607              		.loc 1 629 0
 608 0012 08B9     		cbnz	r0, .L80
 626:..\common\tterm/TTerm.c ****     
 609              		.loc 1 626 0
 610 0014 ADB2     		uxth	r5, r5
 611 0016 01E0     		b	.L81
 612              	.L80:
 630:..\common\tterm/TTerm.c ****         cmdLength = firstSpace - handle->inputBuffer;
 613              		.loc 1 630 0
 614 0018 C01B     		subs	r0, r0, r7
 615              	.LVL67:
 616 001a 85B2     		uxth	r5, r0
 617              	.LVL68:
 618              	.L81:
 631:..\common\tterm/TTerm.c ****     }
 632:..\common\tterm/TTerm.c ****     
 633:..\common\tterm/TTerm.c ****     TermCommandDescriptor * currCmd = handle->cmdListHead->nextCmd;
 619              		.loc 1 633 0
 620 001c D4F88C30 		ldr	r3, [r4, #140]
 634:..\common\tterm/TTerm.c ****     for(;currPos < handle->cmdListHead->commandLength; currPos++){
 621              		.loc 1 634 0
 622 0020 0026     		movs	r6, #0
 633:..\common\tterm/TTerm.c ****     for(;currPos < handle->cmdListHead->commandLength; currPos++){
 623              		.loc 1 633 0
 624 0022 DC69     		ldr	r4, [r3, #28]
 625              	.LVL69:
 626              		.loc 1 634 0
 627 0024 D3F80C80 		ldr	r8, [r3, #12]
 628              	.LVL70:
 629              	.L82:
ARM GAS  C:\Users\chemi\AppData\Local\Temp\cc0tO343.s 			page 24


 630 0028 F3B2     		uxtb	r3, r6
 631              	.LVL71:
 632              		.loc 1 634 0 is_stmt 0 discriminator 1
 633 002a 9845     		cmp	r8, r3
 634 002c 0BD9     		bls	.L87
 635:..\common\tterm/TTerm.c ****         if(currCmd->commandLength == cmdLength && strncmp(handle->inputBuffer, currCmd->command, cm
 635              		.loc 1 635 0 is_stmt 1
 636 002e E368     		ldr	r3, [r4, #12]
 637              	.LVL72:
 638 0030 AB42     		cmp	r3, r5
 639 0032 05D1     		bne	.L83
 640              		.loc 1 635 0 is_stmt 0 discriminator 1
 641 0034 2A46     		mov	r2, r5
 642 0036 6168     		ldr	r1, [r4, #4]
 643 0038 3846     		mov	r0, r7
 644 003a FFF7FEFF 		bl	strncmp
 645              	.LVL73:
 646 003e 28B1     		cbz	r0, .L86
 647              	.L83:
 636:..\common\tterm/TTerm.c ****         currCmd = currCmd->nextCmd;
 648              		.loc 1 636 0 is_stmt 1
 649 0040 E469     		ldr	r4, [r4, #28]
 650              	.LVL74:
 651 0042 0136     		adds	r6, r6, #1
 652              	.LVL75:
 653 0044 F0E7     		b	.L82
 654              	.LVL76:
 655              	.L87:
 637:..\common\tterm/TTerm.c ****     }
 638:..\common\tterm/TTerm.c ****     
 639:..\common\tterm/TTerm.c ****     return NULL;
 656              		.loc 1 639 0
 657 0046 0020     		movs	r0, #0
 658 0048 BDE8F081 		pop	{r4, r5, r6, r7, r8, pc}
 659              	.LVL77:
 660              	.L86:
 661 004c 2046     		mov	r0, r4
 640:..\common\tterm/TTerm.c **** }
 662              		.loc 1 640 0
 663 004e BDE8F081 		pop	{r4, r5, r6, r7, r8, pc}
 664              		.cfi_endproc
 665              	.LFE82:
 666              		.size	TERM_findCMD, .-TERM_findCMD
 667              		.section	.text.TERM_seperateArgs,"ax",%progbits
 668              		.align	1
 669              		.global	TERM_seperateArgs
 670              		.thumb
 671              		.thumb_func
 672              		.type	TERM_seperateArgs, %function
 673              	TERM_seperateArgs:
 674              	.LFB84:
 641:..\common\tterm/TTerm.c **** 
 642:..\common\tterm/TTerm.c **** uint8_t TERM_interpretCMD(char * data, uint16_t dataLength, TERMINAL_HANDLE * handle){
 643:..\common\tterm/TTerm.c ****     
 644:..\common\tterm/TTerm.c ****     TermCommandDescriptor * cmd = TERM_findCMD(handle);
 645:..\common\tterm/TTerm.c ****     
 646:..\common\tterm/TTerm.c ****     if(cmd != 0){
ARM GAS  C:\Users\chemi\AppData\Local\Temp\cc0tO343.s 			page 25


 647:..\common\tterm/TTerm.c ****         uint16_t argCount = TERM_countArgs(data, dataLength);
 648:..\common\tterm/TTerm.c ****         if(argCount == TERM_ARGS_ERROR_STRING_LITERAL){
 649:..\common\tterm/TTerm.c ****             ttprintfEcho("\r\nError: unclosed string literal in command\r\n");
 650:..\common\tterm/TTerm.c ****             return TERM_CMD_EXIT_ERROR;
 651:..\common\tterm/TTerm.c ****         }
 652:..\common\tterm/TTerm.c **** 
 653:..\common\tterm/TTerm.c ****         char ** args = 0;
 654:..\common\tterm/TTerm.c ****         if(argCount != 0){
 655:..\common\tterm/TTerm.c ****             args = pvPortMalloc(sizeof(char*) * argCount);
 656:..\common\tterm/TTerm.c ****             TERM_seperateArgs(data, dataLength, args);
 657:..\common\tterm/TTerm.c ****         }
 658:..\common\tterm/TTerm.c **** 
 659:..\common\tterm/TTerm.c ****         uint8_t retCode = TERM_CMD_EXIT_ERROR;
 660:..\common\tterm/TTerm.c ****         if(cmd->function != 0){
 661:..\common\tterm/TTerm.c ****             configASSERT((cmd->function > 0x9d000000) && (cmd->function < 0x9d040000));
 662:..\common\tterm/TTerm.c ****             retCode = (*cmd->function)(handle, argCount, args);
 663:..\common\tterm/TTerm.c ****         }
 664:..\common\tterm/TTerm.c **** 
 665:..\common\tterm/TTerm.c ****         if(argCount != 0) vPortFree(args);
 666:..\common\tterm/TTerm.c ****         return retCode;
 667:..\common\tterm/TTerm.c ****     }
 668:..\common\tterm/TTerm.c ****     
 669:..\common\tterm/TTerm.c ****     return TERM_CMD_EXIT_NOT_FOUND;
 670:..\common\tterm/TTerm.c **** }
 671:..\common\tterm/TTerm.c **** 
 672:..\common\tterm/TTerm.c **** uint16_t TERM_seperateArgs(char * data, uint16_t dataLength, char ** buff){
 675              		.loc 1 672 0
 676              		.cfi_startproc
 677              		@ args = 0, pretend = 0, frame = 0
 678              		@ frame_needed = 0, uses_anonymous_args = 0
 679              	.LVL78:
 680 0000 2DE9F041 		push	{r4, r5, r6, r7, r8, lr}
 681              		.cfi_def_cfa_offset 24
 682              		.cfi_offset 4, -24
 683              		.cfi_offset 5, -20
 684              		.cfi_offset 6, -16
 685              		.cfi_offset 7, -12
 686              		.cfi_offset 8, -8
 687              		.cfi_offset 14, -4
 673:..\common\tterm/TTerm.c ****     uint8_t count = 0;
 674:..\common\tterm/TTerm.c ****     uint8_t currPos = 0;
 675:..\common\tterm/TTerm.c ****     unsigned quoteMark = 0;
 676:..\common\tterm/TTerm.c ****     char * currStringStart = 0;
 677:..\common\tterm/TTerm.c ****     char * lastSpace = 0;
 678:..\common\tterm/TTerm.c ****     for(;currPos<dataLength; currPos++){
 688              		.loc 1 678 0
 689 0004 0027     		movs	r7, #0
 672:..\common\tterm/TTerm.c ****     uint8_t count = 0;
 690              		.loc 1 672 0
 691 0006 9646     		mov	lr, r2
 677:..\common\tterm/TTerm.c ****     for(;currPos<dataLength; currPos++){
 692              		.loc 1 677 0
 693 0008 3E46     		mov	r6, r7
 676:..\common\tterm/TTerm.c ****     char * lastSpace = 0;
 694              		.loc 1 676 0
 695 000a 3A46     		mov	r2, r7
 696              	.LVL79:
ARM GAS  C:\Users\chemi\AppData\Local\Temp\cc0tO343.s 			page 26


 675:..\common\tterm/TTerm.c ****     char * currStringStart = 0;
 697              		.loc 1 675 0
 698 000c 3B46     		mov	r3, r7
 673:..\common\tterm/TTerm.c ****     uint8_t currPos = 0;
 699              		.loc 1 673 0
 700 000e 3C46     		mov	r4, r7
 679:..\common\tterm/TTerm.c ****         switch(data[currPos]){
 680:..\common\tterm/TTerm.c ****             case ' ':
 681:..\common\tterm/TTerm.c ****                 if(!quoteMark){
 682:..\common\tterm/TTerm.c ****                     data[currPos] = 0;
 683:..\common\tterm/TTerm.c ****                     lastSpace = &data[currPos + 1];
 684:..\common\tterm/TTerm.c ****                 }
 685:..\common\tterm/TTerm.c ****                 break;
 686:..\common\tterm/TTerm.c ****                 
 687:..\common\tterm/TTerm.c ****             case '"':
 688:..\common\tterm/TTerm.c ****                 if(quoteMark){
 689:..\common\tterm/TTerm.c ****                     quoteMark = 0;
 690:..\common\tterm/TTerm.c ****                     if(currStringStart){
 691:..\common\tterm/TTerm.c ****                         data[currPos] = 0;
 692:..\common\tterm/TTerm.c ****                         buff[count++] = currStringStart;
 693:..\common\tterm/TTerm.c ****                     }
 694:..\common\tterm/TTerm.c ****                 }else{
 695:..\common\tterm/TTerm.c ****                     quoteMark = 1;
 696:..\common\tterm/TTerm.c ****                     currStringStart = &data[currPos+1];
 697:..\common\tterm/TTerm.c ****                 }
 698:..\common\tterm/TTerm.c ****                         
 699:..\common\tterm/TTerm.c ****                 break;
 700:..\common\tterm/TTerm.c ****                 
 701:..\common\tterm/TTerm.c ****             default:
 702:..\common\tterm/TTerm.c ****                 if(!quoteMark){
 703:..\common\tterm/TTerm.c ****                     if(lastSpace != 0){
 704:..\common\tterm/TTerm.c ****                         buff[count++] = lastSpace;
 705:..\common\tterm/TTerm.c ****                         lastSpace = 0;
 701              		.loc 1 705 0
 702 0010 B846     		mov	r8, r7
 703              	.LVL80:
 704              	.L89:
 678:..\common\tterm/TTerm.c ****         switch(data[currPos]){
 705              		.loc 1 678 0 discriminator 1
 706 0012 FDB2     		uxtb	r5, r7
 707 0014 8D42     		cmp	r5, r1
 708 0016 25D2     		bcs	.L106
 679:..\common\tterm/TTerm.c ****         switch(data[currPos]){
 709              		.loc 1 679 0
 710 0018 10F805C0 		ldrb	ip, [r0, r5]	@ zero_extendqisi2
 711 001c BCF1200F 		cmp	ip, #32
 712 0020 03D0     		beq	.L91
 713 0022 BCF1220F 		cmp	ip, #34
 714 0026 05D0     		beq	.L92
 715 0028 11E0     		b	.L107
 716              	.L91:
 681:..\common\tterm/TTerm.c ****                     data[currPos] = 0;
 717              		.loc 1 681 0
 718 002a C3B9     		cbnz	r3, .L99
 683:..\common\tterm/TTerm.c ****                 }
 719              		.loc 1 683 0
 720 002c 6E1C     		adds	r6, r5, #1
ARM GAS  C:\Users\chemi\AppData\Local\Temp\cc0tO343.s 			page 27


 721              	.LVL81:
 682:..\common\tterm/TTerm.c ****                     lastSpace = &data[currPos + 1];
 722              		.loc 1 682 0
 723 002e 4355     		strb	r3, [r0, r5]
 683:..\common\tterm/TTerm.c ****                 }
 724              		.loc 1 683 0
 725 0030 0644     		add	r6, r6, r0
 726              	.LVL82:
 727 0032 15E0     		b	.L93
 728              	.L92:
 688:..\common\tterm/TTerm.c ****                     quoteMark = 0;
 729              		.loc 1 688 0
 730 0034 43B1     		cbz	r3, .L94
 731              	.LVL83:
 690:..\common\tterm/TTerm.c ****                         data[currPos] = 0;
 732              		.loc 1 690 0
 733 0036 2AB1     		cbz	r2, .L105
 692:..\common\tterm/TTerm.c ****                     }
 734              		.loc 1 692 0
 735 0038 631C     		adds	r3, r4, #1
 736              	.LVL84:
 691:..\common\tterm/TTerm.c ****                         buff[count++] = currStringStart;
 737              		.loc 1 691 0
 738 003a 00F80580 		strb	r8, [r0, r5]
 692:..\common\tterm/TTerm.c ****                     }
 739              		.loc 1 692 0
 740 003e 4EF82420 		str	r2, [lr, r4, lsl #2]
 741 0042 DCB2     		uxtb	r4, r3
 742              	.LVL85:
 743              	.L105:
 689:..\common\tterm/TTerm.c ****                     if(currStringStart){
 744              		.loc 1 689 0
 745 0044 0023     		movs	r3, #0
 746 0046 0BE0     		b	.L93
 747              	.LVL86:
 748              	.L94:
 696:..\common\tterm/TTerm.c ****                 }
 749              		.loc 1 696 0
 750 0048 0135     		adds	r5, r5, #1
 751 004a 4219     		adds	r2, r0, r5
 752              	.LVL87:
 753 004c 07E0     		b	.L99
 754              	.LVL88:
 755              	.L107:
 702:..\common\tterm/TTerm.c ****                     if(lastSpace != 0){
 756              		.loc 1 702 0
 757 004e 33B9     		cbnz	r3, .L99
 703:..\common\tterm/TTerm.c ****                         buff[count++] = lastSpace;
 758              		.loc 1 703 0
 759 0050 36B1     		cbz	r6, .L93
 704:..\common\tterm/TTerm.c ****                         lastSpace = 0;
 760              		.loc 1 704 0
 761 0052 651C     		adds	r5, r4, #1
 762              	.LVL89:
 763 0054 4EF82460 		str	r6, [lr, r4, lsl #2]
 764              	.LVL90:
 765 0058 ECB2     		uxtb	r4, r5
ARM GAS  C:\Users\chemi\AppData\Local\Temp\cc0tO343.s 			page 28


 766              		.loc 1 705 0
 767 005a 1E46     		mov	r6, r3
 768 005c 00E0     		b	.L93
 769              	.LVL91:
 770              	.L99:
 771 005e 0123     		movs	r3, #1
 772              	.LVL92:
 773              	.L93:
 774 0060 0137     		adds	r7, r7, #1
 775              	.LVL93:
 776 0062 D6E7     		b	.L89
 777              	.LVL94:
 778              	.L106:
 706:..\common\tterm/TTerm.c ****                     }
 707:..\common\tterm/TTerm.c ****                 }
 708:..\common\tterm/TTerm.c ****                 break;
 709:..\common\tterm/TTerm.c ****         }
 710:..\common\tterm/TTerm.c ****     }
 711:..\common\tterm/TTerm.c ****     if(quoteMark) return TERM_ARGS_ERROR_STRING_LITERAL;
 779              		.loc 1 711 0
 780 0064 13B9     		cbnz	r3, .L100
 712:..\common\tterm/TTerm.c ****     return count;
 781              		.loc 1 712 0
 782 0066 A0B2     		uxth	r0, r4
 783              	.LVL95:
 784 0068 BDE8F081 		pop	{r4, r5, r6, r7, r8, pc}
 785              	.LVL96:
 786              	.L100:
 711:..\common\tterm/TTerm.c ****     return count;
 787              		.loc 1 711 0
 788 006c 4FF6FF70 		movw	r0, #65535
 789              	.LVL97:
 713:..\common\tterm/TTerm.c **** }
 790              		.loc 1 713 0
 791 0070 BDE8F081 		pop	{r4, r5, r6, r7, r8, pc}
 792              		.cfi_endproc
 793              	.LFE84:
 794              		.size	TERM_seperateArgs, .-TERM_seperateArgs
 795              		.section	.text.TERM_countArgs,"ax",%progbits
 796              		.align	1
 797              		.global	TERM_countArgs
 798              		.thumb
 799              		.thumb_func
 800              		.type	TERM_countArgs, %function
 801              	TERM_countArgs:
 802              	.LFB85:
 714:..\common\tterm/TTerm.c **** 
 715:..\common\tterm/TTerm.c **** uint16_t TERM_countArgs(const char * data, uint16_t dataLength){
 803              		.loc 1 715 0
 804              		.cfi_startproc
 805              		@ args = 0, pretend = 0, frame = 0
 806              		@ frame_needed = 0, uses_anonymous_args = 0
 807              	.LVL98:
 808 0000 F0B5     		push	{r4, r5, r6, r7, lr}
 809              		.cfi_def_cfa_offset 20
 810              		.cfi_offset 4, -20
 811              		.cfi_offset 5, -16
ARM GAS  C:\Users\chemi\AppData\Local\Temp\cc0tO343.s 			page 29


 812              		.cfi_offset 6, -12
 813              		.cfi_offset 7, -8
 814              		.cfi_offset 14, -4
 716:..\common\tterm/TTerm.c ****     uint8_t count = 0;
 717:..\common\tterm/TTerm.c ****     uint8_t currPos = 0;
 718:..\common\tterm/TTerm.c ****     unsigned quoteMark = 0;
 719:..\common\tterm/TTerm.c ****     const char * currStringStart = NULL;
 720:..\common\tterm/TTerm.c ****     const char * lastSpace = NULL;
 721:..\common\tterm/TTerm.c ****     for(;currPos<dataLength; currPos++){
 815              		.loc 1 721 0
 816 0002 0026     		movs	r6, #0
 720:..\common\tterm/TTerm.c ****     for(;currPos<dataLength; currPos++){
 817              		.loc 1 720 0
 818 0004 3546     		mov	r5, r6
 719:..\common\tterm/TTerm.c ****     const char * lastSpace = NULL;
 819              		.loc 1 719 0
 820 0006 3746     		mov	r7, r6
 718:..\common\tterm/TTerm.c ****     const char * currStringStart = NULL;
 821              		.loc 1 718 0
 822 0008 3246     		mov	r2, r6
 716:..\common\tterm/TTerm.c ****     uint8_t currPos = 0;
 823              		.loc 1 716 0
 824 000a 3346     		mov	r3, r6
 825              	.LVL99:
 826              	.L109:
 827              		.loc 1 721 0 discriminator 1
 828 000c F4B2     		uxtb	r4, r6
 829 000e 8C42     		cmp	r4, r1
 830 0010 1ED2     		bcs	.L126
 722:..\common\tterm/TTerm.c ****         switch(data[currPos]){
 831              		.loc 1 722 0
 832 0012 10F804E0 		ldrb	lr, [r0, r4]	@ zero_extendqisi2
 833 0016 BEF1200F 		cmp	lr, #32
 834 001a 03D0     		beq	.L111
 835 001c BEF1220F 		cmp	lr, #34
 836 0020 04D0     		beq	.L112
 837 0022 0CE0     		b	.L127
 838              	.L111:
 723:..\common\tterm/TTerm.c ****             case ' ':
 724:..\common\tterm/TTerm.c ****                 if(!quoteMark){
 839              		.loc 1 724 0
 840 0024 8AB9     		cbnz	r2, .L119
 725:..\common\tterm/TTerm.c ****                     lastSpace = &data[currPos + 1];
 841              		.loc 1 725 0
 842 0026 651C     		adds	r5, r4, #1
 843              	.LVL100:
 844 0028 0544     		add	r5, r5, r0
 845              	.LVL101:
 846 002a 0FE0     		b	.L113
 847              	.L112:
 726:..\common\tterm/TTerm.c ****                 }
 727:..\common\tterm/TTerm.c ****                 break;
 728:..\common\tterm/TTerm.c ****                 
 729:..\common\tterm/TTerm.c ****             case '"':
 730:..\common\tterm/TTerm.c ****                 if(quoteMark){
 848              		.loc 1 730 0
 849 002c 22B1     		cbz	r2, .L114
ARM GAS  C:\Users\chemi\AppData\Local\Temp\cc0tO343.s 			page 30


 850              	.LVL102:
 731:..\common\tterm/TTerm.c ****                     quoteMark = 0;
 732:..\common\tterm/TTerm.c ****                     if(currStringStart){
 851              		.loc 1 732 0
 852 002e 0FB1     		cbz	r7, .L125
 733:..\common\tterm/TTerm.c ****                         count ++;
 853              		.loc 1 733 0
 854 0030 0133     		adds	r3, r3, #1
 855              	.LVL103:
 856 0032 DBB2     		uxtb	r3, r3
 857              	.L125:
 858              	.LVL104:
 731:..\common\tterm/TTerm.c ****                     quoteMark = 0;
 859              		.loc 1 731 0
 860 0034 0022     		movs	r2, #0
 861 0036 09E0     		b	.L113
 862              	.LVL105:
 863              	.L114:
 734:..\common\tterm/TTerm.c ****                     }
 735:..\common\tterm/TTerm.c ****                 }else{
 736:..\common\tterm/TTerm.c ****                     quoteMark = 1;
 737:..\common\tterm/TTerm.c ****                     currStringStart = &data[currPos+1];
 864              		.loc 1 737 0
 865 0038 0134     		adds	r4, r4, #1
 866 003a 0719     		adds	r7, r0, r4
 867              	.LVL106:
 868 003c 05E0     		b	.L119
 869              	.LVL107:
 870              	.L127:
 738:..\common\tterm/TTerm.c ****                 }
 739:..\common\tterm/TTerm.c ****                         
 740:..\common\tterm/TTerm.c ****                 break;
 741:..\common\tterm/TTerm.c ****             case 0:
 742:..\common\tterm/TTerm.c ****                 configASSERT(0);
 743:..\common\tterm/TTerm.c ****                 
 744:..\common\tterm/TTerm.c ****             default:
 745:..\common\tterm/TTerm.c ****                 if(!quoteMark){
 871              		.loc 1 745 0
 872 003e 22B9     		cbnz	r2, .L119
 746:..\common\tterm/TTerm.c ****                     if(lastSpace){
 873              		.loc 1 746 0
 874 0040 25B1     		cbz	r5, .L113
 747:..\common\tterm/TTerm.c ****                         count ++;
 875              		.loc 1 747 0
 876 0042 0133     		adds	r3, r3, #1
 877              	.LVL108:
 878 0044 DBB2     		uxtb	r3, r3
 879              	.LVL109:
 748:..\common\tterm/TTerm.c ****                         lastSpace = NULL;
 880              		.loc 1 748 0
 881 0046 1546     		mov	r5, r2
 882 0048 00E0     		b	.L113
 883              	.LVL110:
 884              	.L119:
 885 004a 0122     		movs	r2, #1
 886              	.LVL111:
 887              	.L113:
ARM GAS  C:\Users\chemi\AppData\Local\Temp\cc0tO343.s 			page 31


 888 004c 0136     		adds	r6, r6, #1
 889              	.LVL112:
 890 004e DDE7     		b	.L109
 891              	.LVL113:
 892              	.L126:
 749:..\common\tterm/TTerm.c ****                     }
 750:..\common\tterm/TTerm.c ****                 }
 751:..\common\tterm/TTerm.c ****                 break;
 752:..\common\tterm/TTerm.c ****         }
 753:..\common\tterm/TTerm.c ****     }
 754:..\common\tterm/TTerm.c ****     if(quoteMark) return TERM_ARGS_ERROR_STRING_LITERAL;
 893              		.loc 1 754 0
 894 0050 0AB9     		cbnz	r2, .L120
 755:..\common\tterm/TTerm.c ****     return count;
 895              		.loc 1 755 0
 896 0052 98B2     		uxth	r0, r3
 897              	.LVL114:
 898 0054 F0BD     		pop	{r4, r5, r6, r7, pc}
 899              	.LVL115:
 900              	.L120:
 754:..\common\tterm/TTerm.c ****     return count;
 901              		.loc 1 754 0
 902 0056 4FF6FF70 		movw	r0, #65535
 903              	.LVL116:
 756:..\common\tterm/TTerm.c **** }
 904              		.loc 1 756 0
 905 005a F0BD     		pop	{r4, r5, r6, r7, pc}
 906              		.cfi_endproc
 907              	.LFE85:
 908              		.size	TERM_countArgs, .-TERM_countArgs
 909              		.section	.text.TERM_interpretCMD,"ax",%progbits
 910              		.align	1
 911              		.global	TERM_interpretCMD
 912              		.thumb
 913              		.thumb_func
 914              		.type	TERM_interpretCMD, %function
 915              	TERM_interpretCMD:
 916              	.LFB83:
 642:..\common\tterm/TTerm.c ****     
 917              		.loc 1 642 0
 918              		.cfi_startproc
 919              		@ args = 0, pretend = 0, frame = 0
 920              		@ frame_needed = 0, uses_anonymous_args = 0
 921              	.LVL117:
 922 0000 2DE9F843 		push	{r3, r4, r5, r6, r7, r8, r9, lr}
 923              		.cfi_def_cfa_offset 32
 924              		.cfi_offset 3, -32
 925              		.cfi_offset 4, -28
 926              		.cfi_offset 5, -24
 927              		.cfi_offset 6, -20
 928              		.cfi_offset 7, -16
 929              		.cfi_offset 8, -12
 930              		.cfi_offset 9, -8
 931              		.cfi_offset 14, -4
 642:..\common\tterm/TTerm.c ****     
 932              		.loc 1 642 0
 933 0004 8046     		mov	r8, r0
ARM GAS  C:\Users\chemi\AppData\Local\Temp\cc0tO343.s 			page 32


 644:..\common\tterm/TTerm.c ****     
 934              		.loc 1 644 0
 935 0006 1046     		mov	r0, r2
 936              	.LVL118:
 642:..\common\tterm/TTerm.c ****     
 937              		.loc 1 642 0
 938 0008 8946     		mov	r9, r1
 939 000a 1446     		mov	r4, r2
 644:..\common\tterm/TTerm.c ****     
 940              		.loc 1 644 0
 941 000c FFF7FEFF 		bl	TERM_findCMD
 942              	.LVL119:
 646:..\common\tterm/TTerm.c ****         uint16_t argCount = TERM_countArgs(data, dataLength);
 943              		.loc 1 646 0
 944 0010 0746     		mov	r7, r0
 945 0012 60B3     		cbz	r0, .L133
 946              	.LBB43:
 647:..\common\tterm/TTerm.c ****         if(argCount == TERM_ARGS_ERROR_STRING_LITERAL){
 947              		.loc 1 647 0
 948 0014 4946     		mov	r1, r9
 949 0016 4046     		mov	r0, r8
 950              	.LVL120:
 951 0018 FFF7FEFF 		bl	TERM_countArgs
 952              	.LVL121:
 648:..\common\tterm/TTerm.c ****             ttprintfEcho("\r\nError: unclosed string literal in command\r\n");
 953              		.loc 1 648 0
 954 001c 4FF6FF73 		movw	r3, #65535
 955 0020 9842     		cmp	r0, r3
 647:..\common\tterm/TTerm.c ****         if(argCount == TERM_ARGS_ERROR_STRING_LITERAL){
 956              		.loc 1 647 0
 957 0022 0546     		mov	r5, r0
 958              	.LVL122:
 648:..\common\tterm/TTerm.c ****             ttprintfEcho("\r\nError: unclosed string literal in command\r\n");
 959              		.loc 1 648 0
 960 0024 09D1     		bne	.L130
 961              	.LVL123:
 962              	.LBE43:
 963              	.LBB44:
 964              	.LBB45:
 965              	.LBB46:
 649:..\common\tterm/TTerm.c ****             return TERM_CMD_EXIT_ERROR;
 966              		.loc 1 649 0
 967 0026 D4F88800 		ldr	r0, [r4, #136]
 968              	.LVL124:
 969 002a 20B3     		cbz	r0, .L129
 970 002c 636A     		ldr	r3, [r4, #36]
 971 002e 1349     		ldr	r1, .L138
 972 0030 6068     		ldr	r0, [r4, #4]
 973 0032 9847     		blx	r3
 974              	.LVL125:
 975 0034 0020     		movs	r0, #0
 976 0036 BDE8F883 		pop	{r3, r4, r5, r6, r7, r8, r9, pc}
 977              	.LVL126:
 978              	.L130:
 979              	.LBE46:
 980              	.LBE45:
 981              	.LBE44:
ARM GAS  C:\Users\chemi\AppData\Local\Temp\cc0tO343.s 			page 33


 982              	.LBB47:
 654:..\common\tterm/TTerm.c ****             args = pvPortMalloc(sizeof(char*) * argCount);
 983              		.loc 1 654 0
 984 003a 48B1     		cbz	r0, .L135
 655:..\common\tterm/TTerm.c ****             TERM_seperateArgs(data, dataLength, args);
 985              		.loc 1 655 0
 986 003c 8000     		lsls	r0, r0, #2
 987              	.LVL127:
 988 003e FFF7FEFF 		bl	pvPortMalloc
 989              	.LVL128:
 656:..\common\tterm/TTerm.c ****         }
 990              		.loc 1 656 0
 991 0042 4946     		mov	r1, r9
 655:..\common\tterm/TTerm.c ****             TERM_seperateArgs(data, dataLength, args);
 992              		.loc 1 655 0
 993 0044 0646     		mov	r6, r0
 994              	.LVL129:
 656:..\common\tterm/TTerm.c ****         }
 995              		.loc 1 656 0
 996 0046 0246     		mov	r2, r0
 997 0048 4046     		mov	r0, r8
 998              	.LVL130:
 999 004a FFF7FEFF 		bl	TERM_seperateArgs
 1000              	.LVL131:
 1001 004e 00E0     		b	.L131
 1002              	.LVL132:
 1003              	.L135:
 653:..\common\tterm/TTerm.c ****         if(argCount != 0){
 1004              		.loc 1 653 0
 1005 0050 0646     		mov	r6, r0
 1006              	.LVL133:
 1007              	.L131:
 660:..\common\tterm/TTerm.c ****             configASSERT((cmd->function > 0x9d000000) && (cmd->function < 0x9d040000));
 1008              		.loc 1 660 0
 1009 0052 3B68     		ldr	r3, [r7]
 1010 0054 2BB1     		cbz	r3, .L136
 662:..\common\tterm/TTerm.c ****         }
 1011              		.loc 1 662 0
 1012 0056 2046     		mov	r0, r4
 1013 0058 3246     		mov	r2, r6
 1014 005a E9B2     		uxtb	r1, r5
 1015 005c 9847     		blx	r3
 1016              	.LVL134:
 1017 005e 0446     		mov	r4, r0
 1018              	.LVL135:
 1019 0060 00E0     		b	.L132
 1020              	.LVL136:
 1021              	.L136:
 659:..\common\tterm/TTerm.c ****         if(cmd->function != 0){
 1022              		.loc 1 659 0
 1023 0062 1C46     		mov	r4, r3
 1024              	.LVL137:
 1025              	.L132:
 665:..\common\tterm/TTerm.c ****         return retCode;
 1026              		.loc 1 665 0
 1027 0064 35B1     		cbz	r5, .L137
 665:..\common\tterm/TTerm.c ****         return retCode;
ARM GAS  C:\Users\chemi\AppData\Local\Temp\cc0tO343.s 			page 34


 1028              		.loc 1 665 0 is_stmt 0 discriminator 1
 1029 0066 3046     		mov	r0, r6
 1030 0068 FFF7FEFF 		bl	vPortFree
 1031              	.LVL138:
 1032 006c 02E0     		b	.L137
 1033              	.LVL139:
 1034              	.L133:
 1035              	.LBE47:
 669:..\common\tterm/TTerm.c **** }
 1036              		.loc 1 669 0 is_stmt 1
 1037 006e 0120     		movs	r0, #1
 1038              	.LVL140:
 1039 0070 BDE8F883 		pop	{r3, r4, r5, r6, r7, r8, r9, pc}
 1040              	.LVL141:
 1041              	.L137:
 1042              	.LBB48:
 666:..\common\tterm/TTerm.c ****     }
 1043              		.loc 1 666 0
 1044 0074 2046     		mov	r0, r4
 1045              	.LVL142:
 1046              	.L129:
 1047              	.LBE48:
 670:..\common\tterm/TTerm.c **** 
 1048              		.loc 1 670 0
 1049 0076 BDE8F883 		pop	{r3, r4, r5, r6, r7, r8, r9, pc}
 1050              	.LVL143:
 1051              	.L139:
 1052 007a 00BF     		.align	2
 1053              	.L138:
 1054 007c 8E000000 		.word	.LC5
 1055              		.cfi_endproc
 1056              	.LFE83:
 1057              		.size	TERM_interpretCMD, .-TERM_interpretCMD
 1058              		.section	.text.TERM_freeCommandList,"ax",%progbits
 1059              		.align	1
 1060              		.global	TERM_freeCommandList
 1061              		.thumb
 1062              		.thumb_func
 1063              		.type	TERM_freeCommandList, %function
 1064              	TERM_freeCommandList:
 1065              	.LFB86:
 757:..\common\tterm/TTerm.c **** 
 758:..\common\tterm/TTerm.c **** void TERM_freeCommandList(TermCommandDescriptor ** cl, uint16_t length){
 1066              		.loc 1 758 0
 1067              		.cfi_startproc
 1068              		@ args = 0, pretend = 0, frame = 0
 1069              		@ frame_needed = 0, uses_anonymous_args = 0
 1070              		@ link register save eliminated.
 1071              	.LVL144:
 759:..\common\tterm/TTerm.c ****     /*uint8_t currPos = 0;
 760:..\common\tterm/TTerm.c ****     for(;currPos < length; currPos++){
 761:..\common\tterm/TTerm.c ****         vPortFree(cl[currPos]);
 762:..\common\tterm/TTerm.c ****     }*/
 763:..\common\tterm/TTerm.c ****     vPortFree(cl);
 1072              		.loc 1 763 0
 1073 0000 FFF7FEBF 		b	vPortFree
 1074              	.LVL145:
ARM GAS  C:\Users\chemi\AppData\Local\Temp\cc0tO343.s 			page 35


 1075              		.cfi_endproc
 1076              	.LFE86:
 1077              		.size	TERM_freeCommandList, .-TERM_freeCommandList
 1078              		.section	.text.toLowerCase,"ax",%progbits
 1079              		.align	1
 1080              		.global	toLowerCase
 1081              		.thumb
 1082              		.thumb_func
 1083              		.type	toLowerCase, %function
 1084              	toLowerCase:
 1085              	.LFB90:
 764:..\common\tterm/TTerm.c **** }
 765:..\common\tterm/TTerm.c **** 
 766:..\common\tterm/TTerm.c **** TermCommandDescriptor * TERM_addCommand(TermCommandFunction function, const char * command, const c
 767:..\common\tterm/TTerm.c ****     if(head->commandLength == 0xff) return 0;
 768:..\common\tterm/TTerm.c ****     
 769:..\common\tterm/TTerm.c ****     TermCommandDescriptor * newCMD = pvPortMalloc(sizeof(TermCommandDescriptor));
 770:..\common\tterm/TTerm.c ****     
 771:..\common\tterm/TTerm.c ****     newCMD->command = command;
 772:..\common\tterm/TTerm.c ****     newCMD->commandDescription = description;
 773:..\common\tterm/TTerm.c ****     newCMD->commandLength = strlen(command);
 774:..\common\tterm/TTerm.c ****     newCMD->function = function;
 775:..\common\tterm/TTerm.c ****     newCMD->minPermissionLevel = minPermissionLevel;
 776:..\common\tterm/TTerm.c ****     newCMD->ACHandler = 0;
 777:..\common\tterm/TTerm.c ****     
 778:..\common\tterm/TTerm.c ****     TERM_LIST_add(newCMD, head);
 779:..\common\tterm/TTerm.c ****     return newCMD;
 780:..\common\tterm/TTerm.c **** }
 781:..\common\tterm/TTerm.c **** 
 782:..\common\tterm/TTerm.c **** void TERM_LIST_add(TermCommandDescriptor * item, TermCommandDescriptor * head){
 783:..\common\tterm/TTerm.c ****     uint32_t currPos = 0;
 784:..\common\tterm/TTerm.c ****     TermCommandDescriptor ** lastComp = &head->nextCmd;
 785:..\common\tterm/TTerm.c ****     TermCommandDescriptor * currComp = head->nextCmd;
 786:..\common\tterm/TTerm.c ****     
 787:..\common\tterm/TTerm.c ****     while(currPos < head->commandLength){
 788:..\common\tterm/TTerm.c ****         if(TERM_isSorted(currComp, item)){
 789:..\common\tterm/TTerm.c ****             *lastComp = item;
 790:..\common\tterm/TTerm.c ****             item->nextCmd = currComp;
 791:..\common\tterm/TTerm.c ****             head->commandLength ++;
 792:..\common\tterm/TTerm.c ****             
 793:..\common\tterm/TTerm.c ****             return;
 794:..\common\tterm/TTerm.c ****         }
 795:..\common\tterm/TTerm.c ****         if(currComp->nextCmd == 0){
 796:..\common\tterm/TTerm.c ****             item->nextCmd = currComp->nextCmd;
 797:..\common\tterm/TTerm.c ****             currComp->nextCmd = item;
 798:..\common\tterm/TTerm.c ****             head->commandLength ++;
 799:..\common\tterm/TTerm.c ****             return;
 800:..\common\tterm/TTerm.c ****         }
 801:..\common\tterm/TTerm.c ****         lastComp = &currComp->nextCmd;
 802:..\common\tterm/TTerm.c ****         currComp = currComp->nextCmd;
 803:..\common\tterm/TTerm.c ****     }
 804:..\common\tterm/TTerm.c ****     
 805:..\common\tterm/TTerm.c ****     item->nextCmd = 0;
 806:..\common\tterm/TTerm.c ****     *lastComp = item;
 807:..\common\tterm/TTerm.c ****     head->commandLength ++;
 808:..\common\tterm/TTerm.c **** }
 809:..\common\tterm/TTerm.c **** /*
ARM GAS  C:\Users\chemi\AppData\Local\Temp\cc0tO343.s 			page 36


 810:..\common\tterm/TTerm.c **** void ACL_remove(AC_LIST_HEAD * head, char * string){
 811:..\common\tterm/TTerm.c ****     if(head->isConst || head->elementCount == 0) return;
 812:..\common\tterm/TTerm.c ****     uint32_t currPos = 0;
 813:..\common\tterm/TTerm.c ****     AC_LIST_ELEMENT ** lastComp = &head->first;
 814:..\common\tterm/TTerm.c ****     AC_LIST_ELEMENT * currComp = head->first;
 815:..\common\tterm/TTerm.c ****     
 816:..\common\tterm/TTerm.c ****     for(;currPos < head->elementCount; currPos++){
 817:..\common\tterm/TTerm.c ****         if((strlen(currComp->string) == strlen(string)) && (strcmp(currComp->string, string) == 0))
 818:..\common\tterm/TTerm.c ****             *lastComp = currComp->next;
 819:..\common\tterm/TTerm.c ****             
 820:..\common\tterm/TTerm.c ****             //TODO make this portable
 821:..\common\tterm/TTerm.c ****             if(ptr_is_in_ram(currComp->string)){
 822:..\common\tterm/TTerm.c ****                 vPortFree(currComp->string);
 823:..\common\tterm/TTerm.c ****             }
 824:..\common\tterm/TTerm.c ****             
 825:..\common\tterm/TTerm.c ****             vPortFree(currComp);
 826:..\common\tterm/TTerm.c ****             head->elementCount --;
 827:..\common\tterm/TTerm.c ****             return;
 828:..\common\tterm/TTerm.c ****         }
 829:..\common\tterm/TTerm.c ****         if(currComp->next == 0) break;
 830:..\common\tterm/TTerm.c ****         lastComp = &currComp->next;
 831:..\common\tterm/TTerm.c ****         currComp = currComp->next;
 832:..\common\tterm/TTerm.c ****     }
 833:..\common\tterm/TTerm.c **** }
 834:..\common\tterm/TTerm.c **** */
 835:..\common\tterm/TTerm.c **** 
 836:..\common\tterm/TTerm.c **** unsigned TERM_isSorted(TermCommandDescriptor * a, TermCommandDescriptor * b){
 837:..\common\tterm/TTerm.c ****     uint8_t currPos = 0;
 838:..\common\tterm/TTerm.c ****     //compare the lowercase ASCII values of each character in the command (They are alphabetically 
 839:..\common\tterm/TTerm.c ****     for(;currPos < a->commandLength && currPos < b->commandLength; currPos++){
 840:..\common\tterm/TTerm.c ****         char letterA = toLowerCase(a->command[currPos]);
 841:..\common\tterm/TTerm.c ****         char letterB = toLowerCase(b->command[currPos]);
 842:..\common\tterm/TTerm.c ****         //if the letters are different we return 1 if a is smaller than b (they are correctly sorte
 843:..\common\tterm/TTerm.c ****         if(letterA > letterB){
 844:..\common\tterm/TTerm.c ****             return 1;
 845:..\common\tterm/TTerm.c ****         }else if(letterB > letterA){
 846:..\common\tterm/TTerm.c ****             return 0;
 847:..\common\tterm/TTerm.c ****         }
 848:..\common\tterm/TTerm.c ****     }
 849:..\common\tterm/TTerm.c ****     
 850:..\common\tterm/TTerm.c ****     //the two commands have identical letters for their entire length we check which one is longer 
 851:..\common\tterm/TTerm.c ****     if(a->commandLength > b->commandLength){
 852:..\common\tterm/TTerm.c ****         return 1;
 853:..\common\tterm/TTerm.c ****     }else if(b->commandLength > a->commandLength){
 854:..\common\tterm/TTerm.c ****         return 0;
 855:..\common\tterm/TTerm.c ****     }else{
 856:..\common\tterm/TTerm.c ****         //it might happen that a command is added twice (or two identical ones are added), in which
 857:..\common\tterm/TTerm.c ****         //TODO implement an alarm here
 858:..\common\tterm/TTerm.c ****         //UART_print("WARNING: Found identical commands: \"%S\" and \"%S\"\r\n", a->command, b->com
 859:..\common\tterm/TTerm.c ****         return 1;
 860:..\common\tterm/TTerm.c ****     }
 861:..\common\tterm/TTerm.c **** }
 862:..\common\tterm/TTerm.c **** 
 863:..\common\tterm/TTerm.c **** char toLowerCase(char c){
 1086              		.loc 1 863 0
 1087              		.cfi_startproc
 1088              		@ args = 0, pretend = 0, frame = 0
ARM GAS  C:\Users\chemi\AppData\Local\Temp\cc0tO343.s 			page 37


 1089              		@ frame_needed = 0, uses_anonymous_args = 0
 1090              		@ link register save eliminated.
 1091              	.LVL146:
 864:..\common\tterm/TTerm.c ****     if(c > 65 && c < 90){
 1092              		.loc 1 864 0
 1093 0000 A0F14203 		sub	r3, r0, #66
 1094 0004 172B     		cmp	r3, #23
 1095 0006 02D8     		bhi	.L142
 865:..\common\tterm/TTerm.c ****         return c + 32;
 1096              		.loc 1 865 0
 1097 0008 2030     		adds	r0, r0, #32
 1098              	.LVL147:
 1099 000a C0B2     		uxtb	r0, r0
 1100 000c 7047     		bx	lr
 1101              	.LVL148:
 1102              	.L142:
 1103              	.LBB51:
 1104              	.LBB52:
 866:..\common\tterm/TTerm.c ****     }
 867:..\common\tterm/TTerm.c ****     
 868:..\common\tterm/TTerm.c ****     switch(c){
 1105              		.loc 1 868 0
 1106 000e D628     		cmp	r0, #214
 1107 0010 05D0     		beq	.L145
 1108 0012 DC28     		cmp	r0, #220
 1109 0014 05D0     		beq	.L147
 1110 0016 C428     		cmp	r0, #196
 1111 0018 08BF     		it	eq
 1112 001a E420     		moveq	r0, #228
 1113              	.LVL149:
 1114 001c 7047     		bx	lr
 1115              	.LVL150:
 1116              	.L145:
 869:..\common\tterm/TTerm.c ****         case '':
 870:..\common\tterm/TTerm.c ****             return '';
 871:..\common\tterm/TTerm.c ****         case '':
 872:..\common\tterm/TTerm.c ****             return '';
 873:..\common\tterm/TTerm.c ****         case '':
 874:..\common\tterm/TTerm.c ****             return '';
 1117              		.loc 1 874 0
 1118 001e F620     		movs	r0, #246
 1119              	.LVL151:
 1120 0020 7047     		bx	lr
 1121              	.LVL152:
 1122              	.L147:
 870:..\common\tterm/TTerm.c ****         case '':
 1123              		.loc 1 870 0
 1124 0022 FC20     		movs	r0, #252
 1125              	.LVL153:
 1126              	.LBE52:
 1127              	.LBE51:
 875:..\common\tterm/TTerm.c ****         default:
 876:..\common\tterm/TTerm.c ****             return c;
 877:..\common\tterm/TTerm.c ****     }
 878:..\common\tterm/TTerm.c **** }
 1128              		.loc 1 878 0
 1129 0024 7047     		bx	lr
ARM GAS  C:\Users\chemi\AppData\Local\Temp\cc0tO343.s 			page 38


 1130              		.cfi_endproc
 1131              	.LFE90:
 1132              		.size	toLowerCase, .-toLowerCase
 1133              		.section	.text.TERM_isSorted,"ax",%progbits
 1134              		.align	1
 1135              		.global	TERM_isSorted
 1136              		.thumb
 1137              		.thumb_func
 1138              		.type	TERM_isSorted, %function
 1139              	TERM_isSorted:
 1140              	.LFB89:
 836:..\common\tterm/TTerm.c ****     uint8_t currPos = 0;
 1141              		.loc 1 836 0
 1142              		.cfi_startproc
 1143              		@ args = 0, pretend = 0, frame = 0
 1144              		@ frame_needed = 0, uses_anonymous_args = 0
 1145              	.LVL154:
 1146 0000 F8B5     		push	{r3, r4, r5, r6, r7, lr}
 1147              		.cfi_def_cfa_offset 24
 1148              		.cfi_offset 3, -24
 1149              		.cfi_offset 4, -20
 1150              		.cfi_offset 5, -16
 1151              		.cfi_offset 6, -12
 1152              		.cfi_offset 7, -8
 1153              		.cfi_offset 14, -4
 836:..\common\tterm/TTerm.c ****     uint8_t currPos = 0;
 1154              		.loc 1 836 0
 1155 0002 0646     		mov	r6, r0
 839:..\common\tterm/TTerm.c ****         char letterA = toLowerCase(a->command[currPos]);
 1156              		.loc 1 839 0
 1157 0004 C268     		ldr	r2, [r0, #12]
 1158 0006 0025     		movs	r5, #0
 1159              	.LVL155:
 1160              	.L149:
 1161 0008 ECB2     		uxtb	r4, r5
 1162              	.LVL156:
 839:..\common\tterm/TTerm.c ****         char letterA = toLowerCase(a->command[currPos]);
 1163              		.loc 1 839 0 is_stmt 0 discriminator 1
 1164 000a A242     		cmp	r2, r4
 1165 000c C868     		ldr	r0, [r1, #12]
 1166 000e 04D8     		bhi	.L151
 1167              	.L153:
 1168              	.LBB53:
 844:..\common\tterm/TTerm.c ****         }else if(letterB > letterA){
 1169              		.loc 1 844 0 is_stmt 1
 1170 0010 8242     		cmp	r2, r0
 1171 0012 34BF     		ite	cc
 1172 0014 0020     		movcc	r0, #0
 1173 0016 0120     		movcs	r0, #1
 1174              	.LBE53:
 1175 0018 F8BD     		pop	{r3, r4, r5, r6, r7, pc}
 1176              	.LVL157:
 1177              	.L151:
 839:..\common\tterm/TTerm.c ****         char letterA = toLowerCase(a->command[currPos]);
 1178              		.loc 1 839 0 discriminator 2
 1179 001a A042     		cmp	r0, r4
 1180 001c F8D9     		bls	.L153
ARM GAS  C:\Users\chemi\AppData\Local\Temp\cc0tO343.s 			page 39


 1181              	.LBB54:
 840:..\common\tterm/TTerm.c ****         char letterB = toLowerCase(b->command[currPos]);
 1182              		.loc 1 840 0
 1183 001e 7368     		ldr	r3, [r6, #4]
 1184 0020 185D     		ldrb	r0, [r3, r4]	@ zero_extendqisi2
 1185 0022 FFF7FEFF 		bl	toLowerCase
 1186              	.LVL158:
 841:..\common\tterm/TTerm.c ****         //if the letters are different we return 1 if a is smaller than b (they are correctly sorte
 1187              		.loc 1 841 0
 1188 0026 4B68     		ldr	r3, [r1, #4]
 840:..\common\tterm/TTerm.c ****         char letterB = toLowerCase(b->command[currPos]);
 1189              		.loc 1 840 0
 1190 0028 0746     		mov	r7, r0
 1191              	.LVL159:
 841:..\common\tterm/TTerm.c ****         //if the letters are different we return 1 if a is smaller than b (they are correctly sorte
 1192              		.loc 1 841 0
 1193 002a 185D     		ldrb	r0, [r3, r4]	@ zero_extendqisi2
 1194 002c FFF7FEFF 		bl	toLowerCase
 1195              	.LVL160:
 843:..\common\tterm/TTerm.c ****             return 1;
 1196              		.loc 1 843 0
 1197 0030 8742     		cmp	r7, r0
 1198 0032 04D8     		bhi	.L154
 1199 0034 05F10105 		add	r5, r5, #1
 845:..\common\tterm/TTerm.c ****             return 0;
 1200              		.loc 1 845 0
 1201 0038 E6D2     		bcs	.L149
 846:..\common\tterm/TTerm.c ****         }
 1202              		.loc 1 846 0
 1203 003a 0020     		movs	r0, #0
 1204              	.LVL161:
 1205              	.LBE54:
 861:..\common\tterm/TTerm.c **** 
 1206              		.loc 1 861 0
 1207 003c F8BD     		pop	{r3, r4, r5, r6, r7, pc}
 1208              	.LVL162:
 1209              	.L154:
 1210              	.LBB55:
 844:..\common\tterm/TTerm.c ****         }else if(letterB > letterA){
 1211              		.loc 1 844 0
 1212 003e 0120     		movs	r0, #1
 1213              	.LVL163:
 1214 0040 F8BD     		pop	{r3, r4, r5, r6, r7, pc}
 1215              	.LBE55:
 1216              		.cfi_endproc
 1217              	.LFE89:
 1218              		.size	TERM_isSorted, .-TERM_isSorted
 1219              		.section	.text.TERM_LIST_add,"ax",%progbits
 1220              		.align	1
 1221              		.global	TERM_LIST_add
 1222              		.thumb
 1223              		.thumb_func
 1224              		.type	TERM_LIST_add, %function
 1225              	TERM_LIST_add:
 1226              	.LFB88:
 782:..\common\tterm/TTerm.c ****     uint32_t currPos = 0;
 1227              		.loc 1 782 0
ARM GAS  C:\Users\chemi\AppData\Local\Temp\cc0tO343.s 			page 40


 1228              		.cfi_startproc
 1229              		@ args = 0, pretend = 0, frame = 0
 1230              		@ frame_needed = 0, uses_anonymous_args = 0
 1231              	.LVL164:
 1232 0000 2DE9F041 		push	{r4, r5, r6, r7, r8, lr}
 1233              		.cfi_def_cfa_offset 24
 1234              		.cfi_offset 4, -24
 1235              		.cfi_offset 5, -20
 1236              		.cfi_offset 6, -16
 1237              		.cfi_offset 7, -12
 1238              		.cfi_offset 8, -8
 1239              		.cfi_offset 14, -4
 782:..\common\tterm/TTerm.c ****     uint32_t currPos = 0;
 1240              		.loc 1 782 0
 1241 0004 0546     		mov	r5, r0
 1242 0006 0E46     		mov	r6, r1
 785:..\common\tterm/TTerm.c ****     
 1243              		.loc 1 785 0
 1244 0008 CF69     		ldr	r7, [r1, #28]
 787:..\common\tterm/TTerm.c ****         if(TERM_isSorted(currComp, item)){
 1245              		.loc 1 787 0
 1246 000a CC68     		ldr	r4, [r1, #12]
 784:..\common\tterm/TTerm.c ****     TermCommandDescriptor * currComp = head->nextCmd;
 1247              		.loc 1 784 0
 1248 000c 01F11C08 		add	r8, r1, #28
 1249              	.LVL165:
 1250              	.L157:
 787:..\common\tterm/TTerm.c ****         if(TERM_isSorted(currComp, item)){
 1251              		.loc 1 787 0
 1252 0010 A4B1     		cbz	r4, .L163
 788:..\common\tterm/TTerm.c ****             *lastComp = item;
 1253              		.loc 1 788 0
 1254 0012 2946     		mov	r1, r5
 1255 0014 3846     		mov	r0, r7
 1256 0016 FFF7FEFF 		bl	TERM_isSorted
 1257              	.LVL166:
 1258 001a 18B1     		cbz	r0, .L158
 789:..\common\tterm/TTerm.c ****             item->nextCmd = currComp;
 1259              		.loc 1 789 0
 1260 001c C8F80050 		str	r5, [r8]
 790:..\common\tterm/TTerm.c ****             head->commandLength ++;
 1261              		.loc 1 790 0
 1262 0020 EF61     		str	r7, [r5, #28]
 1263 0022 03E0     		b	.L162
 1264              	.L158:
 795:..\common\tterm/TTerm.c ****             item->nextCmd = currComp->nextCmd;
 1265              		.loc 1 795 0
 1266 0024 FB69     		ldr	r3, [r7, #28]
 1267 0026 2BB9     		cbnz	r3, .L160
 796:..\common\tterm/TTerm.c ****             currComp->nextCmd = item;
 1268              		.loc 1 796 0
 1269 0028 EB61     		str	r3, [r5, #28]
 797:..\common\tterm/TTerm.c ****             head->commandLength ++;
 1270              		.loc 1 797 0
 1271 002a FD61     		str	r5, [r7, #28]
 1272              	.L162:
 798:..\common\tterm/TTerm.c ****             return;
ARM GAS  C:\Users\chemi\AppData\Local\Temp\cc0tO343.s 			page 41


 1273              		.loc 1 798 0
 1274 002c 0134     		adds	r4, r4, #1
 1275 002e F460     		str	r4, [r6, #12]
 799:..\common\tterm/TTerm.c ****         }
 1276              		.loc 1 799 0
 1277 0030 BDE8F081 		pop	{r4, r5, r6, r7, r8, pc}
 1278              	.LVL167:
 1279              	.L160:
 801:..\common\tterm/TTerm.c ****         currComp = currComp->nextCmd;
 1280              		.loc 1 801 0
 1281 0034 07F11C08 		add	r8, r7, #28
 1282              	.LVL168:
 1283 0038 1F46     		mov	r7, r3
 1284 003a E9E7     		b	.L157
 1285              	.LVL169:
 1286              	.L163:
 807:..\common\tterm/TTerm.c **** }
 1287              		.loc 1 807 0
 1288 003c 0123     		movs	r3, #1
 805:..\common\tterm/TTerm.c ****     *lastComp = item;
 1289              		.loc 1 805 0
 1290 003e EC61     		str	r4, [r5, #28]
 806:..\common\tterm/TTerm.c ****     head->commandLength ++;
 1291              		.loc 1 806 0
 1292 0040 C8F80050 		str	r5, [r8]
 807:..\common\tterm/TTerm.c **** }
 1293              		.loc 1 807 0
 1294 0044 F360     		str	r3, [r6, #12]
 1295 0046 BDE8F081 		pop	{r4, r5, r6, r7, r8, pc}
 1296              		.cfi_endproc
 1297              	.LFE88:
 1298              		.size	TERM_LIST_add, .-TERM_LIST_add
 1299              		.section	.text.TERM_addCommand,"ax",%progbits
 1300              		.align	1
 1301              		.global	TERM_addCommand
 1302              		.thumb
 1303              		.thumb_func
 1304              		.type	TERM_addCommand, %function
 1305              	TERM_addCommand:
 1306              	.LFB87:
 766:..\common\tterm/TTerm.c ****     if(head->commandLength == 0xff) return 0;
 1307              		.loc 1 766 0
 1308              		.cfi_startproc
 1309              		@ args = 4, pretend = 0, frame = 0
 1310              		@ frame_needed = 0, uses_anonymous_args = 0
 1311              	.LVL170:
 1312 0000 2DE9F843 		push	{r3, r4, r5, r6, r7, r8, r9, lr}
 1313              		.cfi_def_cfa_offset 32
 1314              		.cfi_offset 3, -32
 1315              		.cfi_offset 4, -28
 1316              		.cfi_offset 5, -24
 1317              		.cfi_offset 6, -20
 1318              		.cfi_offset 7, -16
 1319              		.cfi_offset 8, -12
 1320              		.cfi_offset 9, -8
 1321              		.cfi_offset 14, -4
 766:..\common\tterm/TTerm.c ****     if(head->commandLength == 0xff) return 0;
ARM GAS  C:\Users\chemi\AppData\Local\Temp\cc0tO343.s 			page 42


 1322              		.loc 1 766 0
 1323 0004 089D     		ldr	r5, [sp, #32]
 1324 0006 1F46     		mov	r7, r3
 767:..\common\tterm/TTerm.c ****     
 1325              		.loc 1 767 0
 1326 0008 EB68     		ldr	r3, [r5, #12]
 1327              	.LVL171:
 766:..\common\tterm/TTerm.c ****     if(head->commandLength == 0xff) return 0;
 1328              		.loc 1 766 0
 1329 000a 8046     		mov	r8, r0
 767:..\common\tterm/TTerm.c ****     
 1330              		.loc 1 767 0
 1331 000c FF2B     		cmp	r3, #255
 766:..\common\tterm/TTerm.c ****     if(head->commandLength == 0xff) return 0;
 1332              		.loc 1 766 0
 1333 000e 0E46     		mov	r6, r1
 1334 0010 9146     		mov	r9, r2
 767:..\common\tterm/TTerm.c ****     
 1335              		.loc 1 767 0
 1336 0012 16D0     		beq	.L166
 769:..\common\tterm/TTerm.c ****     
 1337              		.loc 1 769 0
 1338 0014 2020     		movs	r0, #32
 1339              	.LVL172:
 1340 0016 FFF7FEFF 		bl	pvPortMalloc
 1341              	.LVL173:
 1342 001a 0446     		mov	r4, r0
 1343              	.LVL174:
 771:..\common\tterm/TTerm.c ****     newCMD->commandDescription = description;
 1344              		.loc 1 771 0
 1345 001c 4660     		str	r6, [r0, #4]
 772:..\common\tterm/TTerm.c ****     newCMD->commandLength = strlen(command);
 1346              		.loc 1 772 0
 1347 001e C0F80890 		str	r9, [r0, #8]
 773:..\common\tterm/TTerm.c ****     newCMD->function = function;
 1348              		.loc 1 773 0
 1349 0022 3046     		mov	r0, r6
 1350              	.LVL175:
 1351 0024 FFF7FEFF 		bl	strlen
 1352              	.LVL176:
 776:..\common\tterm/TTerm.c ****     
 1353              		.loc 1 776 0
 1354 0028 0023     		movs	r3, #0
 773:..\common\tterm/TTerm.c ****     newCMD->function = function;
 1355              		.loc 1 773 0
 1356 002a E060     		str	r0, [r4, #12]
 774:..\common\tterm/TTerm.c ****     newCMD->minPermissionLevel = minPermissionLevel;
 1357              		.loc 1 774 0
 1358 002c C4F80080 		str	r8, [r4]
 778:..\common\tterm/TTerm.c ****     return newCMD;
 1359              		.loc 1 778 0
 1360 0030 2046     		mov	r0, r4
 775:..\common\tterm/TTerm.c ****     newCMD->ACHandler = 0;
 1361              		.loc 1 775 0
 1362 0032 2774     		strb	r7, [r4, #16]
 776:..\common\tterm/TTerm.c ****     
 1363              		.loc 1 776 0
ARM GAS  C:\Users\chemi\AppData\Local\Temp\cc0tO343.s 			page 43


 1364 0034 6361     		str	r3, [r4, #20]
 778:..\common\tterm/TTerm.c ****     return newCMD;
 1365              		.loc 1 778 0
 1366 0036 2946     		mov	r1, r5
 1367 0038 FFF7FEFF 		bl	TERM_LIST_add
 1368              	.LVL177:
 779:..\common\tterm/TTerm.c **** }
 1369              		.loc 1 779 0
 1370 003c 2046     		mov	r0, r4
 1371 003e BDE8F883 		pop	{r3, r4, r5, r6, r7, r8, r9, pc}
 1372              	.LVL178:
 1373              	.L166:
 767:..\common\tterm/TTerm.c ****     
 1374              		.loc 1 767 0
 1375 0042 0020     		movs	r0, #0
 1376              	.LVL179:
 780:..\common\tterm/TTerm.c **** 
 1377              		.loc 1 780 0
 1378 0044 BDE8F883 		pop	{r3, r4, r5, r6, r7, r8, r9, pc}
 1379              		.cfi_endproc
 1380              	.LFE87:
 1381              		.size	TERM_addCommand, .-TERM_addCommand
 1382              		.section	.text.TERM_setCursorPos,"ax",%progbits
 1383              		.align	1
 1384              		.global	TERM_setCursorPos
 1385              		.thumb
 1386              		.thumb_func
 1387              		.type	TERM_setCursorPos, %function
 1388              	TERM_setCursorPos:
 1389              	.LFB92:
 879:..\common\tterm/TTerm.c **** 
 880:..\common\tterm/TTerm.c **** void TERM_Box(TERMINAL_HANDLE * handle, uint8_t row1, uint8_t col1, uint8_t row2, uint8_t col2) {
 881:..\common\tterm/TTerm.c **** 	TERM_setCursorPos(handle, row1, col1);
 882:..\common\tterm/TTerm.c **** 	TERM_sendVT100Code(handle, _VT100_BACKGROUND_COLOR, _VT100_BLUE);
 883:..\common\tterm/TTerm.c **** 	ttprintf("\xE2\x95\x94"); //edge upper left
 884:..\common\tterm/TTerm.c **** 	int i = 0;
 885:..\common\tterm/TTerm.c **** 	for (i = 1; i < (col2 - col1); i++) {
 886:..\common\tterm/TTerm.c **** 		ttprintf("\xE2\x95\x90"); //=
 887:..\common\tterm/TTerm.c **** 	}
 888:..\common\tterm/TTerm.c **** 	ttprintf("\xE2\x95\x97"); //edge upper right
 889:..\common\tterm/TTerm.c **** 	for (i = 1; i < (row2 - row1); i++) {
 890:..\common\tterm/TTerm.c **** 		TERM_setCursorPos(handle, row1 + i, col1);
 891:..\common\tterm/TTerm.c **** 		ttprintf("\xE2\x95\x91"); //left ||
 892:..\common\tterm/TTerm.c **** 		TERM_setCursorPos(handle, row1 + i, col2);
 893:..\common\tterm/TTerm.c **** 		ttprintf("\xE2\x95\x91"); //right ||
 894:..\common\tterm/TTerm.c **** 	}
 895:..\common\tterm/TTerm.c **** 	TERM_setCursorPos(handle, row2, col1);
 896:..\common\tterm/TTerm.c **** 	ttprintf("\xE2\x95\x9A"); //edge lower left
 897:..\common\tterm/TTerm.c **** 	for (i = 1; i < (col2 - col1); i++) {
 898:..\common\tterm/TTerm.c **** 		ttprintf("\xE2\x95\x90"); //=
 899:..\common\tterm/TTerm.c **** 	}
 900:..\common\tterm/TTerm.c **** 	ttprintf("\xE2\x95\x9D"); //edge lower right
 901:..\common\tterm/TTerm.c **** 	TERM_sendVT100Code(handle, _VT100_FOREGROUND_COLOR, _VT100_WHITE);
 902:..\common\tterm/TTerm.c **** }
 903:..\common\tterm/TTerm.c **** 
 904:..\common\tterm/TTerm.c **** void TERM_setCursorPos(TERMINAL_HANDLE * handle, uint16_t row, uint16_t column){
 1390              		.loc 1 904 0
ARM GAS  C:\Users\chemi\AppData\Local\Temp\cc0tO343.s 			page 44


 1391              		.cfi_startproc
 1392              		@ args = 0, pretend = 0, frame = 0
 1393              		@ frame_needed = 0, uses_anonymous_args = 0
 1394              		@ link register save eliminated.
 1395              	.LVL180:
 1396 0000 10B4     		push	{r4}
 1397              		.cfi_def_cfa_offset 4
 1398              		.cfi_offset 4, -4
 905:..\common\tterm/TTerm.c ****     ttprintf(ESC_STR "[%i;%iH", row, column);
 1399              		.loc 1 905 0
 1400 0002 446A     		ldr	r4, [r0, #36]
 1401 0004 1346     		mov	r3, r2
 1402 0006 A446     		mov	ip, r4
 1403 0008 0A46     		mov	r2, r1
 1404              	.LVL181:
 1405 000a 4068     		ldr	r0, [r0, #4]
 1406              	.LVL182:
 1407 000c 0149     		ldr	r1, .L168
 1408              	.LVL183:
 906:..\common\tterm/TTerm.c **** }
 1409              		.loc 1 906 0
 1410 000e 10BC     		pop	{r4}
 1411              		.cfi_restore 4
 1412              		.cfi_def_cfa_offset 0
 905:..\common\tterm/TTerm.c ****     ttprintf(ESC_STR "[%i;%iH", row, column);
 1413              		.loc 1 905 0
 1414 0010 6047     		bx	ip
 1415              	.LVL184:
 1416              	.L169:
 1417 0012 00BF     		.align	2
 1418              	.L168:
 1419 0014 BC000000 		.word	.LC6
 1420              		.cfi_endproc
 1421              	.LFE92:
 1422              		.size	TERM_setCursorPos, .-TERM_setCursorPos
 1423              		.section	.text.TERM_sendVT100Code,"ax",%progbits
 1424              		.align	1
 1425              		.global	TERM_sendVT100Code
 1426              		.thumb
 1427              		.thumb_func
 1428              		.type	TERM_sendVT100Code, %function
 1429              	TERM_sendVT100Code:
 1430              	.LFB93:
 907:..\common\tterm/TTerm.c **** 
 908:..\common\tterm/TTerm.c **** void TERM_sendVT100Code(TERMINAL_HANDLE * handle, uint16_t cmd, uint8_t var){
 1431              		.loc 1 908 0
 1432              		.cfi_startproc
 1433              		@ args = 0, pretend = 0, frame = 0
 1434              		@ frame_needed = 0, uses_anonymous_args = 0
 1435              		@ link register save eliminated.
 1436              	.LVL185:
 909:..\common\tterm/TTerm.c ****     switch(cmd){
 1437              		.loc 1 909 0
 1438 0000 0E29     		cmp	r1, #14
 908:..\common\tterm/TTerm.c ****     switch(cmd){
 1439              		.loc 1 908 0
 1440 0002 10B4     		push	{r4}
ARM GAS  C:\Users\chemi\AppData\Local\Temp\cc0tO343.s 			page 45


 1441              		.cfi_def_cfa_offset 4
 1442              		.cfi_offset 4, -4
 1443              		.loc 1 909 0
 1444 0004 00F0C480 		beq	.L172
 1445 0008 23D8     		bhi	.L173
 1446 000a 0629     		cmp	r1, #6
 1447 000c 00F09680 		beq	.L174
 1448 0010 0DD8     		bhi	.L175
 1449 0012 0229     		cmp	r1, #2
 1450 0014 79D0     		beq	.L176
 1451 0016 04D8     		bhi	.L177
 1452 0018 0029     		cmp	r1, #0
 1453 001a 66D0     		beq	.L178
 1454 001c 0129     		cmp	r1, #1
 1455 001e 6CD0     		beq	.L179
 1456 0020 FFE0     		b	.L170
 1457              	.L177:
 1458 0022 0429     		cmp	r1, #4
 1459 0024 D0F88830 		ldr	r3, [r0, #136]
 1460 0028 7ED0     		beq	.L180
 1461 002a 76D9     		bls	.L299
 1462 002c 81E0     		b	.L307
 1463              	.L175:
 1464 002e 0A29     		cmp	r1, #10
 1465 0030 D0F88830 		ldr	r3, [r0, #136]
 1466 0034 00F09880 		beq	.L183
 1467 0038 05D8     		bhi	.L184
 1468 003a 0829     		cmp	r1, #8
 1469 003c 00F08A80 		beq	.L185
 1470 0040 40F28380 		bls	.L300
 1471 0044 8BE0     		b	.L308
 1472              	.L184:
 1473 0046 0C29     		cmp	r1, #12
 1474 0048 00F09880 		beq	.L188
 1475 004c 40F29180 		bls	.L301
 1476 0050 99E0     		b	.L309
 1477              	.L173:
 1478 0052 1729     		cmp	r1, #23
 1479 0054 00F0C580 		beq	.L191
 1480 0058 14D8     		bhi	.L192
 1481 005a 1229     		cmp	r1, #18
 1482 005c 00F0AE80 		beq	.L193
 1483 0060 07D8     		bhi	.L194
 1484 0062 1029     		cmp	r1, #16
 1485 0064 D0F88830 		ldr	r3, [r0, #136]
 1486 0068 00F09E80 		beq	.L195
 1487 006c 40F29780 		bls	.L302
 1488 0070 9FE0     		b	.L310
 1489              	.L194:
 1490 0072 1429     		cmp	r1, #20
 1491 0074 00F0CD80 		beq	.L198
 1492 0078 C0F0A780 		bcc	.L199
 1493 007c 1629     		cmp	r1, #22
 1494 007e 00F0AA80 		beq	.L200
 1495 0082 CEE0     		b	.L170
 1496              	.L192:
 1497 0084 1B29     		cmp	r1, #27
ARM GAS  C:\Users\chemi\AppData\Local\Temp\cc0tO343.s 			page 46


 1498 0086 00F0BE80 		beq	.L201
 1499 008a 07D8     		bhi	.L202
 1500 008c 1929     		cmp	r1, #25
 1501 008e D0F88830 		ldr	r3, [r0, #136]
 1502 0092 00F0B080 		beq	.L203
 1503 0096 40F2AA80 		bls	.L303
 1504 009a B0E0     		b	.L311
 1505              	.L202:
 1506 009c 41F20303 		movw	r3, #4099
 1507 00a0 9942     		cmp	r1, r3
 1508 00a2 18D0     		beq	.L206
 1509 00a4 41F20403 		movw	r3, #4100
 1510 00a8 9942     		cmp	r1, r3
 1511 00aa 0CD0     		beq	.L207
 1512 00ac B1F5805F 		cmp	r1, #4096
 1513 00b0 40F0B780 		bne	.L170
 910:..\common\tterm/TTerm.c ****         case _VT100_RESET:
 911:..\common\tterm/TTerm.c ****             ttprintfEcho("%cc", 0x1b);
 1514              		.loc 1 911 0
 1515 00b4 D0F88830 		ldr	r3, [r0, #136]
 1516 00b8 002B     		cmp	r3, #0
 1517 00ba 00F0B280 		beq	.L170
 1518              		.loc 1 911 0 is_stmt 0 discriminator 1
 1519 00be 436A     		ldr	r3, [r0, #36]
 1520 00c0 1B22     		movs	r2, #27
 1521              	.LVL186:
 1522 00c2 5949     		ldr	r1, .L312
 1523              	.LVL187:
 1524 00c4 AAE0     		b	.L304
 1525              	.LVL188:
 1526              	.L207:
 912:..\common\tterm/TTerm.c ****             break;
 913:..\common\tterm/TTerm.c ****         case _VT100_CURSOR_BACK:
 914:..\common\tterm/TTerm.c ****             ttprintfEcho("\x1b[D");
 1527              		.loc 1 914 0 is_stmt 1
 1528 00c6 D0F88830 		ldr	r3, [r0, #136]
 1529 00ca 002B     		cmp	r3, #0
 1530 00cc 00F0A980 		beq	.L170
 1531              		.loc 1 914 0 is_stmt 0 discriminator 1
 1532 00d0 436A     		ldr	r3, [r0, #36]
 1533 00d2 5649     		ldr	r1, .L312+4
 1534              	.LVL189:
 1535 00d4 06E0     		b	.L305
 1536              	.LVL190:
 1537              	.L206:
 915:..\common\tterm/TTerm.c ****             break;
 916:..\common\tterm/TTerm.c ****         case _VT100_CURSOR_FORWARD:
 917:..\common\tterm/TTerm.c ****             ttprintfEcho("\x1b[C");
 1538              		.loc 1 917 0 is_stmt 1
 1539 00d6 D0F88830 		ldr	r3, [r0, #136]
 1540 00da 002B     		cmp	r3, #0
 1541 00dc 00F0A180 		beq	.L170
 1542              		.loc 1 917 0 is_stmt 0 discriminator 1
 1543 00e0 436A     		ldr	r3, [r0, #36]
 1544 00e2 5349     		ldr	r1, .L312+8
 1545              	.LVL191:
 1546              	.L305:
ARM GAS  C:\Users\chemi\AppData\Local\Temp\cc0tO343.s 			page 47


 1547 00e4 4068     		ldr	r0, [r0, #4]
 1548              	.LVL192:
 918:..\common\tterm/TTerm.c ****             break;
 919:..\common\tterm/TTerm.c ****         case _VT100_CURSOR_POS1:
 920:..\common\tterm/TTerm.c ****             ttprintfEcho("\x1b[H");
 921:..\common\tterm/TTerm.c ****             break;
 922:..\common\tterm/TTerm.c ****         case _VT100_CURSOR_END:
 923:..\common\tterm/TTerm.c ****             ttprintfEcho("\x1b[F");
 924:..\common\tterm/TTerm.c ****             break;
 925:..\common\tterm/TTerm.c ****         case _VT100_FOREGROUND_COLOR:
 926:..\common\tterm/TTerm.c ****             ttprintfEcho("\x1b[%dm", var+30);
 927:..\common\tterm/TTerm.c ****             break;
 928:..\common\tterm/TTerm.c ****         case _VT100_BACKGROUND_COLOR:
 929:..\common\tterm/TTerm.c ****             ttprintfEcho("\x1b[%dm", var+40);
 930:..\common\tterm/TTerm.c ****             break;
 931:..\common\tterm/TTerm.c ****         case _VT100_RESET_ATTRIB:
 932:..\common\tterm/TTerm.c ****             ttprintfEcho("\x1b[0m");
 933:..\common\tterm/TTerm.c ****             break;
 934:..\common\tterm/TTerm.c ****         case _VT100_BRIGHT:
 935:..\common\tterm/TTerm.c ****             ttprintfEcho("\x1b[1m");
 936:..\common\tterm/TTerm.c ****             break;
 937:..\common\tterm/TTerm.c ****         case _VT100_DIM:
 938:..\common\tterm/TTerm.c ****             ttprintfEcho("\x1b[2m");
 939:..\common\tterm/TTerm.c ****             break;
 940:..\common\tterm/TTerm.c ****         case _VT100_UNDERSCORE:
 941:..\common\tterm/TTerm.c ****             ttprintfEcho("\x1b[4m");
 942:..\common\tterm/TTerm.c ****             break;
 943:..\common\tterm/TTerm.c ****         case _VT100_BLINK:
 944:..\common\tterm/TTerm.c ****             ttprintfEcho("\x1b[5m");
 945:..\common\tterm/TTerm.c ****             break;
 946:..\common\tterm/TTerm.c ****         case _VT100_REVERSE:
 947:..\common\tterm/TTerm.c ****             ttprintfEcho("\x1b[7m");
 948:..\common\tterm/TTerm.c ****             break;
 949:..\common\tterm/TTerm.c ****         case _VT100_HIDDEN:
 950:..\common\tterm/TTerm.c ****             ttprintfEcho("\x1b[8m");
 951:..\common\tterm/TTerm.c ****             break;
 952:..\common\tterm/TTerm.c ****         case _VT100_ERASE_SCREEN:
 953:..\common\tterm/TTerm.c ****             ttprintfEcho("\x1b[2J");
 954:..\common\tterm/TTerm.c ****             break;
 955:..\common\tterm/TTerm.c ****         case _VT100_ERASE_LINE:
 956:..\common\tterm/TTerm.c ****             ttprintfEcho("\x1b[2K");
 957:..\common\tterm/TTerm.c ****             break;
 958:..\common\tterm/TTerm.c ****         case _VT100_FONT_G0:
 959:..\common\tterm/TTerm.c ****             ttprintfEcho("\x1b(");
 960:..\common\tterm/TTerm.c ****             break;
 961:..\common\tterm/TTerm.c ****         case _VT100_FONT_G1:
 962:..\common\tterm/TTerm.c ****             ttprintfEcho("\x1b)");
 963:..\common\tterm/TTerm.c ****             break;
 964:..\common\tterm/TTerm.c ****         case _VT100_WRAP_ON:
 965:..\common\tterm/TTerm.c ****             ttprintfEcho("\x1b[7h");
 966:..\common\tterm/TTerm.c ****             break;
 967:..\common\tterm/TTerm.c ****         case _VT100_WRAP_OFF:
 968:..\common\tterm/TTerm.c ****             ttprintfEcho("\x1b[7l");
 969:..\common\tterm/TTerm.c ****             break;
 970:..\common\tterm/TTerm.c ****         case _VT100_ERASE_LINE_END:
 971:..\common\tterm/TTerm.c ****             ttprintfEcho("\x1b[K");
 972:..\common\tterm/TTerm.c ****             break;
ARM GAS  C:\Users\chemi\AppData\Local\Temp\cc0tO343.s 			page 48


 973:..\common\tterm/TTerm.c ****         case _VT100_CURSOR_BACK_BY:
 974:..\common\tterm/TTerm.c ****             ttprintfEcho("\x1b[%dD", var);
 975:..\common\tterm/TTerm.c ****             break;
 976:..\common\tterm/TTerm.c ****         case _VT100_CURSOR_FORWARD_BY:
 977:..\common\tterm/TTerm.c ****             ttprintfEcho("\x1b[%dC", var);
 978:..\common\tterm/TTerm.c ****             break;
 979:..\common\tterm/TTerm.c ****         case _VT100_CURSOR_SAVE_POSITION:
 980:..\common\tterm/TTerm.c ****             ttprintfEcho("\x1b" "7");
 981:..\common\tterm/TTerm.c ****             break;
 982:..\common\tterm/TTerm.c ****         case _VT100_CURSOR_RESTORE_POSITION:
 983:..\common\tterm/TTerm.c ****             ttprintfEcho("\x1b" "8");
 984:..\common\tterm/TTerm.c ****             break;
 985:..\common\tterm/TTerm.c ****         case _VT100_CURSOR_ENABLE:
 986:..\common\tterm/TTerm.c ****             ttprintfEcho("\x1b[?25h");
 987:..\common\tterm/TTerm.c ****             break;
 988:..\common\tterm/TTerm.c ****         case _VT100_CURSOR_DISABLE:
 989:..\common\tterm/TTerm.c ****             ttprintfEcho("\x1b[?25l");
 990:..\common\tterm/TTerm.c ****             break;
 991:..\common\tterm/TTerm.c ****         case _VT100_CURSOR_SET_COLUMN:
 992:..\common\tterm/TTerm.c ****             ttprintfEcho(ESC_STR "[%i`", var);
 993:..\common\tterm/TTerm.c ****             break;
 994:..\common\tterm/TTerm.c ****         case _VT100_CLS:
 995:..\common\tterm/TTerm.c ****             ttprintfEcho("\x1b[2J\033[1;1H");
 996:..\common\tterm/TTerm.c ****             break;
 997:..\common\tterm/TTerm.c ****         case _VT100_CURSOR_DOWN_BY:
 998:..\common\tterm/TTerm.c ****             ttprintfEcho("\x1b[%dB", var);
 999:..\common\tterm/TTerm.c ****             break;
1000:..\common\tterm/TTerm.c ****             
1001:..\common\tterm/TTerm.c ****     }
1002:..\common\tterm/TTerm.c **** }
 1549              		.loc 1 1002 0 is_stmt 1 discriminator 1
 1550 00e6 10BC     		pop	{r4}
 1551              		.cfi_remember_state
 1552              		.cfi_restore 4
 1553              		.cfi_def_cfa_offset 0
 917:..\common\tterm/TTerm.c ****             break;
 1554              		.loc 1 917 0 discriminator 1
 1555 00e8 1847     		bx	r3
 1556              	.LVL193:
 1557              	.L178:
 1558              		.cfi_restore_state
 920:..\common\tterm/TTerm.c ****             break;
 1559              		.loc 1 920 0
 1560 00ea D0F88830 		ldr	r3, [r0, #136]
 1561 00ee 002B     		cmp	r3, #0
 1562 00f0 00F09780 		beq	.L170
 920:..\common\tterm/TTerm.c ****             break;
 1563              		.loc 1 920 0 is_stmt 0 discriminator 1
 1564 00f4 436A     		ldr	r3, [r0, #36]
 1565 00f6 4F49     		ldr	r1, .L312+12
 1566              	.LVL194:
 1567 00f8 F4E7     		b	.L305
 1568              	.LVL195:
 1569              	.L179:
 923:..\common\tterm/TTerm.c ****             break;
 1570              		.loc 1 923 0 is_stmt 1
 1571 00fa D0F88830 		ldr	r3, [r0, #136]
ARM GAS  C:\Users\chemi\AppData\Local\Temp\cc0tO343.s 			page 49


 1572 00fe 002B     		cmp	r3, #0
 1573 0100 00F08F80 		beq	.L170
 923:..\common\tterm/TTerm.c ****             break;
 1574              		.loc 1 923 0 is_stmt 0 discriminator 1
 1575 0104 436A     		ldr	r3, [r0, #36]
 1576 0106 4C49     		ldr	r1, .L312+16
 1577              	.LVL196:
 1578 0108 ECE7     		b	.L305
 1579              	.LVL197:
 1580              	.L176:
 926:..\common\tterm/TTerm.c ****             break;
 1581              		.loc 1 926 0 is_stmt 1
 1582 010a D0F88830 		ldr	r3, [r0, #136]
 1583 010e 002B     		cmp	r3, #0
 1584 0110 00F08780 		beq	.L170
 926:..\common\tterm/TTerm.c ****             break;
 1585              		.loc 1 926 0 is_stmt 0 discriminator 1
 1586 0114 436A     		ldr	r3, [r0, #36]
 1587 0116 1E32     		adds	r2, r2, #30
 1588              	.LVL198:
 1589 0118 04E0     		b	.L306
 1590              	.LVL199:
 1591              	.L299:
 929:..\common\tterm/TTerm.c ****             break;
 1592              		.loc 1 929 0 is_stmt 1
 1593 011a 002B     		cmp	r3, #0
 1594 011c 00F08180 		beq	.L170
 929:..\common\tterm/TTerm.c ****             break;
 1595              		.loc 1 929 0 is_stmt 0 discriminator 1
 1596 0120 436A     		ldr	r3, [r0, #36]
 1597 0122 2832     		adds	r2, r2, #40
 1598              	.LVL200:
 1599              	.L306:
 1600 0124 4549     		ldr	r1, .L312+20
 1601              	.LVL201:
 1602 0126 79E0     		b	.L304
 1603              	.LVL202:
 1604              	.L180:
 932:..\common\tterm/TTerm.c ****             break;
 1605              		.loc 1 932 0 is_stmt 1
 1606 0128 002B     		cmp	r3, #0
 1607 012a 7AD0     		beq	.L170
 932:..\common\tterm/TTerm.c ****             break;
 1608              		.loc 1 932 0 is_stmt 0 discriminator 1
 1609 012c 436A     		ldr	r3, [r0, #36]
 1610 012e 4449     		ldr	r1, .L312+24
 1611              	.LVL203:
 1612 0130 D8E7     		b	.L305
 1613              	.LVL204:
 1614              	.L307:
 935:..\common\tterm/TTerm.c ****             break;
 1615              		.loc 1 935 0 is_stmt 1
 1616 0132 002B     		cmp	r3, #0
 1617 0134 75D0     		beq	.L170
 935:..\common\tterm/TTerm.c ****             break;
 1618              		.loc 1 935 0 is_stmt 0 discriminator 1
 1619 0136 436A     		ldr	r3, [r0, #36]
ARM GAS  C:\Users\chemi\AppData\Local\Temp\cc0tO343.s 			page 50


 1620 0138 4249     		ldr	r1, .L312+28
 1621              	.LVL205:
 1622 013a D3E7     		b	.L305
 1623              	.LVL206:
 1624              	.L174:
 938:..\common\tterm/TTerm.c ****             break;
 1625              		.loc 1 938 0 is_stmt 1
 1626 013c D0F88830 		ldr	r3, [r0, #136]
 1627 0140 002B     		cmp	r3, #0
 1628 0142 6ED0     		beq	.L170
 938:..\common\tterm/TTerm.c ****             break;
 1629              		.loc 1 938 0 is_stmt 0 discriminator 1
 1630 0144 436A     		ldr	r3, [r0, #36]
 1631 0146 4049     		ldr	r1, .L312+32
 1632              	.LVL207:
 1633 0148 CCE7     		b	.L305
 1634              	.LVL208:
 1635              	.L300:
 941:..\common\tterm/TTerm.c ****             break;
 1636              		.loc 1 941 0 is_stmt 1
 1637 014a 002B     		cmp	r3, #0
 1638 014c 69D0     		beq	.L170
 941:..\common\tterm/TTerm.c ****             break;
 1639              		.loc 1 941 0 is_stmt 0 discriminator 1
 1640 014e 436A     		ldr	r3, [r0, #36]
 1641 0150 3E49     		ldr	r1, .L312+36
 1642              	.LVL209:
 1643 0152 C7E7     		b	.L305
 1644              	.LVL210:
 1645              	.L185:
 944:..\common\tterm/TTerm.c ****             break;
 1646              		.loc 1 944 0 is_stmt 1
 1647 0154 002B     		cmp	r3, #0
 1648 0156 64D0     		beq	.L170
 944:..\common\tterm/TTerm.c ****             break;
 1649              		.loc 1 944 0 is_stmt 0 discriminator 1
 1650 0158 436A     		ldr	r3, [r0, #36]
 1651 015a 3D49     		ldr	r1, .L312+40
 1652              	.LVL211:
 1653 015c C2E7     		b	.L305
 1654              	.LVL212:
 1655              	.L308:
 947:..\common\tterm/TTerm.c ****             break;
 1656              		.loc 1 947 0 is_stmt 1
 1657 015e 002B     		cmp	r3, #0
 1658 0160 5FD0     		beq	.L170
 947:..\common\tterm/TTerm.c ****             break;
 1659              		.loc 1 947 0 is_stmt 0 discriminator 1
 1660 0162 436A     		ldr	r3, [r0, #36]
 1661 0164 3B49     		ldr	r1, .L312+44
 1662              	.LVL213:
 1663 0166 BDE7     		b	.L305
 1664              	.LVL214:
 1665              	.L183:
 950:..\common\tterm/TTerm.c ****             break;
 1666              		.loc 1 950 0 is_stmt 1
 1667 0168 002B     		cmp	r3, #0
ARM GAS  C:\Users\chemi\AppData\Local\Temp\cc0tO343.s 			page 51


 1668 016a 5AD0     		beq	.L170
 950:..\common\tterm/TTerm.c ****             break;
 1669              		.loc 1 950 0 is_stmt 0 discriminator 1
 1670 016c 436A     		ldr	r3, [r0, #36]
 1671 016e 3A49     		ldr	r1, .L312+48
 1672              	.LVL215:
 1673 0170 B8E7     		b	.L305
 1674              	.LVL216:
 1675              	.L301:
 953:..\common\tterm/TTerm.c ****             break;
 1676              		.loc 1 953 0 is_stmt 1
 1677 0172 002B     		cmp	r3, #0
 1678 0174 55D0     		beq	.L170
 953:..\common\tterm/TTerm.c ****             break;
 1679              		.loc 1 953 0 is_stmt 0 discriminator 1
 1680 0176 436A     		ldr	r3, [r0, #36]
 1681 0178 3849     		ldr	r1, .L312+52
 1682              	.LVL217:
 1683 017a B3E7     		b	.L305
 1684              	.LVL218:
 1685              	.L188:
 956:..\common\tterm/TTerm.c ****             break;
 1686              		.loc 1 956 0 is_stmt 1
 1687 017c 002B     		cmp	r3, #0
 1688 017e 50D0     		beq	.L170
 956:..\common\tterm/TTerm.c ****             break;
 1689              		.loc 1 956 0 is_stmt 0 discriminator 1
 1690 0180 436A     		ldr	r3, [r0, #36]
 1691 0182 3749     		ldr	r1, .L312+56
 1692              	.LVL219:
 1693 0184 AEE7     		b	.L305
 1694              	.LVL220:
 1695              	.L309:
 959:..\common\tterm/TTerm.c ****             break;
 1696              		.loc 1 959 0 is_stmt 1
 1697 0186 002B     		cmp	r3, #0
 1698 0188 4BD0     		beq	.L170
 959:..\common\tterm/TTerm.c ****             break;
 1699              		.loc 1 959 0 is_stmt 0 discriminator 1
 1700 018a 436A     		ldr	r3, [r0, #36]
 1701 018c 3549     		ldr	r1, .L312+60
 1702              	.LVL221:
 1703 018e A9E7     		b	.L305
 1704              	.LVL222:
 1705              	.L172:
 962:..\common\tterm/TTerm.c ****             break;
 1706              		.loc 1 962 0 is_stmt 1
 1707 0190 D0F88830 		ldr	r3, [r0, #136]
 1708 0194 002B     		cmp	r3, #0
 1709 0196 44D0     		beq	.L170
 962:..\common\tterm/TTerm.c ****             break;
 1710              		.loc 1 962 0 is_stmt 0 discriminator 1
 1711 0198 436A     		ldr	r3, [r0, #36]
 1712 019a 3349     		ldr	r1, .L312+64
 1713              	.LVL223:
 1714 019c A2E7     		b	.L305
 1715              	.LVL224:
ARM GAS  C:\Users\chemi\AppData\Local\Temp\cc0tO343.s 			page 52


 1716              	.L302:
 965:..\common\tterm/TTerm.c ****             break;
 1717              		.loc 1 965 0 is_stmt 1
 1718 019e 002B     		cmp	r3, #0
 1719 01a0 3FD0     		beq	.L170
 965:..\common\tterm/TTerm.c ****             break;
 1720              		.loc 1 965 0 is_stmt 0 discriminator 1
 1721 01a2 436A     		ldr	r3, [r0, #36]
 1722 01a4 3149     		ldr	r1, .L312+68
 1723              	.LVL225:
 1724 01a6 9DE7     		b	.L305
 1725              	.LVL226:
 1726              	.L195:
 968:..\common\tterm/TTerm.c ****             break;
 1727              		.loc 1 968 0 is_stmt 1
 1728 01a8 002B     		cmp	r3, #0
 1729 01aa 3AD0     		beq	.L170
 968:..\common\tterm/TTerm.c ****             break;
 1730              		.loc 1 968 0 is_stmt 0 discriminator 1
 1731 01ac 436A     		ldr	r3, [r0, #36]
 1732 01ae 3049     		ldr	r1, .L312+72
 1733              	.LVL227:
 1734 01b0 98E7     		b	.L305
 1735              	.LVL228:
 1736              	.L310:
 971:..\common\tterm/TTerm.c ****             break;
 1737              		.loc 1 971 0 is_stmt 1
 1738 01b2 002B     		cmp	r3, #0
 1739 01b4 35D0     		beq	.L170
 971:..\common\tterm/TTerm.c ****             break;
 1740              		.loc 1 971 0 is_stmt 0 discriminator 1
 1741 01b6 436A     		ldr	r3, [r0, #36]
 1742 01b8 2E49     		ldr	r1, .L312+76
 1743              	.LVL229:
 1744 01ba 93E7     		b	.L305
 1745              	.LVL230:
 1746              	.L193:
 974:..\common\tterm/TTerm.c ****             break;
 1747              		.loc 1 974 0 is_stmt 1
 1748 01bc D0F88830 		ldr	r3, [r0, #136]
 1749 01c0 002B     		cmp	r3, #0
 1750 01c2 2ED0     		beq	.L170
 974:..\common\tterm/TTerm.c ****             break;
 1751              		.loc 1 974 0 is_stmt 0 discriminator 1
 1752 01c4 436A     		ldr	r3, [r0, #36]
 1753 01c6 2C49     		ldr	r1, .L312+80
 1754              	.LVL231:
 1755 01c8 28E0     		b	.L304
 1756              	.LVL232:
 1757              	.L199:
 977:..\common\tterm/TTerm.c ****             break;
 1758              		.loc 1 977 0 is_stmt 1
 1759 01ca D0F88830 		ldr	r3, [r0, #136]
 1760 01ce 43B3     		cbz	r3, .L170
 977:..\common\tterm/TTerm.c ****             break;
 1761              		.loc 1 977 0 is_stmt 0 discriminator 1
 1762 01d0 436A     		ldr	r3, [r0, #36]
ARM GAS  C:\Users\chemi\AppData\Local\Temp\cc0tO343.s 			page 53


 1763 01d2 2A49     		ldr	r1, .L312+84
 1764              	.LVL233:
 1765 01d4 22E0     		b	.L304
 1766              	.LVL234:
 1767              	.L200:
 980:..\common\tterm/TTerm.c ****             break;
 1768              		.loc 1 980 0 is_stmt 1
 1769 01d6 D0F88830 		ldr	r3, [r0, #136]
 1770 01da 13B3     		cbz	r3, .L170
 980:..\common\tterm/TTerm.c ****             break;
 1771              		.loc 1 980 0 is_stmt 0 discriminator 1
 1772 01dc 436A     		ldr	r3, [r0, #36]
 1773 01de 2849     		ldr	r1, .L312+88
 1774              	.LVL235:
 1775 01e0 80E7     		b	.L305
 1776              	.LVL236:
 1777              	.L191:
 983:..\common\tterm/TTerm.c ****             break;
 1778              		.loc 1 983 0 is_stmt 1
 1779 01e2 D0F88830 		ldr	r3, [r0, #136]
 1780 01e6 E3B1     		cbz	r3, .L170
 983:..\common\tterm/TTerm.c ****             break;
 1781              		.loc 1 983 0 is_stmt 0 discriminator 1
 1782 01e8 436A     		ldr	r3, [r0, #36]
 1783 01ea 2649     		ldr	r1, .L312+92
 1784              	.LVL237:
 1785 01ec 7AE7     		b	.L305
 1786              	.LVL238:
 1787              	.L303:
 986:..\common\tterm/TTerm.c ****             break;
 1788              		.loc 1 986 0 is_stmt 1
 1789 01ee C3B1     		cbz	r3, .L170
 986:..\common\tterm/TTerm.c ****             break;
 1790              		.loc 1 986 0 is_stmt 0 discriminator 1
 1791 01f0 436A     		ldr	r3, [r0, #36]
 1792 01f2 2549     		ldr	r1, .L312+96
 1793              	.LVL239:
 1794 01f4 76E7     		b	.L305
 1795              	.LVL240:
 1796              	.L203:
 989:..\common\tterm/TTerm.c ****             break;
 1797              		.loc 1 989 0 is_stmt 1
 1798 01f6 A3B1     		cbz	r3, .L170
 989:..\common\tterm/TTerm.c ****             break;
 1799              		.loc 1 989 0 is_stmt 0 discriminator 1
 1800 01f8 436A     		ldr	r3, [r0, #36]
 1801 01fa 2449     		ldr	r1, .L312+100
 1802              	.LVL241:
 1803 01fc 72E7     		b	.L305
 1804              	.LVL242:
 1805              	.L311:
 992:..\common\tterm/TTerm.c ****             break;
 1806              		.loc 1 992 0 is_stmt 1
 1807 01fe 83B1     		cbz	r3, .L170
 992:..\common\tterm/TTerm.c ****             break;
 1808              		.loc 1 992 0 is_stmt 0 discriminator 1
 1809 0200 436A     		ldr	r3, [r0, #36]
ARM GAS  C:\Users\chemi\AppData\Local\Temp\cc0tO343.s 			page 54


 1810 0202 2349     		ldr	r1, .L312+104
 1811              	.LVL243:
 1812 0204 0AE0     		b	.L304
 1813              	.LVL244:
 1814              	.L201:
 995:..\common\tterm/TTerm.c ****             break;
 1815              		.loc 1 995 0 is_stmt 1
 1816 0206 D0F88830 		ldr	r3, [r0, #136]
 1817 020a 53B1     		cbz	r3, .L170
 995:..\common\tterm/TTerm.c ****             break;
 1818              		.loc 1 995 0 is_stmt 0 discriminator 1
 1819 020c 436A     		ldr	r3, [r0, #36]
 1820 020e 2149     		ldr	r1, .L312+108
 1821              	.LVL245:
 1822 0210 68E7     		b	.L305
 1823              	.LVL246:
 1824              	.L198:
 998:..\common\tterm/TTerm.c ****             break;
 1825              		.loc 1 998 0 is_stmt 1
 1826 0212 D0F88830 		ldr	r3, [r0, #136]
 1827 0216 23B1     		cbz	r3, .L170
 998:..\common\tterm/TTerm.c ****             break;
 1828              		.loc 1 998 0 is_stmt 0 discriminator 1
 1829 0218 436A     		ldr	r3, [r0, #36]
 1830 021a 1F49     		ldr	r1, .L312+112
 1831              	.LVL247:
 1832              	.L304:
 1833 021c 4068     		ldr	r0, [r0, #4]
 1834              	.LVL248:
 1835              		.loc 1 1002 0 is_stmt 1 discriminator 1
 1836 021e 10BC     		pop	{r4}
 1837              		.cfi_remember_state
 1838              		.cfi_restore 4
 1839              		.cfi_def_cfa_offset 0
 998:..\common\tterm/TTerm.c ****             break;
 1840              		.loc 1 998 0 discriminator 1
 1841 0220 1847     		bx	r3
 1842              	.LVL249:
 1843              	.L170:
 1844              		.cfi_restore_state
 1845              		.loc 1 1002 0
 1846 0222 10BC     		pop	{r4}
 1847              		.cfi_restore 4
 1848              		.cfi_def_cfa_offset 0
 1849 0224 7047     		bx	lr
 1850              	.L313:
 1851 0226 00BF     		.align	2
 1852              	.L312:
 1853 0228 C5000000 		.word	.LC7
 1854 022c C9000000 		.word	.LC8
 1855 0230 CD000000 		.word	.LC9
 1856 0234 D1000000 		.word	.LC10
 1857 0238 D5000000 		.word	.LC11
 1858 023c D9000000 		.word	.LC12
 1859 0240 DF000000 		.word	.LC13
 1860 0244 E4000000 		.word	.LC14
 1861 0248 E9000000 		.word	.LC15
ARM GAS  C:\Users\chemi\AppData\Local\Temp\cc0tO343.s 			page 55


 1862 024c EE000000 		.word	.LC16
 1863 0250 F3000000 		.word	.LC17
 1864 0254 F8000000 		.word	.LC18
 1865 0258 FD000000 		.word	.LC19
 1866 025c 02010000 		.word	.LC20
 1867 0260 07010000 		.word	.LC21
 1868 0264 0C010000 		.word	.LC22
 1869 0268 0F010000 		.word	.LC23
 1870 026c 12010000 		.word	.LC24
 1871 0270 17010000 		.word	.LC25
 1872 0274 1C010000 		.word	.LC26
 1873 0278 20010000 		.word	.LC27
 1874 027c 26010000 		.word	.LC28
 1875 0280 2C010000 		.word	.LC29
 1876 0284 2F010000 		.word	.LC30
 1877 0288 32010000 		.word	.LC31
 1878 028c 39010000 		.word	.LC32
 1879 0290 40010000 		.word	.LC33
 1880 0294 46010000 		.word	.LC34
 1881 0298 51010000 		.word	.LC35
 1882              		.cfi_endproc
 1883              	.LFE93:
 1884              		.size	TERM_sendVT100Code, .-TERM_sendVT100Code
 1885              		.section	.text.TERM_printDebug,"ax",%progbits
 1886              		.align	1
 1887              		.global	TERM_printDebug
 1888              		.thumb
 1889              		.thumb_func
 1890              		.type	TERM_printDebug, %function
 1891              	TERM_printDebug:
 1892              	.LFB71:
 128:..\common\tterm/TTerm.c ****     //TODO make this nicer... we don't need a double buffer allocation, we should instead send the 
 1893              		.loc 1 128 0
 1894              		.cfi_startproc
 1895              		@ args = 4, pretend = 12, frame = 8
 1896              		@ frame_needed = 0, uses_anonymous_args = 1
 1897              	.LVL250:
 1898 0000 0EB4     		push	{r1, r2, r3}
 1899              		.cfi_def_cfa_offset 12
 1900              		.cfi_offset 1, -12
 1901              		.cfi_offset 2, -8
 1902              		.cfi_offset 3, -4
 1903 0002 70B5     		push	{r4, r5, r6, lr}
 1904              		.cfi_def_cfa_offset 28
 1905              		.cfi_offset 4, -28
 1906              		.cfi_offset 5, -24
 1907              		.cfi_offset 6, -20
 1908              		.cfi_offset 14, -16
 1909 0004 85B0     		sub	sp, sp, #20
 1910              		.cfi_def_cfa_offset 48
 128:..\common\tterm/TTerm.c ****     //TODO make this nicer... we don't need a double buffer allocation, we should instead send the 
 1911              		.loc 1 128 0
 1912 0006 09AB     		add	r3, sp, #36
 1913 0008 53F8046B 		ldr	r6, [r3], #4
 1914 000c 0446     		mov	r4, r0
 134:..\common\tterm/TTerm.c ****     vsnprintf(buff, 256,format, arg);
 1915              		.loc 1 134 0
ARM GAS  C:\Users\chemi\AppData\Local\Temp\cc0tO343.s 			page 56


 1916 000e 4FF48070 		mov	r0, #256
 1917              	.LVL251:
 132:..\common\tterm/TTerm.c ****     
 1918              		.loc 1 132 0
 1919 0012 0393     		str	r3, [sp, #12]
 134:..\common\tterm/TTerm.c ****     vsnprintf(buff, 256,format, arg);
 1920              		.loc 1 134 0
 1921 0014 FFF7FEFF 		bl	pvPortMalloc
 1922              	.LVL252:
 135:..\common\tterm/TTerm.c ****     
 1923              		.loc 1 135 0
 1924 0018 039B     		ldr	r3, [sp, #12]
 1925 001a 3246     		mov	r2, r6
 1926 001c 4FF48071 		mov	r1, #256
 134:..\common\tterm/TTerm.c ****     vsnprintf(buff, 256,format, arg);
 1927              		.loc 1 134 0
 1928 0020 0546     		mov	r5, r0
 1929              	.LVL253:
 135:..\common\tterm/TTerm.c ****     
 1930              		.loc 1 135 0
 1931 0022 FFF7FEFF 		bl	vsnprintf
 1932              	.LVL254:
 137:..\common\tterm/TTerm.c ****     
 1933              		.loc 1 137 0
 1934 0026 D4F88830 		ldr	r3, [r4, #136]
 1935 002a 23B1     		cbz	r3, .L315
 137:..\common\tterm/TTerm.c ****     
 1936              		.loc 1 137 0 is_stmt 0 discriminator 1
 1937 002c 636A     		ldr	r3, [r4, #36]
 1938 002e 2A46     		mov	r2, r5
 1939 0030 1549     		ldr	r1, .L330
 1940 0032 6068     		ldr	r0, [r4, #4]
 1941 0034 9847     		blx	r3
 1942              	.LVL255:
 1943              	.L315:
 139:..\common\tterm/TTerm.c ****         ttprintfEcho("%s@%s>", handle->currUserName, TERM_DEVICE_NAME);
 1944              		.loc 1 139 0 is_stmt 1
 1945 0036 E268     		ldr	r2, [r4, #12]
 1946 0038 D4F88830 		ldr	r3, [r4, #136]
 1947 003c 3AB9     		cbnz	r2, .L316
 140:..\common\tterm/TTerm.c ****     }else{
 1948              		.loc 1 140 0
 1949 003e D3B1     		cbz	r3, .L318
 140:..\common\tterm/TTerm.c ****     }else{
 1950              		.loc 1 140 0 is_stmt 0 discriminator 1
 1951 0040 666A     		ldr	r6, [r4, #36]
 1952 0042 124B     		ldr	r3, .L330+4
 1953 0044 A26A     		ldr	r2, [r4, #40]
 1954 0046 1249     		ldr	r1, .L330+8
 1955 0048 6068     		ldr	r0, [r4, #4]
 1956 004a B047     		blx	r6
 1957              	.LVL256:
 1958 004c 13E0     		b	.L318
 1959              	.L316:
 142:..\common\tterm/TTerm.c ****         if(handle->inputBuffer[handle->currBufferPosition] != 0) TERM_sendVT100Code(handle, _VT100_
 1960              		.loc 1 142 0 is_stmt 1
 1961 004e 3BB1     		cbz	r3, .L319
ARM GAS  C:\Users\chemi\AppData\Local\Temp\cc0tO343.s 			page 57


 142:..\common\tterm/TTerm.c ****         if(handle->inputBuffer[handle->currBufferPosition] != 0) TERM_sendVT100Code(handle, _VT100_
 1962              		.loc 1 142 0 is_stmt 0 discriminator 1
 1963 0050 2368     		ldr	r3, [r4]
 1964 0052 666A     		ldr	r6, [r4, #36]
 1965 0054 0093     		str	r3, [sp]
 1966 0056 A26A     		ldr	r2, [r4, #40]
 1967 0058 0C4B     		ldr	r3, .L330+4
 1968 005a 0E49     		ldr	r1, .L330+12
 1969 005c 6068     		ldr	r0, [r4, #4]
 1970 005e B047     		blx	r6
 1971              	.LVL257:
 1972              	.L319:
 143:..\common\tterm/TTerm.c ****     }
 1973              		.loc 1 143 0 is_stmt 1
 1974 0060 A268     		ldr	r2, [r4, #8]
 1975 0062 2368     		ldr	r3, [r4]
 1976 0064 9B5C     		ldrb	r3, [r3, r2]	@ zero_extendqisi2
 1977 0066 33B1     		cbz	r3, .L318
 143:..\common\tterm/TTerm.c ****     }
 1978              		.loc 1 143 0 is_stmt 0 discriminator 1
 1979 0068 E368     		ldr	r3, [r4, #12]
 1980 006a 1221     		movs	r1, #18
 1981 006c 9A1A     		subs	r2, r3, r2
 1982 006e D2B2     		uxtb	r2, r2
 1983 0070 2046     		mov	r0, r4
 1984 0072 FFF7FEFF 		bl	TERM_sendVT100Code
 1985              	.LVL258:
 1986              	.L318:
 146:..\common\tterm/TTerm.c ****     
 1987              		.loc 1 146 0 is_stmt 1
 1988 0076 2846     		mov	r0, r5
 1989 0078 FFF7FEFF 		bl	vPortFree
 1990              	.LVL259:
 149:..\common\tterm/TTerm.c **** 
 1991              		.loc 1 149 0
 1992 007c 05B0     		add	sp, sp, #20
 1993              		.cfi_def_cfa_offset 28
 1994              		@ sp needed
 1995 007e BDE87040 		pop	{r4, r5, r6, lr}
 1996              		.cfi_restore 14
 1997              		.cfi_restore 6
 1998              		.cfi_restore 5
 1999              		.cfi_restore 4
 2000              		.cfi_def_cfa_offset 12
 2001              	.LVL260:
 2002 0082 03B0     		add	sp, sp, #12
 2003              		.cfi_restore 3
 2004              		.cfi_restore 2
 2005              		.cfi_restore 1
 2006              		.cfi_def_cfa_offset 0
 2007 0084 7047     		bx	lr
 2008              	.L331:
 2009 0086 00BF     		.align	2
 2010              	.L330:
 2011 0088 57010000 		.word	.LC36
 2012 008c 00000000 		.word	.LC0
 2013 0090 5C010000 		.word	.LC37
ARM GAS  C:\Users\chemi\AppData\Local\Temp\cc0tO343.s 			page 58


 2014 0094 63010000 		.word	.LC38
 2015              		.cfi_endproc
 2016              	.LFE71:
 2017              		.size	TERM_printDebug, .-TERM_printDebug
 2018              		.section	.text.TERM_printBootMessage,"ax",%progbits
 2019              		.align	1
 2020              		.global	TERM_printBootMessage
 2021              		.thumb
 2022              		.thumb_func
 2023              		.type	TERM_printBootMessage, %function
 2024              	TERM_printBootMessage:
 2025              	.LFB74:
 267:..\common\tterm/TTerm.c ****     TERM_sendVT100Code(handle, _VT100_RESET, 0); TERM_sendVT100Code(handle, _VT100_CURSOR_POS1, 0);
 2026              		.loc 1 267 0
 2027              		.cfi_startproc
 2028              		@ args = 0, pretend = 0, frame = 0
 2029              		@ frame_needed = 0, uses_anonymous_args = 0
 2030              	.LVL261:
 2031 0000 37B5     		push	{r0, r1, r2, r4, r5, lr}
 2032              		.cfi_def_cfa_offset 24
 2033              		.cfi_offset 4, -12
 2034              		.cfi_offset 5, -8
 2035              		.cfi_offset 14, -4
 267:..\common\tterm/TTerm.c ****     TERM_sendVT100Code(handle, _VT100_RESET, 0); TERM_sendVT100Code(handle, _VT100_CURSOR_POS1, 0);
 2036              		.loc 1 267 0
 2037 0002 0446     		mov	r4, r0
 268:..\common\tterm/TTerm.c ****     ttprintfEcho("\33[?7l\r\n\n\n%s\r\n", TERM_startupText1);
 2038              		.loc 1 268 0
 2039 0004 0022     		movs	r2, #0
 2040 0006 4FF48051 		mov	r1, #4096
 2041 000a FFF7FEFF 		bl	TERM_sendVT100Code
 2042              	.LVL262:
 2043 000e 0022     		movs	r2, #0
 2044 0010 1146     		mov	r1, r2
 2045 0012 2046     		mov	r0, r4
 2046 0014 FFF7FEFF 		bl	TERM_sendVT100Code
 2047              	.LVL263:
 2048 0018 0022     		movs	r2, #0
 2049 001a 1021     		movs	r1, #16
 2050 001c 2046     		mov	r0, r4
 2051 001e FFF7FEFF 		bl	TERM_sendVT100Code
 2052              	.LVL264:
 269:..\common\tterm/TTerm.c ****     ttprintfEcho("%s\r\n", TERM_startupText2);
 2053              		.loc 1 269 0
 2054 0022 D4F88830 		ldr	r3, [r4, #136]
 2055 0026 23B1     		cbz	r3, .L333
 269:..\common\tterm/TTerm.c ****     ttprintfEcho("%s\r\n", TERM_startupText2);
 2056              		.loc 1 269 0 is_stmt 0 discriminator 1
 2057 0028 636A     		ldr	r3, [r4, #36]
 2058 002a 1E4A     		ldr	r2, .L356
 2059 002c 1E49     		ldr	r1, .L356+4
 2060 002e 6068     		ldr	r0, [r4, #4]
 2061 0030 9847     		blx	r3
 2062              	.LVL265:
 2063              	.L333:
 270:..\common\tterm/TTerm.c ****     ttprintfEcho("%s\r\n", TERM_startupText3);
 2064              		.loc 1 270 0 is_stmt 1
ARM GAS  C:\Users\chemi\AppData\Local\Temp\cc0tO343.s 			page 59


 2065 0032 D4F88830 		ldr	r3, [r4, #136]
 2066 0036 23B1     		cbz	r3, .L334
 270:..\common\tterm/TTerm.c ****     ttprintfEcho("%s\r\n", TERM_startupText3);
 2067              		.loc 1 270 0 is_stmt 0 discriminator 1
 2068 0038 636A     		ldr	r3, [r4, #36]
 2069 003a 1C4A     		ldr	r2, .L356+8
 2070 003c 1C49     		ldr	r1, .L356+12
 2071 003e 6068     		ldr	r0, [r4, #4]
 2072 0040 9847     		blx	r3
 2073              	.LVL266:
 2074              	.L334:
 271:..\common\tterm/TTerm.c ****     
 2075              		.loc 1 271 0 is_stmt 1
 2076 0042 D4F88830 		ldr	r3, [r4, #136]
 2077 0046 23B1     		cbz	r3, .L335
 271:..\common\tterm/TTerm.c ****     
 2078              		.loc 1 271 0 is_stmt 0 discriminator 1
 2079 0048 636A     		ldr	r3, [r4, #36]
 2080 004a 1A4A     		ldr	r2, .L356+16
 2081 004c 1849     		ldr	r1, .L356+12
 2082 004e 6068     		ldr	r0, [r4, #4]
 2083 0050 9847     		blx	r3
 2084              	.LVL267:
 2085              	.L335:
 273:..\common\tterm/TTerm.c ****         ttprintfEcho("\r\n\r\n%s@%s>", handle->currUserName, TERM_DEVICE_NAME);
 2086              		.loc 1 273 0 is_stmt 1
 2087 0052 E268     		ldr	r2, [r4, #12]
 2088 0054 D4F88830 		ldr	r3, [r4, #136]
 2089 0058 52B9     		cbnz	r2, .L336
 274:..\common\tterm/TTerm.c ****     }else{
 2090              		.loc 1 274 0
 2091 005a 03B3     		cbz	r3, .L332
 274:..\common\tterm/TTerm.c ****     }else{
 2092              		.loc 1 274 0 is_stmt 0 discriminator 1
 2093 005c 656A     		ldr	r5, [r4, #36]
 2094 005e 164B     		ldr	r3, .L356+20
 2095 0060 AC46     		mov	ip, r5
 2096 0062 A26A     		ldr	r2, [r4, #40]
 2097 0064 1549     		ldr	r1, .L356+24
 2098 0066 6068     		ldr	r0, [r4, #4]
 279:..\common\tterm/TTerm.c **** 
 2099              		.loc 1 279 0 is_stmt 1 discriminator 1
 2100 0068 03B0     		add	sp, sp, #12
 2101              		.cfi_remember_state
 2102              		.cfi_def_cfa_offset 12
 2103              		@ sp needed
 2104 006a BDE83040 		pop	{r4, r5, lr}
 2105              		.cfi_restore 14
 2106              		.cfi_restore 5
 2107              		.cfi_restore 4
 2108              		.cfi_def_cfa_offset 0
 2109              	.LVL268:
 274:..\common\tterm/TTerm.c ****     }else{
 2110              		.loc 1 274 0 discriminator 1
 2111 006e 6047     		bx	ip
 2112              	.LVL269:
 2113              	.L336:
ARM GAS  C:\Users\chemi\AppData\Local\Temp\cc0tO343.s 			page 60


 2114              		.cfi_restore_state
 276:..\common\tterm/TTerm.c ****         if(handle->inputBuffer[handle->currBufferPosition] != 0) TERM_sendVT100Code(handle, _VT100_
 2115              		.loc 1 276 0
 2116 0070 3BB1     		cbz	r3, .L339
 276:..\common\tterm/TTerm.c ****         if(handle->inputBuffer[handle->currBufferPosition] != 0) TERM_sendVT100Code(handle, _VT100_
 2117              		.loc 1 276 0 is_stmt 0 discriminator 1
 2118 0072 2368     		ldr	r3, [r4]
 2119 0074 656A     		ldr	r5, [r4, #36]
 2120 0076 0093     		str	r3, [sp]
 2121 0078 A26A     		ldr	r2, [r4, #40]
 2122 007a 0F4B     		ldr	r3, .L356+20
 2123 007c 1049     		ldr	r1, .L356+28
 2124 007e 6068     		ldr	r0, [r4, #4]
 2125 0080 A847     		blx	r5
 2126              	.LVL270:
 2127              	.L339:
 277:..\common\tterm/TTerm.c ****     }
 2128              		.loc 1 277 0 is_stmt 1
 2129 0082 A268     		ldr	r2, [r4, #8]
 2130 0084 2368     		ldr	r3, [r4]
 2131 0086 9B5C     		ldrb	r3, [r3, r2]	@ zero_extendqisi2
 2132 0088 4BB1     		cbz	r3, .L332
 277:..\common\tterm/TTerm.c ****     }
 2133              		.loc 1 277 0 is_stmt 0 discriminator 1
 2134 008a 2046     		mov	r0, r4
 2135 008c E368     		ldr	r3, [r4, #12]
 2136 008e 1221     		movs	r1, #18
 2137 0090 9A1A     		subs	r2, r3, r2
 2138 0092 D2B2     		uxtb	r2, r2
 279:..\common\tterm/TTerm.c **** 
 2139              		.loc 1 279 0 is_stmt 1 discriminator 1
 2140 0094 03B0     		add	sp, sp, #12
 2141              		.cfi_remember_state
 2142              		.cfi_def_cfa_offset 12
 2143              		@ sp needed
 2144 0096 BDE83040 		pop	{r4, r5, lr}
 2145              		.cfi_restore 14
 2146              		.cfi_restore 5
 2147              		.cfi_restore 4
 2148              		.cfi_def_cfa_offset 0
 2149              	.LVL271:
 277:..\common\tterm/TTerm.c ****     }
 2150              		.loc 1 277 0 discriminator 1
 2151 009a FFF7FEBF 		b	TERM_sendVT100Code
 2152              	.LVL272:
 2153              	.L332:
 2154              		.cfi_restore_state
 279:..\common\tterm/TTerm.c **** 
 2155              		.loc 1 279 0
 2156 009e 03B0     		add	sp, sp, #12
 2157              		.cfi_def_cfa_offset 12
 2158              		@ sp needed
 2159 00a0 30BD     		pop	{r4, r5, pc}
 2160              	.LVL273:
 2161              	.L357:
 2162 00a2 00BF     		.align	2
 2163              	.L356:
ARM GAS  C:\Users\chemi\AppData\Local\Temp\cc0tO343.s 			page 61


 2164 00a4 00000000 		.word	.LANCHOR0
 2165 00a8 6C010000 		.word	.LC39
 2166 00ac 9B000000 		.word	.LANCHOR0+155
 2167 00b0 7A010000 		.word	.LC40
 2168 00b4 D3000000 		.word	.LANCHOR0+211
 2169 00b8 00000000 		.word	.LC0
 2170 00bc 7F010000 		.word	.LC41
 2171 00c0 8A010000 		.word	.LC42
 2172              		.cfi_endproc
 2173              	.LFE74:
 2174              		.size	TERM_printBootMessage, .-TERM_printBootMessage
 2175              		.section	.text.TERM_createNewHandle,"ax",%progbits
 2176              		.align	1
 2177              		.global	TERM_createNewHandle
 2178              		.thumb
 2179              		.thumb_func
 2180              		.type	TERM_createNewHandle, %function
 2181              	TERM_createNewHandle:
 2182              	.LFB69:
  51:..\common\tterm/TTerm.c **** #else
 2183              		.loc 1 51 0
 2184              		.cfi_startproc
 2185              		@ args = 8, pretend = 0, frame = 0
 2186              		@ frame_needed = 0, uses_anonymous_args = 0
 2187              	.LVL274:
 2188 0000 2DE9F743 		push	{r0, r1, r2, r4, r5, r6, r7, r8, r9, lr}
 2189              		.cfi_def_cfa_offset 40
 2190              		.cfi_offset 4, -28
 2191              		.cfi_offset 5, -24
 2192              		.cfi_offset 6, -20
 2193              		.cfi_offset 7, -16
 2194              		.cfi_offset 8, -12
 2195              		.cfi_offset 9, -8
 2196              		.cfi_offset 14, -4
  51:..\common\tterm/TTerm.c **** #else
 2197              		.loc 1 51 0
 2198 0004 8146     		mov	r9, r0
  55:..\common\tterm/TTerm.c ****     memset(ret, 0, sizeof(TERMINAL_HANDLE));
 2199              		.loc 1 55 0
 2200 0006 9420     		movs	r0, #148
 2201              	.LVL275:
  51:..\common\tterm/TTerm.c **** #else
 2202              		.loc 1 51 0
 2203 0008 1E46     		mov	r6, r3
 2204 000a 8846     		mov	r8, r1
 2205 000c 1746     		mov	r7, r2
 2206 000e 0A9D     		ldr	r5, [sp, #40]
  55:..\common\tterm/TTerm.c ****     memset(ret, 0, sizeof(TERMINAL_HANDLE));
 2207              		.loc 1 55 0
 2208 0010 FFF7FEFF 		bl	pvPortMalloc
 2209              	.LVL276:
  56:..\common\tterm/TTerm.c ****     ret->inputBuffer = pvPortMalloc(TERM_INPUTBUFFER_SIZE);
 2210              		.loc 1 56 0
 2211 0014 9422     		movs	r2, #148
 2212 0016 0021     		movs	r1, #0
  55:..\common\tterm/TTerm.c ****     memset(ret, 0, sizeof(TERMINAL_HANDLE));
 2213              		.loc 1 55 0
ARM GAS  C:\Users\chemi\AppData\Local\Temp\cc0tO343.s 			page 62


 2214 0018 0446     		mov	r4, r0
 2215              	.LVL277:
  56:..\common\tterm/TTerm.c ****     ret->inputBuffer = pvPortMalloc(TERM_INPUTBUFFER_SIZE);
 2216              		.loc 1 56 0
 2217 001a FFF7FEFF 		bl	memset
 2218              	.LVL278:
  57:..\common\tterm/TTerm.c ****     ret->print = printFunction;
 2219              		.loc 1 57 0
 2220 001e 8020     		movs	r0, #128
 2221 0020 FFF7FEFF 		bl	pvPortMalloc
 2222              	.LVL279:
  58:..\common\tterm/TTerm.c ****     #if EXTENDED_PRINTF == 1
 2223              		.loc 1 58 0
 2224 0024 C4F82490 		str	r9, [r4, #36]
  57:..\common\tterm/TTerm.c ****     ret->print = printFunction;
 2225              		.loc 1 57 0
 2226 0028 2060     		str	r0, [r4]
  60:..\common\tterm/TTerm.c ****     #endif    
 2227              		.loc 1 60 0
 2228 002a C4F80480 		str	r8, [r4, #4]
  64:..\common\tterm/TTerm.c ****     sprintf(ret->currUserName, "%s%s%s", TERM_getVT100Code(_VT100_FOREGROUND_COLOR, _VT100_BLUE), u
 2229              		.loc 1 64 0
 2230 002e 0B98     		ldr	r0, [sp, #44]
  62:..\common\tterm/TTerm.c ****     ret->cmdListHead = cmdListHead;
 2231              		.loc 1 62 0
 2232 0030 C4F88870 		str	r7, [r4, #136]
  63:..\common\tterm/TTerm.c ****     ret->currUserName = pvPortMalloc(strlen(usr) + 1 + strlen(TERM_getVT100Code(_VT100_FOREGROUND_C
 2233              		.loc 1 63 0
 2234 0034 C4F88C60 		str	r6, [r4, #140]
  64:..\common\tterm/TTerm.c ****     sprintf(ret->currUserName, "%s%s%s", TERM_getVT100Code(_VT100_FOREGROUND_COLOR, _VT100_BLUE), u
 2235              		.loc 1 64 0
 2236 0038 FFF7FEFF 		bl	strlen
 2237              	.LVL280:
 2238 003c 0A30     		adds	r0, r0, #10
 2239 003e FFF7FEFF 		bl	pvPortMalloc
 2240              	.LVL281:
  65:..\common\tterm/TTerm.c ****     ret->currEscSeqPos = 0xff;
 2241              		.loc 1 65 0
 2242 0042 1B4B     		ldr	r3, .L362
  64:..\common\tterm/TTerm.c ****     sprintf(ret->currUserName, "%s%s%s", TERM_getVT100Code(_VT100_FOREGROUND_COLOR, _VT100_BLUE), u
 2243              		.loc 1 64 0
 2244 0044 A062     		str	r0, [r4, #40]
  65:..\common\tterm/TTerm.c ****     ret->currEscSeqPos = 0xff;
 2245              		.loc 1 65 0
 2246 0046 1B4A     		ldr	r2, .L362+4
 2247 0048 0093     		str	r3, [sp]
 2248 004a 1B49     		ldr	r1, .L362+8
 2249 004c 0B9B     		ldr	r3, [sp, #44]
 2250 004e FFF7FEFF 		bl	sprintf
 2251              	.LVL282:
  66:..\common\tterm/TTerm.c ****     
 2252              		.loc 1 66 0
 2253 0052 FF23     		movs	r3, #255
 2254 0054 84F87430 		strb	r3, [r4, #116]
  68:..\common\tterm/TTerm.c ****         ret->errorPrinter = TERM_defaultErrorPrinter;
 2255              		.loc 1 68 0
 2256 0058 1DB9     		cbnz	r5, .L359
ARM GAS  C:\Users\chemi\AppData\Local\Temp\cc0tO343.s 			page 63


  69:..\common\tterm/TTerm.c ****     }else{
 2257              		.loc 1 69 0
 2258 005a 184B     		ldr	r3, .L362+12
 2259 005c C4F89030 		str	r3, [r4, #144]
 2260 0060 01E0     		b	.L360
 2261              	.L359:
  71:..\common\tterm/TTerm.c ****     }
 2262              		.loc 1 71 0
 2263 0062 C4F89050 		str	r5, [r4, #144]
 2264              	.L360:
  80:..\common\tterm/TTerm.c ****         TERM_baseCMDsAdded = 1;
 2265              		.loc 1 80 0
 2266 0066 164D     		ldr	r5, .L362+16
 2267 0068 2E68     		ldr	r6, [r5]
 2268              	.LVL283:
 2269 006a D6B9     		cbnz	r6, .L361
  81:..\common\tterm/TTerm.c ****         
 2270              		.loc 1 81 0
 2271 006c 0123     		movs	r3, #1
 2272 006e 45F8043B 		str	r3, [r5], #4
  83:..\common\tterm/TTerm.c ****         TERM_addCommand(CMD_cls, "cls", "Clears the screen", 0, &TERM_cmdListHead);
 2273              		.loc 1 83 0
 2274 0072 144A     		ldr	r2, .L362+20
 2275 0074 3346     		mov	r3, r6
 2276 0076 1449     		ldr	r1, .L362+24
 2277 0078 0095     		str	r5, [sp]
 2278 007a 1448     		ldr	r0, .L362+28
 2279 007c FFF7FEFF 		bl	TERM_addCommand
 2280              	.LVL284:
  84:..\common\tterm/TTerm.c ****         TERM_addCommand(CMD_testCommandHandler, "test", "Test input", 0, &TERM_cmdListHead);
 2281              		.loc 1 84 0
 2282 0080 3346     		mov	r3, r6
 2283 0082 134A     		ldr	r2, .L362+32
 2284 0084 1349     		ldr	r1, .L362+36
 2285 0086 0095     		str	r5, [sp]
 2286 0088 1348     		ldr	r0, .L362+40
 2287 008a FFF7FEFF 		bl	TERM_addCommand
 2288              	.LVL285:
  85:..\common\tterm/TTerm.c ****         //TERM_addCommand(CMD_reset, "reset", "resets the fibernet", 0, &TERM_cmdListHead);
 2289              		.loc 1 85 0
 2290 008e 0095     		str	r5, [sp]
 2291 0090 3346     		mov	r3, r6
 2292 0092 124A     		ldr	r2, .L362+44
 2293 0094 1249     		ldr	r1, .L362+48
 2294 0096 1348     		ldr	r0, .L362+52
 2295 0098 FFF7FEFF 		bl	TERM_addCommand
 2296              	.LVL286:
  88:..\common\tterm/TTerm.c ****         
 2297              		.loc 1 88 0
 2298 009c 2846     		mov	r0, r5
 2299 009e FFF7FEFF 		bl	REGISTER_apps
 2300              	.LVL287:
 2301              	.L361:
 101:..\common\tterm/TTerm.c **** #endif
 2302              		.loc 1 101 0
 2303 00a2 2046     		mov	r0, r4
 2304 00a4 FFF7FEFF 		bl	TERM_printBootMessage
ARM GAS  C:\Users\chemi\AppData\Local\Temp\cc0tO343.s 			page 64


 2305              	.LVL288:
 104:..\common\tterm/TTerm.c **** 
 2306              		.loc 1 104 0
 2307 00a8 2046     		mov	r0, r4
 2308 00aa 03B0     		add	sp, sp, #12
 2309              		.cfi_def_cfa_offset 28
 2310              		@ sp needed
 2311 00ac BDE8F083 		pop	{r4, r5, r6, r7, r8, r9, pc}
 2312              	.LVL289:
 2313              	.L363:
 2314              		.align	2
 2315              	.L362:
 2316 00b0 DF000000 		.word	.LC13
 2317 00b4 97010000 		.word	.LC43
 2318 00b8 9D010000 		.word	.LC44
 2319 00bc 00000000 		.word	TERM_defaultErrorPrinter
 2320 00c0 00000000 		.word	.LANCHOR1
 2321 00c4 A4010000 		.word	.LC45
 2322 00c8 BF010000 		.word	.LC46
 2323 00cc 00000000 		.word	CMD_help
 2324 00d0 C4010000 		.word	.LC47
 2325 00d4 D6010000 		.word	.LC48
 2326 00d8 00000000 		.word	CMD_cls
 2327 00dc DA010000 		.word	.LC49
 2328 00e0 E5010000 		.word	.LC50
 2329 00e4 00000000 		.word	CMD_testCommandHandler
 2330              		.cfi_endproc
 2331              	.LFE69:
 2332              		.size	TERM_createNewHandle, .-TERM_createNewHandle
 2333              		.section	.text.TERM_handleInput,"ax",%progbits
 2334              		.align	1
 2335              		.global	TERM_handleInput
 2336              		.thumb
 2337              		.thumb_func
 2338              		.type	TERM_handleInput, %function
 2339              	TERM_handleInput:
 2340              	.LFB78:
 312:..\common\tterm/TTerm.c ****     //ttprintfEcho("received 0x%04x\r\n", c);
 2341              		.loc 1 312 0
 2342              		.cfi_startproc
 2343              		@ args = 0, pretend = 0, frame = 0
 2344              		@ frame_needed = 0, uses_anonymous_args = 0
 2345              	.LVL290:
 2346 0000 F0B5     		push	{r4, r5, r6, r7, lr}
 2347              		.cfi_def_cfa_offset 20
 2348              		.cfi_offset 4, -20
 2349              		.cfi_offset 5, -16
 2350              		.cfi_offset 6, -12
 2351              		.cfi_offset 7, -8
 2352              		.cfi_offset 14, -4
 314:..\common\tterm/TTerm.c ****         //call the handler of the current override
 2353              		.loc 1 314 0
 2354 0002 4E69     		ldr	r6, [r1, #20]
 312:..\common\tterm/TTerm.c ****     //ttprintfEcho("received 0x%04x\r\n", c);
 2355              		.loc 1 312 0
 2356 0004 85B0     		sub	sp, sp, #20
 2357              		.cfi_def_cfa_offset 40
ARM GAS  C:\Users\chemi\AppData\Local\Temp\cc0tO343.s 			page 65


 312:..\common\tterm/TTerm.c ****     //ttprintfEcho("received 0x%04x\r\n", c);
 2358              		.loc 1 312 0
 2359 0006 0546     		mov	r5, r0
 2360 0008 0C46     		mov	r4, r1
 314:..\common\tterm/TTerm.c ****         //call the handler of the current override
 2361              		.loc 1 314 0
 2362 000a 4EB1     		cbz	r6, .L365
 2363              	.LBB69:
 316:..\common\tterm/TTerm.c ****         
 2364              		.loc 1 316 0
 2365 000c 7368     		ldr	r3, [r6, #4]
 2366 000e 0146     		mov	r1, r0
 2367              	.LVL291:
 2368 0010 2046     		mov	r0, r4
 2369              	.LVL292:
 2370 0012 9847     		blx	r3
 2371              	.LVL293:
 318:..\common\tterm/TTerm.c ****         
 2372              		.loc 1 318 0
 2373 0014 D4F89030 		ldr	r3, [r4, #144]
 2374 0018 0146     		mov	r1, r0
 2375 001a 2046     		mov	r0, r4
 2376              	.LVL294:
 2377 001c 9847     		blx	r3
 2378              	.LVL295:
 320:..\common\tterm/TTerm.c ****     }
 2379              		.loc 1 320 0
 2380 001e 6DE2     		b	.L366
 2381              	.LVL296:
 2382              	.L365:
 2383              	.LBE69:
 2384              	.LBB70:
 2385              	.LBB71:
 323:..\common\tterm/TTerm.c ****         case '\r':      //enter
 2386              		.loc 1 323 0
 2387 0020 B0F5805F 		cmp	r0, #4096
 2388 0024 00F01282 		beq	.L368
 2389 0028 15D8     		bhi	.L369
 2390 002a 0A28     		cmp	r0, #10
 2391 002c 00F09480 		beq	.L370
 2392 0030 07D8     		bhi	.L371
 2393 0032 0828     		cmp	r0, #8
 2394 0034 00F09080 		beq	.L370
 2395 0038 00F26C81 		bhi	.L372
 2396 003c 0328     		cmp	r0, #3
 2397 003e 76D0     		beq	.L373
 2398 0040 57E2     		b	.L367
 2399              	.L371:
 2400 0042 7E28     		cmp	r0, #126
 2401 0044 05D8     		bhi	.L374
 2402 0046 2028     		cmp	r0, #32
 2403 0048 80F00482 		bcs	.L375
 2404 004c 0D28     		cmp	r0, #13
 2405 004e 21D0     		beq	.L376
 2406 0050 4FE2     		b	.L367
 2407              	.L374:
 2408 0052 7F28     		cmp	r0, #127
ARM GAS  C:\Users\chemi\AppData\Local\Temp\cc0tO343.s 			page 66


 2409 0054 1CE0     		b	.L526
 2410              	.L369:
 2411 0056 41F20403 		movw	r3, #4100
 2412 005a 9842     		cmp	r0, r3
 2413 005c 00F00481 		beq	.L377
 2414 0060 07D8     		bhi	.L378
 2415 0062 41F20203 		movw	r3, #4098
 2416 0066 9842     		cmp	r0, r3
 2417 0068 00F0E080 		beq	.L379
 2418 006c 40F2CC80 		bls	.L522
 2419 0070 EBE0     		b	.L544
 2420              	.L378:
 2421 0072 41F20603 		movw	r3, #4102
 2422 0076 9842     		cmp	r0, r3
 2423 0078 00F01981 		beq	.L382
 2424 007c C0F00481 		bcc	.L383
 2425 0080 41F20703 		movw	r3, #4103
 2426 0084 9842     		cmp	r0, r3
 2427 0086 00F08F81 		beq	.L384
 2428 008a 41F20803 		movw	r3, #4104
 2429 008e 9842     		cmp	r0, r3
 2430              	.L526:
 2431 0090 62D0     		beq	.L370
 2432 0092 2EE2     		b	.L367
 2433              	.L376:
 325:..\common\tterm/TTerm.c ****             
 2434              		.loc 1 325 0
 2435 0094 0321     		movs	r1, #3
 2436              	.LVL297:
 2437 0096 2046     		mov	r0, r4
 2438              	.LVL298:
 2439 0098 FFF7FEFF 		bl	TERM_checkForCopy
 2440              	.LVL299:
 327:..\common\tterm/TTerm.c ****                 ttprintfEcho("\r\n", handle->inputBuffer);
 2441              		.loc 1 327 0
 2442 009c E268     		ldr	r2, [r4, #12]
 2443 009e D4F88830 		ldr	r3, [r4, #136]
 2444 00a2 002A     		cmp	r2, #0
 2445 00a4 3BD0     		beq	.L385
 2446              	.LBB72:
 328:..\common\tterm/TTerm.c **** 
 2447              		.loc 1 328 0
 2448 00a6 23B1     		cbz	r3, .L386
 2449 00a8 636A     		ldr	r3, [r4, #36]
 2450 00aa 2268     		ldr	r2, [r4]
 2451 00ac 9249     		ldr	r1, .L546
 2452 00ae 6068     		ldr	r0, [r4, #4]
 2453 00b0 9847     		blx	r3
 2454              	.LVL300:
 2455              	.L386:
 330:..\common\tterm/TTerm.c ****                     vPortFree(handle->historyBuffer[handle->currHistoryWritePosition]);
 2456              		.loc 1 330 0
 2457 00b2 E36E     		ldr	r3, [r4, #108]
 2458 00b4 04EB8303 		add	r3, r4, r3, lsl #2
 2459 00b8 D86A     		ldr	r0, [r3, #44]
 2460 00ba 38B1     		cbz	r0, .L387
 331:..\common\tterm/TTerm.c ****                     handle->historyBuffer[handle->currHistoryWritePosition] = 0;
ARM GAS  C:\Users\chemi\AppData\Local\Temp\cc0tO343.s 			page 67


 2461              		.loc 1 331 0
 2462 00bc FFF7FEFF 		bl	vPortFree
 2463              	.LVL301:
 332:..\common\tterm/TTerm.c ****                 }
 2464              		.loc 1 332 0
 2465 00c0 E36E     		ldr	r3, [r4, #108]
 2466 00c2 0022     		movs	r2, #0
 2467 00c4 0A33     		adds	r3, r3, #10
 2468 00c6 04EB8303 		add	r3, r4, r3, lsl #2
 2469 00ca 5A60     		str	r2, [r3, #4]
 2470              	.L387:
 335:..\common\tterm/TTerm.c ****                 memcpy(handle->historyBuffer[handle->currHistoryWritePosition], handle->inputBuffer
 2471              		.loc 1 335 0
 2472 00cc E068     		ldr	r0, [r4, #12]
 2473 00ce E56E     		ldr	r5, [r4, #108]
 2474 00d0 0130     		adds	r0, r0, #1
 2475 00d2 FFF7FEFF 		bl	pvPortMalloc
 2476              	.LVL302:
 336:..\common\tterm/TTerm.c ****                 
 2477              		.loc 1 336 0
 2478 00d6 E36E     		ldr	r3, [r4, #108]
 2479 00d8 E268     		ldr	r2, [r4, #12]
 335:..\common\tterm/TTerm.c ****                 memcpy(handle->historyBuffer[handle->currHistoryWritePosition], handle->inputBuffer
 2480              		.loc 1 335 0
 2481 00da 04EB8505 		add	r5, r4, r5, lsl #2
 336:..\common\tterm/TTerm.c ****                 
 2482              		.loc 1 336 0
 2483 00de 04EB8303 		add	r3, r4, r3, lsl #2
 335:..\common\tterm/TTerm.c ****                 memcpy(handle->historyBuffer[handle->currHistoryWritePosition], handle->inputBuffer
 2484              		.loc 1 335 0
 2485 00e2 E862     		str	r0, [r5, #44]
 336:..\common\tterm/TTerm.c ****                 
 2486              		.loc 1 336 0
 2487 00e4 0132     		adds	r2, r2, #1
 2488 00e6 2168     		ldr	r1, [r4]
 2489 00e8 D86A     		ldr	r0, [r3, #44]
 2490 00ea FFF7FEFF 		bl	memcpy
 2491              	.LVL303:
 338:..\common\tterm/TTerm.c ****                 
 2492              		.loc 1 338 0
 2493 00ee E36E     		ldr	r3, [r4, #108]
 342:..\common\tterm/TTerm.c ****                 (*handle->errorPrinter)(handle, retCode);
 2494              		.loc 1 342 0
 2495 00f0 2246     		mov	r2, r4
 338:..\common\tterm/TTerm.c ****                 
 2496              		.loc 1 338 0
 2497 00f2 0133     		adds	r3, r3, #1
 2498 00f4 0F2B     		cmp	r3, #15
 2499 00f6 88BF     		it	hi
 2500 00f8 0023     		movhi	r3, #0
 2501 00fa E366     		str	r3, [r4, #108]
 340:..\common\tterm/TTerm.c **** 
 2502              		.loc 1 340 0
 2503 00fc E36E     		ldr	r3, [r4, #108]
 342:..\common\tterm/TTerm.c ****                 (*handle->errorPrinter)(handle, retCode);
 2504              		.loc 1 342 0
 2505 00fe A189     		ldrh	r1, [r4, #12]
ARM GAS  C:\Users\chemi\AppData\Local\Temp\cc0tO343.s 			page 68


 340:..\common\tterm/TTerm.c **** 
 2506              		.loc 1 340 0
 2507 0100 2367     		str	r3, [r4, #112]
 342:..\common\tterm/TTerm.c ****                 (*handle->errorPrinter)(handle, retCode);
 2508              		.loc 1 342 0
 2509 0102 2068     		ldr	r0, [r4]
 2510 0104 FFF7FEFF 		bl	TERM_interpretCMD
 2511              	.LVL304:
 343:..\common\tterm/TTerm.c ****                 
 2512              		.loc 1 343 0
 2513 0108 D4F89030 		ldr	r3, [r4, #144]
 2514 010c 0146     		mov	r1, r0
 2515 010e 2046     		mov	r0, r4
 2516              	.LVL305:
 2517 0110 9847     		blx	r3
 2518              	.LVL306:
 347:..\common\tterm/TTerm.c ****             }else{
 2519              		.loc 1 347 0
 2520 0112 2268     		ldr	r2, [r4]
 345:..\common\tterm/TTerm.c ****                 handle->currBufferLength = 0;
 2521              		.loc 1 345 0
 2522 0114 0023     		movs	r3, #0
 2523 0116 A360     		str	r3, [r4, #8]
 346:..\common\tterm/TTerm.c ****                 handle->inputBuffer[handle->currBufferPosition] = 0;
 2524              		.loc 1 346 0
 2525 0118 E360     		str	r3, [r4, #12]
 347:..\common\tterm/TTerm.c ****             }else{
 2526              		.loc 1 347 0
 2527 011a 1370     		strb	r3, [r2]
 2528 011c EEE1     		b	.L366
 2529              	.L385:
 2530              	.LBE72:
 349:..\common\tterm/TTerm.c ****             }       
 2531              		.loc 1 349 0
 2532 011e 002B     		cmp	r3, #0
 2533 0120 00F0EC81 		beq	.L366
 2534 0124 656A     		ldr	r5, [r4, #36]
 2535 0126 754B     		ldr	r3, .L546+4
 2536 0128 A26A     		ldr	r2, [r4, #40]
 2537 012a 7549     		ldr	r1, .L546+8
 2538 012c 11E0     		b	.L531
 2539              	.LVL307:
 2540              	.L373:
 356:..\common\tterm/TTerm.c ****         	TERM_sendVT100Code(handle, _VT100_ERASE_LINE, 0);
 2541              		.loc 1 356 0
 2542 012e 0B68     		ldr	r3, [r1]
 354:..\common\tterm/TTerm.c ****         	handle->currBufferLength=0;
 2543              		.loc 1 354 0
 2544 0130 8E60     		str	r6, [r1, #8]
 355:..\common\tterm/TTerm.c ****         	handle->inputBuffer[0]=0;
 2545              		.loc 1 355 0
 2546 0132 CE60     		str	r6, [r1, #12]
 357:..\common\tterm/TTerm.c ****         	ttprintfEcho("\r%s@%s>", handle->currUserName, TERM_DEVICE_NAME);
 2547              		.loc 1 357 0
 2548 0134 3246     		mov	r2, r6
 356:..\common\tterm/TTerm.c ****         	TERM_sendVT100Code(handle, _VT100_ERASE_LINE, 0);
 2549              		.loc 1 356 0
ARM GAS  C:\Users\chemi\AppData\Local\Temp\cc0tO343.s 			page 69


 2550 0136 1E70     		strb	r6, [r3]
 357:..\common\tterm/TTerm.c ****         	ttprintfEcho("\r%s@%s>", handle->currUserName, TERM_DEVICE_NAME);
 2551              		.loc 1 357 0
 2552 0138 0C21     		movs	r1, #12
 2553              	.LVL308:
 2554 013a 2046     		mov	r0, r4
 2555              	.LVL309:
 2556 013c FFF7FEFF 		bl	TERM_sendVT100Code
 2557              	.LVL310:
 358:..\common\tterm/TTerm.c ****             break;
 2558              		.loc 1 358 0
 2559 0140 D4F88830 		ldr	r3, [r4, #136]
 2560 0144 002B     		cmp	r3, #0
 2561 0146 00F0D981 		beq	.L366
 2562 014a 656A     		ldr	r5, [r4, #36]
 2563 014c 6B4B     		ldr	r3, .L546+4
 2564 014e A26A     		ldr	r2, [r4, #40]
 2565 0150 6C49     		ldr	r1, .L546+12
 2566              	.L531:
 2567 0152 6068     		ldr	r0, [r4, #4]
 2568 0154 A847     		blx	r5
 2569              	.LVL311:
 2570 0156 D1E1     		b	.L366
 2571              	.LVL312:
 2572              	.L370:
 364:..\common\tterm/TTerm.c **** 
 2573              		.loc 1 364 0
 2574 0158 0321     		movs	r1, #3
 2575              	.LVL313:
 2576 015a 2046     		mov	r0, r4
 2577              	.LVL314:
 2578 015c FFF7FEFF 		bl	TERM_checkForCopy
 2579              	.LVL315:
 366:..\common\tterm/TTerm.c ****                 handle->currBufferPosition ++;
 2580              		.loc 1 366 0
 2581 0160 E268     		ldr	r2, [r4, #12]
 2582 0162 A368     		ldr	r3, [r4, #8]
 2583 0164 9342     		cmp	r3, r2
 2584 0166 41F20802 		movw	r2, #4104
 2585 016a 0AD2     		bcs	.L392
 2586 016c 9542     		cmp	r5, r2
 2587 016e 0BD1     		bne	.L393
 367:..\common\tterm/TTerm.c ****                 TERM_sendVT100Code(handle, _VT100_CURSOR_FORWARD, 0);
 2588              		.loc 1 367 0
 2589 0170 0133     		adds	r3, r3, #1
 2590 0172 A360     		str	r3, [r4, #8]
 368:..\common\tterm/TTerm.c ****             }else if (c == _VT100_KEY_DEL) {
 2591              		.loc 1 368 0
 2592 0174 0022     		movs	r2, #0
 2593 0176 41F20301 		movw	r1, #4099
 2594 017a 2046     		mov	r0, r4
 2595 017c FFF7FEFF 		bl	TERM_sendVT100Code
 2596              	.LVL316:
 2597 0180 02E0     		b	.L393
 2598              	.L392:
 369:..\common\tterm/TTerm.c ****                 break;
 2599              		.loc 1 369 0
ARM GAS  C:\Users\chemi\AppData\Local\Temp\cc0tO343.s 			page 70


 2600 0182 9542     		cmp	r5, r2
 2601 0184 00F0BA81 		beq	.L366
 2602              	.L393:
 373:..\common\tterm/TTerm.c **** 
 2603              		.loc 1 373 0
 2604 0188 A368     		ldr	r3, [r4, #8]
 2605 018a 002B     		cmp	r3, #0
 2606 018c 00F0B681 		beq	.L366
 375:..\common\tterm/TTerm.c ****                 //we are somewhere in the middle -> move back existing characters
 2607              		.loc 1 375 0
 2608 0190 2268     		ldr	r2, [r4]
 2609 0192 D15C     		ldrb	r1, [r2, r3]	@ zero_extendqisi2
 2610 0194 013B     		subs	r3, r3, #1
 2611 0196 59B3     		cbz	r1, .L394
 2612              	.LVL317:
 2613 0198 1344     		add	r3, r3, r2
 2614              	.LVL318:
 2615              	.L395:
 2616 019a 981A     		subs	r0, r3, r2
 2617              	.LVL319:
 2618              	.LBB73:
 2619              	.LBB74:
 2620              	.LBB75:
 616:..\common\tterm/TTerm.c ****             src[currPos] = src[currPos - offset];
 2621              		.loc 1 616 0
 2622 019c 13F8011F 		ldrb	r1, [r3, #1]!	@ zero_extendqisi2
 2623 01a0 11B1     		cbz	r1, .L545
 617:..\common\tterm/TTerm.c ****         }
 2624              		.loc 1 617 0
 2625 01a2 03F8011C 		strb	r1, [r3, #-1]
 2626              	.LVL320:
 2627 01a6 F8E7     		b	.L395
 2628              	.LVL321:
 2629              	.L545:
 619:..\common\tterm/TTerm.c ****         return;
 2630              		.loc 1 619 0
 2631 01a8 1154     		strb	r1, [r2, r0]
 2632              	.LVL322:
 2633              	.LBE75:
 2634              	.LBE74:
 2635              	.LBE73:
 378:..\common\tterm/TTerm.c ****                 TERM_sendVT100Code(handle, _VT100_ERASE_LINE_END, 0);
 2636              		.loc 1 378 0
 2637 01aa D4F88830 		ldr	r3, [r4, #136]
 2638 01ae 1BB1     		cbz	r3, .L397
 2639 01b0 636A     		ldr	r3, [r4, #36]
 2640 01b2 5549     		ldr	r1, .L546+16
 2641 01b4 6068     		ldr	r0, [r4, #4]
 2642 01b6 9847     		blx	r3
 2643              	.LVL323:
 2644              	.L397:
 379:..\common\tterm/TTerm.c ****                 ttprintfEcho("%s", &handle->inputBuffer[handle->currBufferPosition - 1]);
 2645              		.loc 1 379 0
 2646 01b8 0022     		movs	r2, #0
 2647 01ba 1121     		movs	r1, #17
 2648 01bc 2046     		mov	r0, r4
 2649 01be FFF7FEFF 		bl	TERM_sendVT100Code
ARM GAS  C:\Users\chemi\AppData\Local\Temp\cc0tO343.s 			page 71


 2650              	.LVL324:
 380:..\common\tterm/TTerm.c ****                 TERM_sendVT100Code(handle, _VT100_CURSOR_BACK_BY, handle->currBufferLength - handle
 2651              		.loc 1 380 0
 2652 01c2 D4F88830 		ldr	r3, [r4, #136]
 2653 01c6 3BB1     		cbz	r3, .L398
 2654 01c8 A268     		ldr	r2, [r4, #8]
 2655 01ca 2168     		ldr	r1, [r4]
 2656 01cc 013A     		subs	r2, r2, #1
 2657 01ce 0A44     		add	r2, r2, r1
 2658 01d0 636A     		ldr	r3, [r4, #36]
 2659 01d2 4E49     		ldr	r1, .L546+20
 2660 01d4 6068     		ldr	r0, [r4, #4]
 2661 01d6 9847     		blx	r3
 2662              	.LVL325:
 2663              	.L398:
 381:..\common\tterm/TTerm.c ****                 handle->currBufferPosition --;
 2664              		.loc 1 381 0
 2665 01d8 E368     		ldr	r3, [r4, #12]
 2666 01da A268     		ldr	r2, [r4, #8]
 2667 01dc 1221     		movs	r1, #18
 2668 01de 9A1A     		subs	r2, r3, r2
 2669 01e0 D2B2     		uxtb	r2, r2
 2670 01e2 2046     		mov	r0, r4
 2671 01e4 FFF7FEFF 		bl	TERM_sendVT100Code
 2672              	.LVL326:
 382:..\common\tterm/TTerm.c ****                 handle->currBufferLength --;
 2673              		.loc 1 382 0
 2674 01e8 A368     		ldr	r3, [r4, #8]
 2675 01ea 013B     		subs	r3, r3, #1
 2676 01ec A360     		str	r3, [r4, #8]
 2677 01ee 08E0     		b	.L399
 2678              	.L394:
 386:..\common\tterm/TTerm.c ****                 ttprintfEcho("\x08 \x08");           
 2679              		.loc 1 386 0
 2680 01f0 A360     		str	r3, [r4, #8]
 2681 01f2 D154     		strb	r1, [r2, r3]
 387:..\common\tterm/TTerm.c ****                 handle->currBufferLength --;
 2682              		.loc 1 387 0
 2683 01f4 D4F88830 		ldr	r3, [r4, #136]
 2684 01f8 1BB1     		cbz	r3, .L399
 2685 01fa 636A     		ldr	r3, [r4, #36]
 2686 01fc 4449     		ldr	r1, .L546+24
 2687 01fe 6068     		ldr	r0, [r4, #4]
 2688 0200 9847     		blx	r3
 2689              	.LVL327:
 2690              	.L399:
 388:..\common\tterm/TTerm.c ****             }
 2691              		.loc 1 388 0
 2692 0202 E368     		ldr	r3, [r4, #12]
 2693 0204 013B     		subs	r3, r3, #1
 2694 0206 72E1     		b	.L528
 2695              	.LVL328:
 2696              	.L522:
 393:..\common\tterm/TTerm.c **** 
 2697              		.loc 1 393 0
 2698 0208 0321     		movs	r1, #3
 2699              	.LVL329:
ARM GAS  C:\Users\chemi\AppData\Local\Temp\cc0tO343.s 			page 72


 2700 020a 2046     		mov	r0, r4
 2701              	.LVL330:
 2702 020c FFF7FEFF 		bl	TERM_checkForCopy
 2703              	.LVL331:
 395:..\common\tterm/TTerm.c **** 				//move the cursor to the right position
 2704              		.loc 1 395 0
 2705 0210 E368     		ldr	r3, [r4, #12]
 2706 0212 A268     		ldr	r2, [r4, #8]
 2707 0214 9342     		cmp	r3, r2
 2708 0216 40F27181 		bls	.L366
 397:..\common\tterm/TTerm.c **** 				handle->currBufferPosition = handle->currBufferLength;
 2709              		.loc 1 397 0
 2710 021a 9A1A     		subs	r2, r3, r2
 2711 021c D2B2     		uxtb	r2, r2
 2712 021e 1321     		movs	r1, #19
 2713 0220 2046     		mov	r0, r4
 2714 0222 FFF7FEFF 		bl	TERM_sendVT100Code
 2715              	.LVL332:
 398:..\common\tterm/TTerm.c **** 			}
 2716              		.loc 1 398 0
 2717 0226 E368     		ldr	r3, [r4, #12]
 2718 0228 A360     		str	r3, [r4, #8]
 2719 022a 67E1     		b	.L366
 2720              	.LVL333:
 2721              	.L379:
 403:..\common\tterm/TTerm.c **** 
 2722              		.loc 1 403 0
 2723 022c 0321     		movs	r1, #3
 2724              	.LVL334:
 2725 022e 2046     		mov	r0, r4
 2726              	.LVL335:
 2727 0230 FFF7FEFF 		bl	TERM_checkForCopy
 2728              	.LVL336:
 405:..\common\tterm/TTerm.c **** 				//move the cursor to the right position
 2729              		.loc 1 405 0
 2730 0234 A268     		ldr	r2, [r4, #8]
 2731 0236 002A     		cmp	r2, #0
 2732 0238 00F06081 		beq	.L366
 407:..\common\tterm/TTerm.c **** 				handle->currBufferPosition = 0;
 2733              		.loc 1 407 0
 2734 023c D2B2     		uxtb	r2, r2
 2735 023e 1221     		movs	r1, #18
 2736 0240 2046     		mov	r0, r4
 2737 0242 FFF7FEFF 		bl	TERM_sendVT100Code
 2738              	.LVL337:
 408:..\common\tterm/TTerm.c **** 			}
 2739              		.loc 1 408 0
 2740 0246 A660     		str	r6, [r4, #8]
 2741 0248 58E1     		b	.L366
 2742              	.LVL338:
 2743              	.L544:
 413:..\common\tterm/TTerm.c ****             
 2744              		.loc 1 413 0
 2745 024a 0321     		movs	r1, #3
 2746              	.LVL339:
 2747 024c 2046     		mov	r0, r4
 2748              	.LVL340:
ARM GAS  C:\Users\chemi\AppData\Local\Temp\cc0tO343.s 			page 73


 2749 024e FFF7FEFF 		bl	TERM_checkForCopy
 2750              	.LVL341:
 415:..\common\tterm/TTerm.c ****                 handle->currBufferPosition ++;
 2751              		.loc 1 415 0
 2752 0252 A368     		ldr	r3, [r4, #8]
 2753 0254 E268     		ldr	r2, [r4, #12]
 2754 0256 9342     		cmp	r3, r2
 2755 0258 80F05081 		bcs	.L366
 416:..\common\tterm/TTerm.c ****                 TERM_sendVT100Code(handle, _VT100_CURSOR_FORWARD, 0);
 2756              		.loc 1 416 0
 2757 025c 0133     		adds	r3, r3, #1
 2758 025e A360     		str	r3, [r4, #8]
 417:..\common\tterm/TTerm.c ****             }
 2759              		.loc 1 417 0
 2760 0260 3246     		mov	r2, r6
 2761 0262 41F20301 		movw	r1, #4099
 2762 0266 0BE0     		b	.L527
 2763              	.LVL342:
 2764              	.L377:
 422:..\common\tterm/TTerm.c ****             
 2765              		.loc 1 422 0
 2766 0268 0321     		movs	r1, #3
 2767              	.LVL343:
 2768 026a 2046     		mov	r0, r4
 2769              	.LVL344:
 2770 026c FFF7FEFF 		bl	TERM_checkForCopy
 2771              	.LVL345:
 424:..\common\tterm/TTerm.c ****                 handle->currBufferPosition --;
 2772              		.loc 1 424 0
 2773 0270 A368     		ldr	r3, [r4, #8]
 2774 0272 002B     		cmp	r3, #0
 2775 0274 00F04281 		beq	.L366
 426:..\common\tterm/TTerm.c ****             }
 2776              		.loc 1 426 0
 2777 0278 3246     		mov	r2, r6
 2778 027a 2946     		mov	r1, r5
 425:..\common\tterm/TTerm.c ****                 TERM_sendVT100Code(handle, _VT100_CURSOR_BACK, 0);
 2779              		.loc 1 425 0
 2780 027c 013B     		subs	r3, r3, #1
 2781 027e A360     		str	r3, [r4, #8]
 2782              	.L527:
 426:..\common\tterm/TTerm.c ****             }
 2783              		.loc 1 426 0
 2784 0280 2046     		mov	r0, r4
 2785 0282 FFF7FEFF 		bl	TERM_sendVT100Code
 2786              	.LVL346:
 2787 0286 39E1     		b	.L366
 2788              	.LVL347:
 2789              	.L383:
 431:..\common\tterm/TTerm.c ****             
 2790              		.loc 1 431 0
 2791 0288 0121     		movs	r1, #1
 2792              	.LVL348:
 2793 028a 2046     		mov	r0, r4
 2794              	.LVL349:
 2795 028c FFF7FEFF 		bl	TERM_checkForCopy
 2796              	.LVL350:
ARM GAS  C:\Users\chemi\AppData\Local\Temp\cc0tO343.s 			page 74


 434:..\common\tterm/TTerm.c ****                 
 2797              		.loc 1 434 0
 2798 0290 0F21     		movs	r1, #15
 2799              	.L405:
 2800 0292 236F     		ldr	r3, [r4, #112]
 2801 0294 013B     		subs	r3, r3, #1
 2802 0296 0F2B     		cmp	r3, #15
 2803 0298 88BF     		it	hi
 2804 029a 0B46     		movhi	r3, r1
 436:..\common\tterm/TTerm.c ****                     break;
 2805              		.loc 1 436 0
 2806 029c 04EB8302 		add	r2, r4, r3, lsl #2
 2807 02a0 D06A     		ldr	r0, [r2, #44]
 434:..\common\tterm/TTerm.c ****                 
 2808              		.loc 1 434 0
 2809 02a2 2367     		str	r3, [r4, #112]
 2810 02a4 E26E     		ldr	r2, [r4, #108]
 436:..\common\tterm/TTerm.c ****                     break;
 2811              		.loc 1 436 0
 2812 02a6 A8B9     		cbnz	r0, .L543
 439:..\common\tterm/TTerm.c ****             
 2813              		.loc 1 439 0
 2814 02a8 9342     		cmp	r3, r2
 2815 02aa F2D1     		bne	.L405
 2816 02ac 12E0     		b	.L543
 2817              	.LVL351:
 2818              	.L382:
 453:..\common\tterm/TTerm.c ****             
 2819              		.loc 1 453 0
 2820 02ae 0121     		movs	r1, #1
 2821              	.LVL352:
 2822 02b0 2046     		mov	r0, r4
 2823              	.LVL353:
 2824 02b2 FFF7FEFF 		bl	TERM_checkForCopy
 2825              	.LVL354:
 455:..\common\tterm/TTerm.c ****                 if(++handle->currHistoryReadPosition >= TERM_HISTORYSIZE) handle->currHistoryReadPo
 2826              		.loc 1 455 0
 2827 02b6 E26E     		ldr	r2, [r4, #108]
 2828              	.L408:
 2829 02b8 236F     		ldr	r3, [r4, #112]
 2830 02ba 9342     		cmp	r3, r2
 2831 02bc 09D0     		beq	.L414
 456:..\common\tterm/TTerm.c ****                 
 2832              		.loc 1 456 0
 2833 02be 0133     		adds	r3, r3, #1
 2834 02c0 0F2B     		cmp	r3, #15
 2835 02c2 88BF     		it	hi
 2836 02c4 3346     		movhi	r3, r6
 2837 02c6 2367     		str	r3, [r4, #112]
 458:..\common\tterm/TTerm.c ****                     break;
 2838              		.loc 1 458 0
 2839 02c8 04EB8303 		add	r3, r4, r3, lsl #2
 2840 02cc DB6A     		ldr	r3, [r3, #44]
 2841 02ce 002B     		cmp	r3, #0
 2842 02d0 F2D0     		beq	.L408
 2843              	.L414:
 464:..\common\tterm/TTerm.c ****                 ttprintfEcho("\x07");   //rings a bell doesn't it?                                 
ARM GAS  C:\Users\chemi\AppData\Local\Temp\cc0tO343.s 			page 75


 2844              		.loc 1 464 0
 2845 02d2 236F     		ldr	r3, [r4, #112]
 2846              	.L543:
 2847 02d4 9A42     		cmp	r2, r3
 2848 02d6 7AD0     		beq	.L539
 469:..\common\tterm/TTerm.c ****                 ttprintfEcho("\r%s@%s>%s", handle->currUserName, TERM_DEVICE_NAME, handle->historyB
 2849              		.loc 1 469 0
 2850 02d8 0022     		movs	r2, #0
 2851 02da 0C21     		movs	r1, #12
 2852 02dc 2046     		mov	r0, r4
 2853 02de FFF7FEFF 		bl	TERM_sendVT100Code
 2854              	.LVL355:
 470:..\common\tterm/TTerm.c ****             }
 2855              		.loc 1 470 0
 2856 02e2 D4F88830 		ldr	r3, [r4, #136]
 2857 02e6 002B     		cmp	r3, #0
 2858 02e8 00F00881 		beq	.L366
 2859 02ec 236F     		ldr	r3, [r4, #112]
 2860 02ee 04EB8303 		add	r3, r4, r3, lsl #2
 2861 02f2 DB6A     		ldr	r3, [r3, #44]
 2862 02f4 7DE0     		b	.L530
 2863              	.L547:
 2864 02f6 00BF     		.align	2
 2865              	.L546:
 2866 02f8 1E020000 		.word	.LC55
 2867 02fc 00000000 		.word	.LC0
 2868 0300 04000000 		.word	.LC1
 2869 0304 21020000 		.word	.LC56
 2870 0308 29020000 		.word	.LC57
 2871 030c 2B020000 		.word	.LC58
 2872 0310 2E020000 		.word	.LC59
 2873              	.LVL356:
 2874              	.L372:
 475:..\common\tterm/TTerm.c ****             
 2875              		.loc 1 475 0
 2876 0314 0221     		movs	r1, #2
 2877              	.LVL357:
 2878 0316 2046     		mov	r0, r4
 2879              	.LVL358:
 2880 0318 FFF7FEFF 		bl	TERM_checkForCopy
 2881              	.LVL359:
 477:..\common\tterm/TTerm.c ****                 TERM_doAutoComplete(handle);
 2882              		.loc 1 477 0
 2883 031c A369     		ldr	r3, [r4, #24]
 2884 031e 13B9     		cbnz	r3, .L416
 478:..\common\tterm/TTerm.c ****             }
 2885              		.loc 1 478 0
 2886 0320 2046     		mov	r0, r4
 2887 0322 FFF7FEFF 		bl	TERM_doAutoComplete
 2888              	.LVL360:
 2889              	.L416:
 481:..\common\tterm/TTerm.c ****             
 2890              		.loc 1 481 0
 2891 0326 2369     		ldr	r3, [r4, #16]
 2892 0328 E269     		ldr	r2, [r4, #28]
 2893 032a 0133     		adds	r3, r3, #1
 2894 032c 9342     		cmp	r3, r2
ARM GAS  C:\Users\chemi\AppData\Local\Temp\cc0tO343.s 			page 76


 2895 032e 2361     		str	r3, [r4, #16]
 2896 0330 84BF     		itt	hi
 2897 0332 0023     		movhi	r3, #0
 2898 0334 2361     		strhi	r3, [r4, #16]
 483:..\common\tterm/TTerm.c ****                 ttprintfEcho("\x07");
 2899              		.loc 1 483 0
 2900 0336 2369     		ldr	r3, [r4, #16]
 2901 0338 002B     		cmp	r3, #0
 2902 033a 48D0     		beq	.L539
 2903              	.LBB76:
 488:..\common\tterm/TTerm.c ****                 unsigned printQuotationMarks = strchr(handle->autocompleteBuffer[handle->currAutoco
 2904              		.loc 1 488 0
 2905 033c 0022     		movs	r2, #0
 2906 033e 0C21     		movs	r1, #12
 2907 0340 2046     		mov	r0, r4
 2908 0342 FFF7FEFF 		bl	TERM_sendVT100Code
 2909              	.LVL361:
 489:..\common\tterm/TTerm.c ****                 
 2910              		.loc 1 489 0
 2911 0346 2369     		ldr	r3, [r4, #16]
 2912 0348 A269     		ldr	r2, [r4, #24]
 2913 034a 03F18043 		add	r3, r3, #1073741824
 2914 034e 013B     		subs	r3, r3, #1
 2915 0350 52F82350 		ldr	r5, [r2, r3, lsl #2]
 2916 0354 2021     		movs	r1, #32
 2917 0356 2846     		mov	r0, r5
 2918 0358 FFF7FEFF 		bl	strchr
 2919              	.LVL362:
 492:..\common\tterm/TTerm.c ****                     ttprintfEcho(printQuotationMarks ? "\r%s@%s>\"%s\"" : "\r%s@%s>%s", handle->cur
 2920              		.loc 1 492 0
 2921 035c 236A     		ldr	r3, [r4, #32]
 489:..\common\tterm/TTerm.c ****                 
 2922              		.loc 1 489 0
 2923 035e 0646     		mov	r6, r0
 2924              	.LVL363:
 2925 0360 D4F88820 		ldr	r2, [r4, #136]
 492:..\common\tterm/TTerm.c ****                     ttprintfEcho(printQuotationMarks ? "\r%s@%s>\"%s\"" : "\r%s@%s>%s", handle->cur
 2926              		.loc 1 492 0
 2927 0364 73B9     		cbnz	r3, .L420
 493:..\common\tterm/TTerm.c ****                 }else{
 2928              		.loc 1 493 0
 2929 0366 002A     		cmp	r2, #0
 2930 0368 00F0C880 		beq	.L366
 2931 036c 676A     		ldr	r7, [r4, #36]
 2932 036e 6068     		ldr	r0, [r4, #4]
 2933              	.LVL364:
 2934 0370 0095     		str	r5, [sp]
 2935 0372 A26A     		ldr	r2, [r4, #40]
 2936 0374 6349     		ldr	r1, .L548
 2937 0376 644C     		ldr	r4, .L548+4
 2938              	.LVL365:
 2939 0378 644B     		ldr	r3, .L548+8
 2940 037a 002E     		cmp	r6, #0
 2941 037c 18BF     		it	ne
 2942 037e 2146     		movne	r1, r4
 2943 0380 B847     		blx	r7
 2944              	.LVL366:
ARM GAS  C:\Users\chemi\AppData\Local\Temp\cc0tO343.s 			page 77


 2945 0382 BBE0     		b	.L366
 2946              	.LVL367:
 2947              	.L420:
 495:..\common\tterm/TTerm.c ****                 }
 2948              		.loc 1 495 0
 2949 0384 002A     		cmp	r2, #0
 2950 0386 00F0B980 		beq	.L366
 2951 038a 676A     		ldr	r7, [r4, #36]
 2952 038c 6068     		ldr	r0, [r4, #4]
 2953              	.LVL368:
 2954 038e 0295     		str	r5, [sp, #8]
 2955 0390 2268     		ldr	r2, [r4]
 2956 0392 0093     		str	r3, [sp]
 2957 0394 0192     		str	r2, [sp, #4]
 2958 0396 A26A     		ldr	r2, [r4, #40]
 2959 0398 5D49     		ldr	r1, .L548+12
 2960 039a 5E4C     		ldr	r4, .L548+16
 2961              	.LVL369:
 2962 039c 5B4B     		ldr	r3, .L548+8
 2963 039e 002E     		cmp	r6, #0
 2964 03a0 18BF     		it	ne
 2965 03a2 2146     		movne	r1, r4
 2966 03a4 B847     		blx	r7
 2967              	.LVL370:
 2968 03a6 A9E0     		b	.L366
 2969              	.LVL371:
 2970              	.L384:
 2971              	.LBE76:
 501:..\common\tterm/TTerm.c ****             
 2972              		.loc 1 501 0
 2973 03a8 0221     		movs	r1, #2
 2974              	.LVL372:
 2975 03aa 2046     		mov	r0, r4
 2976              	.LVL373:
 2977 03ac FFF7FEFF 		bl	TERM_checkForCopy
 2978              	.LVL374:
 503:..\common\tterm/TTerm.c ****                 TERM_doAutoComplete(handle);
 2979              		.loc 1 503 0
 2980 03b0 A369     		ldr	r3, [r4, #24]
 2981 03b2 13B9     		cbnz	r3, .L423
 504:..\common\tterm/TTerm.c ****             }
 2982              		.loc 1 504 0
 2983 03b4 2046     		mov	r0, r4
 2984 03b6 FFF7FEFF 		bl	TERM_doAutoComplete
 2985              	.LVL375:
 2986              	.L423:
 507:..\common\tterm/TTerm.c ****             
 2987              		.loc 1 507 0
 2988 03ba 2269     		ldr	r2, [r4, #16]
 2989 03bc E369     		ldr	r3, [r4, #28]
 2990 03be 013A     		subs	r2, r2, #1
 2991 03c0 013B     		subs	r3, r3, #1
 2992 03c2 9A42     		cmp	r2, r3
 2993 03c4 2261     		str	r2, [r4, #16]
 2994 03c6 88BF     		it	hi
 2995 03c8 2361     		strhi	r3, [r4, #16]
 509:..\common\tterm/TTerm.c ****                 ttprintfEcho("\x07");
ARM GAS  C:\Users\chemi\AppData\Local\Temp\cc0tO343.s 			page 78


 2996              		.loc 1 509 0
 2997 03ca 2369     		ldr	r3, [r4, #16]
 2998 03cc CBB9     		cbnz	r3, .L425
 2999              	.L539:
 510:..\common\tterm/TTerm.c ****                 TERM_sendVT100Code(handle, _VT100_ERASE_LINE, 0);
 3000              		.loc 1 510 0
 3001 03ce D4F88830 		ldr	r3, [r4, #136]
 3002 03d2 1BB1     		cbz	r3, .L426
 3003 03d4 636A     		ldr	r3, [r4, #36]
 3004 03d6 5049     		ldr	r1, .L548+20
 3005 03d8 6068     		ldr	r0, [r4, #4]
 3006 03da 9847     		blx	r3
 3007              	.LVL376:
 3008              	.L426:
 511:..\common\tterm/TTerm.c ****                 ttprintfEcho("\r%s@%s>%s", handle->currUserName, TERM_DEVICE_NAME, handle->inputBuf
 3009              		.loc 1 511 0
 3010 03dc 0022     		movs	r2, #0
 3011 03de 0C21     		movs	r1, #12
 3012 03e0 2046     		mov	r0, r4
 3013 03e2 FFF7FEFF 		bl	TERM_sendVT100Code
 3014              	.LVL377:
 512:..\common\tterm/TTerm.c ****             }else{
 3015              		.loc 1 512 0
 3016 03e6 D4F88830 		ldr	r3, [r4, #136]
 3017 03ea 002B     		cmp	r3, #0
 3018 03ec 00F08680 		beq	.L366
 3019 03f0 2368     		ldr	r3, [r4]
 3020              	.L530:
 3021 03f2 0093     		str	r3, [sp]
 3022 03f4 656A     		ldr	r5, [r4, #36]
 3023 03f6 454B     		ldr	r3, .L548+8
 3024 03f8 A26A     		ldr	r2, [r4, #40]
 3025 03fa 4249     		ldr	r1, .L548
 3026 03fc 6068     		ldr	r0, [r4, #4]
 3027 03fe A847     		blx	r5
 3028              	.LVL378:
 3029 0400 7CE0     		b	.L366
 3030              	.L425:
 3031              	.LBB77:
 514:..\common\tterm/TTerm.c ****                 unsigned printQuotationMarks = strchr(handle->autocompleteBuffer[handle->currAutoco
 3032              		.loc 1 514 0
 3033 0402 0022     		movs	r2, #0
 3034 0404 0C21     		movs	r1, #12
 3035 0406 2046     		mov	r0, r4
 3036 0408 FFF7FEFF 		bl	TERM_sendVT100Code
 3037              	.LVL379:
 515:..\common\tterm/TTerm.c ****                 ttprintfEcho(printQuotationMarks ? "\r%s@%s>%.*s\"%s\"" : "\r%s@%s>%.*s%s", handle-
 3038              		.loc 1 515 0
 3039 040c 2369     		ldr	r3, [r4, #16]
 3040 040e A269     		ldr	r2, [r4, #24]
 3041 0410 03F18043 		add	r3, r3, #1073741824
 3042 0414 013B     		subs	r3, r3, #1
 3043 0416 52F82350 		ldr	r5, [r2, r3, lsl #2]
 3044 041a 2021     		movs	r1, #32
 3045 041c 2846     		mov	r0, r5
 3046 041e FFF7FEFF 		bl	strchr
 3047              	.LVL380:
ARM GAS  C:\Users\chemi\AppData\Local\Temp\cc0tO343.s 			page 79


 516:..\common\tterm/TTerm.c ****             }
 3048              		.loc 1 516 0
 3049 0422 D4F88830 		ldr	r3, [r4, #136]
 515:..\common\tterm/TTerm.c ****                 ttprintfEcho(printQuotationMarks ? "\r%s@%s>%.*s\"%s\"" : "\r%s@%s>%.*s%s", handle-
 3050              		.loc 1 515 0
 3051 0426 0746     		mov	r7, r0
 3052              	.LVL381:
 516:..\common\tterm/TTerm.c ****             }
 3053              		.loc 1 516 0
 3054 0428 002B     		cmp	r3, #0
 3055 042a 67D0     		beq	.L366
 3056 042c 666A     		ldr	r6, [r4, #36]
 3057 042e 6068     		ldr	r0, [r4, #4]
 3058              	.LVL382:
 3059 0430 0295     		str	r5, [sp, #8]
 3060 0432 2368     		ldr	r3, [r4]
 3061 0434 3749     		ldr	r1, .L548+16
 3062 0436 0193     		str	r3, [sp, #4]
 3063 0438 236A     		ldr	r3, [r4, #32]
 3064 043a 0093     		str	r3, [sp]
 3065 043c A26A     		ldr	r2, [r4, #40]
 3066 043e 344C     		ldr	r4, .L548+12
 3067              	.LVL383:
 3068 0440 324B     		ldr	r3, .L548+8
 3069 0442 002F     		cmp	r7, #0
 3070 0444 08BF     		it	eq
 3071 0446 2146     		moveq	r1, r4
 3072 0448 B047     		blx	r6
 3073              	.LVL384:
 3074 044a 57E0     		b	.L366
 3075              	.LVL385:
 3076              	.L368:
 3077              	.LBE77:
 521:..\common\tterm/TTerm.c ****             break;
 3078              		.loc 1 521 0
 3079 044c 0846     		mov	r0, r1
 3080              	.LVL386:
 3081 044e FFF7FEFF 		bl	TERM_printBootMessage
 3082              	.LVL387:
 3083 0452 53E0     		b	.L366
 3084              	.LVL388:
 3085              	.L375:
 525:..\common\tterm/TTerm.c **** 
 3086              		.loc 1 525 0
 3087 0454 0321     		movs	r1, #3
 3088              	.LVL389:
 3089 0456 2046     		mov	r0, r4
 3090              	.LVL390:
 3091 0458 FFF7FEFF 		bl	TERM_checkForCopy
 3092              	.LVL391:
 529:..\common\tterm/TTerm.c **** 				strsft(handle->inputBuffer, handle->currBufferPosition, 1);
 3093              		.loc 1 529 0
 3094 045c 2068     		ldr	r0, [r4]
 3095 045e A168     		ldr	r1, [r4, #8]
 3096 0460 435C     		ldrb	r3, [r0, r1]	@ zero_extendqisi2
 3097 0462 33B3     		cbz	r3, .L428
 3098 0464 E368     		ldr	r3, [r4, #12]
ARM GAS  C:\Users\chemi\AppData\Local\Temp\cc0tO343.s 			page 80


 3099 0466 7D2B     		cmp	r3, #125
 3100 0468 23D8     		bhi	.L428
 530:..\common\tterm/TTerm.c **** 				handle->inputBuffer[handle->currBufferPosition] = c;
 3101              		.loc 1 530 0
 3102 046a 0122     		movs	r2, #1
 3103 046c FFF7FEFF 		bl	strsft
 3104              	.LVL392:
 531:..\common\tterm/TTerm.c **** 				TERM_sendVT100Code(handle, _VT100_ERASE_LINE_END, 0);
 3105              		.loc 1 531 0
 3106 0470 2268     		ldr	r2, [r4]
 3107 0472 A368     		ldr	r3, [r4, #8]
 532:..\common\tterm/TTerm.c **** 				ttprintfEcho("%s", &handle->inputBuffer[handle->currBufferPosition]);
 3108              		.loc 1 532 0
 3109 0474 1121     		movs	r1, #17
 531:..\common\tterm/TTerm.c **** 				TERM_sendVT100Code(handle, _VT100_ERASE_LINE_END, 0);
 3110              		.loc 1 531 0
 3111 0476 D554     		strb	r5, [r2, r3]
 532:..\common\tterm/TTerm.c **** 				ttprintfEcho("%s", &handle->inputBuffer[handle->currBufferPosition]);
 3112              		.loc 1 532 0
 3113 0478 2046     		mov	r0, r4
 3114 047a 3246     		mov	r2, r6
 3115 047c FFF7FEFF 		bl	TERM_sendVT100Code
 3116              	.LVL393:
 533:..\common\tterm/TTerm.c **** 				TERM_sendVT100Code(handle, _VT100_CURSOR_BACK_BY, handle->currBufferLength - handle->currBuffer
 3117              		.loc 1 533 0
 3118 0480 D4F88830 		ldr	r3, [r4, #136]
 3119 0484 33B1     		cbz	r3, .L429
 3120 0486 2168     		ldr	r1, [r4]
 3121 0488 A268     		ldr	r2, [r4, #8]
 3122 048a 636A     		ldr	r3, [r4, #36]
 3123 048c 0A44     		add	r2, r2, r1
 3124 048e 6068     		ldr	r0, [r4, #4]
 3125 0490 2249     		ldr	r1, .L548+24
 3126 0492 9847     		blx	r3
 3127              	.LVL394:
 3128              	.L429:
 534:..\common\tterm/TTerm.c **** 				handle->currBufferLength ++;
 3129              		.loc 1 534 0
 3130 0494 E368     		ldr	r3, [r4, #12]
 3131 0496 A268     		ldr	r2, [r4, #8]
 3132 0498 1221     		movs	r1, #18
 3133 049a 9A1A     		subs	r2, r3, r2
 3134 049c D2B2     		uxtb	r2, r2
 3135 049e 2046     		mov	r0, r4
 3136 04a0 FFF7FEFF 		bl	TERM_sendVT100Code
 3137              	.LVL395:
 535:..\common\tterm/TTerm.c **** 				handle->currBufferPosition ++;
 3138              		.loc 1 535 0
 3139 04a4 E368     		ldr	r3, [r4, #12]
 3140 04a6 0133     		adds	r3, r3, #1
 3141 04a8 E360     		str	r3, [r4, #12]
 536:..\common\tterm/TTerm.c **** 			}else{
 3142              		.loc 1 536 0
 3143 04aa A368     		ldr	r3, [r4, #8]
 3144 04ac 0133     		adds	r3, r3, #1
 3145 04ae A360     		str	r3, [r4, #8]
 3146 04b0 14E0     		b	.L430
ARM GAS  C:\Users\chemi\AppData\Local\Temp\cc0tO343.s 			page 81


 3147              	.L428:
 540:..\common\tterm/TTerm.c **** 				handle->inputBuffer[handle->currBufferPosition] = 0;
 3148              		.loc 1 540 0
 3149 04b2 4B1C     		adds	r3, r1, #1
 3150 04b4 A360     		str	r3, [r4, #8]
 3151 04b6 4554     		strb	r5, [r0, r1]
 541:..\common\tterm/TTerm.c **** 				handle->currBufferLength ++;
 3152              		.loc 1 541 0
 3153 04b8 A368     		ldr	r3, [r4, #8]
 3154 04ba 2268     		ldr	r2, [r4]
 3155 04bc 0021     		movs	r1, #0
 3156 04be D154     		strb	r1, [r2, r3]
 542:..\common\tterm/TTerm.c **** 				if(handle->currBufferPosition < TERM_INPUTBUFFER_SIZE -1){
 3157              		.loc 1 542 0
 3158 04c0 E368     		ldr	r3, [r4, #12]
 3159 04c2 0133     		adds	r3, r3, #1
 3160 04c4 E360     		str	r3, [r4, #12]
 543:..\common\tterm/TTerm.c **** 					ttprintfEcho("%c", c);
 3161              		.loc 1 543 0
 3162 04c6 A368     		ldr	r3, [r4, #8]
 3163 04c8 7E2B     		cmp	r3, #126
 3164 04ca 07D8     		bhi	.L430
 544:..\common\tterm/TTerm.c **** 				}
 3165              		.loc 1 544 0
 3166 04cc D4F88830 		ldr	r3, [r4, #136]
 3167 04d0 23B1     		cbz	r3, .L430
 3168 04d2 636A     		ldr	r3, [r4, #36]
 3169 04d4 2A46     		mov	r2, r5
 3170 04d6 1249     		ldr	r1, .L548+28
 3171 04d8 6068     		ldr	r0, [r4, #4]
 3172 04da 9847     		blx	r3
 3173              	.LVL396:
 3174              	.L430:
 549:..\common\tterm/TTerm.c **** 				handle->currBufferPosition = TERM_INPUTBUFFER_SIZE -2;
 3175              		.loc 1 549 0
 3176 04dc A368     		ldr	r3, [r4, #8]
 3177 04de 7E2B     		cmp	r3, #126
 550:..\common\tterm/TTerm.c **** 			}
 3178              		.loc 1 550 0
 3179 04e0 84BF     		itt	hi
 3180 04e2 7E23     		movhi	r3, #126
 3181 04e4 A360     		strhi	r3, [r4, #8]
 552:..\common\tterm/TTerm.c **** 				handle->currBufferLength = TERM_INPUTBUFFER_SIZE -2;
 3182              		.loc 1 552 0
 3183 04e6 E368     		ldr	r3, [r4, #12]
 3184 04e8 7E2B     		cmp	r3, #126
 3185 04ea 07D9     		bls	.L366
 553:..\common\tterm/TTerm.c **** 			}
 3186              		.loc 1 553 0
 3187 04ec 7E23     		movs	r3, #126
 3188              	.L528:
 3189 04ee E360     		str	r3, [r4, #12]
 3190 04f0 04E0     		b	.L366
 3191              	.LVL397:
 3192              	.L367:
 559:..\common\tterm/TTerm.c ****             break;
 3193              		.loc 1 559 0
ARM GAS  C:\Users\chemi\AppData\Local\Temp\cc0tO343.s 			page 82


 3194 04f2 2A46     		mov	r2, r5
 3195 04f4 0B49     		ldr	r1, .L548+32
 3196              	.LVL398:
 3197 04f6 2046     		mov	r0, r4
 3198              	.LVL399:
 3199 04f8 FFF7FEFF 		bl	TERM_printDebug
 3200              	.LVL400:
 3201              	.L366:
 3202              	.LBE71:
 3203              	.LBE70:
 563:..\common\tterm/TTerm.c **** 
 3204              		.loc 1 563 0
 3205 04fc 0120     		movs	r0, #1
 3206 04fe 05B0     		add	sp, sp, #20
 3207              		.cfi_def_cfa_offset 20
 3208              		@ sp needed
 3209 0500 F0BD     		pop	{r4, r5, r6, r7, pc}
 3210              	.L549:
 3211 0502 00BF     		.align	2
 3212              	.L548:
 3213 0504 F6010000 		.word	.LC52
 3214 0508 EA010000 		.word	.LC51
 3215 050c 00000000 		.word	.LC0
 3216 0510 10020000 		.word	.LC54
 3217 0514 00020000 		.word	.LC53
 3218 0518 32020000 		.word	.LC60
 3219 051c 2B020000 		.word	.LC58
 3220 0520 34020000 		.word	.LC61
 3221 0524 37020000 		.word	.LC62
 3222              		.cfi_endproc
 3223              	.LFE78:
 3224              		.size	TERM_handleInput, .-TERM_handleInput
 3225              		.section	.text.TERM_processBuffer,"ax",%progbits
 3226              		.align	1
 3227              		.global	TERM_processBuffer
 3228              		.thumb
 3229              		.thumb_func
 3230              		.type	TERM_processBuffer, %function
 3231              	TERM_processBuffer:
 3232              	.LFB72:
 154:..\common\tterm/TTerm.c ****     uint16_t currPos = 0;
 3233              		.loc 1 154 0
 3234              		.cfi_startproc
 3235              		@ args = 0, pretend = 0, frame = 0
 3236              		@ frame_needed = 0, uses_anonymous_args = 0
 3237              	.LVL401:
 3238 0000 2DE9F843 		push	{r3, r4, r5, r6, r7, r8, r9, lr}
 3239              		.cfi_def_cfa_offset 32
 3240              		.cfi_offset 3, -32
 3241              		.cfi_offset 4, -28
 3242              		.cfi_offset 5, -24
 3243              		.cfi_offset 6, -20
 3244              		.cfi_offset 7, -16
 3245              		.cfi_offset 8, -12
 3246              		.cfi_offset 9, -8
 3247              		.cfi_offset 14, -4
 154:..\common\tterm/TTerm.c ****     uint16_t currPos = 0;
ARM GAS  C:\Users\chemi\AppData\Local\Temp\cc0tO343.s 			page 83


 3248              		.loc 1 154 0
 3249 0004 8846     		mov	r8, r1
 3250 0006 1446     		mov	r4, r2
 3251 0008 0546     		mov	r5, r0
 3252 000a 00EB0109 		add	r9, r0, r1
 253:..\common\tterm/TTerm.c **** 				}else{
 3253              		.loc 1 253 0
 3254 000e 0026     		movs	r6, #0
 246:..\common\tterm/TTerm.c **** 					}else{
 3255              		.loc 1 246 0
 3256 0010 FF27     		movs	r7, #255
 3257              	.LVL402:
 3258              	.L551:
 156:..\common\tterm/TTerm.c **** 
 3259              		.loc 1 156 0 discriminator 1
 3260 0012 4D45     		cmp	r5, r9
 3261 0014 00F0A280 		beq	.L596
 158:..\common\tterm/TTerm.c ****     		TERM_handleInput(data[currPos], handle);
 3262              		.loc 1 158 0
 3263 0018 6369     		ldr	r3, [r4, #20]
 3264 001a 13B1     		cbz	r3, .L552
 158:..\common\tterm/TTerm.c ****     		TERM_handleInput(data[currPos], handle);
 3265              		.loc 1 158 0 is_stmt 0 discriminator 1
 3266 001c 1B7A     		ldrb	r3, [r3, #8]	@ zero_extendqisi2
 3267 001e 012B     		cmp	r3, #1
 3268 0020 1ED0     		beq	.L595
 3269              	.L552:
 162:..\common\tterm/TTerm.c **** 				if(handle->currEscSeqPos == 0){
 3270              		.loc 1 162 0 is_stmt 1
 3271 0022 94F87420 		ldrb	r2, [r4, #116]	@ zero_extendqisi2
 3272 0026 FF2A     		cmp	r2, #255
 3273 0028 00F08D80 		beq	.L554
 163:..\common\tterm/TTerm.c **** 					if(data[currPos] == '['){
 3274              		.loc 1 163 0
 3275 002c DAB9     		cbnz	r2, .L555
 164:..\common\tterm/TTerm.c **** 						if(handle->currEscSeqPos < TTERM_ESC_SEQ_BUFFER_SIZE){
 3276              		.loc 1 164 0
 3277 002e 2B78     		ldrb	r3, [r5]	@ zero_extendqisi2
 3278 0030 5B2B     		cmp	r3, #91
 3279 0032 05D1     		bne	.L556
 166:..\common\tterm/TTerm.c **** 							handle->currEscSeqPos++;
 3280              		.loc 1 166 0
 3281 0034 84F87530 		strb	r3, [r4, #117]
 167:..\common\tterm/TTerm.c **** 						}
 3282              		.loc 1 167 0
 3283 0038 0123     		movs	r3, #1
 3284 003a 84F87430 		strb	r3, [r4, #116]
 3285 003e 8BE0     		b	.L553
 3286              	.L556:
 170:..\common\tterm/TTerm.c **** 							case 'c':
 3287              		.loc 1 170 0
 3288 0040 1B2B     		cmp	r3, #27
 3289 0042 07D0     		beq	.L558
 3290 0044 632B     		cmp	r3, #99
 172:..\common\tterm/TTerm.c **** 								TERM_handleInput(_VT100_RESET, handle);
 3291              		.loc 1 172 0
 3292 0046 84F87470 		strb	r7, [r4, #116]
ARM GAS  C:\Users\chemi\AppData\Local\Temp\cc0tO343.s 			page 84


 173:..\common\tterm/TTerm.c **** 								break;
 3293              		.loc 1 173 0
 3294 004a 2146     		mov	r1, r4
 170:..\common\tterm/TTerm.c **** 							case 'c':
 3295              		.loc 1 170 0
 3296 004c 05D1     		bne	.L589
 3297              	.LVL403:
 173:..\common\tterm/TTerm.c **** 								break;
 3298              		.loc 1 173 0
 3299 004e 4FF48050 		mov	r0, #4096
 3300 0052 7FE0     		b	.L594
 3301              	.LVL404:
 3302              	.L558:
 176:..\common\tterm/TTerm.c **** 								break;
 3303              		.loc 1 176 0
 3304 0054 84F87420 		strb	r2, [r4, #116]
 177:..\common\tterm/TTerm.c **** 							default:
 3305              		.loc 1 177 0
 3306 0058 7EE0     		b	.L553
 3307              	.LVL405:
 3308              	.L589:
 180:..\common\tterm/TTerm.c **** 								TERM_handleInput(data[currPos], handle);
 3309              		.loc 1 180 0
 3310 005a 1B20     		movs	r0, #27
 3311 005c FFF7FEFF 		bl	TERM_handleInput
 3312              	.LVL406:
 3313              	.L595:
 181:..\common\tterm/TTerm.c **** 								break;
 3314              		.loc 1 181 0
 3315 0060 2146     		mov	r1, r4
 3316 0062 2878     		ldrb	r0, [r5]	@ zero_extendqisi2
 3317 0064 76E0     		b	.L594
 3318              	.L555:
 186:..\common\tterm/TTerm.c **** 						if(data[currPos] == 'n'){
 3319              		.loc 1 186 0
 3320 0066 2978     		ldrb	r1, [r5]	@ zero_extendqisi2
 3321 0068 0846     		mov	r0, r1
 3322 006a FFF7FEFF 		bl	isACIILetter
 3323              	.LVL407:
 3324 006e 0028     		cmp	r0, #0
 3325 0070 61D0     		beq	.L560
 187:..\common\tterm/TTerm.c **** 							if(handle->currEscSeqPos == 2){
 3326              		.loc 1 187 0
 3327 0072 6E29     		cmp	r1, #110
 3328 0074 5CD0     		beq	.L561
 193:..\common\tterm/TTerm.c **** 							if(handle->currEscSeqPos == 1){              //Query device code
 3329              		.loc 1 193 0
 3330 0076 6329     		cmp	r1, #99
 3331 0078 5AD0     		beq	.L561
 196:..\common\tterm/TTerm.c **** 							if(handle->currEscSeqPos == 1){              //end
 3332              		.loc 1 196 0
 3333 007a 4629     		cmp	r1, #70
 3334 007c 05D1     		bne	.L562
 197:..\common\tterm/TTerm.c **** 								TERM_handleInput(_VT100_KEY_END, handle);
 3335              		.loc 1 197 0
 3336 007e 012A     		cmp	r2, #1
 3337 0080 56D1     		bne	.L561
ARM GAS  C:\Users\chemi\AppData\Local\Temp\cc0tO343.s 			page 85


 198:..\common\tterm/TTerm.c **** 							}
 3338              		.loc 1 198 0
 3339 0082 2146     		mov	r1, r4
 3340 0084 41F20100 		movw	r0, #4097
 3341 0088 49E0     		b	.L590
 3342              	.L562:
 200:..\common\tterm/TTerm.c **** 							if(handle->currEscSeqPos == 1){              //pos1
 3343              		.loc 1 200 0
 3344 008a 4829     		cmp	r1, #72
 3345 008c 05D1     		bne	.L563
 201:..\common\tterm/TTerm.c **** 								TERM_handleInput(_VT100_KEY_POS1, handle);
 3346              		.loc 1 201 0
 3347 008e 012A     		cmp	r2, #1
 3348 0090 4ED1     		bne	.L561
 202:..\common\tterm/TTerm.c **** 							}
 3349              		.loc 1 202 0
 3350 0092 2146     		mov	r1, r4
 3351 0094 41F20200 		movw	r0, #4098
 3352 0098 41E0     		b	.L590
 3353              	.L563:
 204:..\common\tterm/TTerm.c **** 							if(handle->currEscSeqPos > 1){
 3354              		.loc 1 204 0
 3355 009a 4329     		cmp	r1, #67
 3356 009c 05D1     		bne	.L564
 205:..\common\tterm/TTerm.c **** 								handle->escSeqBuff[handle->currEscSeqPos] = 0;
 3357              		.loc 1 205 0
 3358 009e 012A     		cmp	r2, #1
 3359 00a0 17D1     		bne	.L593
 208:..\common\tterm/TTerm.c **** 							}
 3360              		.loc 1 208 0
 3361 00a2 2146     		mov	r1, r4
 3362 00a4 41F20300 		movw	r0, #4099
 3363 00a8 39E0     		b	.L590
 3364              	.L564:
 210:..\common\tterm/TTerm.c **** 							if(handle->currEscSeqPos > 1){
 3365              		.loc 1 210 0
 3366 00aa 4429     		cmp	r1, #68
 3367 00ac 05D1     		bne	.L566
 211:..\common\tterm/TTerm.c **** 								handle->escSeqBuff[handle->currEscSeqPos] = 0;
 3368              		.loc 1 211 0
 3369 00ae 012A     		cmp	r2, #1
 3370 00b0 0FD1     		bne	.L593
 214:..\common\tterm/TTerm.c **** 							}
 3371              		.loc 1 214 0
 3372 00b2 2146     		mov	r1, r4
 3373 00b4 41F20400 		movw	r0, #4100
 3374 00b8 31E0     		b	.L590
 3375              	.L566:
 216:..\common\tterm/TTerm.c **** 							if(handle->currEscSeqPos > 1){
 3376              		.loc 1 216 0
 3377 00ba 4129     		cmp	r1, #65
 3378 00bc 05D1     		bne	.L568
 217:..\common\tterm/TTerm.c **** 								handle->escSeqBuff[handle->currEscSeqPos] = 0;
 3379              		.loc 1 217 0
 3380 00be 012A     		cmp	r2, #1
 3381 00c0 07D1     		bne	.L593
 220:..\common\tterm/TTerm.c **** 							}
ARM GAS  C:\Users\chemi\AppData\Local\Temp\cc0tO343.s 			page 86


 3382              		.loc 1 220 0
 3383 00c2 2146     		mov	r1, r4
 3384 00c4 41F20500 		movw	r0, #4101
 3385 00c8 29E0     		b	.L590
 3386              	.L568:
 222:..\common\tterm/TTerm.c **** 							if(handle->currEscSeqPos > 1){
 3387              		.loc 1 222 0
 3388 00ca 4229     		cmp	r1, #66
 3389 00cc 09D1     		bne	.L570
 223:..\common\tterm/TTerm.c **** 								handle->escSeqBuff[handle->currEscSeqPos] = 0;
 3390              		.loc 1 223 0
 3391 00ce 012A     		cmp	r2, #1
 3392 00d0 03D0     		beq	.L571
 3393              	.L593:
 224:..\common\tterm/TTerm.c **** 							}else{
 3394              		.loc 1 224 0
 3395 00d2 2244     		add	r2, r2, r4
 3396 00d4 82F87560 		strb	r6, [r2, #117]
 3397 00d8 2AE0     		b	.L561
 3398              	.L571:
 226:..\common\tterm/TTerm.c **** 							}
 3399              		.loc 1 226 0
 3400 00da 2146     		mov	r1, r4
 3401 00dc 41F20600 		movw	r0, #4102
 3402 00e0 1DE0     		b	.L590
 3403              	.L570:
 228:..\common\tterm/TTerm.c **** 							TERM_handleInput(_VT100_BACKWARDS_TAB, handle);
 3404              		.loc 1 228 0
 3405 00e2 5A29     		cmp	r1, #90
 3406 00e4 03D1     		bne	.L572
 229:..\common\tterm/TTerm.c **** 
 3407              		.loc 1 229 0
 3408 00e6 2146     		mov	r1, r4
 3409 00e8 41F20700 		movw	r0, #4103
 3410 00ec 17E0     		b	.L590
 3411              	.L572:
 231:..\common\tterm/TTerm.c **** 							if(handle->escSeqBuff[1] == 0x32){            //insert
 3412              		.loc 1 231 0
 3413 00ee 7E29     		cmp	r1, #126
 3414 00f0 1BD1     		bne	.L573
 232:..\common\tterm/TTerm.c **** 								TERM_handleInput(_VT100_KEY_INS, handle);
 3415              		.loc 1 232 0
 3416 00f2 94F87630 		ldrb	r3, [r4, #118]	@ zero_extendqisi2
 233:..\common\tterm/TTerm.c **** 							}else if(handle->escSeqBuff[1] == 0x33){      //delete
 3417              		.loc 1 233 0
 3418 00f6 2146     		mov	r1, r4
 232:..\common\tterm/TTerm.c **** 								TERM_handleInput(_VT100_KEY_INS, handle);
 3419              		.loc 1 232 0
 3420 00f8 322B     		cmp	r3, #50
 3421 00fa 02D1     		bne	.L574
 3422              	.LVL408:
 233:..\common\tterm/TTerm.c **** 							}else if(handle->escSeqBuff[1] == 0x33){      //delete
 3423              		.loc 1 233 0
 3424 00fc 41F20900 		movw	r0, #4105
 3425 0100 0DE0     		b	.L590
 3426              	.L574:
 234:..\common\tterm/TTerm.c **** 								TERM_handleInput(_VT100_KEY_DEL, handle);
ARM GAS  C:\Users\chemi\AppData\Local\Temp\cc0tO343.s 			page 87


 3427              		.loc 1 234 0
 3428 0102 332B     		cmp	r3, #51
 3429 0104 02D1     		bne	.L575
 235:..\common\tterm/TTerm.c **** 							}else if(handle->escSeqBuff[1] == 0x35){      //page up
 3430              		.loc 1 235 0
 3431 0106 41F20800 		movw	r0, #4104
 3432 010a 08E0     		b	.L590
 3433              	.L575:
 236:..\common\tterm/TTerm.c **** 								TERM_handleInput(_VT100_KEY_PAGE_UP, handle);
 3434              		.loc 1 236 0
 3435 010c 352B     		cmp	r3, #53
 3436 010e 02D1     		bne	.L576
 237:..\common\tterm/TTerm.c **** 							}else if(handle->escSeqBuff[1] == 0x36){      //page down
 3437              		.loc 1 237 0
 3438 0110 41F20A00 		movw	r0, #4106
 3439 0114 03E0     		b	.L590
 3440              	.L576:
 238:..\common\tterm/TTerm.c **** 								TERM_handleInput(_VT100_KEY_PAGE_DOWN, handle);
 3441              		.loc 1 238 0
 3442 0116 362B     		cmp	r3, #54
 3443 0118 04D1     		bne	.L577
 239:..\common\tterm/TTerm.c **** 							}else{
 3444              		.loc 1 239 0
 3445 011a 41F20B00 		movw	r0, #4107
 3446              	.L590:
 3447 011e FFF7FEFF 		bl	TERM_handleInput
 3448              	.LVL409:
 3449 0122 05E0     		b	.L561
 3450              	.LVL410:
 3451              	.L577:
 241:..\common\tterm/TTerm.c **** 							}
 3452              		.loc 1 241 0
 3453 0124 4FF6FF70 		movw	r0, #65535
 3454 0128 F9E7     		b	.L590
 3455              	.LVL411:
 3456              	.L573:
 244:..\common\tterm/TTerm.c **** 						}
 3457              		.loc 1 244 0
 3458 012a 2244     		add	r2, r2, r4
 3459 012c 82F87660 		strb	r6, [r2, #118]
 3460              	.L561:
 246:..\common\tterm/TTerm.c **** 					}else{
 3461              		.loc 1 246 0
 3462 0130 84F87470 		strb	r7, [r4, #116]
 3463 0134 10E0     		b	.L553
 3464              	.L560:
 248:..\common\tterm/TTerm.c **** 					}
 3465              		.loc 1 248 0
 3466 0136 531C     		adds	r3, r2, #1
 3467 0138 84F87430 		strb	r3, [r4, #116]
 3468 013c 2B78     		ldrb	r3, [r5]	@ zero_extendqisi2
 3469 013e 2244     		add	r2, r2, r4
 3470 0140 82F87530 		strb	r3, [r2, #117]
 3471 0144 08E0     		b	.L553
 3472              	.L554:
 252:..\common\tterm/TTerm.c **** 					handle->currEscSeqPos = 0;
 3473              		.loc 1 252 0
ARM GAS  C:\Users\chemi\AppData\Local\Temp\cc0tO343.s 			page 88


 3474 0146 2878     		ldrb	r0, [r5]	@ zero_extendqisi2
 3475 0148 1B28     		cmp	r0, #27
 3476 014a 02D1     		bne	.L578
 253:..\common\tterm/TTerm.c **** 				}else{
 3477              		.loc 1 253 0
 3478 014c 84F87460 		strb	r6, [r4, #116]
 3479 0150 02E0     		b	.L553
 3480              	.L578:
 255:..\common\tterm/TTerm.c **** 				}
 3481              		.loc 1 255 0
 3482 0152 2146     		mov	r1, r4
 3483              	.LVL412:
 3484              	.L594:
 3485 0154 FFF7FEFF 		bl	TERM_handleInput
 3486              	.LVL413:
 3487              	.L553:
 3488 0158 0135     		adds	r5, r5, #1
 3489              	.LVL414:
 3490 015a 5AE7     		b	.L551
 3491              	.LVL415:
 3492              	.L596:
 261:..\common\tterm/TTerm.c **** 
 3493              		.loc 1 261 0
 3494 015c 5FFA88F0 		uxtb	r0, r8
 3495 0160 BDE8F883 		pop	{r3, r4, r5, r6, r7, r8, r9, pc}
 3496              		.cfi_endproc
 3497              	.LFE72:
 3498              		.size	TERM_processBuffer, .-TERM_processBuffer
 3499              		.section	.text.TERM_Box,"ax",%progbits
 3500              		.align	1
 3501              		.global	TERM_Box
 3502              		.thumb
 3503              		.thumb_func
 3504              		.type	TERM_Box, %function
 3505              	TERM_Box:
 3506              	.LFB91:
 880:..\common\tterm/TTerm.c **** 	TERM_setCursorPos(handle, row1, col1);
 3507              		.loc 1 880 0
 3508              		.cfi_startproc
 3509              		@ args = 4, pretend = 0, frame = 8
 3510              		@ frame_needed = 0, uses_anonymous_args = 0
 3511              	.LVL416:
 3512 0000 2DE9F74F 		push	{r0, r1, r2, r4, r5, r6, r7, r8, r9, r10, fp, lr}
 3513              		.cfi_def_cfa_offset 48
 3514              		.cfi_offset 4, -36
 3515              		.cfi_offset 5, -32
 3516              		.cfi_offset 6, -28
 3517              		.cfi_offset 7, -24
 3518              		.cfi_offset 8, -20
 3519              		.cfi_offset 9, -16
 3520              		.cfi_offset 10, -12
 3521              		.cfi_offset 11, -8
 3522              		.cfi_offset 14, -4
 880:..\common\tterm/TTerm.c **** 	TERM_setCursorPos(handle, row1, col1);
 3523              		.loc 1 880 0
 3524 0004 0446     		mov	r4, r0
 881:..\common\tterm/TTerm.c **** 	TERM_sendVT100Code(handle, _VT100_BACKGROUND_COLOR, _VT100_BLUE);
ARM GAS  C:\Users\chemi\AppData\Local\Temp\cc0tO343.s 			page 89


 3525              		.loc 1 881 0
 3526 0006 1FFA81FB 		uxth	fp, r1
 3527 000a 1FFA82F9 		uxth	r9, r2
 880:..\common\tterm/TTerm.c **** 	TERM_setCursorPos(handle, row1, col1);
 3528              		.loc 1 880 0
 3529 000e 1546     		mov	r5, r2
 3530 0010 0E46     		mov	r6, r1
 881:..\common\tterm/TTerm.c **** 	TERM_sendVT100Code(handle, _VT100_BACKGROUND_COLOR, _VT100_BLUE);
 3531              		.loc 1 881 0
 3532 0012 4A46     		mov	r2, r9
 3533              	.LVL417:
 3534 0014 5946     		mov	r1, fp
 3535              	.LVL418:
 880:..\common\tterm/TTerm.c **** 	TERM_setCursorPos(handle, row1, col1);
 3536              		.loc 1 880 0
 3537 0016 9A46     		mov	r10, r3
 3538 0018 9DF83080 		ldrb	r8, [sp, #48]	@ zero_extendqisi2
 881:..\common\tterm/TTerm.c **** 	TERM_sendVT100Code(handle, _VT100_BACKGROUND_COLOR, _VT100_BLUE);
 3539              		.loc 1 881 0
 3540 001c FFF7FEFF 		bl	TERM_setCursorPos
 3541              	.LVL419:
 882:..\common\tterm/TTerm.c **** 	ttprintf("\xE2\x95\x94"); //edge upper left
 3542              		.loc 1 882 0
 3543 0020 0422     		movs	r2, #4
 3544 0022 0321     		movs	r1, #3
 3545 0024 2046     		mov	r0, r4
 3546 0026 FFF7FEFF 		bl	TERM_sendVT100Code
 3547              	.LVL420:
 883:..\common\tterm/TTerm.c **** 	int i = 0;
 3548              		.loc 1 883 0
 3549 002a 636A     		ldr	r3, [r4, #36]
 3550 002c 2649     		ldr	r1, .L607
 3551 002e 6068     		ldr	r0, [r4, #4]
 3552 0030 9847     		blx	r3
 3553              	.LVL421:
 885:..\common\tterm/TTerm.c **** 		ttprintf("\xE2\x95\x90"); //=
 3554              		.loc 1 885 0
 3555 0032 0127     		movs	r7, #1
 3556 0034 C5EB0805 		rsb	r5, r5, r8
 3557              	.LVL422:
 3558              	.L598:
 885:..\common\tterm/TTerm.c **** 		ttprintf("\xE2\x95\x90"); //=
 3559              		.loc 1 885 0 is_stmt 0 discriminator 1
 3560 0038 AF42     		cmp	r7, r5
 3561 003a 636A     		ldr	r3, [r4, #36]
 3562 003c 04DA     		bge	.L604
 886:..\common\tterm/TTerm.c **** 	}
 3563              		.loc 1 886 0 is_stmt 1 discriminator 3
 3564 003e 2349     		ldr	r1, .L607+4
 3565 0040 6068     		ldr	r0, [r4, #4]
 3566 0042 9847     		blx	r3
 3567              	.LVL423:
 885:..\common\tterm/TTerm.c **** 		ttprintf("\xE2\x95\x90"); //=
 3568              		.loc 1 885 0 discriminator 3
 3569 0044 0137     		adds	r7, r7, #1
 3570              	.LVL424:
 3571 0046 F7E7     		b	.L598
ARM GAS  C:\Users\chemi\AppData\Local\Temp\cc0tO343.s 			page 90


 3572              	.L604:
 888:..\common\tterm/TTerm.c **** 	for (i = 1; i < (row2 - row1); i++) {
 3573              		.loc 1 888 0
 3574 0048 2149     		ldr	r1, .L607+8
 3575 004a 6068     		ldr	r0, [r4, #4]
 3576 004c 9847     		blx	r3
 3577              	.LVL425:
 889:..\common\tterm/TTerm.c **** 		TERM_setCursorPos(handle, row1 + i, col1);
 3578              		.loc 1 889 0
 3579 004e 0127     		movs	r7, #1
 3580 0050 C6EB0A06 		rsb	r6, r6, r10
 892:..\common\tterm/TTerm.c **** 		ttprintf("\xE2\x95\x91"); //right ||
 3581              		.loc 1 892 0
 3582 0054 1FFA88F8 		uxth	r8, r8
 3583              	.LVL426:
 3584              	.L600:
 889:..\common\tterm/TTerm.c **** 		TERM_setCursorPos(handle, row1 + i, col1);
 3585              		.loc 1 889 0 discriminator 1
 3586 0058 B742     		cmp	r7, r6
 3587 005a 18DA     		bge	.L605
 3588 005c 0BEB0703 		add	r3, fp, r7
 3589 0060 9BB2     		uxth	r3, r3
 890:..\common\tterm/TTerm.c **** 		ttprintf("\xE2\x95\x91"); //left ||
 3590              		.loc 1 890 0 discriminator 3
 3591 0062 1946     		mov	r1, r3
 3592 0064 4A46     		mov	r2, r9
 3593 0066 2046     		mov	r0, r4
 3594 0068 0193     		str	r3, [sp, #4]
 3595 006a FFF7FEFF 		bl	TERM_setCursorPos
 3596              	.LVL427:
 891:..\common\tterm/TTerm.c **** 		TERM_setCursorPos(handle, row1 + i, col2);
 3597              		.loc 1 891 0 discriminator 3
 3598 006e 626A     		ldr	r2, [r4, #36]
 3599 0070 1849     		ldr	r1, .L607+12
 3600 0072 6068     		ldr	r0, [r4, #4]
 3601 0074 9047     		blx	r2
 3602              	.LVL428:
 892:..\common\tterm/TTerm.c **** 		ttprintf("\xE2\x95\x91"); //right ||
 3603              		.loc 1 892 0 discriminator 3
 3604 0076 019B     		ldr	r3, [sp, #4]
 3605 0078 4246     		mov	r2, r8
 3606 007a 1946     		mov	r1, r3
 3607 007c 2046     		mov	r0, r4
 3608 007e FFF7FEFF 		bl	TERM_setCursorPos
 3609              	.LVL429:
 893:..\common\tterm/TTerm.c **** 	}
 3610              		.loc 1 893 0 discriminator 3
 3611 0082 636A     		ldr	r3, [r4, #36]
 3612 0084 1349     		ldr	r1, .L607+12
 3613 0086 6068     		ldr	r0, [r4, #4]
 3614 0088 9847     		blx	r3
 3615              	.LVL430:
 889:..\common\tterm/TTerm.c **** 		TERM_setCursorPos(handle, row1 + i, col1);
 3616              		.loc 1 889 0 discriminator 3
 3617 008a 0137     		adds	r7, r7, #1
 3618              	.LVL431:
 3619 008c E4E7     		b	.L600
ARM GAS  C:\Users\chemi\AppData\Local\Temp\cc0tO343.s 			page 91


 3620              	.L605:
 895:..\common\tterm/TTerm.c **** 	ttprintf("\xE2\x95\x9A"); //edge lower left
 3621              		.loc 1 895 0
 3622 008e 4A46     		mov	r2, r9
 3623 0090 5146     		mov	r1, r10
 3624 0092 2046     		mov	r0, r4
 3625 0094 FFF7FEFF 		bl	TERM_setCursorPos
 3626              	.LVL432:
 896:..\common\tterm/TTerm.c **** 	for (i = 1; i < (col2 - col1); i++) {
 3627              		.loc 1 896 0
 3628 0098 636A     		ldr	r3, [r4, #36]
 3629 009a 0F49     		ldr	r1, .L607+16
 3630 009c 6068     		ldr	r0, [r4, #4]
 3631 009e 9847     		blx	r3
 3632              	.LVL433:
 897:..\common\tterm/TTerm.c **** 		ttprintf("\xE2\x95\x90"); //=
 3633              		.loc 1 897 0
 3634 00a0 0126     		movs	r6, #1
 3635              	.LVL434:
 3636              	.L602:
 897:..\common\tterm/TTerm.c **** 		ttprintf("\xE2\x95\x90"); //=
 3637              		.loc 1 897 0 is_stmt 0 discriminator 1
 3638 00a2 AE42     		cmp	r6, r5
 3639 00a4 636A     		ldr	r3, [r4, #36]
 3640 00a6 04DA     		bge	.L606
 898:..\common\tterm/TTerm.c **** 	}
 3641              		.loc 1 898 0 is_stmt 1 discriminator 3
 3642 00a8 0849     		ldr	r1, .L607+4
 3643 00aa 6068     		ldr	r0, [r4, #4]
 3644 00ac 9847     		blx	r3
 3645              	.LVL435:
 897:..\common\tterm/TTerm.c **** 		ttprintf("\xE2\x95\x90"); //=
 3646              		.loc 1 897 0 discriminator 3
 3647 00ae 0136     		adds	r6, r6, #1
 3648              	.LVL436:
 3649 00b0 F7E7     		b	.L602
 3650              	.L606:
 900:..\common\tterm/TTerm.c **** 	TERM_sendVT100Code(handle, _VT100_FOREGROUND_COLOR, _VT100_WHITE);
 3651              		.loc 1 900 0
 3652 00b2 0A49     		ldr	r1, .L607+20
 3653 00b4 6068     		ldr	r0, [r4, #4]
 3654 00b6 9847     		blx	r3
 3655              	.LVL437:
 901:..\common\tterm/TTerm.c **** }
 3656              		.loc 1 901 0
 3657 00b8 2046     		mov	r0, r4
 3658 00ba 0722     		movs	r2, #7
 3659 00bc 0221     		movs	r1, #2
 902:..\common\tterm/TTerm.c **** 
 3660              		.loc 1 902 0
 3661 00be 03B0     		add	sp, sp, #12
 3662              		.cfi_def_cfa_offset 36
 3663              		@ sp needed
 3664 00c0 BDE8F04F 		pop	{r4, r5, r6, r7, r8, r9, r10, fp, lr}
 3665              		.cfi_restore 14
 3666              		.cfi_restore 11
 3667              		.cfi_restore 10
ARM GAS  C:\Users\chemi\AppData\Local\Temp\cc0tO343.s 			page 92


 3668              		.cfi_restore 9
 3669              		.cfi_restore 8
 3670              		.cfi_restore 7
 3671              		.cfi_restore 6
 3672              		.cfi_restore 5
 3673              		.cfi_restore 4
 3674              		.cfi_def_cfa_offset 0
 3675              	.LVL438:
 901:..\common\tterm/TTerm.c **** }
 3676              		.loc 1 901 0
 3677 00c4 FFF7FEBF 		b	TERM_sendVT100Code
 3678              	.LVL439:
 3679              	.L608:
 3680              		.align	2
 3681              	.L607:
 3682 00c8 57020000 		.word	.LC63
 3683 00cc 5B020000 		.word	.LC64
 3684 00d0 5F020000 		.word	.LC65
 3685 00d4 63020000 		.word	.LC66
 3686 00d8 67020000 		.word	.LC67
 3687 00dc 6B020000 		.word	.LC68
 3688              		.cfi_endproc
 3689              	.LFE91:
 3690              		.size	TERM_Box, .-TERM_Box
 3691              		.section	.text.TERM_getVT100Code,"ax",%progbits
 3692              		.align	1
 3693              		.global	TERM_getVT100Code
 3694              		.thumb
 3695              		.thumb_func
 3696              		.type	TERM_getVT100Code, %function
 3697              	TERM_getVT100Code:
 3698              	.LFB94:
1003:..\common\tterm/TTerm.c **** 
1004:..\common\tterm/TTerm.c **** //returns a static pointer to the requested VT100 code, so it can be used in printf without needing
1005:..\common\tterm/TTerm.c **** const char * TERM_getVT100Code(uint16_t cmd, uint8_t var){
 3699              		.loc 1 1005 0
 3700              		.cfi_startproc
 3701              		@ args = 0, pretend = 0, frame = 0
 3702              		@ frame_needed = 0, uses_anonymous_args = 0
 3703              		@ link register save eliminated.
 3704              	.LVL440:
1006:..\common\tterm/TTerm.c ****     //INFO this is deprecated since all of the VT100 functions are handled by the terminal now
1007:..\common\tterm/TTerm.c ****     switch(cmd){
 3705              		.loc 1 1007 0
 3706 0000 0C28     		cmp	r0, #12
 3707 0002 6BD0     		beq	.L611
 3708 0004 1FD8     		bhi	.L612
 3709 0006 0528     		cmp	r0, #5
 3710 0008 5ED0     		beq	.L613
 3711 000a 0ED8     		bhi	.L614
 3712 000c 0228     		cmp	r0, #2
 3713 000e 47D0     		beq	.L615
 3714 0010 05D8     		bhi	.L616
 3715 0012 0028     		cmp	r0, #0
 3716 0014 42D0     		beq	.L617
 3717 0016 0128     		cmp	r0, #1
 3718 0018 6ED1     		bne	.L610
ARM GAS  C:\Users\chemi\AppData\Local\Temp\cc0tO343.s 			page 93


1008:..\common\tterm/TTerm.c ****         case _VT100_RESET:
1009:..\common\tterm/TTerm.c ****             return "\x1b" "C";
1010:..\common\tterm/TTerm.c ****             
1011:..\common\tterm/TTerm.c ****         case _VT100_CURSOR_BACK:
1012:..\common\tterm/TTerm.c ****             return "\x1b[D";
1013:..\common\tterm/TTerm.c ****             
1014:..\common\tterm/TTerm.c ****         case _VT100_CURSOR_FORWARD:
1015:..\common\tterm/TTerm.c ****             return "\x1b[C";
1016:..\common\tterm/TTerm.c ****             
1017:..\common\tterm/TTerm.c ****         case _VT100_CURSOR_POS1:
1018:..\common\tterm/TTerm.c ****             return "\x1b[H";
1019:..\common\tterm/TTerm.c ****             
1020:..\common\tterm/TTerm.c ****         case _VT100_CURSOR_END:
1021:..\common\tterm/TTerm.c ****             return "\x1b[F";
 3719              		.loc 1 1021 0
 3720 001a 3B48     		ldr	r0, .L649
 3721              	.LVL441:
 3722 001c 7047     		bx	lr
 3723              	.LVL442:
 3724              	.L616:
1007:..\common\tterm/TTerm.c ****         case _VT100_RESET:
 3725              		.loc 1 1007 0
 3726 001e 0328     		cmp	r0, #3
 3727 0020 48D0     		beq	.L619
 3728 0022 0428     		cmp	r0, #4
 3729 0024 68D1     		bne	.L610
1022:..\common\tterm/TTerm.c ****         case _VT100_FOREGROUND_COLOR:
1023:..\common\tterm/TTerm.c ****             switch(var){
1024:..\common\tterm/TTerm.c ****                 case 0:
1025:..\common\tterm/TTerm.c ****                     return "\x1b[30m";
1026:..\common\tterm/TTerm.c ****                 case 1:
1027:..\common\tterm/TTerm.c ****                     return "\x1b[31m";
1028:..\common\tterm/TTerm.c ****                 case 2:
1029:..\common\tterm/TTerm.c ****                     return "\x1b[32m";
1030:..\common\tterm/TTerm.c ****                 case 3:
1031:..\common\tterm/TTerm.c ****                     return "\x1b[33m";
1032:..\common\tterm/TTerm.c ****                 case 4:
1033:..\common\tterm/TTerm.c ****                     return "\x1b[34m";
1034:..\common\tterm/TTerm.c ****                 case 5:
1035:..\common\tterm/TTerm.c ****                     return "\x1b[35m";
1036:..\common\tterm/TTerm.c ****                 case 6:
1037:..\common\tterm/TTerm.c ****                     return "\x1b[36m";
1038:..\common\tterm/TTerm.c ****                 case 7:
1039:..\common\tterm/TTerm.c ****                     return "\x1b[37m";
1040:..\common\tterm/TTerm.c ****                 default:
1041:..\common\tterm/TTerm.c ****                     return "\x1b[30m";
1042:..\common\tterm/TTerm.c ****             }
1043:..\common\tterm/TTerm.c ****             
1044:..\common\tterm/TTerm.c ****         case _VT100_BACKGROUND_COLOR:
1045:..\common\tterm/TTerm.c ****             switch(var){
1046:..\common\tterm/TTerm.c ****                 case 0:
1047:..\common\tterm/TTerm.c ****                     return "\x1b[40m";
1048:..\common\tterm/TTerm.c ****                 case 1:
1049:..\common\tterm/TTerm.c ****                     return "\x1b[41m";
1050:..\common\tterm/TTerm.c ****                 case 2:
1051:..\common\tterm/TTerm.c ****                     return "\x1b[42m";
1052:..\common\tterm/TTerm.c ****                 case 3:
ARM GAS  C:\Users\chemi\AppData\Local\Temp\cc0tO343.s 			page 94


1053:..\common\tterm/TTerm.c ****                     return "\x1b[43m";
1054:..\common\tterm/TTerm.c ****                 case 4:
1055:..\common\tterm/TTerm.c ****                     return "\x1b[44m";
1056:..\common\tterm/TTerm.c ****                 case 5:
1057:..\common\tterm/TTerm.c ****                     return "\x1b[45m";
1058:..\common\tterm/TTerm.c ****                 case 6:
1059:..\common\tterm/TTerm.c ****                     return "\x1b[46m";
1060:..\common\tterm/TTerm.c ****                 case 7:
1061:..\common\tterm/TTerm.c ****                     return "\x1b[47m";
1062:..\common\tterm/TTerm.c ****                 default:
1063:..\common\tterm/TTerm.c ****                     return "\x1b[40m";
1064:..\common\tterm/TTerm.c ****             }
1065:..\common\tterm/TTerm.c ****             
1066:..\common\tterm/TTerm.c ****         case _VT100_RESET_ATTRIB:
1067:..\common\tterm/TTerm.c ****             return "\x1b[0m";
 3730              		.loc 1 1067 0
 3731 0026 3948     		ldr	r0, .L649+4
 3732              	.LVL443:
 3733 0028 7047     		bx	lr
 3734              	.LVL444:
 3735              	.L614:
1007:..\common\tterm/TTerm.c ****         case _VT100_RESET:
 3736              		.loc 1 1007 0
 3737 002a 0828     		cmp	r0, #8
 3738 002c 50D0     		beq	.L621
 3739 002e 05D8     		bhi	.L622
 3740 0030 0628     		cmp	r0, #6
 3741 0032 4BD0     		beq	.L623
 3742 0034 0728     		cmp	r0, #7
 3743 0036 5FD1     		bne	.L610
1068:..\common\tterm/TTerm.c ****             
1069:..\common\tterm/TTerm.c ****         case _VT100_BRIGHT:
1070:..\common\tterm/TTerm.c ****             return "\x1b[1m";
1071:..\common\tterm/TTerm.c ****             
1072:..\common\tterm/TTerm.c ****         case _VT100_DIM:
1073:..\common\tterm/TTerm.c ****             return "\x1b[2m";
1074:..\common\tterm/TTerm.c ****             
1075:..\common\tterm/TTerm.c ****         case _VT100_UNDERSCORE:
1076:..\common\tterm/TTerm.c ****             return "\x1b[4m";
 3744              		.loc 1 1076 0
 3745 0038 3548     		ldr	r0, .L649+8
 3746              	.LVL445:
 3747 003a 7047     		bx	lr
 3748              	.LVL446:
 3749              	.L622:
1007:..\common\tterm/TTerm.c ****         case _VT100_RESET:
 3750              		.loc 1 1007 0
 3751 003c 0A28     		cmp	r0, #10
 3752 003e 49D0     		beq	.L625
 3753 0040 4AD8     		bhi	.L647
1077:..\common\tterm/TTerm.c ****             
1078:..\common\tterm/TTerm.c ****         case _VT100_BLINK:
1079:..\common\tterm/TTerm.c ****             return "\x1b[5m";
1080:..\common\tterm/TTerm.c ****             
1081:..\common\tterm/TTerm.c ****         case _VT100_REVERSE:
1082:..\common\tterm/TTerm.c ****             return "\x1b[7m";
 3754              		.loc 1 1082 0
ARM GAS  C:\Users\chemi\AppData\Local\Temp\cc0tO343.s 			page 95


 3755 0042 3448     		ldr	r0, .L649+12
 3756              	.LVL447:
 3757 0044 7047     		bx	lr
 3758              	.LVL448:
 3759              	.L612:
1007:..\common\tterm/TTerm.c ****         case _VT100_RESET:
 3760              		.loc 1 1007 0
 3761 0046 1828     		cmp	r0, #24
 3762 0048 50D0     		beq	.L628
 3763 004a 0ED8     		bhi	.L629
 3764 004c 0F28     		cmp	r0, #15
 3765 004e 49D0     		beq	.L630
 3766 0050 05D8     		bhi	.L631
 3767 0052 0D28     		cmp	r0, #13
 3768 0054 44D0     		beq	.L632
 3769 0056 0E28     		cmp	r0, #14
 3770 0058 4ED1     		bne	.L610
1083:..\common\tterm/TTerm.c ****             
1084:..\common\tterm/TTerm.c ****         case _VT100_HIDDEN:
1085:..\common\tterm/TTerm.c ****             return "\x1b[8m";
1086:..\common\tterm/TTerm.c ****             
1087:..\common\tterm/TTerm.c ****         case _VT100_ERASE_SCREEN:
1088:..\common\tterm/TTerm.c ****             return "\x1b[2J";
1089:..\common\tterm/TTerm.c ****             
1090:..\common\tterm/TTerm.c ****         case _VT100_ERASE_LINE:
1091:..\common\tterm/TTerm.c ****             return "\x1b[2K";
1092:..\common\tterm/TTerm.c ****             
1093:..\common\tterm/TTerm.c ****         case _VT100_FONT_G0:
1094:..\common\tterm/TTerm.c ****             return "\x1b(";
1095:..\common\tterm/TTerm.c ****             
1096:..\common\tterm/TTerm.c ****         case _VT100_FONT_G1:
1097:..\common\tterm/TTerm.c ****             return "\x1b)";
 3771              		.loc 1 1097 0
 3772 005a 2F48     		ldr	r0, .L649+16
 3773              	.LVL449:
 3774 005c 7047     		bx	lr
 3775              	.LVL450:
 3776              	.L631:
1007:..\common\tterm/TTerm.c ****         case _VT100_RESET:
 3777              		.loc 1 1007 0
 3778 005e 1028     		cmp	r0, #16
 3779 0060 42D0     		beq	.L634
 3780 0062 1128     		cmp	r0, #17
 3781 0064 48D1     		bne	.L610
1098:..\common\tterm/TTerm.c ****             
1099:..\common\tterm/TTerm.c ****         case _VT100_WRAP_ON:
1100:..\common\tterm/TTerm.c ****             return "\x1b[7h";
1101:..\common\tterm/TTerm.c ****             
1102:..\common\tterm/TTerm.c ****         case _VT100_WRAP_OFF:
1103:..\common\tterm/TTerm.c ****             return "\x1b[71";
1104:..\common\tterm/TTerm.c ****             
1105:..\common\tterm/TTerm.c ****         case _VT100_ERASE_LINE_END:
1106:..\common\tterm/TTerm.c ****             return "\x1b[K";
 3782              		.loc 1 1106 0
 3783 0066 2D48     		ldr	r0, .L649+20
 3784              	.LVL451:
 3785 0068 7047     		bx	lr
ARM GAS  C:\Users\chemi\AppData\Local\Temp\cc0tO343.s 			page 96


 3786              	.LVL452:
 3787              	.L629:
1007:..\common\tterm/TTerm.c ****         case _VT100_RESET:
 3788              		.loc 1 1007 0
 3789 006a 1B28     		cmp	r0, #27
 3790 006c 42D0     		beq	.L636
 3791 006e 05D8     		bhi	.L637
 3792 0070 1928     		cmp	r0, #25
 3793 0072 3DD0     		beq	.L638
 3794 0074 1A28     		cmp	r0, #26
 3795 0076 3FD1     		bne	.L610
1107:..\common\tterm/TTerm.c ****             
1108:..\common\tterm/TTerm.c ****         case _VT100_CURSOR_ENABLE:
1109:..\common\tterm/TTerm.c ****             return "\x1b[?25h";
1110:..\common\tterm/TTerm.c ****             break;
1111:..\common\tterm/TTerm.c ****         case _VT100_CURSOR_DISABLE:
1112:..\common\tterm/TTerm.c ****             return "\x1b[?25l";
1113:..\common\tterm/TTerm.c ****             break;
1114:..\common\tterm/TTerm.c ****         case _VT100_CURSOR_SET_COLUMN:
1115:..\common\tterm/TTerm.c ****             return ESC_STR "[%i`";
 3796              		.loc 1 1115 0
 3797 0078 2948     		ldr	r0, .L649+24
 3798              	.LVL453:
 3799 007a 7047     		bx	lr
 3800              	.LVL454:
 3801              	.L637:
1007:..\common\tterm/TTerm.c ****         case _VT100_RESET:
 3802              		.loc 1 1007 0
 3803 007c 41F20303 		movw	r3, #4099
 3804 0080 9842     		cmp	r0, r3
 3805 0082 09D0     		beq	.L640
 3806 0084 41F20403 		movw	r3, #4100
 3807 0088 9842     		cmp	r0, r3
 3808 008a 03D0     		beq	.L641
 3809 008c B0F5805F 		cmp	r0, #4096
 3810 0090 32D1     		bne	.L610
 3811 0092 33E0     		b	.L648
 3812              	.L641:
1012:..\common\tterm/TTerm.c ****             
 3813              		.loc 1 1012 0
 3814 0094 2348     		ldr	r0, .L649+28
 3815              	.LVL455:
 3816 0096 7047     		bx	lr
 3817              	.LVL456:
 3818              	.L640:
1015:..\common\tterm/TTerm.c ****             
 3819              		.loc 1 1015 0
 3820 0098 2348     		ldr	r0, .L649+32
 3821              	.LVL457:
 3822 009a 7047     		bx	lr
 3823              	.LVL458:
 3824              	.L617:
1018:..\common\tterm/TTerm.c ****             
 3825              		.loc 1 1018 0
 3826 009c 2348     		ldr	r0, .L649+36
 3827              	.LVL459:
 3828 009e 7047     		bx	lr
ARM GAS  C:\Users\chemi\AppData\Local\Temp\cc0tO343.s 			page 97


 3829              	.LVL460:
 3830              	.L615:
 3831 00a0 0139     		subs	r1, r1, #1
 3832              	.LVL461:
 3833 00a2 C9B2     		uxtb	r1, r1
 3834 00a4 0629     		cmp	r1, #6
 3835 00a6 2BD8     		bhi	.L644
 3836 00a8 214B     		ldr	r3, .L649+40
 3837 00aa 03EB8101 		add	r1, r3, r1, lsl #2
 3838 00ae D1F8F400 		ldr	r0, [r1, #244]
 3839              	.LVL462:
 3840 00b2 7047     		bx	lr
 3841              	.LVL463:
 3842              	.L619:
 3843 00b4 0139     		subs	r1, r1, #1
 3844              	.LVL464:
 3845 00b6 C9B2     		uxtb	r1, r1
 3846 00b8 0629     		cmp	r1, #6
 3847 00ba 23D8     		bhi	.L645
 3848 00bc 1C4B     		ldr	r3, .L649+40
 3849 00be 03EB8101 		add	r1, r3, r1, lsl #2
 3850 00c2 D1F81001 		ldr	r0, [r1, #272]
 3851              	.LVL465:
 3852 00c6 7047     		bx	lr
 3853              	.LVL466:
 3854              	.L613:
1070:..\common\tterm/TTerm.c ****             
 3855              		.loc 1 1070 0
 3856 00c8 1A48     		ldr	r0, .L649+44
 3857              	.LVL467:
 3858 00ca 7047     		bx	lr
 3859              	.LVL468:
 3860              	.L623:
1073:..\common\tterm/TTerm.c ****             
 3861              		.loc 1 1073 0
 3862 00cc 1A48     		ldr	r0, .L649+48
 3863              	.LVL469:
 3864 00ce 7047     		bx	lr
 3865              	.LVL470:
 3866              	.L621:
1079:..\common\tterm/TTerm.c ****             
 3867              		.loc 1 1079 0
 3868 00d0 1A48     		ldr	r0, .L649+52
 3869              	.LVL471:
 3870 00d2 7047     		bx	lr
 3871              	.LVL472:
 3872              	.L625:
1085:..\common\tterm/TTerm.c ****             
 3873              		.loc 1 1085 0
 3874 00d4 1A48     		ldr	r0, .L649+56
 3875              	.LVL473:
 3876 00d6 7047     		bx	lr
 3877              	.LVL474:
 3878              	.L647:
1088:..\common\tterm/TTerm.c ****             
 3879              		.loc 1 1088 0
 3880 00d8 1A48     		ldr	r0, .L649+60
ARM GAS  C:\Users\chemi\AppData\Local\Temp\cc0tO343.s 			page 98


 3881              	.LVL475:
 3882 00da 7047     		bx	lr
 3883              	.LVL476:
 3884              	.L611:
1091:..\common\tterm/TTerm.c ****             
 3885              		.loc 1 1091 0
 3886 00dc 1A48     		ldr	r0, .L649+64
 3887              	.LVL477:
 3888 00de 7047     		bx	lr
 3889              	.LVL478:
 3890              	.L632:
1094:..\common\tterm/TTerm.c ****             
 3891              		.loc 1 1094 0
 3892 00e0 1A48     		ldr	r0, .L649+68
 3893              	.LVL479:
 3894 00e2 7047     		bx	lr
 3895              	.LVL480:
 3896              	.L630:
1100:..\common\tterm/TTerm.c ****             
 3897              		.loc 1 1100 0
 3898 00e4 1A48     		ldr	r0, .L649+72
 3899              	.LVL481:
 3900 00e6 7047     		bx	lr
 3901              	.LVL482:
 3902              	.L634:
1103:..\common\tterm/TTerm.c ****             
 3903              		.loc 1 1103 0
 3904 00e8 1A48     		ldr	r0, .L649+76
 3905              	.LVL483:
 3906 00ea 7047     		bx	lr
 3907              	.LVL484:
 3908              	.L628:
1109:..\common\tterm/TTerm.c ****             break;
 3909              		.loc 1 1109 0
 3910 00ec 1A48     		ldr	r0, .L649+80
 3911              	.LVL485:
 3912 00ee 7047     		bx	lr
 3913              	.LVL486:
 3914              	.L638:
1112:..\common\tterm/TTerm.c ****             break;
 3915              		.loc 1 1112 0
 3916 00f0 1A48     		ldr	r0, .L649+84
 3917              	.LVL487:
 3918 00f2 7047     		bx	lr
 3919              	.LVL488:
 3920              	.L636:
1116:..\common\tterm/TTerm.c ****             break;
1117:..\common\tterm/TTerm.c ****         case _VT100_CLS:
1118:..\common\tterm/TTerm.c ****             return "\x1b[2J\033[1;1H";
 3921              		.loc 1 1118 0
 3922 00f4 1A48     		ldr	r0, .L649+88
 3923              	.LVL489:
 3924 00f6 7047     		bx	lr
 3925              	.LVL490:
 3926              	.L610:
1119:..\common\tterm/TTerm.c ****             break;
1120:..\common\tterm/TTerm.c ****             
ARM GAS  C:\Users\chemi\AppData\Local\Temp\cc0tO343.s 			page 99


1121:..\common\tterm/TTerm.c ****     }
1122:..\common\tterm/TTerm.c ****     return "";
 3927              		.loc 1 1122 0
 3928 00f8 1A48     		ldr	r0, .L649+92
 3929              	.LVL491:
 3930 00fa 7047     		bx	lr
 3931              	.LVL492:
 3932              	.L648:
1009:..\common\tterm/TTerm.c ****             
 3933              		.loc 1 1009 0
 3934 00fc 1A48     		ldr	r0, .L649+96
 3935              	.LVL493:
 3936 00fe 7047     		bx	lr
 3937              	.LVL494:
 3938              	.L644:
 3939 0100 1A48     		ldr	r0, .L649+100
 3940              	.LVL495:
 3941 0102 7047     		bx	lr
 3942              	.LVL496:
 3943              	.L645:
 3944 0104 1A48     		ldr	r0, .L649+104
 3945              	.LVL497:
1123:..\common\tterm/TTerm.c **** }
 3946              		.loc 1 1123 0
 3947 0106 7047     		bx	lr
 3948              	.L650:
 3949              		.align	2
 3950              	.L649:
 3951 0108 D5000000 		.word	.LC11
 3952 010c DF000000 		.word	.LC13
 3953 0110 EE000000 		.word	.LC16
 3954 0114 F8000000 		.word	.LC18
 3955 0118 0F010000 		.word	.LC23
 3956 011c 1C010000 		.word	.LC26
 3957 0120 40010000 		.word	.LC33
 3958 0124 C9000000 		.word	.LC8
 3959 0128 CD000000 		.word	.LC9
 3960 012c D1000000 		.word	.LC10
 3961 0130 00000000 		.word	.LANCHOR0
 3962 0134 E4000000 		.word	.LC14
 3963 0138 E9000000 		.word	.LC15
 3964 013c F3000000 		.word	.LC17
 3965 0140 FD000000 		.word	.LC19
 3966 0144 02010000 		.word	.LC20
 3967 0148 07010000 		.word	.LC21
 3968 014c 0C010000 		.word	.LC22
 3969 0150 12010000 		.word	.LC24
 3970 0154 72020000 		.word	.LC70
 3971 0158 32010000 		.word	.LC31
 3972 015c 39010000 		.word	.LC32
 3973 0160 46010000 		.word	.LC34
 3974 0164 7D020000 		.word	.LC72
 3975 0168 6F020000 		.word	.LC69
 3976 016c 77020000 		.word	.LC71
 3977 0170 7E020000 		.word	.LC73
 3978              		.cfi_endproc
 3979              	.LFE94:
ARM GAS  C:\Users\chemi\AppData\Local\Temp\cc0tO343.s 			page 100


 3980              		.size	TERM_getVT100Code, .-TERM_getVT100Code
 3981              		.section	.text.TERM_attachProgramm,"ax",%progbits
 3982              		.align	1
 3983              		.global	TERM_attachProgramm
 3984              		.thumb
 3985              		.thumb_func
 3986              		.type	TERM_attachProgramm, %function
 3987              	TERM_attachProgramm:
 3988              	.LFB95:
1124:..\common\tterm/TTerm.c **** 
1125:..\common\tterm/TTerm.c **** void TERM_attachProgramm(TERMINAL_HANDLE * handle, TermProgram * prog){
 3989              		.loc 1 1125 0
 3990              		.cfi_startproc
 3991              		@ args = 0, pretend = 0, frame = 0
 3992              		@ frame_needed = 0, uses_anonymous_args = 0
 3993              	.LVL498:
 3994 0000 10B5     		push	{r4, lr}
 3995              		.cfi_def_cfa_offset 8
 3996              		.cfi_offset 4, -8
 3997              		.cfi_offset 14, -4
1126:..\common\tterm/TTerm.c ****     handle->currProgram = prog;
1127:..\common\tterm/TTerm.c ****     handle->currProgram->inputStream = xStreamBufferCreate(TERM_PROG_BUFFER_SIZE,1);
 3998              		.loc 1 1127 0
 3999 0002 0022     		movs	r2, #0
1126:..\common\tterm/TTerm.c ****     handle->currProgram = prog;
 4000              		.loc 1 1126 0
 4001 0004 4161     		str	r1, [r0, #20]
1125:..\common\tterm/TTerm.c ****     handle->currProgram = prog;
 4002              		.loc 1 1125 0
 4003 0006 0C46     		mov	r4, r1
 4004              		.loc 1 1127 0
 4005 0008 2020     		movs	r0, #32
 4006              	.LVL499:
 4007 000a 0121     		movs	r1, #1
 4008              	.LVL500:
 4009 000c FFF7FEFF 		bl	xStreamBufferGenericCreate
 4010              	.LVL501:
 4011 0010 E060     		str	r0, [r4, #12]
 4012 0012 10BD     		pop	{r4, pc}
 4013              		.cfi_endproc
 4014              	.LFE95:
 4015              		.size	TERM_attachProgramm, .-TERM_attachProgramm
 4016              		.section	.text.TERM_removeProgramm,"ax",%progbits
 4017              		.align	1
 4018              		.global	TERM_removeProgramm
 4019              		.thumb
 4020              		.thumb_func
 4021              		.type	TERM_removeProgramm, %function
 4022              	TERM_removeProgramm:
 4023              	.LFB96:
1128:..\common\tterm/TTerm.c **** }
1129:..\common\tterm/TTerm.c **** 
1130:..\common\tterm/TTerm.c **** void TERM_removeProgramm(TERMINAL_HANDLE * handle){
 4024              		.loc 1 1130 0
 4025              		.cfi_startproc
 4026              		@ args = 0, pretend = 0, frame = 0
 4027              		@ frame_needed = 0, uses_anonymous_args = 0
ARM GAS  C:\Users\chemi\AppData\Local\Temp\cc0tO343.s 			page 101


 4028              		@ link register save eliminated.
 4029              	.LVL502:
1131:..\common\tterm/TTerm.c ****     handle->currProgram = NULL;
 4030              		.loc 1 1131 0
 4031 0000 0023     		movs	r3, #0
 4032 0002 4361     		str	r3, [r0, #20]
 4033 0004 7047     		bx	lr
 4034              		.cfi_endproc
 4035              	.LFE96:
 4036              		.size	TERM_removeProgramm, .-TERM_removeProgramm
 4037              		.section	.text.TERM_killProgramm,"ax",%progbits
 4038              		.align	1
 4039              		.global	TERM_killProgramm
 4040              		.thumb
 4041              		.thumb_func
 4042              		.type	TERM_killProgramm, %function
 4043              	TERM_killProgramm:
 4044              	.LFB97:
1132:..\common\tterm/TTerm.c **** }
1133:..\common\tterm/TTerm.c **** 
1134:..\common\tterm/TTerm.c **** void TERM_killProgramm(TERMINAL_HANDLE * handle){
 4045              		.loc 1 1134 0
 4046              		.cfi_startproc
 4047              		@ args = 0, pretend = 0, frame = 0
 4048              		@ frame_needed = 0, uses_anonymous_args = 0
 4049              	.LVL503:
 4050 0000 70B5     		push	{r4, r5, r6, lr}
 4051              		.cfi_def_cfa_offset 16
 4052              		.cfi_offset 4, -16
 4053              		.cfi_offset 5, -12
 4054              		.cfi_offset 6, -8
 4055              		.cfi_offset 14, -4
 4056              		.loc 1 1134 0
 4057 0002 0446     		mov	r4, r0
1135:..\common\tterm/TTerm.c ****     uint8_t currArg = 0;
1136:..\common\tterm/TTerm.c ****     uint8_t argCount = handle->currProgram->argCount;
 4058              		.loc 1 1136 0
 4059 0004 4369     		ldr	r3, [r0, #20]
 4060              	.LVL504:
1137:..\common\tterm/TTerm.c ****     char ** args = handle->currProgram->args;
 4061              		.loc 1 1137 0
 4062 0006 1D69     		ldr	r5, [r3, #16]
 4063 0008 1E7D     		ldrb	r6, [r3, #20]	@ zero_extendqisi2
 4064 000a 05EB8606 		add	r6, r5, r6, lsl #2
 4065              	.LVL505:
 4066              	.L654:
1138:..\common\tterm/TTerm.c ****     for(;currArg<argCount; currArg++){
 4067              		.loc 1 1138 0 discriminator 1
 4068 000e B542     		cmp	r5, r6
 4069 0010 04D0     		beq	.L657
1139:..\common\tterm/TTerm.c ****         vPortFree(args[currArg]);
 4070              		.loc 1 1139 0 discriminator 2
 4071 0012 55F8040B 		ldr	r0, [r5], #4
 4072 0016 FFF7FEFF 		bl	vPortFree
 4073              	.LVL506:
 4074 001a F8E7     		b	.L654
 4075              	.L657:
ARM GAS  C:\Users\chemi\AppData\Local\Temp\cc0tO343.s 			page 102


1140:..\common\tterm/TTerm.c ****     }
1141:..\common\tterm/TTerm.c ****     
1142:..\common\tterm/TTerm.c ****     TERM_sendVT100Code(handle, _VT100_RESET, 0); TERM_sendVT100Code(handle, _VT100_CURSOR_POS1, 0);
 4076              		.loc 1 1142 0
 4077 001c 0022     		movs	r2, #0
 4078 001e 4FF48051 		mov	r1, #4096
 4079 0022 2046     		mov	r0, r4
 4080 0024 FFF7FEFF 		bl	TERM_sendVT100Code
 4081              	.LVL507:
 4082 0028 0022     		movs	r2, #0
 4083 002a 1146     		mov	r1, r2
 4084 002c 2046     		mov	r0, r4
 4085 002e FFF7FEFF 		bl	TERM_sendVT100Code
 4086              	.LVL508:
1143:..\common\tterm/TTerm.c ****     TERM_printBootMessage(handle);
 4087              		.loc 1 1143 0
 4088 0032 2046     		mov	r0, r4
 4089 0034 FFF7FEFF 		bl	TERM_printBootMessage
 4090              	.LVL509:
1144:..\common\tterm/TTerm.c ****     
1145:..\common\tterm/TTerm.c ****     TaskHandle_t task = handle->currProgram->task;
 4091              		.loc 1 1145 0
 4092 0038 6369     		ldr	r3, [r4, #20]
1146:..\common\tterm/TTerm.c ****     vStreamBufferDelete(handle->currProgram->inputStream);
 4093              		.loc 1 1146 0
 4094 003a D868     		ldr	r0, [r3, #12]
1145:..\common\tterm/TTerm.c ****     vStreamBufferDelete(handle->currProgram->inputStream);
 4095              		.loc 1 1145 0
 4096 003c 1D68     		ldr	r5, [r3]
 4097              	.LVL510:
 4098              		.loc 1 1146 0
 4099 003e FFF7FEFF 		bl	vStreamBufferDelete
 4100              	.LVL511:
1147:..\common\tterm/TTerm.c ****     vPortFree(handle->currProgram);
 4101              		.loc 1 1147 0
 4102 0042 6069     		ldr	r0, [r4, #20]
 4103 0044 FFF7FEFF 		bl	vPortFree
 4104              	.LVL512:
1148:..\common\tterm/TTerm.c ****     handle->currProgram = NULL;
 4105              		.loc 1 1148 0
 4106 0048 0023     		movs	r3, #0
 4107 004a 6361     		str	r3, [r4, #20]
1149:..\common\tterm/TTerm.c ****     vTaskDelete(task);
 4108              		.loc 1 1149 0
 4109 004c 2846     		mov	r0, r5
 4110 004e FFF7FEFF 		bl	vTaskDelete
 4111              	.LVL513:
 4112              	.L656:
1150:..\common\tterm/TTerm.c ****     while(1){
1151:..\common\tterm/TTerm.c ****         vTaskDelay(100);
 4113              		.loc 1 1151 0 discriminator 1
 4114 0052 6420     		movs	r0, #100
 4115 0054 FFF7FEFF 		bl	vTaskDelay
 4116              	.LVL514:
 4117 0058 FBE7     		b	.L656
 4118              		.cfi_endproc
 4119              	.LFE97:
ARM GAS  C:\Users\chemi\AppData\Local\Temp\cc0tO343.s 			page 103


 4120              		.size	TERM_killProgramm, .-TERM_killProgramm
 4121              		.global	TERM_startupText3
 4122              		.global	TERM_startupText2
 4123              		.global	TERM_startupText1
 4124              		.global	TERM_baseCMDsAdded
 4125              		.global	TERM_cmdListHead
 4126              		.comm	head,4,4
 4127              		.section	.rodata
 4128              		.align	2
 4129              		.set	.LANCHOR0,. + 0
 4130              		.type	TERM_startupText1, %object
 4131              		.size	TERM_startupText1, 155
 4132              	TERM_startupText1:
 4133 0000 20205F20 		.ascii	"  _   _   ___    ____    _____              _\015\012"
 4133      20205F20 
 4133      20205F5F 
 4133      5F202020 
 4133      205F5F5F 
 4134 002f 207C207C 		.ascii	" | | | | |   \\  |__ /   |_   _|  ___   ___ | |  __"
 4134      207C207C 
 4134      207C2020 
 4134      205C2020 
 4134      7C5F5F20 
 4135 0061 205F0D0A 		.ascii	" _\015\012 | |_| | | |) |  |_ \\     | |   / -_) (_"
 4135      207C207C 
 4135      5F7C207C 
 4135      207C207C 
 4135      29207C20 
 4136 008d 2D3C207C 		.ascii	"-< | | / _` |\000"
 4136      207C202F 
 4136      205F6020 
 4136      7C00
 4137              		.type	TERM_startupText2, %object
 4138              		.size	TERM_startupText2, 56
 4139              	TERM_startupText2:
 4140 009b 20205C5F 		.ascii	"  \\___/  |___/  |___/     |_|   \\___| /__/ |_| \\"
 4140      5F5F2F20 
 4140      207C5F5F 
 4140      5F2F2020 
 4140      7C5F5F5F 
 4141 00cb 5F5F2C5F 		.ascii	"__,_|\015\012\000"
 4141      7C0D0A00 
 4142              		.type	TERM_startupText3, %object
 4143              		.size	TERM_startupText3, 33
 4144              	TERM_startupText3:
 4145 00d3 09427569 		.ascii	"\011Build: Jan 13 2026 - 15:59:34\015\012\000"
 4145      6C643A20 
 4145      4A616E20 
 4145      31332032 
 4145      30323620 
 4146              		.type	CSWTCH.45, %object
 4147              		.size	CSWTCH.45, 28
 4148              	CSWTCH.45:
 4149 00f4 AE020000 		.word	.LC81
 4150 00f8 B4020000 		.word	.LC82
 4151 00fc BA020000 		.word	.LC83
 4152 0100 97010000 		.word	.LC43
ARM GAS  C:\Users\chemi\AppData\Local\Temp\cc0tO343.s 			page 104


 4153 0104 C0020000 		.word	.LC84
 4154 0108 C6020000 		.word	.LC85
 4155 010c CC020000 		.word	.LC86
 4156              		.type	CSWTCH.46, %object
 4157              		.size	CSWTCH.46, 28
 4158              	CSWTCH.46:
 4159 0110 84020000 		.word	.LC74
 4160 0114 8A020000 		.word	.LC75
 4161 0118 90020000 		.word	.LC76
 4162 011c 96020000 		.word	.LC77
 4163 0120 9C020000 		.word	.LC78
 4164 0124 A2020000 		.word	.LC79
 4165 0128 A8020000 		.word	.LC80
 4166              		.section	.rodata.str1.1,"aMS",%progbits,1
 4167              	.LC0:
 4168 0000 55443300 		.ascii	"UD3\000"
 4169              	.LC1:
 4170 0004 0D0A2573 		.ascii	"\015\012%s@%s>\000"
 4170      4025733E 
 4170      00
 4171              	.LC2:
 4172 000d 0D0A5461 		.ascii	"\015\012Task returned with error code %d\015\012%s@"
 4172      736B2072 
 4172      65747572 
 4172      6E656420 
 4172      77697468 
 4173 0034 25733E00 		.ascii	"%s>\000"
 4174              	.LC3:
 4175 0038 22257322 		.ascii	"\"%s\" is not a valid command. Type \"help\" to see"
 4175      20697320 
 4175      6E6F7420 
 4175      61207661 
 4175      6C696420 
 4176 0067 2061206C 		.ascii	" a list of available ones\015\012%s@%s>\000"
 4176      69737420 
 4176      6F662061 
 4176      7661696C 
 4176      61626C65 
 4177              	.LC4:
 4178 0089 22257322 		.ascii	"\"%s\"\000"
 4178      00
 4179              	.LC5:
 4180 008e 0D0A4572 		.ascii	"\015\012Error: unclosed string literal in command\015"
 4180      726F723A 
 4180      20756E63 
 4180      6C6F7365 
 4180      64207374 
 4181 00ba 0A00     		.ascii	"\012\000"
 4182              	.LC6:
 4183 00bc 1B5B2569 		.ascii	"\033[%i;%iH\000"
 4183      3B256948 
 4183      00
 4184              	.LC7:
 4185 00c5 25636300 		.ascii	"%cc\000"
 4186              	.LC8:
 4187 00c9 1B5B4400 		.ascii	"\033[D\000"
 4188              	.LC9:
ARM GAS  C:\Users\chemi\AppData\Local\Temp\cc0tO343.s 			page 105


 4189 00cd 1B5B4300 		.ascii	"\033[C\000"
 4190              	.LC10:
 4191 00d1 1B5B4800 		.ascii	"\033[H\000"
 4192              	.LC11:
 4193 00d5 1B5B4600 		.ascii	"\033[F\000"
 4194              	.LC12:
 4195 00d9 1B5B2564 		.ascii	"\033[%dm\000"
 4195      6D00
 4196              	.LC13:
 4197 00df 1B5B306D 		.ascii	"\033[0m\000"
 4197      00
 4198              	.LC14:
 4199 00e4 1B5B316D 		.ascii	"\033[1m\000"
 4199      00
 4200              	.LC15:
 4201 00e9 1B5B326D 		.ascii	"\033[2m\000"
 4201      00
 4202              	.LC16:
 4203 00ee 1B5B346D 		.ascii	"\033[4m\000"
 4203      00
 4204              	.LC17:
 4205 00f3 1B5B356D 		.ascii	"\033[5m\000"
 4205      00
 4206              	.LC18:
 4207 00f8 1B5B376D 		.ascii	"\033[7m\000"
 4207      00
 4208              	.LC19:
 4209 00fd 1B5B386D 		.ascii	"\033[8m\000"
 4209      00
 4210              	.LC20:
 4211 0102 1B5B324A 		.ascii	"\033[2J\000"
 4211      00
 4212              	.LC21:
 4213 0107 1B5B324B 		.ascii	"\033[2K\000"
 4213      00
 4214              	.LC22:
 4215 010c 1B2800   		.ascii	"\033(\000"
 4216              	.LC23:
 4217 010f 1B2900   		.ascii	"\033)\000"
 4218              	.LC24:
 4219 0112 1B5B3768 		.ascii	"\033[7h\000"
 4219      00
 4220              	.LC25:
 4221 0117 1B5B376C 		.ascii	"\033[7l\000"
 4221      00
 4222              	.LC26:
 4223 011c 1B5B4B00 		.ascii	"\033[K\000"
 4224              	.LC27:
 4225 0120 1B5B2564 		.ascii	"\033[%dD\000"
 4225      4400
 4226              	.LC28:
 4227 0126 1B5B2564 		.ascii	"\033[%dC\000"
 4227      4300
 4228              	.LC29:
 4229 012c 1B3700   		.ascii	"\0337\000"
 4230              	.LC30:
 4231 012f 1B3800   		.ascii	"\0338\000"
ARM GAS  C:\Users\chemi\AppData\Local\Temp\cc0tO343.s 			page 106


 4232              	.LC31:
 4233 0132 1B5B3F32 		.ascii	"\033[?25h\000"
 4233      356800
 4234              	.LC32:
 4235 0139 1B5B3F32 		.ascii	"\033[?25l\000"
 4235      356C00
 4236              	.LC33:
 4237 0140 1B5B2569 		.ascii	"\033[%i`\000"
 4237      6000
 4238              	.LC34:
 4239 0146 1B5B324A 		.ascii	"\033[2J\033[1;1H\000"
 4239      1B5B313B 
 4239      314800
 4240              	.LC35:
 4241 0151 1B5B2564 		.ascii	"\033[%dB\000"
 4241      4200
 4242              	.LC36:
 4243 0157 0D0A2573 		.ascii	"\015\012%s\000"
 4243      00
 4244              	.LC37:
 4245 015c 25734025 		.ascii	"%s@%s>\000"
 4245      733E00
 4246              	.LC38:
 4247 0163 25734025 		.ascii	"%s@%s>%s\000"
 4247      733E2573 
 4247      00
 4248              	.LC39:
 4249 016c 1B5B3F37 		.ascii	"\033[?7l\015\012\012\012%s\015\012\000"
 4249      6C0D0A0A 
 4249      0A25730D 
 4249      0A00
 4250              	.LC40:
 4251 017a 25730D0A 		.ascii	"%s\015\012\000"
 4251      00
 4252              	.LC41:
 4253 017f 0D0A0D0A 		.ascii	"\015\012\015\012%s@%s>\000"
 4253      25734025 
 4253      733E00
 4254              	.LC42:
 4255 018a 0D0A0D0A 		.ascii	"\015\012\015\012%s@%s>%s\000"
 4255      25734025 
 4255      733E2573 
 4255      00
 4256              	.LC43:
 4257 0197 1B5B3334 		.ascii	"\033[34m\000"
 4257      6D00
 4258              	.LC44:
 4259 019d 25732573 		.ascii	"%s%s%s\000"
 4259      257300
 4260              	.LC45:
 4261 01a4 44697370 		.ascii	"Displays this help message\000"
 4261      6C617973 
 4261      20746869 
 4261      73206865 
 4261      6C70206D 
 4262              	.LC46:
 4263 01bf 68656C70 		.ascii	"help\000"
ARM GAS  C:\Users\chemi\AppData\Local\Temp\cc0tO343.s 			page 107


 4263      00
 4264              	.LC47:
 4265 01c4 436C6561 		.ascii	"Clears the screen\000"
 4265      72732074 
 4265      68652073 
 4265      63726565 
 4265      6E00
 4266              	.LC48:
 4267 01d6 636C7300 		.ascii	"cls\000"
 4268              	.LC49:
 4269 01da 54657374 		.ascii	"Test input\000"
 4269      20696E70 
 4269      757400
 4270              	.LC50:
 4271 01e5 74657374 		.ascii	"test\000"
 4271      00
 4272              	.LC51:
 4273 01ea 0D257340 		.ascii	"\015%s@%s>\"%s\"\000"
 4273      25733E22 
 4273      25732200 
 4274              	.LC52:
 4275 01f6 0D257340 		.ascii	"\015%s@%s>%s\000"
 4275      25733E25 
 4275      7300
 4276              	.LC53:
 4277 0200 0D257340 		.ascii	"\015%s@%s>%.*s\"%s\"\000"
 4277      25733E25 
 4277      2E2A7322 
 4277      25732200 
 4278              	.LC54:
 4279 0210 0D257340 		.ascii	"\015%s@%s>%.*s%s\000"
 4279      25733E25 
 4279      2E2A7325 
 4279      7300
 4280              	.LC55:
 4281 021e 0D0A00   		.ascii	"\015\012\000"
 4282              	.LC56:
 4283 0221 0D257340 		.ascii	"\015%s@%s>\000"
 4283      25733E00 
 4284              	.LC57:
 4285 0229 0800     		.ascii	"\010\000"
 4286              	.LC58:
 4287 022b 257300   		.ascii	"%s\000"
 4288              	.LC59:
 4289 022e 08200800 		.ascii	"\010 \010\000"
 4290              	.LC60:
 4291 0232 0700     		.ascii	"\007\000"
 4292              	.LC61:
 4293 0234 256300   		.ascii	"%c\000"
 4294              	.LC62:
 4295 0237 756E6B6E 		.ascii	"unknown code received: 0x%02x\015\012\000"
 4295      6F776E20 
 4295      636F6465 
 4295      20726563 
 4295      65697665 
 4296              	.LC63:
 4297 0257 E2959400 		.ascii	"\342\225\224\000"
ARM GAS  C:\Users\chemi\AppData\Local\Temp\cc0tO343.s 			page 108


 4298              	.LC64:
 4299 025b E2959000 		.ascii	"\342\225\220\000"
 4300              	.LC65:
 4301 025f E2959700 		.ascii	"\342\225\227\000"
 4302              	.LC66:
 4303 0263 E2959100 		.ascii	"\342\225\221\000"
 4304              	.LC67:
 4305 0267 E2959A00 		.ascii	"\342\225\232\000"
 4306              	.LC68:
 4307 026b E2959D00 		.ascii	"\342\225\235\000"
 4308              	.LC69:
 4309 026f 1B4300   		.ascii	"\033C\000"
 4310              	.LC70:
 4311 0272 1B5B3731 		.ascii	"\033[71\000"
 4311      00
 4312              	.LC71:
 4313 0277 1B5B3330 		.ascii	"\033[30m\000"
 4313      6D00
 4314              	.LC72:
 4315 027d 00       		.ascii	"\000"
 4316              	.LC73:
 4317 027e 1B5B3430 		.ascii	"\033[40m\000"
 4317      6D00
 4318              	.LC74:
 4319 0284 1B5B3431 		.ascii	"\033[41m\000"
 4319      6D00
 4320              	.LC75:
 4321 028a 1B5B3432 		.ascii	"\033[42m\000"
 4321      6D00
 4322              	.LC76:
 4323 0290 1B5B3433 		.ascii	"\033[43m\000"
 4323      6D00
 4324              	.LC77:
 4325 0296 1B5B3434 		.ascii	"\033[44m\000"
 4325      6D00
 4326              	.LC78:
 4327 029c 1B5B3435 		.ascii	"\033[45m\000"
 4327      6D00
 4328              	.LC79:
 4329 02a2 1B5B3436 		.ascii	"\033[46m\000"
 4329      6D00
 4330              	.LC80:
 4331 02a8 1B5B3437 		.ascii	"\033[47m\000"
 4331      6D00
 4332              	.LC81:
 4333 02ae 1B5B3331 		.ascii	"\033[31m\000"
 4333      6D00
 4334              	.LC82:
 4335 02b4 1B5B3332 		.ascii	"\033[32m\000"
 4335      6D00
 4336              	.LC83:
 4337 02ba 1B5B3333 		.ascii	"\033[33m\000"
 4337      6D00
 4338              	.LC84:
 4339 02c0 1B5B3335 		.ascii	"\033[35m\000"
 4339      6D00
 4340              	.LC85:
ARM GAS  C:\Users\chemi\AppData\Local\Temp\cc0tO343.s 			page 109


 4341 02c6 1B5B3336 		.ascii	"\033[36m\000"
 4341      6D00
 4342              	.LC86:
 4343 02cc 1B5B3337 		.ascii	"\033[37m\000"
 4343      6D00
 4344              		.bss
 4345              		.align	2
 4346              		.set	.LANCHOR1,. + 0
 4347              		.type	TERM_baseCMDsAdded, %object
 4348              		.size	TERM_baseCMDsAdded, 4
 4349              	TERM_baseCMDsAdded:
 4350 0000 00000000 		.space	4
 4351              		.type	TERM_cmdListHead, %object
 4352              		.size	TERM_cmdListHead, 32
 4353              	TERM_cmdListHead:
 4354 0004 00000000 		.space	32
 4354      00000000 
 4354      00000000 
 4354      00000000 
 4354      00000000 
 4355              		.text
 4356              	.Letext0:
 4357              		.file 2 "c:\\program files (x86)\\cypress\\psoc creator\\4.4\\psoc creator\\import\\gnu\\arm\\5.4.
 4358              		.file 3 "c:\\program files (x86)\\cypress\\psoc creator\\4.4\\psoc creator\\import\\gnu\\arm\\5.4.
 4359              		.file 4 "c:\\program files (x86)\\cypress\\psoc creator\\4.4\\psoc creator\\import\\gnu\\arm\\5.4.
 4360              		.file 5 "..\\common\\rtos\\portable\\GCC\\ARM_CM3/portmacro.h"
 4361              		.file 6 "..\\common\\rtos\\include/task.h"
 4362              		.file 7 "..\\common\\rtos\\include/stream_buffer.h"
 4363              		.file 8 "..\\common\\tterm\\TTerm.h"
 4364              		.file 9 "<built-in>"
 4365              		.file 10 "..\\common\\tterm\\TTerm_AC.h"
 4366              		.file 11 "Generated_Source\\PSoC5/core_cm3.h"
 4367              		.file 12 "..\\common\\tterm\\TTerm_cmd.h"
 4368              		.file 13 "..\\common\\rtos\\include/portable.h"
 4369              		.file 14 "c:\\program files (x86)\\cypress\\psoc creator\\4.4\\psoc creator\\import\\gnu\\arm\\5.4
 4370              		.file 15 "c:\\program files (x86)\\cypress\\psoc creator\\4.4\\psoc creator\\import\\gnu\\arm\\5.4
 4371              		.file 16 "..\\common\\tterm\\apps.h"
 4372              		.section	.debug_info,"",%progbits
 4373              	.Ldebug_info0:
 4374 0000 2A1F0000 		.4byte	0x1f2a
 4375 0004 0400     		.2byte	0x4
 4376 0006 00000000 		.4byte	.Ldebug_abbrev0
 4377 000a 04       		.byte	0x4
 4378 000b 01       		.uleb128 0x1
 4379 000c 01040000 		.4byte	.LASF209
 4380 0010 0C       		.byte	0xc
 4381 0011 C2030000 		.4byte	.LASF210
 4382 0015 06010000 		.4byte	.LASF211
 4383 0019 40000000 		.4byte	.Ldebug_ranges0+0x40
 4384 001d 00000000 		.4byte	0
 4385 0021 00000000 		.4byte	.Ldebug_line0
 4386 0025 02       		.uleb128 0x2
 4387 0026 01       		.byte	0x1
 4388 0027 06       		.byte	0x6
 4389 0028 E8010000 		.4byte	.LASF0
 4390 002c 03       		.uleb128 0x3
 4391 002d 92000000 		.4byte	.LASF3
ARM GAS  C:\Users\chemi\AppData\Local\Temp\cc0tO343.s 			page 110


 4392 0031 02       		.byte	0x2
 4393 0032 1D       		.byte	0x1d
 4394 0033 37000000 		.4byte	0x37
 4395 0037 02       		.uleb128 0x2
 4396 0038 01       		.byte	0x1
 4397 0039 08       		.byte	0x8
 4398 003a 90080000 		.4byte	.LASF1
 4399 003e 02       		.uleb128 0x2
 4400 003f 02       		.byte	0x2
 4401 0040 05       		.byte	0x5
 4402 0041 26000000 		.4byte	.LASF2
 4403 0045 03       		.uleb128 0x3
 4404 0046 D3090000 		.4byte	.LASF4
 4405 004a 02       		.byte	0x2
 4406 004b 2B       		.byte	0x2b
 4407 004c 50000000 		.4byte	0x50
 4408 0050 02       		.uleb128 0x2
 4409 0051 02       		.byte	0x2
 4410 0052 07       		.byte	0x7
 4411 0053 DB050000 		.4byte	.LASF5
 4412 0057 03       		.uleb128 0x3
 4413 0058 2D0A0000 		.4byte	.LASF6
 4414 005c 02       		.byte	0x2
 4415 005d 3F       		.byte	0x3f
 4416 005e 62000000 		.4byte	0x62
 4417 0062 02       		.uleb128 0x2
 4418 0063 04       		.byte	0x4
 4419 0064 05       		.byte	0x5
 4420 0065 9B020000 		.4byte	.LASF7
 4421 0069 03       		.uleb128 0x3
 4422 006a EC030000 		.4byte	.LASF8
 4423 006e 02       		.byte	0x2
 4424 006f 41       		.byte	0x41
 4425 0070 74000000 		.4byte	0x74
 4426 0074 02       		.uleb128 0x2
 4427 0075 04       		.byte	0x4
 4428 0076 07       		.byte	0x7
 4429 0077 55050000 		.4byte	.LASF9
 4430 007b 02       		.uleb128 0x2
 4431 007c 08       		.byte	0x8
 4432 007d 05       		.byte	0x5
 4433 007e 14030000 		.4byte	.LASF10
 4434 0082 02       		.uleb128 0x2
 4435 0083 08       		.byte	0x8
 4436 0084 07       		.byte	0x7
 4437 0085 2B010000 		.4byte	.LASF11
 4438 0089 04       		.uleb128 0x4
 4439 008a 04       		.byte	0x4
 4440 008b 05       		.byte	0x5
 4441 008c 696E7400 		.ascii	"int\000"
 4442 0090 02       		.uleb128 0x2
 4443 0091 04       		.byte	0x4
 4444 0092 07       		.byte	0x7
 4445 0093 02050000 		.4byte	.LASF12
 4446 0097 03       		.uleb128 0x3
 4447 0098 500B0000 		.4byte	.LASF13
 4448 009c 03       		.byte	0x3
ARM GAS  C:\Users\chemi\AppData\Local\Temp\cc0tO343.s 			page 111


 4449 009d 18       		.byte	0x18
 4450 009e 2C000000 		.4byte	0x2c
 4451 00a2 03       		.uleb128 0x3
 4452 00a3 22030000 		.4byte	.LASF14
 4453 00a7 03       		.byte	0x3
 4454 00a8 24       		.byte	0x24
 4455 00a9 45000000 		.4byte	0x45
 4456 00ad 03       		.uleb128 0x3
 4457 00ae 88080000 		.4byte	.LASF15
 4458 00b2 03       		.byte	0x3
 4459 00b3 2C       		.byte	0x2c
 4460 00b4 57000000 		.4byte	0x57
 4461 00b8 03       		.uleb128 0x3
 4462 00b9 AD090000 		.4byte	.LASF16
 4463 00bd 03       		.byte	0x3
 4464 00be 30       		.byte	0x30
 4465 00bf 69000000 		.4byte	0x69
 4466 00c3 03       		.uleb128 0x3
 4467 00c4 43070000 		.4byte	.LASF17
 4468 00c8 04       		.byte	0x4
 4469 00c9 28       		.byte	0x28
 4470 00ca CE000000 		.4byte	0xce
 4471 00ce 05       		.uleb128 0x5
 4472 00cf 43030000 		.4byte	.LASF67
 4473 00d3 04       		.byte	0x4
 4474 00d4 09       		.byte	0x9
 4475 00d5 00       		.byte	0
 4476 00d6 E5000000 		.4byte	0xe5
 4477 00da 06       		.uleb128 0x6
 4478 00db A80A0000 		.4byte	.LASF212
 4479 00df E5000000 		.4byte	0xe5
 4480 00e3 00       		.byte	0
 4481 00e4 00       		.byte	0
 4482 00e5 07       		.uleb128 0x7
 4483 00e6 04       		.byte	0x4
 4484 00e7 02       		.uleb128 0x2
 4485 00e8 04       		.byte	0x4
 4486 00e9 07       		.byte	0x7
 4487 00ea DD060000 		.4byte	.LASF18
 4488 00ee 08       		.uleb128 0x8
 4489 00ef 04       		.byte	0x4
 4490 00f0 F4000000 		.4byte	0xf4
 4491 00f4 02       		.uleb128 0x2
 4492 00f5 01       		.byte	0x1
 4493 00f6 08       		.byte	0x8
 4494 00f7 C9090000 		.4byte	.LASF19
 4495 00fb 08       		.uleb128 0x8
 4496 00fc 04       		.byte	0x4
 4497 00fd 01010000 		.4byte	0x101
 4498 0101 09       		.uleb128 0x9
 4499 0102 F4000000 		.4byte	0xf4
 4500 0106 03       		.uleb128 0x3
 4501 0107 9C000000 		.4byte	.LASF20
 4502 010b 04       		.byte	0x4
 4503 010c 62       		.byte	0x62
 4504 010d C3000000 		.4byte	0xc3
 4505 0111 02       		.uleb128 0x2
ARM GAS  C:\Users\chemi\AppData\Local\Temp\cc0tO343.s 			page 112


 4506 0112 04       		.byte	0x4
 4507 0113 04       		.byte	0x4
 4508 0114 E8070000 		.4byte	.LASF21
 4509 0118 02       		.uleb128 0x2
 4510 0119 08       		.byte	0x8
 4511 011a 04       		.byte	0x4
 4512 011b 3C030000 		.4byte	.LASF22
 4513 011f 03       		.uleb128 0x3
 4514 0120 4D030000 		.4byte	.LASF23
 4515 0124 05       		.byte	0x5
 4516 0125 38       		.byte	0x38
 4517 0126 62000000 		.4byte	0x62
 4518 012a 08       		.uleb128 0x8
 4519 012b 04       		.byte	0x4
 4520 012c 97000000 		.4byte	0x97
 4521 0130 03       		.uleb128 0x3
 4522 0131 98010000 		.4byte	.LASF24
 4523 0135 06       		.byte	0x6
 4524 0136 4E       		.byte	0x4e
 4525 0137 3B010000 		.4byte	0x13b
 4526 013b 08       		.uleb128 0x8
 4527 013c 04       		.byte	0x4
 4528 013d 41010000 		.4byte	0x141
 4529 0141 0A       		.uleb128 0xa
 4530 0142 A4020000 		.4byte	.LASF26
 4531 0146 03       		.uleb128 0x3
 4532 0147 C6050000 		.4byte	.LASF25
 4533 014b 07       		.byte	0x7
 4534 014c 46       		.byte	0x46
 4535 014d 51010000 		.4byte	0x151
 4536 0151 08       		.uleb128 0x8
 4537 0152 04       		.byte	0x4
 4538 0153 57010000 		.4byte	0x157
 4539 0157 0A       		.uleb128 0xa
 4540 0158 C60B0000 		.4byte	.LASF27
 4541 015c 0B       		.uleb128 0xb
 4542 015d 49090000 		.4byte	.LASF56
 4543 0161 01       		.byte	0x1
 4544 0162 37000000 		.4byte	0x37
 4545 0166 08       		.byte	0x8
 4546 0167 35       		.byte	0x35
 4547 0168 15020000 		.4byte	0x215
 4548 016c 0C       		.uleb128 0xc
 4549 016d CA060000 		.4byte	.LASF28
 4550 0171 00       		.byte	0
 4551 0172 0C       		.uleb128 0xc
 4552 0173 B8060000 		.4byte	.LASF29
 4553 0177 01       		.byte	0x1
 4554 0178 0C       		.uleb128 0xc
 4555 0179 D7040000 		.4byte	.LASF30
 4556 017d 02       		.byte	0x2
 4557 017e 0C       		.uleb128 0xc
 4558 017f 66080000 		.4byte	.LASF31
 4559 0183 03       		.byte	0x3
 4560 0184 0C       		.uleb128 0xc
 4561 0185 B8020000 		.4byte	.LASF32
 4562 0189 04       		.byte	0x4
ARM GAS  C:\Users\chemi\AppData\Local\Temp\cc0tO343.s 			page 113


 4563 018a 0C       		.uleb128 0xc
 4564 018b 06070000 		.4byte	.LASF33
 4565 018f 05       		.byte	0x5
 4566 0190 0C       		.uleb128 0xc
 4567 0191 79070000 		.4byte	.LASF34
 4568 0195 06       		.byte	0x6
 4569 0196 0C       		.uleb128 0xc
 4570 0197 CC000000 		.4byte	.LASF35
 4571 019b 07       		.byte	0x7
 4572 019c 0C       		.uleb128 0xc
 4573 019d 3C090000 		.4byte	.LASF36
 4574 01a1 08       		.byte	0x8
 4575 01a2 0C       		.uleb128 0xc
 4576 01a3 10060000 		.4byte	.LASF37
 4577 01a7 09       		.byte	0x9
 4578 01a8 0C       		.uleb128 0xc
 4579 01a9 7D000000 		.4byte	.LASF38
 4580 01ad 0A       		.byte	0xa
 4581 01ae 0C       		.uleb128 0xc
 4582 01af 50000000 		.4byte	.LASF39
 4583 01b3 0B       		.byte	0xb
 4584 01b4 0C       		.uleb128 0xc
 4585 01b5 00000000 		.4byte	.LASF40
 4586 01b9 0C       		.byte	0xc
 4587 01ba 0C       		.uleb128 0xc
 4588 01bb 81090000 		.4byte	.LASF41
 4589 01bf 0D       		.byte	0xd
 4590 01c0 0C       		.uleb128 0xc
 4591 01c1 90090000 		.4byte	.LASF42
 4592 01c5 0E       		.byte	0xe
 4593 01c6 0C       		.uleb128 0xc
 4594 01c7 F7060000 		.4byte	.LASF43
 4595 01cb 0F       		.byte	0xf
 4596 01cc 0C       		.uleb128 0xc
 4597 01cd 55060000 		.4byte	.LASF44
 4598 01d1 10       		.byte	0x10
 4599 01d2 0C       		.uleb128 0xc
 4600 01d3 9A070000 		.4byte	.LASF45
 4601 01d7 11       		.byte	0x11
 4602 01d8 0C       		.uleb128 0xc
 4603 01d9 85020000 		.4byte	.LASF46
 4604 01dd 12       		.byte	0x12
 4605 01de 0C       		.uleb128 0xc
 4606 01df 50020000 		.4byte	.LASF47
 4607 01e3 13       		.byte	0x13
 4608 01e4 0C       		.uleb128 0xc
 4609 01e5 F6080000 		.4byte	.LASF48
 4610 01e9 14       		.byte	0x14
 4611 01ea 0C       		.uleb128 0xc
 4612 01eb A5010000 		.4byte	.LASF49
 4613 01ef 15       		.byte	0x15
 4614 01f0 0C       		.uleb128 0xc
 4615 01f1 14070000 		.4byte	.LASF50
 4616 01f5 16       		.byte	0x16
 4617 01f6 0C       		.uleb128 0xc
 4618 01f7 F4010000 		.4byte	.LASF51
 4619 01fb 17       		.byte	0x17
ARM GAS  C:\Users\chemi\AppData\Local\Temp\cc0tO343.s 			page 114


 4620 01fc 0C       		.uleb128 0xc
 4621 01fd CC020000 		.4byte	.LASF52
 4622 0201 18       		.byte	0x18
 4623 0202 0C       		.uleb128 0xc
 4624 0203 DE090000 		.4byte	.LASF53
 4625 0207 19       		.byte	0x19
 4626 0208 0C       		.uleb128 0xc
 4627 0209 240B0000 		.4byte	.LASF54
 4628 020d 1A       		.byte	0x1a
 4629 020e 0C       		.uleb128 0xc
 4630 020f DD010000 		.4byte	.LASF55
 4631 0213 1B       		.byte	0x1b
 4632 0214 00       		.byte	0
 4633 0215 0B       		.uleb128 0xb
 4634 0216 C3090000 		.4byte	.LASF57
 4635 021a 01       		.byte	0x1
 4636 021b 37000000 		.4byte	0x37
 4637 021f 08       		.byte	0x8
 4638 0220 65       		.byte	0x65
 4639 0221 56020000 		.4byte	0x256
 4640 0225 0C       		.uleb128 0xc
 4641 0226 2F090000 		.4byte	.LASF58
 4642 022a 00       		.byte	0
 4643 022b 0C       		.uleb128 0xc
 4644 022c AD060000 		.4byte	.LASF59
 4645 0230 01       		.byte	0x1
 4646 0231 0C       		.uleb128 0xc
 4647 0232 6F090000 		.4byte	.LASF60
 4648 0236 02       		.byte	0x2
 4649 0237 0C       		.uleb128 0xc
 4650 0238 02060000 		.4byte	.LASF61
 4651 023c 03       		.byte	0x3
 4652 023d 0C       		.uleb128 0xc
 4653 023e 08030000 		.4byte	.LASF62
 4654 0242 04       		.byte	0x4
 4655 0243 0C       		.uleb128 0xc
 4656 0244 56090000 		.4byte	.LASF63
 4657 0248 05       		.byte	0x5
 4658 0249 0C       		.uleb128 0xc
 4659 024a A7040000 		.4byte	.LASF64
 4660 024e 06       		.byte	0x6
 4661 024f 0C       		.uleb128 0xc
 4662 0250 63010000 		.4byte	.LASF65
 4663 0254 07       		.byte	0x7
 4664 0255 00       		.byte	0
 4665 0256 03       		.uleb128 0x3
 4666 0257 93060000 		.4byte	.LASF66
 4667 025b 08       		.byte	0x8
 4668 025c A3       		.byte	0xa3
 4669 025d 61020000 		.4byte	0x261
 4670 0261 05       		.uleb128 0x5
 4671 0262 4F010000 		.4byte	.LASF68
 4672 0266 94       		.byte	0x94
 4673 0267 08       		.byte	0x8
 4674 0268 C6       		.byte	0xc6
 4675 0269 52030000 		.4byte	0x352
 4676 026d 0D       		.uleb128 0xd
ARM GAS  C:\Users\chemi\AppData\Local\Temp\cc0tO343.s 			page 115


 4677 026e 5E0A0000 		.4byte	.LASF69
 4678 0272 08       		.byte	0x8
 4679 0273 C7       		.byte	0xc7
 4680 0274 EE000000 		.4byte	0xee
 4681 0278 00       		.byte	0
 4682 0279 0D       		.uleb128 0xd
 4683 027a EF040000 		.4byte	.LASF70
 4684 027e 08       		.byte	0x8
 4685 027f C9       		.byte	0xc9
 4686 0280 E5000000 		.4byte	0xe5
 4687 0284 04       		.byte	0x4
 4688 0285 0D       		.uleb128 0xd
 4689 0286 0C090000 		.4byte	.LASF71
 4690 028a 08       		.byte	0x8
 4691 028b CB       		.byte	0xcb
 4692 028c B8000000 		.4byte	0xb8
 4693 0290 08       		.byte	0x8
 4694 0291 0D       		.uleb128 0xd
 4695 0292 E1020000 		.4byte	.LASF72
 4696 0296 08       		.byte	0x8
 4697 0297 CC       		.byte	0xcc
 4698 0298 B8000000 		.4byte	0xb8
 4699 029c 0C       		.byte	0xc
 4700 029d 0D       		.uleb128 0xd
 4701 029e 7D010000 		.4byte	.LASF73
 4702 02a2 08       		.byte	0x8
 4703 02a3 CD       		.byte	0xcd
 4704 02a4 B8000000 		.4byte	0xb8
 4705 02a8 10       		.byte	0x10
 4706 02a9 0D       		.uleb128 0xd
 4707 02aa 18020000 		.4byte	.LASF74
 4708 02ae 08       		.byte	0x8
 4709 02af CE       		.byte	0xce
 4710 02b0 F7040000 		.4byte	0x4f7
 4711 02b4 14       		.byte	0x14
 4712 02b5 0D       		.uleb128 0xd
 4713 02b6 67050000 		.4byte	.LASF75
 4714 02ba 08       		.byte	0x8
 4715 02bb CF       		.byte	0xcf
 4716 02bc FA030000 		.4byte	0x3fa
 4717 02c0 18       		.byte	0x18
 4718 02c1 0D       		.uleb128 0xd
 4719 02c2 880A0000 		.4byte	.LASF76
 4720 02c6 08       		.byte	0x8
 4721 02c7 D0       		.byte	0xd0
 4722 02c8 B8000000 		.4byte	0xb8
 4723 02cc 1C       		.byte	0x1c
 4724 02cd 0D       		.uleb128 0xd
 4725 02ce 7A050000 		.4byte	.LASF77
 4726 02d2 08       		.byte	0x8
 4727 02d3 D1       		.byte	0xd1
 4728 02d4 B8000000 		.4byte	0xb8
 4729 02d8 20       		.byte	0x20
 4730 02d9 0D       		.uleb128 0xd
 4731 02da 30000000 		.4byte	.LASF78
 4732 02de 08       		.byte	0x8
 4733 02df D2       		.byte	0xd2
ARM GAS  C:\Users\chemi\AppData\Local\Temp\cc0tO343.s 			page 116


 4734 02e0 4A040000 		.4byte	0x44a
 4735 02e4 24       		.byte	0x24
 4736 02e5 0D       		.uleb128 0xd
 4737 02e6 000A0000 		.4byte	.LASF79
 4738 02ea 08       		.byte	0x8
 4739 02eb D3       		.byte	0xd3
 4740 02ec EE000000 		.4byte	0xee
 4741 02f0 28       		.byte	0x28
 4742 02f1 0D       		.uleb128 0xd
 4743 02f2 E20A0000 		.4byte	.LASF80
 4744 02f6 08       		.byte	0x8
 4745 02f7 D4       		.byte	0xd4
 4746 02f8 FD040000 		.4byte	0x4fd
 4747 02fc 2C       		.byte	0x2c
 4748 02fd 0D       		.uleb128 0xd
 4749 02fe 720B0000 		.4byte	.LASF81
 4750 0302 08       		.byte	0x8
 4751 0303 D5       		.byte	0xd5
 4752 0304 B8000000 		.4byte	0xb8
 4753 0308 6C       		.byte	0x6c
 4754 0309 0D       		.uleb128 0xd
 4755 030a D2080000 		.4byte	.LASF82
 4756 030e 08       		.byte	0x8
 4757 030f D6       		.byte	0xd6
 4758 0310 B8000000 		.4byte	0xb8
 4759 0314 70       		.byte	0x70
 4760 0315 0D       		.uleb128 0xd
 4761 0316 9F090000 		.4byte	.LASF83
 4762 031a 08       		.byte	0x8
 4763 031b D7       		.byte	0xd7
 4764 031c 97000000 		.4byte	0x97
 4765 0320 74       		.byte	0x74
 4766 0321 0D       		.uleb128 0xd
 4767 0322 4A060000 		.4byte	.LASF84
 4768 0326 08       		.byte	0x8
 4769 0327 D8       		.byte	0xd8
 4770 0328 0D050000 		.4byte	0x50d
 4771 032c 75       		.byte	0x75
 4772 032d 0D       		.uleb128 0xd
 4773 032e D4070000 		.4byte	.LASF85
 4774 0332 08       		.byte	0x8
 4775 0333 D9       		.byte	0xd9
 4776 0334 90000000 		.4byte	0x90
 4777 0338 88       		.byte	0x88
 4778 0339 0D       		.uleb128 0xd
 4779 033a 520A0000 		.4byte	.LASF86
 4780 033e 08       		.byte	0x8
 4781 033f DA       		.byte	0xda
 4782 0340 F1040000 		.4byte	0x4f1
 4783 0344 8C       		.byte	0x8c
 4784 0345 0D       		.uleb128 0xd
 4785 0346 DE000000 		.4byte	.LASF87
 4786 034a 08       		.byte	0x8
 4787 034b DB       		.byte	0xdb
 4788 034c 25040000 		.4byte	0x425
 4789 0350 90       		.byte	0x90
 4790 0351 00       		.byte	0
ARM GAS  C:\Users\chemi\AppData\Local\Temp\cc0tO343.s 			page 117


 4791 0352 03       		.uleb128 0x3
 4792 0353 05080000 		.4byte	.LASF88
 4793 0357 08       		.byte	0x8
 4794 0358 A4       		.byte	0xa4
 4795 0359 5D030000 		.4byte	0x35d
 4796 035d 05       		.uleb128 0x5
 4797 035e A4000000 		.4byte	.LASF89
 4798 0362 20       		.byte	0x20
 4799 0363 08       		.byte	0x8
 4800 0364 BA       		.byte	0xba
 4801 0365 CA030000 		.4byte	0x3ca
 4802 0369 0D       		.uleb128 0xd
 4803 036a 24020000 		.4byte	.LASF90
 4804 036e 08       		.byte	0x8
 4805 036f BB       		.byte	0xbb
 4806 0370 CA030000 		.4byte	0x3ca
 4807 0374 00       		.byte	0
 4808 0375 0D       		.uleb128 0xd
 4809 0376 32050000 		.4byte	.LASF91
 4810 037a 08       		.byte	0x8
 4811 037b BC       		.byte	0xbc
 4812 037c FB000000 		.4byte	0xfb
 4813 0380 04       		.byte	0x4
 4814 0381 0D       		.uleb128 0xd
 4815 0382 BF0A0000 		.4byte	.LASF92
 4816 0386 08       		.byte	0x8
 4817 0387 BD       		.byte	0xbd
 4818 0388 FB000000 		.4byte	0xfb
 4819 038c 08       		.byte	0x8
 4820 038d 0D       		.uleb128 0xd
 4821 038e 52070000 		.4byte	.LASF93
 4822 0392 08       		.byte	0x8
 4823 0393 BE       		.byte	0xbe
 4824 0394 B8000000 		.4byte	0xb8
 4825 0398 0C       		.byte	0xc
 4826 0399 0D       		.uleb128 0xd
 4827 039a 3D0B0000 		.4byte	.LASF94
 4828 039e 08       		.byte	0x8
 4829 039f BF       		.byte	0xbf
 4830 03a0 97000000 		.4byte	0x97
 4831 03a4 10       		.byte	0x10
 4832 03a5 0D       		.uleb128 0xd
 4833 03a6 7E080000 		.4byte	.LASF95
 4834 03aa 08       		.byte	0x8
 4835 03ab C0       		.byte	0xc0
 4836 03ac 70040000 		.4byte	0x470
 4837 03b0 14       		.byte	0x14
 4838 03b1 0D       		.uleb128 0xd
 4839 03b2 D80B0000 		.4byte	.LASF96
 4840 03b6 08       		.byte	0x8
 4841 03b7 C1       		.byte	0xc1
 4842 03b8 E5000000 		.4byte	0xe5
 4843 03bc 18       		.byte	0x18
 4844 03bd 0D       		.uleb128 0xd
 4845 03be 31080000 		.4byte	.LASF97
 4846 03c2 08       		.byte	0x8
 4847 03c3 C3       		.byte	0xc3
ARM GAS  C:\Users\chemi\AppData\Local\Temp\cc0tO343.s 			page 118


 4848 03c4 F1040000 		.4byte	0x4f1
 4849 03c8 1C       		.byte	0x1c
 4850 03c9 00       		.byte	0
 4851 03ca 03       		.uleb128 0x3
 4852 03cb FA0A0000 		.4byte	.LASF98
 4853 03cf 08       		.byte	0x8
 4854 03d0 A6       		.byte	0xa6
 4855 03d1 D5030000 		.4byte	0x3d5
 4856 03d5 08       		.uleb128 0x8
 4857 03d6 04       		.byte	0x4
 4858 03d7 DB030000 		.4byte	0x3db
 4859 03db 0E       		.uleb128 0xe
 4860 03dc 97000000 		.4byte	0x97
 4861 03e0 F4030000 		.4byte	0x3f4
 4862 03e4 0F       		.uleb128 0xf
 4863 03e5 F4030000 		.4byte	0x3f4
 4864 03e9 0F       		.uleb128 0xf
 4865 03ea 97000000 		.4byte	0x97
 4866 03ee 0F       		.uleb128 0xf
 4867 03ef FA030000 		.4byte	0x3fa
 4868 03f3 00       		.byte	0
 4869 03f4 08       		.uleb128 0x8
 4870 03f5 04       		.byte	0x4
 4871 03f6 56020000 		.4byte	0x256
 4872 03fa 08       		.uleb128 0x8
 4873 03fb 04       		.byte	0x4
 4874 03fc EE000000 		.4byte	0xee
 4875 0400 03       		.uleb128 0x3
 4876 0401 BA080000 		.4byte	.LASF99
 4877 0405 08       		.byte	0x8
 4878 0406 A7       		.byte	0xa7
 4879 0407 0B040000 		.4byte	0x40b
 4880 040b 08       		.uleb128 0x8
 4881 040c 04       		.byte	0x4
 4882 040d 11040000 		.4byte	0x411
 4883 0411 0E       		.uleb128 0xe
 4884 0412 97000000 		.4byte	0x97
 4885 0416 25040000 		.4byte	0x425
 4886 041a 0F       		.uleb128 0xf
 4887 041b F4030000 		.4byte	0x3f4
 4888 041f 0F       		.uleb128 0xf
 4889 0420 A2000000 		.4byte	0xa2
 4890 0424 00       		.byte	0
 4891 0425 03       		.uleb128 0x3
 4892 0426 93050000 		.4byte	.LASF100
 4893 042a 08       		.byte	0x8
 4894 042b A8       		.byte	0xa8
 4895 042c 30040000 		.4byte	0x430
 4896 0430 08       		.uleb128 0x8
 4897 0431 04       		.byte	0x4
 4898 0432 36040000 		.4byte	0x436
 4899 0436 0E       		.uleb128 0xe
 4900 0437 97000000 		.4byte	0x97
 4901 043b 4A040000 		.4byte	0x44a
 4902 043f 0F       		.uleb128 0xf
 4903 0440 F4030000 		.4byte	0x3f4
 4904 0444 0F       		.uleb128 0xf
ARM GAS  C:\Users\chemi\AppData\Local\Temp\cc0tO343.s 			page 119


 4905 0445 B8000000 		.4byte	0xb8
 4906 0449 00       		.byte	0
 4907 044a 03       		.uleb128 0x3
 4908 044b EC0B0000 		.4byte	.LASF101
 4909 044f 08       		.byte	0x8
 4910 0450 AB       		.byte	0xab
 4911 0451 55040000 		.4byte	0x455
 4912 0455 08       		.uleb128 0x8
 4913 0456 04       		.byte	0x4
 4914 0457 5B040000 		.4byte	0x45b
 4915 045b 0E       		.uleb128 0xe
 4916 045c B8000000 		.4byte	0xb8
 4917 0460 70040000 		.4byte	0x470
 4918 0464 0F       		.uleb128 0xf
 4919 0465 E5000000 		.4byte	0xe5
 4920 0469 0F       		.uleb128 0xf
 4921 046a EE000000 		.4byte	0xee
 4922 046e 10       		.uleb128 0x10
 4923 046f 00       		.byte	0
 4924 0470 03       		.uleb128 0x3
 4925 0471 6A0A0000 		.4byte	.LASF102
 4926 0475 08       		.byte	0x8
 4927 0476 AF       		.byte	0xaf
 4928 0477 7B040000 		.4byte	0x47b
 4929 047b 08       		.uleb128 0x8
 4930 047c 04       		.byte	0x4
 4931 047d 81040000 		.4byte	0x481
 4932 0481 0E       		.uleb128 0xe
 4933 0482 97000000 		.4byte	0x97
 4934 0486 95040000 		.4byte	0x495
 4935 048a 0F       		.uleb128 0xf
 4936 048b F4030000 		.4byte	0x3f4
 4937 048f 0F       		.uleb128 0xf
 4938 0490 E5000000 		.4byte	0xe5
 4939 0494 00       		.byte	0
 4940 0495 11       		.uleb128 0x11
 4941 0496 18       		.byte	0x18
 4942 0497 08       		.byte	0x8
 4943 0498 B1       		.byte	0xb1
 4944 0499 E6040000 		.4byte	0x4e6
 4945 049d 0D       		.uleb128 0xd
 4946 049e 7E0A0000 		.4byte	.LASF103
 4947 04a2 08       		.byte	0x8
 4948 04a3 B2       		.byte	0xb2
 4949 04a4 30010000 		.4byte	0x130
 4950 04a8 00       		.byte	0
 4951 04a9 0D       		.uleb128 0xd
 4952 04aa F8070000 		.4byte	.LASF104
 4953 04ae 08       		.byte	0x8
 4954 04af B3       		.byte	0xb3
 4955 04b0 00040000 		.4byte	0x400
 4956 04b4 04       		.byte	0x4
 4957 04b5 0D       		.uleb128 0xd
 4958 04b6 A3060000 		.4byte	.LASF105
 4959 04ba 08       		.byte	0x8
 4960 04bb B4       		.byte	0xb4
 4961 04bc 97000000 		.4byte	0x97
ARM GAS  C:\Users\chemi\AppData\Local\Temp\cc0tO343.s 			page 120


 4962 04c0 08       		.byte	0x8
 4963 04c1 0D       		.uleb128 0xd
 4964 04c2 31060000 		.4byte	.LASF106
 4965 04c6 08       		.byte	0x8
 4966 04c7 B5       		.byte	0xb5
 4967 04c8 46010000 		.4byte	0x146
 4968 04cc 0C       		.byte	0xc
 4969 04cd 0D       		.uleb128 0xd
 4970 04ce C10B0000 		.4byte	.LASF107
 4971 04d2 08       		.byte	0x8
 4972 04d3 B6       		.byte	0xb6
 4973 04d4 FA030000 		.4byte	0x3fa
 4974 04d8 10       		.byte	0x10
 4975 04d9 0D       		.uleb128 0xd
 4976 04da EE060000 		.4byte	.LASF108
 4977 04de 08       		.byte	0x8
 4978 04df B7       		.byte	0xb7
 4979 04e0 97000000 		.4byte	0x97
 4980 04e4 14       		.byte	0x14
 4981 04e5 00       		.byte	0
 4982 04e6 03       		.uleb128 0x3
 4983 04e7 EA080000 		.4byte	.LASF109
 4984 04eb 08       		.byte	0x8
 4985 04ec B8       		.byte	0xb8
 4986 04ed 95040000 		.4byte	0x495
 4987 04f1 08       		.uleb128 0x8
 4988 04f2 04       		.byte	0x4
 4989 04f3 52030000 		.4byte	0x352
 4990 04f7 08       		.uleb128 0x8
 4991 04f8 04       		.byte	0x4
 4992 04f9 E6040000 		.4byte	0x4e6
 4993 04fd 12       		.uleb128 0x12
 4994 04fe EE000000 		.4byte	0xee
 4995 0502 0D050000 		.4byte	0x50d
 4996 0506 13       		.uleb128 0x13
 4997 0507 E7000000 		.4byte	0xe7
 4998 050b 0F       		.byte	0xf
 4999 050c 00       		.byte	0
 5000 050d 12       		.uleb128 0x12
 5001 050e 97000000 		.4byte	0x97
 5002 0512 1D050000 		.4byte	0x51d
 5003 0516 13       		.uleb128 0x13
 5004 0517 E7000000 		.4byte	0xe7
 5005 051b 0F       		.byte	0xf
 5006 051c 00       		.byte	0
 5007 051d 14       		.uleb128 0x14
 5008 051e 01       		.byte	0x1
 5009 051f 37000000 		.4byte	0x37
 5010 0523 08       		.byte	0x8
 5011 0524 E3       		.byte	0xe3
 5012 0525 3C050000 		.4byte	0x53c
 5013 0529 0C       		.uleb128 0xc
 5014 052a 4D080000 		.4byte	.LASF110
 5015 052e 03       		.byte	0x3
 5016 052f 0C       		.uleb128 0xc
 5017 0530 72060000 		.4byte	.LASF111
 5018 0534 01       		.byte	0x1
ARM GAS  C:\Users\chemi\AppData\Local\Temp\cc0tO343.s 			page 121


 5019 0535 0C       		.uleb128 0xc
 5020 0536 0D0A0000 		.4byte	.LASF112
 5021 053a 02       		.byte	0x2
 5022 053b 00       		.byte	0
 5023 053c 03       		.uleb128 0x3
 5024 053d 8A030000 		.4byte	.LASF113
 5025 0541 08       		.byte	0x8
 5026 0542 E5       		.byte	0xe5
 5027 0543 1D050000 		.4byte	0x51d
 5028 0547 03       		.uleb128 0x3
 5029 0548 D20A0000 		.4byte	.LASF114
 5030 054c 0A       		.byte	0xa
 5031 054d 0C       		.byte	0xc
 5032 054e 52050000 		.4byte	0x552
 5033 0552 05       		.uleb128 0x5
 5034 0553 E0070000 		.4byte	.LASF115
 5035 0557 08       		.byte	0x8
 5036 0558 0A       		.byte	0xa
 5037 0559 0F       		.byte	0xf
 5038 055a 77050000 		.4byte	0x577
 5039 055e 0D       		.uleb128 0xd
 5040 055f 930B0000 		.4byte	.LASF116
 5041 0563 0A       		.byte	0xa
 5042 0564 10       		.byte	0x10
 5043 0565 B3050000 		.4byte	0x5b3
 5044 0569 00       		.byte	0
 5045 056a 0D       		.uleb128 0xd
 5046 056b 8B000000 		.4byte	.LASF117
 5047 056f 0A       		.byte	0xa
 5048 0570 11       		.byte	0x11
 5049 0571 EE000000 		.4byte	0xee
 5050 0575 04       		.byte	0x4
 5051 0576 00       		.byte	0
 5052 0577 03       		.uleb128 0x3
 5053 0578 AC050000 		.4byte	.LASF118
 5054 057c 0A       		.byte	0xa
 5055 057d 0D       		.byte	0xd
 5056 057e 82050000 		.4byte	0x582
 5057 0582 05       		.uleb128 0x5
 5058 0583 3D060000 		.4byte	.LASF119
 5059 0587 0C       		.byte	0xc
 5060 0588 0A       		.byte	0xa
 5061 0589 14       		.byte	0x14
 5062 058a B3050000 		.4byte	0x5b3
 5063 058e 0D       		.uleb128 0xd
 5064 058f 8B0B0000 		.4byte	.LASF120
 5065 0593 0A       		.byte	0xa
 5066 0594 15       		.byte	0x15
 5067 0595 90000000 		.4byte	0x90
 5068 0599 00       		.byte	0
 5069 059a 0D       		.uleb128 0xd
 5070 059b 65060000 		.4byte	.LASF121
 5071 059f 0A       		.byte	0xa
 5072 05a0 16       		.byte	0x16
 5073 05a1 B8000000 		.4byte	0xb8
 5074 05a5 04       		.byte	0x4
 5075 05a6 0D       		.uleb128 0xd
ARM GAS  C:\Users\chemi\AppData\Local\Temp\cc0tO343.s 			page 122


 5076 05a7 B6090000 		.4byte	.LASF122
 5077 05ab 0A       		.byte	0xa
 5078 05ac 17       		.byte	0x17
 5079 05ad B3050000 		.4byte	0x5b3
 5080 05b1 08       		.byte	0x8
 5081 05b2 00       		.byte	0
 5082 05b3 08       		.uleb128 0x8
 5083 05b4 04       		.byte	0x4
 5084 05b5 47050000 		.4byte	0x547
 5085 05b9 15       		.uleb128 0x15
 5086 05ba 64000000 		.4byte	.LASF128
 5087 05be 01       		.byte	0x1
 5088 05bf 2701     		.2byte	0x127
 5089 05c1 97000000 		.4byte	0x97
 5090 05c5 01       		.byte	0x1
 5091 05c6 E3050000 		.4byte	0x5e3
 5092 05ca 16       		.uleb128 0x16
 5093 05cb 8C060000 		.4byte	.LASF123
 5094 05cf 01       		.byte	0x1
 5095 05d0 2701     		.2byte	0x127
 5096 05d2 F4030000 		.4byte	0x3f4
 5097 05d6 16       		.uleb128 0x16
 5098 05d7 EE050000 		.4byte	.LASF124
 5099 05db 01       		.byte	0x1
 5100 05dc 2701     		.2byte	0x127
 5101 05de B8000000 		.4byte	0xb8
 5102 05e2 00       		.byte	0
 5103 05e3 17       		.uleb128 0x17
 5104 05e4 FA020000 		.4byte	.LASF213
 5105 05e8 01       		.byte	0x1
 5106 05e9 5802     		.2byte	0x258
 5107 05eb 01       		.byte	0x1
 5108 05ec 35060000 		.4byte	0x635
 5109 05f0 18       		.uleb128 0x18
 5110 05f1 73726300 		.ascii	"src\000"
 5111 05f5 01       		.byte	0x1
 5112 05f6 5802     		.2byte	0x258
 5113 05f8 EE000000 		.4byte	0xee
 5114 05fc 16       		.uleb128 0x16
 5115 05fd F7030000 		.4byte	.LASF125
 5116 0601 01       		.byte	0x1
 5117 0602 5802     		.2byte	0x258
 5118 0604 AD000000 		.4byte	0xad
 5119 0608 16       		.uleb128 0x16
 5120 0609 69020000 		.4byte	.LASF126
 5121 060d 01       		.byte	0x1
 5122 060e 5802     		.2byte	0x258
 5123 0610 AD000000 		.4byte	0xad
 5124 0614 19       		.uleb128 0x19
 5125 0615 26060000 		.4byte	0x626
 5126 0619 1A       		.uleb128 0x1a
 5127 061a E6060000 		.4byte	.LASF127
 5128 061e 01       		.byte	0x1
 5129 061f 5C02     		.2byte	0x25c
 5130 0621 B8000000 		.4byte	0xb8
 5131 0625 00       		.byte	0
 5132 0626 1B       		.uleb128 0x1b
ARM GAS  C:\Users\chemi\AppData\Local\Temp\cc0tO343.s 			page 123


 5133 0627 1A       		.uleb128 0x1a
 5134 0628 E6060000 		.4byte	.LASF127
 5135 062c 01       		.byte	0x1
 5136 062d 6702     		.2byte	0x267
 5137 062f B8000000 		.4byte	0xb8
 5138 0633 00       		.byte	0
 5139 0634 00       		.byte	0
 5140 0635 15       		.uleb128 0x15
 5141 0636 DA030000 		.4byte	.LASF129
 5142 063a 01       		.byte	0x1
 5143 063b 8202     		.2byte	0x282
 5144 063d 97000000 		.4byte	0x97
 5145 0641 01       		.byte	0x1
 5146 0642 9D060000 		.4byte	0x69d
 5147 0646 16       		.uleb128 0x16
 5148 0647 C1050000 		.4byte	.LASF130
 5149 064b 01       		.byte	0x1
 5150 064c 8202     		.2byte	0x282
 5151 064e EE000000 		.4byte	0xee
 5152 0652 16       		.uleb128 0x16
 5153 0653 6C030000 		.4byte	.LASF131
 5154 0657 01       		.byte	0x1
 5155 0658 8202     		.2byte	0x282
 5156 065a A2000000 		.4byte	0xa2
 5157 065e 16       		.uleb128 0x16
 5158 065f 8C060000 		.4byte	.LASF123
 5159 0663 01       		.byte	0x1
 5160 0664 8202     		.2byte	0x282
 5161 0666 F4030000 		.4byte	0x3f4
 5162 066a 1C       		.uleb128 0x1c
 5163 066b 636D6400 		.ascii	"cmd\000"
 5164 066f 01       		.byte	0x1
 5165 0670 8402     		.2byte	0x284
 5166 0672 F1040000 		.4byte	0x4f1
 5167 0676 1B       		.uleb128 0x1b
 5168 0677 1A       		.uleb128 0x1a
 5169 0678 EE060000 		.4byte	.LASF108
 5170 067c 01       		.byte	0x1
 5171 067d 8702     		.2byte	0x287
 5172 067f A2000000 		.4byte	0xa2
 5173 0683 1A       		.uleb128 0x1a
 5174 0684 C10B0000 		.4byte	.LASF107
 5175 0688 01       		.byte	0x1
 5176 0689 8D02     		.2byte	0x28d
 5177 068b FA030000 		.4byte	0x3fa
 5178 068f 1A       		.uleb128 0x1a
 5179 0690 EE050000 		.4byte	.LASF124
 5180 0694 01       		.byte	0x1
 5181 0695 9302     		.2byte	0x293
 5182 0697 97000000 		.4byte	0x97
 5183 069b 00       		.byte	0
 5184 069c 00       		.byte	0
 5185 069d 15       		.uleb128 0x15
 5186 069e AB0B0000 		.4byte	.LASF132
 5187 06a2 01       		.byte	0x1
 5188 06a3 5F03     		.2byte	0x35f
 5189 06a5 F4000000 		.4byte	0xf4
ARM GAS  C:\Users\chemi\AppData\Local\Temp\cc0tO343.s 			page 124


 5190 06a9 01       		.byte	0x1
 5191 06aa B9060000 		.4byte	0x6b9
 5192 06ae 18       		.uleb128 0x18
 5193 06af 6300     		.ascii	"c\000"
 5194 06b1 01       		.byte	0x1
 5195 06b2 5F03     		.2byte	0x35f
 5196 06b4 F4000000 		.4byte	0xf4
 5197 06b8 00       		.byte	0
 5198 06b9 15       		.uleb128 0x15
 5199 06ba 99030000 		.4byte	.LASF133
 5200 06be 01       		.byte	0x1
 5201 06bf 3801     		.2byte	0x138
 5202 06c1 97000000 		.4byte	0x97
 5203 06c5 01       		.byte	0x1
 5204 06c6 25070000 		.4byte	0x725
 5205 06ca 18       		.uleb128 0x18
 5206 06cb 6300     		.ascii	"c\000"
 5207 06cd 01       		.byte	0x1
 5208 06ce 3801     		.2byte	0x138
 5209 06d0 A2000000 		.4byte	0xa2
 5210 06d4 16       		.uleb128 0x16
 5211 06d5 8C060000 		.4byte	.LASF123
 5212 06d9 01       		.byte	0x1
 5213 06da 3801     		.2byte	0x138
 5214 06dc F4030000 		.4byte	0x3f4
 5215 06e0 19       		.uleb128 0x19
 5216 06e1 F2060000 		.4byte	0x6f2
 5217 06e5 1A       		.uleb128 0x1a
 5218 06e6 F6050000 		.4byte	.LASF134
 5219 06ea 01       		.byte	0x1
 5220 06eb 3C01     		.2byte	0x13c
 5221 06ed 97000000 		.4byte	0x97
 5222 06f1 00       		.byte	0
 5223 06f2 19       		.uleb128 0x19
 5224 06f3 04070000 		.4byte	0x704
 5225 06f7 1A       		.uleb128 0x1a
 5226 06f8 EE050000 		.4byte	.LASF124
 5227 06fc 01       		.byte	0x1
 5228 06fd 5601     		.2byte	0x156
 5229 06ff 97000000 		.4byte	0x97
 5230 0703 00       		.byte	0
 5231 0704 19       		.uleb128 0x19
 5232 0705 16070000 		.4byte	0x716
 5233 0709 1A       		.uleb128 0x1a
 5234 070a 39080000 		.4byte	.LASF135
 5235 070e 01       		.byte	0x1
 5236 070f E901     		.2byte	0x1e9
 5237 0711 90000000 		.4byte	0x90
 5238 0715 00       		.byte	0
 5239 0716 1B       		.uleb128 0x1b
 5240 0717 1A       		.uleb128 0x1a
 5241 0718 39080000 		.4byte	.LASF135
 5242 071c 01       		.byte	0x1
 5243 071d 0302     		.2byte	0x203
 5244 071f 90000000 		.4byte	0x90
 5245 0723 00       		.byte	0
 5246 0724 00       		.byte	0
ARM GAS  C:\Users\chemi\AppData\Local\Temp\cc0tO343.s 			page 125


 5247 0725 15       		.uleb128 0x15
 5248 0726 36000000 		.4byte	.LASF136
 5249 072a 01       		.byte	0x1
 5250 072b ED03     		.2byte	0x3ed
 5251 072d FB000000 		.4byte	0xfb
 5252 0731 01       		.byte	0x1
 5253 0732 4F070000 		.4byte	0x74f
 5254 0736 18       		.uleb128 0x18
 5255 0737 636D6400 		.ascii	"cmd\000"
 5256 073b 01       		.byte	0x1
 5257 073c ED03     		.2byte	0x3ed
 5258 073e A2000000 		.4byte	0xa2
 5259 0742 18       		.uleb128 0x18
 5260 0743 76617200 		.ascii	"var\000"
 5261 0747 01       		.byte	0x1
 5262 0748 ED03     		.2byte	0x3ed
 5263 074a 97000000 		.4byte	0x97
 5264 074e 00       		.byte	0
 5265 074f 1D       		.uleb128 0x1d
 5266 0750 B9050000 		.4byte	0x5b9
 5267 0754 00000000 		.4byte	.LFB77
 5268 0758 60000000 		.4byte	.LFE77-.LFB77
 5269 075c 01       		.uleb128 0x1
 5270 075d 9C       		.byte	0x9c
 5271 075e B0070000 		.4byte	0x7b0
 5272 0762 1E       		.uleb128 0x1e
 5273 0763 CA050000 		.4byte	0x5ca
 5274 0767 00000000 		.4byte	.LLST0
 5275 076b 1E       		.uleb128 0x1e
 5276 076c D6050000 		.4byte	0x5d6
 5277 0770 3A000000 		.4byte	.LLST1
 5278 0774 1F       		.uleb128 0x1f
 5279 0775 34000000 		.4byte	.LBB28
 5280 0779 16000000 		.4byte	.LBE28-.LBB28
 5281 077d 94070000 		.4byte	0x794
 5282 0781 1E       		.uleb128 0x1e
 5283 0782 D6050000 		.4byte	0x5d6
 5284 0786 8D000000 		.4byte	.LLST2
 5285 078a 1E       		.uleb128 0x1e
 5286 078b CA050000 		.4byte	0x5ca
 5287 078f A1000000 		.4byte	.LLST3
 5288 0793 00       		.byte	0
 5289 0794 20       		.uleb128 0x20
 5290 0795 1E000000 		.4byte	.LVL3
 5291 0799 02       		.uleb128 0x2
 5292 079a 74       		.byte	0x74
 5293 079b 00       		.sleb128 0
 5294 079c 21       		.uleb128 0x21
 5295 079d 01       		.uleb128 0x1
 5296 079e 51       		.byte	0x51
 5297 079f 05       		.uleb128 0x5
 5298 07a0 03       		.byte	0x3
 5299 07a1 04000000 		.4byte	.LC1
 5300 07a5 21       		.uleb128 0x21
 5301 07a6 01       		.uleb128 0x1
 5302 07a7 53       		.byte	0x53
 5303 07a8 05       		.uleb128 0x5
ARM GAS  C:\Users\chemi\AppData\Local\Temp\cc0tO343.s 			page 126


 5304 07a9 03       		.byte	0x3
 5305 07aa 00000000 		.4byte	.LC0
 5306 07ae 00       		.byte	0
 5307 07af 00       		.byte	0
 5308 07b0 22       		.uleb128 0x22
 5309 07b1 77030000 		.4byte	.LASF140
 5310 07b5 01       		.byte	0x1
 5311 07b6 6A       		.byte	0x6a
 5312 07b7 00000000 		.4byte	.LFB70
 5313 07bb 48000000 		.4byte	.LFE70-.LFB70
 5314 07bf 01       		.uleb128 0x1
 5315 07c0 9C       		.byte	0x9c
 5316 07c1 2E080000 		.4byte	0x82e
 5317 07c5 23       		.uleb128 0x23
 5318 07c6 8C060000 		.4byte	.LASF123
 5319 07ca 01       		.byte	0x1
 5320 07cb 6A       		.byte	0x6a
 5321 07cc F4030000 		.4byte	0x3f4
 5322 07d0 B4000000 		.4byte	.LLST4
 5323 07d4 24       		.uleb128 0x24
 5324 07d5 0E0B0000 		.4byte	.LASF143
 5325 07d9 01       		.byte	0x1
 5326 07da 73       		.byte	0x73
 5327 07db 97000000 		.4byte	0x97
 5328 07df EB000000 		.4byte	.LLST5
 5329 07e3 25       		.uleb128 0x25
 5330 07e4 0E000000 		.4byte	.LVL12
 5331 07e8 F8070000 		.4byte	0x7f8
 5332 07ec 21       		.uleb128 0x21
 5333 07ed 01       		.uleb128 0x1
 5334 07ee 50       		.byte	0x50
 5335 07ef 02       		.uleb128 0x2
 5336 07f0 74       		.byte	0x74
 5337 07f1 00       		.sleb128 0
 5338 07f2 21       		.uleb128 0x21
 5339 07f3 01       		.uleb128 0x1
 5340 07f4 51       		.byte	0x51
 5341 07f5 01       		.uleb128 0x1
 5342 07f6 33       		.byte	0x33
 5343 07f7 00       		.byte	0
 5344 07f8 26       		.uleb128 0x26
 5345 07f9 16000000 		.4byte	.LVL13
 5346 07fd 7C1E0000 		.4byte	0x1e7c
 5347 0801 26       		.uleb128 0x26
 5348 0802 1E000000 		.4byte	.LVL14
 5349 0806 7C1E0000 		.4byte	0x1e7c
 5350 080a 26       		.uleb128 0x26
 5351 080b 2E000000 		.4byte	.LVL16
 5352 080f 7C1E0000 		.4byte	0x1e7c
 5353 0813 26       		.uleb128 0x26
 5354 0814 3A000000 		.4byte	.LVL17
 5355 0818 7C1E0000 		.4byte	0x1e7c
 5356 081c 27       		.uleb128 0x27
 5357 081d 48000000 		.4byte	.LVL19
 5358 0821 7C1E0000 		.4byte	0x1e7c
 5359 0825 21       		.uleb128 0x21
 5360 0826 01       		.uleb128 0x1
ARM GAS  C:\Users\chemi\AppData\Local\Temp\cc0tO343.s 			page 127


 5361 0827 50       		.byte	0x50
 5362 0828 03       		.uleb128 0x3
 5363 0829 F3       		.byte	0xf3
 5364 082a 01       		.uleb128 0x1
 5365 082b 50       		.byte	0x50
 5366 082c 00       		.byte	0
 5367 082d 00       		.byte	0
 5368 082e 28       		.uleb128 0x28
 5369 082f FD0B0000 		.4byte	.LASF137
 5370 0833 01       		.byte	0x1
 5371 0834 0701     		.2byte	0x107
 5372 0836 90000000 		.4byte	0x90
 5373 083a 00000000 		.4byte	.LFB73
 5374 083e 1E000000 		.4byte	.LFE73-.LFB73
 5375 0842 01       		.uleb128 0x1
 5376 0843 9C       		.byte	0x9c
 5377 0844 57080000 		.4byte	0x857
 5378 0848 29       		.uleb128 0x29
 5379 0849 6300     		.ascii	"c\000"
 5380 084b 01       		.byte	0x1
 5381 084c 0701     		.2byte	0x107
 5382 084e F4000000 		.4byte	0xf4
 5383 0852 FF000000 		.4byte	.LLST6
 5384 0856 00       		.byte	0
 5385 0857 28       		.uleb128 0x28
 5386 0858 BE000000 		.4byte	.LASF138
 5387 085c 01       		.byte	0x1
 5388 085d 1901     		.2byte	0x119
 5389 085f 1F010000 		.4byte	0x11f
 5390 0863 00000000 		.4byte	.LFB75
 5391 0867 18000000 		.4byte	.LFE75-.LFB75
 5392 086b 01       		.uleb128 0x1
 5393 086c 9C       		.byte	0x9c
 5394 086d 82080000 		.4byte	0x882
 5395 0871 29       		.uleb128 0x29
 5396 0872 70747200 		.ascii	"ptr\000"
 5397 0876 01       		.byte	0x1
 5398 0877 1901     		.2byte	0x119
 5399 0879 E5000000 		.4byte	0xe5
 5400 087d 39010000 		.4byte	.LLST7
 5401 0881 00       		.byte	0
 5402 0882 28       		.uleb128 0x28
 5403 0883 1D0A0000 		.4byte	.LASF139
 5404 0887 01       		.byte	0x1
 5405 0888 2001     		.2byte	0x120
 5406 088a 1F010000 		.4byte	0x11f
 5407 088e 00000000 		.4byte	.LFB76
 5408 0892 14000000 		.4byte	.LFE76-.LFB76
 5409 0896 01       		.uleb128 0x1
 5410 0897 9C       		.byte	0x9c
 5411 0898 AD080000 		.4byte	0x8ad
 5412 089c 29       		.uleb128 0x29
 5413 089d 70747200 		.ascii	"ptr\000"
 5414 08a1 01       		.byte	0x1
 5415 08a2 2001     		.2byte	0x120
 5416 08a4 E5000000 		.4byte	0xe5
 5417 08a8 5A010000 		.4byte	.LLST8
ARM GAS  C:\Users\chemi\AppData\Local\Temp\cc0tO343.s 			page 128


 5418 08ac 00       		.byte	0
 5419 08ad 2A       		.uleb128 0x2a
 5420 08ae C2070000 		.4byte	.LASF141
 5421 08b2 01       		.byte	0x1
 5422 08b3 3502     		.2byte	0x235
 5423 08b5 00000000 		.4byte	.LFB79
 5424 08b9 88000000 		.4byte	.LFE79-.LFB79
 5425 08bd 01       		.uleb128 0x1
 5426 08be 9C       		.byte	0x9c
 5427 08bf 84090000 		.4byte	0x984
 5428 08c3 2B       		.uleb128 0x2b
 5429 08c4 8C060000 		.4byte	.LASF123
 5430 08c8 01       		.byte	0x1
 5431 08c9 3502     		.2byte	0x235
 5432 08cb F4030000 		.4byte	0x3f4
 5433 08cf 88010000 		.4byte	.LLST9
 5434 08d3 2B       		.uleb128 0x2b
 5435 08d4 CE090000 		.4byte	.LASF142
 5436 08d8 01       		.byte	0x1
 5437 08d9 3502     		.2byte	0x235
 5438 08db 3C050000 		.4byte	0x53c
 5439 08df B4010000 		.4byte	.LLST10
 5440 08e3 1F       		.uleb128 0x1f
 5441 08e4 12000000 		.4byte	.LBB30
 5442 08e8 3E000000 		.4byte	.LBE30-.LBB30
 5443 08ec 68090000 		.4byte	0x968
 5444 08f0 2C       		.uleb128 0x2c
 5445 08f1 64737400 		.ascii	"dst\000"
 5446 08f5 01       		.byte	0x1
 5447 08f6 3902     		.2byte	0x239
 5448 08f8 EE000000 		.4byte	0xee
 5449 08fc D5010000 		.4byte	.LLST11
 5450 0900 2D       		.uleb128 0x2d
 5451 0901 2A000000 		.4byte	.LVL33
 5452 0905 871E0000 		.4byte	0x1e87
 5453 0909 1A090000 		.4byte	0x91a
 5454 090d 21       		.uleb128 0x21
 5455 090e 01       		.uleb128 0x1
 5456 090f 50       		.byte	0x50
 5457 0910 02       		.uleb128 0x2
 5458 0911 76       		.byte	0x76
 5459 0912 00       		.sleb128 0
 5460 0913 21       		.uleb128 0x21
 5461 0914 01       		.uleb128 0x1
 5462 0915 51       		.byte	0x51
 5463 0916 02       		.uleb128 0x2
 5464 0917 08       		.byte	0x8
 5465 0918 20       		.byte	0x20
 5466 0919 00       		.byte	0
 5467 091a 2D       		.uleb128 0x2d
 5468 091b 36000000 		.4byte	.LVL34
 5469 091f 921E0000 		.4byte	0x1e92
 5470 0923 3D090000 		.4byte	0x93d
 5471 0927 21       		.uleb128 0x21
 5472 0928 01       		.uleb128 0x1
 5473 0929 50       		.byte	0x50
 5474 092a 02       		.uleb128 0x2
ARM GAS  C:\Users\chemi\AppData\Local\Temp\cc0tO343.s 			page 129


 5475 092b 75       		.byte	0x75
 5476 092c 00       		.sleb128 0
 5477 092d 21       		.uleb128 0x21
 5478 092e 01       		.uleb128 0x1
 5479 092f 51       		.byte	0x51
 5480 0930 05       		.uleb128 0x5
 5481 0931 03       		.byte	0x3
 5482 0932 89000000 		.4byte	.LC4
 5483 0936 21       		.uleb128 0x21
 5484 0937 01       		.uleb128 0x1
 5485 0938 52       		.byte	0x52
 5486 0939 02       		.uleb128 0x2
 5487 093a 76       		.byte	0x76
 5488 093b 00       		.sleb128 0
 5489 093c 00       		.byte	0
 5490 093d 2D       		.uleb128 0x2d
 5491 093e 40000000 		.4byte	.LVL35
 5492 0942 9D1E0000 		.4byte	0x1e9d
 5493 0946 57090000 		.4byte	0x957
 5494 094a 21       		.uleb128 0x21
 5495 094b 01       		.uleb128 0x1
 5496 094c 50       		.byte	0x50
 5497 094d 02       		.uleb128 0x2
 5498 094e 75       		.byte	0x75
 5499 094f 00       		.sleb128 0
 5500 0950 21       		.uleb128 0x21
 5501 0951 01       		.uleb128 0x1
 5502 0952 51       		.byte	0x51
 5503 0953 02       		.uleb128 0x2
 5504 0954 76       		.byte	0x76
 5505 0955 00       		.sleb128 0
 5506 0956 00       		.byte	0
 5507 0957 2E       		.uleb128 0x2e
 5508 0958 48000000 		.4byte	.LVL37
 5509 095c A81E0000 		.4byte	0x1ea8
 5510 0960 21       		.uleb128 0x21
 5511 0961 01       		.uleb128 0x1
 5512 0962 50       		.byte	0x50
 5513 0963 02       		.uleb128 0x2
 5514 0964 75       		.byte	0x75
 5515 0965 00       		.sleb128 0
 5516 0966 00       		.byte	0
 5517 0967 00       		.byte	0
 5518 0968 26       		.uleb128 0x26
 5519 0969 56000000 		.4byte	.LVL38
 5520 096d 7C1E0000 		.4byte	0x1e7c
 5521 0971 26       		.uleb128 0x26
 5522 0972 72000000 		.4byte	.LVL39
 5523 0976 9D1E0000 		.4byte	0x1e9d
 5524 097a 26       		.uleb128 0x26
 5525 097b 78000000 		.4byte	.LVL40
 5526 097f A81E0000 		.4byte	0x1ea8
 5527 0983 00       		.byte	0
 5528 0984 28       		.uleb128 0x28
 5529 0985 1E000000 		.4byte	.LASF144
 5530 0989 01       		.byte	0x1
 5531 098a 5002     		.2byte	0x250
ARM GAS  C:\Users\chemi\AppData\Local\Temp\cc0tO343.s 			page 130


 5532 098c EE000000 		.4byte	0xee
 5533 0990 00000000 		.4byte	.LFB80
 5534 0994 20000000 		.4byte	.LFE80-.LFB80
 5535 0998 01       		.uleb128 0x1
 5536 0999 9C       		.byte	0x9c
 5537 099a DB090000 		.4byte	0x9db
 5538 099e 29       		.uleb128 0x29
 5539 099f 73747200 		.ascii	"str\000"
 5540 09a3 01       		.byte	0x1
 5541 09a4 5002     		.2byte	0x250
 5542 09a6 EE000000 		.4byte	0xee
 5543 09aa E8010000 		.4byte	.LLST12
 5544 09ae 2F       		.uleb128 0x2f
 5545 09af 6300     		.ascii	"c\000"
 5546 09b1 01       		.byte	0x1
 5547 09b2 5002     		.2byte	0x250
 5548 09b4 F4000000 		.4byte	0xf4
 5549 09b8 01       		.uleb128 0x1
 5550 09b9 51       		.byte	0x51
 5551 09ba 2B       		.uleb128 0x2b
 5552 09bb BC090000 		.4byte	.LASF145
 5553 09bf 01       		.byte	0x1
 5554 09c0 5002     		.2byte	0x250
 5555 09c2 B8000000 		.4byte	0xb8
 5556 09c6 09020000 		.4byte	.LLST13
 5557 09ca 30       		.uleb128 0x30
 5558 09cb E6060000 		.4byte	.LASF127
 5559 09cf 01       		.byte	0x1
 5560 09d0 5102     		.2byte	0x251
 5561 09d2 B8000000 		.4byte	0xb8
 5562 09d6 2A020000 		.4byte	.LLST14
 5563 09da 00       		.byte	0
 5564 09db 31       		.uleb128 0x31
 5565 09dc E3050000 		.4byte	0x5e3
 5566 09e0 00000000 		.4byte	.LFB81
 5567 09e4 44000000 		.4byte	.LFE81-.LFB81
 5568 09e8 01       		.uleb128 0x1
 5569 09e9 9C       		.byte	0x9c
 5570 09ea 690A0000 		.4byte	0xa69
 5571 09ee 1E       		.uleb128 0x1e
 5572 09ef F0050000 		.4byte	0x5f0
 5573 09f3 83020000 		.4byte	.LLST15
 5574 09f7 1E       		.uleb128 0x1e
 5575 09f8 FC050000 		.4byte	0x5fc
 5576 09fc AC020000 		.4byte	.LLST16
 5577 0a00 1E       		.uleb128 0x1e
 5578 0a01 08060000 		.4byte	0x608
 5579 0a05 E0020000 		.4byte	.LLST17
 5580 0a09 1F       		.uleb128 0x1f
 5581 0a0a 0C000000 		.4byte	.LBB36
 5582 0a0e 26000000 		.4byte	.LBE36-.LBB36
 5583 0a12 300A0000 		.4byte	0xa30
 5584 0a16 32       		.uleb128 0x32
 5585 0a17 19060000 		.4byte	0x619
 5586 0a1b 33030000 		.4byte	.LLST18
 5587 0a1f 2E       		.uleb128 0x2e
 5588 0a20 10000000 		.4byte	.LVL49
ARM GAS  C:\Users\chemi\AppData\Local\Temp\cc0tO343.s 			page 131


 5589 0a24 A81E0000 		.4byte	0x1ea8
 5590 0a28 21       		.uleb128 0x21
 5591 0a29 01       		.uleb128 0x1
 5592 0a2a 50       		.byte	0x50
 5593 0a2b 02       		.uleb128 0x2
 5594 0a2c 74       		.byte	0x74
 5595 0a2d 00       		.sleb128 0
 5596 0a2e 00       		.byte	0
 5597 0a2f 00       		.byte	0
 5598 0a30 33       		.uleb128 0x33
 5599 0a31 32000000 		.4byte	.LBB37
 5600 0a35 12000000 		.4byte	.LBE37-.LBB37
 5601 0a39 1E       		.uleb128 0x1e
 5602 0a3a 08060000 		.4byte	0x608
 5603 0a3e 5C030000 		.4byte	.LLST19
 5604 0a42 1E       		.uleb128 0x1e
 5605 0a43 FC050000 		.4byte	0x5fc
 5606 0a47 7D030000 		.4byte	.LLST20
 5607 0a4b 1E       		.uleb128 0x1e
 5608 0a4c F0050000 		.4byte	0x5f0
 5609 0a50 9B030000 		.4byte	.LLST21
 5610 0a54 33       		.uleb128 0x33
 5611 0a55 32000000 		.4byte	.LBB38
 5612 0a59 12000000 		.4byte	.LBE38-.LBB38
 5613 0a5d 32       		.uleb128 0x32
 5614 0a5e 27060000 		.4byte	0x627
 5615 0a62 AE030000 		.4byte	.LLST22
 5616 0a66 00       		.byte	0
 5617 0a67 00       		.byte	0
 5618 0a68 00       		.byte	0
 5619 0a69 28       		.uleb128 0x28
 5620 0a6a 42010000 		.4byte	.LASF146
 5621 0a6e 01       		.byte	0x1
 5622 0a6f 7002     		.2byte	0x270
 5623 0a71 F1040000 		.4byte	0x4f1
 5624 0a75 00000000 		.4byte	.LFB82
 5625 0a79 52000000 		.4byte	.LFE82-.LFB82
 5626 0a7d 01       		.uleb128 0x1
 5627 0a7e 9C       		.byte	0x9c
 5628 0a7f 000B0000 		.4byte	0xb00
 5629 0a83 2B       		.uleb128 0x2b
 5630 0a84 8C060000 		.4byte	.LASF123
 5631 0a88 01       		.byte	0x1
 5632 0a89 7002     		.2byte	0x270
 5633 0a8b F4030000 		.4byte	0x3f4
 5634 0a8f E2030000 		.4byte	.LLST23
 5635 0a93 30       		.uleb128 0x30
 5636 0a94 E6060000 		.4byte	.LASF127
 5637 0a98 01       		.byte	0x1
 5638 0a99 7102     		.2byte	0x271
 5639 0a9b 97000000 		.4byte	0x97
 5640 0a9f 0E040000 		.4byte	.LLST24
 5641 0aa3 34       		.uleb128 0x34
 5642 0aa4 B70B0000 		.4byte	.LASF147
 5643 0aa8 01       		.byte	0x1
 5644 0aa9 7202     		.2byte	0x272
 5645 0aab A2000000 		.4byte	0xa2
ARM GAS  C:\Users\chemi\AppData\Local\Temp\cc0tO343.s 			page 132


 5646 0aaf 01       		.uleb128 0x1
 5647 0ab0 55       		.byte	0x55
 5648 0ab1 30       		.uleb128 0x30
 5649 0ab2 1F060000 		.4byte	.LASF148
 5650 0ab6 01       		.byte	0x1
 5651 0ab7 7402     		.2byte	0x274
 5652 0ab9 EE000000 		.4byte	0xee
 5653 0abd 66040000 		.4byte	.LLST25
 5654 0ac1 34       		.uleb128 0x34
 5655 0ac2 92070000 		.4byte	.LASF149
 5656 0ac6 01       		.byte	0x1
 5657 0ac7 7902     		.2byte	0x279
 5658 0ac9 F1040000 		.4byte	0x4f1
 5659 0acd 01       		.uleb128 0x1
 5660 0ace 54       		.byte	0x54
 5661 0acf 2D       		.uleb128 0x2d
 5662 0ad0 12000000 		.4byte	.LVL66
 5663 0ad4 871E0000 		.4byte	0x1e87
 5664 0ad8 E90A0000 		.4byte	0xae9
 5665 0adc 21       		.uleb128 0x21
 5666 0add 01       		.uleb128 0x1
 5667 0ade 50       		.byte	0x50
 5668 0adf 02       		.uleb128 0x2
 5669 0ae0 77       		.byte	0x77
 5670 0ae1 00       		.sleb128 0
 5671 0ae2 21       		.uleb128 0x21
 5672 0ae3 01       		.uleb128 0x1
 5673 0ae4 51       		.byte	0x51
 5674 0ae5 02       		.uleb128 0x2
 5675 0ae6 08       		.byte	0x8
 5676 0ae7 20       		.byte	0x20
 5677 0ae8 00       		.byte	0
 5678 0ae9 2E       		.uleb128 0x2e
 5679 0aea 3E000000 		.4byte	.LVL73
 5680 0aee B31E0000 		.4byte	0x1eb3
 5681 0af2 21       		.uleb128 0x21
 5682 0af3 01       		.uleb128 0x1
 5683 0af4 50       		.byte	0x50
 5684 0af5 02       		.uleb128 0x2
 5685 0af6 77       		.byte	0x77
 5686 0af7 00       		.sleb128 0
 5687 0af8 21       		.uleb128 0x21
 5688 0af9 01       		.uleb128 0x1
 5689 0afa 52       		.byte	0x52
 5690 0afb 02       		.uleb128 0x2
 5691 0afc 75       		.byte	0x75
 5692 0afd 00       		.sleb128 0
 5693 0afe 00       		.byte	0
 5694 0aff 00       		.byte	0
 5695 0b00 28       		.uleb128 0x28
 5696 0b01 AD0A0000 		.4byte	.LASF150
 5697 0b05 01       		.byte	0x1
 5698 0b06 A002     		.2byte	0x2a0
 5699 0b08 A2000000 		.4byte	0xa2
 5700 0b0c 00000000 		.4byte	.LFB84
 5701 0b10 74000000 		.4byte	.LFE84-.LFB84
 5702 0b14 01       		.uleb128 0x1
ARM GAS  C:\Users\chemi\AppData\Local\Temp\cc0tO343.s 			page 133


 5703 0b15 9C       		.byte	0x9c
 5704 0b16 990B0000 		.4byte	0xb99
 5705 0b1a 2B       		.uleb128 0x2b
 5706 0b1b C1050000 		.4byte	.LASF130
 5707 0b1f 01       		.byte	0x1
 5708 0b20 A002     		.2byte	0x2a0
 5709 0b22 EE000000 		.4byte	0xee
 5710 0b26 79040000 		.4byte	.LLST26
 5711 0b2a 35       		.uleb128 0x35
 5712 0b2b 6C030000 		.4byte	.LASF131
 5713 0b2f 01       		.byte	0x1
 5714 0b30 A002     		.2byte	0x2a0
 5715 0b32 A2000000 		.4byte	0xa2
 5716 0b36 01       		.uleb128 0x1
 5717 0b37 51       		.byte	0x51
 5718 0b38 2B       		.uleb128 0x2b
 5719 0b39 13020000 		.4byte	.LASF151
 5720 0b3d 01       		.byte	0x1
 5721 0b3e A002     		.2byte	0x2a0
 5722 0b40 FA030000 		.4byte	0x3fa
 5723 0b44 B3040000 		.4byte	.LLST27
 5724 0b48 30       		.uleb128 0x30
 5725 0b49 BC030000 		.4byte	.LASF152
 5726 0b4d 01       		.byte	0x1
 5727 0b4e A102     		.2byte	0x2a1
 5728 0b50 97000000 		.4byte	0x97
 5729 0b54 D1040000 		.4byte	.LLST28
 5730 0b58 30       		.uleb128 0x30
 5731 0b59 E6060000 		.4byte	.LASF127
 5732 0b5d 01       		.byte	0x1
 5733 0b5e A202     		.2byte	0x2a2
 5734 0b60 97000000 		.4byte	0x97
 5735 0b64 1C050000 		.4byte	.LLST29
 5736 0b68 30       		.uleb128 0x30
 5737 0b69 F00A0000 		.4byte	.LASF153
 5738 0b6d 01       		.byte	0x1
 5739 0b6e A302     		.2byte	0x2a3
 5740 0b70 90000000 		.4byte	0x90
 5741 0b74 53050000 		.4byte	.LLST30
 5742 0b78 30       		.uleb128 0x30
 5743 0b79 580B0000 		.4byte	.LASF154
 5744 0b7d 01       		.byte	0x1
 5745 0b7e A402     		.2byte	0x2a4
 5746 0b80 EE000000 		.4byte	0xee
 5747 0b84 A0050000 		.4byte	.LLST31
 5748 0b88 30       		.uleb128 0x30
 5749 0b89 82060000 		.4byte	.LASF155
 5750 0b8d 01       		.byte	0x1
 5751 0b8e A502     		.2byte	0x2a5
 5752 0b90 EE000000 		.4byte	0xee
 5753 0b94 BF050000 		.4byte	.LLST32
 5754 0b98 00       		.byte	0
 5755 0b99 28       		.uleb128 0x28
 5756 0b9a 1B080000 		.4byte	.LASF156
 5757 0b9e 01       		.byte	0x1
 5758 0b9f CB02     		.2byte	0x2cb
 5759 0ba1 A2000000 		.4byte	0xa2
ARM GAS  C:\Users\chemi\AppData\Local\Temp\cc0tO343.s 			page 134


 5760 0ba5 00000000 		.4byte	.LFB85
 5761 0ba9 5C000000 		.4byte	.LFE85-.LFB85
 5762 0bad 01       		.uleb128 0x1
 5763 0bae 9C       		.byte	0x9c
 5764 0baf 220C0000 		.4byte	0xc22
 5765 0bb3 2B       		.uleb128 0x2b
 5766 0bb4 C1050000 		.4byte	.LASF130
 5767 0bb8 01       		.byte	0x1
 5768 0bb9 CB02     		.2byte	0x2cb
 5769 0bbb FB000000 		.4byte	0xfb
 5770 0bbf 00060000 		.4byte	.LLST33
 5771 0bc3 35       		.uleb128 0x35
 5772 0bc4 6C030000 		.4byte	.LASF131
 5773 0bc8 01       		.byte	0x1
 5774 0bc9 CB02     		.2byte	0x2cb
 5775 0bcb A2000000 		.4byte	0xa2
 5776 0bcf 01       		.uleb128 0x1
 5777 0bd0 51       		.byte	0x51
 5778 0bd1 30       		.uleb128 0x30
 5779 0bd2 BC030000 		.4byte	.LASF152
 5780 0bd6 01       		.byte	0x1
 5781 0bd7 CC02     		.2byte	0x2cc
 5782 0bd9 97000000 		.4byte	0x97
 5783 0bdd 3A060000 		.4byte	.LLST34
 5784 0be1 30       		.uleb128 0x30
 5785 0be2 E6060000 		.4byte	.LASF127
 5786 0be6 01       		.byte	0x1
 5787 0be7 CD02     		.2byte	0x2cd
 5788 0be9 97000000 		.4byte	0x97
 5789 0bed 6F060000 		.4byte	.LLST35
 5790 0bf1 30       		.uleb128 0x30
 5791 0bf2 F00A0000 		.4byte	.LASF153
 5792 0bf6 01       		.byte	0x1
 5793 0bf7 CE02     		.2byte	0x2ce
 5794 0bf9 90000000 		.4byte	0x90
 5795 0bfd A6060000 		.4byte	.LLST36
 5796 0c01 30       		.uleb128 0x30
 5797 0c02 580B0000 		.4byte	.LASF154
 5798 0c06 01       		.byte	0x1
 5799 0c07 CF02     		.2byte	0x2cf
 5800 0c09 FB000000 		.4byte	0xfb
 5801 0c0d F3060000 		.4byte	.LLST37
 5802 0c11 30       		.uleb128 0x30
 5803 0c12 82060000 		.4byte	.LASF155
 5804 0c16 01       		.byte	0x1
 5805 0c17 D002     		.2byte	0x2d0
 5806 0c19 FB000000 		.4byte	0xfb
 5807 0c1d 12070000 		.4byte	.LLST38
 5808 0c21 00       		.byte	0
 5809 0c22 31       		.uleb128 0x31
 5810 0c23 35060000 		.4byte	0x635
 5811 0c27 00000000 		.4byte	.LFB83
 5812 0c2b 80000000 		.4byte	.LFE83-.LFB83
 5813 0c2f 01       		.uleb128 0x1
 5814 0c30 9C       		.byte	0x9c
 5815 0c31 6B0D0000 		.4byte	0xd6b
 5816 0c35 1E       		.uleb128 0x1e
ARM GAS  C:\Users\chemi\AppData\Local\Temp\cc0tO343.s 			page 135


 5817 0c36 46060000 		.4byte	0x646
 5818 0c3a 53070000 		.4byte	.LLST39
 5819 0c3e 1E       		.uleb128 0x1e
 5820 0c3f 52060000 		.4byte	0x652
 5821 0c43 7F070000 		.4byte	.LLST40
 5822 0c47 1E       		.uleb128 0x1e
 5823 0c48 5E060000 		.4byte	0x65e
 5824 0c4c A0070000 		.4byte	.LLST41
 5825 0c50 32       		.uleb128 0x32
 5826 0c51 6A060000 		.4byte	0x66a
 5827 0c55 FE070000 		.4byte	.LLST42
 5828 0c59 36       		.uleb128 0x36
 5829 0c5a 00000000 		.4byte	.Ldebug_ranges0+0
 5830 0c5e FA0C0000 		.4byte	0xcfa
 5831 0c62 32       		.uleb128 0x32
 5832 0c63 77060000 		.4byte	0x677
 5833 0c67 32080000 		.4byte	.LLST43
 5834 0c6b 32       		.uleb128 0x32
 5835 0c6c 83060000 		.4byte	0x683
 5836 0c70 5B080000 		.4byte	.LLST44
 5837 0c74 32       		.uleb128 0x32
 5838 0c75 8F060000 		.4byte	0x68f
 5839 0c79 B2080000 		.4byte	.LLST45
 5840 0c7d 2D       		.uleb128 0x2d
 5841 0c7e 1C000000 		.4byte	.LVL121
 5842 0c82 990B0000 		.4byte	0xb99
 5843 0c86 970C0000 		.4byte	0xc97
 5844 0c8a 21       		.uleb128 0x21
 5845 0c8b 01       		.uleb128 0x1
 5846 0c8c 50       		.byte	0x50
 5847 0c8d 02       		.uleb128 0x2
 5848 0c8e 78       		.byte	0x78
 5849 0c8f 00       		.sleb128 0
 5850 0c90 21       		.uleb128 0x21
 5851 0c91 01       		.uleb128 0x1
 5852 0c92 51       		.byte	0x51
 5853 0c93 02       		.uleb128 0x2
 5854 0c94 79       		.byte	0x79
 5855 0c95 00       		.sleb128 0
 5856 0c96 00       		.byte	0
 5857 0c97 2D       		.uleb128 0x2d
 5858 0c98 42000000 		.4byte	.LVL128
 5859 0c9c BE1E0000 		.4byte	0x1ebe
 5860 0ca0 AD0C0000 		.4byte	0xcad
 5861 0ca4 21       		.uleb128 0x21
 5862 0ca5 01       		.uleb128 0x1
 5863 0ca6 50       		.byte	0x50
 5864 0ca7 04       		.uleb128 0x4
 5865 0ca8 75       		.byte	0x75
 5866 0ca9 00       		.sleb128 0
 5867 0caa 32       		.byte	0x32
 5868 0cab 24       		.byte	0x24
 5869 0cac 00       		.byte	0
 5870 0cad 2D       		.uleb128 0x2d
 5871 0cae 4E000000 		.4byte	.LVL131
 5872 0cb2 000B0000 		.4byte	0xb00
 5873 0cb6 CD0C0000 		.4byte	0xccd
ARM GAS  C:\Users\chemi\AppData\Local\Temp\cc0tO343.s 			page 136


 5874 0cba 21       		.uleb128 0x21
 5875 0cbb 01       		.uleb128 0x1
 5876 0cbc 50       		.byte	0x50
 5877 0cbd 02       		.uleb128 0x2
 5878 0cbe 78       		.byte	0x78
 5879 0cbf 00       		.sleb128 0
 5880 0cc0 21       		.uleb128 0x21
 5881 0cc1 01       		.uleb128 0x1
 5882 0cc2 51       		.byte	0x51
 5883 0cc3 02       		.uleb128 0x2
 5884 0cc4 79       		.byte	0x79
 5885 0cc5 00       		.sleb128 0
 5886 0cc6 21       		.uleb128 0x21
 5887 0cc7 01       		.uleb128 0x1
 5888 0cc8 52       		.byte	0x52
 5889 0cc9 02       		.uleb128 0x2
 5890 0cca 76       		.byte	0x76
 5891 0ccb 00       		.sleb128 0
 5892 0ccc 00       		.byte	0
 5893 0ccd 25       		.uleb128 0x25
 5894 0cce 5E000000 		.4byte	.LVL134
 5895 0cd2 E90C0000 		.4byte	0xce9
 5896 0cd6 21       		.uleb128 0x21
 5897 0cd7 01       		.uleb128 0x1
 5898 0cd8 50       		.byte	0x50
 5899 0cd9 02       		.uleb128 0x2
 5900 0cda 74       		.byte	0x74
 5901 0cdb 00       		.sleb128 0
 5902 0cdc 21       		.uleb128 0x21
 5903 0cdd 01       		.uleb128 0x1
 5904 0cde 51       		.byte	0x51
 5905 0cdf 02       		.uleb128 0x2
 5906 0ce0 75       		.byte	0x75
 5907 0ce1 00       		.sleb128 0
 5908 0ce2 21       		.uleb128 0x21
 5909 0ce3 01       		.uleb128 0x1
 5910 0ce4 52       		.byte	0x52
 5911 0ce5 02       		.uleb128 0x2
 5912 0ce6 76       		.byte	0x76
 5913 0ce7 00       		.sleb128 0
 5914 0ce8 00       		.byte	0
 5915 0ce9 2E       		.uleb128 0x2e
 5916 0cea 6C000000 		.4byte	.LVL138
 5917 0cee 7C1E0000 		.4byte	0x1e7c
 5918 0cf2 21       		.uleb128 0x21
 5919 0cf3 01       		.uleb128 0x1
 5920 0cf4 50       		.byte	0x50
 5921 0cf5 02       		.uleb128 0x2
 5922 0cf6 76       		.byte	0x76
 5923 0cf7 00       		.sleb128 0
 5924 0cf8 00       		.byte	0
 5925 0cf9 00       		.byte	0
 5926 0cfa 1F       		.uleb128 0x1f
 5927 0cfb 26000000 		.4byte	.LBB44
 5928 0cff 14000000 		.4byte	.LBE44-.LBB44
 5929 0d03 5A0D0000 		.4byte	0xd5a
 5930 0d07 1E       		.uleb128 0x1e
ARM GAS  C:\Users\chemi\AppData\Local\Temp\cc0tO343.s 			page 137


 5931 0d08 46060000 		.4byte	0x646
 5932 0d0c F3080000 		.4byte	.LLST46
 5933 0d10 1E       		.uleb128 0x1e
 5934 0d11 52060000 		.4byte	0x652
 5935 0d15 06090000 		.4byte	.LLST47
 5936 0d19 1E       		.uleb128 0x1e
 5937 0d1a 5E060000 		.4byte	0x65e
 5938 0d1e 19090000 		.4byte	.LLST48
 5939 0d22 33       		.uleb128 0x33
 5940 0d23 26000000 		.4byte	.LBB45
 5941 0d27 14000000 		.4byte	.LBE45-.LBB45
 5942 0d2b 37       		.uleb128 0x37
 5943 0d2c 6A060000 		.4byte	0x66a
 5944 0d30 33       		.uleb128 0x33
 5945 0d31 26000000 		.4byte	.LBB46
 5946 0d35 14000000 		.4byte	.LBE46-.LBB46
 5947 0d39 37       		.uleb128 0x37
 5948 0d3a 77060000 		.4byte	0x677
 5949 0d3e 37       		.uleb128 0x37
 5950 0d3f 83060000 		.4byte	0x683
 5951 0d43 37       		.uleb128 0x37
 5952 0d44 8F060000 		.4byte	0x68f
 5953 0d48 38       		.uleb128 0x38
 5954 0d49 34000000 		.4byte	.LVL125
 5955 0d4d 21       		.uleb128 0x21
 5956 0d4e 01       		.uleb128 0x1
 5957 0d4f 51       		.byte	0x51
 5958 0d50 05       		.uleb128 0x5
 5959 0d51 03       		.byte	0x3
 5960 0d52 8E000000 		.4byte	.LC5
 5961 0d56 00       		.byte	0
 5962 0d57 00       		.byte	0
 5963 0d58 00       		.byte	0
 5964 0d59 00       		.byte	0
 5965 0d5a 2E       		.uleb128 0x2e
 5966 0d5b 10000000 		.4byte	.LVL119
 5967 0d5f 690A0000 		.4byte	0xa69
 5968 0d63 21       		.uleb128 0x21
 5969 0d64 01       		.uleb128 0x1
 5970 0d65 50       		.byte	0x50
 5971 0d66 02       		.uleb128 0x2
 5972 0d67 74       		.byte	0x74
 5973 0d68 00       		.sleb128 0
 5974 0d69 00       		.byte	0
 5975 0d6a 00       		.byte	0
 5976 0d6b 2A       		.uleb128 0x2a
 5977 0d6c 70020000 		.4byte	.LASF157
 5978 0d70 01       		.byte	0x1
 5979 0d71 F602     		.2byte	0x2f6
 5980 0d73 00000000 		.4byte	.LFB86
 5981 0d77 04000000 		.4byte	.LFE86-.LFB86
 5982 0d7b 01       		.uleb128 0x1
 5983 0d7c 9C       		.byte	0x9c
 5984 0d7d B20D0000 		.4byte	0xdb2
 5985 0d81 29       		.uleb128 0x29
 5986 0d82 636C00   		.ascii	"cl\000"
 5987 0d85 01       		.byte	0x1
ARM GAS  C:\Users\chemi\AppData\Local\Temp\cc0tO343.s 			page 138


 5988 0d86 F602     		.2byte	0x2f6
 5989 0d88 B20D0000 		.4byte	0xdb2
 5990 0d8c 2C090000 		.4byte	.LLST49
 5991 0d90 2B       		.uleb128 0x2b
 5992 0d91 BC090000 		.4byte	.LASF145
 5993 0d95 01       		.byte	0x1
 5994 0d96 F602     		.2byte	0x2f6
 5995 0d98 A2000000 		.4byte	0xa2
 5996 0d9c 4D090000 		.4byte	.LLST50
 5997 0da0 27       		.uleb128 0x27
 5998 0da1 04000000 		.4byte	.LVL145
 5999 0da5 7C1E0000 		.4byte	0x1e7c
 6000 0da9 21       		.uleb128 0x21
 6001 0daa 01       		.uleb128 0x1
 6002 0dab 50       		.byte	0x50
 6003 0dac 03       		.uleb128 0x3
 6004 0dad F3       		.byte	0xf3
 6005 0dae 01       		.uleb128 0x1
 6006 0daf 50       		.byte	0x50
 6007 0db0 00       		.byte	0
 6008 0db1 00       		.byte	0
 6009 0db2 08       		.uleb128 0x8
 6010 0db3 04       		.byte	0x4
 6011 0db4 F1040000 		.4byte	0x4f1
 6012 0db8 31       		.uleb128 0x31
 6013 0db9 9D060000 		.4byte	0x69d
 6014 0dbd 00000000 		.4byte	.LFB90
 6015 0dc1 26000000 		.4byte	.LFE90-.LFB90
 6016 0dc5 01       		.uleb128 0x1
 6017 0dc6 9C       		.byte	0x9c
 6018 0dc7 E80D0000 		.4byte	0xde8
 6019 0dcb 1E       		.uleb128 0x1e
 6020 0dcc AE060000 		.4byte	0x6ae
 6021 0dd0 6E090000 		.4byte	.LLST51
 6022 0dd4 33       		.uleb128 0x33
 6023 0dd5 0E000000 		.4byte	.LBB51
 6024 0dd9 16000000 		.4byte	.LBE51-.LBB51
 6025 0ddd 1E       		.uleb128 0x1e
 6026 0dde AE060000 		.4byte	0x6ae
 6027 0de2 DA090000 		.4byte	.LLST52
 6028 0de6 00       		.byte	0
 6029 0de7 00       		.byte	0
 6030 0de8 28       		.uleb128 0x28
 6031 0de9 84070000 		.4byte	.LASF158
 6032 0ded 01       		.byte	0x1
 6033 0dee 4403     		.2byte	0x344
 6034 0df0 90000000 		.4byte	0x90
 6035 0df4 00000000 		.4byte	.LFB89
 6036 0df8 42000000 		.4byte	.LFE89-.LFB89
 6037 0dfc 01       		.uleb128 0x1
 6038 0dfd 9C       		.byte	0x9c
 6039 0dfe 650E0000 		.4byte	0xe65
 6040 0e02 29       		.uleb128 0x29
 6041 0e03 6100     		.ascii	"a\000"
 6042 0e05 01       		.byte	0x1
 6043 0e06 4403     		.2byte	0x344
 6044 0e08 F1040000 		.4byte	0x4f1
ARM GAS  C:\Users\chemi\AppData\Local\Temp\cc0tO343.s 			page 139


 6045 0e0c 2D0A0000 		.4byte	.LLST53
 6046 0e10 29       		.uleb128 0x29
 6047 0e11 6200     		.ascii	"b\000"
 6048 0e13 01       		.byte	0x1
 6049 0e14 4403     		.2byte	0x344
 6050 0e16 F1040000 		.4byte	0x4f1
 6051 0e1a 4B0A0000 		.4byte	.LLST54
 6052 0e1e 30       		.uleb128 0x30
 6053 0e1f E6060000 		.4byte	.LASF127
 6054 0e23 01       		.byte	0x1
 6055 0e24 4503     		.2byte	0x345
 6056 0e26 97000000 		.4byte	0x97
 6057 0e2a 6C0A0000 		.4byte	.LLST55
 6058 0e2e 39       		.uleb128 0x39
 6059 0e2f 20000000 		.4byte	.Ldebug_ranges0+0x20
 6060 0e33 34       		.uleb128 0x34
 6061 0e34 F2020000 		.4byte	.LASF159
 6062 0e38 01       		.byte	0x1
 6063 0e39 4803     		.2byte	0x348
 6064 0e3b F4000000 		.4byte	0xf4
 6065 0e3f 01       		.uleb128 0x1
 6066 0e40 57       		.byte	0x57
 6067 0e41 30       		.uleb128 0x30
 6068 0e42 B9050000 		.4byte	.LASF160
 6069 0e46 01       		.byte	0x1
 6070 0e47 4903     		.2byte	0x349
 6071 0e49 F4000000 		.4byte	0xf4
 6072 0e4d 960A0000 		.4byte	.LLST56
 6073 0e51 26       		.uleb128 0x26
 6074 0e52 26000000 		.4byte	.LVL158
 6075 0e56 9D060000 		.4byte	0x69d
 6076 0e5a 26       		.uleb128 0x26
 6077 0e5b 30000000 		.4byte	.LVL160
 6078 0e5f 9D060000 		.4byte	0x69d
 6079 0e63 00       		.byte	0
 6080 0e64 00       		.byte	0
 6081 0e65 2A       		.uleb128 0x2a
 6082 0e66 F4040000 		.4byte	.LASF161
 6083 0e6a 01       		.byte	0x1
 6084 0e6b 0E03     		.2byte	0x30e
 6085 0e6d 00000000 		.4byte	.LFB88
 6086 0e71 4A000000 		.4byte	.LFE88-.LFB88
 6087 0e75 01       		.uleb128 0x1
 6088 0e76 9C       		.byte	0x9c
 6089 0e77 DF0E0000 		.4byte	0xedf
 6090 0e7b 2B       		.uleb128 0x2b
 6091 0e7c 60070000 		.4byte	.LASF162
 6092 0e80 01       		.byte	0x1
 6093 0e81 0E03     		.2byte	0x30e
 6094 0e83 F1040000 		.4byte	0x4f1
 6095 0e87 B40A0000 		.4byte	.LLST57
 6096 0e8b 2B       		.uleb128 0x2b
 6097 0e8c 7C090000 		.4byte	.LASF163
 6098 0e90 01       		.byte	0x1
 6099 0e91 0E03     		.2byte	0x30e
 6100 0e93 F1040000 		.4byte	0x4f1
 6101 0e97 D20A0000 		.4byte	.LLST58
ARM GAS  C:\Users\chemi\AppData\Local\Temp\cc0tO343.s 			page 140


 6102 0e9b 3A       		.uleb128 0x3a
 6103 0e9c E6060000 		.4byte	.LASF127
 6104 0ea0 01       		.byte	0x1
 6105 0ea1 0F03     		.2byte	0x30f
 6106 0ea3 B8000000 		.4byte	0xb8
 6107 0ea7 00       		.byte	0
 6108 0ea8 30       		.uleb128 0x30
 6109 0ea9 180C0000 		.4byte	.LASF164
 6110 0ead 01       		.byte	0x1
 6111 0eae 1003     		.2byte	0x310
 6112 0eb0 B20D0000 		.4byte	0xdb2
 6113 0eb4 F00A0000 		.4byte	.LLST59
 6114 0eb8 30       		.uleb128 0x30
 6115 0eb9 0F050000 		.4byte	.LASF165
 6116 0ebd 01       		.byte	0x1
 6117 0ebe 1103     		.2byte	0x311
 6118 0ec0 F1040000 		.4byte	0x4f1
 6119 0ec4 030B0000 		.4byte	.LLST60
 6120 0ec8 2E       		.uleb128 0x2e
 6121 0ec9 1A000000 		.4byte	.LVL166
 6122 0ecd E80D0000 		.4byte	0xde8
 6123 0ed1 21       		.uleb128 0x21
 6124 0ed2 01       		.uleb128 0x1
 6125 0ed3 50       		.byte	0x50
 6126 0ed4 02       		.uleb128 0x2
 6127 0ed5 77       		.byte	0x77
 6128 0ed6 00       		.sleb128 0
 6129 0ed7 21       		.uleb128 0x21
 6130 0ed8 01       		.uleb128 0x1
 6131 0ed9 51       		.byte	0x51
 6132 0eda 02       		.uleb128 0x2
 6133 0edb 75       		.byte	0x75
 6134 0edc 00       		.sleb128 0
 6135 0edd 00       		.byte	0
 6136 0ede 00       		.byte	0
 6137 0edf 28       		.uleb128 0x28
 6138 0ee0 1F090000 		.4byte	.LASF166
 6139 0ee4 01       		.byte	0x1
 6140 0ee5 FE02     		.2byte	0x2fe
 6141 0ee7 F1040000 		.4byte	0x4f1
 6142 0eeb 00000000 		.4byte	.LFB87
 6143 0eef 48000000 		.4byte	.LFE87-.LFB87
 6144 0ef3 01       		.uleb128 0x1
 6145 0ef4 9C       		.byte	0x9c
 6146 0ef5 980F0000 		.4byte	0xf98
 6147 0ef9 2B       		.uleb128 0x2b
 6148 0efa 24020000 		.4byte	.LASF90
 6149 0efe 01       		.byte	0x1
 6150 0eff FE02     		.2byte	0x2fe
 6151 0f01 CA030000 		.4byte	0x3ca
 6152 0f05 2C0B0000 		.4byte	.LLST61
 6153 0f09 2B       		.uleb128 0x2b
 6154 0f0a 32050000 		.4byte	.LASF91
 6155 0f0e 01       		.byte	0x1
 6156 0f0f FE02     		.2byte	0x2fe
 6157 0f11 FB000000 		.4byte	0xfb
 6158 0f15 600B0000 		.4byte	.LLST62
ARM GAS  C:\Users\chemi\AppData\Local\Temp\cc0tO343.s 			page 141


 6159 0f19 2B       		.uleb128 0x2b
 6160 0f1a 12000000 		.4byte	.LASF167
 6161 0f1e 01       		.byte	0x1
 6162 0f1f FE02     		.2byte	0x2fe
 6163 0f21 FB000000 		.4byte	0xfb
 6164 0f25 890B0000 		.4byte	.LLST63
 6165 0f29 2B       		.uleb128 0x2b
 6166 0f2a 3D0B0000 		.4byte	.LASF94
 6167 0f2e 01       		.byte	0x1
 6168 0f2f FE02     		.2byte	0x2fe
 6169 0f31 97000000 		.4byte	0x97
 6170 0f35 B20B0000 		.4byte	.LLST64
 6171 0f39 2B       		.uleb128 0x2b
 6172 0f3a 7C090000 		.4byte	.LASF163
 6173 0f3e 01       		.byte	0x1
 6174 0f3f FE02     		.2byte	0x2fe
 6175 0f41 F1040000 		.4byte	0x4f1
 6176 0f45 D30B0000 		.4byte	.LLST65
 6177 0f49 30       		.uleb128 0x30
 6178 0f4a 2A080000 		.4byte	.LASF168
 6179 0f4e 01       		.byte	0x1
 6180 0f4f 0103     		.2byte	0x301
 6181 0f51 F1040000 		.4byte	0x4f1
 6182 0f55 F30B0000 		.4byte	.LLST66
 6183 0f59 2D       		.uleb128 0x2d
 6184 0f5a 1A000000 		.4byte	.LVL173
 6185 0f5e BE1E0000 		.4byte	0x1ebe
 6186 0f62 6D0F0000 		.4byte	0xf6d
 6187 0f66 21       		.uleb128 0x21
 6188 0f67 01       		.uleb128 0x1
 6189 0f68 50       		.byte	0x50
 6190 0f69 02       		.uleb128 0x2
 6191 0f6a 08       		.byte	0x8
 6192 0f6b 20       		.byte	0x20
 6193 0f6c 00       		.byte	0
 6194 0f6d 2D       		.uleb128 0x2d
 6195 0f6e 28000000 		.4byte	.LVL176
 6196 0f72 A81E0000 		.4byte	0x1ea8
 6197 0f76 810F0000 		.4byte	0xf81
 6198 0f7a 21       		.uleb128 0x21
 6199 0f7b 01       		.uleb128 0x1
 6200 0f7c 50       		.byte	0x50
 6201 0f7d 02       		.uleb128 0x2
 6202 0f7e 76       		.byte	0x76
 6203 0f7f 00       		.sleb128 0
 6204 0f80 00       		.byte	0
 6205 0f81 2E       		.uleb128 0x2e
 6206 0f82 3C000000 		.4byte	.LVL177
 6207 0f86 650E0000 		.4byte	0xe65
 6208 0f8a 21       		.uleb128 0x21
 6209 0f8b 01       		.uleb128 0x1
 6210 0f8c 50       		.byte	0x50
 6211 0f8d 02       		.uleb128 0x2
 6212 0f8e 74       		.byte	0x74
 6213 0f8f 00       		.sleb128 0
 6214 0f90 21       		.uleb128 0x21
 6215 0f91 01       		.uleb128 0x1
ARM GAS  C:\Users\chemi\AppData\Local\Temp\cc0tO343.s 			page 142


 6216 0f92 51       		.byte	0x51
 6217 0f93 02       		.uleb128 0x2
 6218 0f94 75       		.byte	0x75
 6219 0f95 00       		.sleb128 0
 6220 0f96 00       		.byte	0
 6221 0f97 00       		.byte	0
 6222 0f98 2A       		.uleb128 0x2a
 6223 0f99 B0070000 		.4byte	.LASF169
 6224 0f9d 01       		.byte	0x1
 6225 0f9e 8803     		.2byte	0x388
 6226 0fa0 00000000 		.4byte	.LFB92
 6227 0fa4 18000000 		.4byte	.LFE92-.LFB92
 6228 0fa8 01       		.uleb128 0x1
 6229 0fa9 9C       		.byte	0x9c
 6230 0faa EE0F0000 		.4byte	0xfee
 6231 0fae 2B       		.uleb128 0x2b
 6232 0faf 8C060000 		.4byte	.LASF123
 6233 0fb3 01       		.byte	0x1
 6234 0fb4 8803     		.2byte	0x388
 6235 0fb6 F4030000 		.4byte	0x3f4
 6236 0fba 110C0000 		.4byte	.LLST67
 6237 0fbe 29       		.uleb128 0x29
 6238 0fbf 726F7700 		.ascii	"row\000"
 6239 0fc3 01       		.byte	0x1
 6240 0fc4 8803     		.2byte	0x388
 6241 0fc6 A2000000 		.4byte	0xa2
 6242 0fca 320C0000 		.4byte	.LLST68
 6243 0fce 2B       		.uleb128 0x2b
 6244 0fcf A10A0000 		.4byte	.LASF170
 6245 0fd3 01       		.byte	0x1
 6246 0fd4 8803     		.2byte	0x388
 6247 0fd6 A2000000 		.4byte	0xa2
 6248 0fda 530C0000 		.4byte	.LLST69
 6249 0fde 3B       		.uleb128 0x3b
 6250 0fdf 12000000 		.4byte	.LVL184
 6251 0fe3 21       		.uleb128 0x21
 6252 0fe4 01       		.uleb128 0x1
 6253 0fe5 51       		.byte	0x51
 6254 0fe6 05       		.uleb128 0x5
 6255 0fe7 03       		.byte	0x3
 6256 0fe8 BC000000 		.4byte	.LC6
 6257 0fec 00       		.byte	0
 6258 0fed 00       		.byte	0
 6259 0fee 3C       		.uleb128 0x3c
 6260 0fef 30070000 		.4byte	.LASF214
 6261 0ff3 01       		.byte	0x1
 6262 0ff4 8C03     		.2byte	0x38c
 6263 0ff6 00000000 		.4byte	.LFB93
 6264 0ffa 9C020000 		.4byte	.LFE93-.LFB93
 6265 0ffe 01       		.uleb128 0x1
 6266 0fff 9C       		.byte	0x9c
 6267 1000 35100000 		.4byte	0x1035
 6268 1004 2B       		.uleb128 0x2b
 6269 1005 8C060000 		.4byte	.LASF123
 6270 1009 01       		.byte	0x1
 6271 100a 8C03     		.2byte	0x38c
 6272 100c F4030000 		.4byte	0x3f4
ARM GAS  C:\Users\chemi\AppData\Local\Temp\cc0tO343.s 			page 143


 6273 1010 740C0000 		.4byte	.LLST70
 6274 1014 29       		.uleb128 0x29
 6275 1015 636D6400 		.ascii	"cmd\000"
 6276 1019 01       		.byte	0x1
 6277 101a 8C03     		.2byte	0x38c
 6278 101c A2000000 		.4byte	0xa2
 6279 1020 B90C0000 		.4byte	.LLST71
 6280 1024 29       		.uleb128 0x29
 6281 1025 76617200 		.ascii	"var\000"
 6282 1029 01       		.byte	0x1
 6283 102a 8C03     		.2byte	0x38c
 6284 102c 97000000 		.4byte	0x97
 6285 1030 A10F0000 		.4byte	.LLST72
 6286 1034 00       		.byte	0
 6287 1035 22       		.uleb128 0x22
 6288 1036 B9010000 		.4byte	.LASF171
 6289 103a 01       		.byte	0x1
 6290 103b 80       		.byte	0x80
 6291 103c 00000000 		.4byte	.LFB71
 6292 1040 98000000 		.4byte	.LFE71-.LFB71
 6293 1044 01       		.uleb128 0x1
 6294 1045 9C       		.byte	0x9c
 6295 1046 3C110000 		.4byte	0x113c
 6296 104a 23       		.uleb128 0x23
 6297 104b 8C060000 		.4byte	.LASF123
 6298 104f 01       		.byte	0x1
 6299 1050 80       		.byte	0x80
 6300 1051 F4030000 		.4byte	0x3f4
 6301 1055 31100000 		.4byte	.LLST73
 6302 1059 3D       		.uleb128 0x3d
 6303 105a 4F090000 		.4byte	.LASF172
 6304 105e 01       		.byte	0x1
 6305 105f 80       		.byte	0x80
 6306 1060 EE000000 		.4byte	0xee
 6307 1064 02       		.uleb128 0x2
 6308 1065 91       		.byte	0x91
 6309 1066 74       		.sleb128 -12
 6310 1067 10       		.uleb128 0x10
 6311 1068 3E       		.uleb128 0x3e
 6312 1069 61726700 		.ascii	"arg\000"
 6313 106d 01       		.byte	0x1
 6314 106e 83       		.byte	0x83
 6315 106f 06010000 		.4byte	0x106
 6316 1073 02       		.uleb128 0x2
 6317 1074 91       		.byte	0x91
 6318 1075 5C       		.sleb128 -36
 6319 1076 24       		.uleb128 0x24
 6320 1077 13020000 		.4byte	.LASF151
 6321 107b 01       		.byte	0x1
 6322 107c 86       		.byte	0x86
 6323 107d EE000000 		.4byte	0xee
 6324 1081 5D100000 		.4byte	.LLST74
 6325 1085 2D       		.uleb128 0x2d
 6326 1086 18000000 		.4byte	.LVL252
 6327 108a BE1E0000 		.4byte	0x1ebe
 6328 108e 9A100000 		.4byte	0x109a
 6329 1092 21       		.uleb128 0x21
ARM GAS  C:\Users\chemi\AppData\Local\Temp\cc0tO343.s 			page 144


 6330 1093 01       		.uleb128 0x1
 6331 1094 50       		.byte	0x50
 6332 1095 03       		.uleb128 0x3
 6333 1096 0A       		.byte	0xa
 6334 1097 0001     		.2byte	0x100
 6335 1099 00       		.byte	0
 6336 109a 2D       		.uleb128 0x2d
 6337 109b 26000000 		.4byte	.LVL254
 6338 109f C91E0000 		.4byte	0x1ec9
 6339 10a3 BB100000 		.4byte	0x10bb
 6340 10a7 21       		.uleb128 0x21
 6341 10a8 01       		.uleb128 0x1
 6342 10a9 50       		.byte	0x50
 6343 10aa 02       		.uleb128 0x2
 6344 10ab 75       		.byte	0x75
 6345 10ac 00       		.sleb128 0
 6346 10ad 21       		.uleb128 0x21
 6347 10ae 01       		.uleb128 0x1
 6348 10af 51       		.byte	0x51
 6349 10b0 03       		.uleb128 0x3
 6350 10b1 0A       		.byte	0xa
 6351 10b2 0001     		.2byte	0x100
 6352 10b4 21       		.uleb128 0x21
 6353 10b5 01       		.uleb128 0x1
 6354 10b6 52       		.byte	0x52
 6355 10b7 02       		.uleb128 0x2
 6356 10b8 76       		.byte	0x76
 6357 10b9 00       		.sleb128 0
 6358 10ba 00       		.byte	0
 6359 10bb 25       		.uleb128 0x25
 6360 10bc 36000000 		.4byte	.LVL255
 6361 10c0 D4100000 		.4byte	0x10d4
 6362 10c4 21       		.uleb128 0x21
 6363 10c5 01       		.uleb128 0x1
 6364 10c6 51       		.byte	0x51
 6365 10c7 05       		.uleb128 0x5
 6366 10c8 03       		.byte	0x3
 6367 10c9 57010000 		.4byte	.LC36
 6368 10cd 21       		.uleb128 0x21
 6369 10ce 01       		.uleb128 0x1
 6370 10cf 52       		.byte	0x52
 6371 10d0 02       		.uleb128 0x2
 6372 10d1 75       		.byte	0x75
 6373 10d2 00       		.sleb128 0
 6374 10d3 00       		.byte	0
 6375 10d4 3F       		.uleb128 0x3f
 6376 10d5 4C000000 		.4byte	.LVL256
 6377 10d9 02       		.uleb128 0x2
 6378 10da 76       		.byte	0x76
 6379 10db 00       		.sleb128 0
 6380 10dc F3100000 		.4byte	0x10f3
 6381 10e0 21       		.uleb128 0x21
 6382 10e1 01       		.uleb128 0x1
 6383 10e2 51       		.byte	0x51
 6384 10e3 05       		.uleb128 0x5
 6385 10e4 03       		.byte	0x3
 6386 10e5 5C010000 		.4byte	.LC37
ARM GAS  C:\Users\chemi\AppData\Local\Temp\cc0tO343.s 			page 145


 6387 10e9 21       		.uleb128 0x21
 6388 10ea 01       		.uleb128 0x1
 6389 10eb 53       		.byte	0x53
 6390 10ec 05       		.uleb128 0x5
 6391 10ed 03       		.byte	0x3
 6392 10ee 00000000 		.4byte	.LC0
 6393 10f2 00       		.byte	0
 6394 10f3 3F       		.uleb128 0x3f
 6395 10f4 60000000 		.4byte	.LVL257
 6396 10f8 02       		.uleb128 0x2
 6397 10f9 76       		.byte	0x76
 6398 10fa 00       		.sleb128 0
 6399 10fb 12110000 		.4byte	0x1112
 6400 10ff 21       		.uleb128 0x21
 6401 1100 01       		.uleb128 0x1
 6402 1101 51       		.byte	0x51
 6403 1102 05       		.uleb128 0x5
 6404 1103 03       		.byte	0x3
 6405 1104 63010000 		.4byte	.LC38
 6406 1108 21       		.uleb128 0x21
 6407 1109 01       		.uleb128 0x1
 6408 110a 53       		.byte	0x53
 6409 110b 05       		.uleb128 0x5
 6410 110c 03       		.byte	0x3
 6411 110d 00000000 		.4byte	.LC0
 6412 1111 00       		.byte	0
 6413 1112 2D       		.uleb128 0x2d
 6414 1113 76000000 		.4byte	.LVL258
 6415 1117 EE0F0000 		.4byte	0xfee
 6416 111b 2B110000 		.4byte	0x112b
 6417 111f 21       		.uleb128 0x21
 6418 1120 01       		.uleb128 0x1
 6419 1121 50       		.byte	0x50
 6420 1122 02       		.uleb128 0x2
 6421 1123 74       		.byte	0x74
 6422 1124 00       		.sleb128 0
 6423 1125 21       		.uleb128 0x21
 6424 1126 01       		.uleb128 0x1
 6425 1127 51       		.byte	0x51
 6426 1128 01       		.uleb128 0x1
 6427 1129 42       		.byte	0x42
 6428 112a 00       		.byte	0
 6429 112b 2E       		.uleb128 0x2e
 6430 112c 7C000000 		.4byte	.LVL259
 6431 1130 7C1E0000 		.4byte	0x1e7c
 6432 1134 21       		.uleb128 0x21
 6433 1135 01       		.uleb128 0x1
 6434 1136 50       		.byte	0x50
 6435 1137 02       		.uleb128 0x2
 6436 1138 75       		.byte	0x75
 6437 1139 00       		.sleb128 0
 6438 113a 00       		.byte	0
 6439 113b 00       		.byte	0
 6440 113c 2A       		.uleb128 0x2a
 6441 113d 3F050000 		.4byte	.LASF173
 6442 1141 01       		.byte	0x1
 6443 1142 0B01     		.2byte	0x10b
ARM GAS  C:\Users\chemi\AppData\Local\Temp\cc0tO343.s 			page 146


 6444 1144 00000000 		.4byte	.LFB74
 6445 1148 C4000000 		.4byte	.LFE74-.LFB74
 6446 114c 01       		.uleb128 0x1
 6447 114d 9C       		.byte	0x9c
 6448 114e 64120000 		.4byte	0x1264
 6449 1152 2B       		.uleb128 0x2b
 6450 1153 8C060000 		.4byte	.LASF123
 6451 1157 01       		.byte	0x1
 6452 1158 0B01     		.2byte	0x10b
 6453 115a F4030000 		.4byte	0x3f4
 6454 115e 7B100000 		.4byte	.LLST75
 6455 1162 2D       		.uleb128 0x2d
 6456 1163 0E000000 		.4byte	.LVL262
 6457 1167 EE0F0000 		.4byte	0xfee
 6458 116b 82110000 		.4byte	0x1182
 6459 116f 21       		.uleb128 0x21
 6460 1170 01       		.uleb128 0x1
 6461 1171 50       		.byte	0x50
 6462 1172 02       		.uleb128 0x2
 6463 1173 74       		.byte	0x74
 6464 1174 00       		.sleb128 0
 6465 1175 21       		.uleb128 0x21
 6466 1176 01       		.uleb128 0x1
 6467 1177 51       		.byte	0x51
 6468 1178 03       		.uleb128 0x3
 6469 1179 0A       		.byte	0xa
 6470 117a 0010     		.2byte	0x1000
 6471 117c 21       		.uleb128 0x21
 6472 117d 01       		.uleb128 0x1
 6473 117e 52       		.byte	0x52
 6474 117f 01       		.uleb128 0x1
 6475 1180 30       		.byte	0x30
 6476 1181 00       		.byte	0
 6477 1182 2D       		.uleb128 0x2d
 6478 1183 18000000 		.4byte	.LVL263
 6479 1187 EE0F0000 		.4byte	0xfee
 6480 118b A0110000 		.4byte	0x11a0
 6481 118f 21       		.uleb128 0x21
 6482 1190 01       		.uleb128 0x1
 6483 1191 50       		.byte	0x50
 6484 1192 02       		.uleb128 0x2
 6485 1193 74       		.byte	0x74
 6486 1194 00       		.sleb128 0
 6487 1195 21       		.uleb128 0x21
 6488 1196 01       		.uleb128 0x1
 6489 1197 51       		.byte	0x51
 6490 1198 01       		.uleb128 0x1
 6491 1199 30       		.byte	0x30
 6492 119a 21       		.uleb128 0x21
 6493 119b 01       		.uleb128 0x1
 6494 119c 52       		.byte	0x52
 6495 119d 01       		.uleb128 0x1
 6496 119e 30       		.byte	0x30
 6497 119f 00       		.byte	0
 6498 11a0 2D       		.uleb128 0x2d
 6499 11a1 22000000 		.4byte	.LVL264
 6500 11a5 EE0F0000 		.4byte	0xfee
ARM GAS  C:\Users\chemi\AppData\Local\Temp\cc0tO343.s 			page 147


 6501 11a9 BE110000 		.4byte	0x11be
 6502 11ad 21       		.uleb128 0x21
 6503 11ae 01       		.uleb128 0x1
 6504 11af 50       		.byte	0x50
 6505 11b0 02       		.uleb128 0x2
 6506 11b1 74       		.byte	0x74
 6507 11b2 00       		.sleb128 0
 6508 11b3 21       		.uleb128 0x21
 6509 11b4 01       		.uleb128 0x1
 6510 11b5 51       		.byte	0x51
 6511 11b6 01       		.uleb128 0x1
 6512 11b7 40       		.byte	0x40
 6513 11b8 21       		.uleb128 0x21
 6514 11b9 01       		.uleb128 0x1
 6515 11ba 52       		.byte	0x52
 6516 11bb 01       		.uleb128 0x1
 6517 11bc 30       		.byte	0x30
 6518 11bd 00       		.byte	0
 6519 11be 25       		.uleb128 0x25
 6520 11bf 32000000 		.4byte	.LVL265
 6521 11c3 DA110000 		.4byte	0x11da
 6522 11c7 21       		.uleb128 0x21
 6523 11c8 01       		.uleb128 0x1
 6524 11c9 51       		.byte	0x51
 6525 11ca 05       		.uleb128 0x5
 6526 11cb 03       		.byte	0x3
 6527 11cc 6C010000 		.4byte	.LC39
 6528 11d0 21       		.uleb128 0x21
 6529 11d1 01       		.uleb128 0x1
 6530 11d2 52       		.byte	0x52
 6531 11d3 05       		.uleb128 0x5
 6532 11d4 03       		.byte	0x3
 6533 11d5 00000000 		.4byte	.LANCHOR0
 6534 11d9 00       		.byte	0
 6535 11da 25       		.uleb128 0x25
 6536 11db 42000000 		.4byte	.LVL266
 6537 11df F6110000 		.4byte	0x11f6
 6538 11e3 21       		.uleb128 0x21
 6539 11e4 01       		.uleb128 0x1
 6540 11e5 51       		.byte	0x51
 6541 11e6 05       		.uleb128 0x5
 6542 11e7 03       		.byte	0x3
 6543 11e8 7A010000 		.4byte	.LC40
 6544 11ec 21       		.uleb128 0x21
 6545 11ed 01       		.uleb128 0x1
 6546 11ee 52       		.byte	0x52
 6547 11ef 05       		.uleb128 0x5
 6548 11f0 03       		.byte	0x3
 6549 11f1 9B000000 		.4byte	.LANCHOR0+155
 6550 11f5 00       		.byte	0
 6551 11f6 25       		.uleb128 0x25
 6552 11f7 52000000 		.4byte	.LVL267
 6553 11fb 12120000 		.4byte	0x1212
 6554 11ff 21       		.uleb128 0x21
 6555 1200 01       		.uleb128 0x1
 6556 1201 51       		.byte	0x51
 6557 1202 05       		.uleb128 0x5
ARM GAS  C:\Users\chemi\AppData\Local\Temp\cc0tO343.s 			page 148


 6558 1203 03       		.byte	0x3
 6559 1204 7A010000 		.4byte	.LC40
 6560 1208 21       		.uleb128 0x21
 6561 1209 01       		.uleb128 0x1
 6562 120a 52       		.byte	0x52
 6563 120b 05       		.uleb128 0x5
 6564 120c 03       		.byte	0x3
 6565 120d D3000000 		.4byte	.LANCHOR0+211
 6566 1211 00       		.byte	0
 6567 1212 40       		.uleb128 0x40
 6568 1213 70000000 		.4byte	.LVL269
 6569 1217 2E120000 		.4byte	0x122e
 6570 121b 21       		.uleb128 0x21
 6571 121c 01       		.uleb128 0x1
 6572 121d 51       		.byte	0x51
 6573 121e 05       		.uleb128 0x5
 6574 121f 03       		.byte	0x3
 6575 1220 7F010000 		.4byte	.LC41
 6576 1224 21       		.uleb128 0x21
 6577 1225 01       		.uleb128 0x1
 6578 1226 53       		.byte	0x53
 6579 1227 05       		.uleb128 0x5
 6580 1228 03       		.byte	0x3
 6581 1229 00000000 		.4byte	.LC0
 6582 122d 00       		.byte	0
 6583 122e 3F       		.uleb128 0x3f
 6584 122f 82000000 		.4byte	.LVL270
 6585 1233 02       		.uleb128 0x2
 6586 1234 75       		.byte	0x75
 6587 1235 00       		.sleb128 0
 6588 1236 4D120000 		.4byte	0x124d
 6589 123a 21       		.uleb128 0x21
 6590 123b 01       		.uleb128 0x1
 6591 123c 51       		.byte	0x51
 6592 123d 05       		.uleb128 0x5
 6593 123e 03       		.byte	0x3
 6594 123f 8A010000 		.4byte	.LC42
 6595 1243 21       		.uleb128 0x21
 6596 1244 01       		.uleb128 0x1
 6597 1245 53       		.byte	0x53
 6598 1246 05       		.uleb128 0x5
 6599 1247 03       		.byte	0x3
 6600 1248 00000000 		.4byte	.LC0
 6601 124c 00       		.byte	0
 6602 124d 27       		.uleb128 0x27
 6603 124e 9E000000 		.4byte	.LVL272
 6604 1252 EE0F0000 		.4byte	0xfee
 6605 1256 21       		.uleb128 0x21
 6606 1257 01       		.uleb128 0x1
 6607 1258 50       		.byte	0x50
 6608 1259 03       		.uleb128 0x3
 6609 125a F3       		.byte	0xf3
 6610 125b 01       		.uleb128 0x1
 6611 125c 50       		.byte	0x50
 6612 125d 21       		.uleb128 0x21
 6613 125e 01       		.uleb128 0x1
 6614 125f 51       		.byte	0x51
ARM GAS  C:\Users\chemi\AppData\Local\Temp\cc0tO343.s 			page 149


 6615 1260 01       		.uleb128 0x1
 6616 1261 42       		.byte	0x42
 6617 1262 00       		.byte	0
 6618 1263 00       		.byte	0
 6619 1264 41       		.uleb128 0x41
 6620 1265 2D020000 		.4byte	.LASF174
 6621 1269 01       		.byte	0x1
 6622 126a 33       		.byte	0x33
 6623 126b F4030000 		.4byte	0x3f4
 6624 126f 00000000 		.4byte	.LFB69
 6625 1273 E8000000 		.4byte	.LFE69-.LFB69
 6626 1277 01       		.uleb128 0x1
 6627 1278 9C       		.byte	0x9c
 6628 1279 28140000 		.4byte	0x1428
 6629 127d 23       		.uleb128 0x23
 6630 127e 0A0C0000 		.4byte	.LASF175
 6631 1282 01       		.byte	0x1
 6632 1283 33       		.byte	0x33
 6633 1284 4A040000 		.4byte	0x44a
 6634 1288 E4100000 		.4byte	.LLST76
 6635 128c 23       		.uleb128 0x23
 6636 128d EF040000 		.4byte	.LASF70
 6637 1291 01       		.byte	0x1
 6638 1292 33       		.byte	0x33
 6639 1293 E5000000 		.4byte	0xe5
 6640 1297 10110000 		.4byte	.LLST77
 6641 129b 23       		.uleb128 0x23
 6642 129c D4070000 		.4byte	.LASF85
 6643 12a0 01       		.byte	0x1
 6644 12a1 33       		.byte	0x33
 6645 12a2 90000000 		.4byte	0x90
 6646 12a6 3C110000 		.4byte	.LLST78
 6647 12aa 23       		.uleb128 0x23
 6648 12ab 520A0000 		.4byte	.LASF86
 6649 12af 01       		.byte	0x1
 6650 12b0 33       		.byte	0x33
 6651 12b1 F1040000 		.4byte	0x4f1
 6652 12b5 68110000 		.4byte	.LLST79
 6653 12b9 23       		.uleb128 0x23
 6654 12ba DE000000 		.4byte	.LASF87
 6655 12be 01       		.byte	0x1
 6656 12bf 33       		.byte	0x33
 6657 12c0 25040000 		.4byte	0x425
 6658 12c4 94110000 		.4byte	.LLST80
 6659 12c8 42       		.uleb128 0x42
 6660 12c9 75737200 		.ascii	"usr\000"
 6661 12cd 01       		.byte	0x1
 6662 12ce 33       		.byte	0x33
 6663 12cf FB000000 		.4byte	0xfb
 6664 12d3 B4110000 		.4byte	.LLST81
 6665 12d7 43       		.uleb128 0x43
 6666 12d8 72657400 		.ascii	"ret\000"
 6667 12dc 01       		.byte	0x1
 6668 12dd 37       		.byte	0x37
 6669 12de F4030000 		.4byte	0x3f4
 6670 12e2 D4110000 		.4byte	.LLST82
 6671 12e6 2D       		.uleb128 0x2d
ARM GAS  C:\Users\chemi\AppData\Local\Temp\cc0tO343.s 			page 150


 6672 12e7 14000000 		.4byte	.LVL276
 6673 12eb BE1E0000 		.4byte	0x1ebe
 6674 12ef FA120000 		.4byte	0x12fa
 6675 12f3 21       		.uleb128 0x21
 6676 12f4 01       		.uleb128 0x1
 6677 12f5 50       		.byte	0x50
 6678 12f6 02       		.uleb128 0x2
 6679 12f7 08       		.byte	0x8
 6680 12f8 94       		.byte	0x94
 6681 12f9 00       		.byte	0
 6682 12fa 2D       		.uleb128 0x2d
 6683 12fb 1E000000 		.4byte	.LVL278
 6684 12ff D41E0000 		.4byte	0x1ed4
 6685 1303 19130000 		.4byte	0x1319
 6686 1307 21       		.uleb128 0x21
 6687 1308 01       		.uleb128 0x1
 6688 1309 50       		.byte	0x50
 6689 130a 02       		.uleb128 0x2
 6690 130b 74       		.byte	0x74
 6691 130c 00       		.sleb128 0
 6692 130d 21       		.uleb128 0x21
 6693 130e 01       		.uleb128 0x1
 6694 130f 51       		.byte	0x51
 6695 1310 01       		.uleb128 0x1
 6696 1311 30       		.byte	0x30
 6697 1312 21       		.uleb128 0x21
 6698 1313 01       		.uleb128 0x1
 6699 1314 52       		.byte	0x52
 6700 1315 02       		.uleb128 0x2
 6701 1316 08       		.byte	0x8
 6702 1317 94       		.byte	0x94
 6703 1318 00       		.byte	0
 6704 1319 2D       		.uleb128 0x2d
 6705 131a 24000000 		.4byte	.LVL279
 6706 131e BE1E0000 		.4byte	0x1ebe
 6707 1322 2D130000 		.4byte	0x132d
 6708 1326 21       		.uleb128 0x21
 6709 1327 01       		.uleb128 0x1
 6710 1328 50       		.byte	0x50
 6711 1329 02       		.uleb128 0x2
 6712 132a 08       		.byte	0x8
 6713 132b 80       		.byte	0x80
 6714 132c 00       		.byte	0
 6715 132d 2D       		.uleb128 0x2d
 6716 132e 3C000000 		.4byte	.LVL280
 6717 1332 A81E0000 		.4byte	0x1ea8
 6718 1336 42130000 		.4byte	0x1342
 6719 133a 21       		.uleb128 0x21
 6720 133b 01       		.uleb128 0x1
 6721 133c 50       		.byte	0x50
 6722 133d 03       		.uleb128 0x3
 6723 133e 91       		.byte	0x91
 6724 133f 04       		.sleb128 4
 6725 1340 06       		.byte	0x6
 6726 1341 00       		.byte	0
 6727 1342 26       		.uleb128 0x26
 6728 1343 42000000 		.4byte	.LVL281
ARM GAS  C:\Users\chemi\AppData\Local\Temp\cc0tO343.s 			page 151


 6729 1347 BE1E0000 		.4byte	0x1ebe
 6730 134b 2D       		.uleb128 0x2d
 6731 134c 52000000 		.4byte	.LVL282
 6732 1350 921E0000 		.4byte	0x1e92
 6733 1354 7C130000 		.4byte	0x137c
 6734 1358 21       		.uleb128 0x21
 6735 1359 01       		.uleb128 0x1
 6736 135a 51       		.byte	0x51
 6737 135b 05       		.uleb128 0x5
 6738 135c 03       		.byte	0x3
 6739 135d 9D010000 		.4byte	.LC44
 6740 1361 21       		.uleb128 0x21
 6741 1362 01       		.uleb128 0x1
 6742 1363 52       		.byte	0x52
 6743 1364 05       		.uleb128 0x5
 6744 1365 03       		.byte	0x3
 6745 1366 97010000 		.4byte	.LC43
 6746 136a 21       		.uleb128 0x21
 6747 136b 01       		.uleb128 0x1
 6748 136c 53       		.byte	0x53
 6749 136d 03       		.uleb128 0x3
 6750 136e 91       		.byte	0x91
 6751 136f 04       		.sleb128 4
 6752 1370 06       		.byte	0x6
 6753 1371 21       		.uleb128 0x21
 6754 1372 02       		.uleb128 0x2
 6755 1373 7D       		.byte	0x7d
 6756 1374 00       		.sleb128 0
 6757 1375 05       		.uleb128 0x5
 6758 1376 03       		.byte	0x3
 6759 1377 DF000000 		.4byte	.LC13
 6760 137b 00       		.byte	0
 6761 137c 2D       		.uleb128 0x2d
 6762 137d 80000000 		.4byte	.LVL284
 6763 1381 DF0E0000 		.4byte	0xedf
 6764 1385 A9130000 		.4byte	0x13a9
 6765 1389 21       		.uleb128 0x21
 6766 138a 01       		.uleb128 0x1
 6767 138b 51       		.byte	0x51
 6768 138c 05       		.uleb128 0x5
 6769 138d 03       		.byte	0x3
 6770 138e BF010000 		.4byte	.LC46
 6771 1392 21       		.uleb128 0x21
 6772 1393 01       		.uleb128 0x1
 6773 1394 52       		.byte	0x52
 6774 1395 05       		.uleb128 0x5
 6775 1396 03       		.byte	0x3
 6776 1397 A4010000 		.4byte	.LC45
 6777 139b 21       		.uleb128 0x21
 6778 139c 01       		.uleb128 0x1
 6779 139d 53       		.byte	0x53
 6780 139e 02       		.uleb128 0x2
 6781 139f 76       		.byte	0x76
 6782 13a0 00       		.sleb128 0
 6783 13a1 21       		.uleb128 0x21
 6784 13a2 02       		.uleb128 0x2
 6785 13a3 7D       		.byte	0x7d
ARM GAS  C:\Users\chemi\AppData\Local\Temp\cc0tO343.s 			page 152


 6786 13a4 00       		.sleb128 0
 6787 13a5 02       		.uleb128 0x2
 6788 13a6 75       		.byte	0x75
 6789 13a7 00       		.sleb128 0
 6790 13a8 00       		.byte	0
 6791 13a9 2D       		.uleb128 0x2d
 6792 13aa 8E000000 		.4byte	.LVL285
 6793 13ae DF0E0000 		.4byte	0xedf
 6794 13b2 D6130000 		.4byte	0x13d6
 6795 13b6 21       		.uleb128 0x21
 6796 13b7 01       		.uleb128 0x1
 6797 13b8 51       		.byte	0x51
 6798 13b9 05       		.uleb128 0x5
 6799 13ba 03       		.byte	0x3
 6800 13bb D6010000 		.4byte	.LC48
 6801 13bf 21       		.uleb128 0x21
 6802 13c0 01       		.uleb128 0x1
 6803 13c1 52       		.byte	0x52
 6804 13c2 05       		.uleb128 0x5
 6805 13c3 03       		.byte	0x3
 6806 13c4 C4010000 		.4byte	.LC47
 6807 13c8 21       		.uleb128 0x21
 6808 13c9 01       		.uleb128 0x1
 6809 13ca 53       		.byte	0x53
 6810 13cb 02       		.uleb128 0x2
 6811 13cc 76       		.byte	0x76
 6812 13cd 00       		.sleb128 0
 6813 13ce 21       		.uleb128 0x21
 6814 13cf 02       		.uleb128 0x2
 6815 13d0 7D       		.byte	0x7d
 6816 13d1 00       		.sleb128 0
 6817 13d2 02       		.uleb128 0x2
 6818 13d3 75       		.byte	0x75
 6819 13d4 00       		.sleb128 0
 6820 13d5 00       		.byte	0
 6821 13d6 2D       		.uleb128 0x2d
 6822 13d7 9C000000 		.4byte	.LVL286
 6823 13db DF0E0000 		.4byte	0xedf
 6824 13df 03140000 		.4byte	0x1403
 6825 13e3 21       		.uleb128 0x21
 6826 13e4 01       		.uleb128 0x1
 6827 13e5 51       		.byte	0x51
 6828 13e6 05       		.uleb128 0x5
 6829 13e7 03       		.byte	0x3
 6830 13e8 E5010000 		.4byte	.LC50
 6831 13ec 21       		.uleb128 0x21
 6832 13ed 01       		.uleb128 0x1
 6833 13ee 52       		.byte	0x52
 6834 13ef 05       		.uleb128 0x5
 6835 13f0 03       		.byte	0x3
 6836 13f1 DA010000 		.4byte	.LC49
 6837 13f5 21       		.uleb128 0x21
 6838 13f6 01       		.uleb128 0x1
 6839 13f7 53       		.byte	0x53
 6840 13f8 02       		.uleb128 0x2
 6841 13f9 76       		.byte	0x76
 6842 13fa 00       		.sleb128 0
ARM GAS  C:\Users\chemi\AppData\Local\Temp\cc0tO343.s 			page 153


 6843 13fb 21       		.uleb128 0x21
 6844 13fc 02       		.uleb128 0x2
 6845 13fd 7D       		.byte	0x7d
 6846 13fe 00       		.sleb128 0
 6847 13ff 02       		.uleb128 0x2
 6848 1400 75       		.byte	0x75
 6849 1401 00       		.sleb128 0
 6850 1402 00       		.byte	0
 6851 1403 2D       		.uleb128 0x2d
 6852 1404 A2000000 		.4byte	.LVL287
 6853 1408 DD1E0000 		.4byte	0x1edd
 6854 140c 17140000 		.4byte	0x1417
 6855 1410 21       		.uleb128 0x21
 6856 1411 01       		.uleb128 0x1
 6857 1412 50       		.byte	0x50
 6858 1413 02       		.uleb128 0x2
 6859 1414 75       		.byte	0x75
 6860 1415 00       		.sleb128 0
 6861 1416 00       		.byte	0
 6862 1417 2E       		.uleb128 0x2e
 6863 1418 A8000000 		.4byte	.LVL288
 6864 141c 3C110000 		.4byte	0x113c
 6865 1420 21       		.uleb128 0x21
 6866 1421 01       		.uleb128 0x1
 6867 1422 50       		.byte	0x50
 6868 1423 02       		.uleb128 0x2
 6869 1424 74       		.byte	0x74
 6870 1425 00       		.sleb128 0
 6871 1426 00       		.byte	0
 6872 1427 00       		.byte	0
 6873 1428 1D       		.uleb128 0x1d
 6874 1429 B9060000 		.4byte	0x6b9
 6875 142d 00000000 		.4byte	.LFB78
 6876 1431 28050000 		.4byte	.LFE78-.LFB78
 6877 1435 01       		.uleb128 0x1
 6878 1436 9C       		.byte	0x9c
 6879 1437 E1190000 		.4byte	0x19e1
 6880 143b 1E       		.uleb128 0x1e
 6881 143c CA060000 		.4byte	0x6ca
 6882 1440 FD110000 		.4byte	.LLST83
 6883 1444 1E       		.uleb128 0x1e
 6884 1445 D4060000 		.4byte	0x6d4
 6885 1449 7C130000 		.4byte	.LLST84
 6886 144d 1F       		.uleb128 0x1f
 6887 144e 0C000000 		.4byte	.LBB69
 6888 1452 14000000 		.4byte	.LBE69-.LBB69
 6889 1456 86140000 		.4byte	0x1486
 6890 145a 32       		.uleb128 0x32
 6891 145b E5060000 		.4byte	0x6e5
 6892 145f 11150000 		.4byte	.LLST85
 6893 1463 25       		.uleb128 0x25
 6894 1464 14000000 		.4byte	.LVL293
 6895 1468 79140000 		.4byte	0x1479
 6896 146c 21       		.uleb128 0x21
 6897 146d 01       		.uleb128 0x1
 6898 146e 50       		.byte	0x50
 6899 146f 02       		.uleb128 0x2
ARM GAS  C:\Users\chemi\AppData\Local\Temp\cc0tO343.s 			page 154


 6900 1470 74       		.byte	0x74
 6901 1471 00       		.sleb128 0
 6902 1472 21       		.uleb128 0x21
 6903 1473 01       		.uleb128 0x1
 6904 1474 51       		.byte	0x51
 6905 1475 02       		.uleb128 0x2
 6906 1476 75       		.byte	0x75
 6907 1477 00       		.sleb128 0
 6908 1478 00       		.byte	0
 6909 1479 38       		.uleb128 0x38
 6910 147a 1E000000 		.4byte	.LVL295
 6911 147e 21       		.uleb128 0x21
 6912 147f 01       		.uleb128 0x1
 6913 1480 50       		.byte	0x50
 6914 1481 02       		.uleb128 0x2
 6915 1482 74       		.byte	0x74
 6916 1483 00       		.sleb128 0
 6917 1484 00       		.byte	0
 6918 1485 00       		.byte	0
 6919 1486 33       		.uleb128 0x33
 6920 1487 20000000 		.4byte	.LBB70
 6921 148b DC040000 		.4byte	.LBE70-.LBB70
 6922 148f 1E       		.uleb128 0x1e
 6923 1490 D4060000 		.4byte	0x6d4
 6924 1494 24150000 		.4byte	.LLST86
 6925 1498 1E       		.uleb128 0x1e
 6926 1499 CA060000 		.4byte	0x6ca
 6927 149d 95160000 		.4byte	.LLST87
 6928 14a1 1F       		.uleb128 0x1f
 6929 14a2 A6000000 		.4byte	.LBB72
 6930 14a6 78000000 		.4byte	.LBE72-.LBB72
 6931 14aa 06150000 		.4byte	0x1506
 6932 14ae 32       		.uleb128 0x32
 6933 14af F7060000 		.4byte	0x6f7
 6934 14b3 FB170000 		.4byte	.LLST88
 6935 14b7 25       		.uleb128 0x25
 6936 14b8 B2000000 		.4byte	.LVL300
 6937 14bc CA140000 		.4byte	0x14ca
 6938 14c0 21       		.uleb128 0x21
 6939 14c1 01       		.uleb128 0x1
 6940 14c2 51       		.byte	0x51
 6941 14c3 05       		.uleb128 0x5
 6942 14c4 03       		.byte	0x3
 6943 14c5 1E020000 		.4byte	.LC55
 6944 14c9 00       		.byte	0
 6945 14ca 26       		.uleb128 0x26
 6946 14cb C0000000 		.4byte	.LVL301
 6947 14cf 7C1E0000 		.4byte	0x1e7c
 6948 14d3 26       		.uleb128 0x26
 6949 14d4 D6000000 		.4byte	.LVL302
 6950 14d8 BE1E0000 		.4byte	0x1ebe
 6951 14dc 26       		.uleb128 0x26
 6952 14dd EE000000 		.4byte	.LVL303
 6953 14e1 E81E0000 		.4byte	0x1ee8
 6954 14e5 2D       		.uleb128 0x2d
 6955 14e6 08010000 		.4byte	.LVL304
 6956 14ea 35060000 		.4byte	0x635
ARM GAS  C:\Users\chemi\AppData\Local\Temp\cc0tO343.s 			page 155


 6957 14ee F9140000 		.4byte	0x14f9
 6958 14f2 21       		.uleb128 0x21
 6959 14f3 01       		.uleb128 0x1
 6960 14f4 52       		.byte	0x52
 6961 14f5 02       		.uleb128 0x2
 6962 14f6 74       		.byte	0x74
 6963 14f7 00       		.sleb128 0
 6964 14f8 00       		.byte	0
 6965 14f9 38       		.uleb128 0x38
 6966 14fa 12010000 		.4byte	.LVL306
 6967 14fe 21       		.uleb128 0x21
 6968 14ff 01       		.uleb128 0x1
 6969 1500 50       		.byte	0x50
 6970 1501 02       		.uleb128 0x2
 6971 1502 74       		.byte	0x74
 6972 1503 00       		.sleb128 0
 6973 1504 00       		.byte	0
 6974 1505 00       		.byte	0
 6975 1506 44       		.uleb128 0x44
 6976 1507 E3050000 		.4byte	0x5e3
 6977 150b 9C010000 		.4byte	.LBB73
 6978 150f 0E000000 		.4byte	.LBE73-.LBB73
 6979 1513 01       		.byte	0x1
 6980 1514 7901     		.2byte	0x179
 6981 1516 6E150000 		.4byte	0x156e
 6982 151a 1E       		.uleb128 0x1e
 6983 151b 08060000 		.4byte	0x608
 6984 151f 0E180000 		.4byte	.LLST89
 6985 1523 1E       		.uleb128 0x1e
 6986 1524 FC050000 		.4byte	0x5fc
 6987 1528 23180000 		.4byte	.LLST90
 6988 152c 1E       		.uleb128 0x1e
 6989 152d F0050000 		.4byte	0x5f0
 6990 1531 3B180000 		.4byte	.LLST91
 6991 1535 33       		.uleb128 0x33
 6992 1536 9C010000 		.4byte	.LBB74
 6993 153a 0E000000 		.4byte	.LBE74-.LBB74
 6994 153e 1E       		.uleb128 0x1e
 6995 153f 08060000 		.4byte	0x608
 6996 1543 0E180000 		.4byte	.LLST89
 6997 1547 1E       		.uleb128 0x1e
 6998 1548 FC050000 		.4byte	0x5fc
 6999 154c 23180000 		.4byte	.LLST90
 7000 1550 1E       		.uleb128 0x1e
 7001 1551 F0050000 		.4byte	0x5f0
 7002 1555 3B180000 		.4byte	.LLST91
 7003 1559 33       		.uleb128 0x33
 7004 155a 9C010000 		.4byte	.LBB75
 7005 155e 0E000000 		.4byte	.LBE75-.LBB75
 7006 1562 32       		.uleb128 0x32
 7007 1563 27060000 		.4byte	0x627
 7008 1567 4E180000 		.4byte	.LLST95
 7009 156b 00       		.byte	0
 7010 156c 00       		.byte	0
 7011 156d 00       		.byte	0
 7012 156e 1F       		.uleb128 0x1f
 7013 156f 3C030000 		.4byte	.LBB76
ARM GAS  C:\Users\chemi\AppData\Local\Temp\cc0tO343.s 			page 156


 7014 1573 6C000000 		.4byte	.LBE76-.LBB76
 7015 1577 1B160000 		.4byte	0x161b
 7016 157b 32       		.uleb128 0x32
 7017 157c 09070000 		.4byte	0x709
 7018 1580 7C180000 		.4byte	.LLST96
 7019 1584 2D       		.uleb128 0x2d
 7020 1585 46030000 		.4byte	.LVL361
 7021 1589 EE0F0000 		.4byte	0xfee
 7022 158d A2150000 		.4byte	0x15a2
 7023 1591 21       		.uleb128 0x21
 7024 1592 01       		.uleb128 0x1
 7025 1593 50       		.byte	0x50
 7026 1594 02       		.uleb128 0x2
 7027 1595 74       		.byte	0x74
 7028 1596 00       		.sleb128 0
 7029 1597 21       		.uleb128 0x21
 7030 1598 01       		.uleb128 0x1
 7031 1599 51       		.byte	0x51
 7032 159a 01       		.uleb128 0x1
 7033 159b 3C       		.byte	0x3c
 7034 159c 21       		.uleb128 0x21
 7035 159d 01       		.uleb128 0x1
 7036 159e 52       		.byte	0x52
 7037 159f 01       		.uleb128 0x1
 7038 15a0 30       		.byte	0x30
 7039 15a1 00       		.byte	0
 7040 15a2 2D       		.uleb128 0x2d
 7041 15a3 5C030000 		.4byte	.LVL362
 7042 15a7 871E0000 		.4byte	0x1e87
 7043 15ab BC150000 		.4byte	0x15bc
 7044 15af 21       		.uleb128 0x21
 7045 15b0 01       		.uleb128 0x1
 7046 15b1 50       		.byte	0x50
 7047 15b2 02       		.uleb128 0x2
 7048 15b3 75       		.byte	0x75
 7049 15b4 00       		.sleb128 0
 7050 15b5 21       		.uleb128 0x21
 7051 15b6 01       		.uleb128 0x1
 7052 15b7 51       		.byte	0x51
 7053 15b8 02       		.uleb128 0x2
 7054 15b9 08       		.byte	0x8
 7055 15ba 20       		.byte	0x20
 7056 15bb 00       		.byte	0
 7057 15bc 3F       		.uleb128 0x3f
 7058 15bd 82030000 		.4byte	.LVL366
 7059 15c1 02       		.uleb128 0x2
 7060 15c2 77       		.byte	0x77
 7061 15c3 00       		.sleb128 0
 7062 15c4 ED150000 		.4byte	0x15ed
 7063 15c8 21       		.uleb128 0x21
 7064 15c9 01       		.uleb128 0x1
 7065 15ca 51       		.byte	0x51
 7066 15cb 10       		.uleb128 0x10
 7067 15cc 74       		.byte	0x74
 7068 15cd 00       		.sleb128 0
 7069 15ce 03       		.byte	0x3
 7070 15cf F6010000 		.4byte	.LC52
ARM GAS  C:\Users\chemi\AppData\Local\Temp\cc0tO343.s 			page 157


 7071 15d3 76       		.byte	0x76
 7072 15d4 00       		.sleb128 0
 7073 15d5 30       		.byte	0x30
 7074 15d6 2E       		.byte	0x2e
 7075 15d7 28       		.byte	0x28
 7076 15d8 0100     		.2byte	0x1
 7077 15da 16       		.byte	0x16
 7078 15db 13       		.byte	0x13
 7079 15dc 21       		.uleb128 0x21
 7080 15dd 01       		.uleb128 0x1
 7081 15de 53       		.byte	0x53
 7082 15df 05       		.uleb128 0x5
 7083 15e0 03       		.byte	0x3
 7084 15e1 00000000 		.4byte	.LC0
 7085 15e5 21       		.uleb128 0x21
 7086 15e6 02       		.uleb128 0x2
 7087 15e7 7D       		.byte	0x7d
 7088 15e8 00       		.sleb128 0
 7089 15e9 02       		.uleb128 0x2
 7090 15ea 75       		.byte	0x75
 7091 15eb 00       		.sleb128 0
 7092 15ec 00       		.byte	0
 7093 15ed 20       		.uleb128 0x20
 7094 15ee A6030000 		.4byte	.LVL370
 7095 15f2 02       		.uleb128 0x2
 7096 15f3 77       		.byte	0x77
 7097 15f4 00       		.sleb128 0
 7098 15f5 21       		.uleb128 0x21
 7099 15f6 01       		.uleb128 0x1
 7100 15f7 51       		.byte	0x51
 7101 15f8 10       		.uleb128 0x10
 7102 15f9 74       		.byte	0x74
 7103 15fa 00       		.sleb128 0
 7104 15fb 03       		.byte	0x3
 7105 15fc 10020000 		.4byte	.LC54
 7106 1600 76       		.byte	0x76
 7107 1601 00       		.sleb128 0
 7108 1602 30       		.byte	0x30
 7109 1603 2E       		.byte	0x2e
 7110 1604 28       		.byte	0x28
 7111 1605 0100     		.2byte	0x1
 7112 1607 16       		.byte	0x16
 7113 1608 13       		.byte	0x13
 7114 1609 21       		.uleb128 0x21
 7115 160a 01       		.uleb128 0x1
 7116 160b 53       		.byte	0x53
 7117 160c 05       		.uleb128 0x5
 7118 160d 03       		.byte	0x3
 7119 160e 00000000 		.4byte	.LC0
 7120 1612 21       		.uleb128 0x21
 7121 1613 02       		.uleb128 0x2
 7122 1614 7D       		.byte	0x7d
 7123 1615 08       		.sleb128 8
 7124 1616 02       		.uleb128 0x2
 7125 1617 75       		.byte	0x75
 7126 1618 00       		.sleb128 0
 7127 1619 00       		.byte	0
ARM GAS  C:\Users\chemi\AppData\Local\Temp\cc0tO343.s 			page 158


 7128 161a 00       		.byte	0
 7129 161b 1F       		.uleb128 0x1f
 7130 161c 02040000 		.4byte	.LBB77
 7131 1620 4A000000 		.4byte	.LBE77-.LBB77
 7132 1624 97160000 		.4byte	0x1697
 7133 1628 32       		.uleb128 0x32
 7134 1629 17070000 		.4byte	0x717
 7135 162d CC180000 		.4byte	.LLST97
 7136 1631 2D       		.uleb128 0x2d
 7137 1632 0C040000 		.4byte	.LVL379
 7138 1636 EE0F0000 		.4byte	0xfee
 7139 163a 4F160000 		.4byte	0x164f
 7140 163e 21       		.uleb128 0x21
 7141 163f 01       		.uleb128 0x1
 7142 1640 50       		.byte	0x50
 7143 1641 02       		.uleb128 0x2
 7144 1642 74       		.byte	0x74
 7145 1643 00       		.sleb128 0
 7146 1644 21       		.uleb128 0x21
 7147 1645 01       		.uleb128 0x1
 7148 1646 51       		.byte	0x51
 7149 1647 01       		.uleb128 0x1
 7150 1648 3C       		.byte	0x3c
 7151 1649 21       		.uleb128 0x21
 7152 164a 01       		.uleb128 0x1
 7153 164b 52       		.byte	0x52
 7154 164c 01       		.uleb128 0x1
 7155 164d 30       		.byte	0x30
 7156 164e 00       		.byte	0
 7157 164f 2D       		.uleb128 0x2d
 7158 1650 22040000 		.4byte	.LVL380
 7159 1654 871E0000 		.4byte	0x1e87
 7160 1658 69160000 		.4byte	0x1669
 7161 165c 21       		.uleb128 0x21
 7162 165d 01       		.uleb128 0x1
 7163 165e 50       		.byte	0x50
 7164 165f 02       		.uleb128 0x2
 7165 1660 75       		.byte	0x75
 7166 1661 00       		.sleb128 0
 7167 1662 21       		.uleb128 0x21
 7168 1663 01       		.uleb128 0x1
 7169 1664 51       		.byte	0x51
 7170 1665 02       		.uleb128 0x2
 7171 1666 08       		.byte	0x8
 7172 1667 20       		.byte	0x20
 7173 1668 00       		.byte	0
 7174 1669 20       		.uleb128 0x20
 7175 166a 4A040000 		.4byte	.LVL384
 7176 166e 02       		.uleb128 0x2
 7177 166f 76       		.byte	0x76
 7178 1670 00       		.sleb128 0
 7179 1671 21       		.uleb128 0x21
 7180 1672 01       		.uleb128 0x1
 7181 1673 51       		.byte	0x51
 7182 1674 10       		.uleb128 0x10
 7183 1675 03       		.byte	0x3
 7184 1676 00020000 		.4byte	.LC53
ARM GAS  C:\Users\chemi\AppData\Local\Temp\cc0tO343.s 			page 159


 7185 167a 74       		.byte	0x74
 7186 167b 00       		.sleb128 0
 7187 167c 77       		.byte	0x77
 7188 167d 00       		.sleb128 0
 7189 167e 30       		.byte	0x30
 7190 167f 2E       		.byte	0x2e
 7191 1680 28       		.byte	0x28
 7192 1681 0100     		.2byte	0x1
 7193 1683 16       		.byte	0x16
 7194 1684 13       		.byte	0x13
 7195 1685 21       		.uleb128 0x21
 7196 1686 01       		.uleb128 0x1
 7197 1687 53       		.byte	0x53
 7198 1688 05       		.uleb128 0x5
 7199 1689 03       		.byte	0x3
 7200 168a 00000000 		.4byte	.LC0
 7201 168e 21       		.uleb128 0x21
 7202 168f 02       		.uleb128 0x2
 7203 1690 7D       		.byte	0x7d
 7204 1691 08       		.sleb128 8
 7205 1692 02       		.uleb128 0x2
 7206 1693 75       		.byte	0x75
 7207 1694 00       		.sleb128 0
 7208 1695 00       		.byte	0
 7209 1696 00       		.byte	0
 7210 1697 2D       		.uleb128 0x2d
 7211 1698 9C000000 		.4byte	.LVL299
 7212 169c AD080000 		.4byte	0x8ad
 7213 16a0 B0160000 		.4byte	0x16b0
 7214 16a4 21       		.uleb128 0x21
 7215 16a5 01       		.uleb128 0x1
 7216 16a6 50       		.byte	0x50
 7217 16a7 02       		.uleb128 0x2
 7218 16a8 74       		.byte	0x74
 7219 16a9 00       		.sleb128 0
 7220 16aa 21       		.uleb128 0x21
 7221 16ab 01       		.uleb128 0x1
 7222 16ac 51       		.byte	0x51
 7223 16ad 01       		.uleb128 0x1
 7224 16ae 33       		.byte	0x33
 7225 16af 00       		.byte	0
 7226 16b0 2D       		.uleb128 0x2d
 7227 16b1 40010000 		.4byte	.LVL310
 7228 16b5 EE0F0000 		.4byte	0xfee
 7229 16b9 CF160000 		.4byte	0x16cf
 7230 16bd 21       		.uleb128 0x21
 7231 16be 01       		.uleb128 0x1
 7232 16bf 50       		.byte	0x50
 7233 16c0 02       		.uleb128 0x2
 7234 16c1 74       		.byte	0x74
 7235 16c2 00       		.sleb128 0
 7236 16c3 21       		.uleb128 0x21
 7237 16c4 01       		.uleb128 0x1
 7238 16c5 51       		.byte	0x51
 7239 16c6 01       		.uleb128 0x1
 7240 16c7 3C       		.byte	0x3c
 7241 16c8 21       		.uleb128 0x21
ARM GAS  C:\Users\chemi\AppData\Local\Temp\cc0tO343.s 			page 160


 7242 16c9 01       		.uleb128 0x1
 7243 16ca 52       		.byte	0x52
 7244 16cb 02       		.uleb128 0x2
 7245 16cc 76       		.byte	0x76
 7246 16cd 00       		.sleb128 0
 7247 16ce 00       		.byte	0
 7248 16cf 2D       		.uleb128 0x2d
 7249 16d0 60010000 		.4byte	.LVL315
 7250 16d4 AD080000 		.4byte	0x8ad
 7251 16d8 E8160000 		.4byte	0x16e8
 7252 16dc 21       		.uleb128 0x21
 7253 16dd 01       		.uleb128 0x1
 7254 16de 50       		.byte	0x50
 7255 16df 02       		.uleb128 0x2
 7256 16e0 74       		.byte	0x74
 7257 16e1 00       		.sleb128 0
 7258 16e2 21       		.uleb128 0x21
 7259 16e3 01       		.uleb128 0x1
 7260 16e4 51       		.byte	0x51
 7261 16e5 01       		.uleb128 0x1
 7262 16e6 33       		.byte	0x33
 7263 16e7 00       		.byte	0
 7264 16e8 2D       		.uleb128 0x2d
 7265 16e9 80010000 		.4byte	.LVL316
 7266 16ed EE0F0000 		.4byte	0xfee
 7267 16f1 08170000 		.4byte	0x1708
 7268 16f5 21       		.uleb128 0x21
 7269 16f6 01       		.uleb128 0x1
 7270 16f7 50       		.byte	0x50
 7271 16f8 02       		.uleb128 0x2
 7272 16f9 74       		.byte	0x74
 7273 16fa 00       		.sleb128 0
 7274 16fb 21       		.uleb128 0x21
 7275 16fc 01       		.uleb128 0x1
 7276 16fd 51       		.byte	0x51
 7277 16fe 03       		.uleb128 0x3
 7278 16ff 0A       		.byte	0xa
 7279 1700 0310     		.2byte	0x1003
 7280 1702 21       		.uleb128 0x21
 7281 1703 01       		.uleb128 0x1
 7282 1704 52       		.byte	0x52
 7283 1705 01       		.uleb128 0x1
 7284 1706 30       		.byte	0x30
 7285 1707 00       		.byte	0
 7286 1708 25       		.uleb128 0x25
 7287 1709 B8010000 		.4byte	.LVL323
 7288 170d 1B170000 		.4byte	0x171b
 7289 1711 21       		.uleb128 0x21
 7290 1712 01       		.uleb128 0x1
 7291 1713 51       		.byte	0x51
 7292 1714 05       		.uleb128 0x5
 7293 1715 03       		.byte	0x3
 7294 1716 29020000 		.4byte	.LC57
 7295 171a 00       		.byte	0
 7296 171b 2D       		.uleb128 0x2d
 7297 171c C2010000 		.4byte	.LVL324
 7298 1720 EE0F0000 		.4byte	0xfee
ARM GAS  C:\Users\chemi\AppData\Local\Temp\cc0tO343.s 			page 161


 7299 1724 39170000 		.4byte	0x1739
 7300 1728 21       		.uleb128 0x21
 7301 1729 01       		.uleb128 0x1
 7302 172a 50       		.byte	0x50
 7303 172b 02       		.uleb128 0x2
 7304 172c 74       		.byte	0x74
 7305 172d 00       		.sleb128 0
 7306 172e 21       		.uleb128 0x21
 7307 172f 01       		.uleb128 0x1
 7308 1730 51       		.byte	0x51
 7309 1731 01       		.uleb128 0x1
 7310 1732 41       		.byte	0x41
 7311 1733 21       		.uleb128 0x21
 7312 1734 01       		.uleb128 0x1
 7313 1735 52       		.byte	0x52
 7314 1736 01       		.uleb128 0x1
 7315 1737 30       		.byte	0x30
 7316 1738 00       		.byte	0
 7317 1739 25       		.uleb128 0x25
 7318 173a D8010000 		.4byte	.LVL325
 7319 173e 4C170000 		.4byte	0x174c
 7320 1742 21       		.uleb128 0x21
 7321 1743 01       		.uleb128 0x1
 7322 1744 51       		.byte	0x51
 7323 1745 05       		.uleb128 0x5
 7324 1746 03       		.byte	0x3
 7325 1747 2B020000 		.4byte	.LC58
 7326 174b 00       		.byte	0
 7327 174c 2D       		.uleb128 0x2d
 7328 174d E8010000 		.4byte	.LVL326
 7329 1751 EE0F0000 		.4byte	0xfee
 7330 1755 65170000 		.4byte	0x1765
 7331 1759 21       		.uleb128 0x21
 7332 175a 01       		.uleb128 0x1
 7333 175b 50       		.byte	0x50
 7334 175c 02       		.uleb128 0x2
 7335 175d 74       		.byte	0x74
 7336 175e 00       		.sleb128 0
 7337 175f 21       		.uleb128 0x21
 7338 1760 01       		.uleb128 0x1
 7339 1761 51       		.byte	0x51
 7340 1762 01       		.uleb128 0x1
 7341 1763 42       		.byte	0x42
 7342 1764 00       		.byte	0
 7343 1765 25       		.uleb128 0x25
 7344 1766 02020000 		.4byte	.LVL327
 7345 176a 78170000 		.4byte	0x1778
 7346 176e 21       		.uleb128 0x21
 7347 176f 01       		.uleb128 0x1
 7348 1770 51       		.byte	0x51
 7349 1771 05       		.uleb128 0x5
 7350 1772 03       		.byte	0x3
 7351 1773 2E020000 		.4byte	.LC59
 7352 1777 00       		.byte	0
 7353 1778 2D       		.uleb128 0x2d
 7354 1779 10020000 		.4byte	.LVL331
 7355 177d AD080000 		.4byte	0x8ad
ARM GAS  C:\Users\chemi\AppData\Local\Temp\cc0tO343.s 			page 162


 7356 1781 91170000 		.4byte	0x1791
 7357 1785 21       		.uleb128 0x21
 7358 1786 01       		.uleb128 0x1
 7359 1787 50       		.byte	0x50
 7360 1788 02       		.uleb128 0x2
 7361 1789 74       		.byte	0x74
 7362 178a 00       		.sleb128 0
 7363 178b 21       		.uleb128 0x21
 7364 178c 01       		.uleb128 0x1
 7365 178d 51       		.byte	0x51
 7366 178e 01       		.uleb128 0x1
 7367 178f 33       		.byte	0x33
 7368 1790 00       		.byte	0
 7369 1791 2D       		.uleb128 0x2d
 7370 1792 26020000 		.4byte	.LVL332
 7371 1796 EE0F0000 		.4byte	0xfee
 7372 179a AA170000 		.4byte	0x17aa
 7373 179e 21       		.uleb128 0x21
 7374 179f 01       		.uleb128 0x1
 7375 17a0 50       		.byte	0x50
 7376 17a1 02       		.uleb128 0x2
 7377 17a2 74       		.byte	0x74
 7378 17a3 00       		.sleb128 0
 7379 17a4 21       		.uleb128 0x21
 7380 17a5 01       		.uleb128 0x1
 7381 17a6 51       		.byte	0x51
 7382 17a7 01       		.uleb128 0x1
 7383 17a8 43       		.byte	0x43
 7384 17a9 00       		.byte	0
 7385 17aa 2D       		.uleb128 0x2d
 7386 17ab 34020000 		.4byte	.LVL336
 7387 17af AD080000 		.4byte	0x8ad
 7388 17b3 C3170000 		.4byte	0x17c3
 7389 17b7 21       		.uleb128 0x21
 7390 17b8 01       		.uleb128 0x1
 7391 17b9 50       		.byte	0x50
 7392 17ba 02       		.uleb128 0x2
 7393 17bb 74       		.byte	0x74
 7394 17bc 00       		.sleb128 0
 7395 17bd 21       		.uleb128 0x21
 7396 17be 01       		.uleb128 0x1
 7397 17bf 51       		.byte	0x51
 7398 17c0 01       		.uleb128 0x1
 7399 17c1 33       		.byte	0x33
 7400 17c2 00       		.byte	0
 7401 17c3 2D       		.uleb128 0x2d
 7402 17c4 46020000 		.4byte	.LVL337
 7403 17c8 EE0F0000 		.4byte	0xfee
 7404 17cc DC170000 		.4byte	0x17dc
 7405 17d0 21       		.uleb128 0x21
 7406 17d1 01       		.uleb128 0x1
 7407 17d2 50       		.byte	0x50
 7408 17d3 02       		.uleb128 0x2
 7409 17d4 74       		.byte	0x74
 7410 17d5 00       		.sleb128 0
 7411 17d6 21       		.uleb128 0x21
 7412 17d7 01       		.uleb128 0x1
ARM GAS  C:\Users\chemi\AppData\Local\Temp\cc0tO343.s 			page 163


 7413 17d8 51       		.byte	0x51
 7414 17d9 01       		.uleb128 0x1
 7415 17da 42       		.byte	0x42
 7416 17db 00       		.byte	0
 7417 17dc 2D       		.uleb128 0x2d
 7418 17dd 52020000 		.4byte	.LVL341
 7419 17e1 AD080000 		.4byte	0x8ad
 7420 17e5 F5170000 		.4byte	0x17f5
 7421 17e9 21       		.uleb128 0x21
 7422 17ea 01       		.uleb128 0x1
 7423 17eb 50       		.byte	0x50
 7424 17ec 02       		.uleb128 0x2
 7425 17ed 74       		.byte	0x74
 7426 17ee 00       		.sleb128 0
 7427 17ef 21       		.uleb128 0x21
 7428 17f0 01       		.uleb128 0x1
 7429 17f1 51       		.byte	0x51
 7430 17f2 01       		.uleb128 0x1
 7431 17f3 33       		.byte	0x33
 7432 17f4 00       		.byte	0
 7433 17f5 2D       		.uleb128 0x2d
 7434 17f6 70020000 		.4byte	.LVL345
 7435 17fa AD080000 		.4byte	0x8ad
 7436 17fe 0E180000 		.4byte	0x180e
 7437 1802 21       		.uleb128 0x21
 7438 1803 01       		.uleb128 0x1
 7439 1804 50       		.byte	0x50
 7440 1805 02       		.uleb128 0x2
 7441 1806 74       		.byte	0x74
 7442 1807 00       		.sleb128 0
 7443 1808 21       		.uleb128 0x21
 7444 1809 01       		.uleb128 0x1
 7445 180a 51       		.byte	0x51
 7446 180b 01       		.uleb128 0x1
 7447 180c 33       		.byte	0x33
 7448 180d 00       		.byte	0
 7449 180e 2D       		.uleb128 0x2d
 7450 180f 86020000 		.4byte	.LVL346
 7451 1813 EE0F0000 		.4byte	0xfee
 7452 1817 22180000 		.4byte	0x1822
 7453 181b 21       		.uleb128 0x21
 7454 181c 01       		.uleb128 0x1
 7455 181d 50       		.byte	0x50
 7456 181e 02       		.uleb128 0x2
 7457 181f 74       		.byte	0x74
 7458 1820 00       		.sleb128 0
 7459 1821 00       		.byte	0
 7460 1822 2D       		.uleb128 0x2d
 7461 1823 90020000 		.4byte	.LVL350
 7462 1827 AD080000 		.4byte	0x8ad
 7463 182b 3B180000 		.4byte	0x183b
 7464 182f 21       		.uleb128 0x21
 7465 1830 01       		.uleb128 0x1
 7466 1831 50       		.byte	0x50
 7467 1832 02       		.uleb128 0x2
 7468 1833 74       		.byte	0x74
 7469 1834 00       		.sleb128 0
ARM GAS  C:\Users\chemi\AppData\Local\Temp\cc0tO343.s 			page 164


 7470 1835 21       		.uleb128 0x21
 7471 1836 01       		.uleb128 0x1
 7472 1837 51       		.byte	0x51
 7473 1838 01       		.uleb128 0x1
 7474 1839 31       		.byte	0x31
 7475 183a 00       		.byte	0
 7476 183b 2D       		.uleb128 0x2d
 7477 183c B6020000 		.4byte	.LVL354
 7478 1840 AD080000 		.4byte	0x8ad
 7479 1844 54180000 		.4byte	0x1854
 7480 1848 21       		.uleb128 0x21
 7481 1849 01       		.uleb128 0x1
 7482 184a 50       		.byte	0x50
 7483 184b 02       		.uleb128 0x2
 7484 184c 74       		.byte	0x74
 7485 184d 00       		.sleb128 0
 7486 184e 21       		.uleb128 0x21
 7487 184f 01       		.uleb128 0x1
 7488 1850 51       		.byte	0x51
 7489 1851 01       		.uleb128 0x1
 7490 1852 31       		.byte	0x31
 7491 1853 00       		.byte	0
 7492 1854 2D       		.uleb128 0x2d
 7493 1855 E2020000 		.4byte	.LVL355
 7494 1859 EE0F0000 		.4byte	0xfee
 7495 185d 72180000 		.4byte	0x1872
 7496 1861 21       		.uleb128 0x21
 7497 1862 01       		.uleb128 0x1
 7498 1863 50       		.byte	0x50
 7499 1864 02       		.uleb128 0x2
 7500 1865 74       		.byte	0x74
 7501 1866 00       		.sleb128 0
 7502 1867 21       		.uleb128 0x21
 7503 1868 01       		.uleb128 0x1
 7504 1869 51       		.byte	0x51
 7505 186a 01       		.uleb128 0x1
 7506 186b 3C       		.byte	0x3c
 7507 186c 21       		.uleb128 0x21
 7508 186d 01       		.uleb128 0x1
 7509 186e 52       		.byte	0x52
 7510 186f 01       		.uleb128 0x1
 7511 1870 30       		.byte	0x30
 7512 1871 00       		.byte	0
 7513 1872 2D       		.uleb128 0x2d
 7514 1873 1C030000 		.4byte	.LVL359
 7515 1877 AD080000 		.4byte	0x8ad
 7516 187b 8B180000 		.4byte	0x188b
 7517 187f 21       		.uleb128 0x21
 7518 1880 01       		.uleb128 0x1
 7519 1881 50       		.byte	0x50
 7520 1882 02       		.uleb128 0x2
 7521 1883 74       		.byte	0x74
 7522 1884 00       		.sleb128 0
 7523 1885 21       		.uleb128 0x21
 7524 1886 01       		.uleb128 0x1
 7525 1887 51       		.byte	0x51
 7526 1888 01       		.uleb128 0x1
ARM GAS  C:\Users\chemi\AppData\Local\Temp\cc0tO343.s 			page 165


 7527 1889 32       		.byte	0x32
 7528 188a 00       		.byte	0
 7529 188b 2D       		.uleb128 0x2d
 7530 188c 26030000 		.4byte	.LVL360
 7531 1890 F11E0000 		.4byte	0x1ef1
 7532 1894 9F180000 		.4byte	0x189f
 7533 1898 21       		.uleb128 0x21
 7534 1899 01       		.uleb128 0x1
 7535 189a 50       		.byte	0x50
 7536 189b 02       		.uleb128 0x2
 7537 189c 74       		.byte	0x74
 7538 189d 00       		.sleb128 0
 7539 189e 00       		.byte	0
 7540 189f 2D       		.uleb128 0x2d
 7541 18a0 B0030000 		.4byte	.LVL374
 7542 18a4 AD080000 		.4byte	0x8ad
 7543 18a8 B8180000 		.4byte	0x18b8
 7544 18ac 21       		.uleb128 0x21
 7545 18ad 01       		.uleb128 0x1
 7546 18ae 50       		.byte	0x50
 7547 18af 02       		.uleb128 0x2
 7548 18b0 74       		.byte	0x74
 7549 18b1 00       		.sleb128 0
 7550 18b2 21       		.uleb128 0x21
 7551 18b3 01       		.uleb128 0x1
 7552 18b4 51       		.byte	0x51
 7553 18b5 01       		.uleb128 0x1
 7554 18b6 32       		.byte	0x32
 7555 18b7 00       		.byte	0
 7556 18b8 2D       		.uleb128 0x2d
 7557 18b9 BA030000 		.4byte	.LVL375
 7558 18bd F11E0000 		.4byte	0x1ef1
 7559 18c1 CC180000 		.4byte	0x18cc
 7560 18c5 21       		.uleb128 0x21
 7561 18c6 01       		.uleb128 0x1
 7562 18c7 50       		.byte	0x50
 7563 18c8 02       		.uleb128 0x2
 7564 18c9 74       		.byte	0x74
 7565 18ca 00       		.sleb128 0
 7566 18cb 00       		.byte	0
 7567 18cc 25       		.uleb128 0x25
 7568 18cd DC030000 		.4byte	.LVL376
 7569 18d1 DF180000 		.4byte	0x18df
 7570 18d5 21       		.uleb128 0x21
 7571 18d6 01       		.uleb128 0x1
 7572 18d7 51       		.byte	0x51
 7573 18d8 05       		.uleb128 0x5
 7574 18d9 03       		.byte	0x3
 7575 18da 32020000 		.4byte	.LC60
 7576 18de 00       		.byte	0
 7577 18df 2D       		.uleb128 0x2d
 7578 18e0 E6030000 		.4byte	.LVL377
 7579 18e4 EE0F0000 		.4byte	0xfee
 7580 18e8 FD180000 		.4byte	0x18fd
 7581 18ec 21       		.uleb128 0x21
 7582 18ed 01       		.uleb128 0x1
 7583 18ee 50       		.byte	0x50
ARM GAS  C:\Users\chemi\AppData\Local\Temp\cc0tO343.s 			page 166


 7584 18ef 02       		.uleb128 0x2
 7585 18f0 74       		.byte	0x74
 7586 18f1 00       		.sleb128 0
 7587 18f2 21       		.uleb128 0x21
 7588 18f3 01       		.uleb128 0x1
 7589 18f4 51       		.byte	0x51
 7590 18f5 01       		.uleb128 0x1
 7591 18f6 3C       		.byte	0x3c
 7592 18f7 21       		.uleb128 0x21
 7593 18f8 01       		.uleb128 0x1
 7594 18f9 52       		.byte	0x52
 7595 18fa 01       		.uleb128 0x1
 7596 18fb 30       		.byte	0x30
 7597 18fc 00       		.byte	0
 7598 18fd 3F       		.uleb128 0x3f
 7599 18fe 00040000 		.4byte	.LVL378
 7600 1902 02       		.uleb128 0x2
 7601 1903 75       		.byte	0x75
 7602 1904 00       		.sleb128 0
 7603 1905 1C190000 		.4byte	0x191c
 7604 1909 21       		.uleb128 0x21
 7605 190a 01       		.uleb128 0x1
 7606 190b 51       		.byte	0x51
 7607 190c 05       		.uleb128 0x5
 7608 190d 03       		.byte	0x3
 7609 190e F6010000 		.4byte	.LC52
 7610 1912 21       		.uleb128 0x21
 7611 1913 01       		.uleb128 0x1
 7612 1914 53       		.byte	0x53
 7613 1915 05       		.uleb128 0x5
 7614 1916 03       		.byte	0x3
 7615 1917 00000000 		.4byte	.LC0
 7616 191b 00       		.byte	0
 7617 191c 2D       		.uleb128 0x2d
 7618 191d 52040000 		.4byte	.LVL387
 7619 1921 3C110000 		.4byte	0x113c
 7620 1925 30190000 		.4byte	0x1930
 7621 1929 21       		.uleb128 0x21
 7622 192a 01       		.uleb128 0x1
 7623 192b 50       		.byte	0x50
 7624 192c 02       		.uleb128 0x2
 7625 192d 74       		.byte	0x74
 7626 192e 00       		.sleb128 0
 7627 192f 00       		.byte	0
 7628 1930 2D       		.uleb128 0x2d
 7629 1931 5C040000 		.4byte	.LVL391
 7630 1935 AD080000 		.4byte	0x8ad
 7631 1939 49190000 		.4byte	0x1949
 7632 193d 21       		.uleb128 0x21
 7633 193e 01       		.uleb128 0x1
 7634 193f 50       		.byte	0x50
 7635 1940 02       		.uleb128 0x2
 7636 1941 74       		.byte	0x74
 7637 1942 00       		.sleb128 0
 7638 1943 21       		.uleb128 0x21
 7639 1944 01       		.uleb128 0x1
 7640 1945 51       		.byte	0x51
ARM GAS  C:\Users\chemi\AppData\Local\Temp\cc0tO343.s 			page 167


 7641 1946 01       		.uleb128 0x1
 7642 1947 33       		.byte	0x33
 7643 1948 00       		.byte	0
 7644 1949 2D       		.uleb128 0x2d
 7645 194a 70040000 		.4byte	.LVL392
 7646 194e E3050000 		.4byte	0x5e3
 7647 1952 5C190000 		.4byte	0x195c
 7648 1956 21       		.uleb128 0x21
 7649 1957 01       		.uleb128 0x1
 7650 1958 52       		.byte	0x52
 7651 1959 01       		.uleb128 0x1
 7652 195a 31       		.byte	0x31
 7653 195b 00       		.byte	0
 7654 195c 2D       		.uleb128 0x2d
 7655 195d 80040000 		.4byte	.LVL393
 7656 1961 EE0F0000 		.4byte	0xfee
 7657 1965 7B190000 		.4byte	0x197b
 7658 1969 21       		.uleb128 0x21
 7659 196a 01       		.uleb128 0x1
 7660 196b 50       		.byte	0x50
 7661 196c 02       		.uleb128 0x2
 7662 196d 74       		.byte	0x74
 7663 196e 00       		.sleb128 0
 7664 196f 21       		.uleb128 0x21
 7665 1970 01       		.uleb128 0x1
 7666 1971 51       		.byte	0x51
 7667 1972 01       		.uleb128 0x1
 7668 1973 41       		.byte	0x41
 7669 1974 21       		.uleb128 0x21
 7670 1975 01       		.uleb128 0x1
 7671 1976 52       		.byte	0x52
 7672 1977 02       		.uleb128 0x2
 7673 1978 76       		.byte	0x76
 7674 1979 00       		.sleb128 0
 7675 197a 00       		.byte	0
 7676 197b 25       		.uleb128 0x25
 7677 197c 94040000 		.4byte	.LVL394
 7678 1980 8E190000 		.4byte	0x198e
 7679 1984 21       		.uleb128 0x21
 7680 1985 01       		.uleb128 0x1
 7681 1986 51       		.byte	0x51
 7682 1987 05       		.uleb128 0x5
 7683 1988 03       		.byte	0x3
 7684 1989 2B020000 		.4byte	.LC58
 7685 198d 00       		.byte	0
 7686 198e 2D       		.uleb128 0x2d
 7687 198f A4040000 		.4byte	.LVL395
 7688 1993 EE0F0000 		.4byte	0xfee
 7689 1997 A7190000 		.4byte	0x19a7
 7690 199b 21       		.uleb128 0x21
 7691 199c 01       		.uleb128 0x1
 7692 199d 50       		.byte	0x50
 7693 199e 02       		.uleb128 0x2
 7694 199f 74       		.byte	0x74
 7695 19a0 00       		.sleb128 0
 7696 19a1 21       		.uleb128 0x21
 7697 19a2 01       		.uleb128 0x1
ARM GAS  C:\Users\chemi\AppData\Local\Temp\cc0tO343.s 			page 168


 7698 19a3 51       		.byte	0x51
 7699 19a4 01       		.uleb128 0x1
 7700 19a5 42       		.byte	0x42
 7701 19a6 00       		.byte	0
 7702 19a7 25       		.uleb128 0x25
 7703 19a8 DC040000 		.4byte	.LVL396
 7704 19ac C0190000 		.4byte	0x19c0
 7705 19b0 21       		.uleb128 0x21
 7706 19b1 01       		.uleb128 0x1
 7707 19b2 51       		.byte	0x51
 7708 19b3 05       		.uleb128 0x5
 7709 19b4 03       		.byte	0x3
 7710 19b5 34020000 		.4byte	.LC61
 7711 19b9 21       		.uleb128 0x21
 7712 19ba 01       		.uleb128 0x1
 7713 19bb 52       		.byte	0x52
 7714 19bc 02       		.uleb128 0x2
 7715 19bd 75       		.byte	0x75
 7716 19be 00       		.sleb128 0
 7717 19bf 00       		.byte	0
 7718 19c0 2E       		.uleb128 0x2e
 7719 19c1 FC040000 		.4byte	.LVL400
 7720 19c5 35100000 		.4byte	0x1035
 7721 19c9 21       		.uleb128 0x21
 7722 19ca 01       		.uleb128 0x1
 7723 19cb 50       		.byte	0x50
 7724 19cc 02       		.uleb128 0x2
 7725 19cd 74       		.byte	0x74
 7726 19ce 00       		.sleb128 0
 7727 19cf 21       		.uleb128 0x21
 7728 19d0 01       		.uleb128 0x1
 7729 19d1 51       		.byte	0x51
 7730 19d2 05       		.uleb128 0x5
 7731 19d3 03       		.byte	0x3
 7732 19d4 37020000 		.4byte	.LC62
 7733 19d8 21       		.uleb128 0x21
 7734 19d9 01       		.uleb128 0x1
 7735 19da 52       		.byte	0x52
 7736 19db 02       		.uleb128 0x2
 7737 19dc 75       		.byte	0x75
 7738 19dd 00       		.sleb128 0
 7739 19de 00       		.byte	0
 7740 19df 00       		.byte	0
 7741 19e0 00       		.byte	0
 7742 19e1 41       		.uleb128 0x41
 7743 19e2 1F050000 		.4byte	.LASF176
 7744 19e6 01       		.byte	0x1
 7745 19e7 9A       		.byte	0x9a
 7746 19e8 97000000 		.4byte	0x97
 7747 19ec 00000000 		.4byte	.LFB72
 7748 19f0 64010000 		.4byte	.LFE72-.LFB72
 7749 19f4 01       		.uleb128 0x1
 7750 19f5 9C       		.byte	0x9c
 7751 19f6 651A0000 		.4byte	0x1a65
 7752 19fa 23       		.uleb128 0x23
 7753 19fb C1050000 		.4byte	.LASF130
 7754 19ff 01       		.byte	0x1
ARM GAS  C:\Users\chemi\AppData\Local\Temp\cc0tO343.s 			page 169


 7755 1a00 9A       		.byte	0x9a
 7756 1a01 2A010000 		.4byte	0x12a
 7757 1a05 F8180000 		.4byte	.LLST98
 7758 1a09 23       		.uleb128 0x23
 7759 1a0a BC090000 		.4byte	.LASF145
 7760 1a0e 01       		.byte	0x1
 7761 1a0f 9A       		.byte	0x9a
 7762 1a10 A2000000 		.4byte	0xa2
 7763 1a14 19190000 		.4byte	.LLST99
 7764 1a18 23       		.uleb128 0x23
 7765 1a19 8C060000 		.4byte	.LASF123
 7766 1a1d 01       		.byte	0x1
 7767 1a1e 9A       		.byte	0x9a
 7768 1a1f F4030000 		.4byte	0x3f4
 7769 1a23 3A190000 		.4byte	.LLST100
 7770 1a27 24       		.uleb128 0x24
 7771 1a28 E6060000 		.4byte	.LASF127
 7772 1a2c 01       		.byte	0x1
 7773 1a2d 9B       		.byte	0x9b
 7774 1a2e A2000000 		.4byte	0xa2
 7775 1a32 C6190000 		.4byte	.LLST101
 7776 1a36 2D       		.uleb128 0x2d
 7777 1a37 60000000 		.4byte	.LVL406
 7778 1a3b B9060000 		.4byte	0x6b9
 7779 1a3f 491A0000 		.4byte	0x1a49
 7780 1a43 21       		.uleb128 0x21
 7781 1a44 01       		.uleb128 0x1
 7782 1a45 50       		.byte	0x50
 7783 1a46 01       		.uleb128 0x1
 7784 1a47 4B       		.byte	0x4b
 7785 1a48 00       		.byte	0
 7786 1a49 26       		.uleb128 0x26
 7787 1a4a 6E000000 		.4byte	.LVL407
 7788 1a4e 2E080000 		.4byte	0x82e
 7789 1a52 26       		.uleb128 0x26
 7790 1a53 22010000 		.4byte	.LVL409
 7791 1a57 B9060000 		.4byte	0x6b9
 7792 1a5b 26       		.uleb128 0x26
 7793 1a5c 58010000 		.4byte	.LVL413
 7794 1a60 B9060000 		.4byte	0x6b9
 7795 1a64 00       		.byte	0
 7796 1a65 2A       		.uleb128 0x2a
 7797 1a66 490A0000 		.4byte	.LASF177
 7798 1a6a 01       		.byte	0x1
 7799 1a6b 7003     		.2byte	0x370
 7800 1a6d 00000000 		.4byte	.LFB91
 7801 1a71 E0000000 		.4byte	.LFE91-.LFB91
 7802 1a75 01       		.uleb128 0x1
 7803 1a76 9C       		.byte	0x9c
 7804 1a77 2F1C0000 		.4byte	0x1c2f
 7805 1a7b 2B       		.uleb128 0x2b
 7806 1a7c 8C060000 		.4byte	.LASF123
 7807 1a80 01       		.byte	0x1
 7808 1a81 7003     		.2byte	0x370
 7809 1a83 F4030000 		.4byte	0x3f4
 7810 1a87 0F1A0000 		.4byte	.LLST102
 7811 1a8b 2B       		.uleb128 0x2b
ARM GAS  C:\Users\chemi\AppData\Local\Temp\cc0tO343.s 			page 170


 7812 1a8c 680B0000 		.4byte	.LASF178
 7813 1a90 01       		.byte	0x1
 7814 1a91 7003     		.2byte	0x370
 7815 1a93 97000000 		.4byte	0x97
 7816 1a97 461A0000 		.4byte	.LLST103
 7817 1a9b 2B       		.uleb128 0x2b
 7818 1a9c 830A0000 		.4byte	.LASF179
 7819 1aa0 01       		.byte	0x1
 7820 1aa1 7003     		.2byte	0x370
 7821 1aa3 97000000 		.4byte	0x97
 7822 1aa7 671A0000 		.4byte	.LLST104
 7823 1aab 2B       		.uleb128 0x2b
 7824 1aac 6D0B0000 		.4byte	.LASF180
 7825 1ab0 01       		.byte	0x1
 7826 1ab1 7003     		.2byte	0x370
 7827 1ab3 97000000 		.4byte	0x97
 7828 1ab7 881A0000 		.4byte	.LLST105
 7829 1abb 2B       		.uleb128 0x2b
 7830 1abc 93010000 		.4byte	.LASF181
 7831 1ac0 01       		.byte	0x1
 7832 1ac1 7003     		.2byte	0x370
 7833 1ac3 97000000 		.4byte	0x97
 7834 1ac7 A91A0000 		.4byte	.LLST106
 7835 1acb 2C       		.uleb128 0x2c
 7836 1acc 6900     		.ascii	"i\000"
 7837 1ace 01       		.byte	0x1
 7838 1acf 7403     		.2byte	0x374
 7839 1ad1 89000000 		.4byte	0x89
 7840 1ad5 C91A0000 		.4byte	.LLST107
 7841 1ad9 2D       		.uleb128 0x2d
 7842 1ada 20000000 		.4byte	.LVL419
 7843 1ade 980F0000 		.4byte	0xf98
 7844 1ae2 F91A0000 		.4byte	0x1af9
 7845 1ae6 21       		.uleb128 0x21
 7846 1ae7 01       		.uleb128 0x1
 7847 1ae8 50       		.byte	0x50
 7848 1ae9 02       		.uleb128 0x2
 7849 1aea 74       		.byte	0x74
 7850 1aeb 00       		.sleb128 0
 7851 1aec 21       		.uleb128 0x21
 7852 1aed 01       		.uleb128 0x1
 7853 1aee 51       		.byte	0x51
 7854 1aef 02       		.uleb128 0x2
 7855 1af0 7B       		.byte	0x7b
 7856 1af1 00       		.sleb128 0
 7857 1af2 21       		.uleb128 0x21
 7858 1af3 01       		.uleb128 0x1
 7859 1af4 52       		.byte	0x52
 7860 1af5 02       		.uleb128 0x2
 7861 1af6 79       		.byte	0x79
 7862 1af7 00       		.sleb128 0
 7863 1af8 00       		.byte	0
 7864 1af9 2D       		.uleb128 0x2d
 7865 1afa 2A000000 		.4byte	.LVL420
 7866 1afe EE0F0000 		.4byte	0xfee
 7867 1b02 171B0000 		.4byte	0x1b17
 7868 1b06 21       		.uleb128 0x21
ARM GAS  C:\Users\chemi\AppData\Local\Temp\cc0tO343.s 			page 171


 7869 1b07 01       		.uleb128 0x1
 7870 1b08 50       		.byte	0x50
 7871 1b09 02       		.uleb128 0x2
 7872 1b0a 74       		.byte	0x74
 7873 1b0b 00       		.sleb128 0
 7874 1b0c 21       		.uleb128 0x21
 7875 1b0d 01       		.uleb128 0x1
 7876 1b0e 51       		.byte	0x51
 7877 1b0f 01       		.uleb128 0x1
 7878 1b10 33       		.byte	0x33
 7879 1b11 21       		.uleb128 0x21
 7880 1b12 01       		.uleb128 0x1
 7881 1b13 52       		.byte	0x52
 7882 1b14 01       		.uleb128 0x1
 7883 1b15 34       		.byte	0x34
 7884 1b16 00       		.byte	0
 7885 1b17 25       		.uleb128 0x25
 7886 1b18 32000000 		.4byte	.LVL421
 7887 1b1c 2A1B0000 		.4byte	0x1b2a
 7888 1b20 21       		.uleb128 0x21
 7889 1b21 01       		.uleb128 0x1
 7890 1b22 51       		.byte	0x51
 7891 1b23 05       		.uleb128 0x5
 7892 1b24 03       		.byte	0x3
 7893 1b25 57020000 		.4byte	.LC63
 7894 1b29 00       		.byte	0
 7895 1b2a 25       		.uleb128 0x25
 7896 1b2b 44000000 		.4byte	.LVL423
 7897 1b2f 3D1B0000 		.4byte	0x1b3d
 7898 1b33 21       		.uleb128 0x21
 7899 1b34 01       		.uleb128 0x1
 7900 1b35 51       		.byte	0x51
 7901 1b36 05       		.uleb128 0x5
 7902 1b37 03       		.byte	0x3
 7903 1b38 5B020000 		.4byte	.LC64
 7904 1b3c 00       		.byte	0
 7905 1b3d 25       		.uleb128 0x25
 7906 1b3e 4E000000 		.4byte	.LVL425
 7907 1b42 501B0000 		.4byte	0x1b50
 7908 1b46 21       		.uleb128 0x21
 7909 1b47 01       		.uleb128 0x1
 7910 1b48 51       		.byte	0x51
 7911 1b49 05       		.uleb128 0x5
 7912 1b4a 03       		.byte	0x3
 7913 1b4b 5F020000 		.4byte	.LC65
 7914 1b4f 00       		.byte	0
 7915 1b50 2D       		.uleb128 0x2d
 7916 1b51 6E000000 		.4byte	.LVL427
 7917 1b55 980F0000 		.4byte	0xf98
 7918 1b59 721B0000 		.4byte	0x1b72
 7919 1b5d 21       		.uleb128 0x21
 7920 1b5e 01       		.uleb128 0x1
 7921 1b5f 50       		.byte	0x50
 7922 1b60 02       		.uleb128 0x2
 7923 1b61 74       		.byte	0x74
 7924 1b62 00       		.sleb128 0
 7925 1b63 21       		.uleb128 0x21
ARM GAS  C:\Users\chemi\AppData\Local\Temp\cc0tO343.s 			page 172


 7926 1b64 01       		.uleb128 0x1
 7927 1b65 51       		.byte	0x51
 7928 1b66 04       		.uleb128 0x4
 7929 1b67 91       		.byte	0x91
 7930 1b68 54       		.sleb128 -44
 7931 1b69 94       		.byte	0x94
 7932 1b6a 02       		.byte	0x2
 7933 1b6b 21       		.uleb128 0x21
 7934 1b6c 01       		.uleb128 0x1
 7935 1b6d 52       		.byte	0x52
 7936 1b6e 02       		.uleb128 0x2
 7937 1b6f 79       		.byte	0x79
 7938 1b70 00       		.sleb128 0
 7939 1b71 00       		.byte	0
 7940 1b72 25       		.uleb128 0x25
 7941 1b73 76000000 		.4byte	.LVL428
 7942 1b77 851B0000 		.4byte	0x1b85
 7943 1b7b 21       		.uleb128 0x21
 7944 1b7c 01       		.uleb128 0x1
 7945 1b7d 51       		.byte	0x51
 7946 1b7e 05       		.uleb128 0x5
 7947 1b7f 03       		.byte	0x3
 7948 1b80 63020000 		.4byte	.LC66
 7949 1b84 00       		.byte	0
 7950 1b85 2D       		.uleb128 0x2d
 7951 1b86 82000000 		.4byte	.LVL429
 7952 1b8a 980F0000 		.4byte	0xf98
 7953 1b8e A71B0000 		.4byte	0x1ba7
 7954 1b92 21       		.uleb128 0x21
 7955 1b93 01       		.uleb128 0x1
 7956 1b94 50       		.byte	0x50
 7957 1b95 02       		.uleb128 0x2
 7958 1b96 74       		.byte	0x74
 7959 1b97 00       		.sleb128 0
 7960 1b98 21       		.uleb128 0x21
 7961 1b99 01       		.uleb128 0x1
 7962 1b9a 51       		.byte	0x51
 7963 1b9b 04       		.uleb128 0x4
 7964 1b9c 91       		.byte	0x91
 7965 1b9d 54       		.sleb128 -44
 7966 1b9e 94       		.byte	0x94
 7967 1b9f 02       		.byte	0x2
 7968 1ba0 21       		.uleb128 0x21
 7969 1ba1 01       		.uleb128 0x1
 7970 1ba2 52       		.byte	0x52
 7971 1ba3 02       		.uleb128 0x2
 7972 1ba4 78       		.byte	0x78
 7973 1ba5 00       		.sleb128 0
 7974 1ba6 00       		.byte	0
 7975 1ba7 25       		.uleb128 0x25
 7976 1ba8 8A000000 		.4byte	.LVL430
 7977 1bac BA1B0000 		.4byte	0x1bba
 7978 1bb0 21       		.uleb128 0x21
 7979 1bb1 01       		.uleb128 0x1
 7980 1bb2 51       		.byte	0x51
 7981 1bb3 05       		.uleb128 0x5
 7982 1bb4 03       		.byte	0x3
ARM GAS  C:\Users\chemi\AppData\Local\Temp\cc0tO343.s 			page 173


 7983 1bb5 63020000 		.4byte	.LC66
 7984 1bb9 00       		.byte	0
 7985 1bba 2D       		.uleb128 0x2d
 7986 1bbb 98000000 		.4byte	.LVL432
 7987 1bbf 980F0000 		.4byte	0xf98
 7988 1bc3 DA1B0000 		.4byte	0x1bda
 7989 1bc7 21       		.uleb128 0x21
 7990 1bc8 01       		.uleb128 0x1
 7991 1bc9 50       		.byte	0x50
 7992 1bca 02       		.uleb128 0x2
 7993 1bcb 74       		.byte	0x74
 7994 1bcc 00       		.sleb128 0
 7995 1bcd 21       		.uleb128 0x21
 7996 1bce 01       		.uleb128 0x1
 7997 1bcf 51       		.byte	0x51
 7998 1bd0 02       		.uleb128 0x2
 7999 1bd1 7A       		.byte	0x7a
 8000 1bd2 00       		.sleb128 0
 8001 1bd3 21       		.uleb128 0x21
 8002 1bd4 01       		.uleb128 0x1
 8003 1bd5 52       		.byte	0x52
 8004 1bd6 02       		.uleb128 0x2
 8005 1bd7 79       		.byte	0x79
 8006 1bd8 00       		.sleb128 0
 8007 1bd9 00       		.byte	0
 8008 1bda 25       		.uleb128 0x25
 8009 1bdb A0000000 		.4byte	.LVL433
 8010 1bdf ED1B0000 		.4byte	0x1bed
 8011 1be3 21       		.uleb128 0x21
 8012 1be4 01       		.uleb128 0x1
 8013 1be5 51       		.byte	0x51
 8014 1be6 05       		.uleb128 0x5
 8015 1be7 03       		.byte	0x3
 8016 1be8 67020000 		.4byte	.LC67
 8017 1bec 00       		.byte	0
 8018 1bed 25       		.uleb128 0x25
 8019 1bee AE000000 		.4byte	.LVL435
 8020 1bf2 001C0000 		.4byte	0x1c00
 8021 1bf6 21       		.uleb128 0x21
 8022 1bf7 01       		.uleb128 0x1
 8023 1bf8 51       		.byte	0x51
 8024 1bf9 05       		.uleb128 0x5
 8025 1bfa 03       		.byte	0x3
 8026 1bfb 5B020000 		.4byte	.LC64
 8027 1bff 00       		.byte	0
 8028 1c00 25       		.uleb128 0x25
 8029 1c01 B8000000 		.4byte	.LVL437
 8030 1c05 131C0000 		.4byte	0x1c13
 8031 1c09 21       		.uleb128 0x21
 8032 1c0a 01       		.uleb128 0x1
 8033 1c0b 51       		.byte	0x51
 8034 1c0c 05       		.uleb128 0x5
 8035 1c0d 03       		.byte	0x3
 8036 1c0e 6B020000 		.4byte	.LC68
 8037 1c12 00       		.byte	0
 8038 1c13 27       		.uleb128 0x27
 8039 1c14 C8000000 		.4byte	.LVL439
ARM GAS  C:\Users\chemi\AppData\Local\Temp\cc0tO343.s 			page 174


 8040 1c18 EE0F0000 		.4byte	0xfee
 8041 1c1c 21       		.uleb128 0x21
 8042 1c1d 01       		.uleb128 0x1
 8043 1c1e 50       		.byte	0x50
 8044 1c1f 03       		.uleb128 0x3
 8045 1c20 F3       		.byte	0xf3
 8046 1c21 01       		.uleb128 0x1
 8047 1c22 50       		.byte	0x50
 8048 1c23 21       		.uleb128 0x21
 8049 1c24 01       		.uleb128 0x1
 8050 1c25 51       		.byte	0x51
 8051 1c26 01       		.uleb128 0x1
 8052 1c27 32       		.byte	0x32
 8053 1c28 21       		.uleb128 0x21
 8054 1c29 01       		.uleb128 0x1
 8055 1c2a 52       		.byte	0x52
 8056 1c2b 01       		.uleb128 0x1
 8057 1c2c 37       		.byte	0x37
 8058 1c2d 00       		.byte	0
 8059 1c2e 00       		.byte	0
 8060 1c2f 31       		.uleb128 0x31
 8061 1c30 25070000 		.4byte	0x725
 8062 1c34 00000000 		.4byte	.LFB94
 8063 1c38 74010000 		.4byte	.LFE94-.LFB94
 8064 1c3c 01       		.uleb128 0x1
 8065 1c3d 9C       		.byte	0x9c
 8066 1c3e 551C0000 		.4byte	0x1c55
 8067 1c42 1E       		.uleb128 0x1e
 8068 1c43 36070000 		.4byte	0x736
 8069 1c47 161B0000 		.4byte	.LLST108
 8070 1c4b 1E       		.uleb128 0x1e
 8071 1c4c 42070000 		.4byte	0x742
 8072 1c50 DA1D0000 		.4byte	.LLST109
 8073 1c54 00       		.byte	0
 8074 1c55 2A       		.uleb128 0x2a
 8075 1c56 C9010000 		.4byte	.LASF182
 8076 1c5a 01       		.byte	0x1
 8077 1c5b 6504     		.2byte	0x465
 8078 1c5d 00000000 		.4byte	.LFB95
 8079 1c61 14000000 		.4byte	.LFE95-.LFB95
 8080 1c65 01       		.uleb128 0x1
 8081 1c66 9C       		.byte	0x9c
 8082 1c67 A61C0000 		.4byte	0x1ca6
 8083 1c6b 2B       		.uleb128 0x2b
 8084 1c6c 8C060000 		.4byte	.LASF123
 8085 1c70 01       		.byte	0x1
 8086 1c71 6504     		.2byte	0x465
 8087 1c73 F4030000 		.4byte	0x3f4
 8088 1c77 2D1E0000 		.4byte	.LLST110
 8089 1c7b 2B       		.uleb128 0x2b
 8090 1c7c 3A050000 		.4byte	.LASF183
 8091 1c80 01       		.byte	0x1
 8092 1c81 6504     		.2byte	0x465
 8093 1c83 F7040000 		.4byte	0x4f7
 8094 1c87 4E1E0000 		.4byte	.LLST111
 8095 1c8b 2E       		.uleb128 0x2e
 8096 1c8c 10000000 		.4byte	.LVL501
ARM GAS  C:\Users\chemi\AppData\Local\Temp\cc0tO343.s 			page 175


 8097 1c90 FD1E0000 		.4byte	0x1efd
 8098 1c94 21       		.uleb128 0x21
 8099 1c95 01       		.uleb128 0x1
 8100 1c96 50       		.byte	0x50
 8101 1c97 02       		.uleb128 0x2
 8102 1c98 08       		.byte	0x8
 8103 1c99 20       		.byte	0x20
 8104 1c9a 21       		.uleb128 0x21
 8105 1c9b 01       		.uleb128 0x1
 8106 1c9c 51       		.byte	0x51
 8107 1c9d 01       		.uleb128 0x1
 8108 1c9e 31       		.byte	0x31
 8109 1c9f 21       		.uleb128 0x21
 8110 1ca0 01       		.uleb128 0x1
 8111 1ca1 52       		.byte	0x52
 8112 1ca2 01       		.uleb128 0x1
 8113 1ca3 30       		.byte	0x30
 8114 1ca4 00       		.byte	0
 8115 1ca5 00       		.byte	0
 8116 1ca6 2A       		.uleb128 0x2a
 8117 1ca7 9E080000 		.4byte	.LASF184
 8118 1cab 01       		.byte	0x1
 8119 1cac 6A04     		.2byte	0x46a
 8120 1cae 00000000 		.4byte	.LFB96
 8121 1cb2 06000000 		.4byte	.LFE96-.LFB96
 8122 1cb6 01       		.uleb128 0x1
 8123 1cb7 9C       		.byte	0x9c
 8124 1cb8 CB1C0000 		.4byte	0x1ccb
 8125 1cbc 35       		.uleb128 0x35
 8126 1cbd 8C060000 		.4byte	.LASF123
 8127 1cc1 01       		.byte	0x1
 8128 1cc2 6A04     		.2byte	0x46a
 8129 1cc4 F4030000 		.4byte	0x3f4
 8130 1cc8 01       		.uleb128 0x1
 8131 1cc9 50       		.byte	0x50
 8132 1cca 00       		.byte	0
 8133 1ccb 45       		.uleb128 0x45
 8134 1ccc AA030000 		.4byte	.LASF185
 8135 1cd0 01       		.byte	0x1
 8136 1cd1 6E04     		.2byte	0x46e
 8137 1cd3 00000000 		.4byte	.LFB97
 8138 1cd7 5A000000 		.4byte	.LFE97-.LFB97
 8139 1cdb 01       		.uleb128 0x1
 8140 1cdc 9C       		.byte	0x9c
 8141 1cdd BD1D0000 		.4byte	0x1dbd
 8142 1ce1 2B       		.uleb128 0x2b
 8143 1ce2 8C060000 		.4byte	.LASF123
 8144 1ce6 01       		.byte	0x1
 8145 1ce7 6E04     		.2byte	0x46e
 8146 1ce9 F4030000 		.4byte	0x3f4
 8147 1ced 6C1E0000 		.4byte	.LLST112
 8148 1cf1 30       		.uleb128 0x30
 8149 1cf2 A4050000 		.4byte	.LASF186
 8150 1cf6 01       		.byte	0x1
 8151 1cf7 6F04     		.2byte	0x46f
 8152 1cf9 97000000 		.4byte	0x97
 8153 1cfd 8A1E0000 		.4byte	.LLST113
ARM GAS  C:\Users\chemi\AppData\Local\Temp\cc0tO343.s 			page 176


 8154 1d01 30       		.uleb128 0x30
 8155 1d02 EE060000 		.4byte	.LASF108
 8156 1d06 01       		.byte	0x1
 8157 1d07 7004     		.2byte	0x470
 8158 1d09 97000000 		.4byte	0x97
 8159 1d0d 9E1E0000 		.4byte	.LLST114
 8160 1d11 1A       		.uleb128 0x1a
 8161 1d12 C10B0000 		.4byte	.LASF107
 8162 1d16 01       		.byte	0x1
 8163 1d17 7104     		.2byte	0x471
 8164 1d19 FA030000 		.4byte	0x3fa
 8165 1d1d 34       		.uleb128 0x34
 8166 1d1e 7E0A0000 		.4byte	.LASF103
 8167 1d22 01       		.byte	0x1
 8168 1d23 7904     		.2byte	0x479
 8169 1d25 30010000 		.4byte	0x130
 8170 1d29 01       		.uleb128 0x1
 8171 1d2a 55       		.byte	0x55
 8172 1d2b 26       		.uleb128 0x26
 8173 1d2c 1A000000 		.4byte	.LVL506
 8174 1d30 7C1E0000 		.4byte	0x1e7c
 8175 1d34 2D       		.uleb128 0x2d
 8176 1d35 28000000 		.4byte	.LVL507
 8177 1d39 EE0F0000 		.4byte	0xfee
 8178 1d3d 541D0000 		.4byte	0x1d54
 8179 1d41 21       		.uleb128 0x21
 8180 1d42 01       		.uleb128 0x1
 8181 1d43 50       		.byte	0x50
 8182 1d44 02       		.uleb128 0x2
 8183 1d45 74       		.byte	0x74
 8184 1d46 00       		.sleb128 0
 8185 1d47 21       		.uleb128 0x21
 8186 1d48 01       		.uleb128 0x1
 8187 1d49 51       		.byte	0x51
 8188 1d4a 03       		.uleb128 0x3
 8189 1d4b 0A       		.byte	0xa
 8190 1d4c 0010     		.2byte	0x1000
 8191 1d4e 21       		.uleb128 0x21
 8192 1d4f 01       		.uleb128 0x1
 8193 1d50 52       		.byte	0x52
 8194 1d51 01       		.uleb128 0x1
 8195 1d52 30       		.byte	0x30
 8196 1d53 00       		.byte	0
 8197 1d54 2D       		.uleb128 0x2d
 8198 1d55 32000000 		.4byte	.LVL508
 8199 1d59 EE0F0000 		.4byte	0xfee
 8200 1d5d 721D0000 		.4byte	0x1d72
 8201 1d61 21       		.uleb128 0x21
 8202 1d62 01       		.uleb128 0x1
 8203 1d63 50       		.byte	0x50
 8204 1d64 02       		.uleb128 0x2
 8205 1d65 74       		.byte	0x74
 8206 1d66 00       		.sleb128 0
 8207 1d67 21       		.uleb128 0x21
 8208 1d68 01       		.uleb128 0x1
 8209 1d69 51       		.byte	0x51
 8210 1d6a 01       		.uleb128 0x1
ARM GAS  C:\Users\chemi\AppData\Local\Temp\cc0tO343.s 			page 177


 8211 1d6b 30       		.byte	0x30
 8212 1d6c 21       		.uleb128 0x21
 8213 1d6d 01       		.uleb128 0x1
 8214 1d6e 52       		.byte	0x52
 8215 1d6f 01       		.uleb128 0x1
 8216 1d70 30       		.byte	0x30
 8217 1d71 00       		.byte	0
 8218 1d72 2D       		.uleb128 0x2d
 8219 1d73 38000000 		.4byte	.LVL509
 8220 1d77 3C110000 		.4byte	0x113c
 8221 1d7b 861D0000 		.4byte	0x1d86
 8222 1d7f 21       		.uleb128 0x21
 8223 1d80 01       		.uleb128 0x1
 8224 1d81 50       		.byte	0x50
 8225 1d82 02       		.uleb128 0x2
 8226 1d83 74       		.byte	0x74
 8227 1d84 00       		.sleb128 0
 8228 1d85 00       		.byte	0
 8229 1d86 26       		.uleb128 0x26
 8230 1d87 42000000 		.4byte	.LVL511
 8231 1d8b 091F0000 		.4byte	0x1f09
 8232 1d8f 26       		.uleb128 0x26
 8233 1d90 48000000 		.4byte	.LVL512
 8234 1d94 7C1E0000 		.4byte	0x1e7c
 8235 1d98 2D       		.uleb128 0x2d
 8236 1d99 52000000 		.4byte	.LVL513
 8237 1d9d 151F0000 		.4byte	0x1f15
 8238 1da1 AC1D0000 		.4byte	0x1dac
 8239 1da5 21       		.uleb128 0x21
 8240 1da6 01       		.uleb128 0x1
 8241 1da7 50       		.byte	0x50
 8242 1da8 02       		.uleb128 0x2
 8243 1da9 75       		.byte	0x75
 8244 1daa 00       		.sleb128 0
 8245 1dab 00       		.byte	0
 8246 1dac 2E       		.uleb128 0x2e
 8247 1dad 58000000 		.4byte	.LVL514
 8248 1db1 211F0000 		.4byte	0x1f21
 8249 1db5 21       		.uleb128 0x21
 8250 1db6 01       		.uleb128 0x1
 8251 1db7 50       		.byte	0x50
 8252 1db8 02       		.uleb128 0x2
 8253 1db9 08       		.byte	0x8
 8254 1dba 64       		.byte	0x64
 8255 1dbb 00       		.byte	0
 8256 1dbc 00       		.byte	0
 8257 1dbd 46       		.uleb128 0x46
 8258 1dbe 70010000 		.4byte	.LASF187
 8259 1dc2 0B       		.byte	0xb
 8260 1dc3 1207     		.2byte	0x712
 8261 1dc5 C91D0000 		.4byte	0x1dc9
 8262 1dc9 47       		.uleb128 0x47
 8263 1dca AD000000 		.4byte	0xad
 8264 1dce 12       		.uleb128 0x12
 8265 1dcf 01010000 		.4byte	0x101
 8266 1dd3 DE1D0000 		.4byte	0x1dde
 8267 1dd7 13       		.uleb128 0x13
ARM GAS  C:\Users\chemi\AppData\Local\Temp\cc0tO343.s 			page 178


 8268 1dd8 E7000000 		.4byte	0xe7
 8269 1ddc 9A       		.byte	0x9a
 8270 1ddd 00       		.byte	0
 8271 1dde 48       		.uleb128 0x48
 8272 1ddf B3040000 		.4byte	.LASF188
 8273 1de3 01       		.byte	0x1
 8274 1de4 8504     		.2byte	0x485
 8275 1de6 F01D0000 		.4byte	0x1df0
 8276 1dea 05       		.uleb128 0x5
 8277 1deb 03       		.byte	0x3
 8278 1dec 00000000 		.4byte	TERM_startupText1
 8279 1df0 09       		.uleb128 0x9
 8280 1df1 CE1D0000 		.4byte	0x1dce
 8281 1df5 12       		.uleb128 0x12
 8282 1df6 01010000 		.4byte	0x101
 8283 1dfa 051E0000 		.4byte	0x1e05
 8284 1dfe 13       		.uleb128 0x13
 8285 1dff E7000000 		.4byte	0xe7
 8286 1e03 37       		.byte	0x37
 8287 1e04 00       		.byte	0
 8288 1e05 48       		.uleb128 0x48
 8289 1e06 C5040000 		.4byte	.LASF189
 8290 1e0a 01       		.byte	0x1
 8291 1e0b 8604     		.2byte	0x486
 8292 1e0d 171E0000 		.4byte	0x1e17
 8293 1e11 05       		.uleb128 0x5
 8294 1e12 03       		.byte	0x3
 8295 1e13 00000000 		.4byte	TERM_startupText2
 8296 1e17 09       		.uleb128 0x9
 8297 1e18 F51D0000 		.4byte	0x1df5
 8298 1e1c 12       		.uleb128 0x12
 8299 1e1d 01010000 		.4byte	0x101
 8300 1e21 2C1E0000 		.4byte	0x1e2c
 8301 1e25 13       		.uleb128 0x13
 8302 1e26 E7000000 		.4byte	0xe7
 8303 1e2a 20       		.byte	0x20
 8304 1e2b 00       		.byte	0
 8305 1e2c 48       		.uleb128 0x48
 8306 1e2d 370A0000 		.4byte	.LASF190
 8307 1e31 01       		.byte	0x1
 8308 1e32 8704     		.2byte	0x487
 8309 1e34 3E1E0000 		.4byte	0x1e3e
 8310 1e38 05       		.uleb128 0x5
 8311 1e39 03       		.byte	0x3
 8312 1e3a 00000000 		.4byte	TERM_startupText3
 8313 1e3e 09       		.uleb128 0x9
 8314 1e3f 1C1E0000 		.4byte	0x1e1c
 8315 1e43 49       		.uleb128 0x49
 8316 1e44 2B030000 		.4byte	.LASF191
 8317 1e48 01       		.byte	0x1
 8318 1e49 2D       		.byte	0x2d
 8319 1e4a 52030000 		.4byte	0x352
 8320 1e4e 05       		.uleb128 0x5
 8321 1e4f 03       		.byte	0x3
 8322 1e50 00000000 		.4byte	TERM_cmdListHead
 8323 1e54 49       		.uleb128 0x49
 8324 1e55 7C090000 		.4byte	.LASF163
ARM GAS  C:\Users\chemi\AppData\Local\Temp\cc0tO343.s 			page 179


 8325 1e59 0C       		.byte	0xc
 8326 1e5a 0B       		.byte	0xb
 8327 1e5b 651E0000 		.4byte	0x1e65
 8328 1e5f 05       		.uleb128 0x5
 8329 1e60 03       		.byte	0x3
 8330 1e61 00000000 		.4byte	head
 8331 1e65 08       		.uleb128 0x8
 8332 1e66 04       		.byte	0x4
 8333 1e67 77050000 		.4byte	0x577
 8334 1e6b 49       		.uleb128 0x49
 8335 1e6c 980B0000 		.4byte	.LASF192
 8336 1e70 01       		.byte	0x1
 8337 1e71 2E       		.byte	0x2e
 8338 1e72 90000000 		.4byte	0x90
 8339 1e76 05       		.uleb128 0x5
 8340 1e77 03       		.byte	0x3
 8341 1e78 00000000 		.4byte	TERM_baseCMDsAdded
 8342 1e7c 4A       		.uleb128 0x4a
 8343 1e7d 65090000 		.4byte	.LASF193
 8344 1e81 65090000 		.4byte	.LASF193
 8345 1e85 0D       		.byte	0xd
 8346 1e86 B1       		.byte	0xb1
 8347 1e87 4A       		.uleb128 0x4a
 8348 1e88 8C050000 		.4byte	.LASF194
 8349 1e8c 8C050000 		.4byte	.LASF194
 8350 1e90 0E       		.byte	0xe
 8351 1e91 1B       		.byte	0x1b
 8352 1e92 4A       		.uleb128 0x4a
 8353 1e93 48000000 		.4byte	.LASF195
 8354 1e97 48000000 		.4byte	.LASF195
 8355 1e9b 0F       		.byte	0xf
 8356 1e9c E7       		.byte	0xe7
 8357 1e9d 4A       		.uleb128 0x4a
 8358 1e9e 2A060000 		.4byte	.LASF196
 8359 1ea2 2A060000 		.4byte	.LASF196
 8360 1ea6 0E       		.byte	0xe
 8361 1ea7 1E       		.byte	0x1e
 8362 1ea8 4A       		.uleb128 0x4a
 8363 1ea9 18050000 		.4byte	.LASF197
 8364 1ead 18050000 		.4byte	.LASF197
 8365 1eb1 0E       		.byte	0xe
 8366 1eb2 21       		.byte	0x21
 8367 1eb3 4A       		.uleb128 0x4a
 8368 1eb4 B2080000 		.4byte	.LASF198
 8369 1eb8 B2080000 		.4byte	.LASF198
 8370 1ebc 0E       		.byte	0xe
 8371 1ebd 23       		.byte	0x23
 8372 1ebe 4A       		.uleb128 0x4a
 8373 1ebf 9A040000 		.4byte	.LASF199
 8374 1ec3 9A040000 		.4byte	.LASF199
 8375 1ec7 0D       		.byte	0xd
 8376 1ec8 B0       		.byte	0xb0
 8377 1ec9 4A       		.uleb128 0x4a
 8378 1eca EE070000 		.4byte	.LASF200
 8379 1ece EE070000 		.4byte	.LASF200
 8380 1ed2 0F       		.byte	0xf
 8381 1ed3 FF       		.byte	0xff
ARM GAS  C:\Users\chemi\AppData\Local\Temp\cc0tO343.s 			page 180


 8382 1ed4 4B       		.uleb128 0x4b
 8383 1ed5 1D0B0000 		.4byte	.LASF202
 8384 1ed9 1D0B0000 		.4byte	.LASF202
 8385 1edd 4A       		.uleb128 0x4a
 8386 1ede 42020000 		.4byte	.LASF201
 8387 1ee2 42020000 		.4byte	.LASF201
 8388 1ee6 10       		.byte	0x10
 8389 1ee7 1F       		.byte	0x1f
 8390 1ee8 4B       		.uleb128 0x4b
 8391 1ee9 01030000 		.4byte	.LASF203
 8392 1eed 01030000 		.4byte	.LASF203
 8393 1ef1 4C       		.uleb128 0x4c
 8394 1ef2 65070000 		.4byte	.LASF204
 8395 1ef6 65070000 		.4byte	.LASF204
 8396 1efa 08       		.byte	0x8
 8397 1efb 0601     		.2byte	0x106
 8398 1efd 4C       		.uleb128 0x4c
 8399 1efe EB000000 		.4byte	.LASF205
 8400 1f02 EB000000 		.4byte	.LASF205
 8401 1f06 07       		.byte	0x7
 8402 1f07 4A03     		.2byte	0x34a
 8403 1f09 4C       		.uleb128 0x4c
 8404 1f0a 58030000 		.4byte	.LASF206
 8405 1f0e 58030000 		.4byte	.LASF206
 8406 1f12 07       		.byte	0x7
 8407 1f13 6702     		.2byte	0x267
 8408 1f15 4C       		.uleb128 0x4c
 8409 1f16 F4090000 		.4byte	.LASF207
 8410 1f1a F4090000 		.4byte	.LASF207
 8411 1f1e 06       		.byte	0x6
 8412 1f1f D602     		.2byte	0x2d6
 8413 1f21 4C       		.uleb128 0x4c
 8414 1f22 E10B0000 		.4byte	.LASF208
 8415 1f26 E10B0000 		.4byte	.LASF208
 8416 1f2a 06       		.byte	0x6
 8417 1f2b 0C03     		.2byte	0x30c
 8418 1f2d 00       		.byte	0
 8419              		.section	.debug_abbrev,"",%progbits
 8420              	.Ldebug_abbrev0:
 8421 0000 01       		.uleb128 0x1
 8422 0001 11       		.uleb128 0x11
 8423 0002 01       		.byte	0x1
 8424 0003 25       		.uleb128 0x25
 8425 0004 0E       		.uleb128 0xe
 8426 0005 13       		.uleb128 0x13
 8427 0006 0B       		.uleb128 0xb
 8428 0007 03       		.uleb128 0x3
 8429 0008 0E       		.uleb128 0xe
 8430 0009 1B       		.uleb128 0x1b
 8431 000a 0E       		.uleb128 0xe
 8432 000b 55       		.uleb128 0x55
 8433 000c 17       		.uleb128 0x17
 8434 000d 11       		.uleb128 0x11
 8435 000e 01       		.uleb128 0x1
 8436 000f 10       		.uleb128 0x10
 8437 0010 17       		.uleb128 0x17
 8438 0011 00       		.byte	0
ARM GAS  C:\Users\chemi\AppData\Local\Temp\cc0tO343.s 			page 181


 8439 0012 00       		.byte	0
 8440 0013 02       		.uleb128 0x2
 8441 0014 24       		.uleb128 0x24
 8442 0015 00       		.byte	0
 8443 0016 0B       		.uleb128 0xb
 8444 0017 0B       		.uleb128 0xb
 8445 0018 3E       		.uleb128 0x3e
 8446 0019 0B       		.uleb128 0xb
 8447 001a 03       		.uleb128 0x3
 8448 001b 0E       		.uleb128 0xe
 8449 001c 00       		.byte	0
 8450 001d 00       		.byte	0
 8451 001e 03       		.uleb128 0x3
 8452 001f 16       		.uleb128 0x16
 8453 0020 00       		.byte	0
 8454 0021 03       		.uleb128 0x3
 8455 0022 0E       		.uleb128 0xe
 8456 0023 3A       		.uleb128 0x3a
 8457 0024 0B       		.uleb128 0xb
 8458 0025 3B       		.uleb128 0x3b
 8459 0026 0B       		.uleb128 0xb
 8460 0027 49       		.uleb128 0x49
 8461 0028 13       		.uleb128 0x13
 8462 0029 00       		.byte	0
 8463 002a 00       		.byte	0
 8464 002b 04       		.uleb128 0x4
 8465 002c 24       		.uleb128 0x24
 8466 002d 00       		.byte	0
 8467 002e 0B       		.uleb128 0xb
 8468 002f 0B       		.uleb128 0xb
 8469 0030 3E       		.uleb128 0x3e
 8470 0031 0B       		.uleb128 0xb
 8471 0032 03       		.uleb128 0x3
 8472 0033 08       		.uleb128 0x8
 8473 0034 00       		.byte	0
 8474 0035 00       		.byte	0
 8475 0036 05       		.uleb128 0x5
 8476 0037 13       		.uleb128 0x13
 8477 0038 01       		.byte	0x1
 8478 0039 03       		.uleb128 0x3
 8479 003a 0E       		.uleb128 0xe
 8480 003b 0B       		.uleb128 0xb
 8481 003c 0B       		.uleb128 0xb
 8482 003d 3A       		.uleb128 0x3a
 8483 003e 0B       		.uleb128 0xb
 8484 003f 3B       		.uleb128 0x3b
 8485 0040 0B       		.uleb128 0xb
 8486 0041 01       		.uleb128 0x1
 8487 0042 13       		.uleb128 0x13
 8488 0043 00       		.byte	0
 8489 0044 00       		.byte	0
 8490 0045 06       		.uleb128 0x6
 8491 0046 0D       		.uleb128 0xd
 8492 0047 00       		.byte	0
 8493 0048 03       		.uleb128 0x3
 8494 0049 0E       		.uleb128 0xe
 8495 004a 49       		.uleb128 0x49
ARM GAS  C:\Users\chemi\AppData\Local\Temp\cc0tO343.s 			page 182


 8496 004b 13       		.uleb128 0x13
 8497 004c 38       		.uleb128 0x38
 8498 004d 0B       		.uleb128 0xb
 8499 004e 34       		.uleb128 0x34
 8500 004f 19       		.uleb128 0x19
 8501 0050 00       		.byte	0
 8502 0051 00       		.byte	0
 8503 0052 07       		.uleb128 0x7
 8504 0053 0F       		.uleb128 0xf
 8505 0054 00       		.byte	0
 8506 0055 0B       		.uleb128 0xb
 8507 0056 0B       		.uleb128 0xb
 8508 0057 00       		.byte	0
 8509 0058 00       		.byte	0
 8510 0059 08       		.uleb128 0x8
 8511 005a 0F       		.uleb128 0xf
 8512 005b 00       		.byte	0
 8513 005c 0B       		.uleb128 0xb
 8514 005d 0B       		.uleb128 0xb
 8515 005e 49       		.uleb128 0x49
 8516 005f 13       		.uleb128 0x13
 8517 0060 00       		.byte	0
 8518 0061 00       		.byte	0
 8519 0062 09       		.uleb128 0x9
 8520 0063 26       		.uleb128 0x26
 8521 0064 00       		.byte	0
 8522 0065 49       		.uleb128 0x49
 8523 0066 13       		.uleb128 0x13
 8524 0067 00       		.byte	0
 8525 0068 00       		.byte	0
 8526 0069 0A       		.uleb128 0xa
 8527 006a 13       		.uleb128 0x13
 8528 006b 00       		.byte	0
 8529 006c 03       		.uleb128 0x3
 8530 006d 0E       		.uleb128 0xe
 8531 006e 3C       		.uleb128 0x3c
 8532 006f 19       		.uleb128 0x19
 8533 0070 00       		.byte	0
 8534 0071 00       		.byte	0
 8535 0072 0B       		.uleb128 0xb
 8536 0073 04       		.uleb128 0x4
 8537 0074 01       		.byte	0x1
 8538 0075 03       		.uleb128 0x3
 8539 0076 0E       		.uleb128 0xe
 8540 0077 0B       		.uleb128 0xb
 8541 0078 0B       		.uleb128 0xb
 8542 0079 49       		.uleb128 0x49
 8543 007a 13       		.uleb128 0x13
 8544 007b 3A       		.uleb128 0x3a
 8545 007c 0B       		.uleb128 0xb
 8546 007d 3B       		.uleb128 0x3b
 8547 007e 0B       		.uleb128 0xb
 8548 007f 01       		.uleb128 0x1
 8549 0080 13       		.uleb128 0x13
 8550 0081 00       		.byte	0
 8551 0082 00       		.byte	0
 8552 0083 0C       		.uleb128 0xc
ARM GAS  C:\Users\chemi\AppData\Local\Temp\cc0tO343.s 			page 183


 8553 0084 28       		.uleb128 0x28
 8554 0085 00       		.byte	0
 8555 0086 03       		.uleb128 0x3
 8556 0087 0E       		.uleb128 0xe
 8557 0088 1C       		.uleb128 0x1c
 8558 0089 0B       		.uleb128 0xb
 8559 008a 00       		.byte	0
 8560 008b 00       		.byte	0
 8561 008c 0D       		.uleb128 0xd
 8562 008d 0D       		.uleb128 0xd
 8563 008e 00       		.byte	0
 8564 008f 03       		.uleb128 0x3
 8565 0090 0E       		.uleb128 0xe
 8566 0091 3A       		.uleb128 0x3a
 8567 0092 0B       		.uleb128 0xb
 8568 0093 3B       		.uleb128 0x3b
 8569 0094 0B       		.uleb128 0xb
 8570 0095 49       		.uleb128 0x49
 8571 0096 13       		.uleb128 0x13
 8572 0097 38       		.uleb128 0x38
 8573 0098 0B       		.uleb128 0xb
 8574 0099 00       		.byte	0
 8575 009a 00       		.byte	0
 8576 009b 0E       		.uleb128 0xe
 8577 009c 15       		.uleb128 0x15
 8578 009d 01       		.byte	0x1
 8579 009e 27       		.uleb128 0x27
 8580 009f 19       		.uleb128 0x19
 8581 00a0 49       		.uleb128 0x49
 8582 00a1 13       		.uleb128 0x13
 8583 00a2 01       		.uleb128 0x1
 8584 00a3 13       		.uleb128 0x13
 8585 00a4 00       		.byte	0
 8586 00a5 00       		.byte	0
 8587 00a6 0F       		.uleb128 0xf
 8588 00a7 05       		.uleb128 0x5
 8589 00a8 00       		.byte	0
 8590 00a9 49       		.uleb128 0x49
 8591 00aa 13       		.uleb128 0x13
 8592 00ab 00       		.byte	0
 8593 00ac 00       		.byte	0
 8594 00ad 10       		.uleb128 0x10
 8595 00ae 18       		.uleb128 0x18
 8596 00af 00       		.byte	0
 8597 00b0 00       		.byte	0
 8598 00b1 00       		.byte	0
 8599 00b2 11       		.uleb128 0x11
 8600 00b3 13       		.uleb128 0x13
 8601 00b4 01       		.byte	0x1
 8602 00b5 0B       		.uleb128 0xb
 8603 00b6 0B       		.uleb128 0xb
 8604 00b7 3A       		.uleb128 0x3a
 8605 00b8 0B       		.uleb128 0xb
 8606 00b9 3B       		.uleb128 0x3b
 8607 00ba 0B       		.uleb128 0xb
 8608 00bb 01       		.uleb128 0x1
 8609 00bc 13       		.uleb128 0x13
ARM GAS  C:\Users\chemi\AppData\Local\Temp\cc0tO343.s 			page 184


 8610 00bd 00       		.byte	0
 8611 00be 00       		.byte	0
 8612 00bf 12       		.uleb128 0x12
 8613 00c0 01       		.uleb128 0x1
 8614 00c1 01       		.byte	0x1
 8615 00c2 49       		.uleb128 0x49
 8616 00c3 13       		.uleb128 0x13
 8617 00c4 01       		.uleb128 0x1
 8618 00c5 13       		.uleb128 0x13
 8619 00c6 00       		.byte	0
 8620 00c7 00       		.byte	0
 8621 00c8 13       		.uleb128 0x13
 8622 00c9 21       		.uleb128 0x21
 8623 00ca 00       		.byte	0
 8624 00cb 49       		.uleb128 0x49
 8625 00cc 13       		.uleb128 0x13
 8626 00cd 2F       		.uleb128 0x2f
 8627 00ce 0B       		.uleb128 0xb
 8628 00cf 00       		.byte	0
 8629 00d0 00       		.byte	0
 8630 00d1 14       		.uleb128 0x14
 8631 00d2 04       		.uleb128 0x4
 8632 00d3 01       		.byte	0x1
 8633 00d4 0B       		.uleb128 0xb
 8634 00d5 0B       		.uleb128 0xb
 8635 00d6 49       		.uleb128 0x49
 8636 00d7 13       		.uleb128 0x13
 8637 00d8 3A       		.uleb128 0x3a
 8638 00d9 0B       		.uleb128 0xb
 8639 00da 3B       		.uleb128 0x3b
 8640 00db 0B       		.uleb128 0xb
 8641 00dc 01       		.uleb128 0x1
 8642 00dd 13       		.uleb128 0x13
 8643 00de 00       		.byte	0
 8644 00df 00       		.byte	0
 8645 00e0 15       		.uleb128 0x15
 8646 00e1 2E       		.uleb128 0x2e
 8647 00e2 01       		.byte	0x1
 8648 00e3 3F       		.uleb128 0x3f
 8649 00e4 19       		.uleb128 0x19
 8650 00e5 03       		.uleb128 0x3
 8651 00e6 0E       		.uleb128 0xe
 8652 00e7 3A       		.uleb128 0x3a
 8653 00e8 0B       		.uleb128 0xb
 8654 00e9 3B       		.uleb128 0x3b
 8655 00ea 05       		.uleb128 0x5
 8656 00eb 27       		.uleb128 0x27
 8657 00ec 19       		.uleb128 0x19
 8658 00ed 49       		.uleb128 0x49
 8659 00ee 13       		.uleb128 0x13
 8660 00ef 20       		.uleb128 0x20
 8661 00f0 0B       		.uleb128 0xb
 8662 00f1 01       		.uleb128 0x1
 8663 00f2 13       		.uleb128 0x13
 8664 00f3 00       		.byte	0
 8665 00f4 00       		.byte	0
 8666 00f5 16       		.uleb128 0x16
ARM GAS  C:\Users\chemi\AppData\Local\Temp\cc0tO343.s 			page 185


 8667 00f6 05       		.uleb128 0x5
 8668 00f7 00       		.byte	0
 8669 00f8 03       		.uleb128 0x3
 8670 00f9 0E       		.uleb128 0xe
 8671 00fa 3A       		.uleb128 0x3a
 8672 00fb 0B       		.uleb128 0xb
 8673 00fc 3B       		.uleb128 0x3b
 8674 00fd 05       		.uleb128 0x5
 8675 00fe 49       		.uleb128 0x49
 8676 00ff 13       		.uleb128 0x13
 8677 0100 00       		.byte	0
 8678 0101 00       		.byte	0
 8679 0102 17       		.uleb128 0x17
 8680 0103 2E       		.uleb128 0x2e
 8681 0104 01       		.byte	0x1
 8682 0105 3F       		.uleb128 0x3f
 8683 0106 19       		.uleb128 0x19
 8684 0107 03       		.uleb128 0x3
 8685 0108 0E       		.uleb128 0xe
 8686 0109 3A       		.uleb128 0x3a
 8687 010a 0B       		.uleb128 0xb
 8688 010b 3B       		.uleb128 0x3b
 8689 010c 05       		.uleb128 0x5
 8690 010d 27       		.uleb128 0x27
 8691 010e 19       		.uleb128 0x19
 8692 010f 20       		.uleb128 0x20
 8693 0110 0B       		.uleb128 0xb
 8694 0111 01       		.uleb128 0x1
 8695 0112 13       		.uleb128 0x13
 8696 0113 00       		.byte	0
 8697 0114 00       		.byte	0
 8698 0115 18       		.uleb128 0x18
 8699 0116 05       		.uleb128 0x5
 8700 0117 00       		.byte	0
 8701 0118 03       		.uleb128 0x3
 8702 0119 08       		.uleb128 0x8
 8703 011a 3A       		.uleb128 0x3a
 8704 011b 0B       		.uleb128 0xb
 8705 011c 3B       		.uleb128 0x3b
 8706 011d 05       		.uleb128 0x5
 8707 011e 49       		.uleb128 0x49
 8708 011f 13       		.uleb128 0x13
 8709 0120 00       		.byte	0
 8710 0121 00       		.byte	0
 8711 0122 19       		.uleb128 0x19
 8712 0123 0B       		.uleb128 0xb
 8713 0124 01       		.byte	0x1
 8714 0125 01       		.uleb128 0x1
 8715 0126 13       		.uleb128 0x13
 8716 0127 00       		.byte	0
 8717 0128 00       		.byte	0
 8718 0129 1A       		.uleb128 0x1a
 8719 012a 34       		.uleb128 0x34
 8720 012b 00       		.byte	0
 8721 012c 03       		.uleb128 0x3
 8722 012d 0E       		.uleb128 0xe
 8723 012e 3A       		.uleb128 0x3a
ARM GAS  C:\Users\chemi\AppData\Local\Temp\cc0tO343.s 			page 186


 8724 012f 0B       		.uleb128 0xb
 8725 0130 3B       		.uleb128 0x3b
 8726 0131 05       		.uleb128 0x5
 8727 0132 49       		.uleb128 0x49
 8728 0133 13       		.uleb128 0x13
 8729 0134 00       		.byte	0
 8730 0135 00       		.byte	0
 8731 0136 1B       		.uleb128 0x1b
 8732 0137 0B       		.uleb128 0xb
 8733 0138 01       		.byte	0x1
 8734 0139 00       		.byte	0
 8735 013a 00       		.byte	0
 8736 013b 1C       		.uleb128 0x1c
 8737 013c 34       		.uleb128 0x34
 8738 013d 00       		.byte	0
 8739 013e 03       		.uleb128 0x3
 8740 013f 08       		.uleb128 0x8
 8741 0140 3A       		.uleb128 0x3a
 8742 0141 0B       		.uleb128 0xb
 8743 0142 3B       		.uleb128 0x3b
 8744 0143 05       		.uleb128 0x5
 8745 0144 49       		.uleb128 0x49
 8746 0145 13       		.uleb128 0x13
 8747 0146 00       		.byte	0
 8748 0147 00       		.byte	0
 8749 0148 1D       		.uleb128 0x1d
 8750 0149 2E       		.uleb128 0x2e
 8751 014a 01       		.byte	0x1
 8752 014b 31       		.uleb128 0x31
 8753 014c 13       		.uleb128 0x13
 8754 014d 11       		.uleb128 0x11
 8755 014e 01       		.uleb128 0x1
 8756 014f 12       		.uleb128 0x12
 8757 0150 06       		.uleb128 0x6
 8758 0151 40       		.uleb128 0x40
 8759 0152 18       		.uleb128 0x18
 8760 0153 9642     		.uleb128 0x2116
 8761 0155 19       		.uleb128 0x19
 8762 0156 01       		.uleb128 0x1
 8763 0157 13       		.uleb128 0x13
 8764 0158 00       		.byte	0
 8765 0159 00       		.byte	0
 8766 015a 1E       		.uleb128 0x1e
 8767 015b 05       		.uleb128 0x5
 8768 015c 00       		.byte	0
 8769 015d 31       		.uleb128 0x31
 8770 015e 13       		.uleb128 0x13
 8771 015f 02       		.uleb128 0x2
 8772 0160 17       		.uleb128 0x17
 8773 0161 00       		.byte	0
 8774 0162 00       		.byte	0
 8775 0163 1F       		.uleb128 0x1f
 8776 0164 0B       		.uleb128 0xb
 8777 0165 01       		.byte	0x1
 8778 0166 11       		.uleb128 0x11
 8779 0167 01       		.uleb128 0x1
 8780 0168 12       		.uleb128 0x12
ARM GAS  C:\Users\chemi\AppData\Local\Temp\cc0tO343.s 			page 187


 8781 0169 06       		.uleb128 0x6
 8782 016a 01       		.uleb128 0x1
 8783 016b 13       		.uleb128 0x13
 8784 016c 00       		.byte	0
 8785 016d 00       		.byte	0
 8786 016e 20       		.uleb128 0x20
 8787 016f 898201   		.uleb128 0x4109
 8788 0172 01       		.byte	0x1
 8789 0173 11       		.uleb128 0x11
 8790 0174 01       		.uleb128 0x1
 8791 0175 9342     		.uleb128 0x2113
 8792 0177 18       		.uleb128 0x18
 8793 0178 00       		.byte	0
 8794 0179 00       		.byte	0
 8795 017a 21       		.uleb128 0x21
 8796 017b 8A8201   		.uleb128 0x410a
 8797 017e 00       		.byte	0
 8798 017f 02       		.uleb128 0x2
 8799 0180 18       		.uleb128 0x18
 8800 0181 9142     		.uleb128 0x2111
 8801 0183 18       		.uleb128 0x18
 8802 0184 00       		.byte	0
 8803 0185 00       		.byte	0
 8804 0186 22       		.uleb128 0x22
 8805 0187 2E       		.uleb128 0x2e
 8806 0188 01       		.byte	0x1
 8807 0189 3F       		.uleb128 0x3f
 8808 018a 19       		.uleb128 0x19
 8809 018b 03       		.uleb128 0x3
 8810 018c 0E       		.uleb128 0xe
 8811 018d 3A       		.uleb128 0x3a
 8812 018e 0B       		.uleb128 0xb
 8813 018f 3B       		.uleb128 0x3b
 8814 0190 0B       		.uleb128 0xb
 8815 0191 27       		.uleb128 0x27
 8816 0192 19       		.uleb128 0x19
 8817 0193 11       		.uleb128 0x11
 8818 0194 01       		.uleb128 0x1
 8819 0195 12       		.uleb128 0x12
 8820 0196 06       		.uleb128 0x6
 8821 0197 40       		.uleb128 0x40
 8822 0198 18       		.uleb128 0x18
 8823 0199 9742     		.uleb128 0x2117
 8824 019b 19       		.uleb128 0x19
 8825 019c 01       		.uleb128 0x1
 8826 019d 13       		.uleb128 0x13
 8827 019e 00       		.byte	0
 8828 019f 00       		.byte	0
 8829 01a0 23       		.uleb128 0x23
 8830 01a1 05       		.uleb128 0x5
 8831 01a2 00       		.byte	0
 8832 01a3 03       		.uleb128 0x3
 8833 01a4 0E       		.uleb128 0xe
 8834 01a5 3A       		.uleb128 0x3a
 8835 01a6 0B       		.uleb128 0xb
 8836 01a7 3B       		.uleb128 0x3b
 8837 01a8 0B       		.uleb128 0xb
ARM GAS  C:\Users\chemi\AppData\Local\Temp\cc0tO343.s 			page 188


 8838 01a9 49       		.uleb128 0x49
 8839 01aa 13       		.uleb128 0x13
 8840 01ab 02       		.uleb128 0x2
 8841 01ac 17       		.uleb128 0x17
 8842 01ad 00       		.byte	0
 8843 01ae 00       		.byte	0
 8844 01af 24       		.uleb128 0x24
 8845 01b0 34       		.uleb128 0x34
 8846 01b1 00       		.byte	0
 8847 01b2 03       		.uleb128 0x3
 8848 01b3 0E       		.uleb128 0xe
 8849 01b4 3A       		.uleb128 0x3a
 8850 01b5 0B       		.uleb128 0xb
 8851 01b6 3B       		.uleb128 0x3b
 8852 01b7 0B       		.uleb128 0xb
 8853 01b8 49       		.uleb128 0x49
 8854 01b9 13       		.uleb128 0x13
 8855 01ba 02       		.uleb128 0x2
 8856 01bb 17       		.uleb128 0x17
 8857 01bc 00       		.byte	0
 8858 01bd 00       		.byte	0
 8859 01be 25       		.uleb128 0x25
 8860 01bf 898201   		.uleb128 0x4109
 8861 01c2 01       		.byte	0x1
 8862 01c3 11       		.uleb128 0x11
 8863 01c4 01       		.uleb128 0x1
 8864 01c5 01       		.uleb128 0x1
 8865 01c6 13       		.uleb128 0x13
 8866 01c7 00       		.byte	0
 8867 01c8 00       		.byte	0
 8868 01c9 26       		.uleb128 0x26
 8869 01ca 898201   		.uleb128 0x4109
 8870 01cd 00       		.byte	0
 8871 01ce 11       		.uleb128 0x11
 8872 01cf 01       		.uleb128 0x1
 8873 01d0 31       		.uleb128 0x31
 8874 01d1 13       		.uleb128 0x13
 8875 01d2 00       		.byte	0
 8876 01d3 00       		.byte	0
 8877 01d4 27       		.uleb128 0x27
 8878 01d5 898201   		.uleb128 0x4109
 8879 01d8 01       		.byte	0x1
 8880 01d9 11       		.uleb128 0x11
 8881 01da 01       		.uleb128 0x1
 8882 01db 9542     		.uleb128 0x2115
 8883 01dd 19       		.uleb128 0x19
 8884 01de 31       		.uleb128 0x31
 8885 01df 13       		.uleb128 0x13
 8886 01e0 00       		.byte	0
 8887 01e1 00       		.byte	0
 8888 01e2 28       		.uleb128 0x28
 8889 01e3 2E       		.uleb128 0x2e
 8890 01e4 01       		.byte	0x1
 8891 01e5 3F       		.uleb128 0x3f
 8892 01e6 19       		.uleb128 0x19
 8893 01e7 03       		.uleb128 0x3
 8894 01e8 0E       		.uleb128 0xe
ARM GAS  C:\Users\chemi\AppData\Local\Temp\cc0tO343.s 			page 189


 8895 01e9 3A       		.uleb128 0x3a
 8896 01ea 0B       		.uleb128 0xb
 8897 01eb 3B       		.uleb128 0x3b
 8898 01ec 05       		.uleb128 0x5
 8899 01ed 27       		.uleb128 0x27
 8900 01ee 19       		.uleb128 0x19
 8901 01ef 49       		.uleb128 0x49
 8902 01f0 13       		.uleb128 0x13
 8903 01f1 11       		.uleb128 0x11
 8904 01f2 01       		.uleb128 0x1
 8905 01f3 12       		.uleb128 0x12
 8906 01f4 06       		.uleb128 0x6
 8907 01f5 40       		.uleb128 0x40
 8908 01f6 18       		.uleb128 0x18
 8909 01f7 9742     		.uleb128 0x2117
 8910 01f9 19       		.uleb128 0x19
 8911 01fa 01       		.uleb128 0x1
 8912 01fb 13       		.uleb128 0x13
 8913 01fc 00       		.byte	0
 8914 01fd 00       		.byte	0
 8915 01fe 29       		.uleb128 0x29
 8916 01ff 05       		.uleb128 0x5
 8917 0200 00       		.byte	0
 8918 0201 03       		.uleb128 0x3
 8919 0202 08       		.uleb128 0x8
 8920 0203 3A       		.uleb128 0x3a
 8921 0204 0B       		.uleb128 0xb
 8922 0205 3B       		.uleb128 0x3b
 8923 0206 05       		.uleb128 0x5
 8924 0207 49       		.uleb128 0x49
 8925 0208 13       		.uleb128 0x13
 8926 0209 02       		.uleb128 0x2
 8927 020a 17       		.uleb128 0x17
 8928 020b 00       		.byte	0
 8929 020c 00       		.byte	0
 8930 020d 2A       		.uleb128 0x2a
 8931 020e 2E       		.uleb128 0x2e
 8932 020f 01       		.byte	0x1
 8933 0210 3F       		.uleb128 0x3f
 8934 0211 19       		.uleb128 0x19
 8935 0212 03       		.uleb128 0x3
 8936 0213 0E       		.uleb128 0xe
 8937 0214 3A       		.uleb128 0x3a
 8938 0215 0B       		.uleb128 0xb
 8939 0216 3B       		.uleb128 0x3b
 8940 0217 05       		.uleb128 0x5
 8941 0218 27       		.uleb128 0x27
 8942 0219 19       		.uleb128 0x19
 8943 021a 11       		.uleb128 0x11
 8944 021b 01       		.uleb128 0x1
 8945 021c 12       		.uleb128 0x12
 8946 021d 06       		.uleb128 0x6
 8947 021e 40       		.uleb128 0x40
 8948 021f 18       		.uleb128 0x18
 8949 0220 9742     		.uleb128 0x2117
 8950 0222 19       		.uleb128 0x19
 8951 0223 01       		.uleb128 0x1
ARM GAS  C:\Users\chemi\AppData\Local\Temp\cc0tO343.s 			page 190


 8952 0224 13       		.uleb128 0x13
 8953 0225 00       		.byte	0
 8954 0226 00       		.byte	0
 8955 0227 2B       		.uleb128 0x2b
 8956 0228 05       		.uleb128 0x5
 8957 0229 00       		.byte	0
 8958 022a 03       		.uleb128 0x3
 8959 022b 0E       		.uleb128 0xe
 8960 022c 3A       		.uleb128 0x3a
 8961 022d 0B       		.uleb128 0xb
 8962 022e 3B       		.uleb128 0x3b
 8963 022f 05       		.uleb128 0x5
 8964 0230 49       		.uleb128 0x49
 8965 0231 13       		.uleb128 0x13
 8966 0232 02       		.uleb128 0x2
 8967 0233 17       		.uleb128 0x17
 8968 0234 00       		.byte	0
 8969 0235 00       		.byte	0
 8970 0236 2C       		.uleb128 0x2c
 8971 0237 34       		.uleb128 0x34
 8972 0238 00       		.byte	0
 8973 0239 03       		.uleb128 0x3
 8974 023a 08       		.uleb128 0x8
 8975 023b 3A       		.uleb128 0x3a
 8976 023c 0B       		.uleb128 0xb
 8977 023d 3B       		.uleb128 0x3b
 8978 023e 05       		.uleb128 0x5
 8979 023f 49       		.uleb128 0x49
 8980 0240 13       		.uleb128 0x13
 8981 0241 02       		.uleb128 0x2
 8982 0242 17       		.uleb128 0x17
 8983 0243 00       		.byte	0
 8984 0244 00       		.byte	0
 8985 0245 2D       		.uleb128 0x2d
 8986 0246 898201   		.uleb128 0x4109
 8987 0249 01       		.byte	0x1
 8988 024a 11       		.uleb128 0x11
 8989 024b 01       		.uleb128 0x1
 8990 024c 31       		.uleb128 0x31
 8991 024d 13       		.uleb128 0x13
 8992 024e 01       		.uleb128 0x1
 8993 024f 13       		.uleb128 0x13
 8994 0250 00       		.byte	0
 8995 0251 00       		.byte	0
 8996 0252 2E       		.uleb128 0x2e
 8997 0253 898201   		.uleb128 0x4109
 8998 0256 01       		.byte	0x1
 8999 0257 11       		.uleb128 0x11
 9000 0258 01       		.uleb128 0x1
 9001 0259 31       		.uleb128 0x31
 9002 025a 13       		.uleb128 0x13
 9003 025b 00       		.byte	0
 9004 025c 00       		.byte	0
 9005 025d 2F       		.uleb128 0x2f
 9006 025e 05       		.uleb128 0x5
 9007 025f 00       		.byte	0
 9008 0260 03       		.uleb128 0x3
ARM GAS  C:\Users\chemi\AppData\Local\Temp\cc0tO343.s 			page 191


 9009 0261 08       		.uleb128 0x8
 9010 0262 3A       		.uleb128 0x3a
 9011 0263 0B       		.uleb128 0xb
 9012 0264 3B       		.uleb128 0x3b
 9013 0265 05       		.uleb128 0x5
 9014 0266 49       		.uleb128 0x49
 9015 0267 13       		.uleb128 0x13
 9016 0268 02       		.uleb128 0x2
 9017 0269 18       		.uleb128 0x18
 9018 026a 00       		.byte	0
 9019 026b 00       		.byte	0
 9020 026c 30       		.uleb128 0x30
 9021 026d 34       		.uleb128 0x34
 9022 026e 00       		.byte	0
 9023 026f 03       		.uleb128 0x3
 9024 0270 0E       		.uleb128 0xe
 9025 0271 3A       		.uleb128 0x3a
 9026 0272 0B       		.uleb128 0xb
 9027 0273 3B       		.uleb128 0x3b
 9028 0274 05       		.uleb128 0x5
 9029 0275 49       		.uleb128 0x49
 9030 0276 13       		.uleb128 0x13
 9031 0277 02       		.uleb128 0x2
 9032 0278 17       		.uleb128 0x17
 9033 0279 00       		.byte	0
 9034 027a 00       		.byte	0
 9035 027b 31       		.uleb128 0x31
 9036 027c 2E       		.uleb128 0x2e
 9037 027d 01       		.byte	0x1
 9038 027e 31       		.uleb128 0x31
 9039 027f 13       		.uleb128 0x13
 9040 0280 11       		.uleb128 0x11
 9041 0281 01       		.uleb128 0x1
 9042 0282 12       		.uleb128 0x12
 9043 0283 06       		.uleb128 0x6
 9044 0284 40       		.uleb128 0x40
 9045 0285 18       		.uleb128 0x18
 9046 0286 9742     		.uleb128 0x2117
 9047 0288 19       		.uleb128 0x19
 9048 0289 01       		.uleb128 0x1
 9049 028a 13       		.uleb128 0x13
 9050 028b 00       		.byte	0
 9051 028c 00       		.byte	0
 9052 028d 32       		.uleb128 0x32
 9053 028e 34       		.uleb128 0x34
 9054 028f 00       		.byte	0
 9055 0290 31       		.uleb128 0x31
 9056 0291 13       		.uleb128 0x13
 9057 0292 02       		.uleb128 0x2
 9058 0293 17       		.uleb128 0x17
 9059 0294 00       		.byte	0
 9060 0295 00       		.byte	0
 9061 0296 33       		.uleb128 0x33
 9062 0297 0B       		.uleb128 0xb
 9063 0298 01       		.byte	0x1
 9064 0299 11       		.uleb128 0x11
 9065 029a 01       		.uleb128 0x1
ARM GAS  C:\Users\chemi\AppData\Local\Temp\cc0tO343.s 			page 192


 9066 029b 12       		.uleb128 0x12
 9067 029c 06       		.uleb128 0x6
 9068 029d 00       		.byte	0
 9069 029e 00       		.byte	0
 9070 029f 34       		.uleb128 0x34
 9071 02a0 34       		.uleb128 0x34
 9072 02a1 00       		.byte	0
 9073 02a2 03       		.uleb128 0x3
 9074 02a3 0E       		.uleb128 0xe
 9075 02a4 3A       		.uleb128 0x3a
 9076 02a5 0B       		.uleb128 0xb
 9077 02a6 3B       		.uleb128 0x3b
 9078 02a7 05       		.uleb128 0x5
 9079 02a8 49       		.uleb128 0x49
 9080 02a9 13       		.uleb128 0x13
 9081 02aa 02       		.uleb128 0x2
 9082 02ab 18       		.uleb128 0x18
 9083 02ac 00       		.byte	0
 9084 02ad 00       		.byte	0
 9085 02ae 35       		.uleb128 0x35
 9086 02af 05       		.uleb128 0x5
 9087 02b0 00       		.byte	0
 9088 02b1 03       		.uleb128 0x3
 9089 02b2 0E       		.uleb128 0xe
 9090 02b3 3A       		.uleb128 0x3a
 9091 02b4 0B       		.uleb128 0xb
 9092 02b5 3B       		.uleb128 0x3b
 9093 02b6 05       		.uleb128 0x5
 9094 02b7 49       		.uleb128 0x49
 9095 02b8 13       		.uleb128 0x13
 9096 02b9 02       		.uleb128 0x2
 9097 02ba 18       		.uleb128 0x18
 9098 02bb 00       		.byte	0
 9099 02bc 00       		.byte	0
 9100 02bd 36       		.uleb128 0x36
 9101 02be 0B       		.uleb128 0xb
 9102 02bf 01       		.byte	0x1
 9103 02c0 55       		.uleb128 0x55
 9104 02c1 17       		.uleb128 0x17
 9105 02c2 01       		.uleb128 0x1
 9106 02c3 13       		.uleb128 0x13
 9107 02c4 00       		.byte	0
 9108 02c5 00       		.byte	0
 9109 02c6 37       		.uleb128 0x37
 9110 02c7 34       		.uleb128 0x34
 9111 02c8 00       		.byte	0
 9112 02c9 31       		.uleb128 0x31
 9113 02ca 13       		.uleb128 0x13
 9114 02cb 00       		.byte	0
 9115 02cc 00       		.byte	0
 9116 02cd 38       		.uleb128 0x38
 9117 02ce 898201   		.uleb128 0x4109
 9118 02d1 01       		.byte	0x1
 9119 02d2 11       		.uleb128 0x11
 9120 02d3 01       		.uleb128 0x1
 9121 02d4 00       		.byte	0
 9122 02d5 00       		.byte	0
ARM GAS  C:\Users\chemi\AppData\Local\Temp\cc0tO343.s 			page 193


 9123 02d6 39       		.uleb128 0x39
 9124 02d7 0B       		.uleb128 0xb
 9125 02d8 01       		.byte	0x1
 9126 02d9 55       		.uleb128 0x55
 9127 02da 17       		.uleb128 0x17
 9128 02db 00       		.byte	0
 9129 02dc 00       		.byte	0
 9130 02dd 3A       		.uleb128 0x3a
 9131 02de 34       		.uleb128 0x34
 9132 02df 00       		.byte	0
 9133 02e0 03       		.uleb128 0x3
 9134 02e1 0E       		.uleb128 0xe
 9135 02e2 3A       		.uleb128 0x3a
 9136 02e3 0B       		.uleb128 0xb
 9137 02e4 3B       		.uleb128 0x3b
 9138 02e5 05       		.uleb128 0x5
 9139 02e6 49       		.uleb128 0x49
 9140 02e7 13       		.uleb128 0x13
 9141 02e8 1C       		.uleb128 0x1c
 9142 02e9 0B       		.uleb128 0xb
 9143 02ea 00       		.byte	0
 9144 02eb 00       		.byte	0
 9145 02ec 3B       		.uleb128 0x3b
 9146 02ed 898201   		.uleb128 0x4109
 9147 02f0 01       		.byte	0x1
 9148 02f1 11       		.uleb128 0x11
 9149 02f2 01       		.uleb128 0x1
 9150 02f3 9542     		.uleb128 0x2115
 9151 02f5 19       		.uleb128 0x19
 9152 02f6 00       		.byte	0
 9153 02f7 00       		.byte	0
 9154 02f8 3C       		.uleb128 0x3c
 9155 02f9 2E       		.uleb128 0x2e
 9156 02fa 01       		.byte	0x1
 9157 02fb 3F       		.uleb128 0x3f
 9158 02fc 19       		.uleb128 0x19
 9159 02fd 03       		.uleb128 0x3
 9160 02fe 0E       		.uleb128 0xe
 9161 02ff 3A       		.uleb128 0x3a
 9162 0300 0B       		.uleb128 0xb
 9163 0301 3B       		.uleb128 0x3b
 9164 0302 05       		.uleb128 0x5
 9165 0303 27       		.uleb128 0x27
 9166 0304 19       		.uleb128 0x19
 9167 0305 11       		.uleb128 0x11
 9168 0306 01       		.uleb128 0x1
 9169 0307 12       		.uleb128 0x12
 9170 0308 06       		.uleb128 0x6
 9171 0309 40       		.uleb128 0x40
 9172 030a 18       		.uleb128 0x18
 9173 030b 01       		.uleb128 0x1
 9174 030c 13       		.uleb128 0x13
 9175 030d 00       		.byte	0
 9176 030e 00       		.byte	0
 9177 030f 3D       		.uleb128 0x3d
 9178 0310 05       		.uleb128 0x5
 9179 0311 00       		.byte	0
ARM GAS  C:\Users\chemi\AppData\Local\Temp\cc0tO343.s 			page 194


 9180 0312 03       		.uleb128 0x3
 9181 0313 0E       		.uleb128 0xe
 9182 0314 3A       		.uleb128 0x3a
 9183 0315 0B       		.uleb128 0xb
 9184 0316 3B       		.uleb128 0x3b
 9185 0317 0B       		.uleb128 0xb
 9186 0318 49       		.uleb128 0x49
 9187 0319 13       		.uleb128 0x13
 9188 031a 02       		.uleb128 0x2
 9189 031b 18       		.uleb128 0x18
 9190 031c 00       		.byte	0
 9191 031d 00       		.byte	0
 9192 031e 3E       		.uleb128 0x3e
 9193 031f 34       		.uleb128 0x34
 9194 0320 00       		.byte	0
 9195 0321 03       		.uleb128 0x3
 9196 0322 08       		.uleb128 0x8
 9197 0323 3A       		.uleb128 0x3a
 9198 0324 0B       		.uleb128 0xb
 9199 0325 3B       		.uleb128 0x3b
 9200 0326 0B       		.uleb128 0xb
 9201 0327 49       		.uleb128 0x49
 9202 0328 13       		.uleb128 0x13
 9203 0329 02       		.uleb128 0x2
 9204 032a 18       		.uleb128 0x18
 9205 032b 00       		.byte	0
 9206 032c 00       		.byte	0
 9207 032d 3F       		.uleb128 0x3f
 9208 032e 898201   		.uleb128 0x4109
 9209 0331 01       		.byte	0x1
 9210 0332 11       		.uleb128 0x11
 9211 0333 01       		.uleb128 0x1
 9212 0334 9342     		.uleb128 0x2113
 9213 0336 18       		.uleb128 0x18
 9214 0337 01       		.uleb128 0x1
 9215 0338 13       		.uleb128 0x13
 9216 0339 00       		.byte	0
 9217 033a 00       		.byte	0
 9218 033b 40       		.uleb128 0x40
 9219 033c 898201   		.uleb128 0x4109
 9220 033f 01       		.byte	0x1
 9221 0340 11       		.uleb128 0x11
 9222 0341 01       		.uleb128 0x1
 9223 0342 9542     		.uleb128 0x2115
 9224 0344 19       		.uleb128 0x19
 9225 0345 01       		.uleb128 0x1
 9226 0346 13       		.uleb128 0x13
 9227 0347 00       		.byte	0
 9228 0348 00       		.byte	0
 9229 0349 41       		.uleb128 0x41
 9230 034a 2E       		.uleb128 0x2e
 9231 034b 01       		.byte	0x1
 9232 034c 3F       		.uleb128 0x3f
 9233 034d 19       		.uleb128 0x19
 9234 034e 03       		.uleb128 0x3
 9235 034f 0E       		.uleb128 0xe
 9236 0350 3A       		.uleb128 0x3a
ARM GAS  C:\Users\chemi\AppData\Local\Temp\cc0tO343.s 			page 195


 9237 0351 0B       		.uleb128 0xb
 9238 0352 3B       		.uleb128 0x3b
 9239 0353 0B       		.uleb128 0xb
 9240 0354 27       		.uleb128 0x27
 9241 0355 19       		.uleb128 0x19
 9242 0356 49       		.uleb128 0x49
 9243 0357 13       		.uleb128 0x13
 9244 0358 11       		.uleb128 0x11
 9245 0359 01       		.uleb128 0x1
 9246 035a 12       		.uleb128 0x12
 9247 035b 06       		.uleb128 0x6
 9248 035c 40       		.uleb128 0x40
 9249 035d 18       		.uleb128 0x18
 9250 035e 9742     		.uleb128 0x2117
 9251 0360 19       		.uleb128 0x19
 9252 0361 01       		.uleb128 0x1
 9253 0362 13       		.uleb128 0x13
 9254 0363 00       		.byte	0
 9255 0364 00       		.byte	0
 9256 0365 42       		.uleb128 0x42
 9257 0366 05       		.uleb128 0x5
 9258 0367 00       		.byte	0
 9259 0368 03       		.uleb128 0x3
 9260 0369 08       		.uleb128 0x8
 9261 036a 3A       		.uleb128 0x3a
 9262 036b 0B       		.uleb128 0xb
 9263 036c 3B       		.uleb128 0x3b
 9264 036d 0B       		.uleb128 0xb
 9265 036e 49       		.uleb128 0x49
 9266 036f 13       		.uleb128 0x13
 9267 0370 02       		.uleb128 0x2
 9268 0371 17       		.uleb128 0x17
 9269 0372 00       		.byte	0
 9270 0373 00       		.byte	0
 9271 0374 43       		.uleb128 0x43
 9272 0375 34       		.uleb128 0x34
 9273 0376 00       		.byte	0
 9274 0377 03       		.uleb128 0x3
 9275 0378 08       		.uleb128 0x8
 9276 0379 3A       		.uleb128 0x3a
 9277 037a 0B       		.uleb128 0xb
 9278 037b 3B       		.uleb128 0x3b
 9279 037c 0B       		.uleb128 0xb
 9280 037d 49       		.uleb128 0x49
 9281 037e 13       		.uleb128 0x13
 9282 037f 02       		.uleb128 0x2
 9283 0380 17       		.uleb128 0x17
 9284 0381 00       		.byte	0
 9285 0382 00       		.byte	0
 9286 0383 44       		.uleb128 0x44
 9287 0384 1D       		.uleb128 0x1d
 9288 0385 01       		.byte	0x1
 9289 0386 31       		.uleb128 0x31
 9290 0387 13       		.uleb128 0x13
 9291 0388 11       		.uleb128 0x11
 9292 0389 01       		.uleb128 0x1
 9293 038a 12       		.uleb128 0x12
ARM GAS  C:\Users\chemi\AppData\Local\Temp\cc0tO343.s 			page 196


 9294 038b 06       		.uleb128 0x6
 9295 038c 58       		.uleb128 0x58
 9296 038d 0B       		.uleb128 0xb
 9297 038e 59       		.uleb128 0x59
 9298 038f 05       		.uleb128 0x5
 9299 0390 01       		.uleb128 0x1
 9300 0391 13       		.uleb128 0x13
 9301 0392 00       		.byte	0
 9302 0393 00       		.byte	0
 9303 0394 45       		.uleb128 0x45
 9304 0395 2E       		.uleb128 0x2e
 9305 0396 01       		.byte	0x1
 9306 0397 3F       		.uleb128 0x3f
 9307 0398 19       		.uleb128 0x19
 9308 0399 03       		.uleb128 0x3
 9309 039a 0E       		.uleb128 0xe
 9310 039b 3A       		.uleb128 0x3a
 9311 039c 0B       		.uleb128 0xb
 9312 039d 3B       		.uleb128 0x3b
 9313 039e 05       		.uleb128 0x5
 9314 039f 27       		.uleb128 0x27
 9315 03a0 19       		.uleb128 0x19
 9316 03a1 8701     		.uleb128 0x87
 9317 03a3 19       		.uleb128 0x19
 9318 03a4 11       		.uleb128 0x11
 9319 03a5 01       		.uleb128 0x1
 9320 03a6 12       		.uleb128 0x12
 9321 03a7 06       		.uleb128 0x6
 9322 03a8 40       		.uleb128 0x40
 9323 03a9 18       		.uleb128 0x18
 9324 03aa 9742     		.uleb128 0x2117
 9325 03ac 19       		.uleb128 0x19
 9326 03ad 01       		.uleb128 0x1
 9327 03ae 13       		.uleb128 0x13
 9328 03af 00       		.byte	0
 9329 03b0 00       		.byte	0
 9330 03b1 46       		.uleb128 0x46
 9331 03b2 34       		.uleb128 0x34
 9332 03b3 00       		.byte	0
 9333 03b4 03       		.uleb128 0x3
 9334 03b5 0E       		.uleb128 0xe
 9335 03b6 3A       		.uleb128 0x3a
 9336 03b7 0B       		.uleb128 0xb
 9337 03b8 3B       		.uleb128 0x3b
 9338 03b9 05       		.uleb128 0x5
 9339 03ba 49       		.uleb128 0x49
 9340 03bb 13       		.uleb128 0x13
 9341 03bc 3F       		.uleb128 0x3f
 9342 03bd 19       		.uleb128 0x19
 9343 03be 3C       		.uleb128 0x3c
 9344 03bf 19       		.uleb128 0x19
 9345 03c0 00       		.byte	0
 9346 03c1 00       		.byte	0
 9347 03c2 47       		.uleb128 0x47
 9348 03c3 35       		.uleb128 0x35
 9349 03c4 00       		.byte	0
 9350 03c5 49       		.uleb128 0x49
ARM GAS  C:\Users\chemi\AppData\Local\Temp\cc0tO343.s 			page 197


 9351 03c6 13       		.uleb128 0x13
 9352 03c7 00       		.byte	0
 9353 03c8 00       		.byte	0
 9354 03c9 48       		.uleb128 0x48
 9355 03ca 34       		.uleb128 0x34
 9356 03cb 00       		.byte	0
 9357 03cc 03       		.uleb128 0x3
 9358 03cd 0E       		.uleb128 0xe
 9359 03ce 3A       		.uleb128 0x3a
 9360 03cf 0B       		.uleb128 0xb
 9361 03d0 3B       		.uleb128 0x3b
 9362 03d1 05       		.uleb128 0x5
 9363 03d2 49       		.uleb128 0x49
 9364 03d3 13       		.uleb128 0x13
 9365 03d4 3F       		.uleb128 0x3f
 9366 03d5 19       		.uleb128 0x19
 9367 03d6 02       		.uleb128 0x2
 9368 03d7 18       		.uleb128 0x18
 9369 03d8 00       		.byte	0
 9370 03d9 00       		.byte	0
 9371 03da 49       		.uleb128 0x49
 9372 03db 34       		.uleb128 0x34
 9373 03dc 00       		.byte	0
 9374 03dd 03       		.uleb128 0x3
 9375 03de 0E       		.uleb128 0xe
 9376 03df 3A       		.uleb128 0x3a
 9377 03e0 0B       		.uleb128 0xb
 9378 03e1 3B       		.uleb128 0x3b
 9379 03e2 0B       		.uleb128 0xb
 9380 03e3 49       		.uleb128 0x49
 9381 03e4 13       		.uleb128 0x13
 9382 03e5 3F       		.uleb128 0x3f
 9383 03e6 19       		.uleb128 0x19
 9384 03e7 02       		.uleb128 0x2
 9385 03e8 18       		.uleb128 0x18
 9386 03e9 00       		.byte	0
 9387 03ea 00       		.byte	0
 9388 03eb 4A       		.uleb128 0x4a
 9389 03ec 2E       		.uleb128 0x2e
 9390 03ed 00       		.byte	0
 9391 03ee 3F       		.uleb128 0x3f
 9392 03ef 19       		.uleb128 0x19
 9393 03f0 3C       		.uleb128 0x3c
 9394 03f1 19       		.uleb128 0x19
 9395 03f2 6E       		.uleb128 0x6e
 9396 03f3 0E       		.uleb128 0xe
 9397 03f4 03       		.uleb128 0x3
 9398 03f5 0E       		.uleb128 0xe
 9399 03f6 3A       		.uleb128 0x3a
 9400 03f7 0B       		.uleb128 0xb
 9401 03f8 3B       		.uleb128 0x3b
 9402 03f9 0B       		.uleb128 0xb
 9403 03fa 00       		.byte	0
 9404 03fb 00       		.byte	0
 9405 03fc 4B       		.uleb128 0x4b
 9406 03fd 2E       		.uleb128 0x2e
 9407 03fe 00       		.byte	0
ARM GAS  C:\Users\chemi\AppData\Local\Temp\cc0tO343.s 			page 198


 9408 03ff 3F       		.uleb128 0x3f
 9409 0400 19       		.uleb128 0x19
 9410 0401 3C       		.uleb128 0x3c
 9411 0402 19       		.uleb128 0x19
 9412 0403 6E       		.uleb128 0x6e
 9413 0404 0E       		.uleb128 0xe
 9414 0405 03       		.uleb128 0x3
 9415 0406 0E       		.uleb128 0xe
 9416 0407 00       		.byte	0
 9417 0408 00       		.byte	0
 9418 0409 4C       		.uleb128 0x4c
 9419 040a 2E       		.uleb128 0x2e
 9420 040b 00       		.byte	0
 9421 040c 3F       		.uleb128 0x3f
 9422 040d 19       		.uleb128 0x19
 9423 040e 3C       		.uleb128 0x3c
 9424 040f 19       		.uleb128 0x19
 9425 0410 6E       		.uleb128 0x6e
 9426 0411 0E       		.uleb128 0xe
 9427 0412 03       		.uleb128 0x3
 9428 0413 0E       		.uleb128 0xe
 9429 0414 3A       		.uleb128 0x3a
 9430 0415 0B       		.uleb128 0xb
 9431 0416 3B       		.uleb128 0x3b
 9432 0417 05       		.uleb128 0x5
 9433 0418 00       		.byte	0
 9434 0419 00       		.byte	0
 9435 041a 00       		.byte	0
 9436              		.section	.debug_loc,"",%progbits
 9437              	.Ldebug_loc0:
 9438              	.LLST0:
 9439 0000 00000000 		.4byte	.LVL0
 9440 0004 1C000000 		.4byte	.LVL2
 9441 0008 0100     		.2byte	0x1
 9442 000a 50       		.byte	0x50
 9443 000b 1C000000 		.4byte	.LVL2
 9444 000f 20000000 		.4byte	.LVL4
 9445 0013 0400     		.2byte	0x4
 9446 0015 F3       		.byte	0xf3
 9447 0016 01       		.uleb128 0x1
 9448 0017 50       		.byte	0x50
 9449 0018 9F       		.byte	0x9f
 9450 0019 20000000 		.4byte	.LVL4
 9451 001d 48000000 		.4byte	.LVL9
 9452 0021 0100     		.2byte	0x1
 9453 0023 50       		.byte	0x50
 9454 0024 48000000 		.4byte	.LVL9
 9455 0028 60000000 		.4byte	.LFE77
 9456 002c 0400     		.2byte	0x4
 9457 002e F3       		.byte	0xf3
 9458 002f 01       		.uleb128 0x1
 9459 0030 50       		.byte	0x50
 9460 0031 9F       		.byte	0x9f
 9461 0032 00000000 		.4byte	0
 9462 0036 00000000 		.4byte	0
 9463              	.LLST1:
 9464 003a 00000000 		.4byte	.LVL0
ARM GAS  C:\Users\chemi\AppData\Local\Temp\cc0tO343.s 			page 199


 9465 003e 1A000000 		.4byte	.LVL1
 9466 0042 0100     		.2byte	0x1
 9467 0044 51       		.byte	0x51
 9468 0045 1A000000 		.4byte	.LVL1
 9469 0049 20000000 		.4byte	.LVL4
 9470 004d 0400     		.2byte	0x4
 9471 004f F3       		.byte	0xf3
 9472 0050 01       		.uleb128 0x1
 9473 0051 51       		.byte	0x51
 9474 0052 9F       		.byte	0x9f
 9475 0053 20000000 		.4byte	.LVL4
 9476 0057 32000000 		.4byte	.LVL5
 9477 005b 0100     		.2byte	0x1
 9478 005d 51       		.byte	0x51
 9479 005e 32000000 		.4byte	.LVL5
 9480 0062 34000000 		.4byte	.LVL6
 9481 0066 0400     		.2byte	0x4
 9482 0068 F3       		.byte	0xf3
 9483 0069 01       		.uleb128 0x1
 9484 006a 51       		.byte	0x51
 9485 006b 9F       		.byte	0x9f
 9486 006c 34000000 		.4byte	.LVL6
 9487 0070 3E000000 		.4byte	.LVL7
 9488 0074 0100     		.2byte	0x1
 9489 0076 51       		.byte	0x51
 9490 0077 3E000000 		.4byte	.LVL7
 9491 007b 60000000 		.4byte	.LFE77
 9492 007f 0400     		.2byte	0x4
 9493 0081 F3       		.byte	0xf3
 9494 0082 01       		.uleb128 0x1
 9495 0083 51       		.byte	0x51
 9496 0084 9F       		.byte	0x9f
 9497 0085 00000000 		.4byte	0
 9498 0089 00000000 		.4byte	0
 9499              	.LLST2:
 9500 008d 34000000 		.4byte	.LVL6
 9501 0091 46000000 		.4byte	.LVL8
 9502 0095 0200     		.2byte	0x2
 9503 0097 31       		.byte	0x31
 9504 0098 9F       		.byte	0x9f
 9505 0099 00000000 		.4byte	0
 9506 009d 00000000 		.4byte	0
 9507              	.LLST3:
 9508 00a1 34000000 		.4byte	.LVL6
 9509 00a5 46000000 		.4byte	.LVL8
 9510 00a9 0100     		.2byte	0x1
 9511 00ab 50       		.byte	0x50
 9512 00ac 00000000 		.4byte	0
 9513 00b0 00000000 		.4byte	0
 9514              	.LLST4:
 9515 00b4 00000000 		.4byte	.LVL11
 9516 00b8 0D000000 		.4byte	.LVL12-1
 9517 00bc 0100     		.2byte	0x1
 9518 00be 50       		.byte	0x50
 9519 00bf 0D000000 		.4byte	.LVL12-1
 9520 00c3 44000000 		.4byte	.LVL18
 9521 00c7 0100     		.2byte	0x1
ARM GAS  C:\Users\chemi\AppData\Local\Temp\cc0tO343.s 			page 200


 9522 00c9 54       		.byte	0x54
 9523 00ca 44000000 		.4byte	.LVL18
 9524 00ce 47000000 		.4byte	.LVL19-1
 9525 00d2 0100     		.2byte	0x1
 9526 00d4 50       		.byte	0x50
 9527 00d5 47000000 		.4byte	.LVL19-1
 9528 00d9 48000000 		.4byte	.LFE70
 9529 00dd 0400     		.2byte	0x4
 9530 00df F3       		.byte	0xf3
 9531 00e0 01       		.uleb128 0x1
 9532 00e1 50       		.byte	0x50
 9533 00e2 9F       		.byte	0x9f
 9534 00e3 00000000 		.4byte	0
 9535 00e7 00000000 		.4byte	0
 9536              	.LLST5:
 9537 00eb 1E000000 		.4byte	.LVL14
 9538 00ef 24000000 		.4byte	.LVL15
 9539 00f3 0200     		.2byte	0x2
 9540 00f5 30       		.byte	0x30
 9541 00f6 9F       		.byte	0x9f
 9542 00f7 00000000 		.4byte	0
 9543 00fb 00000000 		.4byte	0
 9544              	.LLST6:
 9545 00ff 00000000 		.4byte	.LVL20
 9546 0103 16000000 		.4byte	.LVL21
 9547 0107 0100     		.2byte	0x1
 9548 0109 50       		.byte	0x50
 9549 010a 16000000 		.4byte	.LVL21
 9550 010e 1A000000 		.4byte	.LVL22
 9551 0112 0400     		.2byte	0x4
 9552 0114 F3       		.byte	0xf3
 9553 0115 01       		.uleb128 0x1
 9554 0116 50       		.byte	0x50
 9555 0117 9F       		.byte	0x9f
 9556 0118 1A000000 		.4byte	.LVL22
 9557 011c 1C000000 		.4byte	.LVL23
 9558 0120 0100     		.2byte	0x1
 9559 0122 50       		.byte	0x50
 9560 0123 1C000000 		.4byte	.LVL23
 9561 0127 1E000000 		.4byte	.LFE73
 9562 012b 0400     		.2byte	0x4
 9563 012d F3       		.byte	0xf3
 9564 012e 01       		.uleb128 0x1
 9565 012f 50       		.byte	0x50
 9566 0130 9F       		.byte	0x9f
 9567 0131 00000000 		.4byte	0
 9568 0135 00000000 		.4byte	0
 9569              	.LLST7:
 9570 0139 00000000 		.4byte	.LVL24
 9571 013d 08000000 		.4byte	.LVL25
 9572 0141 0100     		.2byte	0x1
 9573 0143 50       		.byte	0x50
 9574 0144 08000000 		.4byte	.LVL25
 9575 0148 18000000 		.4byte	.LFE75
 9576 014c 0400     		.2byte	0x4
 9577 014e F3       		.byte	0xf3
 9578 014f 01       		.uleb128 0x1
ARM GAS  C:\Users\chemi\AppData\Local\Temp\cc0tO343.s 			page 201


 9579 0150 50       		.byte	0x50
 9580 0151 9F       		.byte	0x9f
 9581 0152 00000000 		.4byte	0
 9582 0156 00000000 		.4byte	0
 9583              	.LLST8:
 9584 015a 00000000 		.4byte	.LVL26
 9585 015e 04000000 		.4byte	.LVL27
 9586 0162 0100     		.2byte	0x1
 9587 0164 50       		.byte	0x50
 9588 0165 04000000 		.4byte	.LVL27
 9589 0169 0A000000 		.4byte	.LVL28
 9590 016d 0300     		.2byte	0x3
 9591 016f 70       		.byte	0x70
 9592 0170 01       		.sleb128 1
 9593 0171 9F       		.byte	0x9f
 9594 0172 0A000000 		.4byte	.LVL28
 9595 0176 14000000 		.4byte	.LFE76
 9596 017a 0400     		.2byte	0x4
 9597 017c F3       		.byte	0xf3
 9598 017d 01       		.uleb128 0x1
 9599 017e 50       		.byte	0x50
 9600 017f 9F       		.byte	0x9f
 9601 0180 00000000 		.4byte	0
 9602 0184 00000000 		.4byte	0
 9603              	.LLST9:
 9604 0188 00000000 		.4byte	.LVL29
 9605 018c 24000000 		.4byte	.LVL31
 9606 0190 0100     		.2byte	0x1
 9607 0192 50       		.byte	0x50
 9608 0193 24000000 		.4byte	.LVL31
 9609 0197 82000000 		.4byte	.LVL41
 9610 019b 0100     		.2byte	0x1
 9611 019d 54       		.byte	0x54
 9612 019e 82000000 		.4byte	.LVL41
 9613 01a2 88000000 		.4byte	.LFE79
 9614 01a6 0400     		.2byte	0x4
 9615 01a8 F3       		.byte	0xf3
 9616 01a9 01       		.uleb128 0x1
 9617 01aa 50       		.byte	0x50
 9618 01ab 9F       		.byte	0x9f
 9619 01ac 00000000 		.4byte	0
 9620 01b0 00000000 		.4byte	0
 9621              	.LLST10:
 9622 01b4 00000000 		.4byte	.LVL29
 9623 01b8 0C000000 		.4byte	.LVL30
 9624 01bc 0100     		.2byte	0x1
 9625 01be 51       		.byte	0x51
 9626 01bf 0C000000 		.4byte	.LVL30
 9627 01c3 88000000 		.4byte	.LFE79
 9628 01c7 0400     		.2byte	0x4
 9629 01c9 F3       		.byte	0xf3
 9630 01ca 01       		.uleb128 0x1
 9631 01cb 51       		.byte	0x51
 9632 01cc 9F       		.byte	0x9f
 9633 01cd 00000000 		.4byte	0
 9634 01d1 00000000 		.4byte	0
 9635              	.LLST11:
ARM GAS  C:\Users\chemi\AppData\Local\Temp\cc0tO343.s 			page 202


 9636 01d5 26000000 		.4byte	.LVL32
 9637 01d9 42000000 		.4byte	.LVL36
 9638 01dd 0100     		.2byte	0x1
 9639 01df 55       		.byte	0x55
 9640 01e0 00000000 		.4byte	0
 9641 01e4 00000000 		.4byte	0
 9642              	.LLST12:
 9643 01e8 00000000 		.4byte	.LVL42
 9644 01ec 04000000 		.4byte	.LVL43
 9645 01f0 0100     		.2byte	0x1
 9646 01f2 50       		.byte	0x50
 9647 01f3 04000000 		.4byte	.LVL43
 9648 01f7 20000000 		.4byte	.LFE80
 9649 01fb 0400     		.2byte	0x4
 9650 01fd F3       		.byte	0xf3
 9651 01fe 01       		.uleb128 0x1
 9652 01ff 50       		.byte	0x50
 9653 0200 9F       		.byte	0x9f
 9654 0201 00000000 		.4byte	0
 9655 0205 00000000 		.4byte	0
 9656              	.LLST13:
 9657 0209 00000000 		.4byte	.LVL42
 9658 020d 04000000 		.4byte	.LVL43
 9659 0211 0100     		.2byte	0x1
 9660 0213 52       		.byte	0x52
 9661 0214 04000000 		.4byte	.LVL43
 9662 0218 20000000 		.4byte	.LFE80
 9663 021c 0400     		.2byte	0x4
 9664 021e F3       		.byte	0xf3
 9665 021f 01       		.uleb128 0x1
 9666 0220 52       		.byte	0x52
 9667 0221 9F       		.byte	0x9f
 9668 0222 00000000 		.4byte	0
 9669 0226 00000000 		.4byte	0
 9670              	.LLST14:
 9671 022a 00000000 		.4byte	.LVL42
 9672 022e 04000000 		.4byte	.LVL43
 9673 0232 0200     		.2byte	0x2
 9674 0234 30       		.byte	0x30
 9675 0235 9F       		.byte	0x9f
 9676 0236 04000000 		.4byte	.LVL43
 9677 023a 0E000000 		.4byte	.LVL44
 9678 023e 0700     		.2byte	0x7
 9679 0240 70       		.byte	0x70
 9680 0241 00       		.sleb128 0
 9681 0242 F3       		.byte	0xf3
 9682 0243 01       		.uleb128 0x1
 9683 0244 50       		.byte	0x50
 9684 0245 1C       		.byte	0x1c
 9685 0246 9F       		.byte	0x9f
 9686 0247 0E000000 		.4byte	.LVL44
 9687 024b 18000000 		.4byte	.LVL45
 9688 024f 0700     		.2byte	0x7
 9689 0251 73       		.byte	0x73
 9690 0252 00       		.sleb128 0
 9691 0253 F3       		.byte	0xf3
 9692 0254 01       		.uleb128 0x1
ARM GAS  C:\Users\chemi\AppData\Local\Temp\cc0tO343.s 			page 203


 9693 0255 50       		.byte	0x50
 9694 0256 1C       		.byte	0x1c
 9695 0257 9F       		.byte	0x9f
 9696 0258 18000000 		.4byte	.LVL45
 9697 025c 1A000000 		.4byte	.LVL46
 9698 0260 0800     		.2byte	0x8
 9699 0262 F3       		.byte	0xf3
 9700 0263 01       		.uleb128 0x1
 9701 0264 50       		.byte	0x50
 9702 0265 20       		.byte	0x20
 9703 0266 70       		.byte	0x70
 9704 0267 00       		.sleb128 0
 9705 0268 22       		.byte	0x22
 9706 0269 9F       		.byte	0x9f
 9707 026a 1A000000 		.4byte	.LVL46
 9708 026e 1C000000 		.4byte	.LVL47
 9709 0272 0700     		.2byte	0x7
 9710 0274 70       		.byte	0x70
 9711 0275 00       		.sleb128 0
 9712 0276 F3       		.byte	0xf3
 9713 0277 01       		.uleb128 0x1
 9714 0278 50       		.byte	0x50
 9715 0279 1C       		.byte	0x1c
 9716 027a 9F       		.byte	0x9f
 9717 027b 00000000 		.4byte	0
 9718 027f 00000000 		.4byte	0
 9719              	.LLST15:
 9720 0283 00000000 		.4byte	.LVL48
 9721 0287 0F000000 		.4byte	.LVL49-1
 9722 028b 0100     		.2byte	0x1
 9723 028d 50       		.byte	0x50
 9724 028e 0F000000 		.4byte	.LVL49-1
 9725 0292 30000000 		.4byte	.LVL56
 9726 0296 0100     		.2byte	0x1
 9727 0298 54       		.byte	0x54
 9728 0299 30000000 		.4byte	.LVL56
 9729 029d 44000000 		.4byte	.LFE81
 9730 02a1 0100     		.2byte	0x1
 9731 02a3 50       		.byte	0x50
 9732 02a4 00000000 		.4byte	0
 9733 02a8 00000000 		.4byte	0
 9734              	.LLST16:
 9735 02ac 00000000 		.4byte	.LVL48
 9736 02b0 0F000000 		.4byte	.LVL49-1
 9737 02b4 0100     		.2byte	0x1
 9738 02b6 51       		.byte	0x51
 9739 02b7 0F000000 		.4byte	.LVL49-1
 9740 02bb 30000000 		.4byte	.LVL56
 9741 02bf 0100     		.2byte	0x1
 9742 02c1 56       		.byte	0x56
 9743 02c2 30000000 		.4byte	.LVL56
 9744 02c6 32000000 		.4byte	.LVL57
 9745 02ca 0100     		.2byte	0x1
 9746 02cc 51       		.byte	0x51
 9747 02cd 32000000 		.4byte	.LVL57
 9748 02d1 44000000 		.4byte	.LFE81
 9749 02d5 0100     		.2byte	0x1
ARM GAS  C:\Users\chemi\AppData\Local\Temp\cc0tO343.s 			page 204


 9750 02d7 56       		.byte	0x56
 9751 02d8 00000000 		.4byte	0
 9752 02dc 00000000 		.4byte	0
 9753              	.LLST17:
 9754 02e0 00000000 		.4byte	.LVL48
 9755 02e4 0F000000 		.4byte	.LVL49-1
 9756 02e8 0100     		.2byte	0x1
 9757 02ea 52       		.byte	0x52
 9758 02eb 0F000000 		.4byte	.LVL49-1
 9759 02ef 1A000000 		.4byte	.LVL52
 9760 02f3 0100     		.2byte	0x1
 9761 02f5 55       		.byte	0x55
 9762 02f6 1A000000 		.4byte	.LVL52
 9763 02fa 30000000 		.4byte	.LVL56
 9764 02fe 0400     		.2byte	0x4
 9765 0300 F3       		.byte	0xf3
 9766 0301 01       		.uleb128 0x1
 9767 0302 52       		.byte	0x52
 9768 0303 9F       		.byte	0x9f
 9769 0304 30000000 		.4byte	.LVL56
 9770 0308 34000000 		.4byte	.LVL58
 9771 030c 0100     		.2byte	0x1
 9772 030e 52       		.byte	0x52
 9773 030f 34000000 		.4byte	.LVL58
 9774 0313 42000000 		.4byte	.LVL62
 9775 0317 0400     		.2byte	0x4
 9776 0319 75       		.byte	0x75
 9777 031a 00       		.sleb128 0
 9778 031b 1F       		.byte	0x1f
 9779 031c 9F       		.byte	0x9f
 9780 031d 42000000 		.4byte	.LVL62
 9781 0321 44000000 		.4byte	.LFE81
 9782 0325 0400     		.2byte	0x4
 9783 0327 F3       		.byte	0xf3
 9784 0328 01       		.uleb128 0x1
 9785 0329 52       		.byte	0x52
 9786 032a 9F       		.byte	0x9f
 9787 032b 00000000 		.4byte	0
 9788 032f 00000000 		.4byte	0
 9789              	.LLST18:
 9790 0333 14000000 		.4byte	.LVL50
 9791 0337 16000000 		.4byte	.LVL51
 9792 033b 0100     		.2byte	0x1
 9793 033d 50       		.byte	0x50
 9794 033e 16000000 		.4byte	.LVL51
 9795 0342 22000000 		.4byte	.LVL53
 9796 0346 0100     		.2byte	0x1
 9797 0348 53       		.byte	0x53
 9798 0349 26000000 		.4byte	.LVL54
 9799 034d 30000000 		.4byte	.LVL56
 9800 0351 0100     		.2byte	0x1
 9801 0353 53       		.byte	0x53
 9802 0354 00000000 		.4byte	0
 9803 0358 00000000 		.4byte	0
 9804              	.LLST19:
 9805 035c 30000000 		.4byte	.LVL56
 9806 0360 34000000 		.4byte	.LVL58
ARM GAS  C:\Users\chemi\AppData\Local\Temp\cc0tO343.s 			page 205


 9807 0364 0100     		.2byte	0x1
 9808 0366 52       		.byte	0x52
 9809 0367 34000000 		.4byte	.LVL58
 9810 036b 42000000 		.4byte	.LVL62
 9811 036f 0400     		.2byte	0x4
 9812 0371 75       		.byte	0x75
 9813 0372 00       		.sleb128 0
 9814 0373 1F       		.byte	0x1f
 9815 0374 9F       		.byte	0x9f
 9816 0375 00000000 		.4byte	0
 9817 0379 00000000 		.4byte	0
 9818              	.LLST20:
 9819 037d 30000000 		.4byte	.LVL56
 9820 0381 32000000 		.4byte	.LVL57
 9821 0385 0100     		.2byte	0x1
 9822 0387 51       		.byte	0x51
 9823 0388 32000000 		.4byte	.LVL57
 9824 038c 42000000 		.4byte	.LVL62
 9825 0390 0100     		.2byte	0x1
 9826 0392 56       		.byte	0x56
 9827 0393 00000000 		.4byte	0
 9828 0397 00000000 		.4byte	0
 9829              	.LLST21:
 9830 039b 30000000 		.4byte	.LVL56
 9831 039f 42000000 		.4byte	.LVL62
 9832 03a3 0100     		.2byte	0x1
 9833 03a5 50       		.byte	0x50
 9834 03a6 00000000 		.4byte	0
 9835 03aa 00000000 		.4byte	0
 9836              	.LLST22:
 9837 03ae 30000000 		.4byte	.LVL56
 9838 03b2 32000000 		.4byte	.LVL57
 9839 03b6 0100     		.2byte	0x1
 9840 03b8 51       		.byte	0x51
 9841 03b9 32000000 		.4byte	.LVL57
 9842 03bd 34000000 		.4byte	.LVL58
 9843 03c1 0100     		.2byte	0x1
 9844 03c3 56       		.byte	0x56
 9845 03c4 38000000 		.4byte	.LVL59
 9846 03c8 3E000000 		.4byte	.LVL60
 9847 03cc 0100     		.2byte	0x1
 9848 03ce 52       		.byte	0x52
 9849 03cf 40000000 		.4byte	.LVL61
 9850 03d3 42000000 		.4byte	.LVL62
 9851 03d7 0100     		.2byte	0x1
 9852 03d9 52       		.byte	0x52
 9853 03da 00000000 		.4byte	0
 9854 03de 00000000 		.4byte	0
 9855              	.LLST23:
 9856 03e2 00000000 		.4byte	.LVL63
 9857 03e6 0E000000 		.4byte	.LVL65
 9858 03ea 0100     		.2byte	0x1
 9859 03ec 50       		.byte	0x50
 9860 03ed 0E000000 		.4byte	.LVL65
 9861 03f1 24000000 		.4byte	.LVL69
 9862 03f5 0100     		.2byte	0x1
 9863 03f7 54       		.byte	0x54
ARM GAS  C:\Users\chemi\AppData\Local\Temp\cc0tO343.s 			page 206


 9864 03f8 24000000 		.4byte	.LVL69
 9865 03fc 52000000 		.4byte	.LFE82
 9866 0400 0400     		.2byte	0x4
 9867 0402 F3       		.byte	0xf3
 9868 0403 01       		.uleb128 0x1
 9869 0404 50       		.byte	0x50
 9870 0405 9F       		.byte	0x9f
 9871 0406 00000000 		.4byte	0
 9872 040a 00000000 		.4byte	0
 9873              	.LLST24:
 9874 040e 00000000 		.4byte	.LVL63
 9875 0412 28000000 		.4byte	.LVL70
 9876 0416 0200     		.2byte	0x2
 9877 0418 30       		.byte	0x30
 9878 0419 9F       		.byte	0x9f
 9879 041a 28000000 		.4byte	.LVL70
 9880 041e 2A000000 		.4byte	.LVL71
 9881 0422 0100     		.2byte	0x1
 9882 0424 56       		.byte	0x56
 9883 0425 2A000000 		.4byte	.LVL71
 9884 0429 30000000 		.4byte	.LVL72
 9885 042d 0100     		.2byte	0x1
 9886 042f 53       		.byte	0x53
 9887 0430 30000000 		.4byte	.LVL72
 9888 0434 42000000 		.4byte	.LVL74
 9889 0438 0100     		.2byte	0x1
 9890 043a 56       		.byte	0x56
 9891 043b 42000000 		.4byte	.LVL74
 9892 043f 44000000 		.4byte	.LVL75
 9893 0443 0300     		.2byte	0x3
 9894 0445 76       		.byte	0x76
 9895 0446 01       		.sleb128 1
 9896 0447 9F       		.byte	0x9f
 9897 0448 46000000 		.4byte	.LVL76
 9898 044c 4C000000 		.4byte	.LVL77
 9899 0450 0100     		.2byte	0x1
 9900 0452 53       		.byte	0x53
 9901 0453 4C000000 		.4byte	.LVL77
 9902 0457 52000000 		.4byte	.LFE82
 9903 045b 0100     		.2byte	0x1
 9904 045d 56       		.byte	0x56
 9905 045e 00000000 		.4byte	0
 9906 0462 00000000 		.4byte	0
 9907              	.LLST25:
 9908 0466 12000000 		.4byte	.LVL66
 9909 046a 1A000000 		.4byte	.LVL67
 9910 046e 0100     		.2byte	0x1
 9911 0470 50       		.byte	0x50
 9912 0471 00000000 		.4byte	0
 9913 0475 00000000 		.4byte	0
 9914              	.LLST26:
 9915 0479 00000000 		.4byte	.LVL78
 9916 047d 68000000 		.4byte	.LVL95
 9917 0481 0100     		.2byte	0x1
 9918 0483 50       		.byte	0x50
 9919 0484 68000000 		.4byte	.LVL95
 9920 0488 6C000000 		.4byte	.LVL96
ARM GAS  C:\Users\chemi\AppData\Local\Temp\cc0tO343.s 			page 207


 9921 048c 0400     		.2byte	0x4
 9922 048e F3       		.byte	0xf3
 9923 048f 01       		.uleb128 0x1
 9924 0490 50       		.byte	0x50
 9925 0491 9F       		.byte	0x9f
 9926 0492 6C000000 		.4byte	.LVL96
 9927 0496 70000000 		.4byte	.LVL97
 9928 049a 0100     		.2byte	0x1
 9929 049c 50       		.byte	0x50
 9930 049d 70000000 		.4byte	.LVL97
 9931 04a1 74000000 		.4byte	.LFE84
 9932 04a5 0400     		.2byte	0x4
 9933 04a7 F3       		.byte	0xf3
 9934 04a8 01       		.uleb128 0x1
 9935 04a9 50       		.byte	0x50
 9936 04aa 9F       		.byte	0x9f
 9937 04ab 00000000 		.4byte	0
 9938 04af 00000000 		.4byte	0
 9939              	.LLST27:
 9940 04b3 00000000 		.4byte	.LVL78
 9941 04b7 0C000000 		.4byte	.LVL79
 9942 04bb 0100     		.2byte	0x1
 9943 04bd 52       		.byte	0x52
 9944 04be 0C000000 		.4byte	.LVL79
 9945 04c2 74000000 		.4byte	.LFE84
 9946 04c6 0100     		.2byte	0x1
 9947 04c8 5E       		.byte	0x5e
 9948 04c9 00000000 		.4byte	0
 9949 04cd 00000000 		.4byte	0
 9950              	.LLST28:
 9951 04d1 00000000 		.4byte	.LVL78
 9952 04d5 12000000 		.4byte	.LVL80
 9953 04d9 0200     		.2byte	0x2
 9954 04db 30       		.byte	0x30
 9955 04dc 9F       		.byte	0x9f
 9956 04dd 12000000 		.4byte	.LVL80
 9957 04e1 3A000000 		.4byte	.LVL84
 9958 04e5 0100     		.2byte	0x1
 9959 04e7 54       		.byte	0x54
 9960 04e8 3A000000 		.4byte	.LVL84
 9961 04ec 44000000 		.4byte	.LVL85
 9962 04f0 0100     		.2byte	0x1
 9963 04f2 53       		.byte	0x53
 9964 04f3 48000000 		.4byte	.LVL86
 9965 04f7 54000000 		.4byte	.LVL89
 9966 04fb 0100     		.2byte	0x1
 9967 04fd 54       		.byte	0x54
 9968 04fe 54000000 		.4byte	.LVL89
 9969 0502 5E000000 		.4byte	.LVL91
 9970 0506 0100     		.2byte	0x1
 9971 0508 55       		.byte	0x55
 9972 0509 5E000000 		.4byte	.LVL91
 9973 050d 74000000 		.4byte	.LFE84
 9974 0511 0100     		.2byte	0x1
 9975 0513 54       		.byte	0x54
 9976 0514 00000000 		.4byte	0
 9977 0518 00000000 		.4byte	0
ARM GAS  C:\Users\chemi\AppData\Local\Temp\cc0tO343.s 			page 208


 9978              	.LLST29:
 9979 051c 00000000 		.4byte	.LVL78
 9980 0520 12000000 		.4byte	.LVL80
 9981 0524 0200     		.2byte	0x2
 9982 0526 30       		.byte	0x30
 9983 0527 9F       		.byte	0x9f
 9984 0528 12000000 		.4byte	.LVL80
 9985 052c 60000000 		.4byte	.LVL92
 9986 0530 0100     		.2byte	0x1
 9987 0532 57       		.byte	0x57
 9988 0533 60000000 		.4byte	.LVL92
 9989 0537 62000000 		.4byte	.LVL93
 9990 053b 0300     		.2byte	0x3
 9991 053d 77       		.byte	0x77
 9992 053e 01       		.sleb128 1
 9993 053f 9F       		.byte	0x9f
 9994 0540 64000000 		.4byte	.LVL94
 9995 0544 74000000 		.4byte	.LFE84
 9996 0548 0100     		.2byte	0x1
 9997 054a 57       		.byte	0x57
 9998 054b 00000000 		.4byte	0
 9999 054f 00000000 		.4byte	0
 10000              	.LLST30:
 10001 0553 00000000 		.4byte	.LVL78
 10002 0557 12000000 		.4byte	.LVL80
 10003 055b 0200     		.2byte	0x2
 10004 055d 30       		.byte	0x30
 10005 055e 9F       		.byte	0x9f
 10006 055f 12000000 		.4byte	.LVL80
 10007 0563 36000000 		.4byte	.LVL83
 10008 0567 0100     		.2byte	0x1
 10009 0569 53       		.byte	0x53
 10010 056a 36000000 		.4byte	.LVL83
 10011 056e 48000000 		.4byte	.LVL86
 10012 0572 0200     		.2byte	0x2
 10013 0574 30       		.byte	0x30
 10014 0575 9F       		.byte	0x9f
 10015 0576 48000000 		.4byte	.LVL86
 10016 057a 4E000000 		.4byte	.LVL88
 10017 057e 0200     		.2byte	0x2
 10018 0580 31       		.byte	0x31
 10019 0581 9F       		.byte	0x9f
 10020 0582 4E000000 		.4byte	.LVL88
 10021 0586 5E000000 		.4byte	.LVL91
 10022 058a 0100     		.2byte	0x1
 10023 058c 53       		.byte	0x53
 10024 058d 60000000 		.4byte	.LVL92
 10025 0591 74000000 		.4byte	.LFE84
 10026 0595 0100     		.2byte	0x1
 10027 0597 53       		.byte	0x53
 10028 0598 00000000 		.4byte	0
 10029 059c 00000000 		.4byte	0
 10030              	.LLST31:
 10031 05a0 00000000 		.4byte	.LVL78
 10032 05a4 12000000 		.4byte	.LVL80
 10033 05a8 0200     		.2byte	0x2
 10034 05aa 30       		.byte	0x30
ARM GAS  C:\Users\chemi\AppData\Local\Temp\cc0tO343.s 			page 209


 10035 05ab 9F       		.byte	0x9f
 10036 05ac 12000000 		.4byte	.LVL80
 10037 05b0 74000000 		.4byte	.LFE84
 10038 05b4 0100     		.2byte	0x1
 10039 05b6 52       		.byte	0x52
 10040 05b7 00000000 		.4byte	0
 10041 05bb 00000000 		.4byte	0
 10042              	.LLST32:
 10043 05bf 00000000 		.4byte	.LVL78
 10044 05c3 12000000 		.4byte	.LVL80
 10045 05c7 0200     		.2byte	0x2
 10046 05c9 30       		.byte	0x30
 10047 05ca 9F       		.byte	0x9f
 10048 05cb 12000000 		.4byte	.LVL80
 10049 05cf 2E000000 		.4byte	.LVL81
 10050 05d3 0100     		.2byte	0x1
 10051 05d5 56       		.byte	0x56
 10052 05d6 32000000 		.4byte	.LVL82
 10053 05da 58000000 		.4byte	.LVL90
 10054 05de 0100     		.2byte	0x1
 10055 05e0 56       		.byte	0x56
 10056 05e1 58000000 		.4byte	.LVL90
 10057 05e5 5E000000 		.4byte	.LVL91
 10058 05e9 0200     		.2byte	0x2
 10059 05eb 30       		.byte	0x30
 10060 05ec 9F       		.byte	0x9f
 10061 05ed 5E000000 		.4byte	.LVL91
 10062 05f1 74000000 		.4byte	.LFE84
 10063 05f5 0100     		.2byte	0x1
 10064 05f7 56       		.byte	0x56
 10065 05f8 00000000 		.4byte	0
 10066 05fc 00000000 		.4byte	0
 10067              	.LLST33:
 10068 0600 00000000 		.4byte	.LVL98
 10069 0604 54000000 		.4byte	.LVL114
 10070 0608 0100     		.2byte	0x1
 10071 060a 50       		.byte	0x50
 10072 060b 54000000 		.4byte	.LVL114
 10073 060f 56000000 		.4byte	.LVL115
 10074 0613 0400     		.2byte	0x4
 10075 0615 F3       		.byte	0xf3
 10076 0616 01       		.uleb128 0x1
 10077 0617 50       		.byte	0x50
 10078 0618 9F       		.byte	0x9f
 10079 0619 56000000 		.4byte	.LVL115
 10080 061d 5A000000 		.4byte	.LVL116
 10081 0621 0100     		.2byte	0x1
 10082 0623 50       		.byte	0x50
 10083 0624 5A000000 		.4byte	.LVL116
 10084 0628 5C000000 		.4byte	.LFE85
 10085 062c 0400     		.2byte	0x4
 10086 062e F3       		.byte	0xf3
 10087 062f 01       		.uleb128 0x1
 10088 0630 50       		.byte	0x50
 10089 0631 9F       		.byte	0x9f
 10090 0632 00000000 		.4byte	0
 10091 0636 00000000 		.4byte	0
ARM GAS  C:\Users\chemi\AppData\Local\Temp\cc0tO343.s 			page 210


 10092              	.LLST34:
 10093 063a 00000000 		.4byte	.LVL98
 10094 063e 0C000000 		.4byte	.LVL99
 10095 0642 0200     		.2byte	0x2
 10096 0644 30       		.byte	0x30
 10097 0645 9F       		.byte	0x9f
 10098 0646 0C000000 		.4byte	.LVL99
 10099 064a 32000000 		.4byte	.LVL103
 10100 064e 0100     		.2byte	0x1
 10101 0650 53       		.byte	0x53
 10102 0651 34000000 		.4byte	.LVL104
 10103 0655 44000000 		.4byte	.LVL108
 10104 0659 0100     		.2byte	0x1
 10105 065b 53       		.byte	0x53
 10106 065c 46000000 		.4byte	.LVL109
 10107 0660 5C000000 		.4byte	.LFE85
 10108 0664 0100     		.2byte	0x1
 10109 0666 53       		.byte	0x53
 10110 0667 00000000 		.4byte	0
 10111 066b 00000000 		.4byte	0
 10112              	.LLST35:
 10113 066f 00000000 		.4byte	.LVL98
 10114 0673 0C000000 		.4byte	.LVL99
 10115 0677 0200     		.2byte	0x2
 10116 0679 30       		.byte	0x30
 10117 067a 9F       		.byte	0x9f
 10118 067b 0C000000 		.4byte	.LVL99
 10119 067f 4C000000 		.4byte	.LVL111
 10120 0683 0100     		.2byte	0x1
 10121 0685 56       		.byte	0x56
 10122 0686 4C000000 		.4byte	.LVL111
 10123 068a 4E000000 		.4byte	.LVL112
 10124 068e 0300     		.2byte	0x3
 10125 0690 76       		.byte	0x76
 10126 0691 01       		.sleb128 1
 10127 0692 9F       		.byte	0x9f
 10128 0693 50000000 		.4byte	.LVL113
 10129 0697 5C000000 		.4byte	.LFE85
 10130 069b 0100     		.2byte	0x1
 10131 069d 56       		.byte	0x56
 10132 069e 00000000 		.4byte	0
 10133 06a2 00000000 		.4byte	0
 10134              	.LLST36:
 10135 06a6 00000000 		.4byte	.LVL98
 10136 06aa 0C000000 		.4byte	.LVL99
 10137 06ae 0200     		.2byte	0x2
 10138 06b0 30       		.byte	0x30
 10139 06b1 9F       		.byte	0x9f
 10140 06b2 0C000000 		.4byte	.LVL99
 10141 06b6 2E000000 		.4byte	.LVL102
 10142 06ba 0100     		.2byte	0x1
 10143 06bc 52       		.byte	0x52
 10144 06bd 2E000000 		.4byte	.LVL102
 10145 06c1 38000000 		.4byte	.LVL105
 10146 06c5 0200     		.2byte	0x2
 10147 06c7 30       		.byte	0x30
 10148 06c8 9F       		.byte	0x9f
ARM GAS  C:\Users\chemi\AppData\Local\Temp\cc0tO343.s 			page 211


 10149 06c9 38000000 		.4byte	.LVL105
 10150 06cd 3E000000 		.4byte	.LVL107
 10151 06d1 0200     		.2byte	0x2
 10152 06d3 31       		.byte	0x31
 10153 06d4 9F       		.byte	0x9f
 10154 06d5 3E000000 		.4byte	.LVL107
 10155 06d9 4A000000 		.4byte	.LVL110
 10156 06dd 0100     		.2byte	0x1
 10157 06df 52       		.byte	0x52
 10158 06e0 4C000000 		.4byte	.LVL111
 10159 06e4 5C000000 		.4byte	.LFE85
 10160 06e8 0100     		.2byte	0x1
 10161 06ea 52       		.byte	0x52
 10162 06eb 00000000 		.4byte	0
 10163 06ef 00000000 		.4byte	0
 10164              	.LLST37:
 10165 06f3 00000000 		.4byte	.LVL98
 10166 06f7 0C000000 		.4byte	.LVL99
 10167 06fb 0200     		.2byte	0x2
 10168 06fd 30       		.byte	0x30
 10169 06fe 9F       		.byte	0x9f
 10170 06ff 0C000000 		.4byte	.LVL99
 10171 0703 5C000000 		.4byte	.LFE85
 10172 0707 0100     		.2byte	0x1
 10173 0709 57       		.byte	0x57
 10174 070a 00000000 		.4byte	0
 10175 070e 00000000 		.4byte	0
 10176              	.LLST38:
 10177 0712 00000000 		.4byte	.LVL98
 10178 0716 0C000000 		.4byte	.LVL99
 10179 071a 0200     		.2byte	0x2
 10180 071c 30       		.byte	0x30
 10181 071d 9F       		.byte	0x9f
 10182 071e 0C000000 		.4byte	.LVL99
 10183 0722 28000000 		.4byte	.LVL100
 10184 0726 0100     		.2byte	0x1
 10185 0728 55       		.byte	0x55
 10186 0729 2A000000 		.4byte	.LVL101
 10187 072d 46000000 		.4byte	.LVL109
 10188 0731 0100     		.2byte	0x1
 10189 0733 55       		.byte	0x55
 10190 0734 46000000 		.4byte	.LVL109
 10191 0738 4A000000 		.4byte	.LVL110
 10192 073c 0200     		.2byte	0x2
 10193 073e 30       		.byte	0x30
 10194 073f 9F       		.byte	0x9f
 10195 0740 4A000000 		.4byte	.LVL110
 10196 0744 5C000000 		.4byte	.LFE85
 10197 0748 0100     		.2byte	0x1
 10198 074a 55       		.byte	0x55
 10199 074b 00000000 		.4byte	0
 10200 074f 00000000 		.4byte	0
 10201              	.LLST39:
 10202 0753 00000000 		.4byte	.LVL117
 10203 0757 08000000 		.4byte	.LVL118
 10204 075b 0100     		.2byte	0x1
 10205 075d 50       		.byte	0x50
ARM GAS  C:\Users\chemi\AppData\Local\Temp\cc0tO343.s 			page 212


 10206 075e 08000000 		.4byte	.LVL118
 10207 0762 7A000000 		.4byte	.LVL143
 10208 0766 0100     		.2byte	0x1
 10209 0768 58       		.byte	0x58
 10210 0769 7A000000 		.4byte	.LVL143
 10211 076d 80000000 		.4byte	.LFE83
 10212 0771 0400     		.2byte	0x4
 10213 0773 F3       		.byte	0xf3
 10214 0774 01       		.uleb128 0x1
 10215 0775 50       		.byte	0x50
 10216 0776 9F       		.byte	0x9f
 10217 0777 00000000 		.4byte	0
 10218 077b 00000000 		.4byte	0
 10219              	.LLST40:
 10220 077f 00000000 		.4byte	.LVL117
 10221 0783 0F000000 		.4byte	.LVL119-1
 10222 0787 0100     		.2byte	0x1
 10223 0789 51       		.byte	0x51
 10224 078a 0F000000 		.4byte	.LVL119-1
 10225 078e 80000000 		.4byte	.LFE83
 10226 0792 0400     		.2byte	0x4
 10227 0794 F3       		.byte	0xf3
 10228 0795 01       		.uleb128 0x1
 10229 0796 51       		.byte	0x51
 10230 0797 9F       		.byte	0x9f
 10231 0798 00000000 		.4byte	0
 10232 079c 00000000 		.4byte	0
 10233              	.LLST41:
 10234 07a0 00000000 		.4byte	.LVL117
 10235 07a4 0F000000 		.4byte	.LVL119-1
 10236 07a8 0100     		.2byte	0x1
 10237 07aa 52       		.byte	0x52
 10238 07ab 0F000000 		.4byte	.LVL119-1
 10239 07af 60000000 		.4byte	.LVL135
 10240 07b3 0100     		.2byte	0x1
 10241 07b5 54       		.byte	0x54
 10242 07b6 60000000 		.4byte	.LVL135
 10243 07ba 62000000 		.4byte	.LVL136
 10244 07be 0400     		.2byte	0x4
 10245 07c0 F3       		.byte	0xf3
 10246 07c1 01       		.uleb128 0x1
 10247 07c2 52       		.byte	0x52
 10248 07c3 9F       		.byte	0x9f
 10249 07c4 62000000 		.4byte	.LVL136
 10250 07c8 64000000 		.4byte	.LVL137
 10251 07cc 0100     		.2byte	0x1
 10252 07ce 54       		.byte	0x54
 10253 07cf 64000000 		.4byte	.LVL137
 10254 07d3 6E000000 		.4byte	.LVL139
 10255 07d7 0400     		.2byte	0x4
 10256 07d9 F3       		.byte	0xf3
 10257 07da 01       		.uleb128 0x1
 10258 07db 52       		.byte	0x52
 10259 07dc 9F       		.byte	0x9f
 10260 07dd 6E000000 		.4byte	.LVL139
 10261 07e1 74000000 		.4byte	.LVL141
 10262 07e5 0100     		.2byte	0x1
ARM GAS  C:\Users\chemi\AppData\Local\Temp\cc0tO343.s 			page 213


 10263 07e7 54       		.byte	0x54
 10264 07e8 74000000 		.4byte	.LVL141
 10265 07ec 80000000 		.4byte	.LFE83
 10266 07f0 0400     		.2byte	0x4
 10267 07f2 F3       		.byte	0xf3
 10268 07f3 01       		.uleb128 0x1
 10269 07f4 52       		.byte	0x52
 10270 07f5 9F       		.byte	0x9f
 10271 07f6 00000000 		.4byte	0
 10272 07fa 00000000 		.4byte	0
 10273              	.LLST42:
 10274 07fe 10000000 		.4byte	.LVL119
 10275 0802 18000000 		.4byte	.LVL120
 10276 0806 0100     		.2byte	0x1
 10277 0808 50       		.byte	0x50
 10278 0809 18000000 		.4byte	.LVL120
 10279 080d 6E000000 		.4byte	.LVL139
 10280 0811 0100     		.2byte	0x1
 10281 0813 57       		.byte	0x57
 10282 0814 6E000000 		.4byte	.LVL139
 10283 0818 70000000 		.4byte	.LVL140
 10284 081c 0100     		.2byte	0x1
 10285 081e 50       		.byte	0x50
 10286 081f 70000000 		.4byte	.LVL140
 10287 0823 7A000000 		.4byte	.LVL143
 10288 0827 0100     		.2byte	0x1
 10289 0829 57       		.byte	0x57
 10290 082a 00000000 		.4byte	0
 10291 082e 00000000 		.4byte	0
 10292              	.LLST43:
 10293 0832 24000000 		.4byte	.LVL122
 10294 0836 2A000000 		.4byte	.LVL124
 10295 083a 0100     		.2byte	0x1
 10296 083c 50       		.byte	0x50
 10297 083d 3A000000 		.4byte	.LVL126
 10298 0841 3E000000 		.4byte	.LVL127
 10299 0845 0100     		.2byte	0x1
 10300 0847 50       		.byte	0x50
 10301 0848 50000000 		.4byte	.LVL132
 10302 084c 52000000 		.4byte	.LVL133
 10303 0850 0100     		.2byte	0x1
 10304 0852 50       		.byte	0x50
 10305 0853 00000000 		.4byte	0
 10306 0857 00000000 		.4byte	0
 10307              	.LLST44:
 10308 085b 3A000000 		.4byte	.LVL126
 10309 085f 46000000 		.4byte	.LVL129
 10310 0863 0200     		.2byte	0x2
 10311 0865 30       		.byte	0x30
 10312 0866 9F       		.byte	0x9f
 10313 0867 46000000 		.4byte	.LVL129
 10314 086b 4A000000 		.4byte	.LVL130
 10315 086f 0100     		.2byte	0x1
 10316 0871 50       		.byte	0x50
 10317 0872 4A000000 		.4byte	.LVL130
 10318 0876 4D000000 		.4byte	.LVL131-1
 10319 087a 0100     		.2byte	0x1
ARM GAS  C:\Users\chemi\AppData\Local\Temp\cc0tO343.s 			page 214


 10320 087c 52       		.byte	0x52
 10321 087d 4D000000 		.4byte	.LVL131-1
 10322 0881 50000000 		.4byte	.LVL132
 10323 0885 0100     		.2byte	0x1
 10324 0887 56       		.byte	0x56
 10325 0888 50000000 		.4byte	.LVL132
 10326 088c 52000000 		.4byte	.LVL133
 10327 0890 0200     		.2byte	0x2
 10328 0892 30       		.byte	0x30
 10329 0893 9F       		.byte	0x9f
 10330 0894 52000000 		.4byte	.LVL133
 10331 0898 6E000000 		.4byte	.LVL139
 10332 089c 0100     		.2byte	0x1
 10333 089e 56       		.byte	0x56
 10334 089f 74000000 		.4byte	.LVL141
 10335 08a3 76000000 		.4byte	.LVL142
 10336 08a7 0100     		.2byte	0x1
 10337 08a9 56       		.byte	0x56
 10338 08aa 00000000 		.4byte	0
 10339 08ae 00000000 		.4byte	0
 10340              	.LLST45:
 10341 08b2 52000000 		.4byte	.LVL133
 10342 08b6 60000000 		.4byte	.LVL135
 10343 08ba 0200     		.2byte	0x2
 10344 08bc 30       		.byte	0x30
 10345 08bd 9F       		.byte	0x9f
 10346 08be 60000000 		.4byte	.LVL135
 10347 08c2 62000000 		.4byte	.LVL136
 10348 08c6 0100     		.2byte	0x1
 10349 08c8 54       		.byte	0x54
 10350 08c9 62000000 		.4byte	.LVL136
 10351 08cd 64000000 		.4byte	.LVL137
 10352 08d1 0200     		.2byte	0x2
 10353 08d3 30       		.byte	0x30
 10354 08d4 9F       		.byte	0x9f
 10355 08d5 64000000 		.4byte	.LVL137
 10356 08d9 6E000000 		.4byte	.LVL139
 10357 08dd 0100     		.2byte	0x1
 10358 08df 54       		.byte	0x54
 10359 08e0 74000000 		.4byte	.LVL141
 10360 08e4 76000000 		.4byte	.LVL142
 10361 08e8 0100     		.2byte	0x1
 10362 08ea 54       		.byte	0x54
 10363 08eb 00000000 		.4byte	0
 10364 08ef 00000000 		.4byte	0
 10365              	.LLST46:
 10366 08f3 26000000 		.4byte	.LVL123
 10367 08f7 3A000000 		.4byte	.LVL126
 10368 08fb 0100     		.2byte	0x1
 10369 08fd 58       		.byte	0x58
 10370 08fe 00000000 		.4byte	0
 10371 0902 00000000 		.4byte	0
 10372              	.LLST47:
 10373 0906 26000000 		.4byte	.LVL123
 10374 090a 3A000000 		.4byte	.LVL126
 10375 090e 0100     		.2byte	0x1
 10376 0910 59       		.byte	0x59
ARM GAS  C:\Users\chemi\AppData\Local\Temp\cc0tO343.s 			page 215


 10377 0911 00000000 		.4byte	0
 10378 0915 00000000 		.4byte	0
 10379              	.LLST48:
 10380 0919 26000000 		.4byte	.LVL123
 10381 091d 3A000000 		.4byte	.LVL126
 10382 0921 0100     		.2byte	0x1
 10383 0923 54       		.byte	0x54
 10384 0924 00000000 		.4byte	0
 10385 0928 00000000 		.4byte	0
 10386              	.LLST49:
 10387 092c 00000000 		.4byte	.LVL144
 10388 0930 03000000 		.4byte	.LVL145-1
 10389 0934 0100     		.2byte	0x1
 10390 0936 50       		.byte	0x50
 10391 0937 03000000 		.4byte	.LVL145-1
 10392 093b 04000000 		.4byte	.LFE86
 10393 093f 0400     		.2byte	0x4
 10394 0941 F3       		.byte	0xf3
 10395 0942 01       		.uleb128 0x1
 10396 0943 50       		.byte	0x50
 10397 0944 9F       		.byte	0x9f
 10398 0945 00000000 		.4byte	0
 10399 0949 00000000 		.4byte	0
 10400              	.LLST50:
 10401 094d 00000000 		.4byte	.LVL144
 10402 0951 03000000 		.4byte	.LVL145-1
 10403 0955 0100     		.2byte	0x1
 10404 0957 51       		.byte	0x51
 10405 0958 03000000 		.4byte	.LVL145-1
 10406 095c 04000000 		.4byte	.LFE86
 10407 0960 0400     		.2byte	0x4
 10408 0962 F3       		.byte	0xf3
 10409 0963 01       		.uleb128 0x1
 10410 0964 51       		.byte	0x51
 10411 0965 9F       		.byte	0x9f
 10412 0966 00000000 		.4byte	0
 10413 096a 00000000 		.4byte	0
 10414              	.LLST51:
 10415 096e 00000000 		.4byte	.LVL146
 10416 0972 0A000000 		.4byte	.LVL147
 10417 0976 0100     		.2byte	0x1
 10418 0978 50       		.byte	0x50
 10419 0979 0A000000 		.4byte	.LVL147
 10420 097d 0E000000 		.4byte	.LVL148
 10421 0981 0400     		.2byte	0x4
 10422 0983 F3       		.byte	0xf3
 10423 0984 01       		.uleb128 0x1
 10424 0985 50       		.byte	0x50
 10425 0986 9F       		.byte	0x9f
 10426 0987 0E000000 		.4byte	.LVL148
 10427 098b 1C000000 		.4byte	.LVL149
 10428 098f 0100     		.2byte	0x1
 10429 0991 50       		.byte	0x50
 10430 0992 1C000000 		.4byte	.LVL149
 10431 0996 1E000000 		.4byte	.LVL150
 10432 099a 0400     		.2byte	0x4
 10433 099c F3       		.byte	0xf3
ARM GAS  C:\Users\chemi\AppData\Local\Temp\cc0tO343.s 			page 216


 10434 099d 01       		.uleb128 0x1
 10435 099e 50       		.byte	0x50
 10436 099f 9F       		.byte	0x9f
 10437 09a0 1E000000 		.4byte	.LVL150
 10438 09a4 20000000 		.4byte	.LVL151
 10439 09a8 0100     		.2byte	0x1
 10440 09aa 50       		.byte	0x50
 10441 09ab 20000000 		.4byte	.LVL151
 10442 09af 22000000 		.4byte	.LVL152
 10443 09b3 0400     		.2byte	0x4
 10444 09b5 F3       		.byte	0xf3
 10445 09b6 01       		.uleb128 0x1
 10446 09b7 50       		.byte	0x50
 10447 09b8 9F       		.byte	0x9f
 10448 09b9 22000000 		.4byte	.LVL152
 10449 09bd 24000000 		.4byte	.LVL153
 10450 09c1 0100     		.2byte	0x1
 10451 09c3 50       		.byte	0x50
 10452 09c4 24000000 		.4byte	.LVL153
 10453 09c8 26000000 		.4byte	.LFE90
 10454 09cc 0400     		.2byte	0x4
 10455 09ce F3       		.byte	0xf3
 10456 09cf 01       		.uleb128 0x1
 10457 09d0 50       		.byte	0x50
 10458 09d1 9F       		.byte	0x9f
 10459 09d2 00000000 		.4byte	0
 10460 09d6 00000000 		.4byte	0
 10461              	.LLST52:
 10462 09da 0E000000 		.4byte	.LVL148
 10463 09de 1C000000 		.4byte	.LVL149
 10464 09e2 0100     		.2byte	0x1
 10465 09e4 50       		.byte	0x50
 10466 09e5 1C000000 		.4byte	.LVL149
 10467 09e9 1E000000 		.4byte	.LVL150
 10468 09ed 0400     		.2byte	0x4
 10469 09ef F3       		.byte	0xf3
 10470 09f0 01       		.uleb128 0x1
 10471 09f1 50       		.byte	0x50
 10472 09f2 9F       		.byte	0x9f
 10473 09f3 1E000000 		.4byte	.LVL150
 10474 09f7 20000000 		.4byte	.LVL151
 10475 09fb 0100     		.2byte	0x1
 10476 09fd 50       		.byte	0x50
 10477 09fe 20000000 		.4byte	.LVL151
 10478 0a02 22000000 		.4byte	.LVL152
 10479 0a06 0400     		.2byte	0x4
 10480 0a08 F3       		.byte	0xf3
 10481 0a09 01       		.uleb128 0x1
 10482 0a0a 50       		.byte	0x50
 10483 0a0b 9F       		.byte	0x9f
 10484 0a0c 22000000 		.4byte	.LVL152
 10485 0a10 24000000 		.4byte	.LVL153
 10486 0a14 0100     		.2byte	0x1
 10487 0a16 50       		.byte	0x50
 10488 0a17 24000000 		.4byte	.LVL153
 10489 0a1b 26000000 		.4byte	.LFE90
 10490 0a1f 0400     		.2byte	0x4
ARM GAS  C:\Users\chemi\AppData\Local\Temp\cc0tO343.s 			page 217


 10491 0a21 F3       		.byte	0xf3
 10492 0a22 01       		.uleb128 0x1
 10493 0a23 50       		.byte	0x50
 10494 0a24 9F       		.byte	0x9f
 10495 0a25 00000000 		.4byte	0
 10496 0a29 00000000 		.4byte	0
 10497              	.LLST53:
 10498 0a2d 00000000 		.4byte	.LVL154
 10499 0a31 08000000 		.4byte	.LVL155
 10500 0a35 0100     		.2byte	0x1
 10501 0a37 50       		.byte	0x50
 10502 0a38 08000000 		.4byte	.LVL155
 10503 0a3c 42000000 		.4byte	.LFE89
 10504 0a40 0100     		.2byte	0x1
 10505 0a42 56       		.byte	0x56
 10506 0a43 00000000 		.4byte	0
 10507 0a47 00000000 		.4byte	0
 10508              	.LLST54:
 10509 0a4b 00000000 		.4byte	.LVL154
 10510 0a4f 08000000 		.4byte	.LVL155
 10511 0a53 0100     		.2byte	0x1
 10512 0a55 51       		.byte	0x51
 10513 0a56 08000000 		.4byte	.LVL155
 10514 0a5a 42000000 		.4byte	.LFE89
 10515 0a5e 0400     		.2byte	0x4
 10516 0a60 F3       		.byte	0xf3
 10517 0a61 01       		.uleb128 0x1
 10518 0a62 51       		.byte	0x51
 10519 0a63 9F       		.byte	0x9f
 10520 0a64 00000000 		.4byte	0
 10521 0a68 00000000 		.4byte	0
 10522              	.LLST55:
 10523 0a6c 00000000 		.4byte	.LVL154
 10524 0a70 08000000 		.4byte	.LVL155
 10525 0a74 0200     		.2byte	0x2
 10526 0a76 30       		.byte	0x30
 10527 0a77 9F       		.byte	0x9f
 10528 0a78 08000000 		.4byte	.LVL155
 10529 0a7c 0A000000 		.4byte	.LVL156
 10530 0a80 0100     		.2byte	0x1
 10531 0a82 55       		.byte	0x55
 10532 0a83 0A000000 		.4byte	.LVL156
 10533 0a87 42000000 		.4byte	.LFE89
 10534 0a8b 0100     		.2byte	0x1
 10535 0a8d 54       		.byte	0x54
 10536 0a8e 00000000 		.4byte	0
 10537 0a92 00000000 		.4byte	0
 10538              	.LLST56:
 10539 0a96 30000000 		.4byte	.LVL160
 10540 0a9a 3C000000 		.4byte	.LVL161
 10541 0a9e 0100     		.2byte	0x1
 10542 0aa0 50       		.byte	0x50
 10543 0aa1 3E000000 		.4byte	.LVL162
 10544 0aa5 40000000 		.4byte	.LVL163
 10545 0aa9 0100     		.2byte	0x1
 10546 0aab 50       		.byte	0x50
 10547 0aac 00000000 		.4byte	0
ARM GAS  C:\Users\chemi\AppData\Local\Temp\cc0tO343.s 			page 218


 10548 0ab0 00000000 		.4byte	0
 10549              	.LLST57:
 10550 0ab4 00000000 		.4byte	.LVL164
 10551 0ab8 10000000 		.4byte	.LVL165
 10552 0abc 0100     		.2byte	0x1
 10553 0abe 50       		.byte	0x50
 10554 0abf 10000000 		.4byte	.LVL165
 10555 0ac3 4A000000 		.4byte	.LFE88
 10556 0ac7 0100     		.2byte	0x1
 10557 0ac9 55       		.byte	0x55
 10558 0aca 00000000 		.4byte	0
 10559 0ace 00000000 		.4byte	0
 10560              	.LLST58:
 10561 0ad2 00000000 		.4byte	.LVL164
 10562 0ad6 10000000 		.4byte	.LVL165
 10563 0ada 0100     		.2byte	0x1
 10564 0adc 51       		.byte	0x51
 10565 0add 10000000 		.4byte	.LVL165
 10566 0ae1 4A000000 		.4byte	.LFE88
 10567 0ae5 0100     		.2byte	0x1
 10568 0ae7 56       		.byte	0x56
 10569 0ae8 00000000 		.4byte	0
 10570 0aec 00000000 		.4byte	0
 10571              	.LLST59:
 10572 0af0 38000000 		.4byte	.LVL168
 10573 0af4 3C000000 		.4byte	.LVL169
 10574 0af8 0100     		.2byte	0x1
 10575 0afa 58       		.byte	0x58
 10576 0afb 00000000 		.4byte	0
 10577 0aff 00000000 		.4byte	0
 10578              	.LLST60:
 10579 0b03 10000000 		.4byte	.LVL165
 10580 0b07 38000000 		.4byte	.LVL168
 10581 0b0b 0100     		.2byte	0x1
 10582 0b0d 57       		.byte	0x57
 10583 0b0e 38000000 		.4byte	.LVL168
 10584 0b12 3C000000 		.4byte	.LVL169
 10585 0b16 0100     		.2byte	0x1
 10586 0b18 53       		.byte	0x53
 10587 0b19 3C000000 		.4byte	.LVL169
 10588 0b1d 4A000000 		.4byte	.LFE88
 10589 0b21 0100     		.2byte	0x1
 10590 0b23 57       		.byte	0x57
 10591 0b24 00000000 		.4byte	0
 10592 0b28 00000000 		.4byte	0
 10593              	.LLST61:
 10594 0b2c 00000000 		.4byte	.LVL170
 10595 0b30 16000000 		.4byte	.LVL172
 10596 0b34 0100     		.2byte	0x1
 10597 0b36 50       		.byte	0x50
 10598 0b37 16000000 		.4byte	.LVL172
 10599 0b3b 42000000 		.4byte	.LVL178
 10600 0b3f 0100     		.2byte	0x1
 10601 0b41 58       		.byte	0x58
 10602 0b42 42000000 		.4byte	.LVL178
 10603 0b46 44000000 		.4byte	.LVL179
 10604 0b4a 0100     		.2byte	0x1
ARM GAS  C:\Users\chemi\AppData\Local\Temp\cc0tO343.s 			page 219


 10605 0b4c 50       		.byte	0x50
 10606 0b4d 44000000 		.4byte	.LVL179
 10607 0b51 48000000 		.4byte	.LFE87
 10608 0b55 0100     		.2byte	0x1
 10609 0b57 58       		.byte	0x58
 10610 0b58 00000000 		.4byte	0
 10611 0b5c 00000000 		.4byte	0
 10612              	.LLST62:
 10613 0b60 00000000 		.4byte	.LVL170
 10614 0b64 19000000 		.4byte	.LVL173-1
 10615 0b68 0100     		.2byte	0x1
 10616 0b6a 51       		.byte	0x51
 10617 0b6b 19000000 		.4byte	.LVL173-1
 10618 0b6f 42000000 		.4byte	.LVL178
 10619 0b73 0100     		.2byte	0x1
 10620 0b75 56       		.byte	0x56
 10621 0b76 42000000 		.4byte	.LVL178
 10622 0b7a 48000000 		.4byte	.LFE87
 10623 0b7e 0100     		.2byte	0x1
 10624 0b80 51       		.byte	0x51
 10625 0b81 00000000 		.4byte	0
 10626 0b85 00000000 		.4byte	0
 10627              	.LLST63:
 10628 0b89 00000000 		.4byte	.LVL170
 10629 0b8d 19000000 		.4byte	.LVL173-1
 10630 0b91 0100     		.2byte	0x1
 10631 0b93 52       		.byte	0x52
 10632 0b94 19000000 		.4byte	.LVL173-1
 10633 0b98 42000000 		.4byte	.LVL178
 10634 0b9c 0100     		.2byte	0x1
 10635 0b9e 59       		.byte	0x59
 10636 0b9f 42000000 		.4byte	.LVL178
 10637 0ba3 48000000 		.4byte	.LFE87
 10638 0ba7 0100     		.2byte	0x1
 10639 0ba9 52       		.byte	0x52
 10640 0baa 00000000 		.4byte	0
 10641 0bae 00000000 		.4byte	0
 10642              	.LLST64:
 10643 0bb2 00000000 		.4byte	.LVL170
 10644 0bb6 0A000000 		.4byte	.LVL171
 10645 0bba 0100     		.2byte	0x1
 10646 0bbc 53       		.byte	0x53
 10647 0bbd 0A000000 		.4byte	.LVL171
 10648 0bc1 48000000 		.4byte	.LFE87
 10649 0bc5 0400     		.2byte	0x4
 10650 0bc7 F3       		.byte	0xf3
 10651 0bc8 01       		.uleb128 0x1
 10652 0bc9 53       		.byte	0x53
 10653 0bca 9F       		.byte	0x9f
 10654 0bcb 00000000 		.4byte	0
 10655 0bcf 00000000 		.4byte	0
 10656              	.LLST65:
 10657 0bd3 00000000 		.4byte	.LVL170
 10658 0bd7 42000000 		.4byte	.LVL178
 10659 0bdb 0200     		.2byte	0x2
 10660 0bdd 91       		.byte	0x91
 10661 0bde 00       		.sleb128 0
ARM GAS  C:\Users\chemi\AppData\Local\Temp\cc0tO343.s 			page 220


 10662 0bdf 42000000 		.4byte	.LVL178
 10663 0be3 48000000 		.4byte	.LFE87
 10664 0be7 0200     		.2byte	0x2
 10665 0be9 91       		.byte	0x91
 10666 0bea 00       		.sleb128 0
 10667 0beb 00000000 		.4byte	0
 10668 0bef 00000000 		.4byte	0
 10669              	.LLST66:
 10670 0bf3 1C000000 		.4byte	.LVL174
 10671 0bf7 24000000 		.4byte	.LVL175
 10672 0bfb 0100     		.2byte	0x1
 10673 0bfd 50       		.byte	0x50
 10674 0bfe 24000000 		.4byte	.LVL175
 10675 0c02 42000000 		.4byte	.LVL178
 10676 0c06 0100     		.2byte	0x1
 10677 0c08 54       		.byte	0x54
 10678 0c09 00000000 		.4byte	0
 10679 0c0d 00000000 		.4byte	0
 10680              	.LLST67:
 10681 0c11 00000000 		.4byte	.LVL180
 10682 0c15 0C000000 		.4byte	.LVL182
 10683 0c19 0100     		.2byte	0x1
 10684 0c1b 50       		.byte	0x50
 10685 0c1c 0C000000 		.4byte	.LVL182
 10686 0c20 18000000 		.4byte	.LFE92
 10687 0c24 0400     		.2byte	0x4
 10688 0c26 F3       		.byte	0xf3
 10689 0c27 01       		.uleb128 0x1
 10690 0c28 50       		.byte	0x50
 10691 0c29 9F       		.byte	0x9f
 10692 0c2a 00000000 		.4byte	0
 10693 0c2e 00000000 		.4byte	0
 10694              	.LLST68:
 10695 0c32 00000000 		.4byte	.LVL180
 10696 0c36 0E000000 		.4byte	.LVL183
 10697 0c3a 0100     		.2byte	0x1
 10698 0c3c 51       		.byte	0x51
 10699 0c3d 0E000000 		.4byte	.LVL183
 10700 0c41 18000000 		.4byte	.LFE92
 10701 0c45 0400     		.2byte	0x4
 10702 0c47 F3       		.byte	0xf3
 10703 0c48 01       		.uleb128 0x1
 10704 0c49 51       		.byte	0x51
 10705 0c4a 9F       		.byte	0x9f
 10706 0c4b 00000000 		.4byte	0
 10707 0c4f 00000000 		.4byte	0
 10708              	.LLST69:
 10709 0c53 00000000 		.4byte	.LVL180
 10710 0c57 0A000000 		.4byte	.LVL181
 10711 0c5b 0100     		.2byte	0x1
 10712 0c5d 52       		.byte	0x52
 10713 0c5e 0A000000 		.4byte	.LVL181
 10714 0c62 18000000 		.4byte	.LFE92
 10715 0c66 0400     		.2byte	0x4
 10716 0c68 F3       		.byte	0xf3
 10717 0c69 01       		.uleb128 0x1
 10718 0c6a 52       		.byte	0x52
ARM GAS  C:\Users\chemi\AppData\Local\Temp\cc0tO343.s 			page 221


 10719 0c6b 9F       		.byte	0x9f
 10720 0c6c 00000000 		.4byte	0
 10721 0c70 00000000 		.4byte	0
 10722              	.LLST70:
 10723 0c74 00000000 		.4byte	.LVL185
 10724 0c78 E6000000 		.4byte	.LVL192
 10725 0c7c 0100     		.2byte	0x1
 10726 0c7e 50       		.byte	0x50
 10727 0c7f E6000000 		.4byte	.LVL192
 10728 0c83 EA000000 		.4byte	.LVL193
 10729 0c87 0400     		.2byte	0x4
 10730 0c89 F3       		.byte	0xf3
 10731 0c8a 01       		.uleb128 0x1
 10732 0c8b 50       		.byte	0x50
 10733 0c8c 9F       		.byte	0x9f
 10734 0c8d EA000000 		.4byte	.LVL193
 10735 0c91 1E020000 		.4byte	.LVL248
 10736 0c95 0100     		.2byte	0x1
 10737 0c97 50       		.byte	0x50
 10738 0c98 1E020000 		.4byte	.LVL248
 10739 0c9c 22020000 		.4byte	.LVL249
 10740 0ca0 0400     		.2byte	0x4
 10741 0ca2 F3       		.byte	0xf3
 10742 0ca3 01       		.uleb128 0x1
 10743 0ca4 50       		.byte	0x50
 10744 0ca5 9F       		.byte	0x9f
 10745 0ca6 22020000 		.4byte	.LVL249
 10746 0caa 9C020000 		.4byte	.LFE93
 10747 0cae 0100     		.2byte	0x1
 10748 0cb0 50       		.byte	0x50
 10749 0cb1 00000000 		.4byte	0
 10750 0cb5 00000000 		.4byte	0
 10751              	.LLST71:
 10752 0cb9 00000000 		.4byte	.LVL185
 10753 0cbd C4000000 		.4byte	.LVL187
 10754 0cc1 0100     		.2byte	0x1
 10755 0cc3 51       		.byte	0x51
 10756 0cc4 C4000000 		.4byte	.LVL187
 10757 0cc8 C6000000 		.4byte	.LVL188
 10758 0ccc 0400     		.2byte	0x4
 10759 0cce F3       		.byte	0xf3
 10760 0ccf 01       		.uleb128 0x1
 10761 0cd0 51       		.byte	0x51
 10762 0cd1 9F       		.byte	0x9f
 10763 0cd2 C6000000 		.4byte	.LVL188
 10764 0cd6 D4000000 		.4byte	.LVL189
 10765 0cda 0100     		.2byte	0x1
 10766 0cdc 51       		.byte	0x51
 10767 0cdd D4000000 		.4byte	.LVL189
 10768 0ce1 D6000000 		.4byte	.LVL190
 10769 0ce5 0400     		.2byte	0x4
 10770 0ce7 F3       		.byte	0xf3
 10771 0ce8 01       		.uleb128 0x1
 10772 0ce9 51       		.byte	0x51
 10773 0cea 9F       		.byte	0x9f
 10774 0ceb D6000000 		.4byte	.LVL190
 10775 0cef E4000000 		.4byte	.LVL191
ARM GAS  C:\Users\chemi\AppData\Local\Temp\cc0tO343.s 			page 222


 10776 0cf3 0100     		.2byte	0x1
 10777 0cf5 51       		.byte	0x51
 10778 0cf6 E4000000 		.4byte	.LVL191
 10779 0cfa EA000000 		.4byte	.LVL193
 10780 0cfe 0400     		.2byte	0x4
 10781 0d00 F3       		.byte	0xf3
 10782 0d01 01       		.uleb128 0x1
 10783 0d02 51       		.byte	0x51
 10784 0d03 9F       		.byte	0x9f
 10785 0d04 EA000000 		.4byte	.LVL193
 10786 0d08 F8000000 		.4byte	.LVL194
 10787 0d0c 0100     		.2byte	0x1
 10788 0d0e 51       		.byte	0x51
 10789 0d0f F8000000 		.4byte	.LVL194
 10790 0d13 FA000000 		.4byte	.LVL195
 10791 0d17 0400     		.2byte	0x4
 10792 0d19 F3       		.byte	0xf3
 10793 0d1a 01       		.uleb128 0x1
 10794 0d1b 51       		.byte	0x51
 10795 0d1c 9F       		.byte	0x9f
 10796 0d1d FA000000 		.4byte	.LVL195
 10797 0d21 08010000 		.4byte	.LVL196
 10798 0d25 0100     		.2byte	0x1
 10799 0d27 51       		.byte	0x51
 10800 0d28 08010000 		.4byte	.LVL196
 10801 0d2c 0A010000 		.4byte	.LVL197
 10802 0d30 0400     		.2byte	0x4
 10803 0d32 F3       		.byte	0xf3
 10804 0d33 01       		.uleb128 0x1
 10805 0d34 51       		.byte	0x51
 10806 0d35 9F       		.byte	0x9f
 10807 0d36 0A010000 		.4byte	.LVL197
 10808 0d3a 26010000 		.4byte	.LVL201
 10809 0d3e 0100     		.2byte	0x1
 10810 0d40 51       		.byte	0x51
 10811 0d41 26010000 		.4byte	.LVL201
 10812 0d45 28010000 		.4byte	.LVL202
 10813 0d49 0400     		.2byte	0x4
 10814 0d4b F3       		.byte	0xf3
 10815 0d4c 01       		.uleb128 0x1
 10816 0d4d 51       		.byte	0x51
 10817 0d4e 9F       		.byte	0x9f
 10818 0d4f 28010000 		.4byte	.LVL202
 10819 0d53 30010000 		.4byte	.LVL203
 10820 0d57 0100     		.2byte	0x1
 10821 0d59 51       		.byte	0x51
 10822 0d5a 30010000 		.4byte	.LVL203
 10823 0d5e 32010000 		.4byte	.LVL204
 10824 0d62 0400     		.2byte	0x4
 10825 0d64 F3       		.byte	0xf3
 10826 0d65 01       		.uleb128 0x1
 10827 0d66 51       		.byte	0x51
 10828 0d67 9F       		.byte	0x9f
 10829 0d68 32010000 		.4byte	.LVL204
 10830 0d6c 3A010000 		.4byte	.LVL205
 10831 0d70 0100     		.2byte	0x1
 10832 0d72 51       		.byte	0x51
ARM GAS  C:\Users\chemi\AppData\Local\Temp\cc0tO343.s 			page 223


 10833 0d73 3A010000 		.4byte	.LVL205
 10834 0d77 3C010000 		.4byte	.LVL206
 10835 0d7b 0400     		.2byte	0x4
 10836 0d7d F3       		.byte	0xf3
 10837 0d7e 01       		.uleb128 0x1
 10838 0d7f 51       		.byte	0x51
 10839 0d80 9F       		.byte	0x9f
 10840 0d81 3C010000 		.4byte	.LVL206
 10841 0d85 48010000 		.4byte	.LVL207
 10842 0d89 0100     		.2byte	0x1
 10843 0d8b 51       		.byte	0x51
 10844 0d8c 48010000 		.4byte	.LVL207
 10845 0d90 4A010000 		.4byte	.LVL208
 10846 0d94 0400     		.2byte	0x4
 10847 0d96 F3       		.byte	0xf3
 10848 0d97 01       		.uleb128 0x1
 10849 0d98 51       		.byte	0x51
 10850 0d99 9F       		.byte	0x9f
 10851 0d9a 4A010000 		.4byte	.LVL208
 10852 0d9e 52010000 		.4byte	.LVL209
 10853 0da2 0100     		.2byte	0x1
 10854 0da4 51       		.byte	0x51
 10855 0da5 52010000 		.4byte	.LVL209
 10856 0da9 54010000 		.4byte	.LVL210
 10857 0dad 0400     		.2byte	0x4
 10858 0daf F3       		.byte	0xf3
 10859 0db0 01       		.uleb128 0x1
 10860 0db1 51       		.byte	0x51
 10861 0db2 9F       		.byte	0x9f
 10862 0db3 54010000 		.4byte	.LVL210
 10863 0db7 5C010000 		.4byte	.LVL211
 10864 0dbb 0100     		.2byte	0x1
 10865 0dbd 51       		.byte	0x51
 10866 0dbe 5C010000 		.4byte	.LVL211
 10867 0dc2 5E010000 		.4byte	.LVL212
 10868 0dc6 0400     		.2byte	0x4
 10869 0dc8 F3       		.byte	0xf3
 10870 0dc9 01       		.uleb128 0x1
 10871 0dca 51       		.byte	0x51
 10872 0dcb 9F       		.byte	0x9f
 10873 0dcc 5E010000 		.4byte	.LVL212
 10874 0dd0 66010000 		.4byte	.LVL213
 10875 0dd4 0100     		.2byte	0x1
 10876 0dd6 51       		.byte	0x51
 10877 0dd7 66010000 		.4byte	.LVL213
 10878 0ddb 68010000 		.4byte	.LVL214
 10879 0ddf 0400     		.2byte	0x4
 10880 0de1 F3       		.byte	0xf3
 10881 0de2 01       		.uleb128 0x1
 10882 0de3 51       		.byte	0x51
 10883 0de4 9F       		.byte	0x9f
 10884 0de5 68010000 		.4byte	.LVL214
 10885 0de9 70010000 		.4byte	.LVL215
 10886 0ded 0100     		.2byte	0x1
 10887 0def 51       		.byte	0x51
 10888 0df0 70010000 		.4byte	.LVL215
 10889 0df4 72010000 		.4byte	.LVL216
ARM GAS  C:\Users\chemi\AppData\Local\Temp\cc0tO343.s 			page 224


 10890 0df8 0400     		.2byte	0x4
 10891 0dfa F3       		.byte	0xf3
 10892 0dfb 01       		.uleb128 0x1
 10893 0dfc 51       		.byte	0x51
 10894 0dfd 9F       		.byte	0x9f
 10895 0dfe 72010000 		.4byte	.LVL216
 10896 0e02 7A010000 		.4byte	.LVL217
 10897 0e06 0100     		.2byte	0x1
 10898 0e08 51       		.byte	0x51
 10899 0e09 7A010000 		.4byte	.LVL217
 10900 0e0d 7C010000 		.4byte	.LVL218
 10901 0e11 0400     		.2byte	0x4
 10902 0e13 F3       		.byte	0xf3
 10903 0e14 01       		.uleb128 0x1
 10904 0e15 51       		.byte	0x51
 10905 0e16 9F       		.byte	0x9f
 10906 0e17 7C010000 		.4byte	.LVL218
 10907 0e1b 84010000 		.4byte	.LVL219
 10908 0e1f 0100     		.2byte	0x1
 10909 0e21 51       		.byte	0x51
 10910 0e22 84010000 		.4byte	.LVL219
 10911 0e26 86010000 		.4byte	.LVL220
 10912 0e2a 0400     		.2byte	0x4
 10913 0e2c F3       		.byte	0xf3
 10914 0e2d 01       		.uleb128 0x1
 10915 0e2e 51       		.byte	0x51
 10916 0e2f 9F       		.byte	0x9f
 10917 0e30 86010000 		.4byte	.LVL220
 10918 0e34 8E010000 		.4byte	.LVL221
 10919 0e38 0100     		.2byte	0x1
 10920 0e3a 51       		.byte	0x51
 10921 0e3b 8E010000 		.4byte	.LVL221
 10922 0e3f 90010000 		.4byte	.LVL222
 10923 0e43 0400     		.2byte	0x4
 10924 0e45 F3       		.byte	0xf3
 10925 0e46 01       		.uleb128 0x1
 10926 0e47 51       		.byte	0x51
 10927 0e48 9F       		.byte	0x9f
 10928 0e49 90010000 		.4byte	.LVL222
 10929 0e4d 9C010000 		.4byte	.LVL223
 10930 0e51 0100     		.2byte	0x1
 10931 0e53 51       		.byte	0x51
 10932 0e54 9C010000 		.4byte	.LVL223
 10933 0e58 9E010000 		.4byte	.LVL224
 10934 0e5c 0400     		.2byte	0x4
 10935 0e5e F3       		.byte	0xf3
 10936 0e5f 01       		.uleb128 0x1
 10937 0e60 51       		.byte	0x51
 10938 0e61 9F       		.byte	0x9f
 10939 0e62 9E010000 		.4byte	.LVL224
 10940 0e66 A6010000 		.4byte	.LVL225
 10941 0e6a 0100     		.2byte	0x1
 10942 0e6c 51       		.byte	0x51
 10943 0e6d A6010000 		.4byte	.LVL225
 10944 0e71 A8010000 		.4byte	.LVL226
 10945 0e75 0400     		.2byte	0x4
 10946 0e77 F3       		.byte	0xf3
ARM GAS  C:\Users\chemi\AppData\Local\Temp\cc0tO343.s 			page 225


 10947 0e78 01       		.uleb128 0x1
 10948 0e79 51       		.byte	0x51
 10949 0e7a 9F       		.byte	0x9f
 10950 0e7b A8010000 		.4byte	.LVL226
 10951 0e7f B0010000 		.4byte	.LVL227
 10952 0e83 0100     		.2byte	0x1
 10953 0e85 51       		.byte	0x51
 10954 0e86 B0010000 		.4byte	.LVL227
 10955 0e8a B2010000 		.4byte	.LVL228
 10956 0e8e 0400     		.2byte	0x4
 10957 0e90 F3       		.byte	0xf3
 10958 0e91 01       		.uleb128 0x1
 10959 0e92 51       		.byte	0x51
 10960 0e93 9F       		.byte	0x9f
 10961 0e94 B2010000 		.4byte	.LVL228
 10962 0e98 BA010000 		.4byte	.LVL229
 10963 0e9c 0100     		.2byte	0x1
 10964 0e9e 51       		.byte	0x51
 10965 0e9f BA010000 		.4byte	.LVL229
 10966 0ea3 BC010000 		.4byte	.LVL230
 10967 0ea7 0400     		.2byte	0x4
 10968 0ea9 F3       		.byte	0xf3
 10969 0eaa 01       		.uleb128 0x1
 10970 0eab 51       		.byte	0x51
 10971 0eac 9F       		.byte	0x9f
 10972 0ead BC010000 		.4byte	.LVL230
 10973 0eb1 C8010000 		.4byte	.LVL231
 10974 0eb5 0100     		.2byte	0x1
 10975 0eb7 51       		.byte	0x51
 10976 0eb8 C8010000 		.4byte	.LVL231
 10977 0ebc CA010000 		.4byte	.LVL232
 10978 0ec0 0400     		.2byte	0x4
 10979 0ec2 F3       		.byte	0xf3
 10980 0ec3 01       		.uleb128 0x1
 10981 0ec4 51       		.byte	0x51
 10982 0ec5 9F       		.byte	0x9f
 10983 0ec6 CA010000 		.4byte	.LVL232
 10984 0eca D4010000 		.4byte	.LVL233
 10985 0ece 0100     		.2byte	0x1
 10986 0ed0 51       		.byte	0x51
 10987 0ed1 D4010000 		.4byte	.LVL233
 10988 0ed5 D6010000 		.4byte	.LVL234
 10989 0ed9 0400     		.2byte	0x4
 10990 0edb F3       		.byte	0xf3
 10991 0edc 01       		.uleb128 0x1
 10992 0edd 51       		.byte	0x51
 10993 0ede 9F       		.byte	0x9f
 10994 0edf D6010000 		.4byte	.LVL234
 10995 0ee3 E0010000 		.4byte	.LVL235
 10996 0ee7 0100     		.2byte	0x1
 10997 0ee9 51       		.byte	0x51
 10998 0eea E0010000 		.4byte	.LVL235
 10999 0eee E2010000 		.4byte	.LVL236
 11000 0ef2 0400     		.2byte	0x4
 11001 0ef4 F3       		.byte	0xf3
 11002 0ef5 01       		.uleb128 0x1
 11003 0ef6 51       		.byte	0x51
ARM GAS  C:\Users\chemi\AppData\Local\Temp\cc0tO343.s 			page 226


 11004 0ef7 9F       		.byte	0x9f
 11005 0ef8 E2010000 		.4byte	.LVL236
 11006 0efc EC010000 		.4byte	.LVL237
 11007 0f00 0100     		.2byte	0x1
 11008 0f02 51       		.byte	0x51
 11009 0f03 EC010000 		.4byte	.LVL237
 11010 0f07 EE010000 		.4byte	.LVL238
 11011 0f0b 0400     		.2byte	0x4
 11012 0f0d F3       		.byte	0xf3
 11013 0f0e 01       		.uleb128 0x1
 11014 0f0f 51       		.byte	0x51
 11015 0f10 9F       		.byte	0x9f
 11016 0f11 EE010000 		.4byte	.LVL238
 11017 0f15 F4010000 		.4byte	.LVL239
 11018 0f19 0100     		.2byte	0x1
 11019 0f1b 51       		.byte	0x51
 11020 0f1c F4010000 		.4byte	.LVL239
 11021 0f20 F6010000 		.4byte	.LVL240
 11022 0f24 0400     		.2byte	0x4
 11023 0f26 F3       		.byte	0xf3
 11024 0f27 01       		.uleb128 0x1
 11025 0f28 51       		.byte	0x51
 11026 0f29 9F       		.byte	0x9f
 11027 0f2a F6010000 		.4byte	.LVL240
 11028 0f2e FC010000 		.4byte	.LVL241
 11029 0f32 0100     		.2byte	0x1
 11030 0f34 51       		.byte	0x51
 11031 0f35 FC010000 		.4byte	.LVL241
 11032 0f39 FE010000 		.4byte	.LVL242
 11033 0f3d 0400     		.2byte	0x4
 11034 0f3f F3       		.byte	0xf3
 11035 0f40 01       		.uleb128 0x1
 11036 0f41 51       		.byte	0x51
 11037 0f42 9F       		.byte	0x9f
 11038 0f43 FE010000 		.4byte	.LVL242
 11039 0f47 04020000 		.4byte	.LVL243
 11040 0f4b 0100     		.2byte	0x1
 11041 0f4d 51       		.byte	0x51
 11042 0f4e 04020000 		.4byte	.LVL243
 11043 0f52 06020000 		.4byte	.LVL244
 11044 0f56 0400     		.2byte	0x4
 11045 0f58 F3       		.byte	0xf3
 11046 0f59 01       		.uleb128 0x1
 11047 0f5a 51       		.byte	0x51
 11048 0f5b 9F       		.byte	0x9f
 11049 0f5c 06020000 		.4byte	.LVL244
 11050 0f60 10020000 		.4byte	.LVL245
 11051 0f64 0100     		.2byte	0x1
 11052 0f66 51       		.byte	0x51
 11053 0f67 10020000 		.4byte	.LVL245
 11054 0f6b 12020000 		.4byte	.LVL246
 11055 0f6f 0400     		.2byte	0x4
 11056 0f71 F3       		.byte	0xf3
 11057 0f72 01       		.uleb128 0x1
 11058 0f73 51       		.byte	0x51
 11059 0f74 9F       		.byte	0x9f
 11060 0f75 12020000 		.4byte	.LVL246
ARM GAS  C:\Users\chemi\AppData\Local\Temp\cc0tO343.s 			page 227


 11061 0f79 1C020000 		.4byte	.LVL247
 11062 0f7d 0100     		.2byte	0x1
 11063 0f7f 51       		.byte	0x51
 11064 0f80 1C020000 		.4byte	.LVL247
 11065 0f84 22020000 		.4byte	.LVL249
 11066 0f88 0400     		.2byte	0x4
 11067 0f8a F3       		.byte	0xf3
 11068 0f8b 01       		.uleb128 0x1
 11069 0f8c 51       		.byte	0x51
 11070 0f8d 9F       		.byte	0x9f
 11071 0f8e 22020000 		.4byte	.LVL249
 11072 0f92 9C020000 		.4byte	.LFE93
 11073 0f96 0100     		.2byte	0x1
 11074 0f98 51       		.byte	0x51
 11075 0f99 00000000 		.4byte	0
 11076 0f9d 00000000 		.4byte	0
 11077              	.LLST72:
 11078 0fa1 00000000 		.4byte	.LVL185
 11079 0fa5 C2000000 		.4byte	.LVL186
 11080 0fa9 0100     		.2byte	0x1
 11081 0fab 52       		.byte	0x52
 11082 0fac C2000000 		.4byte	.LVL186
 11083 0fb0 C6000000 		.4byte	.LVL188
 11084 0fb4 0400     		.2byte	0x4
 11085 0fb6 F3       		.byte	0xf3
 11086 0fb7 01       		.uleb128 0x1
 11087 0fb8 52       		.byte	0x52
 11088 0fb9 9F       		.byte	0x9f
 11089 0fba C6000000 		.4byte	.LVL188
 11090 0fbe E9000000 		.4byte	.LVL193-1
 11091 0fc2 0100     		.2byte	0x1
 11092 0fc4 52       		.byte	0x52
 11093 0fc5 E9000000 		.4byte	.LVL193-1
 11094 0fc9 EA000000 		.4byte	.LVL193
 11095 0fcd 0400     		.2byte	0x4
 11096 0fcf F3       		.byte	0xf3
 11097 0fd0 01       		.uleb128 0x1
 11098 0fd1 52       		.byte	0x52
 11099 0fd2 9F       		.byte	0x9f
 11100 0fd3 EA000000 		.4byte	.LVL193
 11101 0fd7 18010000 		.4byte	.LVL198
 11102 0fdb 0100     		.2byte	0x1
 11103 0fdd 52       		.byte	0x52
 11104 0fde 18010000 		.4byte	.LVL198
 11105 0fe2 1A010000 		.4byte	.LVL199
 11106 0fe6 0400     		.2byte	0x4
 11107 0fe8 F3       		.byte	0xf3
 11108 0fe9 01       		.uleb128 0x1
 11109 0fea 52       		.byte	0x52
 11110 0feb 9F       		.byte	0x9f
 11111 0fec 1A010000 		.4byte	.LVL199
 11112 0ff0 24010000 		.4byte	.LVL200
 11113 0ff4 0100     		.2byte	0x1
 11114 0ff6 52       		.byte	0x52
 11115 0ff7 24010000 		.4byte	.LVL200
 11116 0ffb 28010000 		.4byte	.LVL202
 11117 0fff 0400     		.2byte	0x4
ARM GAS  C:\Users\chemi\AppData\Local\Temp\cc0tO343.s 			page 228


 11118 1001 F3       		.byte	0xf3
 11119 1002 01       		.uleb128 0x1
 11120 1003 52       		.byte	0x52
 11121 1004 9F       		.byte	0x9f
 11122 1005 28010000 		.4byte	.LVL202
 11123 1009 1C020000 		.4byte	.LVL247
 11124 100d 0100     		.2byte	0x1
 11125 100f 52       		.byte	0x52
 11126 1010 1C020000 		.4byte	.LVL247
 11127 1014 22020000 		.4byte	.LVL249
 11128 1018 0400     		.2byte	0x4
 11129 101a F3       		.byte	0xf3
 11130 101b 01       		.uleb128 0x1
 11131 101c 52       		.byte	0x52
 11132 101d 9F       		.byte	0x9f
 11133 101e 22020000 		.4byte	.LVL249
 11134 1022 9C020000 		.4byte	.LFE93
 11135 1026 0100     		.2byte	0x1
 11136 1028 52       		.byte	0x52
 11137 1029 00000000 		.4byte	0
 11138 102d 00000000 		.4byte	0
 11139              	.LLST73:
 11140 1031 00000000 		.4byte	.LVL250
 11141 1035 12000000 		.4byte	.LVL251
 11142 1039 0100     		.2byte	0x1
 11143 103b 50       		.byte	0x50
 11144 103c 12000000 		.4byte	.LVL251
 11145 1040 82000000 		.4byte	.LVL260
 11146 1044 0100     		.2byte	0x1
 11147 1046 54       		.byte	0x54
 11148 1047 82000000 		.4byte	.LVL260
 11149 104b 98000000 		.4byte	.LFE71
 11150 104f 0400     		.2byte	0x4
 11151 1051 F3       		.byte	0xf3
 11152 1052 01       		.uleb128 0x1
 11153 1053 50       		.byte	0x50
 11154 1054 9F       		.byte	0x9f
 11155 1055 00000000 		.4byte	0
 11156 1059 00000000 		.4byte	0
 11157              	.LLST74:
 11158 105d 22000000 		.4byte	.LVL253
 11159 1061 25000000 		.4byte	.LVL254-1
 11160 1065 0100     		.2byte	0x1
 11161 1067 50       		.byte	0x50
 11162 1068 25000000 		.4byte	.LVL254-1
 11163 106c 82000000 		.4byte	.LVL260
 11164 1070 0100     		.2byte	0x1
 11165 1072 55       		.byte	0x55
 11166 1073 00000000 		.4byte	0
 11167 1077 00000000 		.4byte	0
 11168              	.LLST75:
 11169 107b 00000000 		.4byte	.LVL261
 11170 107f 0D000000 		.4byte	.LVL262-1
 11171 1083 0100     		.2byte	0x1
 11172 1085 50       		.byte	0x50
 11173 1086 0D000000 		.4byte	.LVL262-1
 11174 108a 6E000000 		.4byte	.LVL268
ARM GAS  C:\Users\chemi\AppData\Local\Temp\cc0tO343.s 			page 229


 11175 108e 0100     		.2byte	0x1
 11176 1090 54       		.byte	0x54
 11177 1091 6E000000 		.4byte	.LVL268
 11178 1095 70000000 		.4byte	.LVL269
 11179 1099 0400     		.2byte	0x4
 11180 109b F3       		.byte	0xf3
 11181 109c 01       		.uleb128 0x1
 11182 109d 50       		.byte	0x50
 11183 109e 9F       		.byte	0x9f
 11184 109f 70000000 		.4byte	.LVL269
 11185 10a3 9A000000 		.4byte	.LVL271
 11186 10a7 0100     		.2byte	0x1
 11187 10a9 54       		.byte	0x54
 11188 10aa 9A000000 		.4byte	.LVL271
 11189 10ae 9D000000 		.4byte	.LVL272-1
 11190 10b2 0100     		.2byte	0x1
 11191 10b4 50       		.byte	0x50
 11192 10b5 9D000000 		.4byte	.LVL272-1
 11193 10b9 9E000000 		.4byte	.LVL272
 11194 10bd 0400     		.2byte	0x4
 11195 10bf F3       		.byte	0xf3
 11196 10c0 01       		.uleb128 0x1
 11197 10c1 50       		.byte	0x50
 11198 10c2 9F       		.byte	0x9f
 11199 10c3 9E000000 		.4byte	.LVL272
 11200 10c7 A2000000 		.4byte	.LVL273
 11201 10cb 0100     		.2byte	0x1
 11202 10cd 54       		.byte	0x54
 11203 10ce A2000000 		.4byte	.LVL273
 11204 10d2 C4000000 		.4byte	.LFE74
 11205 10d6 0400     		.2byte	0x4
 11206 10d8 F3       		.byte	0xf3
 11207 10d9 01       		.uleb128 0x1
 11208 10da 50       		.byte	0x50
 11209 10db 9F       		.byte	0x9f
 11210 10dc 00000000 		.4byte	0
 11211 10e0 00000000 		.4byte	0
 11212              	.LLST76:
 11213 10e4 00000000 		.4byte	.LVL274
 11214 10e8 08000000 		.4byte	.LVL275
 11215 10ec 0100     		.2byte	0x1
 11216 10ee 50       		.byte	0x50
 11217 10ef 08000000 		.4byte	.LVL275
 11218 10f3 B0000000 		.4byte	.LVL289
 11219 10f7 0100     		.2byte	0x1
 11220 10f9 59       		.byte	0x59
 11221 10fa B0000000 		.4byte	.LVL289
 11222 10fe E8000000 		.4byte	.LFE69
 11223 1102 0400     		.2byte	0x4
 11224 1104 F3       		.byte	0xf3
 11225 1105 01       		.uleb128 0x1
 11226 1106 50       		.byte	0x50
 11227 1107 9F       		.byte	0x9f
 11228 1108 00000000 		.4byte	0
 11229 110c 00000000 		.4byte	0
 11230              	.LLST77:
 11231 1110 00000000 		.4byte	.LVL274
ARM GAS  C:\Users\chemi\AppData\Local\Temp\cc0tO343.s 			page 230


 11232 1114 13000000 		.4byte	.LVL276-1
 11233 1118 0100     		.2byte	0x1
 11234 111a 51       		.byte	0x51
 11235 111b 13000000 		.4byte	.LVL276-1
 11236 111f B0000000 		.4byte	.LVL289
 11237 1123 0100     		.2byte	0x1
 11238 1125 58       		.byte	0x58
 11239 1126 B0000000 		.4byte	.LVL289
 11240 112a E8000000 		.4byte	.LFE69
 11241 112e 0400     		.2byte	0x4
 11242 1130 F3       		.byte	0xf3
 11243 1131 01       		.uleb128 0x1
 11244 1132 51       		.byte	0x51
 11245 1133 9F       		.byte	0x9f
 11246 1134 00000000 		.4byte	0
 11247 1138 00000000 		.4byte	0
 11248              	.LLST78:
 11249 113c 00000000 		.4byte	.LVL274
 11250 1140 13000000 		.4byte	.LVL276-1
 11251 1144 0100     		.2byte	0x1
 11252 1146 52       		.byte	0x52
 11253 1147 13000000 		.4byte	.LVL276-1
 11254 114b B0000000 		.4byte	.LVL289
 11255 114f 0100     		.2byte	0x1
 11256 1151 57       		.byte	0x57
 11257 1152 B0000000 		.4byte	.LVL289
 11258 1156 E8000000 		.4byte	.LFE69
 11259 115a 0400     		.2byte	0x4
 11260 115c F3       		.byte	0xf3
 11261 115d 01       		.uleb128 0x1
 11262 115e 52       		.byte	0x52
 11263 115f 9F       		.byte	0x9f
 11264 1160 00000000 		.4byte	0
 11265 1164 00000000 		.4byte	0
 11266              	.LLST79:
 11267 1168 00000000 		.4byte	.LVL274
 11268 116c 13000000 		.4byte	.LVL276-1
 11269 1170 0100     		.2byte	0x1
 11270 1172 53       		.byte	0x53
 11271 1173 13000000 		.4byte	.LVL276-1
 11272 1177 6A000000 		.4byte	.LVL283
 11273 117b 0100     		.2byte	0x1
 11274 117d 56       		.byte	0x56
 11275 117e 6A000000 		.4byte	.LVL283
 11276 1182 E8000000 		.4byte	.LFE69
 11277 1186 0400     		.2byte	0x4
 11278 1188 F3       		.byte	0xf3
 11279 1189 01       		.uleb128 0x1
 11280 118a 53       		.byte	0x53
 11281 118b 9F       		.byte	0x9f
 11282 118c 00000000 		.4byte	0
 11283 1190 00000000 		.4byte	0
 11284              	.LLST80:
 11285 1194 00000000 		.4byte	.LVL274
 11286 1198 B0000000 		.4byte	.LVL289
 11287 119c 0200     		.2byte	0x2
 11288 119e 91       		.byte	0x91
ARM GAS  C:\Users\chemi\AppData\Local\Temp\cc0tO343.s 			page 231


 11289 119f 00       		.sleb128 0
 11290 11a0 B0000000 		.4byte	.LVL289
 11291 11a4 E8000000 		.4byte	.LFE69
 11292 11a8 0200     		.2byte	0x2
 11293 11aa 7D       		.byte	0x7d
 11294 11ab 00       		.sleb128 0
 11295 11ac 00000000 		.4byte	0
 11296 11b0 00000000 		.4byte	0
 11297              	.LLST81:
 11298 11b4 00000000 		.4byte	.LVL274
 11299 11b8 B0000000 		.4byte	.LVL289
 11300 11bc 0200     		.2byte	0x2
 11301 11be 91       		.byte	0x91
 11302 11bf 04       		.sleb128 4
 11303 11c0 B0000000 		.4byte	.LVL289
 11304 11c4 E8000000 		.4byte	.LFE69
 11305 11c8 0200     		.2byte	0x2
 11306 11ca 7D       		.byte	0x7d
 11307 11cb 04       		.sleb128 4
 11308 11cc 00000000 		.4byte	0
 11309 11d0 00000000 		.4byte	0
 11310              	.LLST82:
 11311 11d4 1A000000 		.4byte	.LVL277
 11312 11d8 1D000000 		.4byte	.LVL278-1
 11313 11dc 0100     		.2byte	0x1
 11314 11de 50       		.byte	0x50
 11315 11df 1D000000 		.4byte	.LVL278-1
 11316 11e3 B0000000 		.4byte	.LVL289
 11317 11e7 0100     		.2byte	0x1
 11318 11e9 54       		.byte	0x54
 11319 11ea B0000000 		.4byte	.LVL289
 11320 11ee E8000000 		.4byte	.LFE69
 11321 11f2 0100     		.2byte	0x1
 11322 11f4 50       		.byte	0x50
 11323 11f5 00000000 		.4byte	0
 11324 11f9 00000000 		.4byte	0
 11325              	.LLST83:
 11326 11fd 00000000 		.4byte	.LVL290
 11327 1201 12000000 		.4byte	.LVL292
 11328 1205 0100     		.2byte	0x1
 11329 1207 50       		.byte	0x50
 11330 1208 12000000 		.4byte	.LVL292
 11331 120c 20000000 		.4byte	.LVL296
 11332 1210 0400     		.2byte	0x4
 11333 1212 F3       		.byte	0xf3
 11334 1213 01       		.uleb128 0x1
 11335 1214 50       		.byte	0x50
 11336 1215 9F       		.byte	0x9f
 11337 1216 20000000 		.4byte	.LVL296
 11338 121a 98000000 		.4byte	.LVL298
 11339 121e 0100     		.2byte	0x1
 11340 1220 50       		.byte	0x50
 11341 1221 98000000 		.4byte	.LVL298
 11342 1225 2E010000 		.4byte	.LVL307
 11343 1229 0400     		.2byte	0x4
 11344 122b F3       		.byte	0xf3
 11345 122c 01       		.uleb128 0x1
ARM GAS  C:\Users\chemi\AppData\Local\Temp\cc0tO343.s 			page 232


 11346 122d 50       		.byte	0x50
 11347 122e 9F       		.byte	0x9f
 11348 122f 2E010000 		.4byte	.LVL307
 11349 1233 3C010000 		.4byte	.LVL309
 11350 1237 0100     		.2byte	0x1
 11351 1239 50       		.byte	0x50
 11352 123a 3C010000 		.4byte	.LVL309
 11353 123e 58010000 		.4byte	.LVL312
 11354 1242 0400     		.2byte	0x4
 11355 1244 F3       		.byte	0xf3
 11356 1245 01       		.uleb128 0x1
 11357 1246 50       		.byte	0x50
 11358 1247 9F       		.byte	0x9f
 11359 1248 58010000 		.4byte	.LVL312
 11360 124c 5C010000 		.4byte	.LVL314
 11361 1250 0100     		.2byte	0x1
 11362 1252 50       		.byte	0x50
 11363 1253 5C010000 		.4byte	.LVL314
 11364 1257 08020000 		.4byte	.LVL328
 11365 125b 0400     		.2byte	0x4
 11366 125d F3       		.byte	0xf3
 11367 125e 01       		.uleb128 0x1
 11368 125f 50       		.byte	0x50
 11369 1260 9F       		.byte	0x9f
 11370 1261 08020000 		.4byte	.LVL328
 11371 1265 0C020000 		.4byte	.LVL330
 11372 1269 0100     		.2byte	0x1
 11373 126b 50       		.byte	0x50
 11374 126c 0C020000 		.4byte	.LVL330
 11375 1270 2C020000 		.4byte	.LVL333
 11376 1274 0400     		.2byte	0x4
 11377 1276 F3       		.byte	0xf3
 11378 1277 01       		.uleb128 0x1
 11379 1278 50       		.byte	0x50
 11380 1279 9F       		.byte	0x9f
 11381 127a 2C020000 		.4byte	.LVL333
 11382 127e 30020000 		.4byte	.LVL335
 11383 1282 0100     		.2byte	0x1
 11384 1284 50       		.byte	0x50
 11385 1285 30020000 		.4byte	.LVL335
 11386 1289 4A020000 		.4byte	.LVL338
 11387 128d 0400     		.2byte	0x4
 11388 128f F3       		.byte	0xf3
 11389 1290 01       		.uleb128 0x1
 11390 1291 50       		.byte	0x50
 11391 1292 9F       		.byte	0x9f
 11392 1293 4A020000 		.4byte	.LVL338
 11393 1297 4E020000 		.4byte	.LVL340
 11394 129b 0100     		.2byte	0x1
 11395 129d 50       		.byte	0x50
 11396 129e 4E020000 		.4byte	.LVL340
 11397 12a2 68020000 		.4byte	.LVL342
 11398 12a6 0400     		.2byte	0x4
 11399 12a8 F3       		.byte	0xf3
 11400 12a9 01       		.uleb128 0x1
 11401 12aa 50       		.byte	0x50
 11402 12ab 9F       		.byte	0x9f
ARM GAS  C:\Users\chemi\AppData\Local\Temp\cc0tO343.s 			page 233


 11403 12ac 68020000 		.4byte	.LVL342
 11404 12b0 6C020000 		.4byte	.LVL344
 11405 12b4 0100     		.2byte	0x1
 11406 12b6 50       		.byte	0x50
 11407 12b7 6C020000 		.4byte	.LVL344
 11408 12bb 88020000 		.4byte	.LVL347
 11409 12bf 0400     		.2byte	0x4
 11410 12c1 F3       		.byte	0xf3
 11411 12c2 01       		.uleb128 0x1
 11412 12c3 50       		.byte	0x50
 11413 12c4 9F       		.byte	0x9f
 11414 12c5 88020000 		.4byte	.LVL347
 11415 12c9 8C020000 		.4byte	.LVL349
 11416 12cd 0100     		.2byte	0x1
 11417 12cf 50       		.byte	0x50
 11418 12d0 8C020000 		.4byte	.LVL349
 11419 12d4 AE020000 		.4byte	.LVL351
 11420 12d8 0400     		.2byte	0x4
 11421 12da F3       		.byte	0xf3
 11422 12db 01       		.uleb128 0x1
 11423 12dc 50       		.byte	0x50
 11424 12dd 9F       		.byte	0x9f
 11425 12de AE020000 		.4byte	.LVL351
 11426 12e2 B2020000 		.4byte	.LVL353
 11427 12e6 0100     		.2byte	0x1
 11428 12e8 50       		.byte	0x50
 11429 12e9 B2020000 		.4byte	.LVL353
 11430 12ed 14030000 		.4byte	.LVL356
 11431 12f1 0400     		.2byte	0x4
 11432 12f3 F3       		.byte	0xf3
 11433 12f4 01       		.uleb128 0x1
 11434 12f5 50       		.byte	0x50
 11435 12f6 9F       		.byte	0x9f
 11436 12f7 14030000 		.4byte	.LVL356
 11437 12fb 18030000 		.4byte	.LVL358
 11438 12ff 0100     		.2byte	0x1
 11439 1301 50       		.byte	0x50
 11440 1302 18030000 		.4byte	.LVL358
 11441 1306 A8030000 		.4byte	.LVL371
 11442 130a 0400     		.2byte	0x4
 11443 130c F3       		.byte	0xf3
 11444 130d 01       		.uleb128 0x1
 11445 130e 50       		.byte	0x50
 11446 130f 9F       		.byte	0x9f
 11447 1310 A8030000 		.4byte	.LVL371
 11448 1314 AC030000 		.4byte	.LVL373
 11449 1318 0100     		.2byte	0x1
 11450 131a 50       		.byte	0x50
 11451 131b AC030000 		.4byte	.LVL373
 11452 131f 4C040000 		.4byte	.LVL385
 11453 1323 0400     		.2byte	0x4
 11454 1325 F3       		.byte	0xf3
 11455 1326 01       		.uleb128 0x1
 11456 1327 50       		.byte	0x50
 11457 1328 9F       		.byte	0x9f
 11458 1329 4C040000 		.4byte	.LVL385
 11459 132d 4E040000 		.4byte	.LVL386
ARM GAS  C:\Users\chemi\AppData\Local\Temp\cc0tO343.s 			page 234


 11460 1331 0100     		.2byte	0x1
 11461 1333 50       		.byte	0x50
 11462 1334 4E040000 		.4byte	.LVL386
 11463 1338 54040000 		.4byte	.LVL388
 11464 133c 0400     		.2byte	0x4
 11465 133e F3       		.byte	0xf3
 11466 133f 01       		.uleb128 0x1
 11467 1340 50       		.byte	0x50
 11468 1341 9F       		.byte	0x9f
 11469 1342 54040000 		.4byte	.LVL388
 11470 1346 58040000 		.4byte	.LVL390
 11471 134a 0100     		.2byte	0x1
 11472 134c 50       		.byte	0x50
 11473 134d 58040000 		.4byte	.LVL390
 11474 1351 F2040000 		.4byte	.LVL397
 11475 1355 0400     		.2byte	0x4
 11476 1357 F3       		.byte	0xf3
 11477 1358 01       		.uleb128 0x1
 11478 1359 50       		.byte	0x50
 11479 135a 9F       		.byte	0x9f
 11480 135b F2040000 		.4byte	.LVL397
 11481 135f F8040000 		.4byte	.LVL399
 11482 1363 0100     		.2byte	0x1
 11483 1365 50       		.byte	0x50
 11484 1366 F8040000 		.4byte	.LVL399
 11485 136a 28050000 		.4byte	.LFE78
 11486 136e 0400     		.2byte	0x4
 11487 1370 F3       		.byte	0xf3
 11488 1371 01       		.uleb128 0x1
 11489 1372 50       		.byte	0x50
 11490 1373 9F       		.byte	0x9f
 11491 1374 00000000 		.4byte	0
 11492 1378 00000000 		.4byte	0
 11493              	.LLST84:
 11494 137c 00000000 		.4byte	.LVL290
 11495 1380 10000000 		.4byte	.LVL291
 11496 1384 0100     		.2byte	0x1
 11497 1386 51       		.byte	0x51
 11498 1387 10000000 		.4byte	.LVL291
 11499 138b 20000000 		.4byte	.LVL296
 11500 138f 0100     		.2byte	0x1
 11501 1391 54       		.byte	0x54
 11502 1392 20000000 		.4byte	.LVL296
 11503 1396 96000000 		.4byte	.LVL297
 11504 139a 0100     		.2byte	0x1
 11505 139c 51       		.byte	0x51
 11506 139d 96000000 		.4byte	.LVL297
 11507 13a1 2E010000 		.4byte	.LVL307
 11508 13a5 0100     		.2byte	0x1
 11509 13a7 54       		.byte	0x54
 11510 13a8 2E010000 		.4byte	.LVL307
 11511 13ac 3A010000 		.4byte	.LVL308
 11512 13b0 0100     		.2byte	0x1
 11513 13b2 51       		.byte	0x51
 11514 13b3 3A010000 		.4byte	.LVL308
 11515 13b7 58010000 		.4byte	.LVL312
 11516 13bb 0100     		.2byte	0x1
ARM GAS  C:\Users\chemi\AppData\Local\Temp\cc0tO343.s 			page 235


 11517 13bd 54       		.byte	0x54
 11518 13be 58010000 		.4byte	.LVL312
 11519 13c2 5A010000 		.4byte	.LVL313
 11520 13c6 0100     		.2byte	0x1
 11521 13c8 51       		.byte	0x51
 11522 13c9 5A010000 		.4byte	.LVL313
 11523 13cd 08020000 		.4byte	.LVL328
 11524 13d1 0100     		.2byte	0x1
 11525 13d3 54       		.byte	0x54
 11526 13d4 08020000 		.4byte	.LVL328
 11527 13d8 0A020000 		.4byte	.LVL329
 11528 13dc 0100     		.2byte	0x1
 11529 13de 51       		.byte	0x51
 11530 13df 0A020000 		.4byte	.LVL329
 11531 13e3 2C020000 		.4byte	.LVL333
 11532 13e7 0100     		.2byte	0x1
 11533 13e9 54       		.byte	0x54
 11534 13ea 2C020000 		.4byte	.LVL333
 11535 13ee 2E020000 		.4byte	.LVL334
 11536 13f2 0100     		.2byte	0x1
 11537 13f4 51       		.byte	0x51
 11538 13f5 2E020000 		.4byte	.LVL334
 11539 13f9 4A020000 		.4byte	.LVL338
 11540 13fd 0100     		.2byte	0x1
 11541 13ff 54       		.byte	0x54
 11542 1400 4A020000 		.4byte	.LVL338
 11543 1404 4C020000 		.4byte	.LVL339
 11544 1408 0100     		.2byte	0x1
 11545 140a 51       		.byte	0x51
 11546 140b 4C020000 		.4byte	.LVL339
 11547 140f 68020000 		.4byte	.LVL342
 11548 1413 0100     		.2byte	0x1
 11549 1415 54       		.byte	0x54
 11550 1416 68020000 		.4byte	.LVL342
 11551 141a 6A020000 		.4byte	.LVL343
 11552 141e 0100     		.2byte	0x1
 11553 1420 51       		.byte	0x51
 11554 1421 6A020000 		.4byte	.LVL343
 11555 1425 88020000 		.4byte	.LVL347
 11556 1429 0100     		.2byte	0x1
 11557 142b 54       		.byte	0x54
 11558 142c 88020000 		.4byte	.LVL347
 11559 1430 8A020000 		.4byte	.LVL348
 11560 1434 0100     		.2byte	0x1
 11561 1436 51       		.byte	0x51
 11562 1437 8A020000 		.4byte	.LVL348
 11563 143b AE020000 		.4byte	.LVL351
 11564 143f 0100     		.2byte	0x1
 11565 1441 54       		.byte	0x54
 11566 1442 AE020000 		.4byte	.LVL351
 11567 1446 B0020000 		.4byte	.LVL352
 11568 144a 0100     		.2byte	0x1
 11569 144c 51       		.byte	0x51
 11570 144d B0020000 		.4byte	.LVL352
 11571 1451 14030000 		.4byte	.LVL356
 11572 1455 0100     		.2byte	0x1
 11573 1457 54       		.byte	0x54
ARM GAS  C:\Users\chemi\AppData\Local\Temp\cc0tO343.s 			page 236


 11574 1458 14030000 		.4byte	.LVL356
 11575 145c 16030000 		.4byte	.LVL357
 11576 1460 0100     		.2byte	0x1
 11577 1462 51       		.byte	0x51
 11578 1463 16030000 		.4byte	.LVL357
 11579 1467 78030000 		.4byte	.LVL365
 11580 146b 0100     		.2byte	0x1
 11581 146d 54       		.byte	0x54
 11582 146e 78030000 		.4byte	.LVL365
 11583 1472 84030000 		.4byte	.LVL367
 11584 1476 0400     		.2byte	0x4
 11585 1478 F3       		.byte	0xf3
 11586 1479 01       		.uleb128 0x1
 11587 147a 51       		.byte	0x51
 11588 147b 9F       		.byte	0x9f
 11589 147c 84030000 		.4byte	.LVL367
 11590 1480 9C030000 		.4byte	.LVL369
 11591 1484 0100     		.2byte	0x1
 11592 1486 54       		.byte	0x54
 11593 1487 9C030000 		.4byte	.LVL369
 11594 148b A8030000 		.4byte	.LVL371
 11595 148f 0400     		.2byte	0x4
 11596 1491 F3       		.byte	0xf3
 11597 1492 01       		.uleb128 0x1
 11598 1493 51       		.byte	0x51
 11599 1494 9F       		.byte	0x9f
 11600 1495 A8030000 		.4byte	.LVL371
 11601 1499 AA030000 		.4byte	.LVL372
 11602 149d 0100     		.2byte	0x1
 11603 149f 51       		.byte	0x51
 11604 14a0 AA030000 		.4byte	.LVL372
 11605 14a4 40040000 		.4byte	.LVL383
 11606 14a8 0100     		.2byte	0x1
 11607 14aa 54       		.byte	0x54
 11608 14ab 40040000 		.4byte	.LVL383
 11609 14af 4C040000 		.4byte	.LVL385
 11610 14b3 0400     		.2byte	0x4
 11611 14b5 F3       		.byte	0xf3
 11612 14b6 01       		.uleb128 0x1
 11613 14b7 51       		.byte	0x51
 11614 14b8 9F       		.byte	0x9f
 11615 14b9 4C040000 		.4byte	.LVL385
 11616 14bd 51040000 		.4byte	.LVL387-1
 11617 14c1 0100     		.2byte	0x1
 11618 14c3 51       		.byte	0x51
 11619 14c4 51040000 		.4byte	.LVL387-1
 11620 14c8 54040000 		.4byte	.LVL388
 11621 14cc 0100     		.2byte	0x1
 11622 14ce 54       		.byte	0x54
 11623 14cf 54040000 		.4byte	.LVL388
 11624 14d3 56040000 		.4byte	.LVL389
 11625 14d7 0100     		.2byte	0x1
 11626 14d9 51       		.byte	0x51
 11627 14da 56040000 		.4byte	.LVL389
 11628 14de F2040000 		.4byte	.LVL397
 11629 14e2 0100     		.2byte	0x1
 11630 14e4 54       		.byte	0x54
ARM GAS  C:\Users\chemi\AppData\Local\Temp\cc0tO343.s 			page 237


 11631 14e5 F2040000 		.4byte	.LVL397
 11632 14e9 F6040000 		.4byte	.LVL398
 11633 14ed 0100     		.2byte	0x1
 11634 14ef 51       		.byte	0x51
 11635 14f0 F6040000 		.4byte	.LVL398
 11636 14f4 FC040000 		.4byte	.LVL400
 11637 14f8 0100     		.2byte	0x1
 11638 14fa 54       		.byte	0x54
 11639 14fb FC040000 		.4byte	.LVL400
 11640 14ff 28050000 		.4byte	.LFE78
 11641 1503 0400     		.2byte	0x4
 11642 1505 F3       		.byte	0xf3
 11643 1506 01       		.uleb128 0x1
 11644 1507 51       		.byte	0x51
 11645 1508 9F       		.byte	0x9f
 11646 1509 00000000 		.4byte	0
 11647 150d 00000000 		.4byte	0
 11648              	.LLST85:
 11649 1511 14000000 		.4byte	.LVL293
 11650 1515 1C000000 		.4byte	.LVL294
 11651 1519 0100     		.2byte	0x1
 11652 151b 50       		.byte	0x50
 11653 151c 00000000 		.4byte	0
 11654 1520 00000000 		.4byte	0
 11655              	.LLST86:
 11656 1524 20000000 		.4byte	.LVL296
 11657 1528 96000000 		.4byte	.LVL297
 11658 152c 0100     		.2byte	0x1
 11659 152e 51       		.byte	0x51
 11660 152f 96000000 		.4byte	.LVL297
 11661 1533 2E010000 		.4byte	.LVL307
 11662 1537 0100     		.2byte	0x1
 11663 1539 54       		.byte	0x54
 11664 153a 2E010000 		.4byte	.LVL307
 11665 153e 3A010000 		.4byte	.LVL308
 11666 1542 0100     		.2byte	0x1
 11667 1544 51       		.byte	0x51
 11668 1545 3A010000 		.4byte	.LVL308
 11669 1549 58010000 		.4byte	.LVL312
 11670 154d 0100     		.2byte	0x1
 11671 154f 54       		.byte	0x54
 11672 1550 58010000 		.4byte	.LVL312
 11673 1554 5A010000 		.4byte	.LVL313
 11674 1558 0100     		.2byte	0x1
 11675 155a 51       		.byte	0x51
 11676 155b 5A010000 		.4byte	.LVL313
 11677 155f 08020000 		.4byte	.LVL328
 11678 1563 0100     		.2byte	0x1
 11679 1565 54       		.byte	0x54
 11680 1566 08020000 		.4byte	.LVL328
 11681 156a 0A020000 		.4byte	.LVL329
 11682 156e 0100     		.2byte	0x1
 11683 1570 51       		.byte	0x51
 11684 1571 0A020000 		.4byte	.LVL329
 11685 1575 2C020000 		.4byte	.LVL333
 11686 1579 0100     		.2byte	0x1
 11687 157b 54       		.byte	0x54
ARM GAS  C:\Users\chemi\AppData\Local\Temp\cc0tO343.s 			page 238


 11688 157c 2C020000 		.4byte	.LVL333
 11689 1580 2E020000 		.4byte	.LVL334
 11690 1584 0100     		.2byte	0x1
 11691 1586 51       		.byte	0x51
 11692 1587 2E020000 		.4byte	.LVL334
 11693 158b 4A020000 		.4byte	.LVL338
 11694 158f 0100     		.2byte	0x1
 11695 1591 54       		.byte	0x54
 11696 1592 4A020000 		.4byte	.LVL338
 11697 1596 4C020000 		.4byte	.LVL339
 11698 159a 0100     		.2byte	0x1
 11699 159c 51       		.byte	0x51
 11700 159d 4C020000 		.4byte	.LVL339
 11701 15a1 68020000 		.4byte	.LVL342
 11702 15a5 0100     		.2byte	0x1
 11703 15a7 54       		.byte	0x54
 11704 15a8 68020000 		.4byte	.LVL342
 11705 15ac 6A020000 		.4byte	.LVL343
 11706 15b0 0100     		.2byte	0x1
 11707 15b2 51       		.byte	0x51
 11708 15b3 6A020000 		.4byte	.LVL343
 11709 15b7 88020000 		.4byte	.LVL347
 11710 15bb 0100     		.2byte	0x1
 11711 15bd 54       		.byte	0x54
 11712 15be 88020000 		.4byte	.LVL347
 11713 15c2 8A020000 		.4byte	.LVL348
 11714 15c6 0100     		.2byte	0x1
 11715 15c8 51       		.byte	0x51
 11716 15c9 8A020000 		.4byte	.LVL348
 11717 15cd AE020000 		.4byte	.LVL351
 11718 15d1 0100     		.2byte	0x1
 11719 15d3 54       		.byte	0x54
 11720 15d4 AE020000 		.4byte	.LVL351
 11721 15d8 B0020000 		.4byte	.LVL352
 11722 15dc 0100     		.2byte	0x1
 11723 15de 51       		.byte	0x51
 11724 15df B0020000 		.4byte	.LVL352
 11725 15e3 14030000 		.4byte	.LVL356
 11726 15e7 0100     		.2byte	0x1
 11727 15e9 54       		.byte	0x54
 11728 15ea 14030000 		.4byte	.LVL356
 11729 15ee 16030000 		.4byte	.LVL357
 11730 15f2 0100     		.2byte	0x1
 11731 15f4 51       		.byte	0x51
 11732 15f5 16030000 		.4byte	.LVL357
 11733 15f9 78030000 		.4byte	.LVL365
 11734 15fd 0100     		.2byte	0x1
 11735 15ff 54       		.byte	0x54
 11736 1600 78030000 		.4byte	.LVL365
 11737 1604 84030000 		.4byte	.LVL367
 11738 1608 0400     		.2byte	0x4
 11739 160a F3       		.byte	0xf3
 11740 160b 01       		.uleb128 0x1
 11741 160c 51       		.byte	0x51
 11742 160d 9F       		.byte	0x9f
 11743 160e 84030000 		.4byte	.LVL367
 11744 1612 9C030000 		.4byte	.LVL369
ARM GAS  C:\Users\chemi\AppData\Local\Temp\cc0tO343.s 			page 239


 11745 1616 0100     		.2byte	0x1
 11746 1618 54       		.byte	0x54
 11747 1619 9C030000 		.4byte	.LVL369
 11748 161d A8030000 		.4byte	.LVL371
 11749 1621 0400     		.2byte	0x4
 11750 1623 F3       		.byte	0xf3
 11751 1624 01       		.uleb128 0x1
 11752 1625 51       		.byte	0x51
 11753 1626 9F       		.byte	0x9f
 11754 1627 A8030000 		.4byte	.LVL371
 11755 162b AA030000 		.4byte	.LVL372
 11756 162f 0100     		.2byte	0x1
 11757 1631 51       		.byte	0x51
 11758 1632 AA030000 		.4byte	.LVL372
 11759 1636 40040000 		.4byte	.LVL383
 11760 163a 0100     		.2byte	0x1
 11761 163c 54       		.byte	0x54
 11762 163d 40040000 		.4byte	.LVL383
 11763 1641 4C040000 		.4byte	.LVL385
 11764 1645 0400     		.2byte	0x4
 11765 1647 F3       		.byte	0xf3
 11766 1648 01       		.uleb128 0x1
 11767 1649 51       		.byte	0x51
 11768 164a 9F       		.byte	0x9f
 11769 164b 4C040000 		.4byte	.LVL385
 11770 164f 51040000 		.4byte	.LVL387-1
 11771 1653 0100     		.2byte	0x1
 11772 1655 51       		.byte	0x51
 11773 1656 51040000 		.4byte	.LVL387-1
 11774 165a 54040000 		.4byte	.LVL388
 11775 165e 0100     		.2byte	0x1
 11776 1660 54       		.byte	0x54
 11777 1661 54040000 		.4byte	.LVL388
 11778 1665 56040000 		.4byte	.LVL389
 11779 1669 0100     		.2byte	0x1
 11780 166b 51       		.byte	0x51
 11781 166c 56040000 		.4byte	.LVL389
 11782 1670 F2040000 		.4byte	.LVL397
 11783 1674 0100     		.2byte	0x1
 11784 1676 54       		.byte	0x54
 11785 1677 F2040000 		.4byte	.LVL397
 11786 167b F6040000 		.4byte	.LVL398
 11787 167f 0100     		.2byte	0x1
 11788 1681 51       		.byte	0x51
 11789 1682 F6040000 		.4byte	.LVL398
 11790 1686 FC040000 		.4byte	.LVL400
 11791 168a 0100     		.2byte	0x1
 11792 168c 54       		.byte	0x54
 11793 168d 00000000 		.4byte	0
 11794 1691 00000000 		.4byte	0
 11795              	.LLST87:
 11796 1695 20000000 		.4byte	.LVL296
 11797 1699 98000000 		.4byte	.LVL298
 11798 169d 0100     		.2byte	0x1
 11799 169f 50       		.byte	0x50
 11800 16a0 98000000 		.4byte	.LVL298
 11801 16a4 2E010000 		.4byte	.LVL307
ARM GAS  C:\Users\chemi\AppData\Local\Temp\cc0tO343.s 			page 240


 11802 16a8 0400     		.2byte	0x4
 11803 16aa F3       		.byte	0xf3
 11804 16ab 01       		.uleb128 0x1
 11805 16ac 50       		.byte	0x50
 11806 16ad 9F       		.byte	0x9f
 11807 16ae 2E010000 		.4byte	.LVL307
 11808 16b2 3C010000 		.4byte	.LVL309
 11809 16b6 0100     		.2byte	0x1
 11810 16b8 50       		.byte	0x50
 11811 16b9 3C010000 		.4byte	.LVL309
 11812 16bd 58010000 		.4byte	.LVL312
 11813 16c1 0400     		.2byte	0x4
 11814 16c3 F3       		.byte	0xf3
 11815 16c4 01       		.uleb128 0x1
 11816 16c5 50       		.byte	0x50
 11817 16c6 9F       		.byte	0x9f
 11818 16c7 58010000 		.4byte	.LVL312
 11819 16cb 5C010000 		.4byte	.LVL314
 11820 16cf 0100     		.2byte	0x1
 11821 16d1 50       		.byte	0x50
 11822 16d2 5C010000 		.4byte	.LVL314
 11823 16d6 08020000 		.4byte	.LVL328
 11824 16da 0400     		.2byte	0x4
 11825 16dc F3       		.byte	0xf3
 11826 16dd 01       		.uleb128 0x1
 11827 16de 50       		.byte	0x50
 11828 16df 9F       		.byte	0x9f
 11829 16e0 08020000 		.4byte	.LVL328
 11830 16e4 0C020000 		.4byte	.LVL330
 11831 16e8 0100     		.2byte	0x1
 11832 16ea 50       		.byte	0x50
 11833 16eb 0C020000 		.4byte	.LVL330
 11834 16ef 2C020000 		.4byte	.LVL333
 11835 16f3 0400     		.2byte	0x4
 11836 16f5 F3       		.byte	0xf3
 11837 16f6 01       		.uleb128 0x1
 11838 16f7 50       		.byte	0x50
 11839 16f8 9F       		.byte	0x9f
 11840 16f9 2C020000 		.4byte	.LVL333
 11841 16fd 30020000 		.4byte	.LVL335
 11842 1701 0100     		.2byte	0x1
 11843 1703 50       		.byte	0x50
 11844 1704 30020000 		.4byte	.LVL335
 11845 1708 4A020000 		.4byte	.LVL338
 11846 170c 0400     		.2byte	0x4
 11847 170e F3       		.byte	0xf3
 11848 170f 01       		.uleb128 0x1
 11849 1710 50       		.byte	0x50
 11850 1711 9F       		.byte	0x9f
 11851 1712 4A020000 		.4byte	.LVL338
 11852 1716 4E020000 		.4byte	.LVL340
 11853 171a 0100     		.2byte	0x1
 11854 171c 50       		.byte	0x50
 11855 171d 4E020000 		.4byte	.LVL340
 11856 1721 68020000 		.4byte	.LVL342
 11857 1725 0400     		.2byte	0x4
 11858 1727 F3       		.byte	0xf3
ARM GAS  C:\Users\chemi\AppData\Local\Temp\cc0tO343.s 			page 241


 11859 1728 01       		.uleb128 0x1
 11860 1729 50       		.byte	0x50
 11861 172a 9F       		.byte	0x9f
 11862 172b 68020000 		.4byte	.LVL342
 11863 172f 6C020000 		.4byte	.LVL344
 11864 1733 0100     		.2byte	0x1
 11865 1735 50       		.byte	0x50
 11866 1736 6C020000 		.4byte	.LVL344
 11867 173a 88020000 		.4byte	.LVL347
 11868 173e 0400     		.2byte	0x4
 11869 1740 F3       		.byte	0xf3
 11870 1741 01       		.uleb128 0x1
 11871 1742 50       		.byte	0x50
 11872 1743 9F       		.byte	0x9f
 11873 1744 88020000 		.4byte	.LVL347
 11874 1748 8C020000 		.4byte	.LVL349
 11875 174c 0100     		.2byte	0x1
 11876 174e 50       		.byte	0x50
 11877 174f 8C020000 		.4byte	.LVL349
 11878 1753 AE020000 		.4byte	.LVL351
 11879 1757 0400     		.2byte	0x4
 11880 1759 F3       		.byte	0xf3
 11881 175a 01       		.uleb128 0x1
 11882 175b 50       		.byte	0x50
 11883 175c 9F       		.byte	0x9f
 11884 175d AE020000 		.4byte	.LVL351
 11885 1761 B2020000 		.4byte	.LVL353
 11886 1765 0100     		.2byte	0x1
 11887 1767 50       		.byte	0x50
 11888 1768 B2020000 		.4byte	.LVL353
 11889 176c 14030000 		.4byte	.LVL356
 11890 1770 0400     		.2byte	0x4
 11891 1772 F3       		.byte	0xf3
 11892 1773 01       		.uleb128 0x1
 11893 1774 50       		.byte	0x50
 11894 1775 9F       		.byte	0x9f
 11895 1776 14030000 		.4byte	.LVL356
 11896 177a 18030000 		.4byte	.LVL358
 11897 177e 0100     		.2byte	0x1
 11898 1780 50       		.byte	0x50
 11899 1781 18030000 		.4byte	.LVL358
 11900 1785 A8030000 		.4byte	.LVL371
 11901 1789 0400     		.2byte	0x4
 11902 178b F3       		.byte	0xf3
 11903 178c 01       		.uleb128 0x1
 11904 178d 50       		.byte	0x50
 11905 178e 9F       		.byte	0x9f
 11906 178f A8030000 		.4byte	.LVL371
 11907 1793 AC030000 		.4byte	.LVL373
 11908 1797 0100     		.2byte	0x1
 11909 1799 50       		.byte	0x50
 11910 179a AC030000 		.4byte	.LVL373
 11911 179e 4C040000 		.4byte	.LVL385
 11912 17a2 0400     		.2byte	0x4
 11913 17a4 F3       		.byte	0xf3
 11914 17a5 01       		.uleb128 0x1
 11915 17a6 50       		.byte	0x50
ARM GAS  C:\Users\chemi\AppData\Local\Temp\cc0tO343.s 			page 242


 11916 17a7 9F       		.byte	0x9f
 11917 17a8 4C040000 		.4byte	.LVL385
 11918 17ac 4E040000 		.4byte	.LVL386
 11919 17b0 0100     		.2byte	0x1
 11920 17b2 50       		.byte	0x50
 11921 17b3 4E040000 		.4byte	.LVL386
 11922 17b7 54040000 		.4byte	.LVL388
 11923 17bb 0400     		.2byte	0x4
 11924 17bd F3       		.byte	0xf3
 11925 17be 01       		.uleb128 0x1
 11926 17bf 50       		.byte	0x50
 11927 17c0 9F       		.byte	0x9f
 11928 17c1 54040000 		.4byte	.LVL388
 11929 17c5 58040000 		.4byte	.LVL390
 11930 17c9 0100     		.2byte	0x1
 11931 17cb 50       		.byte	0x50
 11932 17cc 58040000 		.4byte	.LVL390
 11933 17d0 F2040000 		.4byte	.LVL397
 11934 17d4 0400     		.2byte	0x4
 11935 17d6 F3       		.byte	0xf3
 11936 17d7 01       		.uleb128 0x1
 11937 17d8 50       		.byte	0x50
 11938 17d9 9F       		.byte	0x9f
 11939 17da F2040000 		.4byte	.LVL397
 11940 17de F8040000 		.4byte	.LVL399
 11941 17e2 0100     		.2byte	0x1
 11942 17e4 50       		.byte	0x50
 11943 17e5 F8040000 		.4byte	.LVL399
 11944 17e9 FC040000 		.4byte	.LVL400
 11945 17ed 0400     		.2byte	0x4
 11946 17ef F3       		.byte	0xf3
 11947 17f0 01       		.uleb128 0x1
 11948 17f1 50       		.byte	0x50
 11949 17f2 9F       		.byte	0x9f
 11950 17f3 00000000 		.4byte	0
 11951 17f7 00000000 		.4byte	0
 11952              	.LLST88:
 11953 17fb 08010000 		.4byte	.LVL304
 11954 17ff 10010000 		.4byte	.LVL305
 11955 1803 0100     		.2byte	0x1
 11956 1805 50       		.byte	0x50
 11957 1806 00000000 		.4byte	0
 11958 180a 00000000 		.4byte	0
 11959              	.LLST89:
 11960 180e 98010000 		.4byte	.LVL317
 11961 1812 AA010000 		.4byte	.LVL322
 11962 1816 0300     		.2byte	0x3
 11963 1818 09       		.byte	0x9
 11964 1819 FF       		.byte	0xff
 11965 181a 9F       		.byte	0x9f
 11966 181b 00000000 		.4byte	0
 11967 181f 00000000 		.4byte	0
 11968              	.LLST90:
 11969 1823 98010000 		.4byte	.LVL317
 11970 1827 9A010000 		.4byte	.LVL318
 11971 182b 0600     		.2byte	0x6
 11972 182d 74       		.byte	0x74
ARM GAS  C:\Users\chemi\AppData\Local\Temp\cc0tO343.s 			page 243


 11973 182e 08       		.sleb128 8
 11974 182f 06       		.byte	0x6
 11975 1830 31       		.byte	0x31
 11976 1831 1C       		.byte	0x1c
 11977 1832 9F       		.byte	0x9f
 11978 1833 00000000 		.4byte	0
 11979 1837 00000000 		.4byte	0
 11980              	.LLST91:
 11981 183b 98010000 		.4byte	.LVL317
 11982 183f AA010000 		.4byte	.LVL322
 11983 1843 0100     		.2byte	0x1
 11984 1845 52       		.byte	0x52
 11985 1846 00000000 		.4byte	0
 11986 184a 00000000 		.4byte	0
 11987              	.LLST95:
 11988 184e 98010000 		.4byte	.LVL317
 11989 1852 9A010000 		.4byte	.LVL318
 11990 1856 0600     		.2byte	0x6
 11991 1858 74       		.byte	0x74
 11992 1859 08       		.sleb128 8
 11993 185a 06       		.byte	0x6
 11994 185b 31       		.byte	0x31
 11995 185c 1C       		.byte	0x1c
 11996 185d 9F       		.byte	0x9f
 11997 185e 9C010000 		.4byte	.LVL319
 11998 1862 A6010000 		.4byte	.LVL320
 11999 1866 0100     		.2byte	0x1
 12000 1868 50       		.byte	0x50
 12001 1869 A8010000 		.4byte	.LVL321
 12002 186d AA010000 		.4byte	.LVL322
 12003 1871 0100     		.2byte	0x1
 12004 1873 50       		.byte	0x50
 12005 1874 00000000 		.4byte	0
 12006 1878 00000000 		.4byte	0
 12007              	.LLST96:
 12008 187c 60030000 		.4byte	.LVL363
 12009 1880 70030000 		.4byte	.LVL364
 12010 1884 0800     		.2byte	0x8
 12011 1886 70       		.byte	0x70
 12012 1887 00       		.sleb128 0
 12013 1888 30       		.byte	0x30
 12014 1889 2E       		.byte	0x2e
 12015 188a 08       		.byte	0x8
 12016 188b FF       		.byte	0xff
 12017 188c 1A       		.byte	0x1a
 12018 188d 9F       		.byte	0x9f
 12019 188e 70030000 		.4byte	.LVL364
 12020 1892 84030000 		.4byte	.LVL367
 12021 1896 0800     		.2byte	0x8
 12022 1898 76       		.byte	0x76
 12023 1899 00       		.sleb128 0
 12024 189a 30       		.byte	0x30
 12025 189b 2E       		.byte	0x2e
 12026 189c 08       		.byte	0x8
 12027 189d FF       		.byte	0xff
 12028 189e 1A       		.byte	0x1a
 12029 189f 9F       		.byte	0x9f
ARM GAS  C:\Users\chemi\AppData\Local\Temp\cc0tO343.s 			page 244


 12030 18a0 84030000 		.4byte	.LVL367
 12031 18a4 8E030000 		.4byte	.LVL368
 12032 18a8 0800     		.2byte	0x8
 12033 18aa 70       		.byte	0x70
 12034 18ab 00       		.sleb128 0
 12035 18ac 30       		.byte	0x30
 12036 18ad 2E       		.byte	0x2e
 12037 18ae 08       		.byte	0x8
 12038 18af FF       		.byte	0xff
 12039 18b0 1A       		.byte	0x1a
 12040 18b1 9F       		.byte	0x9f
 12041 18b2 8E030000 		.4byte	.LVL368
 12042 18b6 A8030000 		.4byte	.LVL371
 12043 18ba 0800     		.2byte	0x8
 12044 18bc 76       		.byte	0x76
 12045 18bd 00       		.sleb128 0
 12046 18be 30       		.byte	0x30
 12047 18bf 2E       		.byte	0x2e
 12048 18c0 08       		.byte	0x8
 12049 18c1 FF       		.byte	0xff
 12050 18c2 1A       		.byte	0x1a
 12051 18c3 9F       		.byte	0x9f
 12052 18c4 00000000 		.4byte	0
 12053 18c8 00000000 		.4byte	0
 12054              	.LLST97:
 12055 18cc 28040000 		.4byte	.LVL381
 12056 18d0 30040000 		.4byte	.LVL382
 12057 18d4 0800     		.2byte	0x8
 12058 18d6 70       		.byte	0x70
 12059 18d7 00       		.sleb128 0
 12060 18d8 30       		.byte	0x30
 12061 18d9 2E       		.byte	0x2e
 12062 18da 08       		.byte	0x8
 12063 18db FF       		.byte	0xff
 12064 18dc 1A       		.byte	0x1a
 12065 18dd 9F       		.byte	0x9f
 12066 18de 30040000 		.4byte	.LVL382
 12067 18e2 4C040000 		.4byte	.LVL385
 12068 18e6 0800     		.2byte	0x8
 12069 18e8 77       		.byte	0x77
 12070 18e9 00       		.sleb128 0
 12071 18ea 30       		.byte	0x30
 12072 18eb 2E       		.byte	0x2e
 12073 18ec 08       		.byte	0x8
 12074 18ed FF       		.byte	0xff
 12075 18ee 1A       		.byte	0x1a
 12076 18ef 9F       		.byte	0x9f
 12077 18f0 00000000 		.4byte	0
 12078 18f4 00000000 		.4byte	0
 12079              	.LLST98:
 12080 18f8 00000000 		.4byte	.LVL401
 12081 18fc 12000000 		.4byte	.LVL402
 12082 1900 0100     		.2byte	0x1
 12083 1902 50       		.byte	0x50
 12084 1903 12000000 		.4byte	.LVL402
 12085 1907 64010000 		.4byte	.LFE72
 12086 190b 0400     		.2byte	0x4
ARM GAS  C:\Users\chemi\AppData\Local\Temp\cc0tO343.s 			page 245


 12087 190d F3       		.byte	0xf3
 12088 190e 01       		.uleb128 0x1
 12089 190f 50       		.byte	0x50
 12090 1910 9F       		.byte	0x9f
 12091 1911 00000000 		.4byte	0
 12092 1915 00000000 		.4byte	0
 12093              	.LLST99:
 12094 1919 00000000 		.4byte	.LVL401
 12095 191d 12000000 		.4byte	.LVL402
 12096 1921 0100     		.2byte	0x1
 12097 1923 51       		.byte	0x51
 12098 1924 12000000 		.4byte	.LVL402
 12099 1928 64010000 		.4byte	.LFE72
 12100 192c 0400     		.2byte	0x4
 12101 192e F3       		.byte	0xf3
 12102 192f 01       		.uleb128 0x1
 12103 1930 51       		.byte	0x51
 12104 1931 9F       		.byte	0x9f
 12105 1932 00000000 		.4byte	0
 12106 1936 00000000 		.4byte	0
 12107              	.LLST100:
 12108 193a 00000000 		.4byte	.LVL401
 12109 193e 12000000 		.4byte	.LVL402
 12110 1942 0100     		.2byte	0x1
 12111 1944 52       		.byte	0x52
 12112 1945 12000000 		.4byte	.LVL402
 12113 1949 4E000000 		.4byte	.LVL403
 12114 194d 0100     		.2byte	0x1
 12115 194f 54       		.byte	0x54
 12116 1950 4E000000 		.4byte	.LVL403
 12117 1954 54000000 		.4byte	.LVL404
 12118 1958 0100     		.2byte	0x1
 12119 195a 51       		.byte	0x51
 12120 195b 54000000 		.4byte	.LVL404
 12121 195f 5A000000 		.4byte	.LVL405
 12122 1963 0100     		.2byte	0x1
 12123 1965 54       		.byte	0x54
 12124 1966 5A000000 		.4byte	.LVL405
 12125 196a 5F000000 		.4byte	.LVL406-1
 12126 196e 0100     		.2byte	0x1
 12127 1970 51       		.byte	0x51
 12128 1971 5F000000 		.4byte	.LVL406-1
 12129 1975 FC000000 		.4byte	.LVL408
 12130 1979 0100     		.2byte	0x1
 12131 197b 54       		.byte	0x54
 12132 197c FC000000 		.4byte	.LVL408
 12133 1980 21010000 		.4byte	.LVL409-1
 12134 1984 0100     		.2byte	0x1
 12135 1986 51       		.byte	0x51
 12136 1987 21010000 		.4byte	.LVL409-1
 12137 198b 24010000 		.4byte	.LVL410
 12138 198f 0100     		.2byte	0x1
 12139 1991 54       		.byte	0x54
 12140 1992 24010000 		.4byte	.LVL410
 12141 1996 2A010000 		.4byte	.LVL411
 12142 199a 0100     		.2byte	0x1
 12143 199c 51       		.byte	0x51
ARM GAS  C:\Users\chemi\AppData\Local\Temp\cc0tO343.s 			page 246


 12144 199d 2A010000 		.4byte	.LVL411
 12145 19a1 54010000 		.4byte	.LVL412
 12146 19a5 0100     		.2byte	0x1
 12147 19a7 54       		.byte	0x54
 12148 19a8 54010000 		.4byte	.LVL412
 12149 19ac 57010000 		.4byte	.LVL413-1
 12150 19b0 0100     		.2byte	0x1
 12151 19b2 51       		.byte	0x51
 12152 19b3 57010000 		.4byte	.LVL413-1
 12153 19b7 64010000 		.4byte	.LFE72
 12154 19bb 0100     		.2byte	0x1
 12155 19bd 54       		.byte	0x54
 12156 19be 00000000 		.4byte	0
 12157 19c2 00000000 		.4byte	0
 12158              	.LLST101:
 12159 19c6 00000000 		.4byte	.LVL401
 12160 19ca 12000000 		.4byte	.LVL402
 12161 19ce 0200     		.2byte	0x2
 12162 19d0 30       		.byte	0x30
 12163 19d1 9F       		.byte	0x9f
 12164 19d2 12000000 		.4byte	.LVL402
 12165 19d6 58010000 		.4byte	.LVL413
 12166 19da 0700     		.2byte	0x7
 12167 19dc 75       		.byte	0x75
 12168 19dd 00       		.sleb128 0
 12169 19de F3       		.byte	0xf3
 12170 19df 01       		.uleb128 0x1
 12171 19e0 50       		.byte	0x50
 12172 19e1 1C       		.byte	0x1c
 12173 19e2 9F       		.byte	0x9f
 12174 19e3 58010000 		.4byte	.LVL413
 12175 19e7 5A010000 		.4byte	.LVL414
 12176 19eb 0900     		.2byte	0x9
 12177 19ed 75       		.byte	0x75
 12178 19ee 00       		.sleb128 0
 12179 19ef F3       		.byte	0xf3
 12180 19f0 01       		.uleb128 0x1
 12181 19f1 50       		.byte	0x50
 12182 19f2 1C       		.byte	0x1c
 12183 19f3 23       		.byte	0x23
 12184 19f4 01       		.uleb128 0x1
 12185 19f5 9F       		.byte	0x9f
 12186 19f6 5C010000 		.4byte	.LVL415
 12187 19fa 64010000 		.4byte	.LFE72
 12188 19fe 0700     		.2byte	0x7
 12189 1a00 75       		.byte	0x75
 12190 1a01 00       		.sleb128 0
 12191 1a02 F3       		.byte	0xf3
 12192 1a03 01       		.uleb128 0x1
 12193 1a04 50       		.byte	0x50
 12194 1a05 1C       		.byte	0x1c
 12195 1a06 9F       		.byte	0x9f
 12196 1a07 00000000 		.4byte	0
 12197 1a0b 00000000 		.4byte	0
 12198              	.LLST102:
 12199 1a0f 00000000 		.4byte	.LVL416
 12200 1a13 1F000000 		.4byte	.LVL419-1
ARM GAS  C:\Users\chemi\AppData\Local\Temp\cc0tO343.s 			page 247


 12201 1a17 0100     		.2byte	0x1
 12202 1a19 50       		.byte	0x50
 12203 1a1a 1F000000 		.4byte	.LVL419-1
 12204 1a1e C4000000 		.4byte	.LVL438
 12205 1a22 0100     		.2byte	0x1
 12206 1a24 54       		.byte	0x54
 12207 1a25 C4000000 		.4byte	.LVL438
 12208 1a29 C7000000 		.4byte	.LVL439-1
 12209 1a2d 0100     		.2byte	0x1
 12210 1a2f 50       		.byte	0x50
 12211 1a30 C7000000 		.4byte	.LVL439-1
 12212 1a34 E0000000 		.4byte	.LFE91
 12213 1a38 0400     		.2byte	0x4
 12214 1a3a F3       		.byte	0xf3
 12215 1a3b 01       		.uleb128 0x1
 12216 1a3c 50       		.byte	0x50
 12217 1a3d 9F       		.byte	0x9f
 12218 1a3e 00000000 		.4byte	0
 12219 1a42 00000000 		.4byte	0
 12220              	.LLST103:
 12221 1a46 00000000 		.4byte	.LVL416
 12222 1a4a 16000000 		.4byte	.LVL418
 12223 1a4e 0100     		.2byte	0x1
 12224 1a50 51       		.byte	0x51
 12225 1a51 16000000 		.4byte	.LVL418
 12226 1a55 E0000000 		.4byte	.LFE91
 12227 1a59 0400     		.2byte	0x4
 12228 1a5b F3       		.byte	0xf3
 12229 1a5c 01       		.uleb128 0x1
 12230 1a5d 51       		.byte	0x51
 12231 1a5e 9F       		.byte	0x9f
 12232 1a5f 00000000 		.4byte	0
 12233 1a63 00000000 		.4byte	0
 12234              	.LLST104:
 12235 1a67 00000000 		.4byte	.LVL416
 12236 1a6b 14000000 		.4byte	.LVL417
 12237 1a6f 0100     		.2byte	0x1
 12238 1a71 52       		.byte	0x52
 12239 1a72 14000000 		.4byte	.LVL417
 12240 1a76 E0000000 		.4byte	.LFE91
 12241 1a7a 0400     		.2byte	0x4
 12242 1a7c F3       		.byte	0xf3
 12243 1a7d 01       		.uleb128 0x1
 12244 1a7e 52       		.byte	0x52
 12245 1a7f 9F       		.byte	0x9f
 12246 1a80 00000000 		.4byte	0
 12247 1a84 00000000 		.4byte	0
 12248              	.LLST105:
 12249 1a88 00000000 		.4byte	.LVL416
 12250 1a8c 1F000000 		.4byte	.LVL419-1
 12251 1a90 0100     		.2byte	0x1
 12252 1a92 53       		.byte	0x53
 12253 1a93 1F000000 		.4byte	.LVL419-1
 12254 1a97 E0000000 		.4byte	.LFE91
 12255 1a9b 0400     		.2byte	0x4
 12256 1a9d F3       		.byte	0xf3
 12257 1a9e 01       		.uleb128 0x1
ARM GAS  C:\Users\chemi\AppData\Local\Temp\cc0tO343.s 			page 248


 12258 1a9f 53       		.byte	0x53
 12259 1aa0 9F       		.byte	0x9f
 12260 1aa1 00000000 		.4byte	0
 12261 1aa5 00000000 		.4byte	0
 12262              	.LLST106:
 12263 1aa9 00000000 		.4byte	.LVL416
 12264 1aad C4000000 		.4byte	.LVL438
 12265 1ab1 0200     		.2byte	0x2
 12266 1ab3 91       		.byte	0x91
 12267 1ab4 00       		.sleb128 0
 12268 1ab5 C4000000 		.4byte	.LVL438
 12269 1ab9 E0000000 		.4byte	.LFE91
 12270 1abd 0200     		.2byte	0x2
 12271 1abf 7D       		.byte	0x7d
 12272 1ac0 00       		.sleb128 0
 12273 1ac1 00000000 		.4byte	0
 12274 1ac5 00000000 		.4byte	0
 12275              	.LLST107:
 12276 1ac9 32000000 		.4byte	.LVL421
 12277 1acd 38000000 		.4byte	.LVL422
 12278 1ad1 0200     		.2byte	0x2
 12279 1ad3 31       		.byte	0x31
 12280 1ad4 9F       		.byte	0x9f
 12281 1ad5 38000000 		.4byte	.LVL422
 12282 1ad9 4E000000 		.4byte	.LVL425
 12283 1add 0100     		.2byte	0x1
 12284 1adf 57       		.byte	0x57
 12285 1ae0 4E000000 		.4byte	.LVL425
 12286 1ae4 58000000 		.4byte	.LVL426
 12287 1ae8 0200     		.2byte	0x2
 12288 1aea 31       		.byte	0x31
 12289 1aeb 9F       		.byte	0x9f
 12290 1aec 58000000 		.4byte	.LVL426
 12291 1af0 A0000000 		.4byte	.LVL433
 12292 1af4 0100     		.2byte	0x1
 12293 1af6 57       		.byte	0x57
 12294 1af7 A0000000 		.4byte	.LVL433
 12295 1afb A2000000 		.4byte	.LVL434
 12296 1aff 0200     		.2byte	0x2
 12297 1b01 31       		.byte	0x31
 12298 1b02 9F       		.byte	0x9f
 12299 1b03 A2000000 		.4byte	.LVL434
 12300 1b07 C4000000 		.4byte	.LVL438
 12301 1b0b 0100     		.2byte	0x1
 12302 1b0d 56       		.byte	0x56
 12303 1b0e 00000000 		.4byte	0
 12304 1b12 00000000 		.4byte	0
 12305              	.LLST108:
 12306 1b16 00000000 		.4byte	.LVL440
 12307 1b1a 1C000000 		.4byte	.LVL441
 12308 1b1e 0100     		.2byte	0x1
 12309 1b20 50       		.byte	0x50
 12310 1b21 1C000000 		.4byte	.LVL441
 12311 1b25 1E000000 		.4byte	.LVL442
 12312 1b29 0400     		.2byte	0x4
 12313 1b2b F3       		.byte	0xf3
 12314 1b2c 01       		.uleb128 0x1
ARM GAS  C:\Users\chemi\AppData\Local\Temp\cc0tO343.s 			page 249


 12315 1b2d 50       		.byte	0x50
 12316 1b2e 9F       		.byte	0x9f
 12317 1b2f 1E000000 		.4byte	.LVL442
 12318 1b33 28000000 		.4byte	.LVL443
 12319 1b37 0100     		.2byte	0x1
 12320 1b39 50       		.byte	0x50
 12321 1b3a 28000000 		.4byte	.LVL443
 12322 1b3e 2A000000 		.4byte	.LVL444
 12323 1b42 0400     		.2byte	0x4
 12324 1b44 F3       		.byte	0xf3
 12325 1b45 01       		.uleb128 0x1
 12326 1b46 50       		.byte	0x50
 12327 1b47 9F       		.byte	0x9f
 12328 1b48 2A000000 		.4byte	.LVL444
 12329 1b4c 3A000000 		.4byte	.LVL445
 12330 1b50 0100     		.2byte	0x1
 12331 1b52 50       		.byte	0x50
 12332 1b53 3A000000 		.4byte	.LVL445
 12333 1b57 3C000000 		.4byte	.LVL446
 12334 1b5b 0400     		.2byte	0x4
 12335 1b5d F3       		.byte	0xf3
 12336 1b5e 01       		.uleb128 0x1
 12337 1b5f 50       		.byte	0x50
 12338 1b60 9F       		.byte	0x9f
 12339 1b61 3C000000 		.4byte	.LVL446
 12340 1b65 44000000 		.4byte	.LVL447
 12341 1b69 0100     		.2byte	0x1
 12342 1b6b 50       		.byte	0x50
 12343 1b6c 44000000 		.4byte	.LVL447
 12344 1b70 46000000 		.4byte	.LVL448
 12345 1b74 0400     		.2byte	0x4
 12346 1b76 F3       		.byte	0xf3
 12347 1b77 01       		.uleb128 0x1
 12348 1b78 50       		.byte	0x50
 12349 1b79 9F       		.byte	0x9f
 12350 1b7a 46000000 		.4byte	.LVL448
 12351 1b7e 5C000000 		.4byte	.LVL449
 12352 1b82 0100     		.2byte	0x1
 12353 1b84 50       		.byte	0x50
 12354 1b85 5C000000 		.4byte	.LVL449
 12355 1b89 5E000000 		.4byte	.LVL450
 12356 1b8d 0400     		.2byte	0x4
 12357 1b8f F3       		.byte	0xf3
 12358 1b90 01       		.uleb128 0x1
 12359 1b91 50       		.byte	0x50
 12360 1b92 9F       		.byte	0x9f
 12361 1b93 5E000000 		.4byte	.LVL450
 12362 1b97 68000000 		.4byte	.LVL451
 12363 1b9b 0100     		.2byte	0x1
 12364 1b9d 50       		.byte	0x50
 12365 1b9e 68000000 		.4byte	.LVL451
 12366 1ba2 6A000000 		.4byte	.LVL452
 12367 1ba6 0400     		.2byte	0x4
 12368 1ba8 F3       		.byte	0xf3
 12369 1ba9 01       		.uleb128 0x1
 12370 1baa 50       		.byte	0x50
 12371 1bab 9F       		.byte	0x9f
ARM GAS  C:\Users\chemi\AppData\Local\Temp\cc0tO343.s 			page 250


 12372 1bac 6A000000 		.4byte	.LVL452
 12373 1bb0 7A000000 		.4byte	.LVL453
 12374 1bb4 0100     		.2byte	0x1
 12375 1bb6 50       		.byte	0x50
 12376 1bb7 7A000000 		.4byte	.LVL453
 12377 1bbb 7C000000 		.4byte	.LVL454
 12378 1bbf 0400     		.2byte	0x4
 12379 1bc1 F3       		.byte	0xf3
 12380 1bc2 01       		.uleb128 0x1
 12381 1bc3 50       		.byte	0x50
 12382 1bc4 9F       		.byte	0x9f
 12383 1bc5 7C000000 		.4byte	.LVL454
 12384 1bc9 96000000 		.4byte	.LVL455
 12385 1bcd 0100     		.2byte	0x1
 12386 1bcf 50       		.byte	0x50
 12387 1bd0 96000000 		.4byte	.LVL455
 12388 1bd4 98000000 		.4byte	.LVL456
 12389 1bd8 0400     		.2byte	0x4
 12390 1bda F3       		.byte	0xf3
 12391 1bdb 01       		.uleb128 0x1
 12392 1bdc 50       		.byte	0x50
 12393 1bdd 9F       		.byte	0x9f
 12394 1bde 98000000 		.4byte	.LVL456
 12395 1be2 9A000000 		.4byte	.LVL457
 12396 1be6 0100     		.2byte	0x1
 12397 1be8 50       		.byte	0x50
 12398 1be9 9A000000 		.4byte	.LVL457
 12399 1bed 9C000000 		.4byte	.LVL458
 12400 1bf1 0400     		.2byte	0x4
 12401 1bf3 F3       		.byte	0xf3
 12402 1bf4 01       		.uleb128 0x1
 12403 1bf5 50       		.byte	0x50
 12404 1bf6 9F       		.byte	0x9f
 12405 1bf7 9C000000 		.4byte	.LVL458
 12406 1bfb 9E000000 		.4byte	.LVL459
 12407 1bff 0100     		.2byte	0x1
 12408 1c01 50       		.byte	0x50
 12409 1c02 9E000000 		.4byte	.LVL459
 12410 1c06 A0000000 		.4byte	.LVL460
 12411 1c0a 0400     		.2byte	0x4
 12412 1c0c F3       		.byte	0xf3
 12413 1c0d 01       		.uleb128 0x1
 12414 1c0e 50       		.byte	0x50
 12415 1c0f 9F       		.byte	0x9f
 12416 1c10 A0000000 		.4byte	.LVL460
 12417 1c14 B2000000 		.4byte	.LVL462
 12418 1c18 0100     		.2byte	0x1
 12419 1c1a 50       		.byte	0x50
 12420 1c1b B2000000 		.4byte	.LVL462
 12421 1c1f B4000000 		.4byte	.LVL463
 12422 1c23 0400     		.2byte	0x4
 12423 1c25 F3       		.byte	0xf3
 12424 1c26 01       		.uleb128 0x1
 12425 1c27 50       		.byte	0x50
 12426 1c28 9F       		.byte	0x9f
 12427 1c29 B4000000 		.4byte	.LVL463
 12428 1c2d C6000000 		.4byte	.LVL465
ARM GAS  C:\Users\chemi\AppData\Local\Temp\cc0tO343.s 			page 251


 12429 1c31 0100     		.2byte	0x1
 12430 1c33 50       		.byte	0x50
 12431 1c34 C6000000 		.4byte	.LVL465
 12432 1c38 C8000000 		.4byte	.LVL466
 12433 1c3c 0400     		.2byte	0x4
 12434 1c3e F3       		.byte	0xf3
 12435 1c3f 01       		.uleb128 0x1
 12436 1c40 50       		.byte	0x50
 12437 1c41 9F       		.byte	0x9f
 12438 1c42 C8000000 		.4byte	.LVL466
 12439 1c46 CA000000 		.4byte	.LVL467
 12440 1c4a 0100     		.2byte	0x1
 12441 1c4c 50       		.byte	0x50
 12442 1c4d CA000000 		.4byte	.LVL467
 12443 1c51 CC000000 		.4byte	.LVL468
 12444 1c55 0400     		.2byte	0x4
 12445 1c57 F3       		.byte	0xf3
 12446 1c58 01       		.uleb128 0x1
 12447 1c59 50       		.byte	0x50
 12448 1c5a 9F       		.byte	0x9f
 12449 1c5b CC000000 		.4byte	.LVL468
 12450 1c5f CE000000 		.4byte	.LVL469
 12451 1c63 0100     		.2byte	0x1
 12452 1c65 50       		.byte	0x50
 12453 1c66 CE000000 		.4byte	.LVL469
 12454 1c6a D0000000 		.4byte	.LVL470
 12455 1c6e 0400     		.2byte	0x4
 12456 1c70 F3       		.byte	0xf3
 12457 1c71 01       		.uleb128 0x1
 12458 1c72 50       		.byte	0x50
 12459 1c73 9F       		.byte	0x9f
 12460 1c74 D0000000 		.4byte	.LVL470
 12461 1c78 D2000000 		.4byte	.LVL471
 12462 1c7c 0100     		.2byte	0x1
 12463 1c7e 50       		.byte	0x50
 12464 1c7f D2000000 		.4byte	.LVL471
 12465 1c83 D4000000 		.4byte	.LVL472
 12466 1c87 0400     		.2byte	0x4
 12467 1c89 F3       		.byte	0xf3
 12468 1c8a 01       		.uleb128 0x1
 12469 1c8b 50       		.byte	0x50
 12470 1c8c 9F       		.byte	0x9f
 12471 1c8d D4000000 		.4byte	.LVL472
 12472 1c91 D6000000 		.4byte	.LVL473
 12473 1c95 0100     		.2byte	0x1
 12474 1c97 50       		.byte	0x50
 12475 1c98 D6000000 		.4byte	.LVL473
 12476 1c9c D8000000 		.4byte	.LVL474
 12477 1ca0 0400     		.2byte	0x4
 12478 1ca2 F3       		.byte	0xf3
 12479 1ca3 01       		.uleb128 0x1
 12480 1ca4 50       		.byte	0x50
 12481 1ca5 9F       		.byte	0x9f
 12482 1ca6 D8000000 		.4byte	.LVL474
 12483 1caa DA000000 		.4byte	.LVL475
 12484 1cae 0100     		.2byte	0x1
 12485 1cb0 50       		.byte	0x50
ARM GAS  C:\Users\chemi\AppData\Local\Temp\cc0tO343.s 			page 252


 12486 1cb1 DA000000 		.4byte	.LVL475
 12487 1cb5 DC000000 		.4byte	.LVL476
 12488 1cb9 0400     		.2byte	0x4
 12489 1cbb F3       		.byte	0xf3
 12490 1cbc 01       		.uleb128 0x1
 12491 1cbd 50       		.byte	0x50
 12492 1cbe 9F       		.byte	0x9f
 12493 1cbf DC000000 		.4byte	.LVL476
 12494 1cc3 DE000000 		.4byte	.LVL477
 12495 1cc7 0100     		.2byte	0x1
 12496 1cc9 50       		.byte	0x50
 12497 1cca DE000000 		.4byte	.LVL477
 12498 1cce E0000000 		.4byte	.LVL478
 12499 1cd2 0400     		.2byte	0x4
 12500 1cd4 F3       		.byte	0xf3
 12501 1cd5 01       		.uleb128 0x1
 12502 1cd6 50       		.byte	0x50
 12503 1cd7 9F       		.byte	0x9f
 12504 1cd8 E0000000 		.4byte	.LVL478
 12505 1cdc E2000000 		.4byte	.LVL479
 12506 1ce0 0100     		.2byte	0x1
 12507 1ce2 50       		.byte	0x50
 12508 1ce3 E2000000 		.4byte	.LVL479
 12509 1ce7 E4000000 		.4byte	.LVL480
 12510 1ceb 0400     		.2byte	0x4
 12511 1ced F3       		.byte	0xf3
 12512 1cee 01       		.uleb128 0x1
 12513 1cef 50       		.byte	0x50
 12514 1cf0 9F       		.byte	0x9f
 12515 1cf1 E4000000 		.4byte	.LVL480
 12516 1cf5 E6000000 		.4byte	.LVL481
 12517 1cf9 0100     		.2byte	0x1
 12518 1cfb 50       		.byte	0x50
 12519 1cfc E6000000 		.4byte	.LVL481
 12520 1d00 E8000000 		.4byte	.LVL482
 12521 1d04 0400     		.2byte	0x4
 12522 1d06 F3       		.byte	0xf3
 12523 1d07 01       		.uleb128 0x1
 12524 1d08 50       		.byte	0x50
 12525 1d09 9F       		.byte	0x9f
 12526 1d0a E8000000 		.4byte	.LVL482
 12527 1d0e EA000000 		.4byte	.LVL483
 12528 1d12 0100     		.2byte	0x1
 12529 1d14 50       		.byte	0x50
 12530 1d15 EA000000 		.4byte	.LVL483
 12531 1d19 EC000000 		.4byte	.LVL484
 12532 1d1d 0400     		.2byte	0x4
 12533 1d1f F3       		.byte	0xf3
 12534 1d20 01       		.uleb128 0x1
 12535 1d21 50       		.byte	0x50
 12536 1d22 9F       		.byte	0x9f
 12537 1d23 EC000000 		.4byte	.LVL484
 12538 1d27 EE000000 		.4byte	.LVL485
 12539 1d2b 0100     		.2byte	0x1
 12540 1d2d 50       		.byte	0x50
 12541 1d2e EE000000 		.4byte	.LVL485
 12542 1d32 F0000000 		.4byte	.LVL486
ARM GAS  C:\Users\chemi\AppData\Local\Temp\cc0tO343.s 			page 253


 12543 1d36 0400     		.2byte	0x4
 12544 1d38 F3       		.byte	0xf3
 12545 1d39 01       		.uleb128 0x1
 12546 1d3a 50       		.byte	0x50
 12547 1d3b 9F       		.byte	0x9f
 12548 1d3c F0000000 		.4byte	.LVL486
 12549 1d40 F2000000 		.4byte	.LVL487
 12550 1d44 0100     		.2byte	0x1
 12551 1d46 50       		.byte	0x50
 12552 1d47 F2000000 		.4byte	.LVL487
 12553 1d4b F4000000 		.4byte	.LVL488
 12554 1d4f 0400     		.2byte	0x4
 12555 1d51 F3       		.byte	0xf3
 12556 1d52 01       		.uleb128 0x1
 12557 1d53 50       		.byte	0x50
 12558 1d54 9F       		.byte	0x9f
 12559 1d55 F4000000 		.4byte	.LVL488
 12560 1d59 F6000000 		.4byte	.LVL489
 12561 1d5d 0100     		.2byte	0x1
 12562 1d5f 50       		.byte	0x50
 12563 1d60 F6000000 		.4byte	.LVL489
 12564 1d64 F8000000 		.4byte	.LVL490
 12565 1d68 0400     		.2byte	0x4
 12566 1d6a F3       		.byte	0xf3
 12567 1d6b 01       		.uleb128 0x1
 12568 1d6c 50       		.byte	0x50
 12569 1d6d 9F       		.byte	0x9f
 12570 1d6e F8000000 		.4byte	.LVL490
 12571 1d72 FA000000 		.4byte	.LVL491
 12572 1d76 0100     		.2byte	0x1
 12573 1d78 50       		.byte	0x50
 12574 1d79 FA000000 		.4byte	.LVL491
 12575 1d7d FC000000 		.4byte	.LVL492
 12576 1d81 0400     		.2byte	0x4
 12577 1d83 F3       		.byte	0xf3
 12578 1d84 01       		.uleb128 0x1
 12579 1d85 50       		.byte	0x50
 12580 1d86 9F       		.byte	0x9f
 12581 1d87 FC000000 		.4byte	.LVL492
 12582 1d8b FE000000 		.4byte	.LVL493
 12583 1d8f 0100     		.2byte	0x1
 12584 1d91 50       		.byte	0x50
 12585 1d92 FE000000 		.4byte	.LVL493
 12586 1d96 00010000 		.4byte	.LVL494
 12587 1d9a 0400     		.2byte	0x4
 12588 1d9c F3       		.byte	0xf3
 12589 1d9d 01       		.uleb128 0x1
 12590 1d9e 50       		.byte	0x50
 12591 1d9f 9F       		.byte	0x9f
 12592 1da0 00010000 		.4byte	.LVL494
 12593 1da4 02010000 		.4byte	.LVL495
 12594 1da8 0100     		.2byte	0x1
 12595 1daa 50       		.byte	0x50
 12596 1dab 02010000 		.4byte	.LVL495
 12597 1daf 04010000 		.4byte	.LVL496
 12598 1db3 0400     		.2byte	0x4
 12599 1db5 F3       		.byte	0xf3
ARM GAS  C:\Users\chemi\AppData\Local\Temp\cc0tO343.s 			page 254


 12600 1db6 01       		.uleb128 0x1
 12601 1db7 50       		.byte	0x50
 12602 1db8 9F       		.byte	0x9f
 12603 1db9 04010000 		.4byte	.LVL496
 12604 1dbd 06010000 		.4byte	.LVL497
 12605 1dc1 0100     		.2byte	0x1
 12606 1dc3 50       		.byte	0x50
 12607 1dc4 06010000 		.4byte	.LVL497
 12608 1dc8 74010000 		.4byte	.LFE94
 12609 1dcc 0400     		.2byte	0x4
 12610 1dce F3       		.byte	0xf3
 12611 1dcf 01       		.uleb128 0x1
 12612 1dd0 50       		.byte	0x50
 12613 1dd1 9F       		.byte	0x9f
 12614 1dd2 00000000 		.4byte	0
 12615 1dd6 00000000 		.4byte	0
 12616              	.LLST109:
 12617 1dda 00000000 		.4byte	.LVL440
 12618 1dde A2000000 		.4byte	.LVL461
 12619 1de2 0100     		.2byte	0x1
 12620 1de4 51       		.byte	0x51
 12621 1de5 A2000000 		.4byte	.LVL461
 12622 1de9 B4000000 		.4byte	.LVL463
 12623 1ded 0400     		.2byte	0x4
 12624 1def F3       		.byte	0xf3
 12625 1df0 01       		.uleb128 0x1
 12626 1df1 51       		.byte	0x51
 12627 1df2 9F       		.byte	0x9f
 12628 1df3 B4000000 		.4byte	.LVL463
 12629 1df7 B6000000 		.4byte	.LVL464
 12630 1dfb 0100     		.2byte	0x1
 12631 1dfd 51       		.byte	0x51
 12632 1dfe B6000000 		.4byte	.LVL464
 12633 1e02 C8000000 		.4byte	.LVL466
 12634 1e06 0400     		.2byte	0x4
 12635 1e08 F3       		.byte	0xf3
 12636 1e09 01       		.uleb128 0x1
 12637 1e0a 51       		.byte	0x51
 12638 1e0b 9F       		.byte	0x9f
 12639 1e0c C8000000 		.4byte	.LVL466
 12640 1e10 00010000 		.4byte	.LVL494
 12641 1e14 0100     		.2byte	0x1
 12642 1e16 51       		.byte	0x51
 12643 1e17 00010000 		.4byte	.LVL494
 12644 1e1b 74010000 		.4byte	.LFE94
 12645 1e1f 0400     		.2byte	0x4
 12646 1e21 F3       		.byte	0xf3
 12647 1e22 01       		.uleb128 0x1
 12648 1e23 51       		.byte	0x51
 12649 1e24 9F       		.byte	0x9f
 12650 1e25 00000000 		.4byte	0
 12651 1e29 00000000 		.4byte	0
 12652              	.LLST110:
 12653 1e2d 00000000 		.4byte	.LVL498
 12654 1e31 0A000000 		.4byte	.LVL499
 12655 1e35 0100     		.2byte	0x1
 12656 1e37 50       		.byte	0x50
ARM GAS  C:\Users\chemi\AppData\Local\Temp\cc0tO343.s 			page 255


 12657 1e38 0A000000 		.4byte	.LVL499
 12658 1e3c 14000000 		.4byte	.LFE95
 12659 1e40 0400     		.2byte	0x4
 12660 1e42 F3       		.byte	0xf3
 12661 1e43 01       		.uleb128 0x1
 12662 1e44 50       		.byte	0x50
 12663 1e45 9F       		.byte	0x9f
 12664 1e46 00000000 		.4byte	0
 12665 1e4a 00000000 		.4byte	0
 12666              	.LLST111:
 12667 1e4e 00000000 		.4byte	.LVL498
 12668 1e52 0C000000 		.4byte	.LVL500
 12669 1e56 0100     		.2byte	0x1
 12670 1e58 51       		.byte	0x51
 12671 1e59 0C000000 		.4byte	.LVL500
 12672 1e5d 14000000 		.4byte	.LFE95
 12673 1e61 0100     		.2byte	0x1
 12674 1e63 54       		.byte	0x54
 12675 1e64 00000000 		.4byte	0
 12676 1e68 00000000 		.4byte	0
 12677              	.LLST112:
 12678 1e6c 00000000 		.4byte	.LVL503
 12679 1e70 0E000000 		.4byte	.LVL505
 12680 1e74 0100     		.2byte	0x1
 12681 1e76 50       		.byte	0x50
 12682 1e77 0E000000 		.4byte	.LVL505
 12683 1e7b 5A000000 		.4byte	.LFE97
 12684 1e7f 0100     		.2byte	0x1
 12685 1e81 54       		.byte	0x54
 12686 1e82 00000000 		.4byte	0
 12687 1e86 00000000 		.4byte	0
 12688              	.LLST113:
 12689 1e8a 00000000 		.4byte	.LVL503
 12690 1e8e 0E000000 		.4byte	.LVL505
 12691 1e92 0200     		.2byte	0x2
 12692 1e94 30       		.byte	0x30
 12693 1e95 9F       		.byte	0x9f
 12694 1e96 00000000 		.4byte	0
 12695 1e9a 00000000 		.4byte	0
 12696              	.LLST114:
 12697 1e9e 06000000 		.4byte	.LVL504
 12698 1ea2 0E000000 		.4byte	.LVL505
 12699 1ea6 0200     		.2byte	0x2
 12700 1ea8 73       		.byte	0x73
 12701 1ea9 14       		.sleb128 20
 12702 1eaa 00000000 		.4byte	0
 12703 1eae 00000000 		.4byte	0
 12704              		.section	.debug_aranges,"",%progbits
 12705 0000 FC000000 		.4byte	0xfc
 12706 0004 0200     		.2byte	0x2
 12707 0006 00000000 		.4byte	.Ldebug_info0
 12708 000a 04       		.byte	0x4
 12709 000b 00       		.byte	0
 12710 000c 0000     		.2byte	0
 12711 000e 0000     		.2byte	0
 12712 0010 00000000 		.4byte	.LFB77
 12713 0014 60000000 		.4byte	.LFE77-.LFB77
ARM GAS  C:\Users\chemi\AppData\Local\Temp\cc0tO343.s 			page 256


 12714 0018 00000000 		.4byte	.LFB70
 12715 001c 48000000 		.4byte	.LFE70-.LFB70
 12716 0020 00000000 		.4byte	.LFB73
 12717 0024 1E000000 		.4byte	.LFE73-.LFB73
 12718 0028 00000000 		.4byte	.LFB75
 12719 002c 18000000 		.4byte	.LFE75-.LFB75
 12720 0030 00000000 		.4byte	.LFB76
 12721 0034 14000000 		.4byte	.LFE76-.LFB76
 12722 0038 00000000 		.4byte	.LFB79
 12723 003c 88000000 		.4byte	.LFE79-.LFB79
 12724 0040 00000000 		.4byte	.LFB80
 12725 0044 20000000 		.4byte	.LFE80-.LFB80
 12726 0048 00000000 		.4byte	.LFB81
 12727 004c 44000000 		.4byte	.LFE81-.LFB81
 12728 0050 00000000 		.4byte	.LFB82
 12729 0054 52000000 		.4byte	.LFE82-.LFB82
 12730 0058 00000000 		.4byte	.LFB84
 12731 005c 74000000 		.4byte	.LFE84-.LFB84
 12732 0060 00000000 		.4byte	.LFB85
 12733 0064 5C000000 		.4byte	.LFE85-.LFB85
 12734 0068 00000000 		.4byte	.LFB83
 12735 006c 80000000 		.4byte	.LFE83-.LFB83
 12736 0070 00000000 		.4byte	.LFB86
 12737 0074 04000000 		.4byte	.LFE86-.LFB86
 12738 0078 00000000 		.4byte	.LFB90
 12739 007c 26000000 		.4byte	.LFE90-.LFB90
 12740 0080 00000000 		.4byte	.LFB89
 12741 0084 42000000 		.4byte	.LFE89-.LFB89
 12742 0088 00000000 		.4byte	.LFB88
 12743 008c 4A000000 		.4byte	.LFE88-.LFB88
 12744 0090 00000000 		.4byte	.LFB87
 12745 0094 48000000 		.4byte	.LFE87-.LFB87
 12746 0098 00000000 		.4byte	.LFB92
 12747 009c 18000000 		.4byte	.LFE92-.LFB92
 12748 00a0 00000000 		.4byte	.LFB93
 12749 00a4 9C020000 		.4byte	.LFE93-.LFB93
 12750 00a8 00000000 		.4byte	.LFB71
 12751 00ac 98000000 		.4byte	.LFE71-.LFB71
 12752 00b0 00000000 		.4byte	.LFB74
 12753 00b4 C4000000 		.4byte	.LFE74-.LFB74
 12754 00b8 00000000 		.4byte	.LFB69
 12755 00bc E8000000 		.4byte	.LFE69-.LFB69
 12756 00c0 00000000 		.4byte	.LFB78
 12757 00c4 28050000 		.4byte	.LFE78-.LFB78
 12758 00c8 00000000 		.4byte	.LFB72
 12759 00cc 64010000 		.4byte	.LFE72-.LFB72
 12760 00d0 00000000 		.4byte	.LFB91
 12761 00d4 E0000000 		.4byte	.LFE91-.LFB91
 12762 00d8 00000000 		.4byte	.LFB94
 12763 00dc 74010000 		.4byte	.LFE94-.LFB94
 12764 00e0 00000000 		.4byte	.LFB95
 12765 00e4 14000000 		.4byte	.LFE95-.LFB95
 12766 00e8 00000000 		.4byte	.LFB96
 12767 00ec 06000000 		.4byte	.LFE96-.LFB96
 12768 00f0 00000000 		.4byte	.LFB97
 12769 00f4 5A000000 		.4byte	.LFE97-.LFB97
 12770 00f8 00000000 		.4byte	0
ARM GAS  C:\Users\chemi\AppData\Local\Temp\cc0tO343.s 			page 257


 12771 00fc 00000000 		.4byte	0
 12772              		.section	.debug_ranges,"",%progbits
 12773              	.Ldebug_ranges0:
 12774 0000 14000000 		.4byte	.LBB43
 12775 0004 26000000 		.4byte	.LBE43
 12776 0008 3A000000 		.4byte	.LBB47
 12777 000c 6E000000 		.4byte	.LBE47
 12778 0010 74000000 		.4byte	.LBB48
 12779 0014 76000000 		.4byte	.LBE48
 12780 0018 00000000 		.4byte	0
 12781 001c 00000000 		.4byte	0
 12782 0020 10000000 		.4byte	.LBB53
 12783 0024 18000000 		.4byte	.LBE53
 12784 0028 1E000000 		.4byte	.LBB54
 12785 002c 3C000000 		.4byte	.LBE54
 12786 0030 3E000000 		.4byte	.LBB55
 12787 0034 42000000 		.4byte	.LBE55
 12788 0038 00000000 		.4byte	0
 12789 003c 00000000 		.4byte	0
 12790 0040 00000000 		.4byte	.LFB77
 12791 0044 60000000 		.4byte	.LFE77
 12792 0048 00000000 		.4byte	.LFB70
 12793 004c 48000000 		.4byte	.LFE70
 12794 0050 00000000 		.4byte	.LFB73
 12795 0054 1E000000 		.4byte	.LFE73
 12796 0058 00000000 		.4byte	.LFB75
 12797 005c 18000000 		.4byte	.LFE75
 12798 0060 00000000 		.4byte	.LFB76
 12799 0064 14000000 		.4byte	.LFE76
 12800 0068 00000000 		.4byte	.LFB79
 12801 006c 88000000 		.4byte	.LFE79
 12802 0070 00000000 		.4byte	.LFB80
 12803 0074 20000000 		.4byte	.LFE80
 12804 0078 00000000 		.4byte	.LFB81
 12805 007c 44000000 		.4byte	.LFE81
 12806 0080 00000000 		.4byte	.LFB82
 12807 0084 52000000 		.4byte	.LFE82
 12808 0088 00000000 		.4byte	.LFB84
 12809 008c 74000000 		.4byte	.LFE84
 12810 0090 00000000 		.4byte	.LFB85
 12811 0094 5C000000 		.4byte	.LFE85
 12812 0098 00000000 		.4byte	.LFB83
 12813 009c 80000000 		.4byte	.LFE83
 12814 00a0 00000000 		.4byte	.LFB86
 12815 00a4 04000000 		.4byte	.LFE86
 12816 00a8 00000000 		.4byte	.LFB90
 12817 00ac 26000000 		.4byte	.LFE90
 12818 00b0 00000000 		.4byte	.LFB89
 12819 00b4 42000000 		.4byte	.LFE89
 12820 00b8 00000000 		.4byte	.LFB88
 12821 00bc 4A000000 		.4byte	.LFE88
 12822 00c0 00000000 		.4byte	.LFB87
 12823 00c4 48000000 		.4byte	.LFE87
 12824 00c8 00000000 		.4byte	.LFB92
 12825 00cc 18000000 		.4byte	.LFE92
 12826 00d0 00000000 		.4byte	.LFB93
 12827 00d4 9C020000 		.4byte	.LFE93
ARM GAS  C:\Users\chemi\AppData\Local\Temp\cc0tO343.s 			page 258


 12828 00d8 00000000 		.4byte	.LFB71
 12829 00dc 98000000 		.4byte	.LFE71
 12830 00e0 00000000 		.4byte	.LFB74
 12831 00e4 C4000000 		.4byte	.LFE74
 12832 00e8 00000000 		.4byte	.LFB69
 12833 00ec E8000000 		.4byte	.LFE69
 12834 00f0 00000000 		.4byte	.LFB78
 12835 00f4 28050000 		.4byte	.LFE78
 12836 00f8 00000000 		.4byte	.LFB72
 12837 00fc 64010000 		.4byte	.LFE72
 12838 0100 00000000 		.4byte	.LFB91
 12839 0104 E0000000 		.4byte	.LFE91
 12840 0108 00000000 		.4byte	.LFB94
 12841 010c 74010000 		.4byte	.LFE94
 12842 0110 00000000 		.4byte	.LFB95
 12843 0114 14000000 		.4byte	.LFE95
 12844 0118 00000000 		.4byte	.LFB96
 12845 011c 06000000 		.4byte	.LFE96
 12846 0120 00000000 		.4byte	.LFB97
 12847 0124 5A000000 		.4byte	.LFE97
 12848 0128 00000000 		.4byte	0
 12849 012c 00000000 		.4byte	0
 12850              		.section	.debug_line,"",%progbits
 12851              	.Ldebug_line0:
 12852 0000 79090000 		.section	.debug_str,"MS",%progbits,1
 12852      02000603 
 12852      00000201 
 12852      FB0E0D00 
 12852      01010101 
 12853              	.LASF40:
 12854 0000 5F565431 		.ascii	"_VT100_ERASE_LINE\000"
 12854      30305F45 
 12854      52415345 
 12854      5F4C494E 
 12854      4500
 12855              	.LASF167:
 12856 0012 64657363 		.ascii	"description\000"
 12856      72697074 
 12856      696F6E00 
 12857              	.LASF144:
 12858 001e 7374726E 		.ascii	"strnchr\000"
 12858      63687200 
 12859              	.LASF2:
 12860 0026 73686F72 		.ascii	"short int\000"
 12860      7420696E 
 12860      7400
 12861              	.LASF78:
 12862 0030 7072696E 		.ascii	"print\000"
 12862      7400
 12863              	.LASF136:
 12864 0036 5445524D 		.ascii	"TERM_getVT100Code\000"
 12864      5F676574 
 12864      56543130 
 12864      30436F64 
 12864      6500
 12865              	.LASF195:
 12866 0048 73707269 		.ascii	"sprintf\000"
ARM GAS  C:\Users\chemi\AppData\Local\Temp\cc0tO343.s 			page 259


 12866      6E746600 
 12867              	.LASF39:
 12868 0050 5F565431 		.ascii	"_VT100_ERASE_SCREEN\000"
 12868      30305F45 
 12868      52415345 
 12868      5F534352 
 12868      45454E00 
 12869              	.LASF128:
 12870 0064 5445524D 		.ascii	"TERM_defaultErrorPrinter\000"
 12870      5F646566 
 12870      61756C74 
 12870      4572726F 
 12870      72507269 
 12871              	.LASF38:
 12872 007d 5F565431 		.ascii	"_VT100_HIDDEN\000"
 12872      30305F48 
 12872      49444445 
 12872      4E00
 12873              	.LASF117:
 12874 008b 73747269 		.ascii	"string\000"
 12874      6E6700
 12875              	.LASF3:
 12876 0092 5F5F7569 		.ascii	"__uint8_t\000"
 12876      6E74385F 
 12876      7400
 12877              	.LASF20:
 12878 009c 76615F6C 		.ascii	"va_list\000"
 12878      69737400 
 12879              	.LASF89:
 12880 00a4 5F5F5465 		.ascii	"__TermCommandDescriptor__\000"
 12880      726D436F 
 12880      6D6D616E 
 12880      64446573 
 12880      63726970 
 12881              	.LASF138:
 12882 00be 7074725F 		.ascii	"ptr_is_in_ram\000"
 12882      69735F69 
 12882      6E5F7261 
 12882      6D00
 12883              	.LASF35:
 12884 00cc 5F565431 		.ascii	"_VT100_UNDERSCORE\000"
 12884      30305F55 
 12884      4E444552 
 12884      53434F52 
 12884      4500
 12885              	.LASF87:
 12886 00de 6572726F 		.ascii	"errorPrinter\000"
 12886      72507269 
 12886      6E746572 
 12886      00
 12887              	.LASF205:
 12888 00eb 78537472 		.ascii	"xStreamBufferGenericCreate\000"
 12888      65616D42 
 12888      75666665 
 12888      7247656E 
 12888      65726963 
 12889              	.LASF211:
ARM GAS  C:\Users\chemi\AppData\Local\Temp\cc0tO343.s 			page 260


 12890 0106 433A5C55 		.ascii	"C:\\Users\\chemi\\UD3_QCW\\UD3_QFN.cydsn\000"
 12890      73657273 
 12890      5C636865 
 12890      6D695C55 
 12890      44335F51 
 12891              	.LASF11:
 12892 012b 6C6F6E67 		.ascii	"long long unsigned int\000"
 12892      206C6F6E 
 12892      6720756E 
 12892      7369676E 
 12892      65642069 
 12893              	.LASF146:
 12894 0142 5445524D 		.ascii	"TERM_findCMD\000"
 12894      5F66696E 
 12894      64434D44 
 12894      00
 12895              	.LASF68:
 12896 014f 5F5F5445 		.ascii	"__TERMINAL_HANDLE__\000"
 12896      524D494E 
 12896      414C5F48 
 12896      414E444C 
 12896      455F5F00 
 12897              	.LASF65:
 12898 0163 5F565431 		.ascii	"_VT100_WHITE\000"
 12898      30305F57 
 12898      48495445 
 12898      00
 12899              	.LASF187:
 12900 0170 49544D5F 		.ascii	"ITM_RxBuffer\000"
 12900      52784275 
 12900      66666572 
 12900      00
 12901              	.LASF73:
 12902 017d 63757272 		.ascii	"currAutocompleteCount\000"
 12902      4175746F 
 12902      636F6D70 
 12902      6C657465 
 12902      436F756E 
 12903              	.LASF181:
 12904 0193 636F6C32 		.ascii	"col2\000"
 12904      00
 12905              	.LASF24:
 12906 0198 5461736B 		.ascii	"TaskHandle_t\000"
 12906      48616E64 
 12906      6C655F74 
 12906      00
 12907              	.LASF49:
 12908 01a5 5F565431 		.ascii	"_VT100_CURSOR_UP_BY\000"
 12908      30305F43 
 12908      5552534F 
 12908      525F5550 
 12908      5F425900 
 12909              	.LASF171:
 12910 01b9 5445524D 		.ascii	"TERM_printDebug\000"
 12910      5F707269 
 12910      6E744465 
 12910      62756700 
ARM GAS  C:\Users\chemi\AppData\Local\Temp\cc0tO343.s 			page 261


 12911              	.LASF182:
 12912 01c9 5445524D 		.ascii	"TERM_attachProgramm\000"
 12912      5F617474 
 12912      61636850 
 12912      726F6772 
 12912      616D6D00 
 12913              	.LASF55:
 12914 01dd 5F565431 		.ascii	"_VT100_CLS\000"
 12914      30305F43 
 12914      4C5300
 12915              	.LASF0:
 12916 01e8 7369676E 		.ascii	"signed char\000"
 12916      65642063 
 12916      68617200 
 12917              	.LASF51:
 12918 01f4 5F565431 		.ascii	"_VT100_CURSOR_RESTORE_POSITION\000"
 12918      30305F43 
 12918      5552534F 
 12918      525F5245 
 12918      53544F52 
 12919              	.LASF151:
 12920 0213 62756666 		.ascii	"buff\000"
 12920      00
 12921              	.LASF74:
 12922 0218 63757272 		.ascii	"currProgram\000"
 12922      50726F67 
 12922      72616D00 
 12923              	.LASF90:
 12924 0224 66756E63 		.ascii	"function\000"
 12924      74696F6E 
 12924      00
 12925              	.LASF174:
 12926 022d 5445524D 		.ascii	"TERM_createNewHandle\000"
 12926      5F637265 
 12926      6174654E 
 12926      65774861 
 12926      6E646C65 
 12927              	.LASF201:
 12928 0242 52454749 		.ascii	"REGISTER_apps\000"
 12928      53544552 
 12928      5F617070 
 12928      7300
 12929              	.LASF47:
 12930 0250 5F565431 		.ascii	"_VT100_CURSOR_FORWARD_BY\000"
 12930      30305F43 
 12930      5552534F 
 12930      525F464F 
 12930      52574152 
 12931              	.LASF126:
 12932 0269 6F666673 		.ascii	"offset\000"
 12932      657400
 12933              	.LASF157:
 12934 0270 5445524D 		.ascii	"TERM_freeCommandList\000"
 12934      5F667265 
 12934      65436F6D 
 12934      6D616E64 
 12934      4C697374 
ARM GAS  C:\Users\chemi\AppData\Local\Temp\cc0tO343.s 			page 262


 12935              	.LASF46:
 12936 0285 5F565431 		.ascii	"_VT100_CURSOR_BACK_BY\000"
 12936      30305F43 
 12936      5552534F 
 12936      525F4241 
 12936      434B5F42 
 12937              	.LASF7:
 12938 029b 6C6F6E67 		.ascii	"long int\000"
 12938      20696E74 
 12938      00
 12939              	.LASF26:
 12940 02a4 74736B54 		.ascii	"tskTaskControlBlock\000"
 12940      61736B43 
 12940      6F6E7472 
 12940      6F6C426C 
 12940      6F636B00 
 12941              	.LASF32:
 12942 02b8 5F565431 		.ascii	"_VT100_RESET_ATTRIB\000"
 12942      30305F52 
 12942      45534554 
 12942      5F415454 
 12942      52494200 
 12943              	.LASF52:
 12944 02cc 5F565431 		.ascii	"_VT100_CURSOR_ENABLE\000"
 12944      30305F43 
 12944      5552534F 
 12944      525F454E 
 12944      41424C45 
 12945              	.LASF72:
 12946 02e1 63757272 		.ascii	"currBufferLength\000"
 12946      42756666 
 12946      65724C65 
 12946      6E677468 
 12946      00
 12947              	.LASF159:
 12948 02f2 6C657474 		.ascii	"letterA\000"
 12948      65724100 
 12949              	.LASF213:
 12950 02fa 73747273 		.ascii	"strsft\000"
 12950      667400
 12951              	.LASF203:
 12952 0301 6D656D63 		.ascii	"memcpy\000"
 12952      707900
 12953              	.LASF62:
 12954 0308 5F565431 		.ascii	"_VT100_BLUE\000"
 12954      30305F42 
 12954      4C554500 
 12955              	.LASF10:
 12956 0314 6C6F6E67 		.ascii	"long long int\000"
 12956      206C6F6E 
 12956      6720696E 
 12956      7400
 12957              	.LASF14:
 12958 0322 75696E74 		.ascii	"uint16_t\000"
 12958      31365F74 
 12958      00
 12959              	.LASF191:
ARM GAS  C:\Users\chemi\AppData\Local\Temp\cc0tO343.s 			page 263


 12960 032b 5445524D 		.ascii	"TERM_cmdListHead\000"
 12960      5F636D64 
 12960      4C697374 
 12960      48656164 
 12960      00
 12961              	.LASF22:
 12962 033c 646F7562 		.ascii	"double\000"
 12962      6C6500
 12963              	.LASF67:
 12964 0343 5F5F7661 		.ascii	"__va_list\000"
 12964      5F6C6973 
 12964      7400
 12965              	.LASF23:
 12966 034d 42617365 		.ascii	"BaseType_t\000"
 12966      54797065 
 12966      5F7400
 12967              	.LASF206:
 12968 0358 76537472 		.ascii	"vStreamBufferDelete\000"
 12968      65616D42 
 12968      75666665 
 12968      7244656C 
 12968      65746500 
 12969              	.LASF131:
 12970 036c 64617461 		.ascii	"dataLength\000"
 12970      4C656E67 
 12970      746800
 12971              	.LASF140:
 12972 0377 5445524D 		.ascii	"TERM_destroyHandle\000"
 12972      5F646573 
 12972      74726F79 
 12972      48616E64 
 12972      6C6500
 12973              	.LASF113:
 12974 038a 434F5059 		.ascii	"COPYCHECK_MODE\000"
 12974      43484543 
 12974      4B5F4D4F 
 12974      444500
 12975              	.LASF133:
 12976 0399 5445524D 		.ascii	"TERM_handleInput\000"
 12976      5F68616E 
 12976      646C6549 
 12976      6E707574 
 12976      00
 12977              	.LASF185:
 12978 03aa 5445524D 		.ascii	"TERM_killProgramm\000"
 12978      5F6B696C 
 12978      6C50726F 
 12978      6772616D 
 12978      6D00
 12979              	.LASF152:
 12980 03bc 636F756E 		.ascii	"count\000"
 12980      7400
 12981              	.LASF210:
 12982 03c2 2E2E5C63 		.ascii	"..\\common\\tterm\\TTerm.c\000"
 12982      6F6D6D6F 
 12982      6E5C7474 
 12982      65726D5C 
ARM GAS  C:\Users\chemi\AppData\Local\Temp\cc0tO343.s 			page 264


 12982      54546572 
 12983              	.LASF129:
 12984 03da 5445524D 		.ascii	"TERM_interpretCMD\000"
 12984      5F696E74 
 12984      65727072 
 12984      6574434D 
 12984      4400
 12985              	.LASF8:
 12986 03ec 5F5F7569 		.ascii	"__uint32_t\000"
 12986      6E743332 
 12986      5F7400
 12987              	.LASF125:
 12988 03f7 73746172 		.ascii	"startByte\000"
 12988      74427974 
 12988      6500
 12989              	.LASF209:
 12990 0401 474E5520 		.ascii	"GNU C99 5.4.1 20160609 (release) [ARM/embedded-5-br"
 12990      43393920 
 12990      352E342E 
 12990      31203230 
 12990      31363036 
 12991 0434 616E6368 		.ascii	"anch revision 237715] -mcpu=cortex-m3 -mthumb -g -O"
 12991      20726576 
 12991      6973696F 
 12991      6E203233 
 12991      37373135 
 12992 0467 73202D73 		.ascii	"s -std=gnu99 -ffunction-sections -ffat-lto-objects\000"
 12992      74643D67 
 12992      6E753939 
 12992      202D6666 
 12992      756E6374 
 12993              	.LASF199:
 12994 049a 7076506F 		.ascii	"pvPortMalloc\000"
 12994      72744D61 
 12994      6C6C6F63 
 12994      00
 12995              	.LASF64:
 12996 04a7 5F565431 		.ascii	"_VT100_CYAN\000"
 12996      30305F43 
 12996      59414E00 
 12997              	.LASF188:
 12998 04b3 5445524D 		.ascii	"TERM_startupText1\000"
 12998      5F737461 
 12998      72747570 
 12998      54657874 
 12998      3100
 12999              	.LASF189:
 13000 04c5 5445524D 		.ascii	"TERM_startupText2\000"
 13000      5F737461 
 13000      72747570 
 13000      54657874 
 13000      3200
 13001              	.LASF30:
 13002 04d7 5F565431 		.ascii	"_VT100_FOREGROUND_COLOR\000"
 13002      30305F46 
 13002      4F524547 
 13002      524F554E 
ARM GAS  C:\Users\chemi\AppData\Local\Temp\cc0tO343.s 			page 265


 13002      445F434F 
 13003              	.LASF70:
 13004 04ef 706F7274 		.ascii	"port\000"
 13004      00
 13005              	.LASF161:
 13006 04f4 5445524D 		.ascii	"TERM_LIST_add\000"
 13006      5F4C4953 
 13006      545F6164 
 13006      6400
 13007              	.LASF12:
 13008 0502 756E7369 		.ascii	"unsigned int\000"
 13008      676E6564 
 13008      20696E74 
 13008      00
 13009              	.LASF165:
 13010 050f 63757272 		.ascii	"currComp\000"
 13010      436F6D70 
 13010      00
 13011              	.LASF197:
 13012 0518 7374726C 		.ascii	"strlen\000"
 13012      656E00
 13013              	.LASF176:
 13014 051f 5445524D 		.ascii	"TERM_processBuffer\000"
 13014      5F70726F 
 13014      63657373 
 13014      42756666 
 13014      657200
 13015              	.LASF91:
 13016 0532 636F6D6D 		.ascii	"command\000"
 13016      616E6400 
 13017              	.LASF183:
 13018 053a 70726F67 		.ascii	"prog\000"
 13018      00
 13019              	.LASF173:
 13020 053f 5445524D 		.ascii	"TERM_printBootMessage\000"
 13020      5F707269 
 13020      6E74426F 
 13020      6F744D65 
 13020      73736167 
 13021              	.LASF9:
 13022 0555 6C6F6E67 		.ascii	"long unsigned int\000"
 13022      20756E73 
 13022      69676E65 
 13022      6420696E 
 13022      7400
 13023              	.LASF75:
 13024 0567 6175746F 		.ascii	"autocompleteBuffer\000"
 13024      636F6D70 
 13024      6C657465 
 13024      42756666 
 13024      657200
 13025              	.LASF77:
 13026 057a 6175746F 		.ascii	"autocompleteStart\000"
 13026      636F6D70 
 13026      6C657465 
 13026      53746172 
 13026      7400
ARM GAS  C:\Users\chemi\AppData\Local\Temp\cc0tO343.s 			page 266


 13027              	.LASF194:
 13028 058c 73747263 		.ascii	"strchr\000"
 13028      687200
 13029              	.LASF100:
 13030 0593 5465726D 		.ascii	"TermErrorPrinter\000"
 13030      4572726F 
 13030      72507269 
 13030      6E746572 
 13030      00
 13031              	.LASF186:
 13032 05a4 63757272 		.ascii	"currArg\000"
 13032      41726700 
 13033              	.LASF118:
 13034 05ac 41435F4C 		.ascii	"AC_LIST_HEAD\000"
 13034      4953545F 
 13034      48454144 
 13034      00
 13035              	.LASF160:
 13036 05b9 6C657474 		.ascii	"letterB\000"
 13036      65724200 
 13037              	.LASF130:
 13038 05c1 64617461 		.ascii	"data\000"
 13038      00
 13039              	.LASF25:
 13040 05c6 53747265 		.ascii	"StreamBufferHandle_t\000"
 13040      616D4275 
 13040      66666572 
 13040      48616E64 
 13040      6C655F74 
 13041              	.LASF5:
 13042 05db 73686F72 		.ascii	"short unsigned int\000"
 13042      7420756E 
 13042      7369676E 
 13042      65642069 
 13042      6E7400
 13043              	.LASF124:
 13044 05ee 72657443 		.ascii	"retCode\000"
 13044      6F646500 
 13045              	.LASF134:
 13046 05f6 63757272 		.ascii	"currRetCode\000"
 13046      52657443 
 13046      6F646500 
 13047              	.LASF61:
 13048 0602 5F565431 		.ascii	"_VT100_YELLOW\000"
 13048      30305F59 
 13048      454C4C4F 
 13048      5700
 13049              	.LASF37:
 13050 0610 5F565431 		.ascii	"_VT100_REVERSE\000"
 13050      30305F52 
 13050      45564552 
 13050      534500
 13051              	.LASF148:
 13052 061f 66697273 		.ascii	"firstSpace\000"
 13052      74537061 
 13052      636500
 13053              	.LASF196:
ARM GAS  C:\Users\chemi\AppData\Local\Temp\cc0tO343.s 			page 267


 13054 062a 73747263 		.ascii	"strcpy\000"
 13054      707900
 13055              	.LASF106:
 13056 0631 696E7075 		.ascii	"inputStream\000"
 13056      74537472 
 13056      65616D00 
 13057              	.LASF119:
 13058 063d 5F5F4143 		.ascii	"__ACL_HEAD__\000"
 13058      4C5F4845 
 13058      41445F5F 
 13058      00
 13059              	.LASF84:
 13060 064a 65736353 		.ascii	"escSeqBuff\000"
 13060      65714275 
 13060      666600
 13061              	.LASF44:
 13062 0655 5F565431 		.ascii	"_VT100_WRAP_OFF\000"
 13062      30305F57 
 13062      5241505F 
 13062      4F464600 
 13063              	.LASF121:
 13064 0665 656C656D 		.ascii	"elementCount\000"
 13064      656E7443 
 13064      6F756E74 
 13064      00
 13065              	.LASF111:
 13066 0672 5445524D 		.ascii	"TERM_CHECK_COMP\000"
 13066      5F434845 
 13066      434B5F43 
 13066      4F4D5000 
 13067              	.LASF155:
 13068 0682 6C617374 		.ascii	"lastSpace\000"
 13068      53706163 
 13068      6500
 13069              	.LASF123:
 13070 068c 68616E64 		.ascii	"handle\000"
 13070      6C6500
 13071              	.LASF66:
 13072 0693 5445524D 		.ascii	"TERMINAL_HANDLE\000"
 13072      494E414C 
 13072      5F48414E 
 13072      444C4500 
 13073              	.LASF105:
 13074 06a3 7261775F 		.ascii	"raw_input\000"
 13074      696E7075 
 13074      7400
 13075              	.LASF59:
 13076 06ad 5F565431 		.ascii	"_VT100_RED\000"
 13076      30305F52 
 13076      454400
 13077              	.LASF29:
 13078 06b8 5F565431 		.ascii	"_VT100_CURSOR_END\000"
 13078      30305F43 
 13078      5552534F 
 13078      525F454E 
 13078      4400
 13079              	.LASF28:
ARM GAS  C:\Users\chemi\AppData\Local\Temp\cc0tO343.s 			page 268


 13080 06ca 5F565431 		.ascii	"_VT100_CURSOR_POS1\000"
 13080      30305F43 
 13080      5552534F 
 13080      525F504F 
 13080      533100
 13081              	.LASF18:
 13082 06dd 73697A65 		.ascii	"sizetype\000"
 13082      74797065 
 13082      00
 13083              	.LASF127:
 13084 06e6 63757272 		.ascii	"currPos\000"
 13084      506F7300 
 13085              	.LASF108:
 13086 06ee 61726743 		.ascii	"argCount\000"
 13086      6F756E74 
 13086      00
 13087              	.LASF43:
 13088 06f7 5F565431 		.ascii	"_VT100_WRAP_ON\000"
 13088      30305F57 
 13088      5241505F 
 13088      4F4E00
 13089              	.LASF33:
 13090 0706 5F565431 		.ascii	"_VT100_BRIGHT\000"
 13090      30305F42 
 13090      52494748 
 13090      5400
 13091              	.LASF50:
 13092 0714 5F565431 		.ascii	"_VT100_CURSOR_SAVE_POSITION\000"
 13092      30305F43 
 13092      5552534F 
 13092      525F5341 
 13092      56455F50 
 13093              	.LASF214:
 13094 0730 5445524D 		.ascii	"TERM_sendVT100Code\000"
 13094      5F73656E 
 13094      64565431 
 13094      3030436F 
 13094      646500
 13095              	.LASF17:
 13096 0743 5F5F676E 		.ascii	"__gnuc_va_list\000"
 13096      75635F76 
 13096      615F6C69 
 13096      737400
 13097              	.LASF93:
 13098 0752 636F6D6D 		.ascii	"commandLength\000"
 13098      616E644C 
 13098      656E6774 
 13098      6800
 13099              	.LASF162:
 13100 0760 6974656D 		.ascii	"item\000"
 13100      00
 13101              	.LASF204:
 13102 0765 5445524D 		.ascii	"TERM_doAutoComplete\000"
 13102      5F646F41 
 13102      75746F43 
 13102      6F6D706C 
 13102      65746500 
ARM GAS  C:\Users\chemi\AppData\Local\Temp\cc0tO343.s 			page 269


 13103              	.LASF34:
 13104 0779 5F565431 		.ascii	"_VT100_DIM\000"
 13104      30305F44 
 13104      494D00
 13105              	.LASF158:
 13106 0784 5445524D 		.ascii	"TERM_isSorted\000"
 13106      5F697353 
 13106      6F727465 
 13106      6400
 13107              	.LASF149:
 13108 0792 63757272 		.ascii	"currCmd\000"
 13108      436D6400 
 13109              	.LASF45:
 13110 079a 5F565431 		.ascii	"_VT100_ERASE_LINE_END\000"
 13110      30305F45 
 13110      52415345 
 13110      5F4C494E 
 13110      455F454E 
 13111              	.LASF169:
 13112 07b0 5445524D 		.ascii	"TERM_setCursorPos\000"
 13112      5F736574 
 13112      43757273 
 13112      6F72506F 
 13112      7300
 13113              	.LASF141:
 13114 07c2 5445524D 		.ascii	"TERM_checkForCopy\000"
 13114      5F636865 
 13114      636B466F 
 13114      72436F70 
 13114      7900
 13115              	.LASF85:
 13116 07d4 6563686F 		.ascii	"echoEnabled\000"
 13116      456E6162 
 13116      6C656400 
 13117              	.LASF115:
 13118 07e0 5F5F4143 		.ascii	"__ACL__\000"
 13118      4C5F5F00 
 13119              	.LASF21:
 13120 07e8 666C6F61 		.ascii	"float\000"
 13120      7400
 13121              	.LASF200:
 13122 07ee 76736E70 		.ascii	"vsnprintf\000"
 13122      72696E74 
 13122      6600
 13123              	.LASF104:
 13124 07f8 696E7075 		.ascii	"inputHandler\000"
 13124      7448616E 
 13124      646C6572 
 13124      00
 13125              	.LASF88:
 13126 0805 5465726D 		.ascii	"TermCommandDescriptor\000"
 13126      436F6D6D 
 13126      616E6444 
 13126      65736372 
 13126      6970746F 
 13127              	.LASF156:
 13128 081b 5445524D 		.ascii	"TERM_countArgs\000"
ARM GAS  C:\Users\chemi\AppData\Local\Temp\cc0tO343.s 			page 270


 13128      5F636F75 
 13128      6E744172 
 13128      677300
 13129              	.LASF168:
 13130 082a 6E657743 		.ascii	"newCMD\000"
 13130      4D4400
 13131              	.LASF97:
 13132 0831 6E657874 		.ascii	"nextCmd\000"
 13132      436D6400 
 13133              	.LASF135:
 13134 0839 7072696E 		.ascii	"printQuotationMarks\000"
 13134      7451756F 
 13134      74617469 
 13134      6F6E4D61 
 13134      726B7300 
 13135              	.LASF110:
 13136 084d 5445524D 		.ascii	"TERM_CHECK_COMP_AND_HIST\000"
 13136      5F434845 
 13136      434B5F43 
 13136      4F4D505F 
 13136      414E445F 
 13137              	.LASF31:
 13138 0866 5F565431 		.ascii	"_VT100_BACKGROUND_COLOR\000"
 13138      30305F42 
 13138      41434B47 
 13138      524F554E 
 13138      445F434F 
 13139              	.LASF95:
 13140 087e 41434861 		.ascii	"ACHandler\000"
 13140      6E646C65 
 13140      7200
 13141              	.LASF15:
 13142 0888 696E7433 		.ascii	"int32_t\000"
 13142      325F7400 
 13143              	.LASF1:
 13144 0890 756E7369 		.ascii	"unsigned char\000"
 13144      676E6564 
 13144      20636861 
 13144      7200
 13145              	.LASF184:
 13146 089e 5445524D 		.ascii	"TERM_removeProgramm\000"
 13146      5F72656D 
 13146      6F766550 
 13146      726F6772 
 13146      616D6D00 
 13147              	.LASF198:
 13148 08b2 7374726E 		.ascii	"strncmp\000"
 13148      636D7000 
 13149              	.LASF99:
 13150 08ba 5465726D 		.ascii	"TermCommandInputHandler\000"
 13150      436F6D6D 
 13150      616E6449 
 13150      6E707574 
 13150      48616E64 
 13151              	.LASF82:
 13152 08d2 63757272 		.ascii	"currHistoryReadPosition\000"
 13152      48697374 
ARM GAS  C:\Users\chemi\AppData\Local\Temp\cc0tO343.s 			page 271


 13152      6F727952 
 13152      65616450 
 13152      6F736974 
 13153              	.LASF109:
 13154 08ea 5465726D 		.ascii	"TermProgram\000"
 13154      50726F67 
 13154      72616D00 
 13155              	.LASF48:
 13156 08f6 5F565431 		.ascii	"_VT100_CURSOR_DOWN_BY\000"
 13156      30305F43 
 13156      5552534F 
 13156      525F444F 
 13156      574E5F42 
 13157              	.LASF71:
 13158 090c 63757272 		.ascii	"currBufferPosition\000"
 13158      42756666 
 13158      6572506F 
 13158      73697469 
 13158      6F6E00
 13159              	.LASF166:
 13160 091f 5445524D 		.ascii	"TERM_addCommand\000"
 13160      5F616464 
 13160      436F6D6D 
 13160      616E6400 
 13161              	.LASF58:
 13162 092f 5F565431 		.ascii	"_VT100_BLACK\000"
 13162      30305F42 
 13162      4C41434B 
 13162      00
 13163              	.LASF36:
 13164 093c 5F565431 		.ascii	"_VT100_BLINK\000"
 13164      30305F42 
 13164      4C494E4B 
 13164      00
 13165              	.LASF56:
 13166 0949 76743130 		.ascii	"vt100\000"
 13166      3000
 13167              	.LASF172:
 13168 094f 666F726D 		.ascii	"format\000"
 13168      617400
 13169              	.LASF63:
 13170 0956 5F565431 		.ascii	"_VT100_MAGENTA\000"
 13170      30305F4D 
 13170      4147454E 
 13170      544100
 13171              	.LASF193:
 13172 0965 76506F72 		.ascii	"vPortFree\000"
 13172      74467265 
 13172      6500
 13173              	.LASF60:
 13174 096f 5F565431 		.ascii	"_VT100_GREEN\000"
 13174      30305F47 
 13174      5245454E 
 13174      00
 13175              	.LASF163:
 13176 097c 68656164 		.ascii	"head\000"
 13176      00
ARM GAS  C:\Users\chemi\AppData\Local\Temp\cc0tO343.s 			page 272


 13177              	.LASF41:
 13178 0981 5F565431 		.ascii	"_VT100_FONT_G0\000"
 13178      30305F46 
 13178      4F4E545F 
 13178      473000
 13179              	.LASF42:
 13180 0990 5F565431 		.ascii	"_VT100_FONT_G1\000"
 13180      30305F46 
 13180      4F4E545F 
 13180      473100
 13181              	.LASF83:
 13182 099f 63757272 		.ascii	"currEscSeqPos\000"
 13182      45736353 
 13182      6571506F 
 13182      7300
 13183              	.LASF16:
 13184 09ad 75696E74 		.ascii	"uint32_t\000"
 13184      33325F74 
 13184      00
 13185              	.LASF122:
 13186 09b6 66697273 		.ascii	"first\000"
 13186      7400
 13187              	.LASF145:
 13188 09bc 6C656E67 		.ascii	"length\000"
 13188      746800
 13189              	.LASF57:
 13190 09c3 636F6C6F 		.ascii	"color\000"
 13190      7200
 13191              	.LASF19:
 13192 09c9 63686172 		.ascii	"char\000"
 13192      00
 13193              	.LASF142:
 13194 09ce 6D6F6465 		.ascii	"mode\000"
 13194      00
 13195              	.LASF4:
 13196 09d3 5F5F7569 		.ascii	"__uint16_t\000"
 13196      6E743136 
 13196      5F7400
 13197              	.LASF53:
 13198 09de 5F565431 		.ascii	"_VT100_CURSOR_DISABLE\000"
 13198      30305F43 
 13198      5552534F 
 13198      525F4449 
 13198      5341424C 
 13199              	.LASF207:
 13200 09f4 76546173 		.ascii	"vTaskDelete\000"
 13200      6B44656C 
 13200      65746500 
 13201              	.LASF79:
 13202 0a00 63757272 		.ascii	"currUserName\000"
 13202      55736572 
 13202      4E616D65 
 13202      00
 13203              	.LASF112:
 13204 0a0d 5445524D 		.ascii	"TERM_CHECK_HIST\000"
 13204      5F434845 
 13204      434B5F48 
ARM GAS  C:\Users\chemi\AppData\Local\Temp\cc0tO343.s 			page 273


 13204      49535400 
 13205              	.LASF139:
 13206 0a1d 7074725F 		.ascii	"ptr_is_in_flash\000"
 13206      69735F69 
 13206      6E5F666C 
 13206      61736800 
 13207              	.LASF6:
 13208 0a2d 5F5F696E 		.ascii	"__int32_t\000"
 13208      7433325F 
 13208      7400
 13209              	.LASF190:
 13210 0a37 5445524D 		.ascii	"TERM_startupText3\000"
 13210      5F737461 
 13210      72747570 
 13210      54657874 
 13210      3300
 13211              	.LASF177:
 13212 0a49 5445524D 		.ascii	"TERM_Box\000"
 13212      5F426F78 
 13212      00
 13213              	.LASF86:
 13214 0a52 636D644C 		.ascii	"cmdListHead\000"
 13214      69737448 
 13214      65616400 
 13215              	.LASF69:
 13216 0a5e 696E7075 		.ascii	"inputBuffer\000"
 13216      74427566 
 13216      66657200 
 13217              	.LASF102:
 13218 0a6a 5465726D 		.ascii	"TermAutoCompHandler\000"
 13218      4175746F 
 13218      436F6D70 
 13218      48616E64 
 13218      6C657200 
 13219              	.LASF103:
 13220 0a7e 7461736B 		.ascii	"task\000"
 13220      00
 13221              	.LASF179:
 13222 0a83 636F6C31 		.ascii	"col1\000"
 13222      00
 13223              	.LASF76:
 13224 0a88 6175746F 		.ascii	"autocompleteBufferLength\000"
 13224      636F6D70 
 13224      6C657465 
 13224      42756666 
 13224      65724C65 
 13225              	.LASF170:
 13226 0aa1 636F6C75 		.ascii	"column\000"
 13226      6D6E00
 13227              	.LASF212:
 13228 0aa8 5F5F6170 		.ascii	"__ap\000"
 13228      00
 13229              	.LASF150:
 13230 0aad 5445524D 		.ascii	"TERM_seperateArgs\000"
 13230      5F736570 
 13230      65726174 
 13230      65417267 
ARM GAS  C:\Users\chemi\AppData\Local\Temp\cc0tO343.s 			page 274


 13230      7300
 13231              	.LASF92:
 13232 0abf 636F6D6D 		.ascii	"commandDescription\000"
 13232      616E6444 
 13232      65736372 
 13232      69707469 
 13232      6F6E00
 13233              	.LASF114:
 13234 0ad2 41435F4C 		.ascii	"AC_LIST_ELEMENT\000"
 13234      4953545F 
 13234      454C454D 
 13234      454E5400 
 13235              	.LASF80:
 13236 0ae2 68697374 		.ascii	"historyBuffer\000"
 13236      6F727942 
 13236      75666665 
 13236      7200
 13237              	.LASF153:
 13238 0af0 71756F74 		.ascii	"quoteMark\000"
 13238      654D6172 
 13238      6B00
 13239              	.LASF98:
 13240 0afa 5465726D 		.ascii	"TermCommandFunction\000"
 13240      436F6D6D 
 13240      616E6446 
 13240      756E6374 
 13240      696F6E00 
 13241              	.LASF143:
 13242 0b0e 63757272 		.ascii	"currHistoryPos\000"
 13242      48697374 
 13242      6F727950 
 13242      6F7300
 13243              	.LASF202:
 13244 0b1d 6D656D73 		.ascii	"memset\000"
 13244      657400
 13245              	.LASF54:
 13246 0b24 5F565431 		.ascii	"_VT100_CURSOR_SET_COLUMN\000"
 13246      30305F43 
 13246      5552534F 
 13246      525F5345 
 13246      545F434F 
 13247              	.LASF94:
 13248 0b3d 6D696E50 		.ascii	"minPermissionLevel\000"
 13248      65726D69 
 13248      7373696F 
 13248      6E4C6576 
 13248      656C00
 13249              	.LASF13:
 13250 0b50 75696E74 		.ascii	"uint8_t\000"
 13250      385F7400 
 13251              	.LASF154:
 13252 0b58 63757272 		.ascii	"currStringStart\000"
 13252      53747269 
 13252      6E675374 
 13252      61727400 
 13253              	.LASF178:
 13254 0b68 726F7731 		.ascii	"row1\000"
ARM GAS  C:\Users\chemi\AppData\Local\Temp\cc0tO343.s 			page 275


 13254      00
 13255              	.LASF180:
 13256 0b6d 726F7732 		.ascii	"row2\000"
 13256      00
 13257              	.LASF81:
 13258 0b72 63757272 		.ascii	"currHistoryWritePosition\000"
 13258      48697374 
 13258      6F727957 
 13258      72697465 
 13258      506F7369 
 13259              	.LASF120:
 13260 0b8b 6973436F 		.ascii	"isConst\000"
 13260      6E737400 
 13261              	.LASF116:
 13262 0b93 6E657874 		.ascii	"next\000"
 13262      00
 13263              	.LASF192:
 13264 0b98 5445524D 		.ascii	"TERM_baseCMDsAdded\000"
 13264      5F626173 
 13264      65434D44 
 13264      73416464 
 13264      656400
 13265              	.LASF132:
 13266 0bab 746F4C6F 		.ascii	"toLowerCase\000"
 13266      77657243 
 13266      61736500 
 13267              	.LASF147:
 13268 0bb7 636D644C 		.ascii	"cmdLength\000"
 13268      656E6774 
 13268      6800
 13269              	.LASF107:
 13270 0bc1 61726773 		.ascii	"args\000"
 13270      00
 13271              	.LASF27:
 13272 0bc6 53747265 		.ascii	"StreamBufferDef_t\000"
 13272      616D4275 
 13272      66666572 
 13272      4465665F 
 13272      7400
 13273              	.LASF96:
 13274 0bd8 41435061 		.ascii	"ACParams\000"
 13274      72616D73 
 13274      00
 13275              	.LASF208:
 13276 0be1 76546173 		.ascii	"vTaskDelay\000"
 13276      6B44656C 
 13276      617900
 13277              	.LASF101:
 13278 0bec 5465726D 		.ascii	"TermPrintHandler\000"
 13278      5072696E 
 13278      7448616E 
 13278      646C6572 
 13278      00
 13279              	.LASF137:
 13280 0bfd 69734143 		.ascii	"isACIILetter\000"
 13280      49494C65 
 13280      74746572 
ARM GAS  C:\Users\chemi\AppData\Local\Temp\cc0tO343.s 			page 276


 13280      00
 13281              	.LASF175:
 13282 0c0a 7072696E 		.ascii	"printFunction\000"
 13282      7446756E 
 13282      6374696F 
 13282      6E00
 13283              	.LASF164:
 13284 0c18 6C617374 		.ascii	"lastComp\000"
 13284      436F6D70 
 13284      00
 13285              		.ident	"GCC: (GNU Tools for ARM Embedded Processors) 5.4.1 20160609 (release) [ARM/embedded-5-bran
