ARM GAS  C:\Users\chemi\AppData\Local\Temp\ccvbJJcw.s 			page 1


   1              		.syntax unified
   2              		.cpu cortex-m3
   3              		.fpu softvfp
   4              		.eabi_attribute 20, 1
   5              		.eabi_attribute 21, 1
   6              		.eabi_attribute 23, 3
   7              		.eabi_attribute 24, 1
   8              		.eabi_attribute 25, 1
   9              		.eabi_attribute 26, 1
  10              		.eabi_attribute 30, 4
  11              		.eabi_attribute 34, 1
  12              		.eabi_attribute 18, 4
  13              		.thumb
  14              		.syntax unified
  15              		.file	"TTerm_AC.c"
  16              		.text
  17              	.Ltext0:
  18              		.cfi_sections	.debug_frame
  19              		.section	.text.TERM_addCommandAC,"ax",%progbits
  20              		.align	1
  21              		.global	TERM_addCommandAC
  22              		.thumb
  23              		.thumb_func
  24              		.type	TERM_addCommandAC, %function
  25              	TERM_addCommandAC:
  26              	.LFB69:
  27              		.file 1 "..\\common\\tterm\\TTerm_AC.c"
   1:..\common\tterm/TTerm_AC.c **** /*
   2:..\common\tterm/TTerm_AC.c ****  * TTerm
   3:..\common\tterm/TTerm_AC.c ****  *
   4:..\common\tterm/TTerm_AC.c ****  * Copyright (c) 2020 Thorben Zethoff
   5:..\common\tterm/TTerm_AC.c ****  *
   6:..\common\tterm/TTerm_AC.c ****  * Permission is hereby granted, free of charge, to any person obtaining a copy of
   7:..\common\tterm/TTerm_AC.c ****  * this software and associated documentation files (the "Software"), to deal in
   8:..\common\tterm/TTerm_AC.c ****  * the Software without restriction, including without limitation the rights to
   9:..\common\tterm/TTerm_AC.c ****  * use, copy, modify, merge, publish, distribute, sublicense, and/or sell copies of
  10:..\common\tterm/TTerm_AC.c ****  * the Software, and to permit persons to whom the Software is furnished to do so,
  11:..\common\tterm/TTerm_AC.c ****  * subject to the following conditions:
  12:..\common\tterm/TTerm_AC.c ****  *
  13:..\common\tterm/TTerm_AC.c ****  * The above copyright notice and this permission notice shall be included in all
  14:..\common\tterm/TTerm_AC.c ****  * copies or substantial portions of the Software.
  15:..\common\tterm/TTerm_AC.c ****  *
  16:..\common\tterm/TTerm_AC.c ****  * THE SOFTWARE IS PROVIDED "AS IS", WITHOUT WARRANTY OF ANY KIND, EXPRESS OR
  17:..\common\tterm/TTerm_AC.c ****  * IMPLIED, INCLUDING BUT NOT LIMITED TO THE WARRANTIES OF MERCHANTABILITY, FITNESS
  18:..\common\tterm/TTerm_AC.c ****  * FOR A PARTICULAR PURPOSE AND NONINFRINGEMENT. IN NO EVENT SHALL THE AUTHORS OR
  19:..\common\tterm/TTerm_AC.c ****  * COPYRIGHT HOLDERS BE LIABLE FOR ANY CLAIM, DAMAGES OR OTHER LIABILITY, WHETHER
  20:..\common\tterm/TTerm_AC.c ****  * IN AN ACTION OF CONTRACT, TORT OR OTHERWISE, ARISING FROM, OUT OF OR IN
  21:..\common\tterm/TTerm_AC.c ****  * CONNECTION WITH THE SOFTWARE OR THE USE OR OTHER DEALINGS IN THE SOFTWARE.
  22:..\common\tterm/TTerm_AC.c **** */
  23:..\common\tterm/TTerm_AC.c ****     
  24:..\common\tterm/TTerm_AC.c **** #if PIC32 == 1
  25:..\common\tterm/TTerm_AC.c **** #include <xc.h>
  26:..\common\tterm/TTerm_AC.c **** #endif  
  27:..\common\tterm/TTerm_AC.c **** #include <stdint.h>
  28:..\common\tterm/TTerm_AC.c **** #include <stdio.h>
  29:..\common\tterm/TTerm_AC.c **** #include <string.h>
  30:..\common\tterm/TTerm_AC.c **** #include <stdarg.h>
ARM GAS  C:\Users\chemi\AppData\Local\Temp\ccvbJJcw.s 			page 2


  31:..\common\tterm/TTerm_AC.c **** 
  32:..\common\tterm/TTerm_AC.c **** #include "FreeRTOS.h"
  33:..\common\tterm/TTerm_AC.c **** #include "task.h"
  34:..\common\tterm/TTerm_AC.c **** #include "UART.h"
  35:..\common\tterm/TTerm_AC.c **** #include "TTerm.h"
  36:..\common\tterm/TTerm_AC.c **** #include "TTerm_cmd.h"
  37:..\common\tterm/TTerm_AC.c **** #include "TTerm_AC.h"
  38:..\common\tterm/TTerm_AC.c **** 
  39:..\common\tterm/TTerm_AC.c **** void TERM_addCommandAC(TermCommandDescriptor * cmd, TermAutoCompHandler ACH, void * ACParams){
  28              		.loc 1 39 0
  29              		.cfi_startproc
  30              		@ args = 0, pretend = 0, frame = 0
  31              		@ frame_needed = 0, uses_anonymous_args = 0
  32              		@ link register save eliminated.
  33              	.LVL0:
  40:..\common\tterm/TTerm_AC.c ****     cmd->ACHandler = ACH;
  34              		.loc 1 40 0
  35 0000 4161     		str	r1, [r0, #20]
  41:..\common\tterm/TTerm_AC.c ****     cmd->ACParams = ACParams;
  36              		.loc 1 41 0
  37 0002 8261     		str	r2, [r0, #24]
  38 0004 7047     		bx	lr
  39              		.cfi_endproc
  40              	.LFE69:
  41              		.size	TERM_addCommandAC, .-TERM_addCommandAC
  42              		.section	.text.TERM_findMatchingCMDs,"ax",%progbits
  43              		.align	1
  44              		.global	TERM_findMatchingCMDs
  45              		.thumb
  46              		.thumb_func
  47              		.type	TERM_findMatchingCMDs, %function
  48              	TERM_findMatchingCMDs:
  49              	.LFB71:
  42:..\common\tterm/TTerm_AC.c **** }
  43:..\common\tterm/TTerm_AC.c **** 
  44:..\common\tterm/TTerm_AC.c **** uint8_t TERM_doAutoComplete(TERMINAL_HANDLE * handle){
  45:..\common\tterm/TTerm_AC.c ****     if(strnchr(handle->inputBuffer, ' ', handle->currBufferLength) != NULL){
  46:..\common\tterm/TTerm_AC.c ****         TermCommandDescriptor * cmd = TERM_findCMD(handle);
  47:..\common\tterm/TTerm_AC.c ****         if(cmd != NULL){
  48:..\common\tterm/TTerm_AC.c ****             if(cmd->ACHandler == 0){
  49:..\common\tterm/TTerm_AC.c ****                 handle->currAutocompleteCount = 0;
  50:..\common\tterm/TTerm_AC.c ****                 handle->autocompleteStart = 0;
  51:..\common\tterm/TTerm_AC.c ****                 handle->autocompleteBufferLength = 0;
  52:..\common\tterm/TTerm_AC.c ****                 return 0;
  53:..\common\tterm/TTerm_AC.c ****             }else{
  54:..\common\tterm/TTerm_AC.c ****                 return (*cmd->ACHandler)(handle, cmd->ACParams);
  55:..\common\tterm/TTerm_AC.c ****             }
  56:..\common\tterm/TTerm_AC.c ****         } 
  57:..\common\tterm/TTerm_AC.c ****         handle->currAutocompleteCount = 0;
  58:..\common\tterm/TTerm_AC.c ****         handle->autocompleteStart = 0;
  59:..\common\tterm/TTerm_AC.c ****         handle->autocompleteBufferLength = 0;
  60:..\common\tterm/TTerm_AC.c ****         return 0;
  61:..\common\tterm/TTerm_AC.c ****     }else{
  62:..\common\tterm/TTerm_AC.c ****         handle->autocompleteBuffer = pvPortMalloc(handle->cmdListHead->commandLength * sizeof(char 
  63:..\common\tterm/TTerm_AC.c ****         handle->currAutocompleteCount = 0;
  64:..\common\tterm/TTerm_AC.c ****         handle->autocompleteBufferLength = TERM_findMatchingCMDs(handle->inputBuffer, handle->currB
  65:..\common\tterm/TTerm_AC.c ****         handle->autocompleteStart = 0;
ARM GAS  C:\Users\chemi\AppData\Local\Temp\ccvbJJcw.s 			page 3


  66:..\common\tterm/TTerm_AC.c ****         return handle->autocompleteBufferLength;
  67:..\common\tterm/TTerm_AC.c ****     }
  68:..\common\tterm/TTerm_AC.c **** }
  69:..\common\tterm/TTerm_AC.c **** 
  70:..\common\tterm/TTerm_AC.c **** uint8_t TERM_findMatchingCMDs(char * currInput, uint8_t length, char ** buff, TermCommandDescriptor
  50              		.loc 1 70 0
  51              		.cfi_startproc
  52              		@ args = 0, pretend = 0, frame = 0
  53              		@ frame_needed = 0, uses_anonymous_args = 0
  54              	.LVL1:
  55 0000 2DE9F84F 		push	{r3, r4, r5, r6, r7, r8, r9, r10, fp, lr}
  56              		.cfi_def_cfa_offset 40
  57              		.cfi_offset 3, -40
  58              		.cfi_offset 4, -36
  59              		.cfi_offset 5, -32
  60              		.cfi_offset 6, -28
  61              		.cfi_offset 7, -24
  62              		.cfi_offset 8, -20
  63              		.cfi_offset 9, -16
  64              		.cfi_offset 10, -12
  65              		.cfi_offset 11, -8
  66              		.cfi_offset 14, -4
  67              		.loc 1 70 0
  68 0004 8846     		mov	r8, r1
  69 0006 9246     		mov	r10, r2
  71:..\common\tterm/TTerm_AC.c ****     
  72:..\common\tterm/TTerm_AC.c ****     //TODO handle auto complete of parameters, for now we return if this is attempted
  73:..\common\tterm/TTerm_AC.c ****     if(strnchr(currInput, ' ', length) != NULL) return 0;
  70              		.loc 1 73 0
  71 0008 0A46     		mov	r2, r1
  72              	.LVL2:
  73 000a 2021     		movs	r1, #32
  74              	.LVL3:
  70:..\common\tterm/TTerm_AC.c ****     
  75              		.loc 1 70 0
  76 000c 8146     		mov	r9, r0
  77 000e 1C46     		mov	r4, r3
  78              		.loc 1 73 0
  79 0010 FFF7FEFF 		bl	strnchr
  80              	.LVL4:
  81 0014 D0B9     		cbnz	r0, .L8
  82              	.LVL5:
  74:..\common\tterm/TTerm_AC.c ****     //UART_print("scanning \"%s\" for matching cmds\r\n", currInput);
  75:..\common\tterm/TTerm_AC.c ****     
  76:..\common\tterm/TTerm_AC.c ****     uint8_t currPos = 0;
  77:..\common\tterm/TTerm_AC.c ****     uint8_t commandsFound = 0;
  78:..\common\tterm/TTerm_AC.c ****     TermCommandDescriptor * currCMD = cmdListHead->nextCmd;
  83              		.loc 1 78 0
  84 0016 E769     		ldr	r7, [r4, #28]
  85              	.LVL6:
  79:..\common\tterm/TTerm_AC.c ****     
  80:..\common\tterm/TTerm_AC.c ****     for(;currPos < cmdListHead->commandLength; currPos++){
  86              		.loc 1 80 0
  87 0018 D4F80CB0 		ldr	fp, [r4, #12]
  88 001c 0546     		mov	r5, r0
  77:..\common\tterm/TTerm_AC.c ****     TermCommandDescriptor * currCMD = cmdListHead->nextCmd;
  89              		.loc 1 77 0
ARM GAS  C:\Users\chemi\AppData\Local\Temp\ccvbJJcw.s 			page 4


  90 001e 0446     		mov	r4, r0
  91              	.LVL7:
  92              	.L4:
  93 0020 EBB2     		uxtb	r3, r5
  94              	.LVL8:
  95              		.loc 1 80 0 discriminator 1
  96 0022 9B45     		cmp	fp, r3
  97 0024 15D9     		bls	.L9
  81:..\common\tterm/TTerm_AC.c ****         if(strncmp(currInput, currCMD->command, length) == 0){
  98              		.loc 1 81 0
  99 0026 7E68     		ldr	r6, [r7, #4]
 100 0028 4246     		mov	r2, r8
 101 002a 3146     		mov	r1, r6
 102 002c 4846     		mov	r0, r9
 103 002e FFF7FEFF 		bl	strncmp
 104              	.LVL9:
 105 0032 38B9     		cbnz	r0, .L5
  82:..\common\tterm/TTerm_AC.c ****             if(currCMD->commandLength >= length){
 106              		.loc 1 82 0
 107 0034 FB68     		ldr	r3, [r7, #12]
 108 0036 9845     		cmp	r8, r3
 109 0038 05D8     		bhi	.L6
  83:..\common\tterm/TTerm_AC.c ****                 buff[commandsFound] = (char*)currCMD->command;
 110              		.loc 1 83 0
 111 003a 4AF82460 		str	r6, [r10, r4, lsl #2]
  84:..\common\tterm/TTerm_AC.c ****                 commandsFound ++;
 112              		.loc 1 84 0
 113 003e 0134     		adds	r4, r4, #1
 114              	.LVL10:
 115 0040 E4B2     		uxtb	r4, r4
 116              	.LVL11:
 117 0042 00E0     		b	.L6
 118              	.L5:
  85:..\common\tterm/TTerm_AC.c ****                 //UART_print("found %s (count is now %d)\r\n", TERM_cmdList[currPos]->command, comm
  86:..\common\tterm/TTerm_AC.c ****             }
  87:..\common\tterm/TTerm_AC.c ****         }else{
  88:..\common\tterm/TTerm_AC.c ****             if(commandsFound > 0) return commandsFound;
 119              		.loc 1 88 0
 120 0044 2CB9     		cbnz	r4, .L9
 121              	.L6:
  89:..\common\tterm/TTerm_AC.c ****         }
  90:..\common\tterm/TTerm_AC.c ****         currCMD = currCMD->nextCmd;
 122              		.loc 1 90 0
 123 0046 FF69     		ldr	r7, [r7, #28]
 124              	.LVL12:
 125 0048 0135     		adds	r5, r5, #1
 126              	.LVL13:
 127 004a E9E7     		b	.L4
 128              	.LVL14:
 129              	.L8:
  73:..\common\tterm/TTerm_AC.c ****     //UART_print("scanning \"%s\" for matching cmds\r\n", currInput);
 130              		.loc 1 73 0
 131 004c 0020     		movs	r0, #0
 132 004e BDE8F88F 		pop	{r3, r4, r5, r6, r7, r8, r9, r10, fp, pc}
 133              	.LVL15:
 134              	.L9:
 135 0052 2046     		mov	r0, r4
ARM GAS  C:\Users\chemi\AppData\Local\Temp\ccvbJJcw.s 			page 5


  91:..\common\tterm/TTerm_AC.c ****     }
  92:..\common\tterm/TTerm_AC.c ****     return commandsFound;
  93:..\common\tterm/TTerm_AC.c **** }
 136              		.loc 1 93 0
 137 0054 BDE8F88F 		pop	{r3, r4, r5, r6, r7, r8, r9, r10, fp, pc}
 138              		.cfi_endproc
 139              	.LFE71:
 140              		.size	TERM_findMatchingCMDs, .-TERM_findMatchingCMDs
 141              		.section	.text.TERM_doAutoComplete,"ax",%progbits
 142              		.align	1
 143              		.global	TERM_doAutoComplete
 144              		.thumb
 145              		.thumb_func
 146              		.type	TERM_doAutoComplete, %function
 147              	TERM_doAutoComplete:
 148              	.LFB70:
  44:..\common\tterm/TTerm_AC.c ****     if(strnchr(handle->inputBuffer, ' ', handle->currBufferLength) != NULL){
 149              		.loc 1 44 0
 150              		.cfi_startproc
 151              		@ args = 0, pretend = 0, frame = 0
 152              		@ frame_needed = 0, uses_anonymous_args = 0
 153              	.LVL16:
 154 0000 70B5     		push	{r4, r5, r6, lr}
 155              		.cfi_def_cfa_offset 16
 156              		.cfi_offset 4, -16
 157              		.cfi_offset 5, -12
 158              		.cfi_offset 6, -8
 159              		.cfi_offset 14, -4
  45:..\common\tterm/TTerm_AC.c ****         TermCommandDescriptor * cmd = TERM_findCMD(handle);
 160              		.loc 1 45 0
 161 0002 C268     		ldr	r2, [r0, #12]
  44:..\common\tterm/TTerm_AC.c ****     if(strnchr(handle->inputBuffer, ' ', handle->currBufferLength) != NULL){
 162              		.loc 1 44 0
 163 0004 0446     		mov	r4, r0
  45:..\common\tterm/TTerm_AC.c ****         TermCommandDescriptor * cmd = TERM_findCMD(handle);
 164              		.loc 1 45 0
 165 0006 2021     		movs	r1, #32
 166 0008 0068     		ldr	r0, [r0]
 167              	.LVL17:
 168 000a FFF7FEFF 		bl	strnchr
 169              	.LVL18:
 170 000e 0546     		mov	r5, r0
 171 0010 78B1     		cbz	r0, .L12
 172              	.LBB10:
  46:..\common\tterm/TTerm_AC.c ****         if(cmd != NULL){
 173              		.loc 1 46 0
 174 0012 2046     		mov	r0, r4
 175 0014 FFF7FEFF 		bl	TERM_findCMD
 176              	.LVL19:
  47:..\common\tterm/TTerm_AC.c ****             if(cmd->ACHandler == 0){
 177              		.loc 1 47 0
 178 0018 08B1     		cbz	r0, .L13
  48:..\common\tterm/TTerm_AC.c ****                 handle->currAutocompleteCount = 0;
 179              		.loc 1 48 0
 180 001a 4369     		ldr	r3, [r0, #20]
 181 001c 23B9     		cbnz	r3, .L14
 182              	.L13:
ARM GAS  C:\Users\chemi\AppData\Local\Temp\ccvbJJcw.s 			page 6


  49:..\common\tterm/TTerm_AC.c ****                 handle->autocompleteStart = 0;
 183              		.loc 1 49 0
 184 001e 0020     		movs	r0, #0
 185              	.LVL20:
 186 0020 2061     		str	r0, [r4, #16]
  50:..\common\tterm/TTerm_AC.c ****                 handle->autocompleteBufferLength = 0;
 187              		.loc 1 50 0
 188 0022 2062     		str	r0, [r4, #32]
  51:..\common\tterm/TTerm_AC.c ****                 return 0;
 189              		.loc 1 51 0
 190 0024 E061     		str	r0, [r4, #28]
  52:..\common\tterm/TTerm_AC.c ****             }else{
 191              		.loc 1 52 0
 192 0026 70BD     		pop	{r4, r5, r6, pc}
 193              	.LVL21:
 194              	.L14:
  54:..\common\tterm/TTerm_AC.c ****             }
 195              		.loc 1 54 0
 196 0028 8169     		ldr	r1, [r0, #24]
 197 002a 2046     		mov	r0, r4
 198              	.LVL22:
 199              	.LBE10:
  68:..\common\tterm/TTerm_AC.c **** 
 200              		.loc 1 68 0
 201 002c BDE87040 		pop	{r4, r5, r6, lr}
 202              		.cfi_remember_state
 203              		.cfi_restore 14
 204              		.cfi_restore 6
 205              		.cfi_restore 5
 206              		.cfi_restore 4
 207              		.cfi_def_cfa_offset 0
 208              	.LVL23:
 209              	.LBB11:
  54:..\common\tterm/TTerm_AC.c ****             }
 210              		.loc 1 54 0
 211 0030 1847     		bx	r3
 212              	.LVL24:
 213              	.L12:
 214              		.cfi_restore_state
 215              	.LBE11:
  62:..\common\tterm/TTerm_AC.c ****         handle->currAutocompleteCount = 0;
 216              		.loc 1 62 0
 217 0032 D4F88C30 		ldr	r3, [r4, #140]
 218 0036 D868     		ldr	r0, [r3, #12]
 219 0038 8000     		lsls	r0, r0, #2
 220 003a FFF7FEFF 		bl	pvPortMalloc
 221              	.LVL25:
  63:..\common\tterm/TTerm_AC.c ****         handle->autocompleteBufferLength = TERM_findMatchingCMDs(handle->inputBuffer, handle->currB
 222              		.loc 1 63 0
 223 003e 2561     		str	r5, [r4, #16]
  62:..\common\tterm/TTerm_AC.c ****         handle->currAutocompleteCount = 0;
 224              		.loc 1 62 0
 225 0040 0246     		mov	r2, r0
 226 0042 A061     		str	r0, [r4, #24]
  64:..\common\tterm/TTerm_AC.c ****         handle->autocompleteStart = 0;
 227              		.loc 1 64 0
 228 0044 D4F88C30 		ldr	r3, [r4, #140]
ARM GAS  C:\Users\chemi\AppData\Local\Temp\ccvbJJcw.s 			page 7


 229 0048 217B     		ldrb	r1, [r4, #12]	@ zero_extendqisi2
 230 004a 2068     		ldr	r0, [r4]
 231 004c FFF7FEFF 		bl	TERM_findMatchingCMDs
 232              	.LVL26:
  65:..\common\tterm/TTerm_AC.c ****         return handle->autocompleteBufferLength;
 233              		.loc 1 65 0
 234 0050 2562     		str	r5, [r4, #32]
  64:..\common\tterm/TTerm_AC.c ****         handle->autocompleteStart = 0;
 235              		.loc 1 64 0
 236 0052 E061     		str	r0, [r4, #28]
  68:..\common\tterm/TTerm_AC.c **** 
 237              		.loc 1 68 0
 238 0054 70BD     		pop	{r4, r5, r6, pc}
 239              		.cfi_endproc
 240              	.LFE70:
 241              		.size	TERM_doAutoComplete, .-TERM_doAutoComplete
 242              		.section	.text.TERM_findLastArg,"ax",%progbits
 243              		.align	1
 244              		.global	TERM_findLastArg
 245              		.thumb
 246              		.thumb_func
 247              		.type	TERM_findLastArg, %function
 248              	TERM_findLastArg:
 249              	.LFB72:
  94:..\common\tterm/TTerm_AC.c **** 
  95:..\common\tterm/TTerm_AC.c **** uint8_t TERM_findLastArg(TERMINAL_HANDLE * handle, char * buff, uint8_t * lenBuff){
 250              		.loc 1 95 0
 251              		.cfi_startproc
 252              		@ args = 0, pretend = 0, frame = 0
 253              		@ frame_needed = 0, uses_anonymous_args = 0
 254              	.LVL27:
 255 0000 F8B5     		push	{r3, r4, r5, r6, r7, lr}
 256              		.cfi_def_cfa_offset 24
 257              		.cfi_offset 3, -24
 258              		.cfi_offset 4, -20
 259              		.cfi_offset 5, -16
 260              		.cfi_offset 6, -12
 261              		.cfi_offset 7, -8
 262              		.cfi_offset 14, -4
 263              		.loc 1 95 0
 264 0002 0646     		mov	r6, r0
  96:..\common\tterm/TTerm_AC.c ****     uint8_t currPos = 0;
  97:..\common\tterm/TTerm_AC.c ****     unsigned quoteMark = 0;
  98:..\common\tterm/TTerm_AC.c ****     char * lastSpace = 0;
  99:..\common\tterm/TTerm_AC.c ****     for(;currPos<handle->currBufferLength; currPos++){
 265              		.loc 1 99 0
 266 0004 0025     		movs	r5, #0
  95:..\common\tterm/TTerm_AC.c ****     uint8_t currPos = 0;
 267              		.loc 1 95 0
 268 0006 0846     		mov	r0, r1
 269              	.LVL28:
  98:..\common\tterm/TTerm_AC.c ****     for(;currPos<handle->currBufferLength; currPos++){
 270              		.loc 1 98 0
 271 0008 2C46     		mov	r4, r5
  97:..\common\tterm/TTerm_AC.c ****     char * lastSpace = 0;
 272              		.loc 1 97 0
 273 000a 2F46     		mov	r7, r5
ARM GAS  C:\Users\chemi\AppData\Local\Temp\ccvbJJcw.s 			page 8


 274              		.loc 1 99 0
 275 000c F368     		ldr	r3, [r6, #12]
 276              	.LVL29:
 277              	.L20:
 278 000e 5FFA85FE 		uxtb	lr, r5
 279              	.LVL30:
 280              		.loc 1 99 0 is_stmt 0 discriminator 1
 281 0012 7345     		cmp	r3, lr
 282 0014 3168     		ldr	r1, [r6]
 283 0016 13D9     		bls	.L26
 100:..\common\tterm/TTerm_AC.c ****         switch(handle->inputBuffer[currPos]){
 284              		.loc 1 100 0 is_stmt 1
 285 0018 01EB0E0C 		add	ip, r1, lr
 286 001c 11F80E10 		ldrb	r1, [r1, lr]	@ zero_extendqisi2
 287 0020 2029     		cmp	r1, #32
 288 0022 02D0     		beq	.L22
 289 0024 2229     		cmp	r1, #34
 290 0026 04D0     		beq	.L23
 291 0028 08E0     		b	.L21
 292              	.L22:
 101:..\common\tterm/TTerm_AC.c ****             case ' ':
 102:..\common\tterm/TTerm_AC.c ****                 if(!quoteMark){
 293              		.loc 1 102 0
 294 002a 002F     		cmp	r7, #0
 295 002c 08BF     		it	eq
 296 002e 6446     		moveq	r4, ip
 297              	.LVL31:
 298 0030 04E0     		b	.L21
 299              	.LVL32:
 300              	.L23:
 103:..\common\tterm/TTerm_AC.c ****                     lastSpace = &handle->inputBuffer[currPos];
 104:..\common\tterm/TTerm_AC.c ****                 }
 105:..\common\tterm/TTerm_AC.c ****                 break;
 106:..\common\tterm/TTerm_AC.c ****                 
 107:..\common\tterm/TTerm_AC.c ****             case '"':
 108:..\common\tterm/TTerm_AC.c ****                 if(quoteMark){
 301              		.loc 1 108 0
 302 0032 17B9     		cbnz	r7, .L25
 303 0034 6446     		mov	r4, ip
 304              	.LVL33:
 109:..\common\tterm/TTerm_AC.c ****                     quoteMark = 0;
 110:..\common\tterm/TTerm_AC.c ****                 }else{
 111:..\common\tterm/TTerm_AC.c ****                     quoteMark = 1;
 305              		.loc 1 111 0
 306 0036 0127     		movs	r7, #1
 307              	.LVL34:
 308 0038 00E0     		b	.L21
 309              	.LVL35:
 310              	.L25:
 109:..\common\tterm/TTerm_AC.c ****                     quoteMark = 0;
 311              		.loc 1 109 0
 312 003a 0027     		movs	r7, #0
 313              	.LVL36:
 314              	.L21:
 315 003c 0135     		adds	r5, r5, #1
 316              	.LVL37:
 317 003e E6E7     		b	.L20
ARM GAS  C:\Users\chemi\AppData\Local\Temp\ccvbJJcw.s 			page 9


 318              	.LVL38:
 319              	.L26:
 112:..\common\tterm/TTerm_AC.c ****                     lastSpace = &handle->inputBuffer[currPos];
 113:..\common\tterm/TTerm_AC.c ****                 }
 114:..\common\tterm/TTerm_AC.c ****                         
 115:..\common\tterm/TTerm_AC.c ****                 break;
 116:..\common\tterm/TTerm_AC.c ****             default:
 117:..\common\tterm/TTerm_AC.c ****                 break;
 118:..\common\tterm/TTerm_AC.c ****         }
 119:..\common\tterm/TTerm_AC.c ****     }
 120:..\common\tterm/TTerm_AC.c ****     
 121:..\common\tterm/TTerm_AC.c ****     *lenBuff = handle->currBufferLength - (lastSpace - handle->inputBuffer) - 1;
 320              		.loc 1 121 0
 321 0040 611A     		subs	r1, r4, r1
 322 0042 013B     		subs	r3, r3, #1
 323 0044 5B1A     		subs	r3, r3, r1
 324 0046 DBB2     		uxtb	r3, r3
 325 0048 1370     		strb	r3, [r2]
 122:..\common\tterm/TTerm_AC.c ****     memcpy(buff, lastSpace + 1, *lenBuff + 1);
 326              		.loc 1 122 0
 327 004a 611C     		adds	r1, r4, #1
 328 004c 5A1C     		adds	r2, r3, #1
 329              	.LVL39:
 330 004e FFF7FEFF 		bl	memcpy
 331              	.LVL40:
 123:..\common\tterm/TTerm_AC.c ****     return (lastSpace - handle->inputBuffer) + ((*lastSpace == '"') ? 0 : 1);
 332              		.loc 1 123 0
 333 0052 3068     		ldr	r0, [r6]
 334 0054 2378     		ldrb	r3, [r4]	@ zero_extendqisi2
 335 0056 201A     		subs	r0, r4, r0
 336 0058 222B     		cmp	r3, #34
 337 005a 18BF     		it	ne
 338 005c 0130     		addne	r0, r0, #1
 124:..\common\tterm/TTerm_AC.c **** }
 339              		.loc 1 124 0
 340 005e C0B2     		uxtb	r0, r0
 341 0060 F8BD     		pop	{r3, r4, r5, r6, r7, pc}
 342              		.cfi_endproc
 343              	.LFE72:
 344              		.size	TERM_findLastArg, .-TERM_findLastArg
 345              		.section	.text.TERM_doListAC,"ax",%progbits
 346              		.align	1
 347              		.global	TERM_doListAC
 348              		.thumb
 349              		.thumb_func
 350              		.type	TERM_doListAC, %function
 351              	TERM_doListAC:
 352              	.LFB73:
 125:..\common\tterm/TTerm_AC.c **** 
 126:..\common\tterm/TTerm_AC.c **** uint8_t TERM_doListAC(AC_LIST_HEAD * head, char * currInput, uint8_t length, char ** buff){
 353              		.loc 1 126 0
 354              		.cfi_startproc
 355              		@ args = 0, pretend = 0, frame = 0
 356              		@ frame_needed = 0, uses_anonymous_args = 0
 357              	.LVL41:
 358 0000 2DE9F84F 		push	{r3, r4, r5, r6, r7, r8, r9, r10, fp, lr}
 359              		.cfi_def_cfa_offset 40
ARM GAS  C:\Users\chemi\AppData\Local\Temp\ccvbJJcw.s 			page 10


 360              		.cfi_offset 3, -40
 361              		.cfi_offset 4, -36
 362              		.cfi_offset 5, -32
 363              		.cfi_offset 6, -28
 364              		.cfi_offset 7, -24
 365              		.cfi_offset 8, -20
 366              		.cfi_offset 9, -16
 367              		.cfi_offset 10, -12
 368              		.cfi_offset 11, -8
 369              		.cfi_offset 14, -4
 127:..\common\tterm/TTerm_AC.c ****     uint8_t currPos = 0;
 128:..\common\tterm/TTerm_AC.c ****     uint8_t commandsFound = 0;
 129:..\common\tterm/TTerm_AC.c ****     //UART_print("\r\nStart scan\r\n", buff[commandsFound], commandsFound+1);
 130:..\common\tterm/TTerm_AC.c ****     
 131:..\common\tterm/TTerm_AC.c ****     if(head->isConst){
 370              		.loc 1 131 0
 371 0004 0568     		ldr	r5, [r0]
 126:..\common\tterm/TTerm_AC.c ****     uint8_t currPos = 0;
 372              		.loc 1 126 0
 373 0006 8946     		mov	r9, r1
 374 0008 1746     		mov	r7, r2
 375 000a 9A46     		mov	r10, r3
 376 000c 8668     		ldr	r6, [r0, #8]
 377 000e D0F80480 		ldr	r8, [r0, #4]
 378              		.loc 1 131 0
 379 0012 BDB1     		cbz	r5, .L28
 380              	.LVL42:
 381              	.LBB19:
 132:..\common\tterm/TTerm_AC.c ****         char ** strings = (char **) head->first;
 133:..\common\tterm/TTerm_AC.c ****         
 134:..\common\tterm/TTerm_AC.c ****         for(;currPos < head->elementCount; currPos++){
 382              		.loc 1 134 0
 383 0014 0025     		movs	r5, #0
 384              	.LBE19:
 128:..\common\tterm/TTerm_AC.c ****     //UART_print("\r\nStart scan\r\n", buff[commandsFound], commandsFound+1);
 385              		.loc 1 128 0
 386 0016 2C46     		mov	r4, r5
 387              	.LVL43:
 388              	.L29:
 389 0018 EBB2     		uxtb	r3, r5
 390              	.LVL44:
 391              	.LBB20:
 392              		.loc 1 134 0 discriminator 1
 393 001a 9845     		cmp	r8, r3
 394 001c 2ED9     		bls	.L32
 135:..\common\tterm/TTerm_AC.c ****             //UART_print("\r\nchecking \"%s\"", strings[currPos]);
 136:..\common\tterm/TTerm_AC.c ****             if(strncmp(currInput, strings[currPos], length) == 0){
 395              		.loc 1 136 0
 396 001e 56F823B0 		ldr	fp, [r6, r3, lsl #2]
 397 0022 3A46     		mov	r2, r7
 398 0024 5946     		mov	r1, fp
 399 0026 4846     		mov	r0, r9
 400 0028 FFF7FEFF 		bl	strncmp
 401              	.LVL45:
 402 002c 40B9     		cbnz	r0, .L30
 137:..\common\tterm/TTerm_AC.c ****                 if(strlen(strings[currPos]) >= length){
 403              		.loc 1 137 0
ARM GAS  C:\Users\chemi\AppData\Local\Temp\ccvbJJcw.s 			page 11


 404 002e 5846     		mov	r0, fp
 405 0030 FFF7FEFF 		bl	strlen
 406              	.LVL46:
 407 0034 8742     		cmp	r7, r0
 138:..\common\tterm/TTerm_AC.c ****                     buff[commandsFound] = strings[currPos];
 408              		.loc 1 138 0
 409 0036 9EBF     		ittt	ls
 410 0038 4AF824B0 		strls	fp, [r10, r4, lsl #2]
 139:..\common\tterm/TTerm_AC.c ****                     commandsFound ++;
 411              		.loc 1 139 0
 412 003c 0134     		addls	r4, r4, #1
 413              	.LVL47:
 414 003e E4B2     		uxtbls	r4, r4
 415              	.LVL48:
 416              	.L30:
 417 0040 0135     		adds	r5, r5, #1
 418              	.LVL49:
 419 0042 E9E7     		b	.L29
 420              	.LVL50:
 421              	.L28:
 422              	.LBE20:
 423              	.LBB21:
 424              	.LBB22:
 425              	.LBB23:
 140:..\common\tterm/TTerm_AC.c ****                     //UART_print(" -> found match (count is now %d)", commandsFound);
 141:..\common\tterm/TTerm_AC.c ****                 }
 142:..\common\tterm/TTerm_AC.c ****             }
 143:..\common\tterm/TTerm_AC.c ****         }
 144:..\common\tterm/TTerm_AC.c ****         //UART_print("\r\n-----list done-----\r\n");
 145:..\common\tterm/TTerm_AC.c ****     }else{
 146:..\common\tterm/TTerm_AC.c ****         AC_LIST_ELEMENT * curr = head->first;
 426              		.loc 1 146 0
 427 0044 B346     		mov	fp, r6
 428              	.LVL51:
 429              	.LBE23:
 128:..\common\tterm/TTerm_AC.c ****     //UART_print("\r\nStart scan\r\n", buff[commandsFound], commandsFound+1);
 430              		.loc 1 128 0
 431 0046 2C46     		mov	r4, r5
 432              	.LVL52:
 433              	.L33:
 434 0048 EBB2     		uxtb	r3, r5
 435              	.LVL53:
 436              	.LBB26:
 147:..\common\tterm/TTerm_AC.c ****         for(;currPos < head->elementCount; currPos++){
 437              		.loc 1 147 0
 438 004a 9845     		cmp	r8, r3
 439 004c 16D9     		bls	.L32
 148:..\common\tterm/TTerm_AC.c ****             if(strncmp(currInput, curr->string, length) == 0){
 440              		.loc 1 148 0
 441 004e DBF80460 		ldr	r6, [fp, #4]
 442 0052 3A46     		mov	r2, r7
 443 0054 3146     		mov	r1, r6
 444 0056 4846     		mov	r0, r9
 445 0058 FFF7FEFF 		bl	strncmp
 446              	.LVL54:
 447 005c 40B9     		cbnz	r0, .L34
 149:..\common\tterm/TTerm_AC.c ****                 if(strlen(curr->string) >= length){
ARM GAS  C:\Users\chemi\AppData\Local\Temp\ccvbJJcw.s 			page 12


 448              		.loc 1 149 0
 449 005e 3046     		mov	r0, r6
 450 0060 FFF7FEFF 		bl	strlen
 451              	.LVL55:
 452 0064 8742     		cmp	r7, r0
 150:..\common\tterm/TTerm_AC.c ****                     buff[commandsFound] = curr->string;
 453              		.loc 1 150 0
 454 0066 9EBF     		ittt	ls
 455 0068 4AF82460 		strls	r6, [r10, r4, lsl #2]
 151:..\common\tterm/TTerm_AC.c ****                     commandsFound ++;
 456              		.loc 1 151 0
 457 006c 0134     		addls	r4, r4, #1
 458              	.LVL56:
 459 006e E4B2     		uxtbls	r4, r4
 460              	.LVL57:
 461              	.L34:
 462              	.LBB24:
 463              	.LBB25:
 152:..\common\tterm/TTerm_AC.c ****                     //UART_print("found %s (count is now %d)\r\n", buff[commandsFound], commandsFou
 153:..\common\tterm/TTerm_AC.c ****                 }
 154:..\common\tterm/TTerm_AC.c ****             }
 155:..\common\tterm/TTerm_AC.c ****             curr = ACL_getNext(curr);
 156:..\common\tterm/TTerm_AC.c ****             if(curr == 0) break;
 157:..\common\tterm/TTerm_AC.c ****         }
 158:..\common\tterm/TTerm_AC.c ****     }
 159:..\common\tterm/TTerm_AC.c ****     return commandsFound;
 160:..\common\tterm/TTerm_AC.c **** }
 161:..\common\tterm/TTerm_AC.c **** 
 162:..\common\tterm/TTerm_AC.c **** uint8_t ACL_defaultCompleter(TERMINAL_HANDLE * handle, void * params){
 163:..\common\tterm/TTerm_AC.c ****     if(params == 0){ 
 164:..\common\tterm/TTerm_AC.c ****         handle->autocompleteBufferLength = 0;
 165:..\common\tterm/TTerm_AC.c ****         return 0;
 166:..\common\tterm/TTerm_AC.c ****     }
 167:..\common\tterm/TTerm_AC.c ****     
 168:..\common\tterm/TTerm_AC.c ****     AC_LIST_HEAD * list = (AC_LIST_HEAD *) params;
 169:..\common\tterm/TTerm_AC.c ****     
 170:..\common\tterm/TTerm_AC.c ****     char * buff = pvPortMalloc(128);
 171:..\common\tterm/TTerm_AC.c ****     uint8_t len;
 172:..\common\tterm/TTerm_AC.c ****     memset(buff, 0, 128);
 173:..\common\tterm/TTerm_AC.c ****     handle->autocompleteStart = TERM_findLastArg(handle, buff, &len);
 174:..\common\tterm/TTerm_AC.c ****     
 175:..\common\tterm/TTerm_AC.c ****     //TODO use a reasonable size here
 176:..\common\tterm/TTerm_AC.c ****     handle->autocompleteBuffer = pvPortMalloc(list->elementCount * sizeof(char *));
 177:..\common\tterm/TTerm_AC.c ****     handle->currAutocompleteCount = 0;
 178:..\common\tterm/TTerm_AC.c ****     handle->autocompleteBufferLength = TERM_doListAC(list, buff, len, handle->autocompleteBuffer);
 179:..\common\tterm/TTerm_AC.c ****         
 180:..\common\tterm/TTerm_AC.c ****     vPortFree(buff);
 181:..\common\tterm/TTerm_AC.c ****     return handle->autocompleteBufferLength;
 182:..\common\tterm/TTerm_AC.c **** }
 183:..\common\tterm/TTerm_AC.c **** 
 184:..\common\tterm/TTerm_AC.c **** AC_LIST_ELEMENT * ACL_getNext(AC_LIST_ELEMENT * currElement){
 185:..\common\tterm/TTerm_AC.c ****     return currElement->next;
 464              		.loc 1 185 0
 465 0070 DBF800B0 		ldr	fp, [fp]
 466              	.LVL58:
 467 0074 0135     		adds	r5, r5, #1
 468              	.LVL59:
ARM GAS  C:\Users\chemi\AppData\Local\Temp\ccvbJJcw.s 			page 13


 469              	.LBE25:
 470              	.LBE24:
 156:..\common\tterm/TTerm_AC.c ****         }
 471              		.loc 1 156 0
 472 0076 BBF1000F 		cmp	fp, #0
 473 007a E5D1     		bne	.L33
 474              	.LVL60:
 475              	.L32:
 476              	.LBE26:
 477              	.LBE22:
 478              	.LBE21:
 160:..\common\tterm/TTerm_AC.c **** 
 479              		.loc 1 160 0
 480 007c 2046     		mov	r0, r4
 481 007e BDE8F88F 		pop	{r3, r4, r5, r6, r7, r8, r9, r10, fp, pc}
 482              		.cfi_endproc
 483              	.LFE73:
 484              		.size	TERM_doListAC, .-TERM_doListAC
 485              		.section	.text.ACL_defaultCompleter,"ax",%progbits
 486              		.align	1
 487              		.global	ACL_defaultCompleter
 488              		.thumb
 489              		.thumb_func
 490              		.type	ACL_defaultCompleter, %function
 491              	ACL_defaultCompleter:
 492              	.LFB74:
 162:..\common\tterm/TTerm_AC.c ****     if(params == 0){ 
 493              		.loc 1 162 0
 494              		.cfi_startproc
 495              		@ args = 0, pretend = 0, frame = 8
 496              		@ frame_needed = 0, uses_anonymous_args = 0
 497              	.LVL61:
 498 0000 73B5     		push	{r0, r1, r4, r5, r6, lr}
 499              		.cfi_def_cfa_offset 24
 500              		.cfi_offset 4, -16
 501              		.cfi_offset 5, -12
 502              		.cfi_offset 6, -8
 503              		.cfi_offset 14, -4
 162:..\common\tterm/TTerm_AC.c ****     if(params == 0){ 
 504              		.loc 1 162 0
 505 0002 0546     		mov	r5, r0
 163:..\common\tterm/TTerm_AC.c ****         handle->autocompleteBufferLength = 0;
 506              		.loc 1 163 0
 507 0004 0C46     		mov	r4, r1
 508 0006 11B9     		cbnz	r1, .L40
 164:..\common\tterm/TTerm_AC.c ****         return 0;
 509              		.loc 1 164 0
 510 0008 E961     		str	r1, [r5, #28]
 165:..\common\tterm/TTerm_AC.c ****     }
 511              		.loc 1 165 0
 512 000a 0846     		mov	r0, r1
 513              	.LVL62:
 514 000c 21E0     		b	.L41
 515              	.LVL63:
 516              	.L40:
 170:..\common\tterm/TTerm_AC.c ****     uint8_t len;
 517              		.loc 1 170 0
ARM GAS  C:\Users\chemi\AppData\Local\Temp\ccvbJJcw.s 			page 14


 518 000e 8020     		movs	r0, #128
 519              	.LVL64:
 520 0010 FFF7FEFF 		bl	pvPortMalloc
 521              	.LVL65:
 522 0014 0646     		mov	r6, r0
 523              	.LVL66:
 172:..\common\tterm/TTerm_AC.c ****     handle->autocompleteStart = TERM_findLastArg(handle, buff, &len);
 524              		.loc 1 172 0
 525 0016 8022     		movs	r2, #128
 526 0018 0021     		movs	r1, #0
 527 001a FFF7FEFF 		bl	memset
 528              	.LVL67:
 173:..\common\tterm/TTerm_AC.c ****     
 529              		.loc 1 173 0
 530 001e 0DF10702 		add	r2, sp, #7
 531 0022 3146     		mov	r1, r6
 532 0024 2846     		mov	r0, r5
 533 0026 FFF7FEFF 		bl	TERM_findLastArg
 534              	.LVL68:
 535 002a 2862     		str	r0, [r5, #32]
 176:..\common\tterm/TTerm_AC.c ****     handle->currAutocompleteCount = 0;
 536              		.loc 1 176 0
 537 002c 6068     		ldr	r0, [r4, #4]
 538 002e 8000     		lsls	r0, r0, #2
 539 0030 FFF7FEFF 		bl	pvPortMalloc
 540              	.LVL69:
 177:..\common\tterm/TTerm_AC.c ****     handle->autocompleteBufferLength = TERM_doListAC(list, buff, len, handle->autocompleteBuffer);
 541              		.loc 1 177 0
 542 0034 0022     		movs	r2, #0
 176:..\common\tterm/TTerm_AC.c ****     handle->currAutocompleteCount = 0;
 543              		.loc 1 176 0
 544 0036 0346     		mov	r3, r0
 545 0038 A861     		str	r0, [r5, #24]
 177:..\common\tterm/TTerm_AC.c ****     handle->autocompleteBufferLength = TERM_doListAC(list, buff, len, handle->autocompleteBuffer);
 546              		.loc 1 177 0
 547 003a 2A61     		str	r2, [r5, #16]
 178:..\common\tterm/TTerm_AC.c ****         
 548              		.loc 1 178 0
 549 003c 3146     		mov	r1, r6
 550 003e 9DF80720 		ldrb	r2, [sp, #7]	@ zero_extendqisi2
 551 0042 2046     		mov	r0, r4
 552 0044 FFF7FEFF 		bl	TERM_doListAC
 553              	.LVL70:
 554 0048 E861     		str	r0, [r5, #28]
 180:..\common\tterm/TTerm_AC.c ****     return handle->autocompleteBufferLength;
 555              		.loc 1 180 0
 556 004a 3046     		mov	r0, r6
 557 004c FFF7FEFF 		bl	vPortFree
 558              	.LVL71:
 181:..\common\tterm/TTerm_AC.c **** }
 559              		.loc 1 181 0
 560 0050 287F     		ldrb	r0, [r5, #28]	@ zero_extendqisi2
 561              	.LVL72:
 562              	.L41:
 182:..\common\tterm/TTerm_AC.c **** 
 563              		.loc 1 182 0
 564 0052 02B0     		add	sp, sp, #8
ARM GAS  C:\Users\chemi\AppData\Local\Temp\ccvbJJcw.s 			page 15


 565              		.cfi_def_cfa_offset 16
 566              		@ sp needed
 567 0054 70BD     		pop	{r4, r5, r6, pc}
 568              		.cfi_endproc
 569              	.LFE74:
 570              		.size	ACL_defaultCompleter, .-ACL_defaultCompleter
 571              		.section	.text.ACL_getNext,"ax",%progbits
 572              		.align	1
 573              		.global	ACL_getNext
 574              		.thumb
 575              		.thumb_func
 576              		.type	ACL_getNext, %function
 577              	ACL_getNext:
 578              	.LFB75:
 184:..\common\tterm/TTerm_AC.c ****     return currElement->next;
 579              		.loc 1 184 0
 580              		.cfi_startproc
 581              		@ args = 0, pretend = 0, frame = 0
 582              		@ frame_needed = 0, uses_anonymous_args = 0
 583              		@ link register save eliminated.
 584              	.LVL73:
 186:..\common\tterm/TTerm_AC.c **** }
 585              		.loc 1 186 0
 586 0000 0068     		ldr	r0, [r0]
 587              	.LVL74:
 588 0002 7047     		bx	lr
 589              		.cfi_endproc
 590              	.LFE75:
 591              		.size	ACL_getNext, .-ACL_getNext
 592              		.section	.text.ACL_create,"ax",%progbits
 593              		.align	1
 594              		.global	ACL_create
 595              		.thumb
 596              		.thumb_func
 597              		.type	ACL_create, %function
 598              	ACL_create:
 599              	.LFB76:
 187:..\common\tterm/TTerm_AC.c **** 
 188:..\common\tterm/TTerm_AC.c **** AC_LIST_HEAD * ACL_create(){
 600              		.loc 1 188 0
 601              		.cfi_startproc
 602              		@ args = 0, pretend = 0, frame = 0
 603              		@ frame_needed = 0, uses_anonymous_args = 0
 604 0000 08B5     		push	{r3, lr}
 605              		.cfi_def_cfa_offset 8
 606              		.cfi_offset 3, -8
 607              		.cfi_offset 14, -4
 189:..\common\tterm/TTerm_AC.c ****     AC_LIST_HEAD * ret = pvPortMalloc(sizeof(AC_LIST_HEAD));
 608              		.loc 1 189 0
 609 0002 0C20     		movs	r0, #12
 610 0004 FFF7FEFF 		bl	pvPortMalloc
 611              	.LVL75:
 190:..\common\tterm/TTerm_AC.c ****     ret->elementCount = 0;
 612              		.loc 1 190 0
 613 0008 0022     		movs	r2, #0
 614 000a 4260     		str	r2, [r0, #4]
 191:..\common\tterm/TTerm_AC.c ****     ret->first = 0;
ARM GAS  C:\Users\chemi\AppData\Local\Temp\ccvbJJcw.s 			page 16


 615              		.loc 1 191 0
 616 000c 8260     		str	r2, [r0, #8]
 192:..\common\tterm/TTerm_AC.c ****     ret->isConst = 0;
 617              		.loc 1 192 0
 618 000e 0260     		str	r2, [r0]
 193:..\common\tterm/TTerm_AC.c ****     return ret;
 194:..\common\tterm/TTerm_AC.c **** }
 619              		.loc 1 194 0
 620 0010 08BD     		pop	{r3, pc}
 621              		.cfi_endproc
 622              	.LFE76:
 623              		.size	ACL_create, .-ACL_create
 624              		.section	.text.ACL_createConst,"ax",%progbits
 625              		.align	1
 626              		.global	ACL_createConst
 627              		.thumb
 628              		.thumb_func
 629              		.type	ACL_createConst, %function
 630              	ACL_createConst:
 631              	.LFB77:
 195:..\common\tterm/TTerm_AC.c **** 
 196:..\common\tterm/TTerm_AC.c **** AC_LIST_HEAD * ACL_createConst(char ** strings, uint32_t count){
 632              		.loc 1 196 0
 633              		.cfi_startproc
 634              		@ args = 0, pretend = 0, frame = 0
 635              		@ frame_needed = 0, uses_anonymous_args = 0
 636              	.LVL76:
 637 0000 70B5     		push	{r4, r5, r6, lr}
 638              		.cfi_def_cfa_offset 16
 639              		.cfi_offset 4, -16
 640              		.cfi_offset 5, -12
 641              		.cfi_offset 6, -8
 642              		.cfi_offset 14, -4
 643              		.loc 1 196 0
 644 0002 0646     		mov	r6, r0
 197:..\common\tterm/TTerm_AC.c ****     AC_LIST_HEAD * ret = pvPortMalloc(sizeof(AC_LIST_HEAD));
 645              		.loc 1 197 0
 646 0004 0C20     		movs	r0, #12
 647              	.LVL77:
 196:..\common\tterm/TTerm_AC.c ****     AC_LIST_HEAD * ret = pvPortMalloc(sizeof(AC_LIST_HEAD));
 648              		.loc 1 196 0
 649 0006 0C46     		mov	r4, r1
 650              		.loc 1 197 0
 651 0008 FFF7FEFF 		bl	pvPortMalloc
 652              	.LVL78:
 653 000c 0546     		mov	r5, r0
 654              	.LVL79:
 198:..\common\tterm/TTerm_AC.c ****     
 199:..\common\tterm/TTerm_AC.c ****     if(count == 0){  //autocount (requires "__LIST_END__" string)
 655              		.loc 1 199 0
 656 000e 3CB9     		cbnz	r4, .L45
 657              	.LVL80:
 658              	.L46:
 659              	.LBB27:
 200:..\common\tterm/TTerm_AC.c ****         uint32_t currCount = 0;
 201:..\common\tterm/TTerm_AC.c ****         while(strcmp(strings[currCount], "__LIST_END__") != 0) currCount ++;
 660              		.loc 1 201 0 discriminator 1
ARM GAS  C:\Users\chemi\AppData\Local\Temp\ccvbJJcw.s 			page 17


 661 0010 0649     		ldr	r1, .L49
 662 0012 56F82400 		ldr	r0, [r6, r4, lsl #2]
 663 0016 FFF7FEFF 		bl	strcmp
 664              	.LVL81:
 665 001a 08B1     		cbz	r0, .L45
 666              		.loc 1 201 0 is_stmt 0 discriminator 2
 667 001c 0134     		adds	r4, r4, #1
 668              	.LVL82:
 669 001e F7E7     		b	.L46
 670              	.LVL83:
 671              	.L45:
 672              	.LBE27:
 202:..\common\tterm/TTerm_AC.c ****         ret->elementCount = currCount;
 203:..\common\tterm/TTerm_AC.c ****     }else{
 204:..\common\tterm/TTerm_AC.c ****         ret->elementCount = count;
 205:..\common\tterm/TTerm_AC.c ****     }
 206:..\common\tterm/TTerm_AC.c ****     
 207:..\common\tterm/TTerm_AC.c ****     ret->first = (AC_LIST_ELEMENT *) strings;
 208:..\common\tterm/TTerm_AC.c ****     ret->isConst = 1;
 673              		.loc 1 208 0 is_stmt 1
 674 0020 0123     		movs	r3, #1
 204:..\common\tterm/TTerm_AC.c ****     }
 675              		.loc 1 204 0
 676 0022 6C60     		str	r4, [r5, #4]
 207:..\common\tterm/TTerm_AC.c ****     ret->isConst = 1;
 677              		.loc 1 207 0
 678 0024 AE60     		str	r6, [r5, #8]
 679              		.loc 1 208 0
 680 0026 2B60     		str	r3, [r5]
 209:..\common\tterm/TTerm_AC.c ****     return (AC_LIST_HEAD *) ret;
 210:..\common\tterm/TTerm_AC.c **** }
 681              		.loc 1 210 0
 682 0028 2846     		mov	r0, r5
 683 002a 70BD     		pop	{r4, r5, r6, pc}
 684              	.LVL84:
 685              	.L50:
 686              		.align	2
 687              	.L49:
 688 002c 00000000 		.word	.LC0
 689              		.cfi_endproc
 690              	.LFE77:
 691              		.size	ACL_createConst, .-ACL_createConst
 692              		.section	.text.ACL_find,"ax",%progbits
 693              		.align	1
 694              		.global	ACL_find
 695              		.thumb
 696              		.thumb_func
 697              		.type	ACL_find, %function
 698              	ACL_find:
 699              	.LFB78:
 211:..\common\tterm/TTerm_AC.c **** 
 212:..\common\tterm/TTerm_AC.c **** AC_LIST_ELEMENT * ACL_find(AC_LIST_HEAD * head, char * string){
 700              		.loc 1 212 0
 701              		.cfi_startproc
 702              		@ args = 0, pretend = 0, frame = 0
 703              		@ frame_needed = 0, uses_anonymous_args = 0
 704              	.LVL85:
ARM GAS  C:\Users\chemi\AppData\Local\Temp\ccvbJJcw.s 			page 18


 705 0000 2DE9F843 		push	{r3, r4, r5, r6, r7, r8, r9, lr}
 706              		.cfi_def_cfa_offset 32
 707              		.cfi_offset 3, -32
 708              		.cfi_offset 4, -28
 709              		.cfi_offset 5, -24
 710              		.cfi_offset 6, -20
 711              		.cfi_offset 7, -16
 712              		.cfi_offset 8, -12
 713              		.cfi_offset 9, -8
 714              		.cfi_offset 14, -4
 213:..\common\tterm/TTerm_AC.c ****     if(head->elementCount == 0) return 0;
 715              		.loc 1 213 0
 716 0004 4568     		ldr	r5, [r0, #4]
 212:..\common\tterm/TTerm_AC.c ****     if(head->elementCount == 0) return 0;
 717              		.loc 1 212 0
 718 0006 0F46     		mov	r7, r1
 719              		.loc 1 213 0
 720 0008 B5B1     		cbz	r5, .L59
 721              	.LVL86:
 214:..\common\tterm/TTerm_AC.c ****     uint32_t currPos = 0;
 215:..\common\tterm/TTerm_AC.c ****     AC_LIST_ELEMENT * currComp = head->first;
 722              		.loc 1 215 0
 723 000a 8468     		ldr	r4, [r0, #8]
 724              	.LVL87:
 214:..\common\tterm/TTerm_AC.c ****     uint32_t currPos = 0;
 725              		.loc 1 214 0
 726 000c 0026     		movs	r6, #0
 727              	.LVL88:
 728              	.L54:
 216:..\common\tterm/TTerm_AC.c ****     
 217:..\common\tterm/TTerm_AC.c ****     for(;currPos < head->elementCount; currPos++){
 218:..\common\tterm/TTerm_AC.c ****         if((strlen(currComp->string) == strlen(string)) && (strcmp(currComp->string, string) == 0))
 729              		.loc 1 218 0
 730 000e D4F80480 		ldr	r8, [r4, #4]
 731 0012 4046     		mov	r0, r8
 732 0014 FFF7FEFF 		bl	strlen
 733              	.LVL89:
 734 0018 8146     		mov	r9, r0
 735 001a 3846     		mov	r0, r7
 736 001c FFF7FEFF 		bl	strlen
 737              	.LVL90:
 738 0020 8145     		cmp	r9, r0
 739 0022 04D1     		bne	.L53
 740              		.loc 1 218 0 is_stmt 0 discriminator 1
 741 0024 3946     		mov	r1, r7
 742 0026 4046     		mov	r0, r8
 743 0028 FFF7FEFF 		bl	strcmp
 744              	.LVL91:
 745 002c 38B1     		cbz	r0, .L56
 746              	.L53:
 219:..\common\tterm/TTerm_AC.c ****             return currComp;
 220:..\common\tterm/TTerm_AC.c ****         }
 221:..\common\tterm/TTerm_AC.c ****         if(currComp->next == 0) return 0;
 747              		.loc 1 221 0 is_stmt 1
 748 002e 2468     		ldr	r4, [r4]
 749              	.LVL92:
 750 0030 14B1     		cbz	r4, .L59
ARM GAS  C:\Users\chemi\AppData\Local\Temp\ccvbJJcw.s 			page 19


 751              	.LVL93:
 217:..\common\tterm/TTerm_AC.c ****         if((strlen(currComp->string) == strlen(string)) && (strcmp(currComp->string, string) == 0))
 752              		.loc 1 217 0
 753 0032 0136     		adds	r6, r6, #1
 754              	.LVL94:
 755 0034 B542     		cmp	r5, r6
 756 0036 EAD1     		bne	.L54
 757              	.LVL95:
 758              	.L59:
 213:..\common\tterm/TTerm_AC.c ****     uint32_t currPos = 0;
 759              		.loc 1 213 0
 760 0038 0020     		movs	r0, #0
 761 003a BDE8F883 		pop	{r3, r4, r5, r6, r7, r8, r9, pc}
 762              	.LVL96:
 763              	.L56:
 764 003e 2046     		mov	r0, r4
 765 0040 BDE8F883 		pop	{r3, r4, r5, r6, r7, r8, r9, pc}
 766              		.cfi_endproc
 767              	.LFE78:
 768              		.size	ACL_find, .-ACL_find
 769              		.section	.text.ACL_remove,"ax",%progbits
 770              		.align	1
 771              		.global	ACL_remove
 772              		.thumb
 773              		.thumb_func
 774              		.type	ACL_remove, %function
 775              	ACL_remove:
 776              	.LFB80:
 222:..\common\tterm/TTerm_AC.c ****         currComp = currComp->next;
 223:..\common\tterm/TTerm_AC.c ****     }
 224:..\common\tterm/TTerm_AC.c ****     return 0;
 225:..\common\tterm/TTerm_AC.c **** }
 226:..\common\tterm/TTerm_AC.c **** 
 227:..\common\tterm/TTerm_AC.c **** void ACL_add(AC_LIST_HEAD * head, char * string){
 228:..\common\tterm/TTerm_AC.c ****     if(head->isConst || ACL_find(head, string) != 0) return;
 229:..\common\tterm/TTerm_AC.c ****     
 230:..\common\tterm/TTerm_AC.c ****     if(head->elementCount == 0){
 231:..\common\tterm/TTerm_AC.c ****         AC_LIST_ELEMENT * newElement = pvPortMalloc(sizeof(AC_LIST_ELEMENT));
 232:..\common\tterm/TTerm_AC.c ****         newElement->string = string;
 233:..\common\tterm/TTerm_AC.c ****         newElement->next = 0;
 234:..\common\tterm/TTerm_AC.c ****         head->first = newElement;
 235:..\common\tterm/TTerm_AC.c ****         head->elementCount ++;
 236:..\common\tterm/TTerm_AC.c ****         return;
 237:..\common\tterm/TTerm_AC.c ****     }
 238:..\common\tterm/TTerm_AC.c ****     
 239:..\common\tterm/TTerm_AC.c ****     uint32_t currPos = 0;
 240:..\common\tterm/TTerm_AC.c ****     AC_LIST_ELEMENT ** lastComp = &head->first;
 241:..\common\tterm/TTerm_AC.c ****     AC_LIST_ELEMENT * currComp = head->first;
 242:..\common\tterm/TTerm_AC.c ****     
 243:..\common\tterm/TTerm_AC.c ****     while(currPos < head->elementCount){
 244:..\common\tterm/TTerm_AC.c ****         if(ACL_isSorted(currComp->string, string)){
 245:..\common\tterm/TTerm_AC.c ****             AC_LIST_ELEMENT * newElement = pvPortMalloc(sizeof(AC_LIST_ELEMENT));
 246:..\common\tterm/TTerm_AC.c ****             newElement->string = string;
 247:..\common\tterm/TTerm_AC.c **** 
 248:..\common\tterm/TTerm_AC.c ****             *lastComp = newElement;
 249:..\common\tterm/TTerm_AC.c ****             newElement->next = currComp;
 250:..\common\tterm/TTerm_AC.c **** 
ARM GAS  C:\Users\chemi\AppData\Local\Temp\ccvbJJcw.s 			page 20


 251:..\common\tterm/TTerm_AC.c ****             head->elementCount ++;
 252:..\common\tterm/TTerm_AC.c ****             
 253:..\common\tterm/TTerm_AC.c ****             break;
 254:..\common\tterm/TTerm_AC.c ****         }
 255:..\common\tterm/TTerm_AC.c ****         if(currComp->next == 0){
 256:..\common\tterm/TTerm_AC.c ****             AC_LIST_ELEMENT * newElement = pvPortMalloc(sizeof(AC_LIST_ELEMENT));
 257:..\common\tterm/TTerm_AC.c ****             newElement->string = string;
 258:..\common\tterm/TTerm_AC.c ****             newElement->string = string;
 259:..\common\tterm/TTerm_AC.c ****             newElement->next = currComp->next;
 260:..\common\tterm/TTerm_AC.c ****             currComp->next = newElement;
 261:..\common\tterm/TTerm_AC.c ****             head->elementCount ++;
 262:..\common\tterm/TTerm_AC.c ****             return;
 263:..\common\tterm/TTerm_AC.c ****         }
 264:..\common\tterm/TTerm_AC.c ****         lastComp = &currComp->next;
 265:..\common\tterm/TTerm_AC.c ****         currComp = currComp->next;
 266:..\common\tterm/TTerm_AC.c ****     }
 267:..\common\tterm/TTerm_AC.c **** }
 268:..\common\tterm/TTerm_AC.c **** 
 269:..\common\tterm/TTerm_AC.c **** 
 270:..\common\tterm/TTerm_AC.c **** 
 271:..\common\tterm/TTerm_AC.c **** void ACL_remove(AC_LIST_HEAD * head, char * string){
 777              		.loc 1 271 0
 778              		.cfi_startproc
 779              		@ args = 0, pretend = 0, frame = 0
 780              		@ frame_needed = 0, uses_anonymous_args = 0
 781              	.LVL97:
 782 0000 2DE9F84F 		push	{r3, r4, r5, r6, r7, r8, r9, r10, fp, lr}
 783              		.cfi_def_cfa_offset 40
 784              		.cfi_offset 3, -40
 785              		.cfi_offset 4, -36
 786              		.cfi_offset 5, -32
 787              		.cfi_offset 6, -28
 788              		.cfi_offset 7, -24
 789              		.cfi_offset 8, -20
 790              		.cfi_offset 9, -16
 791              		.cfi_offset 10, -12
 792              		.cfi_offset 11, -8
 793              		.cfi_offset 14, -4
 272:..\common\tterm/TTerm_AC.c ****     if(head->isConst || head->elementCount == 0) return;
 794              		.loc 1 272 0
 795 0004 0568     		ldr	r5, [r0]
 271:..\common\tterm/TTerm_AC.c ****     if(head->isConst || head->elementCount == 0) return;
 796              		.loc 1 271 0
 797 0006 0646     		mov	r6, r0
 798 0008 8A46     		mov	r10, r1
 799              		.loc 1 272 0
 800 000a 85BB     		cbnz	r5, .L60
 801              		.loc 1 272 0 is_stmt 0 discriminator 1
 802 000c D0F80480 		ldr	r8, [r0, #4]
 803 0010 B8F1000F 		cmp	r8, #0
 804 0014 2BD0     		beq	.L60
 805              	.LVL98:
 273:..\common\tterm/TTerm_AC.c ****     uint32_t currPos = 0;
 274:..\common\tterm/TTerm_AC.c ****     AC_LIST_ELEMENT ** lastComp = &head->first;
 275:..\common\tterm/TTerm_AC.c ****     AC_LIST_ELEMENT * currComp = head->first;
 806              		.loc 1 275 0 is_stmt 1
 807 0016 8468     		ldr	r4, [r0, #8]
ARM GAS  C:\Users\chemi\AppData\Local\Temp\ccvbJJcw.s 			page 21


 274:..\common\tterm/TTerm_AC.c ****     AC_LIST_ELEMENT * currComp = head->first;
 808              		.loc 1 274 0
 809 0018 00F10809 		add	r9, r0, #8
 810              	.LVL99:
 811              	.L64:
 276:..\common\tterm/TTerm_AC.c ****     
 277:..\common\tterm/TTerm_AC.c ****     for(;currPos < head->elementCount; currPos++){
 278:..\common\tterm/TTerm_AC.c ****         if((strlen(currComp->string) == strlen(string)) && (strcmp(currComp->string, string) == 0))
 812              		.loc 1 278 0
 813 001c D4F804B0 		ldr	fp, [r4, #4]
 814 0020 5846     		mov	r0, fp
 815 0022 FFF7FEFF 		bl	strlen
 816              	.LVL100:
 817 0026 0746     		mov	r7, r0
 818 0028 5046     		mov	r0, r10
 819 002a FFF7FEFF 		bl	strlen
 820              	.LVL101:
 821 002e 8742     		cmp	r7, r0
 822 0030 2768     		ldr	r7, [r4]
 823 0032 15D1     		bne	.L62
 824              		.loc 1 278 0 is_stmt 0 discriminator 1
 825 0034 5146     		mov	r1, r10
 826 0036 5846     		mov	r0, fp
 827 0038 FFF7FEFF 		bl	strcmp
 828              	.LVL102:
 829 003c 80B9     		cbnz	r0, .L62
 279:..\common\tterm/TTerm_AC.c ****             *lastComp = currComp->next;
 830              		.loc 1 279 0 is_stmt 1
 831 003e C9F80070 		str	r7, [r9]
 280:..\common\tterm/TTerm_AC.c ****             
 281:..\common\tterm/TTerm_AC.c ****             //TODO make this portable
 282:..\common\tterm/TTerm_AC.c ****             if(ptr_is_freeable(currComp->string)){
 832              		.loc 1 282 0
 833 0042 6068     		ldr	r0, [r4, #4]
 834 0044 FFF7FEFF 		bl	ptr_is_freeable
 835              	.LVL103:
 836 0048 10B1     		cbz	r0, .L63
 283:..\common\tterm/TTerm_AC.c ****                 vPortFree(currComp->string);
 837              		.loc 1 283 0
 838 004a 6068     		ldr	r0, [r4, #4]
 839 004c FFF7FEFF 		bl	vPortFree
 840              	.LVL104:
 841              	.L63:
 284:..\common\tterm/TTerm_AC.c ****             }
 285:..\common\tterm/TTerm_AC.c ****             
 286:..\common\tterm/TTerm_AC.c ****             vPortFree(currComp);
 842              		.loc 1 286 0
 843 0050 2046     		mov	r0, r4
 844 0052 FFF7FEFF 		bl	vPortFree
 845              	.LVL105:
 287:..\common\tterm/TTerm_AC.c ****             head->elementCount --;
 846              		.loc 1 287 0
 847 0056 7368     		ldr	r3, [r6, #4]
 848 0058 013B     		subs	r3, r3, #1
 849 005a 7360     		str	r3, [r6, #4]
 288:..\common\tterm/TTerm_AC.c ****             return;
 850              		.loc 1 288 0
ARM GAS  C:\Users\chemi\AppData\Local\Temp\ccvbJJcw.s 			page 22


 851 005c BDE8F88F 		pop	{r3, r4, r5, r6, r7, r8, r9, r10, fp, pc}
 852              	.LVL106:
 853              	.L62:
 289:..\common\tterm/TTerm_AC.c ****         }
 290:..\common\tterm/TTerm_AC.c ****         if(currComp->next == 0) break;
 854              		.loc 1 290 0
 855 0060 2FB1     		cbz	r7, .L60
 277:..\common\tterm/TTerm_AC.c ****         if((strlen(currComp->string) == strlen(string)) && (strcmp(currComp->string, string) == 0))
 856              		.loc 1 277 0
 857 0062 0135     		adds	r5, r5, #1
 858              	.LVL107:
 859 0064 A845     		cmp	r8, r5
 291:..\common\tterm/TTerm_AC.c ****         lastComp = &currComp->next;
 860              		.loc 1 291 0
 861 0066 A146     		mov	r9, r4
 862              	.LVL108:
 277:..\common\tterm/TTerm_AC.c ****         if((strlen(currComp->string) == strlen(string)) && (strcmp(currComp->string, string) == 0))
 863              		.loc 1 277 0
 864 0068 01D0     		beq	.L60
 865              	.LVL109:
 866 006a 3C46     		mov	r4, r7
 867              	.LVL110:
 868 006c D6E7     		b	.L64
 869              	.LVL111:
 870              	.L60:
 871 006e BDE8F88F 		pop	{r3, r4, r5, r6, r7, r8, r9, r10, fp, pc}
 872              		.cfi_endproc
 873              	.LFE80:
 874              		.size	ACL_remove, .-ACL_remove
 875              		.section	.text.ACL_isSorted,"ax",%progbits
 876              		.align	1
 877              		.global	ACL_isSorted
 878              		.thumb
 879              		.thumb_func
 880              		.type	ACL_isSorted, %function
 881              	ACL_isSorted:
 882              	.LFB81:
 292:..\common\tterm/TTerm_AC.c ****         currComp = currComp->next;
 293:..\common\tterm/TTerm_AC.c ****     }
 294:..\common\tterm/TTerm_AC.c **** }
 295:..\common\tterm/TTerm_AC.c **** 
 296:..\common\tterm/TTerm_AC.c **** unsigned ACL_isSorted(char * a, char * b){
 883              		.loc 1 296 0
 884              		.cfi_startproc
 885              		@ args = 0, pretend = 0, frame = 0
 886              		@ frame_needed = 0, uses_anonymous_args = 0
 887              	.LVL112:
 888 0000 2DE9F047 		push	{r4, r5, r6, r7, r8, r9, r10, lr}
 889              		.cfi_def_cfa_offset 32
 890              		.cfi_offset 4, -32
 891              		.cfi_offset 5, -28
 892              		.cfi_offset 6, -24
 893              		.cfi_offset 7, -20
 894              		.cfi_offset 8, -16
 895              		.cfi_offset 9, -12
 896              		.cfi_offset 10, -8
 897              		.cfi_offset 14, -4
ARM GAS  C:\Users\chemi\AppData\Local\Temp\ccvbJJcw.s 			page 23


 898              		.loc 1 296 0
 899 0004 8846     		mov	r8, r1
 900 0006 8146     		mov	r9, r0
 297:..\common\tterm/TTerm_AC.c ****     uint8_t currPos = 0;
 298:..\common\tterm/TTerm_AC.c ****     uint32_t aLength = strlen(a);
 901              		.loc 1 298 0
 902 0008 FFF7FEFF 		bl	strlen
 903              	.LVL113:
 904 000c 0446     		mov	r4, r0
 905              	.LVL114:
 299:..\common\tterm/TTerm_AC.c ****     uint32_t bLength = strlen(b);
 906              		.loc 1 299 0
 907 000e 4046     		mov	r0, r8
 908              	.LVL115:
 909 0010 FFF7FEFF 		bl	strlen
 910              	.LVL116:
 911 0014 0746     		mov	r7, r0
 912              	.LVL117:
 300:..\common\tterm/TTerm_AC.c ****     
 301:..\common\tterm/TTerm_AC.c ****     //compare the lowercase ASCII values of each character in the command (They are alphabetically 
 302:..\common\tterm/TTerm_AC.c ****     for(;currPos < aLength && currPos < bLength; currPos++){
 913              		.loc 1 302 0
 914 0016 0026     		movs	r6, #0
 915              	.LVL118:
 916              	.L76:
 917              		.loc 1 302 0 is_stmt 0 discriminator 1
 918 0018 F5B2     		uxtb	r5, r6
 919              	.LVL119:
 920 001a AC42     		cmp	r4, r5
 921 001c 12D9     		bls	.L78
 922              		.loc 1 302 0 discriminator 2
 923 001e AF42     		cmp	r7, r5
 924 0020 10D9     		bls	.L78
 925              	.LBB28:
 303:..\common\tterm/TTerm_AC.c ****         char letterA = toLowerCase(a[currPos]);
 926              		.loc 1 303 0 is_stmt 1
 927 0022 19F80500 		ldrb	r0, [r9, r5]	@ zero_extendqisi2
 928 0026 FFF7FEFF 		bl	toLowerCase
 929              	.LVL120:
 930 002a 8246     		mov	r10, r0
 931              	.LVL121:
 304:..\common\tterm/TTerm_AC.c ****         char letterB = toLowerCase(b[currPos]);
 932              		.loc 1 304 0
 933 002c 18F80500 		ldrb	r0, [r8, r5]	@ zero_extendqisi2
 934 0030 FFF7FEFF 		bl	toLowerCase
 935              	.LVL122:
 305:..\common\tterm/TTerm_AC.c ****         //if the letters are different we return 1 if a is smaller than b (they are correctly sorte
 306:..\common\tterm/TTerm_AC.c ****         if(letterA > letterB){
 936              		.loc 1 306 0
 937 0034 8245     		cmp	r10, r0
 938 0036 0BD8     		bhi	.L80
 939 0038 06F10106 		add	r6, r6, #1
 307:..\common\tterm/TTerm_AC.c ****             return 1;
 308:..\common\tterm/TTerm_AC.c ****         }else if(letterB > letterA){
 940              		.loc 1 308 0
 941 003c ECD2     		bcs	.L76
 309:..\common\tterm/TTerm_AC.c ****             return 0;
ARM GAS  C:\Users\chemi\AppData\Local\Temp\ccvbJJcw.s 			page 24


 942              		.loc 1 309 0
 943 003e 0020     		movs	r0, #0
 944              	.LVL123:
 945              	.LBE28:
 310:..\common\tterm/TTerm_AC.c ****         }
 311:..\common\tterm/TTerm_AC.c ****     }
 312:..\common\tterm/TTerm_AC.c ****     
 313:..\common\tterm/TTerm_AC.c ****     //the two commands have identical letters for their entire length we check which one is longer 
 314:..\common\tterm/TTerm_AC.c ****     if(aLength > bLength){
 315:..\common\tterm/TTerm_AC.c ****         return 1;
 316:..\common\tterm/TTerm_AC.c ****     }else if(bLength > aLength){
 317:..\common\tterm/TTerm_AC.c ****         return 0;
 318:..\common\tterm/TTerm_AC.c ****     }else{
 319:..\common\tterm/TTerm_AC.c ****         //it might happen that a command is added twice (or two identical ones are added), in which
 320:..\common\tterm/TTerm_AC.c ****         //TODO implement an alarm here
 321:..\common\tterm/TTerm_AC.c ****         //UART_print("WARNING: Found identical commands: \"%S\" and \"%S\"\r\n", a, b);
 322:..\common\tterm/TTerm_AC.c ****         return 1;
 323:..\common\tterm/TTerm_AC.c ****     }
 324:..\common\tterm/TTerm_AC.c **** }
 946              		.loc 1 324 0
 947 0040 BDE8F087 		pop	{r4, r5, r6, r7, r8, r9, r10, pc}
 948              	.LVL124:
 949              	.L78:
 950              	.LBB29:
 307:..\common\tterm/TTerm_AC.c ****         }else if(letterB > letterA){
 951              		.loc 1 307 0
 952 0044 BC42     		cmp	r4, r7
 953 0046 34BF     		ite	cc
 954 0048 0020     		movcc	r0, #0
 955 004a 0120     		movcs	r0, #1
 956              	.LBE29:
 957 004c BDE8F087 		pop	{r4, r5, r6, r7, r8, r9, r10, pc}
 958              	.LVL125:
 959              	.L80:
 960              	.LBB30:
 961 0050 0120     		movs	r0, #1
 962              	.LVL126:
 963 0052 BDE8F087 		pop	{r4, r5, r6, r7, r8, r9, r10, pc}
 964              	.LBE30:
 965              		.cfi_endproc
 966              	.LFE81:
 967              		.size	ACL_isSorted, .-ACL_isSorted
 968              		.section	.text.ACL_add,"ax",%progbits
 969              		.align	1
 970              		.global	ACL_add
 971              		.thumb
 972              		.thumb_func
 973              		.type	ACL_add, %function
 974              	ACL_add:
 975              	.LFB79:
 227:..\common\tterm/TTerm_AC.c ****     if(head->isConst || ACL_find(head, string) != 0) return;
 976              		.loc 1 227 0
 977              		.cfi_startproc
 978              		@ args = 0, pretend = 0, frame = 0
 979              		@ frame_needed = 0, uses_anonymous_args = 0
 980              	.LVL127:
 981 0000 F8B5     		push	{r3, r4, r5, r6, r7, lr}
ARM GAS  C:\Users\chemi\AppData\Local\Temp\ccvbJJcw.s 			page 25


 982              		.cfi_def_cfa_offset 24
 983              		.cfi_offset 3, -24
 984              		.cfi_offset 4, -20
 985              		.cfi_offset 5, -16
 986              		.cfi_offset 6, -12
 987              		.cfi_offset 7, -8
 988              		.cfi_offset 14, -4
 228:..\common\tterm/TTerm_AC.c ****     
 989              		.loc 1 228 0
 990 0002 0368     		ldr	r3, [r0]
 227:..\common\tterm/TTerm_AC.c ****     if(head->isConst || ACL_find(head, string) != 0) return;
 991              		.loc 1 227 0
 992 0004 0446     		mov	r4, r0
 993 0006 0E46     		mov	r6, r1
 228:..\common\tterm/TTerm_AC.c ****     
 994              		.loc 1 228 0
 995 0008 6BBB     		cbnz	r3, .L82
 228:..\common\tterm/TTerm_AC.c ****     
 996              		.loc 1 228 0 is_stmt 0 discriminator 1
 997 000a FFF7FEFF 		bl	ACL_find
 998              	.LVL128:
 999 000e 50BB     		cbnz	r0, .L82
 230:..\common\tterm/TTerm_AC.c ****         AC_LIST_ELEMENT * newElement = pvPortMalloc(sizeof(AC_LIST_ELEMENT));
 1000              		.loc 1 230 0 is_stmt 1
 1001 0010 6568     		ldr	r5, [r4, #4]
 1002 0012 35B9     		cbnz	r5, .L86
 1003              	.LBB31:
 231:..\common\tterm/TTerm_AC.c ****         newElement->string = string;
 1004              		.loc 1 231 0
 1005 0014 0820     		movs	r0, #8
 1006 0016 FFF7FEFF 		bl	pvPortMalloc
 1007              	.LVL129:
 233:..\common\tterm/TTerm_AC.c ****         head->first = newElement;
 1008              		.loc 1 233 0
 1009 001a 80E86000 		stmia	r0, {r5, r6}
 234:..\common\tterm/TTerm_AC.c ****         head->elementCount ++;
 1010              		.loc 1 234 0
 1011 001e A060     		str	r0, [r4, #8]
 1012 0020 12E0     		b	.L91
 1013              	.LVL130:
 1014              	.L86:
 1015              	.LBE31:
 240:..\common\tterm/TTerm_AC.c ****     AC_LIST_ELEMENT * currComp = head->first;
 1016              		.loc 1 240 0
 1017 0022 04F10807 		add	r7, r4, #8
 1018              	.LVL131:
 241:..\common\tterm/TTerm_AC.c ****     
 1019              		.loc 1 241 0
 1020 0026 A568     		ldr	r5, [r4, #8]
 1021              	.LVL132:
 243:..\common\tterm/TTerm_AC.c ****         if(ACL_isSorted(currComp->string, string)){
 1022              		.loc 1 243 0
 1023 0028 01E0     		b	.L87
 1024              	.LVL133:
 1025              	.L89:
 264:..\common\tterm/TTerm_AC.c ****         currComp = currComp->next;
 1026              		.loc 1 264 0
ARM GAS  C:\Users\chemi\AppData\Local\Temp\ccvbJJcw.s 			page 26


 1027 002a 2F46     		mov	r7, r5
 1028              	.LVL134:
 1029 002c 1D46     		mov	r5, r3
 1030              	.LVL135:
 1031              	.L87:
 243:..\common\tterm/TTerm_AC.c ****         if(ACL_isSorted(currComp->string, string)){
 1032              		.loc 1 243 0
 1033 002e 6368     		ldr	r3, [r4, #4]
 1034 0030 CBB1     		cbz	r3, .L82
 244:..\common\tterm/TTerm_AC.c ****             AC_LIST_ELEMENT * newElement = pvPortMalloc(sizeof(AC_LIST_ELEMENT));
 1035              		.loc 1 244 0
 1036 0032 3146     		mov	r1, r6
 1037 0034 6868     		ldr	r0, [r5, #4]
 1038 0036 FFF7FEFF 		bl	ACL_isSorted
 1039              	.LVL136:
 1040 003a 48B1     		cbz	r0, .L88
 1041              	.LBB32:
 245:..\common\tterm/TTerm_AC.c ****             newElement->string = string;
 1042              		.loc 1 245 0
 1043 003c 0820     		movs	r0, #8
 1044 003e FFF7FEFF 		bl	pvPortMalloc
 1045              	.LVL137:
 246:..\common\tterm/TTerm_AC.c **** 
 1046              		.loc 1 246 0
 1047 0042 4660     		str	r6, [r0, #4]
 248:..\common\tterm/TTerm_AC.c ****             newElement->next = currComp;
 1048              		.loc 1 248 0
 1049 0044 3860     		str	r0, [r7]
 249:..\common\tterm/TTerm_AC.c **** 
 1050              		.loc 1 249 0
 1051 0046 0560     		str	r5, [r0]
 1052              	.LVL138:
 1053              	.L91:
 1054              	.LBE32:
 1055              	.LBB33:
 261:..\common\tterm/TTerm_AC.c ****             return;
 1056              		.loc 1 261 0
 1057 0048 6368     		ldr	r3, [r4, #4]
 1058 004a 0133     		adds	r3, r3, #1
 1059 004c 6360     		str	r3, [r4, #4]
 262:..\common\tterm/TTerm_AC.c ****         }
 1060              		.loc 1 262 0
 1061 004e F8BD     		pop	{r3, r4, r5, r6, r7, pc}
 1062              	.LVL139:
 1063              	.L88:
 1064              	.LBE33:
 255:..\common\tterm/TTerm_AC.c ****             AC_LIST_ELEMENT * newElement = pvPortMalloc(sizeof(AC_LIST_ELEMENT));
 1065              		.loc 1 255 0
 1066 0050 2B68     		ldr	r3, [r5]
 1067 0052 002B     		cmp	r3, #0
 1068 0054 E9D1     		bne	.L89
 1069              	.LBB34:
 256:..\common\tterm/TTerm_AC.c ****             newElement->string = string;
 1070              		.loc 1 256 0
 1071 0056 0820     		movs	r0, #8
 1072 0058 FFF7FEFF 		bl	pvPortMalloc
 1073              	.LVL140:
ARM GAS  C:\Users\chemi\AppData\Local\Temp\ccvbJJcw.s 			page 27


 259:..\common\tterm/TTerm_AC.c ****             currComp->next = newElement;
 1074              		.loc 1 259 0
 1075 005c 2B68     		ldr	r3, [r5]
 257:..\common\tterm/TTerm_AC.c ****             newElement->string = string;
 1076              		.loc 1 257 0
 1077 005e 4660     		str	r6, [r0, #4]
 259:..\common\tterm/TTerm_AC.c ****             currComp->next = newElement;
 1078              		.loc 1 259 0
 1079 0060 0360     		str	r3, [r0]
 260:..\common\tterm/TTerm_AC.c ****             head->elementCount ++;
 1080              		.loc 1 260 0
 1081 0062 2860     		str	r0, [r5]
 1082 0064 F0E7     		b	.L91
 1083              	.LVL141:
 1084              	.L82:
 1085 0066 F8BD     		pop	{r3, r4, r5, r6, r7, pc}
 1086              	.LBE34:
 1087              		.cfi_endproc
 1088              	.LFE79:
 1089              		.size	ACL_add, .-ACL_add
 1090              		.comm	head,4,4
 1091              		.section	.rodata.str1.1,"aMS",%progbits,1
 1092              	.LC0:
 1093 0000 5F5F4C49 		.ascii	"__LIST_END__\000"
 1093      53545F45 
 1093      4E445F5F 
 1093      00
 1094              		.text
 1095              	.Letext0:
 1096              		.file 2 "c:\\program files (x86)\\cypress\\psoc creator\\4.4\\psoc creator\\import\\gnu\\arm\\5.4.
 1097              		.file 3 "c:\\program files (x86)\\cypress\\psoc creator\\4.4\\psoc creator\\import\\gnu\\arm\\5.4.
 1098              		.file 4 "..\\common\\rtos\\include/task.h"
 1099              		.file 5 "..\\common\\rtos\\include/stream_buffer.h"
 1100              		.file 6 "..\\common\\tterm\\TTerm.h"
 1101              		.file 7 "..\\common\\tterm\\TTerm_AC.h"
 1102              		.file 8 "Generated_Source\\PSoC5/core_cm3.h"
 1103              		.file 9 "..\\common\\tterm\\TTerm_cmd.h"
 1104              		.file 10 "c:\\program files (x86)\\cypress\\psoc creator\\4.4\\psoc creator\\import\\gnu\\arm\\5.4
 1105              		.file 11 "..\\common\\rtos\\include/portable.h"