ARM GAS  C:\Users\chemi\AppData\Local\Temp\ccFEwbcK.s 			page 1


   1              		.syntax unified
   2              		.cpu cortex-m3
   3              		.fpu softvfp
   4              		.eabi_attribute 20, 1
   5              		.eabi_attribute 21, 1
   6              		.eabi_attribute 23, 3
   7              		.eabi_attribute 24, 1
   8              		.eabi_attribute 25, 1
   9              		.eabi_attribute 26, 1
  10              		.eabi_attribute 30, 4
  11              		.eabi_attribute 34, 1
  12              		.eabi_attribute 18, 4
  13              		.thumb
  14              		.syntax unified
  15              		.file	"TTerm_cmd.c"
  16              		.text
  17              	.Ltext0:
  18              		.cfi_sections	.debug_frame
  19              		.section	.text.CMD_testCommandHandler,"ax",%progbits
  20              		.align	1
  21              		.global	CMD_testCommandHandler
  22              		.thumb
  23              		.thumb_func
  24              		.type	CMD_testCommandHandler, %function
  25              	CMD_testCommandHandler:
  26              	.LFB69:
  27              		.file 1 "..\\common\\tterm\\TTerm_cmd.c"
   1:..\common\tterm/TTerm_cmd.c **** /*
   2:..\common\tterm/TTerm_cmd.c ****  * TTerm
   3:..\common\tterm/TTerm_cmd.c ****  *
   4:..\common\tterm/TTerm_cmd.c ****  * Copyright (c) 2020 Thorben Zethoff
   5:..\common\tterm/TTerm_cmd.c ****  *
   6:..\common\tterm/TTerm_cmd.c ****  * Permission is hereby granted, free of charge, to any person obtaining a copy of
   7:..\common\tterm/TTerm_cmd.c ****  * this software and associated documentation files (the "Software"), to deal in
   8:..\common\tterm/TTerm_cmd.c ****  * the Software without restriction, including without limitation the rights to
   9:..\common\tterm/TTerm_cmd.c ****  * use, copy, modify, merge, publish, distribute, sublicense, and/or sell copies of
  10:..\common\tterm/TTerm_cmd.c ****  * the Software, and to permit persons to whom the Software is furnished to do so,
  11:..\common\tterm/TTerm_cmd.c ****  * subject to the following conditions:
  12:..\common\tterm/TTerm_cmd.c ****  *
  13:..\common\tterm/TTerm_cmd.c ****  * The above copyright notice and this permission notice shall be included in all
  14:..\common\tterm/TTerm_cmd.c ****  * copies or substantial portions of the Software.
  15:..\common\tterm/TTerm_cmd.c ****  *
  16:..\common\tterm/TTerm_cmd.c ****  * THE SOFTWARE IS PROVIDED "AS IS", WITHOUT WARRANTY OF ANY KIND, EXPRESS OR
  17:..\common\tterm/TTerm_cmd.c ****  * IMPLIED, INCLUDING BUT NOT LIMITED TO THE WARRANTIES OF MERCHANTABILITY, FITNESS
  18:..\common\tterm/TTerm_cmd.c ****  * FOR A PARTICULAR PURPOSE AND NONINFRINGEMENT. IN NO EVENT SHALL THE AUTHORS OR
  19:..\common\tterm/TTerm_cmd.c ****  * COPYRIGHT HOLDERS BE LIABLE FOR ANY CLAIM, DAMAGES OR OTHER LIABILITY, WHETHER
  20:..\common\tterm/TTerm_cmd.c ****  * IN AN ACTION OF CONTRACT, TORT OR OTHERWISE, ARISING FROM, OUT OF OR IN
  21:..\common\tterm/TTerm_cmd.c ****  * CONNECTION WITH THE SOFTWARE OR THE USE OR OTHER DEALINGS IN THE SOFTWARE.
  22:..\common\tterm/TTerm_cmd.c **** */
  23:..\common\tterm/TTerm_cmd.c **** 
  24:..\common\tterm/TTerm_cmd.c **** #if PIC32 == 1
  25:..\common\tterm/TTerm_cmd.c **** #include <xc.h>
  26:..\common\tterm/TTerm_cmd.c **** #endif  
  27:..\common\tterm/TTerm_cmd.c **** #include <stdint.h>
  28:..\common\tterm/TTerm_cmd.c **** #include <string.h>
  29:..\common\tterm/TTerm_cmd.c **** #include <stdarg.h>
  30:..\common\tterm/TTerm_cmd.c **** #include <stdlib.h>
ARM GAS  C:\Users\chemi\AppData\Local\Temp\ccFEwbcK.s 			page 2


  31:..\common\tterm/TTerm_cmd.c **** #include "FreeRTOS.h"
  32:..\common\tterm/TTerm_cmd.c **** #include "task.h"
  33:..\common\tterm/TTerm_cmd.c **** #include "TTerm.h"
  34:..\common\tterm/TTerm_cmd.c **** #include "TTerm_cmd.h"
  35:..\common\tterm/TTerm_cmd.c **** #include "semphr.h"
  36:..\common\tterm/TTerm_cmd.c **** #include "system.h"
  37:..\common\tterm/TTerm_cmd.c **** #include "stream_buffer.h"
  38:..\common\tterm/TTerm_cmd.c **** #include "tasks/tsk_overlay.h"
  39:..\common\tterm/TTerm_cmd.c **** 
  40:..\common\tterm/TTerm_cmd.c **** uint8_t CMD_testCommandHandler(TERMINAL_HANDLE * handle, uint8_t argCount, char ** args){
  28              		.loc 1 40 0
  29              		.cfi_startproc
  30              		@ args = 0, pretend = 0, frame = 0
  31              		@ frame_needed = 0, uses_anonymous_args = 0
  32              	.LVL0:
  33 0000 2DE9F74F 		push	{r0, r1, r2, r4, r5, r6, r7, r8, r9, r10, fp, lr}
  34              		.cfi_def_cfa_offset 48
  35              		.cfi_offset 4, -36
  36              		.cfi_offset 5, -32
  37              		.cfi_offset 6, -28
  38              		.cfi_offset 7, -24
  39              		.cfi_offset 8, -20
  40              		.cfi_offset 9, -16
  41              		.cfi_offset 10, -12
  42              		.cfi_offset 11, -8
  43              		.cfi_offset 14, -4
  41:..\common\tterm/TTerm_cmd.c ****     uint8_t currArg = 0;
  42:..\common\tterm/TTerm_cmd.c ****     uint8_t returnCode = 0;
  44              		.loc 1 42 0
  45 0004 0026     		movs	r6, #0
  40:..\common\tterm/TTerm_cmd.c ****     uint8_t currArg = 0;
  46              		.loc 1 40 0
  47 0006 0446     		mov	r4, r0
  48 0008 8946     		mov	r9, r1
  49 000a 9046     		mov	r8, r2
  41:..\common\tterm/TTerm_cmd.c ****     uint8_t currArg = 0;
  50              		.loc 1 41 0
  51 000c 3546     		mov	r5, r6
  52              	.LVL1:
  53              	.L2:
  43:..\common\tterm/TTerm_cmd.c ****     for(;currArg<argCount; currArg++){
  54              		.loc 1 43 0 discriminator 1
  55 000e 4D45     		cmp	r5, r9
  56 0010 6FD2     		bcs	.L23
  44:..\common\tterm/TTerm_cmd.c ****         if(strcmp(args[currArg], "-?") == 0){
  57              		.loc 1 44 0
  58 0012 58F825B0 		ldr	fp, [r8, r5, lsl #2]
  59 0016 4B49     		ldr	r1, .L24
  60 0018 5846     		mov	r0, fp
  61 001a FFF7FEFF 		bl	strcmp
  62              	.LVL2:
  63 001e 40B9     		cbnz	r0, .L3
  45:..\common\tterm/TTerm_cmd.c ****             ttprintf("This function is intended for testing. it will list all passed arguments\r\n"
  64              		.loc 1 45 0
  65 0020 636A     		ldr	r3, [r4, #36]
  66 0022 4949     		ldr	r1, .L24+4
  67 0024 6068     		ldr	r0, [r4, #4]
ARM GAS  C:\Users\chemi\AppData\Local\Temp\ccFEwbcK.s 			page 3


  68 0026 9847     		blx	r3
  69              	.LVL3:
  46:..\common\tterm/TTerm_cmd.c ****             ttprintf("usage:\r\n\ttest [{option} {value}]\r\n\n\t-aa : adds an argument to the ACL\
  70              		.loc 1 46 0
  71 0028 636A     		ldr	r3, [r4, #36]
  72 002a 4849     		ldr	r1, .L24+8
  73 002c 6068     		ldr	r0, [r4, #4]
  74 002e 9847     		blx	r3
  75              	.LVL4:
  76 0030 60E0     		b	.L17
  77              	.L3:
  47:..\common\tterm/TTerm_cmd.c ****             return TERM_CMD_EXIT_SUCCESS;
  48:..\common\tterm/TTerm_cmd.c ****         }else if(strcmp(args[currArg], "-r") == 0){
  78              		.loc 1 48 0
  79 0032 4749     		ldr	r1, .L24+12
  80 0034 5846     		mov	r0, fp
  81 0036 FFF7FEFF 		bl	strcmp
  82              	.LVL5:
  83 003a 05F1010A 		add	r10, r5, #1
  84 003e 0746     		mov	r7, r0
  85 0040 A8B9     		cbnz	r0, .L5
  49:..\common\tterm/TTerm_cmd.c ****             if(argCount > currArg + 1){
  86              		.loc 1 49 0
  87 0042 D145     		cmp	r9, r10
  88 0044 0DDD     		ble	.L6
  50:..\common\tterm/TTerm_cmd.c ****                 returnCode = atoi(args[currArg + 1]);
  89              		.loc 1 50 0
  90 0046 58F82A00 		ldr	r0, [r8, r10, lsl #2]
  91 004a FFF7FEFF 		bl	atoi
  92              	.LVL6:
  93 004e C5B2     		uxtb	r5, r0
  94              	.LVL7:
  51:..\common\tterm/TTerm_cmd.c ****                 ttprintf("returning %d (from string \"%s\")\r\n", returnCode, args[currArg + 1]);
  95              		.loc 1 51 0
  96 0050 666A     		ldr	r6, [r4, #36]
  97 0052 58F82A30 		ldr	r3, [r8, r10, lsl #2]
  98 0056 2A46     		mov	r2, r5
  99 0058 3E49     		ldr	r1, .L24+16
 100 005a 6068     		ldr	r0, [r4, #4]
 101 005c B047     		blx	r6
 102              	.LVL8:
  52:..\common\tterm/TTerm_cmd.c ****                 currArg++;
  53:..\common\tterm/TTerm_cmd.c ****                 return returnCode;
 103              		.loc 1 53 0
 104 005e 2846     		mov	r0, r5
 105 0060 6CE0     		b	.L4
 106              	.LVL9:
 107              	.L6:
  54:..\common\tterm/TTerm_cmd.c ****             }else{
  55:..\common\tterm/TTerm_cmd.c ****                 ttprintf("usage:\r\ntest -r [return code]\r\n");
 108              		.loc 1 55 0
 109 0062 636A     		ldr	r3, [r4, #36]
 110 0064 3C49     		ldr	r1, .L24+20
 111 0066 6068     		ldr	r0, [r4, #4]
 112 0068 9847     		blx	r3
 113              	.LVL10:
  56:..\common\tterm/TTerm_cmd.c ****                 return 0;
ARM GAS  C:\Users\chemi\AppData\Local\Temp\ccFEwbcK.s 			page 4


 114              		.loc 1 56 0
 115 006a 3846     		mov	r0, r7
 116 006c 66E0     		b	.L4
 117              	.L5:
  57:..\common\tterm/TTerm_cmd.c ****             }
  58:..\common\tterm/TTerm_cmd.c ****         }else if(strcmp(args[currArg], "-ra") == 0){
 118              		.loc 1 58 0
 119 006e 3B49     		ldr	r1, .L24+24
 120 0070 5846     		mov	r0, fp
 121 0072 FFF7FEFF 		bl	strcmp
 122              	.LVL11:
 123 0076 0746     		mov	r7, r0
 124 0078 88B9     		cbnz	r0, .L7
 125              	.LVL12:
  59:..\common\tterm/TTerm_cmd.c ****             if(++currArg < argCount){
 126              		.loc 1 59 0
 127 007a 5FFA8AF5 		uxtb	r5, r10
 128              	.LVL13:
 129 007e A945     		cmp	r9, r5
 130 0080 0AD9     		bls	.L8
  60:..\common\tterm/TTerm_cmd.c ****                 ACL_remove(head, args[currArg]);
 131              		.loc 1 60 0
 132 0082 374B     		ldr	r3, .L24+28
 133 0084 58F82510 		ldr	r1, [r8, r5, lsl #2]
 134 0088 1868     		ldr	r0, [r3]
 135 008a FFF7FEFF 		bl	ACL_remove
 136              	.LVL14:
  61:..\common\tterm/TTerm_cmd.c ****                 ttprintf("removed \"%s\" from the ACL\r\n", args[currArg]);
 137              		.loc 1 61 0
 138 008e 636A     		ldr	r3, [r4, #36]
 139 0090 58F82520 		ldr	r2, [r8, r5, lsl #2]
 140 0094 3349     		ldr	r1, .L24+32
 141 0096 20E0     		b	.L20
 142              	.L8:
  62:..\common\tterm/TTerm_cmd.c ****                 returnCode = TERM_CMD_EXIT_SUCCESS;
  63:..\common\tterm/TTerm_cmd.c ****             }else{
  64:..\common\tterm/TTerm_cmd.c ****                 ttprintf("missing ACL element value for option \"-ra\"\r\n");
 143              		.loc 1 64 0
 144 0098 636A     		ldr	r3, [r4, #36]
 145 009a 3349     		ldr	r1, .L24+36
 146 009c 23E0     		b	.L21
 147              	.LVL15:
 148              	.L7:
  65:..\common\tterm/TTerm_cmd.c ****                 returnCode = TERM_CMD_EXIT_ERROR;
  66:..\common\tterm/TTerm_cmd.c ****             }
  67:..\common\tterm/TTerm_cmd.c ****         }else if(strcmp(args[currArg], "-aa") == 0){
 149              		.loc 1 67 0
 150 009e 3349     		ldr	r1, .L24+40
 151 00a0 5846     		mov	r0, fp
 152 00a2 FFF7FEFF 		bl	strcmp
 153              	.LVL16:
 154 00a6 0746     		mov	r7, r0
 155 00a8 00BB     		cbnz	r0, .L9
 156              	.LVL17:
  68:..\common\tterm/TTerm_cmd.c ****             if(++currArg < argCount){
 157              		.loc 1 68 0
 158 00aa 5FFA8AF5 		uxtb	r5, r10
ARM GAS  C:\Users\chemi\AppData\Local\Temp\ccFEwbcK.s 			page 5


 159              	.LVL18:
 160 00ae A945     		cmp	r9, r5
 161 00b0 17D9     		bls	.L10
 162              	.LBB2:
  69:..\common\tterm/TTerm_cmd.c ****                 char * newString = pvPortMalloc(strlen(args[currArg])+1);
 163              		.loc 1 69 0
 164 00b2 58F82500 		ldr	r0, [r8, r5, lsl #2]
 165 00b6 FFF7FEFF 		bl	strlen
 166              	.LVL19:
 167 00ba 0130     		adds	r0, r0, #1
 168 00bc FFF7FEFF 		bl	pvPortMalloc
 169              	.LVL20:
  70:..\common\tterm/TTerm_cmd.c ****                 strcpy(newString, args[currArg]);
 170              		.loc 1 70 0
 171 00c0 58F82510 		ldr	r1, [r8, r5, lsl #2]
 172 00c4 FFF7FEFF 		bl	strcpy
 173              	.LVL21:
  71:..\common\tterm/TTerm_cmd.c ****                 ACL_add(head, newString);
 174              		.loc 1 71 0
 175 00c8 254B     		ldr	r3, .L24+28
 176 00ca 0146     		mov	r1, r0
 177 00cc 1868     		ldr	r0, [r3]
 178 00ce FFF7FEFF 		bl	ACL_add
 179              	.LVL22:
  72:..\common\tterm/TTerm_cmd.c ****                 ttprintf("Added \"%s\" to the ACL\r\n", args[currArg]);
 180              		.loc 1 72 0
 181 00d2 636A     		ldr	r3, [r4, #36]
 182 00d4 58F82520 		ldr	r2, [r8, r5, lsl #2]
 183 00d8 2549     		ldr	r1, .L24+44
 184              	.LVL23:
 185              	.L20:
 186 00da 6068     		ldr	r0, [r4, #4]
 187 00dc 9847     		blx	r3
 188              	.LVL24:
  73:..\common\tterm/TTerm_cmd.c ****                 returnCode = TERM_CMD_EXIT_SUCCESS;
 189              		.loc 1 73 0
 190 00de FF26     		movs	r6, #255
 191              	.LBE2:
 192 00e0 04E0     		b	.L9
 193              	.LVL25:
 194              	.L10:
  74:..\common\tterm/TTerm_cmd.c ****             }else{
  75:..\common\tterm/TTerm_cmd.c ****                 ttprintf("missing ACL element value for option \"-aa\"\r\n");
 195              		.loc 1 75 0
 196 00e2 636A     		ldr	r3, [r4, #36]
 197 00e4 2349     		ldr	r1, .L24+48
 198              	.LVL26:
 199              	.L21:
 200 00e6 6068     		ldr	r0, [r4, #4]
 201 00e8 9847     		blx	r3
 202              	.LVL27:
  76:..\common\tterm/TTerm_cmd.c ****                 returnCode = TERM_CMD_EXIT_ERROR;
 203              		.loc 1 76 0
 204 00ea 3E46     		mov	r6, r7
 205              	.LVL28:
 206              	.L9:
  43:..\common\tterm/TTerm_cmd.c ****         if(strcmp(args[currArg], "-?") == 0){
ARM GAS  C:\Users\chemi\AppData\Local\Temp\ccFEwbcK.s 			page 6


 207              		.loc 1 43 0
 208 00ec 0135     		adds	r5, r5, #1
 209              	.LVL29:
 210 00ee EDB2     		uxtb	r5, r5
 211 00f0 8DE7     		b	.L2
 212              	.LVL30:
 213              	.L23:
  77:..\common\tterm/TTerm_cmd.c ****             }
  78:..\common\tterm/TTerm_cmd.c ****         }
  79:..\common\tterm/TTerm_cmd.c ****     }
  80:..\common\tterm/TTerm_cmd.c ****     if(returnCode != 0) return returnCode;
 214              		.loc 1 80 0
 215 00f2 0EB1     		cbz	r6, .L12
 216              	.L17:
  56:..\common\tterm/TTerm_cmd.c ****             }
 217              		.loc 1 56 0
 218 00f4 FF20     		movs	r0, #255
 219 00f6 21E0     		b	.L4
 220              	.L12:
  81:..\common\tterm/TTerm_cmd.c ****     
  82:..\common\tterm/TTerm_cmd.c ****     ttprintf("Terminal test function called. ArgCount = %d ; Calling user = \"%s\"%s\r\n", argCount
 221              		.loc 1 82 0
 222 00f8 1F4A     		ldr	r2, .L24+52
 223 00fa 204B     		ldr	r3, .L24+56
 224 00fc 656A     		ldr	r5, [r4, #36]
 225 00fe B9F1000F 		cmp	r9, #0
 226 0102 08BF     		it	eq
 227 0104 1346     		moveq	r3, r2
 228 0106 1E49     		ldr	r1, .L24+60
 229 0108 0093     		str	r3, [sp]
 230 010a 4A46     		mov	r2, r9
 231 010c A36A     		ldr	r3, [r4, #40]
 232 010e 6068     		ldr	r0, [r4, #4]
 233 0110 A847     		blx	r5
 234              	.LVL31:
  83:..\common\tterm/TTerm_cmd.c ****     for(currArg = 0;currArg<argCount; currArg++){
  84:..\common\tterm/TTerm_cmd.c ****         ttprintf("%d:\"%s\"%s\r\n", currArg, args[currArg], (currArg == argCount - 1) ? "\r\n}" : "
 235              		.loc 1 84 0
 236 0112 1C4F     		ldr	r7, .L24+64
 237 0114 DFF874A0 		ldr	r10, .L24+72
 238              	.LVL32:
 239              	.L14:
  83:..\common\tterm/TTerm_cmd.c ****     for(currArg = 0;currArg<argCount; currArg++){
 240              		.loc 1 83 0 discriminator 2
 241 0118 B145     		cmp	r9, r6
 242 011a EBD0     		beq	.L17
 243              		.loc 1 84 0
 244 011c 09F1FF33 		add	r3, r9, #-1
 245 0120 9E42     		cmp	r6, r3
 246 0122 0CBF     		ite	eq
 247 0124 3B46     		moveq	r3, r7
 248 0126 5346     		movne	r3, r10
 249 0128 3246     		mov	r2, r6
 250 012a 0093     		str	r3, [sp]
 251 012c 1649     		ldr	r1, .L24+68
 252 012e 58F82630 		ldr	r3, [r8, r6, lsl #2]
 253 0132 6068     		ldr	r0, [r4, #4]
ARM GAS  C:\Users\chemi\AppData\Local\Temp\ccFEwbcK.s 			page 7


 254 0134 656A     		ldr	r5, [r4, #36]
 255 0136 A847     		blx	r5
 256              	.LVL33:
 257 0138 0136     		adds	r6, r6, #1
 258              	.LVL34:
 259 013a EDE7     		b	.L14
 260              	.L4:
  85:..\common\tterm/TTerm_cmd.c ****     }
  86:..\common\tterm/TTerm_cmd.c ****     return TERM_CMD_EXIT_SUCCESS;
  87:..\common\tterm/TTerm_cmd.c **** }
 261              		.loc 1 87 0
 262 013c 03B0     		add	sp, sp, #12
 263              		.cfi_def_cfa_offset 36
 264              		@ sp needed
 265 013e BDE8F08F 		pop	{r4, r5, r6, r7, r8, r9, r10, fp, pc}
 266              	.LVL35:
 267              	.L25:
 268 0142 00BF     		.align	2
 269              	.L24:
 270 0144 17000000 		.word	.LC4
 271 0148 1A000000 		.word	.LC5
 272 014c 65000000 		.word	.LC6
 273 0150 FA000000 		.word	.LC7
 274 0154 FD000000 		.word	.LC8
 275 0158 1F010000 		.word	.LC9
 276 015c 3F010000 		.word	.LC10
 277 0160 00000000 		.word	head
 278 0164 43010000 		.word	.LC11
 279 0168 5F010000 		.word	.LC12
 280 016c 8C010000 		.word	.LC13
 281 0170 90010000 		.word	.LC14
 282 0174 A8010000 		.word	.LC15
 283 0178 10000000 		.word	.LC1
 284 017c 00000000 		.word	.LC0
 285 0180 D5010000 		.word	.LC16
 286 0184 11000000 		.word	.LC2
 287 0188 1C020000 		.word	.LC17
 288 018c 15000000 		.word	.LC3
 289              		.cfi_endproc
 290              	.LFE69:
 291              		.size	CMD_testCommandHandler, .-CMD_testCommandHandler
 292              		.section	.text.TERM_testCommandAutoCompleter,"ax",%progbits
 293              		.align	1
 294              		.global	TERM_testCommandAutoCompleter
 295              		.thumb
 296              		.thumb_func
 297              		.type	TERM_testCommandAutoCompleter, %function
 298              	TERM_testCommandAutoCompleter:
 299              	.LFB70:
  88:..\common\tterm/TTerm_cmd.c **** 
  89:..\common\tterm/TTerm_cmd.c **** uint8_t TERM_testCommandAutoCompleter(TERMINAL_HANDLE * handle, void * params){
 300              		.loc 1 89 0
 301              		.cfi_startproc
 302              		@ args = 0, pretend = 0, frame = 8
 303              		@ frame_needed = 0, uses_anonymous_args = 0
 304              	.LVL36:
 305 0000 73B5     		push	{r0, r1, r4, r5, r6, lr}
ARM GAS  C:\Users\chemi\AppData\Local\Temp\ccFEwbcK.s 			page 8


 306              		.cfi_def_cfa_offset 24
 307              		.cfi_offset 4, -16
 308              		.cfi_offset 5, -12
 309              		.cfi_offset 6, -8
 310              		.cfi_offset 14, -4
 311              		.loc 1 89 0
 312 0002 0446     		mov	r4, r0
  90:..\common\tterm/TTerm_cmd.c ****     if(params == 0){ 
 313              		.loc 1 90 0
 314 0004 0D46     		mov	r5, r1
 315 0006 11B9     		cbnz	r1, .L27
 316              	.L29:
  91:..\common\tterm/TTerm_cmd.c ****         handle->autocompleteBufferLength = 0;
 317              		.loc 1 91 0
 318 0008 0020     		movs	r0, #0
 319              	.LVL37:
 320 000a E061     		str	r0, [r4, #28]
  92:..\common\tterm/TTerm_cmd.c ****         return 0;
 321              		.loc 1 92 0
 322 000c 24E0     		b	.L28
 323              	.LVL38:
 324              	.L27:
  93:..\common\tterm/TTerm_cmd.c ****     }
  94:..\common\tterm/TTerm_cmd.c ****     
  95:..\common\tterm/TTerm_cmd.c ****     AC_LIST_HEAD * list = (AC_LIST_HEAD *) params;
  96:..\common\tterm/TTerm_cmd.c ****     
  97:..\common\tterm/TTerm_cmd.c ****     if(list->elementCount == 0){ 
 325              		.loc 1 97 0
 326 000e 4B68     		ldr	r3, [r1, #4]
 327 0010 002B     		cmp	r3, #0
 328 0012 F9D0     		beq	.L29
  98:..\common\tterm/TTerm_cmd.c ****         handle->autocompleteBufferLength = 0;
  99:..\common\tterm/TTerm_cmd.c ****         return 0;
 100:..\common\tterm/TTerm_cmd.c ****     }
 101:..\common\tterm/TTerm_cmd.c ****     
 102:..\common\tterm/TTerm_cmd.c ****     char * buff = pvPortMalloc(128);
 329              		.loc 1 102 0
 330 0014 8020     		movs	r0, #128
 331              	.LVL39:
 332 0016 FFF7FEFF 		bl	pvPortMalloc
 333              	.LVL40:
 334 001a 0646     		mov	r6, r0
 335              	.LVL41:
 103:..\common\tterm/TTerm_cmd.c ****     uint8_t len;
 104:..\common\tterm/TTerm_cmd.c ****     memset(buff, 0, 128);
 336              		.loc 1 104 0
 337 001c 8022     		movs	r2, #128
 338 001e 0021     		movs	r1, #0
 339 0020 FFF7FEFF 		bl	memset
 340              	.LVL42:
 105:..\common\tterm/TTerm_cmd.c ****     handle->autocompleteStart = TERM_findLastArg(handle, buff, &len);
 341              		.loc 1 105 0
 342 0024 0DF10702 		add	r2, sp, #7
 343 0028 3146     		mov	r1, r6
 344 002a 2046     		mov	r0, r4
 345 002c FFF7FEFF 		bl	TERM_findLastArg
 346              	.LVL43:
ARM GAS  C:\Users\chemi\AppData\Local\Temp\ccFEwbcK.s 			page 9


 347 0030 2062     		str	r0, [r4, #32]
 106:..\common\tterm/TTerm_cmd.c ****     
 107:..\common\tterm/TTerm_cmd.c ****     //TODO use a reasonable size here
 108:..\common\tterm/TTerm_cmd.c ****     handle->autocompleteBuffer = pvPortMalloc(list->elementCount * sizeof(char *));
 348              		.loc 1 108 0
 349 0032 6868     		ldr	r0, [r5, #4]
 350 0034 8000     		lsls	r0, r0, #2
 351 0036 FFF7FEFF 		bl	pvPortMalloc
 352              	.LVL44:
 109:..\common\tterm/TTerm_cmd.c ****     handle->currAutocompleteCount = 0;
 353              		.loc 1 109 0
 354 003a 0022     		movs	r2, #0
 108:..\common\tterm/TTerm_cmd.c ****     handle->currAutocompleteCount = 0;
 355              		.loc 1 108 0
 356 003c 0346     		mov	r3, r0
 357 003e A061     		str	r0, [r4, #24]
 358              		.loc 1 109 0
 359 0040 2261     		str	r2, [r4, #16]
 110:..\common\tterm/TTerm_cmd.c ****     handle->autocompleteBufferLength = TERM_doListAC(list, buff, len, handle->autocompleteBuffer);
 360              		.loc 1 110 0
 361 0042 3146     		mov	r1, r6
 362 0044 9DF80720 		ldrb	r2, [sp, #7]	@ zero_extendqisi2
 363 0048 2846     		mov	r0, r5
 364 004a FFF7FEFF 		bl	TERM_doListAC
 365              	.LVL45:
 366 004e E061     		str	r0, [r4, #28]
 111:..\common\tterm/TTerm_cmd.c **** 
 112:..\common\tterm/TTerm_cmd.c ****     //UART_print("\r\ncompleting \"%s\" (len = %d, matching = %d) will delete until %d\r\n", buff, 
 113:..\common\tterm/TTerm_cmd.c ****         
 114:..\common\tterm/TTerm_cmd.c ****     vPortFree(buff);
 367              		.loc 1 114 0
 368 0050 3046     		mov	r0, r6
 369 0052 FFF7FEFF 		bl	vPortFree
 370              	.LVL46:
 115:..\common\tterm/TTerm_cmd.c ****     return handle->autocompleteBufferLength;
 371              		.loc 1 115 0
 372 0056 207F     		ldrb	r0, [r4, #28]	@ zero_extendqisi2
 373              	.LVL47:
 374              	.L28:
 116:..\common\tterm/TTerm_cmd.c **** }
 375              		.loc 1 116 0
 376 0058 02B0     		add	sp, sp, #8
 377              		.cfi_def_cfa_offset 16
 378              		@ sp needed
 379 005a 70BD     		pop	{r4, r5, r6, pc}
 380              		.cfi_endproc
 381              	.LFE70:
 382              		.size	TERM_testCommandAutoCompleter, .-TERM_testCommandAutoCompleter
 383              		.section	.text.CMD_help,"ax",%progbits
 384              		.align	1
 385              		.global	CMD_help
 386              		.thumb
 387              		.thumb_func
 388              		.type	CMD_help, %function
 389              	CMD_help:
 390              	.LFB71:
 117:..\common\tterm/TTerm_cmd.c **** 
ARM GAS  C:\Users\chemi\AppData\Local\Temp\ccFEwbcK.s 			page 10


 118:..\common\tterm/TTerm_cmd.c **** 
 119:..\common\tterm/TTerm_cmd.c **** uint8_t CMD_help(TERMINAL_HANDLE * handle, uint8_t argCount, char ** args){
 391              		.loc 1 119 0
 392              		.cfi_startproc
 393              		@ args = 0, pretend = 0, frame = 0
 394              		@ frame_needed = 0, uses_anonymous_args = 0
 395              	.LVL48:
 396 0000 F7B5     		push	{r0, r1, r2, r4, r5, r6, r7, lr}
 397              		.cfi_def_cfa_offset 32
 398              		.cfi_offset 4, -20
 399              		.cfi_offset 5, -16
 400              		.cfi_offset 6, -12
 401              		.cfi_offset 7, -8
 402              		.cfi_offset 14, -4
 403              		.loc 1 119 0
 404 0002 0446     		mov	r4, r0
 405 0004 1546     		mov	r5, r2
 406 0006 02EB8106 		add	r6, r2, r1, lsl #2
 407              	.LVL49:
 408              	.L34:
 120:..\common\tterm/TTerm_cmd.c ****     uint8_t currArg = 0;
 121:..\common\tterm/TTerm_cmd.c ****     for(;currArg<argCount; currArg++){
 409              		.loc 1 121 0 discriminator 1
 410 000a B542     		cmp	r5, r6
 411 000c 0BD0     		beq	.L40
 122:..\common\tterm/TTerm_cmd.c ****         if(strcmp(args[currArg], "-?") == 0){
 412              		.loc 1 122 0
 413 000e 1849     		ldr	r1, .L41
 414 0010 55F8040B 		ldr	r0, [r5], #4
 415 0014 FFF7FEFF 		bl	strcmp
 416              	.LVL50:
 417 0018 0028     		cmp	r0, #0
 418 001a F6D1     		bne	.L34
 123:..\common\tterm/TTerm_cmd.c ****             ttprintf("come on do you really need help with help?\r\n");
 419              		.loc 1 123 0
 420 001c 636A     		ldr	r3, [r4, #36]
 421 001e 1549     		ldr	r1, .L41+4
 422 0020 6068     		ldr	r0, [r4, #4]
 423 0022 9847     		blx	r3
 424              	.LVL51:
 124:..\common\tterm/TTerm_cmd.c ****             return TERM_CMD_EXIT_SUCCESS;
 425              		.loc 1 124 0
 426 0024 21E0     		b	.L35
 427              	.L40:
 125:..\common\tterm/TTerm_cmd.c ****         }
 126:..\common\tterm/TTerm_cmd.c ****     }
 127:..\common\tterm/TTerm_cmd.c ****     ttprintf("\r\nTTerm %s\r\n%d Commands available:\r\n\r\n", TERM_VERSION_STRING, handle->cmdList
 428              		.loc 1 127 0
 429 0026 D4F88C30 		ldr	r3, [r4, #140]
 430 002a 656A     		ldr	r5, [r4, #36]
 431 002c DB68     		ldr	r3, [r3, #12]
 432 002e 124A     		ldr	r2, .L41+8
 433 0030 1249     		ldr	r1, .L41+12
 434 0032 6068     		ldr	r0, [r4, #4]
 435 0034 A847     		blx	r5
 436              	.LVL52:
 128:..\common\tterm/TTerm_cmd.c ****     ttprintf("\x1b[%dC%s\r\x1b[%dC%s\r\n\r\n", 2, "Command:", 19, "Description:");
ARM GAS  C:\Users\chemi\AppData\Local\Temp\ccFEwbcK.s 			page 11


 437              		.loc 1 128 0
 438 0036 124B     		ldr	r3, .L41+16
 439 0038 656A     		ldr	r5, [r4, #36]
 440 003a 0193     		str	r3, [sp, #4]
 441 003c 1323     		movs	r3, #19
 442 003e 0093     		str	r3, [sp]
 443 0040 0222     		movs	r2, #2
 444 0042 104B     		ldr	r3, .L41+20
 445 0044 1049     		ldr	r1, .L41+24
 446 0046 6068     		ldr	r0, [r4, #4]
 447 0048 A847     		blx	r5
 448              	.LVL53:
 129:..\common\tterm/TTerm_cmd.c ****     TermCommandDescriptor * currCmd = handle->cmdListHead->nextCmd;
 449              		.loc 1 129 0
 450 004a D4F88C30 		ldr	r3, [r4, #140]
 130:..\common\tterm/TTerm_cmd.c ****     while(currCmd != 0){
 131:..\common\tterm/TTerm_cmd.c ****         ttprintf("\x1b[%dC%s\r\x1b[%dC%s\r\n", 3, currCmd->command, 20, currCmd->commandDescription
 451              		.loc 1 131 0
 452 004e 1426     		movs	r6, #20
 129:..\common\tterm/TTerm_cmd.c ****     TermCommandDescriptor * currCmd = handle->cmdListHead->nextCmd;
 453              		.loc 1 129 0
 454 0050 DD69     		ldr	r5, [r3, #28]
 455              	.LVL54:
 456              	.L37:
 130:..\common\tterm/TTerm_cmd.c ****     while(currCmd != 0){
 457              		.loc 1 130 0
 458 0052 55B1     		cbz	r5, .L35
 459              		.loc 1 131 0
 460 0054 AB68     		ldr	r3, [r5, #8]
 461 0056 0096     		str	r6, [sp]
 462 0058 0193     		str	r3, [sp, #4]
 463 005a 6B68     		ldr	r3, [r5, #4]
 464 005c 676A     		ldr	r7, [r4, #36]
 465 005e 0322     		movs	r2, #3
 466 0060 0A49     		ldr	r1, .L41+28
 467 0062 6068     		ldr	r0, [r4, #4]
 468 0064 B847     		blx	r7
 469              	.LVL55:
 132:..\common\tterm/TTerm_cmd.c ****         currCmd = currCmd->nextCmd;
 470              		.loc 1 132 0
 471 0066 ED69     		ldr	r5, [r5, #28]
 472              	.LVL56:
 473 0068 F3E7     		b	.L37
 474              	.LVL57:
 475              	.L35:
 133:..\common\tterm/TTerm_cmd.c ****     }
 134:..\common\tterm/TTerm_cmd.c ****     return TERM_CMD_EXIT_SUCCESS;
 135:..\common\tterm/TTerm_cmd.c **** }
 476              		.loc 1 135 0
 477 006a FF20     		movs	r0, #255
 478 006c 03B0     		add	sp, sp, #12
 479              		.cfi_def_cfa_offset 20
 480              		@ sp needed
 481 006e F0BD     		pop	{r4, r5, r6, r7, pc}
 482              	.LVL58:
 483              	.L42:
 484              		.align	2
ARM GAS  C:\Users\chemi\AppData\Local\Temp\ccFEwbcK.s 			page 12


 485              	.L41:
 486 0070 17000000 		.word	.LC4
 487 0074 28020000 		.word	.LC18
 488 0078 55020000 		.word	.LC19
 489 007c 5A020000 		.word	.LC20
 490 0080 9E020000 		.word	.LC23
 491 0084 81020000 		.word	.LC21
 492 0088 8A020000 		.word	.LC22
 493 008c AB020000 		.word	.LC24
 494              		.cfi_endproc
 495              	.LFE71:
 496              		.size	CMD_help, .-CMD_help
 497              		.section	.text.CMD_cls,"ax",%progbits
 498              		.align	1
 499              		.global	CMD_cls
 500              		.thumb
 501              		.thumb_func
 502              		.type	CMD_cls, %function
 503              	CMD_cls:
 504              	.LFB72:
 136:..\common\tterm/TTerm_cmd.c **** 
 137:..\common\tterm/TTerm_cmd.c **** uint8_t CMD_cls(TERMINAL_HANDLE * handle, uint8_t argCount, char ** args){
 505              		.loc 1 137 0
 506              		.cfi_startproc
 507              		@ args = 0, pretend = 0, frame = 0
 508              		@ frame_needed = 0, uses_anonymous_args = 0
 509              	.LVL59:
 510 0000 70B5     		push	{r4, r5, r6, lr}
 511              		.cfi_def_cfa_offset 16
 512              		.cfi_offset 4, -16
 513              		.cfi_offset 5, -12
 514              		.cfi_offset 6, -8
 515              		.cfi_offset 14, -4
 516              		.loc 1 137 0
 517 0002 0446     		mov	r4, r0
 518 0004 1546     		mov	r5, r2
 519 0006 02EB8106 		add	r6, r2, r1, lsl #2
 520              	.LVL60:
 521              	.L44:
 138:..\common\tterm/TTerm_cmd.c ****     uint8_t currArg = 0;
 139:..\common\tterm/TTerm_cmd.c ****     for(;currArg<argCount; currArg++){
 522              		.loc 1 139 0 discriminator 1
 523 000a B542     		cmp	r5, r6
 524 000c 0BD0     		beq	.L48
 140:..\common\tterm/TTerm_cmd.c ****         if(strcmp(args[currArg], "-?") == 0){
 525              		.loc 1 140 0
 526 000e 0F49     		ldr	r1, .L49
 527 0010 55F8040B 		ldr	r0, [r5], #4
 528 0014 FFF7FEFF 		bl	strcmp
 529              	.LVL61:
 530 0018 0028     		cmp	r0, #0
 531 001a F6D1     		bne	.L44
 141:..\common\tterm/TTerm_cmd.c ****             ttprintf("clears the screen\r\n");
 532              		.loc 1 141 0
 533 001c 636A     		ldr	r3, [r4, #36]
 534 001e 0C49     		ldr	r1, .L49+4
 535 0020 6068     		ldr	r0, [r4, #4]
ARM GAS  C:\Users\chemi\AppData\Local\Temp\ccFEwbcK.s 			page 13


 536 0022 9847     		blx	r3
 537              	.LVL62:
 142:..\common\tterm/TTerm_cmd.c ****             return TERM_CMD_EXIT_SUCCESS;
 538              		.loc 1 142 0
 539 0024 0FE0     		b	.L45
 540              	.L48:
 143:..\common\tterm/TTerm_cmd.c ****         }
 144:..\common\tterm/TTerm_cmd.c ****     }
 145:..\common\tterm/TTerm_cmd.c ****     tsk_overlay_chart_start();
 541              		.loc 1 145 0
 542 0026 FFF7FEFF 		bl	tsk_overlay_chart_start
 543              	.LVL63:
 146:..\common\tterm/TTerm_cmd.c ****     TERM_sendVT100Code(handle, _VT100_RESET, 0); TERM_sendVT100Code(handle, _VT100_CURSOR_POS1, 0);
 544              		.loc 1 146 0
 545 002a 0022     		movs	r2, #0
 546 002c 4FF48051 		mov	r1, #4096
 547 0030 2046     		mov	r0, r4
 548 0032 FFF7FEFF 		bl	TERM_sendVT100Code
 549              	.LVL64:
 550 0036 0022     		movs	r2, #0
 551 0038 2046     		mov	r0, r4
 552 003a 1146     		mov	r1, r2
 553 003c FFF7FEFF 		bl	TERM_sendVT100Code
 554              	.LVL65:
 147:..\common\tterm/TTerm_cmd.c ****     TERM_printBootMessage(handle);
 555              		.loc 1 147 0
 556 0040 2046     		mov	r0, r4
 557 0042 FFF7FEFF 		bl	TERM_printBootMessage
 558              	.LVL66:
 559              	.L45:
 148:..\common\tterm/TTerm_cmd.c ****     
 149:..\common\tterm/TTerm_cmd.c ****     return TERM_CMD_EXIT_SUCCESS;
 150:..\common\tterm/TTerm_cmd.c **** }
 560              		.loc 1 150 0
 561 0046 FF20     		movs	r0, #255
 562 0048 70BD     		pop	{r4, r5, r6, pc}
 563              	.LVL67:
 564              	.L50:
 565 004a 00BF     		.align	2
 566              	.L49:
 567 004c 17000000 		.word	.LC4
 568 0050 BD020000 		.word	.LC25
 569              		.cfi_endproc
 570              	.LFE72:
 571              		.size	CMD_cls, .-CMD_cls
 572              		.comm	head,4,4
 573              		.section	.rodata.str1.1,"aMS",%progbits,1
 574              	.LC0:
 575 0000 3B200D0A 		.ascii	"; \015\012arguments={\000"
 575      61726775 
 575      6D656E74 
 575      733D7B00 
 576              	.LC1:
 577 0010 00       		.ascii	"\000"
 578              	.LC2:
 579 0011 0D0A7D00 		.ascii	"\015\012}\000"
 580              	.LC3:
ARM GAS  C:\Users\chemi\AppData\Local\Temp\ccFEwbcK.s 			page 14


 581 0015 2C00     		.ascii	",\000"
 582              	.LC4:
 583 0017 2D3F00   		.ascii	"-?\000"
 584              	.LC5:
 585 001a 54686973 		.ascii	"This function is intended for testing. it will list"
 585      2066756E 
 585      6374696F 
 585      6E206973 
 585      20696E74 
 586 004d 20616C6C 		.ascii	" all passed arguments\015\012\000"
 586      20706173 
 586      73656420 
 586      61726775 
 586      6D656E74 
 587              	.LC6:
 588 0065 75736167 		.ascii	"usage:\015\012\011test [{option} {value}]\015\012\012"
 588      653A0D0A 
 588      09746573 
 588      74205B7B 
 588      6F707469 
 589 0088 092D6161 		.ascii	"\011-aa : adds an argument to the ACL\015\012\012\011"
 589      203A2061 
 589      64647320 
 589      616E2061 
 589      7267756D 
 590 00ae 2D726120 		.ascii	"-ra : removes an argument from the ACL\015\012\012\011"
 590      3A207265 
 590      6D6F7665 
 590      7320616E 
 590      20617267 
 591 00d8 2D722020 		.ascii	"-r  : returns with the given code\000"
 591      3A207265 
 591      7475726E 
 591      73207769 
 591      74682074 
 592              	.LC7:
 593 00fa 2D7200   		.ascii	"-r\000"
 594              	.LC8:
 595 00fd 72657475 		.ascii	"returning %d (from string \"%s\")\015\012\000"
 595      726E696E 
 595      67202564 
 595      20286672 
 595      6F6D2073 
 596              	.LC9:
 597 011f 75736167 		.ascii	"usage:\015\012test -r [return code]\015\012\000"
 597      653A0D0A 
 597      74657374 
 597      202D7220 
 597      5B726574 
 598              	.LC10:
 599 013f 2D726100 		.ascii	"-ra\000"
 600              	.LC11:
 601 0143 72656D6F 		.ascii	"removed \"%s\" from the ACL\015\012\000"
 601      76656420 
 601      22257322 
 601      2066726F 
 601      6D207468 
ARM GAS  C:\Users\chemi\AppData\Local\Temp\ccFEwbcK.s 			page 15


 602              	.LC12:
 603 015f 6D697373 		.ascii	"missing ACL element value for option \"-ra\"\015\012"
 603      696E6720 
 603      41434C20 
 603      656C656D 
 603      656E7420 
 604 018b 00       		.ascii	"\000"
 605              	.LC13:
 606 018c 2D616100 		.ascii	"-aa\000"
 607              	.LC14:
 608 0190 41646465 		.ascii	"Added \"%s\" to the ACL\015\012\000"
 608      64202225 
 608      73222074 
 608      6F207468 
 608      65204143 
 609              	.LC15:
 610 01a8 6D697373 		.ascii	"missing ACL element value for option \"-aa\"\015\012"
 610      696E6720 
 610      41434C20 
 610      656C656D 
 610      656E7420 
 611 01d4 00       		.ascii	"\000"
 612              	.LC16:
 613 01d5 5465726D 		.ascii	"Terminal test function called. ArgCount = %d ; Call"
 613      696E616C 
 613      20746573 
 613      74206675 
 613      6E637469 
 614 0208 696E6720 		.ascii	"ing user = \"%s\"%s\015\012\000"
 614      75736572 
 614      203D2022 
 614      25732225 
 614      730D0A00 
 615              	.LC17:
 616 021c 25643A22 		.ascii	"%d:\"%s\"%s\015\012\000"
 616      25732225 
 616      730D0A00 
 617              	.LC18:
 618 0228 636F6D65 		.ascii	"come on do you really need help with help?\015\012\000"
 618      206F6E20 
 618      646F2079 
 618      6F752072 
 618      65616C6C 
 619              	.LC19:
 620 0255 56312E30 		.ascii	"V1.0\000"
 620      00
 621              	.LC20:
 622 025a 0D0A5454 		.ascii	"\015\012TTerm %s\015\012%d Commands available:\015\012"
 622      65726D20 
 622      25730D0A 
 622      25642043 
 622      6F6D6D61 
 623 027e 0D0A00   		.ascii	"\015\012\000"
 624              	.LC21:
 625 0281 436F6D6D 		.ascii	"Command:\000"
 625      616E643A 
 625      00
ARM GAS  C:\Users\chemi\AppData\Local\Temp\ccFEwbcK.s 			page 16


 626              	.LC22:
 627 028a 1B5B2564 		.ascii	"\033[%dC%s\015\033[%dC%s\015\012\015\012\000"
 627      4325730D 
 627      1B5B2564 
 627      4325730D 
 627      0A0D0A00 
 628              	.LC23:
 629 029e 44657363 		.ascii	"Description:\000"
 629      72697074 
 629      696F6E3A 
 629      00
 630              	.LC24:
 631 02ab 1B5B2564 		.ascii	"\033[%dC%s\015\033[%dC%s\015\012\000"
 631      4325730D 
 631      1B5B2564 
 631      4325730D 
 631      0A00
 632              	.LC25:
 633 02bd 636C6561 		.ascii	"clears the screen\015\012\000"
 633      72732074 
 633      68652073 
 633      63726565 
 633      6E0D0A00 
 634              		.text
 635              	.Letext0:
 636              		.file 2 "c:\\program files (x86)\\cypress\\psoc creator\\4.4\\psoc creator\\import\\gnu\\arm\\5.4.
 637              		.file 3 "c:\\program files (x86)\\cypress\\psoc creator\\4.4\\psoc creator\\import\\gnu\\arm\\5.4.
 638              		.file 4 "..\\common\\rtos\\include/task.h"
 639              		.file 5 "..\\common\\rtos\\include/stream_buffer.h"
 640              		.file 6 "..\\common\\tterm\\TTerm.h"
 641              		.file 7 "..\\common\\tterm\\TTerm_AC.h"
 642              		.file 8 "Generated_Source\\PSoC5/core_cm3.h"
 643              		.file 9 "..\\common\\tterm\\TTerm_cmd.h"
 644              		.file 10 "c:\\program files (x86)\\cypress\\psoc creator\\4.4\\psoc creator\\import\\gnu\\arm\\5.4
 645              		.file 11 "..\\common\\rtos\\include/portable.h"
 646              		.file 12 "c:\\program files (x86)\\cypress\\psoc creator\\4.4\\psoc creator\\import\\gnu\\arm\\5.4
 647              		.file 13 "..\\common\\ud3core/tasks/tsk_overlay.h"