ARM GAS  C:\Users\chemi\AppData\Local\Temp\cc0tO343.s 			page 1


   1              		.syntax unified
   2              		.cpu cortex-m3
   3              		.fpu softvfp
   4              		.eabi_attribute 20, 1
   5              		.eabi_attribute 21, 1
   6              		.eabi_attribute 23, 3
   7              		.eabi_attribute 24, 1
   8              		.eabi_attribute 25, 1
   9              		.eabi_attribute 26, 1
  10              		.eabi_attribute 30, 4
  11              		.eabi_attribute 34, 1
  12              		.eabi_attribute 18, 4
  13              		.thumb
  14              		.syntax unified
  15              		.file	"TTerm.c"
  16              		.text
  17              	.Ltext0:
  18              		.cfi_sections	.debug_frame
  19              		.section	.text.TERM_defaultErrorPrinter,"ax",%progbits
  20              		.align	1
  21              		.global	TERM_defaultErrorPrinter
  22              		.thumb
  23              		.thumb_func
  24              		.type	TERM_defaultErrorPrinter, %function
  25              	TERM_defaultErrorPrinter:
  26              	.LFB77:
  27              		.file 1 "..\\common\\tterm\\TTerm.c"
   1:..\common\tterm/TTerm.c **** /*
   2:..\common\tterm/TTerm.c ****  * TTerm
   3:..\common\tterm/TTerm.c ****  *
   4:..\common\tterm/TTerm.c ****  * Copyright (c) 2020 Thorben Zethoff
   5:..\common\tterm/TTerm.c ****  *
   6:..\common\tterm/TTerm.c ****  * Permission is hereby granted, free of charge, to any person obtaining a copy of
   7:..\common\tterm/TTerm.c ****  * this software and associated documentation files (the "Software"), to deal in
   8:..\common\tterm/TTerm.c ****  * the Software without restriction, including without limitation the rights to
   9:..\common\tterm/TTerm.c ****  * use, copy, modify, merge, publish, distribute, sublicense, and/or sell copies of
  10:..\common\tterm/TTerm.c ****  * the Software, and to permit persons to whom the Software is furnished to do so,
  11:..\common\tterm/TTerm.c ****  * subject to the following conditions:
  12:..\common\tterm/TTerm.c ****  *
  13:..\common\tterm/TTerm.c ****  * The above copyright notice and this permission notice shall be included in all
  14:..\common\tterm/TTerm.c ****  * copies or substantial portions of the Software.
  15:..\common\tterm/TTerm.c ****  *
  16:..\common\tterm/TTerm.c ****  * THE SOFTWARE IS PROVIDED "AS IS", WITHOUT WARRANTY OF ANY KIND, EXPRESS OR
  17:..\common\tterm/TTerm.c ****  * IMPLIED, INCLUDING BUT NOT LIMITED TO THE WARRANTIES OF MERCHANTABILITY, FITNESS
  18:..\common\tterm/TTerm.c ****  * FOR A PARTICULAR PURPOSE AND NONINFRINGEMENT. IN NO EVENT SHALL THE AUTHORS OR
  19:..\common\tterm/TTerm.c ****  * COPYRIGHT HOLDERS BE LIABLE FOR ANY CLAIM, DAMAGES OR OTHER LIABILITY, WHETHER
  20:..\common\tterm/TTerm.c ****  * IN AN ACTION OF CONTRACT, TORT OR OTHERWISE, ARISING FROM, OUT OF OR IN
  21:..\common\tterm/TTerm.c ****  * CONNECTION WITH THE SOFTWARE OR THE USE OR OTHER DEALINGS IN THE SOFTWARE.
  22:..\common\tterm/TTerm.c **** */
  23:..\common\tterm/TTerm.c ****     
  24:..\common\tterm/TTerm.c **** #if PIC32
  25:..\common\tterm/TTerm.c **** #include <xc.h>
  26:..\common\tterm/TTerm.c **** #endif    
  27:..\common\tterm/TTerm.c **** #include <stdint.h>
  28:..\common\tterm/TTerm.c **** #include <stdio.h>
  29:..\common\tterm/TTerm.c **** #include <string.h>
  30:..\common\tterm/TTerm.c **** #include <stdarg.h>
ARM GAS  C:\Users\chemi\AppData\Local\Temp\cc0tO343.s 			page 2


  31:..\common\tterm/TTerm.c **** 
  32:..\common\tterm/TTerm.c **** #include "FreeRTOS.h"
  33:..\common\tterm/TTerm.c **** #include "task.h"
  34:..\common\tterm/TTerm.c **** #include "stream_buffer.h"
  35:..\common\tterm/TTerm.c **** #include "UART.h"
  36:..\common\tterm/TTerm.c **** #include "TTerm.h"
  37:..\common\tterm/TTerm.c **** #include "TTerm_cmd.h"
  38:..\common\tterm/TTerm.c **** #include "TTerm_AC.h"
  39:..\common\tterm/TTerm.c **** #if TERM_SUPPORT_CWD
  40:..\common\tterm/TTerm.c **** #include "TTerm_cwd.h"
  41:..\common\tterm/TTerm.c **** #endif    
  42:..\common\tterm/TTerm.c **** 
  43:..\common\tterm/TTerm.c **** #include "apps.h"
  44:..\common\tterm/TTerm.c **** 
  45:..\common\tterm/TTerm.c **** TermCommandDescriptor TERM_cmdListHead = {.nextCmd = 0, .commandLength = 0};
  46:..\common\tterm/TTerm.c **** unsigned TERM_baseCMDsAdded = 0;
  47:..\common\tterm/TTerm.c **** 
  48:..\common\tterm/TTerm.c **** #define ESC_STR "\x1b"
  49:..\common\tterm/TTerm.c **** 
  50:..\common\tterm/TTerm.c **** #if EXTENDED_PRINTF == 1
  51:..\common\tterm/TTerm.c **** TERMINAL_HANDLE * TERM_createNewHandle(TermPrintHandler printFunction, void * port, unsigned echoEn
  52:..\common\tterm/TTerm.c **** #else
  53:..\common\tterm/TTerm.c **** TERMINAL_HANDLE * TERM_createNewHandle(TermPrintHandler printFunction, unsigned echoEnabled, TermCo
  54:..\common\tterm/TTerm.c **** #endif    
  55:..\common\tterm/TTerm.c ****     TERMINAL_HANDLE * ret = pvPortMalloc(sizeof(TERMINAL_HANDLE));
  56:..\common\tterm/TTerm.c ****     memset(ret, 0, sizeof(TERMINAL_HANDLE));
  57:..\common\tterm/TTerm.c ****     ret->inputBuffer = pvPortMalloc(TERM_INPUTBUFFER_SIZE);
  58:..\common\tterm/TTerm.c ****     ret->print = printFunction;
  59:..\common\tterm/TTerm.c ****     #if EXTENDED_PRINTF == 1
  60:..\common\tterm/TTerm.c ****     ret->port = port;
  61:..\common\tterm/TTerm.c ****     #endif    
  62:..\common\tterm/TTerm.c ****     ret->echoEnabled = echoEnabled;
  63:..\common\tterm/TTerm.c ****     ret->cmdListHead = cmdListHead;
  64:..\common\tterm/TTerm.c ****     ret->currUserName = pvPortMalloc(strlen(usr) + 1 + strlen(TERM_getVT100Code(_VT100_FOREGROUND_C
  65:..\common\tterm/TTerm.c ****     sprintf(ret->currUserName, "%s%s%s", TERM_getVT100Code(_VT100_FOREGROUND_COLOR, _VT100_BLUE), u
  66:..\common\tterm/TTerm.c ****     ret->currEscSeqPos = 0xff;
  67:..\common\tterm/TTerm.c ****     
  68:..\common\tterm/TTerm.c ****     if(errorPrinter == 0){
  69:..\common\tterm/TTerm.c ****         ret->errorPrinter = TERM_defaultErrorPrinter;
  70:..\common\tterm/TTerm.c ****     }else{
  71:..\common\tterm/TTerm.c ****         ret->errorPrinter = errorPrinter;
  72:..\common\tterm/TTerm.c ****     }
  73:..\common\tterm/TTerm.c ****     
  74:..\common\tterm/TTerm.c ****     #if TERM_SUPPORT_CWD
  75:..\common\tterm/TTerm.c ****     ret->cwdPath = pvPortMalloc(2);
  76:..\common\tterm/TTerm.c ****     strcpy(ret->cwdPath, "/");
  77:..\common\tterm/TTerm.c ****     #endif
  78:..\common\tterm/TTerm.c **** 
  79:..\common\tterm/TTerm.c ****     //if this is the first console we initialize we need to add the static commands
  80:..\common\tterm/TTerm.c ****     if(!TERM_baseCMDsAdded){
  81:..\common\tterm/TTerm.c ****         TERM_baseCMDsAdded = 1;
  82:..\common\tterm/TTerm.c ****         
  83:..\common\tterm/TTerm.c ****         TERM_addCommand(CMD_help, "help", "Displays this help message", 0, &TERM_cmdListHead);
  84:..\common\tterm/TTerm.c ****         TERM_addCommand(CMD_cls, "cls", "Clears the screen", 0, &TERM_cmdListHead);
  85:..\common\tterm/TTerm.c ****         TERM_addCommand(CMD_testCommandHandler, "test", "Test input", 0, &TERM_cmdListHead);
  86:..\common\tterm/TTerm.c ****         //TERM_addCommand(CMD_reset, "reset", "resets the fibernet", 0, &TERM_cmdListHead);
  87:..\common\tterm/TTerm.c ****         
ARM GAS  C:\Users\chemi\AppData\Local\Temp\cc0tO343.s 			page 3


  88:..\common\tterm/TTerm.c ****         REGISTER_apps(&TERM_cmdListHead);
  89:..\common\tterm/TTerm.c ****         
  90:..\common\tterm/TTerm.c ****         #if TERM_SUPPORT_CWD
  91:..\common\tterm/TTerm.c ****         TERM_addCommand(CMD_ls, "ls", "List directory", 0, &TERM_cmdListHead);
  92:..\common\tterm/TTerm.c ****         TERM_addCommand(CMD_cd, "cd", "Change directory", 0, &TERM_cmdListHead);
  93:..\common\tterm/TTerm.c ****         TERM_addCommand(CMD_mkdir, "mkdir", "Make directory", 0, &TERM_cmdListHead);
  94:..\common\tterm/TTerm.c ****         #endif  
  95:..\common\tterm/TTerm.c ****     }
  96:..\common\tterm/TTerm.c ****     
  97:..\common\tterm/TTerm.c **** #ifdef TERM_ENABLE_STARTUP_TEXT
  98:..\common\tterm/TTerm.c ****     //TODO VT100 reset at boot
  99:..\common\tterm/TTerm.c ****     //TODO add min start frame to signal that debugging started and print this again
 100:..\common\tterm/TTerm.c ****     //TODO colors in the boot message
 101:..\common\tterm/TTerm.c ****     TERM_printBootMessage(ret);
 102:..\common\tterm/TTerm.c **** #endif
 103:..\common\tterm/TTerm.c ****     return ret;
 104:..\common\tterm/TTerm.c **** }
 105:..\common\tterm/TTerm.c **** 
 106:..\common\tterm/TTerm.c **** void TERM_destroyHandle(TERMINAL_HANDLE * handle){
 107:..\common\tterm/TTerm.c ****     if(handle->currProgram != NULL){
 108:..\common\tterm/TTerm.c ****         //try to gracefully shutdown the running program
 109:..\common\tterm/TTerm.c ****         (*handle->currProgram->inputHandler)(handle, 0x03);
 110:..\common\tterm/TTerm.c ****     }
 111:..\common\tterm/TTerm.c ****     
 112:..\common\tterm/TTerm.c ****     vPortFree(handle->inputBuffer);
 113:..\common\tterm/TTerm.c ****     vPortFree(handle->currUserName);
 114:..\common\tterm/TTerm.c ****     
 115:..\common\tterm/TTerm.c ****     uint8_t currHistoryPos = 0;
 116:..\common\tterm/TTerm.c ****     for(;currHistoryPos < TERM_HISTORYSIZE; currHistoryPos++){
 117:..\common\tterm/TTerm.c ****         if(handle->historyBuffer[currHistoryPos] != 0){
 118:..\common\tterm/TTerm.c ****             vPortFree(handle->historyBuffer[currHistoryPos]);
 119:..\common\tterm/TTerm.c ****             handle->historyBuffer[currHistoryPos] = 0;
 120:..\common\tterm/TTerm.c ****         }
 121:..\common\tterm/TTerm.c ****     }
 122:..\common\tterm/TTerm.c ****     
 123:..\common\tterm/TTerm.c ****     vPortFree(handle->autocompleteBuffer);
 124:..\common\tterm/TTerm.c ****     handle->autocompleteBuffer = NULL;
 125:..\common\tterm/TTerm.c ****     vPortFree(handle);
 126:..\common\tterm/TTerm.c **** }
 127:..\common\tterm/TTerm.c **** 
 128:..\common\tterm/TTerm.c **** void TERM_printDebug(TERMINAL_HANDLE * handle, char * format, ...){
 129:..\common\tterm/TTerm.c ****     //TODO make this nicer... we don't need a double buffer allocation, we should instead send the 
 130:..\common\tterm/TTerm.c ****     //TODO implement a debug level control in the terminal handle (permission level?)
 131:..\common\tterm/TTerm.c ****     va_list arg;
 132:..\common\tterm/TTerm.c ****     va_start(arg, format);
 133:..\common\tterm/TTerm.c ****     
 134:..\common\tterm/TTerm.c ****     char * buff = (char*) pvPortMalloc(256);
 135:..\common\tterm/TTerm.c ****     vsnprintf(buff, 256,format, arg);
 136:..\common\tterm/TTerm.c ****     
 137:..\common\tterm/TTerm.c ****     ttprintfEcho("\r\n%s", buff);
 138:..\common\tterm/TTerm.c ****     
 139:..\common\tterm/TTerm.c ****     if(handle->currBufferLength == 0){
 140:..\common\tterm/TTerm.c ****         ttprintfEcho("%s@%s>", handle->currUserName, TERM_DEVICE_NAME);
 141:..\common\tterm/TTerm.c ****     }else{
 142:..\common\tterm/TTerm.c ****         ttprintfEcho("%s@%s>%s", handle->currUserName, TERM_DEVICE_NAME, handle->inputBuffer);
 143:..\common\tterm/TTerm.c ****         if(handle->inputBuffer[handle->currBufferPosition] != 0) TERM_sendVT100Code(handle, _VT100_
 144:..\common\tterm/TTerm.c ****     }
ARM GAS  C:\Users\chemi\AppData\Local\Temp\cc0tO343.s 			page 4


 145:..\common\tterm/TTerm.c ****     
 146:..\common\tterm/TTerm.c ****     vPortFree(buff);
 147:..\common\tterm/TTerm.c ****     
 148:..\common\tterm/TTerm.c ****     va_end(arg);
 149:..\common\tterm/TTerm.c **** }
 150:..\common\tterm/TTerm.c **** 
 151:..\common\tterm/TTerm.c **** #define ESC_IDLE 0xff
 152:..\common\tterm/TTerm.c **** #define ESC_START 0
 153:..\common\tterm/TTerm.c **** 
 154:..\common\tterm/TTerm.c **** uint8_t TERM_processBuffer(uint8_t * data, uint16_t length, TERMINAL_HANDLE * handle){
 155:..\common\tterm/TTerm.c ****     uint16_t currPos = 0;
 156:..\common\tterm/TTerm.c ****     for(;currPos < length; currPos++){
 157:..\common\tterm/TTerm.c **** 
 158:..\common\tterm/TTerm.c ****     	if(handle->currProgram != NULL && handle->currProgram->raw_input == 1){
 159:..\common\tterm/TTerm.c ****     		TERM_handleInput(data[currPos], handle);
 160:..\common\tterm/TTerm.c ****     	}else{
 161:..\common\tterm/TTerm.c ****     	//ttprintfEcho("checking 0x%02x\r\n", data[currPos]);
 162:..\common\tterm/TTerm.c **** 			if(handle->currEscSeqPos != 0xff){
 163:..\common\tterm/TTerm.c **** 				if(handle->currEscSeqPos == 0){
 164:..\common\tterm/TTerm.c **** 					if(data[currPos] == '['){
 165:..\common\tterm/TTerm.c **** 						if(handle->currEscSeqPos < TTERM_ESC_SEQ_BUFFER_SIZE){
 166:..\common\tterm/TTerm.c **** 							handle->escSeqBuff[handle->currEscSeqPos] = data[currPos];
 167:..\common\tterm/TTerm.c **** 							handle->currEscSeqPos++;
 168:..\common\tterm/TTerm.c **** 						}
 169:..\common\tterm/TTerm.c **** 					}else{
 170:..\common\tterm/TTerm.c **** 						switch(data[currPos]){
 171:..\common\tterm/TTerm.c **** 							case 'c':
 172:..\common\tterm/TTerm.c **** 								handle->currEscSeqPos = 0xff;
 173:..\common\tterm/TTerm.c **** 								TERM_handleInput(_VT100_RESET, handle);
 174:..\common\tterm/TTerm.c **** 								break;
 175:..\common\tterm/TTerm.c **** 							case 0x1b:
 176:..\common\tterm/TTerm.c **** 								handle->currEscSeqPos = 0;
 177:..\common\tterm/TTerm.c **** 								break;
 178:..\common\tterm/TTerm.c **** 							default:
 179:..\common\tterm/TTerm.c **** 								handle->currEscSeqPos = 0xff;
 180:..\common\tterm/TTerm.c **** 								TERM_handleInput(0x1b, handle);
 181:..\common\tterm/TTerm.c **** 								TERM_handleInput(data[currPos], handle);
 182:..\common\tterm/TTerm.c **** 								break;
 183:..\common\tterm/TTerm.c **** 						}
 184:..\common\tterm/TTerm.c **** 					}
 185:..\common\tterm/TTerm.c **** 				}else{
 186:..\common\tterm/TTerm.c **** 					if(isACIILetter(data[currPos])){
 187:..\common\tterm/TTerm.c **** 						if(data[currPos] == 'n'){
 188:..\common\tterm/TTerm.c **** 							if(handle->currEscSeqPos == 2){
 189:..\common\tterm/TTerm.c **** 								if(handle->escSeqBuff[0] == '5'){        //Query device status
 190:..\common\tterm/TTerm.c **** 								}else if(handle->escSeqBuff[0] == '6'){  //Query cursor position
 191:..\common\tterm/TTerm.c **** 								}
 192:..\common\tterm/TTerm.c **** 							}
 193:..\common\tterm/TTerm.c **** 						}else if(data[currPos] == 'c'){
 194:..\common\tterm/TTerm.c **** 							if(handle->currEscSeqPos == 1){              //Query device code
 195:..\common\tterm/TTerm.c **** 							}
 196:..\common\tterm/TTerm.c **** 						}else if(data[currPos] == 'F'){
 197:..\common\tterm/TTerm.c **** 							if(handle->currEscSeqPos == 1){              //end
 198:..\common\tterm/TTerm.c **** 								TERM_handleInput(_VT100_KEY_END, handle);
 199:..\common\tterm/TTerm.c **** 							}
 200:..\common\tterm/TTerm.c **** 						}else if(data[currPos] == 'H'){
 201:..\common\tterm/TTerm.c **** 							if(handle->currEscSeqPos == 1){              //pos1
ARM GAS  C:\Users\chemi\AppData\Local\Temp\cc0tO343.s 			page 5


 202:..\common\tterm/TTerm.c **** 								TERM_handleInput(_VT100_KEY_POS1, handle);
 203:..\common\tterm/TTerm.c **** 							}
 204:..\common\tterm/TTerm.c **** 						}else if(data[currPos] == 'C'){                      //cursor forward
 205:..\common\tterm/TTerm.c **** 							if(handle->currEscSeqPos > 1){
 206:..\common\tterm/TTerm.c **** 								handle->escSeqBuff[handle->currEscSeqPos] = 0;
 207:..\common\tterm/TTerm.c **** 							}else{
 208:..\common\tterm/TTerm.c **** 								TERM_handleInput(_VT100_CURSOR_FORWARD, handle);
 209:..\common\tterm/TTerm.c **** 							}
 210:..\common\tterm/TTerm.c **** 						}else if(data[currPos] == 'D'){                      //cursor backward
 211:..\common\tterm/TTerm.c **** 							if(handle->currEscSeqPos > 1){
 212:..\common\tterm/TTerm.c **** 								handle->escSeqBuff[handle->currEscSeqPos] = 0;
 213:..\common\tterm/TTerm.c **** 							}else{
 214:..\common\tterm/TTerm.c **** 								TERM_handleInput(_VT100_CURSOR_BACK, handle);
 215:..\common\tterm/TTerm.c **** 							}
 216:..\common\tterm/TTerm.c **** 						}else if(data[currPos] == 'A'){                      //cursor up
 217:..\common\tterm/TTerm.c **** 							if(handle->currEscSeqPos > 1){
 218:..\common\tterm/TTerm.c **** 								handle->escSeqBuff[handle->currEscSeqPos] = 0;
 219:..\common\tterm/TTerm.c **** 							}else{
 220:..\common\tterm/TTerm.c **** 								TERM_handleInput(_VT100_CURSOR_UP, handle);
 221:..\common\tterm/TTerm.c **** 							}
 222:..\common\tterm/TTerm.c **** 						}else if(data[currPos] == 'B'){                      //cursor down
 223:..\common\tterm/TTerm.c **** 							if(handle->currEscSeqPos > 1){
 224:..\common\tterm/TTerm.c **** 								handle->escSeqBuff[handle->currEscSeqPos] = 0;
 225:..\common\tterm/TTerm.c **** 							}else{
 226:..\common\tterm/TTerm.c **** 								TERM_handleInput(_VT100_CURSOR_DOWN, handle);
 227:..\common\tterm/TTerm.c **** 							}
 228:..\common\tterm/TTerm.c **** 						}else if(data[currPos] == 'Z'){                      //shift tab or ident request(at least fr
 229:..\common\tterm/TTerm.c **** 							TERM_handleInput(_VT100_BACKWARDS_TAB, handle);
 230:..\common\tterm/TTerm.c **** 
 231:..\common\tterm/TTerm.c **** 						}else if(data[currPos] == '~'){                      //Tilde the end of a special key command
 232:..\common\tterm/TTerm.c **** 							if(handle->escSeqBuff[1] == 0x32){            //insert
 233:..\common\tterm/TTerm.c **** 								TERM_handleInput(_VT100_KEY_INS, handle);
 234:..\common\tterm/TTerm.c **** 							}else if(handle->escSeqBuff[1] == 0x33){      //delete
 235:..\common\tterm/TTerm.c **** 								TERM_handleInput(_VT100_KEY_DEL, handle);
 236:..\common\tterm/TTerm.c **** 							}else if(handle->escSeqBuff[1] == 0x35){      //page up
 237:..\common\tterm/TTerm.c **** 								TERM_handleInput(_VT100_KEY_PAGE_UP, handle);
 238:..\common\tterm/TTerm.c **** 							}else if(handle->escSeqBuff[1] == 0x36){      //page down
 239:..\common\tterm/TTerm.c **** 								TERM_handleInput(_VT100_KEY_PAGE_DOWN, handle);
 240:..\common\tterm/TTerm.c **** 							}else{
 241:..\common\tterm/TTerm.c **** 								TERM_handleInput(_VT100_INVALID, handle);
 242:..\common\tterm/TTerm.c **** 							}
 243:..\common\tterm/TTerm.c **** 						}else{                      //others
 244:..\common\tterm/TTerm.c **** 							handle->escSeqBuff[handle->currEscSeqPos+1] = 0;
 245:..\common\tterm/TTerm.c **** 						}
 246:..\common\tterm/TTerm.c **** 						handle->currEscSeqPos = 0xff;
 247:..\common\tterm/TTerm.c **** 					}else{
 248:..\common\tterm/TTerm.c **** 						handle->escSeqBuff[handle->currEscSeqPos++] = data[currPos];
 249:..\common\tterm/TTerm.c **** 					}
 250:..\common\tterm/TTerm.c **** 				}
 251:..\common\tterm/TTerm.c **** 			}else{
 252:..\common\tterm/TTerm.c **** 				if(data[currPos] == 0x1B){     //ESC for V100 control sequences
 253:..\common\tterm/TTerm.c **** 					handle->currEscSeqPos = 0;
 254:..\common\tterm/TTerm.c **** 				}else{
 255:..\common\tterm/TTerm.c **** 					TERM_handleInput(data[currPos], handle);
 256:..\common\tterm/TTerm.c **** 				}
 257:..\common\tterm/TTerm.c **** 			}
 258:..\common\tterm/TTerm.c ****     	}
ARM GAS  C:\Users\chemi\AppData\Local\Temp\cc0tO343.s 			page 6


 259:..\common\tterm/TTerm.c ****     }
 260:..\common\tterm/TTerm.c ****     return length;
 261:..\common\tterm/TTerm.c **** }
 262:..\common\tterm/TTerm.c **** 
 263:..\common\tterm/TTerm.c **** unsigned isACIILetter(char c){
 264:..\common\tterm/TTerm.c ****     return (c > 64 && c < 91) || (c > 96 && c < 122) || c == '~';
 265:..\common\tterm/TTerm.c **** }
 266:..\common\tterm/TTerm.c **** 
 267:..\common\tterm/TTerm.c **** void TERM_printBootMessage(TERMINAL_HANDLE * handle){
 268:..\common\tterm/TTerm.c ****     TERM_sendVT100Code(handle, _VT100_RESET, 0); TERM_sendVT100Code(handle, _VT100_CURSOR_POS1, 0);
 269:..\common\tterm/TTerm.c ****     ttprintfEcho("\33[?7l\r\n\n\n%s\r\n", TERM_startupText1);
 270:..\common\tterm/TTerm.c ****     ttprintfEcho("%s\r\n", TERM_startupText2);
 271:..\common\tterm/TTerm.c ****     ttprintfEcho("%s\r\n", TERM_startupText3);
 272:..\common\tterm/TTerm.c ****     
 273:..\common\tterm/TTerm.c ****     if(handle->currBufferLength == 0){
 274:..\common\tterm/TTerm.c ****         ttprintfEcho("\r\n\r\n%s@%s>", handle->currUserName, TERM_DEVICE_NAME);
 275:..\common\tterm/TTerm.c ****     }else{
 276:..\common\tterm/TTerm.c ****         ttprintfEcho("\r\n\r\n%s@%s>%s", handle->currUserName, TERM_DEVICE_NAME, handle->inputBuffe
 277:..\common\tterm/TTerm.c ****         if(handle->inputBuffer[handle->currBufferPosition] != 0) TERM_sendVT100Code(handle, _VT100_
 278:..\common\tterm/TTerm.c ****     }
 279:..\common\tterm/TTerm.c **** }
 280:..\common\tterm/TTerm.c **** 
 281:..\common\tterm/TTerm.c **** BaseType_t ptr_is_in_ram(void* ptr){
 282:..\common\tterm/TTerm.c ****     if(ptr > (void*)START_OF_RAM && ptr < (void*)END_OF_RAM){
 283:..\common\tterm/TTerm.c ****         return pdTRUE;
 284:..\common\tterm/TTerm.c ****     }
 285:..\common\tterm/TTerm.c ****     return pdFALSE;
 286:..\common\tterm/TTerm.c **** }
 287:..\common\tterm/TTerm.c **** 
 288:..\common\tterm/TTerm.c **** BaseType_t ptr_is_in_flash(void* ptr){
 289:..\common\tterm/TTerm.c ****     if(ptr > (void*)START_OF_FLASH && ptr < (void*)END_OF_FLASH){
 290:..\common\tterm/TTerm.c ****         return pdTRUE;
 291:..\common\tterm/TTerm.c ****     }
 292:..\common\tterm/TTerm.c ****     return pdFALSE;
 293:..\common\tterm/TTerm.c **** }
 294:..\common\tterm/TTerm.c **** 
 295:..\common\tterm/TTerm.c **** uint8_t TERM_defaultErrorPrinter(TERMINAL_HANDLE * handle, uint32_t retCode){
  28              		.loc 1 295 0
  29              		.cfi_startproc
  30              		@ args = 0, pretend = 0, frame = 0
  31              		@ frame_needed = 0, uses_anonymous_args = 0
  32              	.LVL0:
 296:..\common\tterm/TTerm.c ****     switch(retCode){
  33              		.loc 1 296 0
  34 0000 0129     		cmp	r1, #1
 295:..\common\tterm/TTerm.c ****     switch(retCode){
  35              		.loc 1 295 0
  36 0002 13B5     		push	{r0, r1, r4, lr}
  37              		.cfi_def_cfa_offset 16
  38              		.cfi_offset 4, -8
  39              		.cfi_offset 14, -4
  40              		.loc 1 296 0
  41 0004 16D0     		beq	.L3
  42 0006 0BD3     		bcc	.L4
  43 0008 FF29     		cmp	r1, #255
  44 000a 1ED1     		bne	.L2
 297:..\common\tterm/TTerm.c ****         case TERM_CMD_EXIT_SUCCESS:
ARM GAS  C:\Users\chemi\AppData\Local\Temp\cc0tO343.s 			page 7


 298:..\common\tterm/TTerm.c ****             ttprintfEcho("\r\n%s@%s>", handle->currUserName, TERM_DEVICE_NAME);
  45              		.loc 1 298 0
  46 000c D0F88830 		ldr	r3, [r0, #136]
  47 0010 DBB1     		cbz	r3, .L2
  48              		.loc 1 298 0 is_stmt 0 discriminator 1
  49 0012 446A     		ldr	r4, [r0, #36]
  50 0014 826A     		ldr	r2, [r0, #40]
  51 0016 0E4B     		ldr	r3, .L17
  52 0018 0E49     		ldr	r1, .L17+4
  53              	.LVL1:
  54 001a 4068     		ldr	r0, [r0, #4]
  55              	.LVL2:
  56 001c A047     		blx	r4
  57              	.LVL3:
  58 001e 14E0     		b	.L2
  59              	.LVL4:
  60              	.L4:
 299:..\common\tterm/TTerm.c ****             break;
 300:..\common\tterm/TTerm.c **** 
 301:..\common\tterm/TTerm.c ****         case TERM_CMD_EXIT_ERROR:
 302:..\common\tterm/TTerm.c ****             ttprintfEcho("\r\nTask returned with error code %d\r\n%s@%s>", retCode, handle->currUse
  61              		.loc 1 302 0 is_stmt 1
  62 0020 D0F88830 		ldr	r3, [r0, #136]
  63 0024 8BB1     		cbz	r3, .L2
  64              		.loc 1 302 0 is_stmt 0 discriminator 1
  65 0026 0A4B     		ldr	r3, .L17
  66 0028 0022     		movs	r2, #0
  67 002a 0093     		str	r3, [sp]
  68 002c 446A     		ldr	r4, [r0, #36]
  69 002e 836A     		ldr	r3, [r0, #40]
  70 0030 0949     		ldr	r1, .L17+8
  71              	.LVL5:
  72 0032 08E0     		b	.L15
  73              	.LVL6:
  74              	.L3:
  75              	.LBB28:
  76              	.LBB29:
 303:..\common\tterm/TTerm.c ****             break;
 304:..\common\tterm/TTerm.c **** 
 305:..\common\tterm/TTerm.c ****         case TERM_CMD_EXIT_NOT_FOUND:
 306:..\common\tterm/TTerm.c ****             ttprintfEcho("\"%s\" is not a valid command. Type \"help\" to see a list of available o
  77              		.loc 1 306 0 is_stmt 1
  78 0034 D0F88830 		ldr	r3, [r0, #136]
  79 0038 3BB1     		cbz	r3, .L2
  80 003a 054B     		ldr	r3, .L17
  81 003c 0749     		ldr	r1, .L17+12
  82              	.LVL7:
  83 003e 0093     		str	r3, [sp]
  84 0040 446A     		ldr	r4, [r0, #36]
  85 0042 836A     		ldr	r3, [r0, #40]
  86 0044 0268     		ldr	r2, [r0]
  87              	.LVL8:
  88              	.L15:
  89 0046 4068     		ldr	r0, [r0, #4]
  90              	.LVL9:
  91 0048 A047     		blx	r4
  92              	.LVL10:
ARM GAS  C:\Users\chemi\AppData\Local\Temp\cc0tO343.s 			page 8


  93              	.L2:
  94              	.LBE29:
  95              	.LBE28:
 307:..\common\tterm/TTerm.c ****             break;
 308:..\common\tterm/TTerm.c ****     }
 309:..\common\tterm/TTerm.c ****     return TERM_CMD_EXIT_SUCCESS;
 310:..\common\tterm/TTerm.c **** }
  96              		.loc 1 310 0
  97 004a FF20     		movs	r0, #255
  98 004c 02B0     		add	sp, sp, #8
  99              		.cfi_def_cfa_offset 8
 100              		@ sp needed
 101 004e 10BD     		pop	{r4, pc}
 102              	.L18:
 103              		.align	2
 104              	.L17:
 105 0050 00000000 		.word	.LC0
 106 0054 04000000 		.word	.LC1
 107 0058 0D000000 		.word	.LC2
 108 005c 38000000 		.word	.LC3
 109              		.cfi_endproc
 110              	.LFE77:
 111              		.size	TERM_defaultErrorPrinter, .-TERM_defaultErrorPrinter
 112              		.section	.text.TERM_destroyHandle,"ax",%progbits
 113              		.align	1
 114              		.global	TERM_destroyHandle
 115              		.thumb
 116              		.thumb_func
 117              		.type	TERM_destroyHandle, %function
 118              	TERM_destroyHandle:
 119              	.LFB70:
 106:..\common\tterm/TTerm.c ****     if(handle->currProgram != NULL){
 120              		.loc 1 106 0
 121              		.cfi_startproc
 122              		@ args = 0, pretend = 0, frame = 0
 123              		@ frame_needed = 0, uses_anonymous_args = 0
 124              	.LVL11:
 125 0000 F8B5     		push	{r3, r4, r5, r6, r7, lr}
 126              		.cfi_def_cfa_offset 24
 127              		.cfi_offset 3, -24
 128              		.cfi_offset 4, -20
 129              		.cfi_offset 5, -16
 130              		.cfi_offset 6, -12
 131              		.cfi_offset 7, -8
 132              		.cfi_offset 14, -4
 107:..\common\tterm/TTerm.c ****         //try to gracefully shutdown the running program
 133              		.loc 1 107 0
 134 0002 4369     		ldr	r3, [r0, #20]
 106:..\common\tterm/TTerm.c ****     if(handle->currProgram != NULL){
 135              		.loc 1 106 0
 136 0004 0446     		mov	r4, r0
 107:..\common\tterm/TTerm.c ****         //try to gracefully shutdown the running program
 137              		.loc 1 107 0
 138 0006 13B1     		cbz	r3, .L20
 109:..\common\tterm/TTerm.c ****     }
 139              		.loc 1 109 0
 140 0008 5B68     		ldr	r3, [r3, #4]
ARM GAS  C:\Users\chemi\AppData\Local\Temp\cc0tO343.s 			page 9


 141 000a 0321     		movs	r1, #3
 142 000c 9847     		blx	r3
 143              	.LVL12:
 144              	.L20:
 113:..\common\tterm/TTerm.c ****     
 145              		.loc 1 113 0
 146 000e 2546     		mov	r5, r4
 112:..\common\tterm/TTerm.c ****     vPortFree(handle->currUserName);
 147              		.loc 1 112 0
 148 0010 2068     		ldr	r0, [r4]
 149 0012 FFF7FEFF 		bl	vPortFree
 150              	.LVL13:
 113:..\common\tterm/TTerm.c ****     
 151              		.loc 1 113 0
 152 0016 55F8280F 		ldr	r0, [r5, #40]!
 153 001a FFF7FEFF 		bl	vPortFree
 154              	.LVL14:
 155 001e 04F16806 		add	r6, r4, #104
 119:..\common\tterm/TTerm.c ****         }
 156              		.loc 1 119 0
 157 0022 0027     		movs	r7, #0
 158              	.LVL15:
 159              	.L22:
 117:..\common\tterm/TTerm.c ****             vPortFree(handle->historyBuffer[currHistoryPos]);
 160              		.loc 1 117 0
 161 0024 55F8040F 		ldr	r0, [r5, #4]!
 162 0028 10B1     		cbz	r0, .L21
 118:..\common\tterm/TTerm.c ****             handle->historyBuffer[currHistoryPos] = 0;
 163              		.loc 1 118 0
 164 002a FFF7FEFF 		bl	vPortFree
 165              	.LVL16:
 119:..\common\tterm/TTerm.c ****         }
 166              		.loc 1 119 0
 167 002e 2F60     		str	r7, [r5]
 168              	.L21:
 116:..\common\tterm/TTerm.c ****         if(handle->historyBuffer[currHistoryPos] != 0){
 169              		.loc 1 116 0
 170 0030 B542     		cmp	r5, r6
 171 0032 F7D1     		bne	.L22
 123:..\common\tterm/TTerm.c ****     handle->autocompleteBuffer = NULL;
 172              		.loc 1 123 0
 173 0034 A069     		ldr	r0, [r4, #24]
 174 0036 FFF7FEFF 		bl	vPortFree
 175              	.LVL17:
 124:..\common\tterm/TTerm.c ****     vPortFree(handle);
 176              		.loc 1 124 0
 177 003a 0023     		movs	r3, #0
 178 003c A361     		str	r3, [r4, #24]
 125:..\common\tterm/TTerm.c **** }
 179              		.loc 1 125 0
 180 003e 2046     		mov	r0, r4
 126:..\common\tterm/TTerm.c **** 
 181              		.loc 1 126 0
 182 0040 BDE8F840 		pop	{r3, r4, r5, r6, r7, lr}
 183              		.cfi_restore 14
 184              		.cfi_restore 7
 185              		.cfi_restore 6
ARM GAS  C:\Users\chemi\AppData\Local\Temp\cc0tO343.s 			page 10


 186              		.cfi_restore 5
 187              		.cfi_restore 4
 188              		.cfi_restore 3
 189              		.cfi_def_cfa_offset 0
 190              	.LVL18:
 125:..\common\tterm/TTerm.c **** }
 191              		.loc 1 125 0
 192 0044 FFF7FEBF 		b	vPortFree
 193              	.LVL19:
 194              		.cfi_endproc
 195              	.LFE70:
 196              		.size	TERM_destroyHandle, .-TERM_destroyHandle
 197              		.section	.text.isACIILetter,"ax",%progbits
 198              		.align	1
 199              		.global	isACIILetter
 200              		.thumb
 201              		.thumb_func
 202              		.type	isACIILetter, %function
 203              	isACIILetter:
 204              	.LFB73:
 263:..\common\tterm/TTerm.c ****     return (c > 64 && c < 91) || (c > 96 && c < 122) || c == '~';
 205              		.loc 1 263 0
 206              		.cfi_startproc
 207              		@ args = 0, pretend = 0, frame = 0
 208              		@ frame_needed = 0, uses_anonymous_args = 0
 209              		@ link register save eliminated.
 210              	.LVL20:
 264:..\common\tterm/TTerm.c **** }
 211              		.loc 1 264 0
 212 0000 A0F14103 		sub	r3, r0, #65
 213 0004 192B     		cmp	r3, #25
 214 0006 08D9     		bls	.L33
 264:..\common\tterm/TTerm.c **** }
 215              		.loc 1 264 0 is_stmt 0 discriminator 2
 216 0008 A0F16103 		sub	r3, r0, #97
 217 000c 182B     		cmp	r3, #24
 218 000e 04D9     		bls	.L33
 264:..\common\tterm/TTerm.c **** }
 219              		.loc 1 264 0 discriminator 4
 220 0010 A0F17E03 		sub	r3, r0, #126
 221 0014 5842     		rsbs	r0, r3, #0
 222              	.LVL21:
 223 0016 5841     		adcs	r0, r0, r3
 224 0018 7047     		bx	lr
 225              	.LVL22:
 226              	.L33:
 264:..\common\tterm/TTerm.c **** }
 227              		.loc 1 264 0
 228 001a 0120     		movs	r0, #1
 229              	.LVL23:
 265:..\common\tterm/TTerm.c **** 
 230              		.loc 1 265 0 is_stmt 1
 231 001c 7047     		bx	lr
 232              		.cfi_endproc
 233              	.LFE73:
 234              		.size	isACIILetter, .-isACIILetter
 235              		.section	.text.ptr_is_in_ram,"ax",%progbits
ARM GAS  C:\Users\chemi\AppData\Local\Temp\cc0tO343.s 			page 11


 236              		.align	1
 237              		.global	ptr_is_in_ram
 238              		.thumb
 239              		.thumb_func
 240              		.type	ptr_is_in_ram, %function
 241              	ptr_is_in_ram:
 242              	.LFB75:
 281:..\common\tterm/TTerm.c ****     if(ptr > (void*)START_OF_RAM && ptr < (void*)END_OF_RAM){
 243              		.loc 1 281 0
 244              		.cfi_startproc
 245              		@ args = 0, pretend = 0, frame = 0
 246              		@ frame_needed = 0, uses_anonymous_args = 0
 247              		@ link register save eliminated.
 248              	.LVL24:
 249 0000 044B     		ldr	r3, .L35
 250 0002 0344     		add	r3, r3, r0
 286:..\common\tterm/TTerm.c **** 
 251              		.loc 1 286 0
 252 0004 4FF6FD70 		movw	r0, #65533
 253              	.LVL25:
 254 0008 8342     		cmp	r3, r0
 255 000a 8CBF     		ite	hi
 256 000c 0020     		movhi	r0, #0
 257 000e 0120     		movls	r0, #1
 258 0010 7047     		bx	lr
 259              	.L36:
 260 0012 00BF     		.align	2
 261              	.L35:
 262 0014 FF7F00E0 		.word	-536838145
 263              		.cfi_endproc
 264              	.LFE75:
 265              		.size	ptr_is_in_ram, .-ptr_is_in_ram
 266              		.section	.text.ptr_is_in_flash,"ax",%progbits
 267              		.align	1
 268              		.global	ptr_is_in_flash
 269              		.thumb
 270              		.thumb_func
 271              		.type	ptr_is_in_flash, %function
 272              	ptr_is_in_flash:
 273              	.LFB76:
 288:..\common\tterm/TTerm.c ****     if(ptr > (void*)START_OF_FLASH && ptr < (void*)END_OF_FLASH){
 274              		.loc 1 288 0
 275              		.cfi_startproc
 276              		@ args = 0, pretend = 0, frame = 0
 277              		@ frame_needed = 0, uses_anonymous_args = 0
 278              		@ link register save eliminated.
 279              	.LVL26:
 293:..\common\tterm/TTerm.c **** 
 280              		.loc 1 293 0
 281 0000 034B     		ldr	r3, .L38
 282 0002 0138     		subs	r0, r0, #1
 283              	.LVL27:
 284 0004 9842     		cmp	r0, r3
 285 0006 8CBF     		ite	hi
 286 0008 0020     		movhi	r0, #0
 287              	.LVL28:
 288 000a 0120     		movls	r0, #1
ARM GAS  C:\Users\chemi\AppData\Local\Temp\cc0tO343.s 			page 12


 289 000c 7047     		bx	lr
 290              	.L39:
 291 000e 00BF     		.align	2
 292              	.L38:
 293 0010 FE7FFF1F 		.word	536838142
 294              		.cfi_endproc
 295              	.LFE76:
 296              		.size	ptr_is_in_flash, .-ptr_is_in_flash
 297              		.section	.text.TERM_checkForCopy,"ax",%progbits
 298              		.align	1
 299              		.global	TERM_checkForCopy
 300              		.thumb
 301              		.thumb_func
 302              		.type	TERM_checkForCopy, %function
 303              	TERM_checkForCopy:
 304              	.LFB79:
 311:..\common\tterm/TTerm.c **** 
 312:..\common\tterm/TTerm.c **** uint8_t TERM_handleInput(uint16_t c, TERMINAL_HANDLE * handle){
 313:..\common\tterm/TTerm.c ****     //ttprintfEcho("received 0x%04x\r\n", c);
 314:..\common\tterm/TTerm.c ****     if(handle->currProgram != NULL){
 315:..\common\tterm/TTerm.c ****         //call the handler of the current override
 316:..\common\tterm/TTerm.c ****         uint8_t currRetCode = (*handle->currProgram->inputHandler)(handle, c);
 317:..\common\tterm/TTerm.c ****         
 318:..\common\tterm/TTerm.c ****         (*handle->errorPrinter)(handle, currRetCode);
 319:..\common\tterm/TTerm.c ****         
 320:..\common\tterm/TTerm.c ****         return 1;
 321:..\common\tterm/TTerm.c ****     }
 322:..\common\tterm/TTerm.c ****     
 323:..\common\tterm/TTerm.c ****     switch(c){
 324:..\common\tterm/TTerm.c ****         case '\r':      //enter
 325:..\common\tterm/TTerm.c ****             TERM_checkForCopy(handle, TERM_CHECK_COMP_AND_HIST);
 326:..\common\tterm/TTerm.c ****             
 327:..\common\tterm/TTerm.c ****             if(handle->currBufferLength != 0){
 328:..\common\tterm/TTerm.c ****                 ttprintfEcho("\r\n", handle->inputBuffer);
 329:..\common\tterm/TTerm.c **** 
 330:..\common\tterm/TTerm.c ****                 if(handle->historyBuffer[handle->currHistoryWritePosition] != 0){
 331:..\common\tterm/TTerm.c ****                     vPortFree(handle->historyBuffer[handle->currHistoryWritePosition]);
 332:..\common\tterm/TTerm.c ****                     handle->historyBuffer[handle->currHistoryWritePosition] = 0;
 333:..\common\tterm/TTerm.c ****                 }
 334:..\common\tterm/TTerm.c **** 
 335:..\common\tterm/TTerm.c ****                 handle->historyBuffer[handle->currHistoryWritePosition] = pvPortMalloc(handle->curr
 336:..\common\tterm/TTerm.c ****                 memcpy(handle->historyBuffer[handle->currHistoryWritePosition], handle->inputBuffer
 337:..\common\tterm/TTerm.c ****                 
 338:..\common\tterm/TTerm.c ****                 if(++handle->currHistoryWritePosition >= TERM_HISTORYSIZE) handle->currHistoryWrite
 339:..\common\tterm/TTerm.c ****                 
 340:..\common\tterm/TTerm.c ****                 handle->currHistoryReadPosition = handle->currHistoryWritePosition;
 341:..\common\tterm/TTerm.c **** 
 342:..\common\tterm/TTerm.c ****                 uint8_t retCode = TERM_interpretCMD(handle->inputBuffer, handle->currBufferLength, 
 343:..\common\tterm/TTerm.c ****                 (*handle->errorPrinter)(handle, retCode);
 344:..\common\tterm/TTerm.c ****                 
 345:..\common\tterm/TTerm.c ****                 handle->currBufferPosition = 0;
 346:..\common\tterm/TTerm.c ****                 handle->currBufferLength = 0;
 347:..\common\tterm/TTerm.c ****                 handle->inputBuffer[handle->currBufferPosition] = 0;
 348:..\common\tterm/TTerm.c ****             }else{
 349:..\common\tterm/TTerm.c ****                 ttprintfEcho("\r\n%s@%s>", handle->currUserName, TERM_DEVICE_NAME);
 350:..\common\tterm/TTerm.c ****             }       
 351:..\common\tterm/TTerm.c ****             break;
ARM GAS  C:\Users\chemi\AppData\Local\Temp\cc0tO343.s 			page 13


 352:..\common\tterm/TTerm.c ****             
 353:..\common\tterm/TTerm.c ****         case 0x03:      //CTRL+c
 354:..\common\tterm/TTerm.c ****         	handle->currBufferPosition=0;
 355:..\common\tterm/TTerm.c ****         	handle->currBufferLength=0;
 356:..\common\tterm/TTerm.c ****         	handle->inputBuffer[0]=0;
 357:..\common\tterm/TTerm.c ****         	TERM_sendVT100Code(handle, _VT100_ERASE_LINE, 0);
 358:..\common\tterm/TTerm.c ****         	ttprintfEcho("\r%s@%s>", handle->currUserName, TERM_DEVICE_NAME);
 359:..\common\tterm/TTerm.c ****             break;
 360:..\common\tterm/TTerm.c ****         case 0x0a: 		//LF
 361:..\common\tterm/TTerm.c ****         case 0x08:      //backspace (used by xTerm)
 362:..\common\tterm/TTerm.c ****         case 0x7f:      //DEL       (used by hTerm)
 363:..\common\tterm/TTerm.c ****         case _VT100_KEY_DEL:
 364:..\common\tterm/TTerm.c ****             TERM_checkForCopy(handle, TERM_CHECK_COMP_AND_HIST);
 365:..\common\tterm/TTerm.c **** 
 366:..\common\tterm/TTerm.c ****             if(handle->currBufferPosition < handle->currBufferLength && c == _VT100_KEY_DEL){
 367:..\common\tterm/TTerm.c ****                 handle->currBufferPosition ++;
 368:..\common\tterm/TTerm.c ****                 TERM_sendVT100Code(handle, _VT100_CURSOR_FORWARD, 0);
 369:..\common\tterm/TTerm.c ****             }else if (c == _VT100_KEY_DEL) {
 370:..\common\tterm/TTerm.c ****                 break;
 371:..\common\tterm/TTerm.c ****             }
 372:..\common\tterm/TTerm.c **** 
 373:..\common\tterm/TTerm.c ****             if(handle->currBufferPosition == 0) break;
 374:..\common\tterm/TTerm.c **** 
 375:..\common\tterm/TTerm.c ****             if(handle->inputBuffer[handle->currBufferPosition] != 0){      //check if we are at the
 376:..\common\tterm/TTerm.c ****                 //we are somewhere in the middle -> move back existing characters
 377:..\common\tterm/TTerm.c ****                 strsft(handle->inputBuffer, handle->currBufferPosition - 1, -1);
 378:..\common\tterm/TTerm.c ****                 ttprintfEcho("\x08");   
 379:..\common\tterm/TTerm.c ****                 TERM_sendVT100Code(handle, _VT100_ERASE_LINE_END, 0);
 380:..\common\tterm/TTerm.c ****                 ttprintfEcho("%s", &handle->inputBuffer[handle->currBufferPosition - 1]);
 381:..\common\tterm/TTerm.c ****                 TERM_sendVT100Code(handle, _VT100_CURSOR_BACK_BY, handle->currBufferLength - handle
 382:..\common\tterm/TTerm.c ****                 handle->currBufferPosition --;
 383:..\common\tterm/TTerm.c ****                 handle->currBufferLength --;
 384:..\common\tterm/TTerm.c ****             }else{
 385:..\common\tterm/TTerm.c ****                 //we are somewhere at the end -> just delete the current one
 386:..\common\tterm/TTerm.c ****                 handle->inputBuffer[--handle->currBufferPosition] = 0;
 387:..\common\tterm/TTerm.c ****                 ttprintfEcho("\x08 \x08");           
 388:..\common\tterm/TTerm.c ****                 handle->currBufferLength --;
 389:..\common\tterm/TTerm.c ****             }
 390:..\common\tterm/TTerm.c ****             break;
 391:..\common\tterm/TTerm.c ****             
 392:..\common\tterm/TTerm.c ****         case _VT100_KEY_END:
 393:..\common\tterm/TTerm.c ****         	TERM_checkForCopy(handle, TERM_CHECK_COMP_AND_HIST); //is the user browsing the history ri
 394:..\common\tterm/TTerm.c **** 
 395:..\common\tterm/TTerm.c **** 			if(handle->currBufferLength > handle->currBufferPosition){
 396:..\common\tterm/TTerm.c **** 				//move the cursor to the right position
 397:..\common\tterm/TTerm.c **** 				TERM_sendVT100Code(handle, _VT100_CURSOR_FORWARD_BY, handle->currBufferLength - handle->currBuf
 398:..\common\tterm/TTerm.c **** 				handle->currBufferPosition = handle->currBufferLength;
 399:..\common\tterm/TTerm.c **** 			}
 400:..\common\tterm/TTerm.c ****             break;
 401:..\common\tterm/TTerm.c ****             
 402:..\common\tterm/TTerm.c ****         case _VT100_KEY_POS1:
 403:..\common\tterm/TTerm.c ****         	TERM_checkForCopy(handle, TERM_CHECK_COMP_AND_HIST); //is the user browsing the history ri
 404:..\common\tterm/TTerm.c **** 
 405:..\common\tterm/TTerm.c **** 			if(handle->currBufferPosition > 0){
 406:..\common\tterm/TTerm.c **** 				//move the cursor to the right position
 407:..\common\tterm/TTerm.c **** 				TERM_sendVT100Code(handle, _VT100_CURSOR_BACK_BY, handle->currBufferPosition);
 408:..\common\tterm/TTerm.c **** 				handle->currBufferPosition = 0;
ARM GAS  C:\Users\chemi\AppData\Local\Temp\cc0tO343.s 			page 14


 409:..\common\tterm/TTerm.c **** 			}
 410:..\common\tterm/TTerm.c ****             break;
 411:..\common\tterm/TTerm.c ****             
 412:..\common\tterm/TTerm.c ****         case _VT100_CURSOR_FORWARD:
 413:..\common\tterm/TTerm.c ****             TERM_checkForCopy(handle, TERM_CHECK_COMP_AND_HIST);
 414:..\common\tterm/TTerm.c ****             
 415:..\common\tterm/TTerm.c ****             if(handle->currBufferPosition < handle->currBufferLength){
 416:..\common\tterm/TTerm.c ****                 handle->currBufferPosition ++;
 417:..\common\tterm/TTerm.c ****                 TERM_sendVT100Code(handle, _VT100_CURSOR_FORWARD, 0);
 418:..\common\tterm/TTerm.c ****             }
 419:..\common\tterm/TTerm.c ****             break;
 420:..\common\tterm/TTerm.c ****             
 421:..\common\tterm/TTerm.c ****         case _VT100_CURSOR_BACK:
 422:..\common\tterm/TTerm.c ****             TERM_checkForCopy(handle, TERM_CHECK_COMP_AND_HIST);
 423:..\common\tterm/TTerm.c ****             
 424:..\common\tterm/TTerm.c ****             if(handle->currBufferPosition > 0){
 425:..\common\tterm/TTerm.c ****                 handle->currBufferPosition --;
 426:..\common\tterm/TTerm.c ****                 TERM_sendVT100Code(handle, _VT100_CURSOR_BACK, 0);
 427:..\common\tterm/TTerm.c ****             }
 428:..\common\tterm/TTerm.c ****             break;
 429:..\common\tterm/TTerm.c ****             
 430:..\common\tterm/TTerm.c ****         case _VT100_CURSOR_UP:
 431:..\common\tterm/TTerm.c ****             TERM_checkForCopy(handle, TERM_CHECK_COMP);
 432:..\common\tterm/TTerm.c ****             
 433:..\common\tterm/TTerm.c ****             do{
 434:..\common\tterm/TTerm.c ****                 if(--handle->currHistoryReadPosition >= TERM_HISTORYSIZE) handle->currHistoryReadPo
 435:..\common\tterm/TTerm.c ****                 
 436:..\common\tterm/TTerm.c ****                 if(handle->historyBuffer[handle->currHistoryReadPosition] != 0){
 437:..\common\tterm/TTerm.c ****                     break;
 438:..\common\tterm/TTerm.c ****                 }
 439:..\common\tterm/TTerm.c ****             }while(handle->currHistoryReadPosition != handle->currHistoryWritePosition);
 440:..\common\tterm/TTerm.c ****             
 441:..\common\tterm/TTerm.c ****             //print out the command at the current history read position
 442:..\common\tterm/TTerm.c ****             if(handle->currHistoryReadPosition == handle->currHistoryWritePosition){
 443:..\common\tterm/TTerm.c ****                 ttprintfEcho("\x07");   //rings a bell doesn't it?                                 
 444:..\common\tterm/TTerm.c ****                 TERM_sendVT100Code(handle, _VT100_ERASE_LINE, 0);
 445:..\common\tterm/TTerm.c ****                 ttprintfEcho("\r%s@%s>%s", handle->currUserName, TERM_DEVICE_NAME, handle->inputBuf
 446:..\common\tterm/TTerm.c ****             }else{
 447:..\common\tterm/TTerm.c ****                 TERM_sendVT100Code(handle, _VT100_ERASE_LINE, 0);
 448:..\common\tterm/TTerm.c ****                 ttprintfEcho("\r%s@%s>%s", handle->currUserName, TERM_DEVICE_NAME, handle->historyB
 449:..\common\tterm/TTerm.c ****             }
 450:..\common\tterm/TTerm.c ****             break;
 451:..\common\tterm/TTerm.c ****             
 452:..\common\tterm/TTerm.c ****         case _VT100_CURSOR_DOWN:
 453:..\common\tterm/TTerm.c ****             TERM_checkForCopy(handle, TERM_CHECK_COMP);
 454:..\common\tterm/TTerm.c ****             
 455:..\common\tterm/TTerm.c ****             while(handle->currHistoryReadPosition != handle->currHistoryWritePosition){
 456:..\common\tterm/TTerm.c ****                 if(++handle->currHistoryReadPosition >= TERM_HISTORYSIZE) handle->currHistoryReadPo
 457:..\common\tterm/TTerm.c ****                 
 458:..\common\tterm/TTerm.c ****                 if(handle->historyBuffer[handle->currHistoryReadPosition] != 0){
 459:..\common\tterm/TTerm.c ****                     break;
 460:..\common\tterm/TTerm.c ****                 }
 461:..\common\tterm/TTerm.c ****             }
 462:..\common\tterm/TTerm.c ****             
 463:..\common\tterm/TTerm.c ****             //print out the command at the current history read position
 464:..\common\tterm/TTerm.c ****             if(handle->currHistoryReadPosition == handle->currHistoryWritePosition){
 465:..\common\tterm/TTerm.c ****                 ttprintfEcho("\x07");   //rings a bell doesn't it?                                 
ARM GAS  C:\Users\chemi\AppData\Local\Temp\cc0tO343.s 			page 15


 466:..\common\tterm/TTerm.c ****                 TERM_sendVT100Code(handle, _VT100_ERASE_LINE, 0);
 467:..\common\tterm/TTerm.c ****                 ttprintfEcho("\r%s@%s>%s", handle->currUserName, TERM_DEVICE_NAME, handle->inputBuf
 468:..\common\tterm/TTerm.c ****             }else{
 469:..\common\tterm/TTerm.c ****                 TERM_sendVT100Code(handle, _VT100_ERASE_LINE, 0);
 470:..\common\tterm/TTerm.c ****                 ttprintfEcho("\r%s@%s>%s", handle->currUserName, TERM_DEVICE_NAME, handle->historyB
 471:..\common\tterm/TTerm.c ****             }
 472:..\common\tterm/TTerm.c ****             break;
 473:..\common\tterm/TTerm.c ****             
 474:..\common\tterm/TTerm.c ****         case '\t':      //tab
 475:..\common\tterm/TTerm.c ****             TERM_checkForCopy(handle, TERM_CHECK_HIST);
 476:..\common\tterm/TTerm.c ****             
 477:..\common\tterm/TTerm.c ****             if(handle->autocompleteBuffer == NULL){ 
 478:..\common\tterm/TTerm.c ****                 TERM_doAutoComplete(handle);
 479:..\common\tterm/TTerm.c ****             }
 480:..\common\tterm/TTerm.c ****             
 481:..\common\tterm/TTerm.c ****             if(++handle->currAutocompleteCount > handle->autocompleteBufferLength) handle->currAuto
 482:..\common\tterm/TTerm.c ****             
 483:..\common\tterm/TTerm.c ****             if(handle->currAutocompleteCount == 0){
 484:..\common\tterm/TTerm.c ****                 ttprintfEcho("\x07");
 485:..\common\tterm/TTerm.c ****                 TERM_sendVT100Code(handle, _VT100_ERASE_LINE, 0);
 486:..\common\tterm/TTerm.c ****                 ttprintfEcho("\r%s@%s>%s", handle->currUserName, TERM_DEVICE_NAME, handle->inputBuf
 487:..\common\tterm/TTerm.c ****             }else{
 488:..\common\tterm/TTerm.c ****                 TERM_sendVT100Code(handle, _VT100_ERASE_LINE, 0);
 489:..\common\tterm/TTerm.c ****                 unsigned printQuotationMarks = strchr(handle->autocompleteBuffer[handle->currAutoco
 490:..\common\tterm/TTerm.c ****                 
 491:..\common\tterm/TTerm.c ****                 //workaround for inconsistent printf behaviour when using %.*s with length 0
 492:..\common\tterm/TTerm.c ****                 if(handle->autocompleteStart == 0){
 493:..\common\tterm/TTerm.c ****                     ttprintfEcho(printQuotationMarks ? "\r%s@%s>\"%s\"" : "\r%s@%s>%s", handle->cur
 494:..\common\tterm/TTerm.c ****                 }else{
 495:..\common\tterm/TTerm.c ****                     ttprintfEcho(printQuotationMarks ? "\r%s@%s>%.*s\"%s\"" : "\r%s@%s>%.*s%s", han
 496:..\common\tterm/TTerm.c ****                 }
 497:..\common\tterm/TTerm.c ****             }
 498:..\common\tterm/TTerm.c ****             break;
 499:..\common\tterm/TTerm.c ****             
 500:..\common\tterm/TTerm.c ****         case _VT100_BACKWARDS_TAB:
 501:..\common\tterm/TTerm.c ****             TERM_checkForCopy(handle, TERM_CHECK_HIST);
 502:..\common\tterm/TTerm.c ****             
 503:..\common\tterm/TTerm.c ****             if(handle->autocompleteBuffer == NULL){ 
 504:..\common\tterm/TTerm.c ****                 TERM_doAutoComplete(handle);
 505:..\common\tterm/TTerm.c ****             }
 506:..\common\tterm/TTerm.c ****             
 507:..\common\tterm/TTerm.c ****             if(--handle->currAutocompleteCount > handle->autocompleteBufferLength - 1) handle->curr
 508:..\common\tterm/TTerm.c ****             
 509:..\common\tterm/TTerm.c ****             if(handle->currAutocompleteCount == 0){
 510:..\common\tterm/TTerm.c ****                 ttprintfEcho("\x07");
 511:..\common\tterm/TTerm.c ****                 TERM_sendVT100Code(handle, _VT100_ERASE_LINE, 0);
 512:..\common\tterm/TTerm.c ****                 ttprintfEcho("\r%s@%s>%s", handle->currUserName, TERM_DEVICE_NAME, handle->inputBuf
 513:..\common\tterm/TTerm.c ****             }else{
 514:..\common\tterm/TTerm.c ****                 TERM_sendVT100Code(handle, _VT100_ERASE_LINE, 0);
 515:..\common\tterm/TTerm.c ****                 unsigned printQuotationMarks = strchr(handle->autocompleteBuffer[handle->currAutoco
 516:..\common\tterm/TTerm.c ****                 ttprintfEcho(printQuotationMarks ? "\r%s@%s>%.*s\"%s\"" : "\r%s@%s>%.*s%s", handle-
 517:..\common\tterm/TTerm.c ****             }
 518:..\common\tterm/TTerm.c ****             break;
 519:..\common\tterm/TTerm.c ****             
 520:..\common\tterm/TTerm.c ****         case _VT100_RESET:
 521:..\common\tterm/TTerm.c ****             TERM_printBootMessage(handle);
 522:..\common\tterm/TTerm.c ****             break;
ARM GAS  C:\Users\chemi\AppData\Local\Temp\cc0tO343.s 			page 16


 523:..\common\tterm/TTerm.c ****            
 524:..\common\tterm/TTerm.c ****         case 32 ... 126:
 525:..\common\tterm/TTerm.c ****             TERM_checkForCopy(handle, TERM_CHECK_COMP_AND_HIST);
 526:..\common\tterm/TTerm.c **** 
 527:..\common\tterm/TTerm.c **** 			//TODO check for string length overflow
 528:..\common\tterm/TTerm.c **** 
 529:..\common\tterm/TTerm.c **** 			if(handle->inputBuffer[handle->currBufferPosition] != 0 && handle->currBufferLength < TERM_INPUT
 530:..\common\tterm/TTerm.c **** 				strsft(handle->inputBuffer, handle->currBufferPosition, 1);
 531:..\common\tterm/TTerm.c **** 				handle->inputBuffer[handle->currBufferPosition] = c;
 532:..\common\tterm/TTerm.c **** 				TERM_sendVT100Code(handle, _VT100_ERASE_LINE_END, 0);
 533:..\common\tterm/TTerm.c **** 				ttprintfEcho("%s", &handle->inputBuffer[handle->currBufferPosition]);
 534:..\common\tterm/TTerm.c **** 				TERM_sendVT100Code(handle, _VT100_CURSOR_BACK_BY, handle->currBufferLength - handle->currBuffer
 535:..\common\tterm/TTerm.c **** 				handle->currBufferLength ++;
 536:..\common\tterm/TTerm.c **** 				handle->currBufferPosition ++;
 537:..\common\tterm/TTerm.c **** 			}else{
 538:..\common\tterm/TTerm.c **** 
 539:..\common\tterm/TTerm.c **** 				//we are at the end -> just delete the current one
 540:..\common\tterm/TTerm.c **** 				handle->inputBuffer[handle->currBufferPosition++] = c;
 541:..\common\tterm/TTerm.c **** 				handle->inputBuffer[handle->currBufferPosition] = 0;
 542:..\common\tterm/TTerm.c **** 				handle->currBufferLength ++;
 543:..\common\tterm/TTerm.c **** 				if(handle->currBufferPosition < TERM_INPUTBUFFER_SIZE -1){
 544:..\common\tterm/TTerm.c **** 					ttprintfEcho("%c", c);
 545:..\common\tterm/TTerm.c **** 				}
 546:..\common\tterm/TTerm.c **** 			}
 547:..\common\tterm/TTerm.c **** 
 548:..\common\tterm/TTerm.c **** 
 549:..\common\tterm/TTerm.c **** 			if(handle->currBufferPosition > TERM_INPUTBUFFER_SIZE -2){
 550:..\common\tterm/TTerm.c **** 				handle->currBufferPosition = TERM_INPUTBUFFER_SIZE -2;
 551:..\common\tterm/TTerm.c **** 			}
 552:..\common\tterm/TTerm.c **** 			if(handle->currBufferLength > TERM_INPUTBUFFER_SIZE -2){
 553:..\common\tterm/TTerm.c **** 				handle->currBufferLength = TERM_INPUTBUFFER_SIZE -2;
 554:..\common\tterm/TTerm.c **** 			}
 555:..\common\tterm/TTerm.c **** 
 556:..\common\tterm/TTerm.c ****             break;
 557:..\common\tterm/TTerm.c ****             
 558:..\common\tterm/TTerm.c ****         default:
 559:..\common\tterm/TTerm.c ****             TERM_printDebug(handle, "unknown code received: 0x%02x\r\n", c);
 560:..\common\tterm/TTerm.c ****             break;
 561:..\common\tterm/TTerm.c ****     }
 562:..\common\tterm/TTerm.c ****     return 1;
 563:..\common\tterm/TTerm.c **** }
 564:..\common\tterm/TTerm.c **** 
 565:..\common\tterm/TTerm.c **** void TERM_checkForCopy(TERMINAL_HANDLE * handle, COPYCHECK_MODE mode){
 305              		.loc 1 565 0
 306              		.cfi_startproc
 307              		@ args = 0, pretend = 0, frame = 0
 308              		@ frame_needed = 0, uses_anonymous_args = 0
 309              	.LVL29:
 566:..\common\tterm/TTerm.c ****     if((mode & TERM_CHECK_COMP) && handle->autocompleteBuffer != NULL){ 
 310              		.loc 1 566 0
 311 0000 CA07     		lsls	r2, r1, #31
 565:..\common\tterm/TTerm.c ****     if((mode & TERM_CHECK_COMP) && handle->autocompleteBuffer != NULL){ 
 312              		.loc 1 565 0
 313 0002 F8B5     		push	{r3, r4, r5, r6, r7, lr}
 314              		.cfi_def_cfa_offset 24
 315              		.cfi_offset 3, -24
 316              		.cfi_offset 4, -20
ARM GAS  C:\Users\chemi\AppData\Local\Temp\cc0tO343.s 			page 17


 317              		.cfi_offset 5, -16
 318              		.cfi_offset 6, -12
 319              		.cfi_offset 7, -8
 320              		.cfi_offset 14, -4
 565:..\common\tterm/TTerm.c ****     if((mode & TERM_CHECK_COMP) && handle->autocompleteBuffer != NULL){ 
 321              		.loc 1 565 0
 322 0004 0446     		mov	r4, r0
 323 0006 0F46     		mov	r7, r1
 324              		.loc 1 566 0
 325 0008 27D5     		bpl	.L41
 326              		.loc 1 566 0 is_stmt 0 discriminator 1
 327 000a 8169     		ldr	r1, [r0, #24]
 328              	.LVL30:
 329 000c 29B3     		cbz	r1, .L41
 567:..\common\tterm/TTerm.c ****         
 568:..\common\tterm/TTerm.c ****         if(handle->currAutocompleteCount != 0){
 330              		.loc 1 568 0 is_stmt 1
 331 000e 0369     		ldr	r3, [r0, #16]
 332 0010 F3B1     		cbz	r3, .L42
 333              	.LBB30:
 569:..\common\tterm/TTerm.c ****             char * dst = handle->inputBuffer + handle->autocompleteStart;
 570:..\common\tterm/TTerm.c **** 
 571:..\common\tterm/TTerm.c ****             if(strchr(handle->autocompleteBuffer[handle->currAutocompleteCount - 1], ' ') != 0){
 334              		.loc 1 571 0
 335 0012 03F18043 		add	r3, r3, #1073741824
 336 0016 013B     		subs	r3, r3, #1
 337 0018 51F82360 		ldr	r6, [r1, r3, lsl #2]
 569:..\common\tterm/TTerm.c ****             char * dst = handle->inputBuffer + handle->autocompleteStart;
 338              		.loc 1 569 0
 339 001c 0568     		ldr	r5, [r0]
 340 001e 026A     		ldr	r2, [r0, #32]
 341              		.loc 1 571 0
 342 0020 2021     		movs	r1, #32
 343 0022 3046     		mov	r0, r6
 344              	.LVL31:
 569:..\common\tterm/TTerm.c ****             char * dst = handle->inputBuffer + handle->autocompleteStart;
 345              		.loc 1 569 0
 346 0024 1544     		add	r5, r5, r2
 347              	.LVL32:
 348              		.loc 1 571 0
 349 0026 FFF7FEFF 		bl	strchr
 350              	.LVL33:
 351 002a 28B1     		cbz	r0, .L43
 572:..\common\tterm/TTerm.c ****                 sprintf(dst, "\"%s\"", handle->autocompleteBuffer[handle->currAutocompleteCount - 1
 352              		.loc 1 572 0
 353 002c 3246     		mov	r2, r6
 354 002e 1549     		ldr	r1, .L58
 355 0030 2846     		mov	r0, r5
 356 0032 FFF7FEFF 		bl	sprintf
 357              	.LVL34:
 358 0036 03E0     		b	.L44
 359              	.L43:
 573:..\common\tterm/TTerm.c ****             }else{
 574:..\common\tterm/TTerm.c ****                 strcpy(dst, handle->autocompleteBuffer[handle->currAutocompleteCount - 1]);
 360              		.loc 1 574 0
 361 0038 3146     		mov	r1, r6
 362 003a 2846     		mov	r0, r5
ARM GAS  C:\Users\chemi\AppData\Local\Temp\cc0tO343.s 			page 18


 363 003c FFF7FEFF 		bl	strcpy
 364              	.LVL35:
 365              	.L44:
 575:..\common\tterm/TTerm.c ****             }
 576:..\common\tterm/TTerm.c ****             handle->currBufferLength = strlen(handle->inputBuffer);
 366              		.loc 1 576 0
 367 0040 2568     		ldr	r5, [r4]
 368              	.LVL36:
 369 0042 2846     		mov	r0, r5
 370 0044 FFF7FEFF 		bl	strlen
 371              	.LVL37:
 577:..\common\tterm/TTerm.c ****             handle->currBufferPosition = handle->currBufferLength;
 578:..\common\tterm/TTerm.c ****             handle->inputBuffer[handle->currBufferPosition] = 0;
 372              		.loc 1 578 0
 373 0048 0023     		movs	r3, #0
 576:..\common\tterm/TTerm.c ****             handle->currBufferPosition = handle->currBufferLength;
 374              		.loc 1 576 0
 375 004a E060     		str	r0, [r4, #12]
 577:..\common\tterm/TTerm.c ****             handle->currBufferPosition = handle->currBufferLength;
 376              		.loc 1 577 0
 377 004c A060     		str	r0, [r4, #8]
 378              		.loc 1 578 0
 379 004e 2B54     		strb	r3, [r5, r0]
 380              	.L42:
 381              	.LBE30:
 579:..\common\tterm/TTerm.c ****         }
 580:..\common\tterm/TTerm.c ****         vPortFree(handle->autocompleteBuffer);
 382              		.loc 1 580 0
 383 0050 A069     		ldr	r0, [r4, #24]
 384 0052 FFF7FEFF 		bl	vPortFree
 385              	.LVL38:
 581:..\common\tterm/TTerm.c ****         handle->autocompleteBuffer = NULL;
 386              		.loc 1 581 0
 387 0056 0023     		movs	r3, #0
 388 0058 A361     		str	r3, [r4, #24]
 389              	.L41:
 582:..\common\tterm/TTerm.c ****     }
 583:..\common\tterm/TTerm.c ****     
 584:..\common\tterm/TTerm.c ****     if((mode & TERM_CHECK_HIST) && handle->currHistoryWritePosition != handle->currHistoryReadPosit
 390              		.loc 1 584 0
 391 005a BB07     		lsls	r3, r7, #30
 392 005c 10D5     		bpl	.L40
 393              		.loc 1 584 0 is_stmt 0 discriminator 1
 394 005e 236F     		ldr	r3, [r4, #112]
 395 0060 E26E     		ldr	r2, [r4, #108]
 396 0062 9A42     		cmp	r2, r3
 397 0064 0CD0     		beq	.L40
 585:..\common\tterm/TTerm.c ****         strcpy(handle->inputBuffer, handle->historyBuffer[handle->currHistoryReadPosition]);
 398              		.loc 1 585 0 is_stmt 1
 399 0066 04EB8303 		add	r3, r4, r3, lsl #2
 400 006a D96A     		ldr	r1, [r3, #44]
 401 006c 2068     		ldr	r0, [r4]
 402 006e FFF7FEFF 		bl	strcpy
 403              	.LVL39:
 586:..\common\tterm/TTerm.c ****         handle->currBufferLength = strlen(handle->inputBuffer);
 404              		.loc 1 586 0
 405 0072 2068     		ldr	r0, [r4]
ARM GAS  C:\Users\chemi\AppData\Local\Temp\cc0tO343.s 			page 19


 406 0074 FFF7FEFF 		bl	strlen
 407              	.LVL40:
 587:..\common\tterm/TTerm.c ****         handle->currBufferPosition = handle->currBufferLength;
 588:..\common\tterm/TTerm.c ****         handle->currHistoryReadPosition = handle->currHistoryWritePosition;
 408              		.loc 1 588 0
 409 0078 E36E     		ldr	r3, [r4, #108]
 586:..\common\tterm/TTerm.c ****         handle->currBufferLength = strlen(handle->inputBuffer);
 410              		.loc 1 586 0
 411 007a E060     		str	r0, [r4, #12]
 587:..\common\tterm/TTerm.c ****         handle->currBufferPosition = handle->currBufferLength;
 412              		.loc 1 587 0
 413 007c A060     		str	r0, [r4, #8]
 414              		.loc 1 588 0
 415 007e 2367     		str	r3, [r4, #112]
 416              	.L40:
 417 0080 F8BD     		pop	{r3, r4, r5, r6, r7, pc}
 418              	.LVL41:
 419              	.L59:
 420 0082 00BF     		.align	2
 421              	.L58:
 422 0084 89000000 		.word	.LC4
 423              		.cfi_endproc
 424              	.LFE79:
 425              		.size	TERM_checkForCopy, .-TERM_checkForCopy
 426              		.section	.text.strnchr,"ax",%progbits
 427              		.align	1
 428              		.global	strnchr
 429              		.thumb
 430              		.thumb_func
 431              		.type	strnchr, %function
 432              	strnchr:
 433              	.LFB80:
 589:..\common\tterm/TTerm.c ****     }
 590:..\common\tterm/TTerm.c **** }
 591:..\common\tterm/TTerm.c **** 
 592:..\common\tterm/TTerm.c **** char * strnchr(char * str, char c, uint32_t length){
 434              		.loc 1 592 0
 435              		.cfi_startproc
 436              		@ args = 0, pretend = 0, frame = 0
 437              		@ frame_needed = 0, uses_anonymous_args = 0
 438              	.LVL42:
 439 0000 10B5     		push	{r4, lr}
 440              		.cfi_def_cfa_offset 8
 441              		.cfi_offset 4, -8
 442              		.cfi_offset 14, -4
 443 0002 0244     		add	r2, r2, r0
 444              	.LVL43:
 445              	.L61:
 593:..\common\tterm/TTerm.c ****     uint32_t currPos = 0;
 594:..\common\tterm/TTerm.c ****     for(;currPos < length && str[currPos] != 0; currPos++){
 446              		.loc 1 594 0 discriminator 1
 447 0004 9042     		cmp	r0, r2
 448 0006 08D0     		beq	.L64
 449              		.loc 1 594 0 is_stmt 0 discriminator 2
 450 0008 0478     		ldrb	r4, [r0]	@ zero_extendqisi2
 451 000a 0346     		mov	r3, r0
 452 000c 0130     		adds	r0, r0, #1
ARM GAS  C:\Users\chemi\AppData\Local\Temp\cc0tO343.s 			page 20


 453              	.LVL44:
 454 000e 14B1     		cbz	r4, .L66
 595:..\common\tterm/TTerm.c ****         if(str[currPos] == c) return &str[currPos];
 455              		.loc 1 595 0 is_stmt 1
 456 0010 8C42     		cmp	r4, r1
 457 0012 F7D1     		bne	.L61
 458 0014 02E0     		b	.L62
 459              	.L66:
 596:..\common\tterm/TTerm.c ****     }
 597:..\common\tterm/TTerm.c ****     return NULL;
 460              		.loc 1 597 0
 461 0016 2346     		mov	r3, r4
 462              	.LVL45:
 463 0018 00E0     		b	.L62
 464              	.LVL46:
 465              	.L64:
 466 001a 0023     		movs	r3, #0
 467              	.LVL47:
 468              	.L62:
 598:..\common\tterm/TTerm.c **** }
 469              		.loc 1 598 0
 470 001c 1846     		mov	r0, r3
 471 001e 10BD     		pop	{r4, pc}
 472              		.cfi_endproc
 473              	.LFE80:
 474              		.size	strnchr, .-strnchr
 475              		.section	.text.strsft,"ax",%progbits
 476              		.align	1
 477              		.global	strsft
 478              		.thumb
 479              		.thumb_func
 480              		.type	strsft, %function
 481              	strsft:
 482              	.LFB81:
 599:..\common\tterm/TTerm.c **** 
 600:..\common\tterm/TTerm.c **** void strsft(char * src, int32_t startByte, int32_t offset){
 483              		.loc 1 600 0
 484              		.cfi_startproc
 485              		@ args = 0, pretend = 0, frame = 0
 486              		@ frame_needed = 0, uses_anonymous_args = 0
 487              	.LVL48:
 488 0000 70B5     		push	{r4, r5, r6, lr}
 489              		.cfi_def_cfa_offset 16
 490              		.cfi_offset 4, -16
 491              		.cfi_offset 5, -12
 492              		.cfi_offset 6, -8
 493              		.cfi_offset 14, -4
 601:..\common\tterm/TTerm.c ****     if(offset == 0) return;
 494              		.loc 1 601 0
 495 0002 151E     		subs	r5, r2, #0
 600:..\common\tterm/TTerm.c ****     if(offset == 0) return;
 496              		.loc 1 600 0
 497 0004 0446     		mov	r4, r0
 498 0006 0E46     		mov	r6, r1
 499              		.loc 1 601 0
 500 0008 1BD0     		beq	.L67
 602:..\common\tterm/TTerm.c ****     
ARM GAS  C:\Users\chemi\AppData\Local\Temp\cc0tO343.s 			page 21


 603:..\common\tterm/TTerm.c ****     if(offset > 0){     //shift forward
 501              		.loc 1 603 0
 502 000a 11DD     		ble	.L70
 503              	.LBB36:
 604:..\common\tterm/TTerm.c ****         uint32_t currPos = strlen(src) + offset;
 504              		.loc 1 604 0
 505 000c FFF7FEFF 		bl	strlen
 506              	.LVL49:
 605:..\common\tterm/TTerm.c ****         src[currPos--] = 0;
 507              		.loc 1 605 0
 508 0010 0022     		movs	r2, #0
 604:..\common\tterm/TTerm.c ****         uint32_t currPos = strlen(src) + offset;
 509              		.loc 1 604 0
 510 0012 2844     		add	r0, r0, r5
 511              	.LVL50:
 512              		.loc 1 605 0
 513 0014 431E     		subs	r3, r0, #1
 514              	.LVL51:
 515 0016 2254     		strb	r2, [r4, r0]
 606:..\common\tterm/TTerm.c ****         for(; currPos >= startByte; currPos--){
 607:..\common\tterm/TTerm.c ****             if(currPos == 0){
 608:..\common\tterm/TTerm.c ****                 src[currPos] = ' ';
 609:..\common\tterm/TTerm.c ****                 break;
 610:..\common\tterm/TTerm.c ****             }
 611:..\common\tterm/TTerm.c ****             src[currPos] = src[currPos - offset];
 516              		.loc 1 611 0
 517 0018 651B     		subs	r5, r4, r5
 518              	.LVL52:
 519              	.L71:
 606:..\common\tterm/TTerm.c ****         for(; currPos >= startByte; currPos--){
 520              		.loc 1 606 0 discriminator 1
 521 001a B342     		cmp	r3, r6
 522 001c 07D3     		bcc	.L77
 607:..\common\tterm/TTerm.c ****                 src[currPos] = ' ';
 523              		.loc 1 607 0
 524 001e 13B9     		cbnz	r3, .L72
 608:..\common\tterm/TTerm.c ****                 break;
 525              		.loc 1 608 0
 526 0020 2023     		movs	r3, #32
 527              	.LVL53:
 528 0022 2370     		strb	r3, [r4]
 609:..\common\tterm/TTerm.c ****             }
 529              		.loc 1 609 0
 530 0024 70BD     		pop	{r4, r5, r6, pc}
 531              	.LVL54:
 532              	.L72:
 533              		.loc 1 611 0
 534 0026 EA5C     		ldrb	r2, [r5, r3]	@ zero_extendqisi2
 535 0028 E254     		strb	r2, [r4, r3]
 606:..\common\tterm/TTerm.c ****             if(currPos == 0){
 536              		.loc 1 606 0
 537 002a 013B     		subs	r3, r3, #1
 538              	.LVL55:
 539 002c F5E7     		b	.L71
 540              	.L77:
 541 002e 70BD     		pop	{r4, r5, r6, pc}
 542              	.LVL56:
ARM GAS  C:\Users\chemi\AppData\Local\Temp\cc0tO343.s 			page 22


 543              	.L70:
 544 0030 4118     		adds	r1, r0, r1
 545              	.LVL57:
 546              	.LBE36:
 547              	.LBB37:
 548              	.LBB38:
 612:..\common\tterm/TTerm.c ****         }
 613:..\common\tterm/TTerm.c ****         return;
 614:..\common\tterm/TTerm.c ****     }else{              //shift backward
 615:..\common\tterm/TTerm.c ****         uint32_t currPos = startByte;
 616:..\common\tterm/TTerm.c ****         for(; src[currPos - offset] != 0; currPos++){
 549              		.loc 1 616 0
 550 0032 6D42     		negs	r5, r5
 551              	.LVL58:
 552              	.L75:
 553 0034 4B5D     		ldrb	r3, [r1, r5]	@ zero_extendqisi2
 554 0036 0A1B     		subs	r2, r1, r4
 555              	.LVL59:
 556 0038 13B1     		cbz	r3, .L78
 617:..\common\tterm/TTerm.c ****             src[currPos] = src[currPos - offset];
 557              		.loc 1 617 0
 558 003a 01F8013B 		strb	r3, [r1], #1
 559              	.LVL60:
 560 003e F9E7     		b	.L75
 561              	.LVL61:
 562              	.L78:
 618:..\common\tterm/TTerm.c ****         }
 619:..\common\tterm/TTerm.c ****         src[currPos] = src[currPos - offset];
 563              		.loc 1 619 0
 564 0040 A354     		strb	r3, [r4, r2]
 565              	.LVL62:
 566              	.L67:
 567 0042 70BD     		pop	{r4, r5, r6, pc}
 568              	.LBE38:
 569              	.LBE37:
 570              		.cfi_endproc
 571              	.LFE81:
 572              		.size	strsft, .-strsft
 573              		.section	.text.TERM_findCMD,"ax",%progbits
 574              		.align	1
 575              		.global	TERM_findCMD
 576              		.thumb
 577              		.thumb_func
 578              		.type	TERM_findCMD, %function
 579              	TERM_findCMD:
 580              	.LFB82:
 620:..\common\tterm/TTerm.c ****         return;
 621:..\common\tterm/TTerm.c ****     }
 622:..\common\tterm/TTerm.c **** }
 623:..\common\tterm/TTerm.c **** 
 624:..\common\tterm/TTerm.c **** TermCommandDescriptor * TERM_findCMD(TERMINAL_HANDLE * handle){
 581              		.loc 1 624 0
 582              		.cfi_startproc
 583              		@ args = 0, pretend = 0, frame = 0
 584              		@ frame_needed = 0, uses_anonymous_args = 0
 585              	.LVL63:
 586 0000 2DE9F041 		push	{r4, r5, r6, r7, r8, lr}
ARM GAS  C:\Users\chemi\AppData\Local\Temp\cc0tO343.s 			page 23


 587              		.cfi_def_cfa_offset 24
 588              		.cfi_offset 4, -24
 589              		.cfi_offset 5, -20
 590              		.cfi_offset 6, -16
 591              		.cfi_offset 7, -12
 592              		.cfi_offset 8, -8
 593              		.cfi_offset 14, -4
 625:..\common\tterm/TTerm.c ****     uint8_t currPos = 0;
 626:..\common\tterm/TTerm.c ****     uint16_t cmdLength = handle->currBufferLength;
 627:..\common\tterm/TTerm.c ****     
 628:..\common\tterm/TTerm.c ****     char * firstSpace = strchr(handle->inputBuffer, ' ');
 594              		.loc 1 628 0
 595 0004 0768     		ldr	r7, [r0]
 624:..\common\tterm/TTerm.c ****     uint8_t currPos = 0;
 596              		.loc 1 624 0
 597 0006 0446     		mov	r4, r0
 626:..\common\tterm/TTerm.c ****     
 598              		.loc 1 626 0
 599 0008 C568     		ldr	r5, [r0, #12]
 600              	.LVL64:
 601              		.loc 1 628 0
 602 000a 2021     		movs	r1, #32
 603 000c 3846     		mov	r0, r7
 604              	.LVL65:
 605 000e FFF7FEFF 		bl	strchr
 606              	.LVL66:
 629:..\common\tterm/TTerm.c ****     if(firstSpace != 0){
 607              		.loc 1 629 0
 608 0012 08B9     		cbnz	r0, .L80
 626:..\common\tterm/TTerm.c ****     
 609              		.loc 1 626 0
 610 0014 ADB2     		uxth	r5, r5
 611 0016 01E0     		b	.L81
 612              	.L80:
 630:..\common\tterm/TTerm.c ****         cmdLength = firstSpace - handle->inputBuffer;
 613              		.loc 1 630 0
 614 0018 C01B     		subs	r0, r0, r7
 615              	.LVL67:
 616 001a 85B2     		uxth	r5, r0
 617              	.LVL68:
 618              	.L81:
 631:..\common\tterm/TTerm.c ****     }
 632:..\common\tterm/TTerm.c ****     
 633:..\common\tterm/TTerm.c ****     TermCommandDescriptor * currCmd = handle->cmdListHead->nextCmd;
 619              		.loc 1 633 0
 620 001c D4F88C30 		ldr	r3, [r4, #140]
 634:..\common\tterm/TTerm.c ****     for(;currPos < handle->cmdListHead->commandLength; currPos++){
 621              		.loc 1 634 0
 622 0020 0026     		movs	r6, #0
 633:..\common\tterm/TTerm.c ****     for(;currPos < handle->cmdListHead->commandLength; currPos++){
 623              		.loc 1 633 0
 624 0022 DC69     		ldr	r4, [r3, #28]
 625              	.LVL69:
 626              		.loc 1 634 0
 627 0024 D3F80C80 		ldr	r8, [r3, #12]
 628              	.LVL70:
 629              	.L82:
ARM GAS  C:\Users\chemi\AppData\Local\Temp\cc0tO343.s 			page 24


 630 0028 F3B2     		uxtb	r3, r6
 631              	.LVL71:
 632              		.loc 1 634 0 is_stmt 0 discriminator 1
 633 002a 9845     		cmp	r8, r3
 634 002c 0BD9     		bls	.L87
 635:..\common\tterm/TTerm.c ****         if(currCmd->commandLength == cmdLength && strncmp(handle->inputBuffer, currCmd->command, cm
 635              		.loc 1 635 0 is_stmt 1
 636 002e E368     		ldr	r3, [r4, #12]
 637              	.LVL72:
 638 0030 AB42     		cmp	r3, r5
 639 0032 05D1     		bne	.L83
 640              		.loc 1 635 0 is_stmt 0 discriminator 1
 641 0034 2A46     		mov	r2, r5
 642 0036 6168     		ldr	r1, [r4, #4]
 643 0038 3846     		mov	r0, r7
 644 003a FFF7FEFF 		bl	strncmp
 645              	.LVL73:
 646 003e 28B1     		cbz	r0, .L86
 647              	.L83:
 636:..\common\tterm/TTerm.c ****         currCmd = currCmd->nextCmd;
 648              		.loc 1 636 0 is_stmt 1
 649 0040 E469     		ldr	r4, [r4, #28]
 650              	.LVL74:
 651 0042 0136     		adds	r6, r6, #1
 652              	.LVL75:
 653 0044 F0E7     		b	.L82
 654              	.LVL76:
 655              	.L87:
 637:..\common\tterm/TTerm.c ****     }
 638:..\common\tterm/TTerm.c ****     
 639:..\common\tterm/TTerm.c ****     return NULL;
 656              		.loc 1 639 0
 657 0046 0020     		movs	r0, #0
 658 0048 BDE8F081 		pop	{r4, r5, r6, r7, r8, pc}
 659              	.LVL77:
 660              	.L86:
 661 004c 2046     		mov	r0, r4
 640:..\common\tterm/TTerm.c **** }
 662              		.loc 1 640 0
 663 004e BDE8F081 		pop	{r4, r5, r6, r7, r8, pc}
 664              		.cfi_endproc
 665              	.LFE82:
 666              		.size	TERM_findCMD, .-TERM_findCMD
 667              		.section	.text.TERM_seperateArgs,"ax",%progbits
 668              		.align	1
 669              		.global	TERM_seperateArgs
 670              		.thumb
 671              		.thumb_func
 672              		.type	TERM_seperateArgs, %function
 673              	TERM_seperateArgs:
 674              	.LFB84:
 641:..\common\tterm/TTerm.c **** 
 642:..\common\tterm/TTerm.c **** uint8_t TERM_interpretCMD(char * data, uint16_t dataLength, TERMINAL_HANDLE * handle){
 643:..\common\tterm/TTerm.c ****     
 644:..\common\tterm/TTerm.c ****     TermCommandDescriptor * cmd = TERM_findCMD(handle);
 645:..\common\tterm/TTerm.c ****     
 646:..\common\tterm/TTerm.c ****     if(cmd != 0){
ARM GAS  C:\Users\chemi\AppData\Local\Temp\cc0tO343.s 			page 25


 647:..\common\tterm/TTerm.c ****         uint16_t argCount = TERM_countArgs(data, dataLength);
 648:..\common\tterm/TTerm.c ****         if(argCount == TERM_ARGS_ERROR_STRING_LITERAL){
 649:..\common\tterm/TTerm.c ****             ttprintfEcho("\r\nError: unclosed string literal in command\r\n");
 650:..\common\tterm/TTerm.c ****             return TERM_CMD_EXIT_ERROR;
 651:..\common\tterm/TTerm.c ****         }
 652:..\common\tterm/TTerm.c **** 
 653:..\common\tterm/TTerm.c ****         char ** args = 0;
 654:..\common\tterm/TTerm.c ****         if(argCount != 0){
 655:..\common\tterm/TTerm.c ****             args = pvPortMalloc(sizeof(char*) * argCount);
 656:..\common\tterm/TTerm.c ****             TERM_seperateArgs(data, dataLength, args);
 657:..\common\tterm/TTerm.c ****         }
 658:..\common\tterm/TTerm.c **** 
 659:..\common\tterm/TTerm.c ****         uint8_t retCode = TERM_CMD_EXIT_ERROR;
 660:..\common\tterm/TTerm.c ****         if(cmd->function != 0){
 661:..\common\tterm/TTerm.c ****             configASSERT((cmd->function > 0x9d000000) && (cmd->function < 0x9d040000));
 662:..\common\tterm/TTerm.c ****             retCode = (*cmd->function)(handle, argCount, args);
 663:..\common\tterm/TTerm.c ****         }
 664:..\common\tterm/TTerm.c **** 
 665:..\common\tterm/TTerm.c ****         if(argCount != 0) vPortFree(args);
 666:..\common\tterm/TTerm.c ****         return retCode;
 667:..\common\tterm/TTerm.c ****     }
 668:..\common\tterm/TTerm.c ****     
 669:..\common\tterm/TTerm.c ****     return TERM_CMD_EXIT_NOT_FOUND;
 670:..\common\tterm/TTerm.c **** }
 671:..\common\tterm/TTerm.c **** 
 672:..\common\tterm/TTerm.c **** uint16_t TERM_seperateArgs(char * data, uint16_t dataLength, char ** buff){
 675              		.loc 1 672 0
 676              		.cfi_startproc
 677              		@ args = 0, pretend = 0, frame = 0
 678              		@ frame_needed = 0, uses_anonymous_args = 0
 679              	.LVL78:
 680 0000 2DE9F041 		push	{r4, r5, r6, r7, r8, lr}
 681              		.cfi_def_cfa_offset 24
 682              		.cfi_offset 4, -24
 683              		.cfi_offset 5, -20
 684              		.cfi_offset 6, -16
 685              		.cfi_offset 7, -12
 686              		.cfi_offset 8, -8
 687              		.cfi_offset 14, -4
 673:..\common\tterm/TTerm.c ****     uint8_t count = 0;
 674:..\common\tterm/TTerm.c ****     uint8_t currPos = 0;
 675:..\common\tterm/TTerm.c ****     unsigned quoteMark = 0;
 676:..\common\tterm/TTerm.c ****     char * currStringStart = 0;
 677:..\common\tterm/TTerm.c ****     char * lastSpace = 0;
 678:..\common\tterm/TTerm.c ****     for(;currPos<dataLength; currPos++){
 688              		.loc 1 678 0
 689 0004 0027     		movs	r7, #0
 672:..\common\tterm/TTerm.c ****     uint8_t count = 0;
 690              		.loc 1 672 0
 691 0006 9646     		mov	lr, r2
 677:..\common\tterm/TTerm.c ****     for(;currPos<dataLength; currPos++){
 692              		.loc 1 677 0
 693 0008 3E46     		mov	r6, r7
 676:..\common\tterm/TTerm.c ****     char * lastSpace = 0;
 694              		.loc 1 676 0
 695 000a 3A46     		mov	r2, r7
 696              	.LVL79:
ARM GAS  C:\Users\chemi\AppData\Local\Temp\cc0tO343.s 			page 26


 675:..\common\tterm/TTerm.c ****     char * currStringStart = 0;
 697              		.loc 1 675 0
 698 000c 3B46     		mov	r3, r7
 673:..\common\tterm/TTerm.c ****     uint8_t currPos = 0;
 699              		.loc 1 673 0
 700 000e 3C46     		mov	r4, r7
 679:..\common\tterm/TTerm.c ****         switch(data[currPos]){
 680:..\common\tterm/TTerm.c ****             case ' ':
 681:..\common\tterm/TTerm.c ****                 if(!quoteMark){
 682:..\common\tterm/TTerm.c ****                     data[currPos] = 0;
 683:..\common\tterm/TTerm.c ****                     lastSpace = &data[currPos + 1];
 684:..\common\tterm/TTerm.c ****                 }
 685:..\common\tterm/TTerm.c ****                 break;
 686:..\common\tterm/TTerm.c ****                 
 687:..\common\tterm/TTerm.c ****             case '"':
 688:..\common\tterm/TTerm.c ****                 if(quoteMark){
 689:..\common\tterm/TTerm.c ****                     quoteMark = 0;
 690:..\common\tterm/TTerm.c ****                     if(currStringStart){
 691:..\common\tterm/TTerm.c ****                         data[currPos] = 0;
 692:..\common\tterm/TTerm.c ****                         buff[count++] = currStringStart;
 693:..\common\tterm/TTerm.c ****                     }
 694:..\common\tterm/TTerm.c ****                 }else{
 695:..\common\tterm/TTerm.c ****                     quoteMark = 1;
 696:..\common\tterm/TTerm.c ****                     currStringStart = &data[currPos+1];
 697:..\common\tterm/TTerm.c ****                 }
 698:..\common\tterm/TTerm.c ****                         
 699:..\common\tterm/TTerm.c ****                 break;
 700:..\common\tterm/TTerm.c ****                 
 701:..\common\tterm/TTerm.c ****             default:
 702:..\common\tterm/TTerm.c ****                 if(!quoteMark){
 703:..\common\tterm/TTerm.c ****                     if(lastSpace != 0){
 704:..\common\tterm/TTerm.c ****                         buff[count++] = lastSpace;
 705:..\common\tterm/TTerm.c ****                         lastSpace = 0;
 701              		.loc 1 705 0
 702 0010 B846     		mov	r8, r7
 703              	.LVL80:
 704              	.L89:
 678:..\common\tterm/TTerm.c ****         switch(data[currPos]){
 705              		.loc 1 678 0 discriminator 1
 706 0012 FDB2     		uxtb	r5, r7
 707 0014 8D42     		cmp	r5, r1
 708 0016 25D2     		bcs	.L106
 679:..\common\tterm/TTerm.c ****         switch(data[currPos]){
 709              		.loc 1 679 0
 710 0018 10F805C0 		ldrb	ip, [r0, r5]	@ zero_extendqisi2
 711 001c BCF1200F 		cmp	ip, #32
 712 0020 03D0     		beq	.L91
 713 0022 BCF1220F 		cmp	ip, #34
 714 0026 05D0     		beq	.L92
 715 0028 11E0     		b	.L107
 716              	.L91:
 681:..\common\tterm/TTerm.c ****                     data[currPos] = 0;
 717              		.loc 1 681 0
 718 002a C3B9     		cbnz	r3, .L99
 683:..\common\tterm/TTerm.c ****                 }
 719              		.loc 1 683 0
 720 002c 6E1C     		adds	r6, r5, #1
ARM GAS  C:\Users\chemi\AppData\Local\Temp\cc0tO343.s 			page 27


 721              	.LVL81:
 682:..\common\tterm/TTerm.c ****                     lastSpace = &data[currPos + 1];
 722              		.loc 1 682 0
 723 002e 4355     		strb	r3, [r0, r5]
 683:..\common\tterm/TTerm.c ****                 }
 724              		.loc 1 683 0
 725 0030 0644     		add	r6, r6, r0
 726              	.LVL82:
 727 0032 15E0     		b	.L93
 728              	.L92:
 688:..\common\tterm/TTerm.c ****                     quoteMark = 0;
 729              		.loc 1 688 0
 730 0034 43B1     		cbz	r3, .L94
 731              	.LVL83:
 690:..\common\tterm/TTerm.c ****                         data[currPos] = 0;
 732              		.loc 1 690 0
 733 0036 2AB1     		cbz	r2, .L105
 692:..\common\tterm/TTerm.c ****                     }
 734              		.loc 1 692 0
 735 0038 631C     		adds	r3, r4, #1
 736              	.LVL84:
 691:..\common\tterm/TTerm.c ****                         buff[count++] = currStringStart;
 737              		.loc 1 691 0
 738 003a 00F80580 		strb	r8, [r0, r5]
 692:..\common\tterm/TTerm.c ****                     }
 739              		.loc 1 692 0
 740 003e 4EF82420 		str	r2, [lr, r4, lsl #2]
 741 0042 DCB2     		uxtb	r4, r3
 742              	.LVL85:
 743              	.L105:
 689:..\common\tterm/TTerm.c ****                     if(currStringStart){
 744              		.loc 1 689 0
 745 0044 0023     		movs	r3, #0
 746 0046 0BE0     		b	.L93
 747              	.LVL86:
 748              	.L94:
 696:..\common\tterm/TTerm.c ****                 }
 749              		.loc 1 696 0
 750 0048 0135     		adds	r5, r5, #1
 751 004a 4219     		adds	r2, r0, r5
 752              	.LVL87:
 753 004c 07E0     		b	.L99
 754              	.LVL88:
 755              	.L107:
 702:..\common\tterm/TTerm.c ****                     if(lastSpace != 0){
 756              		.loc 1 702 0
 757 004e 33B9     		cbnz	r3, .L99
 703:..\common\tterm/TTerm.c ****                         buff[count++] = lastSpace;
 758              		.loc 1 703 0
 759 0050 36B1     		cbz	r6, .L93
 704:..\common\tterm/TTerm.c ****                         lastSpace = 0;
 760              		.loc 1 704 0
 761 0052 651C     		adds	r5, r4, #1
 762              	.LVL89:
 763 0054 4EF82460 		str	r6, [lr, r4, lsl #2]
 764              	.LVL90:
 765 0058 ECB2     		uxtb	r4, r5
ARM GAS  C:\Users\chemi\AppData\Local\Temp\cc0tO343.s 			page 28


 766              		.loc 1 705 0
 767 005a 1E46     		mov	r6, r3
 768 005c 00E0     		b	.L93
 769              	.LVL91:
 770              	.L99:
 771 005e 0123     		movs	r3, #1
 772              	.LVL92:
 773              	.L93:
 774 0060 0137     		adds	r7, r7, #1
 775              	.LVL93:
 776 0062 D6E7     		b	.L89
 777              	.LVL94:
 778              	.L106:
 706:..\common\tterm/TTerm.c ****                     }
 707:..\common\tterm/TTerm.c ****                 }
 708:..\common\tterm/TTerm.c ****                 break;
 709:..\common\tterm/TTerm.c ****         }
 710:..\common\tterm/TTerm.c ****     }
 711:..\common\tterm/TTerm.c ****     if(quoteMark) return TERM_ARGS_ERROR_STRING_LITERAL;
 779              		.loc 1 711 0
 780 0064 13B9     		cbnz	r3, .L100
 712:..\common\tterm/TTerm.c ****     return count;
 781              		.loc 1 712 0
 782 0066 A0B2     		uxth	r0, r4
 783              	.LVL95:
 784 0068 BDE8F081 		pop	{r4, r5, r6, r7, r8, pc}
 785              	.LVL96:
 786              	.L100:
 711:..\common\tterm/TTerm.c ****     return count;
 787              		.loc 1 711 0
 788 006c 4FF6FF70 		movw	r0, #65535
 789              	.LVL97:
 713:..\common\tterm/TTerm.c **** }
 790              		.loc 1 713 0
 791 0070 BDE8F081 		pop	{r4, r5, r6, r7, r8, pc}
 792              		.cfi_endproc
 793              	.LFE84:
 794              		.size	TERM_seperateArgs, .-TERM_seperateArgs
 795              		.section	.text.TERM_countArgs,"ax",%progbits
 796              		.align	1
 797              		.global	TERM_countArgs
 798              		.thumb
 799              		.thumb_func
 800              		.type	TERM_countArgs, %function
 801              	TERM_countArgs:
 802              	.LFB85:
 714:..\common\tterm/TTerm.c **** 
 715:..\common\tterm/TTerm.c **** uint16_t TERM_countArgs(const char * data, uint16_t dataLength){
 803              		.loc 1 715 0
 804              		.cfi_startproc
 805              		@ args = 0, pretend = 0, frame = 0
 806              		@ frame_needed = 0, uses_anonymous_args = 0
 807              	.LVL98:
 808 0000 F0B5     		push	{r4, r5, r6, r7, lr}
 809              		.cfi_def_cfa_offset 20
 810              		.cfi_offset 4, -20
 811              		.cfi_offset 5, -16
ARM GAS  C:\Users\chemi\AppData\Local\Temp\cc0tO343.s 			page 29


 812              		.cfi_offset 6, -12
 813              		.cfi_offset 7, -8
 814              		.cfi_offset 14, -4
 716:..\common\tterm/TTerm.c ****     uint8_t count = 0;
 717:..\common\tterm/TTerm.c ****     uint8_t currPos = 0;
 718:..\common\tterm/TTerm.c ****     unsigned quoteMark = 0;
 719:..\common\tterm/TTerm.c ****     const char * currStringStart = NULL;
 720:..\common\tterm/TTerm.c ****     const char * lastSpace = NULL;
 721:..\common\tterm/TTerm.c ****     for(;currPos<dataLength; currPos++){
 815              		.loc 1 721 0
 816 0002 0026     		movs	r6, #0
 720:..\common\tterm/TTerm.c ****     for(;currPos<dataLength; currPos++){
 817              		.loc 1 720 0
 818 0004 3546     		mov	r5, r6
 719:..\common\tterm/TTerm.c ****     const char * lastSpace = NULL;
 819              		.loc 1 719 0
 820 0006 3746     		mov	r7, r6
 718:..\common\tterm/TTerm.c ****     const char * currStringStart = NULL;
 821              		.loc 1 718 0
 822 0008 3246     		mov	r2, r6
 716:..\common\tterm/TTerm.c ****     uint8_t currPos = 0;
 823              		.loc 1 716 0
 824 000a 3346     		mov	r3, r6
 825              	.LVL99:
 826              	.L109:
 827              		.loc 1 721 0 discriminator 1
 828 000c F4B2     		uxtb	r4, r6
 829 000e 8C42     		cmp	r4, r1
 830 0010 1ED2     		bcs	.L126
 722:..\common\tterm/TTerm.c ****         switch(data[currPos]){
 831              		.loc 1 722 0
 832 0012 10F804E0 		ldrb	lr, [r0, r4]	@ zero_extendqisi2
 833 0016 BEF1200F 		cmp	lr, #32
 834 001a 03D0     		beq	.L111
 835 001c BEF1220F 		cmp	lr, #34
 836 0020 04D0     		beq	.L112
 837 0022 0CE0     		b	.L127
 838              	.L111:
 723:..\common\tterm/TTerm.c ****             case ' ':
 724:..\common\tterm/TTerm.c ****                 if(!quoteMark){
 839              		.loc 1 724 0
 840 0024 8AB9     		cbnz	r2, .L119
 725:..\common\tterm/TTerm.c ****                     lastSpace = &data[currPos + 1];
 841              		.loc 1 725 0
 842 0026 651C     		adds	r5, r4, #1
 843              	.LVL100:
 844 0028 0544     		add	r5, r5, r0
 845              	.LVL101:
 846 002a 0FE0     		b	.L113
 847              	.L112:
 726:..\common\tterm/TTerm.c ****                 }
 727:..\common\tterm/TTerm.c ****                 break;
 728:..\common\tterm/TTerm.c ****                 
 729:..\common\tterm/TTerm.c ****             case '"':
 730:..\common\tterm/TTerm.c ****                 if(quoteMark){
 848              		.loc 1 730 0
 849 002c 22B1     		cbz	r2, .L114
ARM GAS  C:\Users\chemi\AppData\Local\Temp\cc0tO343.s 			page 30


 850              	.LVL102:
 731:..\common\tterm/TTerm.c ****                     quoteMark = 0;
 732:..\common\tterm/TTerm.c ****                     if(currStringStart){
 851              		.loc 1 732 0
 852 002e 0FB1     		cbz	r7, .L125
 733:..\common\tterm/TTerm.c ****                         count ++;
 853              		.loc 1 733 0
 854 0030 0133     		adds	r3, r3, #1
 855              	.LVL103:
 856 0032 DBB2     		uxtb	r3, r3
 857              	.L125:
 858              	.LVL104:
 731:..\common\tterm/TTerm.c ****                     quoteMark = 0;
 859              		.loc 1 731 0
 860 0034 0022     		movs	r2, #0
 861 0036 09E0     		b	.L113
 862              	.LVL105:
 863              	.L114:
 734:..\common\tterm/TTerm.c ****                     }
 735:..\common\tterm/TTerm.c ****                 }else{
 736:..\common\tterm/TTerm.c ****                     quoteMark = 1;
 737:..\common\tterm/TTerm.c ****                     currStringStart = &data[currPos+1];
 864              		.loc 1 737 0
 865 0038 0134     		adds	r4, r4, #1
 866 003a 0719     		adds	r7, r0, r4
 867              	.LVL106:
 868 003c 05E0     		b	.L119
 869              	.LVL107:
 870              	.L127:
 738:..\common\tterm/TTerm.c ****                 }
 739:..\common\tterm/TTerm.c ****                         
 740:..\common\tterm/TTerm.c ****                 break;
 741:..\common\tterm/TTerm.c ****             case 0:
 742:..\common\tterm/TTerm.c ****                 configASSERT(0);
 743:..\common\tterm/TTerm.c ****                 
 744:..\common\tterm/TTerm.c ****             default:
 745:..\common\tterm/TTerm.c ****                 if(!quoteMark){
 871              		.loc 1 745 0
 872 003e 22B9     		cbnz	r2, .L119
 746:..\common\tterm/TTerm.c ****                     if(lastSpace){
 873              		.loc 1 746 0
 874 0040 25B1     		cbz	r5, .L113
 747:..\common\tterm/TTerm.c ****                         count ++;
 875              		.loc 1 747 0
 876 0042 0133     		adds	r3, r3, #1
 877              	.LVL108:
 878 0044 DBB2     		uxtb	r3, r3
 879              	.LVL109:
 748:..\common\tterm/TTerm.c ****                         lastSpace = NULL;
 880              		.loc 1 748 0
 881 0046 1546     		mov	r5, r2
 882 0048 00E0     		b	.L113
 883              	.LVL110:
 884              	.L119:
 885 004a 0122     		movs	r2, #1
 886              	.LVL111:
 887              	.L113:
ARM GAS  C:\Users\chemi\AppData\Local\Temp\cc0tO343.s 			page 31


 888 004c 0136     		adds	r6, r6, #1
 889              	.LVL112:
 890 004e DDE7     		b	.L109
 891              	.LVL113:
 892              	.L126:
 749:..\common\tterm/TTerm.c ****                     }
 750:..\common\tterm/TTerm.c ****                 }
 751:..\common\tterm/TTerm.c ****                 break;
 752:..\common\tterm/TTerm.c ****         }
 753:..\common\tterm/TTerm.c ****     }
 754:..\common\tterm/TTerm.c ****     if(quoteMark) return TERM_ARGS_ERROR_STRING_LITERAL;
 893              		.loc 1 754 0
 894 0050 0AB9     		cbnz	r2, .L120
 755:..\common\tterm/TTerm.c ****     return count;
 895              		.loc 1 755 0
 896 0052 98B2     		uxth	r0, r3
 897              	.LVL114:
 898 0054 F0BD     		pop	{r4, r5, r6, r7, pc}
 899              	.LVL115:
 900              	.L120:
 754:..\common\tterm/TTerm.c ****     return count;
 901              		.loc 1 754 0
 902 0056 4FF6FF70 		movw	r0, #65535
 903              	.LVL116:
 756:..\common\tterm/TTerm.c **** }
 904              		.loc 1 756 0
 905 005a F0BD     		pop	{r4, r5, r6, r7, pc}
 906              		.cfi_endproc
 907              	.LFE85:
 908              		.size	TERM_countArgs, .-TERM_countArgs
 909              		.section	.text.TERM_interpretCMD,"ax",%progbits
 910              		.align	1
 911              		.global	TERM_interpretCMD
 912              		.thumb
 913              		.thumb_func
 914              		.type	TERM_interpretCMD, %function
 915              	TERM_interpretCMD:
 916              	.LFB83:
 642:..\common\tterm/TTerm.c ****     
 917              		.loc 1 642 0
 918              		.cfi_startproc
 919              		@ args = 0, pretend = 0, frame = 0
 920              		@ frame_needed = 0, uses_anonymous_args = 0
 921              	.LVL117:
 922 0000 2DE9F843 		push	{r3, r4, r5, r6, r7, r8, r9, lr}
 923              		.cfi_def_cfa_offset 32
 924              		.cfi_offset 3, -32
 925              		.cfi_offset 4, -28
 926              		.cfi_offset 5, -24
 927              		.cfi_offset 6, -20
 928              		.cfi_offset 7, -16
 929              		.cfi_offset 8, -12
 930              		.cfi_offset 9, -8
 931              		.cfi_offset 14, -4
 642:..\common\tterm/TTerm.c ****     
 932              		.loc 1 642 0
 933 0004 8046     		mov	r8, r0
ARM GAS  C:\Users\chemi\AppData\Local\Temp\cc0tO343.s 			page 32


 644:..\common\tterm/TTerm.c ****     
 934              		.loc 1 644 0
 935 0006 1046     		mov	r0, r2
 936              	.LVL118:
 642:..\common\tterm/TTerm.c ****     
 937              		.loc 1 642 0
 938 0008 8946     		mov	r9, r1
 939 000a 1446     		mov	r4, r2
 644:..\common\tterm/TTerm.c ****     
 940              		.loc 1 644 0
 941 000c FFF7FEFF 		bl	TERM_findCMD
 942              	.LVL119:
 646:..\common\tterm/TTerm.c ****         uint16_t argCount = TERM_countArgs(data, dataLength);
 943              		.loc 1 646 0
 944 0010 0746     		mov	r7, r0
 945 0012 60B3     		cbz	r0, .L133
 946              	.LBB43:
 647:..\common\tterm/TTerm.c ****         if(argCount == TERM_ARGS_ERROR_STRING_LITERAL){
 947              		.loc 1 647 0
 948 0014 4946     		mov	r1, r9
 949 0016 4046     		mov	r0, r8
 950              	.LVL120:
 951 0018 FFF7FEFF 		bl	TERM_countArgs
 952              	.LVL121:
 648:..\common\tterm/TTerm.c ****             ttprintfEcho("\r\nError: unclosed string literal in command\r\n");
 953              		.loc 1 648 0
 954 001c 4FF6FF73 		movw	r3, #65535
 955 0020 9842     		cmp	r0, r3
 647:..\common\tterm/TTerm.c ****         if(argCount == TERM_ARGS_ERROR_STRING_LITERAL){
 956              		.loc 1 647 0
 957 0022 0546     		mov	r5, r0
 958              	.LVL122:
 648:..\common\tterm/TTerm.c ****             ttprintfEcho("\r\nError: unclosed string literal in command\r\n");
 959              		.loc 1 648 0
 960 0024 09D1     		bne	.L130
 961              	.LVL123:
 962              	.LBE43:
 963              	.LBB44:
 964              	.LBB45:
 965              	.LBB46:
 649:..\common\tterm/TTerm.c ****             return TERM_CMD_EXIT_ERROR;
 966              		.loc 1 649 0
 967 0026 D4F88800 		ldr	r0, [r4, #136]
 968              	.LVL124:
 969 002a 20B3     		cbz	r0, .L129
 970 002c 636A     		ldr	r3, [r4, #36]
 971 002e 1349     		ldr	r1, .L138
 972 0030 6068     		ldr	r0, [r4, #4]
 973 0032 9847     		blx	r3
 974              	.LVL125:
 975 0034 0020     		movs	r0, #0
 976 0036 BDE8F883 		pop	{r3, r4, r5, r6, r7, r8, r9, pc}
 977              	.LVL126:
 978              	.L130:
 979              	.LBE46:
 980              	.LBE45:
 981              	.LBE44:
ARM GAS  C:\Users\chemi\AppData\Local\Temp\cc0tO343.s 			page 33


 982              	.LBB47:
 654:..\common\tterm/TTerm.c ****             args = pvPortMalloc(sizeof(char*) * argCount);
 983              		.loc 1 654 0
 984 003a 48B1     		cbz	r0, .L135
 655:..\common\tterm/TTerm.c ****             TERM_seperateArgs(data, dataLength, args);
 985              		.loc 1 655 0
 986 003c 8000     		lsls	r0, r0, #2
 987              	.LVL127:
 988 003e FFF7FEFF 		bl	pvPortMalloc
 989              	.LVL128:
 656:..\common\tterm/TTerm.c ****         }
 990              		.loc 1 656 0
 991 0042 4946     		mov	r1, r9
 655:..\common\tterm/TTerm.c ****             TERM_seperateArgs(data, dataLength, args);
 992              		.loc 1 655 0
 993 0044 0646     		mov	r6, r0
 994              	.LVL129:
 656:..\common\tterm/TTerm.c ****         }
 995              		.loc 1 656 0
 996 0046 0246     		mov	r2, r0
 997 0048 4046     		mov	r0, r8
 998              	.LVL130:
 999 004a FFF7FEFF 		bl	TERM_seperateArgs
 1000              	.LVL131:
 1001 004e 00E0     		b	.L131
 1002              	.LVL132:
 1003              	.L135:
 653:..\common\tterm/TTerm.c ****         if(argCount != 0){
 1004              		.loc 1 653 0
 1005 0050 0646     		mov	r6, r0
 1006              	.LVL133:
 1007              	.L131:
 660:..\common\tterm/TTerm.c ****             configASSERT((cmd->function > 0x9d000000) && (cmd->function < 0x9d040000));
 1008              		.loc 1 660 0
 1009 0052 3B68     		ldr	r3, [r7]
 1010 0054 2BB1     		cbz	r3, .L136
 662:..\common\tterm/TTerm.c ****         }
 1011              		.loc 1 662 0
 1012 0056 2046     		mov	r0, r4
 1013 0058 3246     		mov	r2, r6
 1014 005a E9B2     		uxtb	r1, r5
 1015 005c 9847     		blx	r3
 1016              	.LVL134:
 1017 005e 0446     		mov	r4, r0
 1018              	.LVL135:
 1019 0060 00E0     		b	.L132
 1020              	.LVL136:
 1021              	.L136:
 659:..\common\tterm/TTerm.c ****         if(cmd->function != 0){
 1022              		.loc 1 659 0
 1023 0062 1C46     		mov	r4, r3
 1024              	.LVL137:
 1025              	.L132:
 665:..\common\tterm/TTerm.c ****         return retCode;
 1026              		.loc 1 665 0
 1027 0064 35B1     		cbz	r5, .L137
 665:..\common\tterm/TTerm.c ****         return retCode;
ARM GAS  C:\Users\chemi\AppData\Local\Temp\cc0tO343.s 			page 34


 1028              		.loc 1 665 0 is_stmt 0 discriminator 1
 1029 0066 3046     		mov	r0, r6
 1030 0068 FFF7FEFF 		bl	vPortFree
 1031              	.LVL138:
 1032 006c 02E0     		b	.L137
 1033              	.LVL139:
 1034              	.L133:
 1035              	.LBE47:
 669:..\common\tterm/TTerm.c **** }
 1036              		.loc 1 669 0 is_stmt 1
 1037 006e 0120     		movs	r0, #1
 1038              	.LVL140:
 1039 0070 BDE8F883 		pop	{r3, r4, r5, r6, r7, r8, r9, pc}
 1040              	.LVL141:
 1041              	.L137:
 1042              	.LBB48:
 666:..\common\tterm/TTerm.c ****     }
 1043              		.loc 1 666 0
 1044 0074 2046     		mov	r0, r4
 1045              	.LVL142:
 1046              	.L129:
 1047              	.LBE48:
 670:..\common\tterm/TTerm.c **** 
 1048              		.loc 1 670 0
 1049 0076 BDE8F883 		pop	{r3, r4, r5, r6, r7, r8, r9, pc}
 1050              	.LVL143:
 1051              	.L139:
 1052 007a 00BF     		.align	2
 1053              	.L138:
 1054 007c 8E000000 		.word	.LC5
 1055              		.cfi_endproc
 1056              	.LFE83:
 1057              		.size	TERM_interpretCMD, .-TERM_interpretCMD
 1058              		.section	.text.TERM_freeCommandList,"ax",%progbits
 1059              		.align	1
 1060              		.global	TERM_freeCommandList
 1061              		.thumb
 1062              		.thumb_func
 1063              		.type	TERM_freeCommandList, %function
 1064              	TERM_freeCommandList:
 1065              	.LFB86:
 757:..\common\tterm/TTerm.c **** 
 758:..\common\tterm/TTerm.c **** void TERM_freeCommandList(TermCommandDescriptor ** cl, uint16_t length){
 1066              		.loc 1 758 0
 1067              		.cfi_startproc
 1068              		@ args = 0, pretend = 0, frame = 0
 1069              		@ frame_needed = 0, uses_anonymous_args = 0
 1070              		@ link register save eliminated.
 1071              	.LVL144:
 759:..\common\tterm/TTerm.c ****     /*uint8_t currPos = 0;
 760:..\common\tterm/TTerm.c ****     for(;currPos < length; currPos++){
 761:..\common\tterm/TTerm.c ****         vPortFree(cl[currPos]);
 762:..\common\tterm/TTerm.c ****     }*/
 763:..\common\tterm/TTerm.c ****     vPortFree(cl);
 1072              		.loc 1 763 0
 1073 0000 FFF7FEBF 		b	vPortFree
 1074              	.LVL145:
ARM GAS  C:\Users\chemi\AppData\Local\Temp\cc0tO343.s 			page 35


 1075              		.cfi_endproc
 1076              	.LFE86:
 1077              		.size	TERM_freeCommandList, .-TERM_freeCommandList
 1078              		.section	.text.toLowerCase,"ax",%progbits
 1079              		.align	1
 1080              		.global	toLowerCase
 1081              		.thumb
 1082              		.thumb_func
 1083              		.type	toLowerCase, %function
 1084              	toLowerCase:
 1085              	.LFB90:
 764:..\common\tterm/TTerm.c **** }
 765:..\common\tterm/TTerm.c **** 
 766:..\common\tterm/TTerm.c **** TermCommandDescriptor * TERM_addCommand(TermCommandFunction function, const char * command, const c
 767:..\common\tterm/TTerm.c ****     if(head->commandLength == 0xff) return 0;
 768:..\common\tterm/TTerm.c ****     
 769:..\common\tterm/TTerm.c ****     TermCommandDescriptor * newCMD = pvPortMalloc(sizeof(TermCommandDescriptor));
 770:..\common\tterm/TTerm.c ****     
 771:..\common\tterm/TTerm.c ****     newCMD->command = command;
 772:..\common\tterm/TTerm.c ****     newCMD->commandDescription = description;
 773:..\common\tterm/TTerm.c ****     newCMD->commandLength = strlen(command);
 774:..\common\tterm/TTerm.c ****     newCMD->function = function;
 775:..\common\tterm/TTerm.c ****     newCMD->minPermissionLevel = minPermissionLevel;
 776:..\common\tterm/TTerm.c ****     newCMD->ACHandler = 0;
 777:..\common\tterm/TTerm.c ****     
 778:..\common\tterm/TTerm.c ****     TERM_LIST_add(newCMD, head);
 779:..\common\tterm/TTerm.c ****     return newCMD;
 780:..\common\tterm/TTerm.c **** }
 781:..\common\tterm/TTerm.c **** 
 782:..\common\tterm/TTerm.c **** void TERM_LIST_add(TermCommandDescriptor * item, TermCommandDescriptor * head){
 783:..\common\tterm/TTerm.c ****     uint32_t currPos = 0;
 784:..\common\tterm/TTerm.c ****     TermCommandDescriptor ** lastComp = &head->nextCmd;
 785:..\common\tterm/TTerm.c ****     TermCommandDescriptor * currComp = head->nextCmd;
 786:..\common\tterm/TTerm.c ****     
 787:..\common\tterm/TTerm.c ****     while(currPos < head->commandLength){
 788:..\common\tterm/TTerm.c ****         if(TERM_isSorted(currComp, item)){
 789:..\common\tterm/TTerm.c ****             *lastComp = item;
 790:..\common\tterm/TTerm.c ****             item->nextCmd = currComp;
 791:..\common\tterm/TTerm.c ****             head->commandLength ++;
 792:..\common\tterm/TTerm.c ****             
 793:..\common\tterm/TTerm.c ****             return;
 794:..\common\tterm/TTerm.c ****         }
 795:..\common\tterm/TTerm.c ****         if(currComp->nextCmd == 0){
 796:..\common\tterm/TTerm.c ****             item->nextCmd = currComp->nextCmd;
 797:..\common\tterm/TTerm.c ****             currComp->nextCmd = item;
 798:..\common\tterm/TTerm.c ****             head->commandLength ++;
 799:..\common\tterm/TTerm.c ****             return;
 800:..\common\tterm/TTerm.c ****         }
 801:..\common\tterm/TTerm.c ****         lastComp = &currComp->nextCmd;
 802:..\common\tterm/TTerm.c ****         currComp = currComp->nextCmd;
 803:..\common\tterm/TTerm.c ****     }
 804:..\common\tterm/TTerm.c ****     
 805:..\common\tterm/TTerm.c ****     item->nextCmd = 0;
 806:..\common\tterm/TTerm.c ****     *lastComp = item;
 807:..\common\tterm/TTerm.c ****     head->commandLength ++;
 808:..\common\tterm/TTerm.c **** }
 809:..\common\tterm/TTerm.c **** /*
ARM GAS  C:\Users\chemi\AppData\Local\Temp\cc0tO343.s 			page 36


 810:..\common\tterm/TTerm.c **** void ACL_remove(AC_LIST_HEAD * head, char * string){
 811:..\common\tterm/TTerm.c ****     if(head->isConst || head->elementCount == 0) return;
 812:..\common\tterm/TTerm.c ****     uint32_t currPos = 0;
 813:..\common\tterm/TTerm.c ****     AC_LIST_ELEMENT ** lastComp = &head->first;
 814:..\common\tterm/TTerm.c ****     AC_LIST_ELEMENT * currComp = head->first;
 815:..\common\tterm/TTerm.c ****     
 816:..\common\tterm/TTerm.c ****     for(;currPos < head->elementCount; currPos++){
 817:..\common\tterm/TTerm.c ****         if((strlen(currComp->string) == strlen(string)) && (strcmp(currComp->string, string) == 0))
 818:..\common\tterm/TTerm.c ****             *lastComp = currComp->next;
 819:..\common\tterm/TTerm.c ****             
 820:..\common\tterm/TTerm.c ****             //TODO make this portable
 821:..\common\tterm/TTerm.c ****             if(ptr_is_in_ram(currComp->string)){
 822:..\common\tterm/TTerm.c ****                 vPortFree(currComp->string);
 823:..\common\tterm/TTerm.c ****             }
 824:..\common\tterm/TTerm.c ****             
 825:..\common\tterm/TTerm.c ****             vPortFree(currComp);
 826:..\common\tterm/TTerm.c ****             head->elementCount --;
 827:..\common\tterm/TTerm.c ****             return;
 828:..\common\tterm/TTerm.c ****         }
 829:..\common\tterm/TTerm.c ****         if(currComp->next == 0) break;
 830:..\common\tterm/TTerm.c ****         lastComp = &currComp->next;
 831:..\common\tterm/TTerm.c ****         currComp = currComp->next;
 832:..\common\tterm/TTerm.c ****     }
 833:..\common\tterm/TTerm.c **** }
 834:..\common\tterm/TTerm.c **** */
 835:..\common\tterm/TTerm.c **** 
 836:..\common\tterm/TTerm.c **** unsigned TERM_isSorted(TermCommandDescriptor * a, TermCommandDescriptor * b){
 837:..\common\tterm/TTerm.c ****     uint8_t currPos = 0;
 838:..\common\tterm/TTerm.c ****     //compare the lowercase ASCII values of each character in the command (They are alphabetically 
 839:..\common\tterm/TTerm.c ****     for(;currPos < a->commandLength && currPos < b->commandLength; currPos++){
 840:..\common\tterm/TTerm.c ****         char letterA = toLowerCase(a->command[currPos]);
 841:..\common\tterm/TTerm.c ****         char letterB = toLowerCase(b->command[currPos]);
 842:..\common\tterm/TTerm.c ****         //if the letters are different we return 1 if a is smaller than b (they are correctly sorte
 843:..\common\tterm/TTerm.c ****         if(letterA > letterB){
 844:..\common\tterm/TTerm.c ****             return 1;
 845:..\common\tterm/TTerm.c ****         }else if(letterB > letterA){
 846:..\common\tterm/TTerm.c ****             return 0;
 847:..\common\tterm/TTerm.c ****         }
 848:..\common\tterm/TTerm.c ****     }
 849:..\common\tterm/TTerm.c ****     
 850:..\common\tterm/TTerm.c ****     //the two commands have identical letters for their entire length we check which one is longer 
 851:..\common\tterm/TTerm.c ****     if(a->commandLength > b->commandLength){
 852:..\common\tterm/TTerm.c ****         return 1;
 853:..\common\tterm/TTerm.c ****     }else if(b->commandLength > a->commandLength){
 854:..\common\tterm/TTerm.c ****         return 0;
 855:..\common\tterm/TTerm.c ****     }else{
 856:..\common\tterm/TTerm.c ****         //it might happen that a command is added twice (or two identical ones are added), in which
 857:..\common\tterm/TTerm.c ****         //TODO implement an alarm here
 858:..\common\tterm/TTerm.c ****         //UART_print("WARNING: Found identical commands: \"%S\" and \"%S\"\r\n", a->command, b->com
 859:..\common\tterm/TTerm.c ****         return 1;
 860:..\common\tterm/TTerm.c ****     }
 861:..\common\tterm/TTerm.c **** }
 862:..\common\tterm/TTerm.c **** 
 863:..\common\tterm/TTerm.c **** char toLowerCase(char c){
 1086              		.loc 1 863 0
 1087              		.cfi_startproc
 1088              		@ args = 0, pretend = 0, frame = 0
ARM GAS  C:\Users\chemi\AppData\Local\Temp\cc0tO343.s 			page 37


 1089              		@ frame_needed = 0, uses_anonymous_args = 0
 1090              		@ link register save eliminated.
 1091              	.LVL146:
 864:..\common\tterm/TTerm.c ****     if(c > 65 && c < 90){
 1092              		.loc 1 864 0
 1093 0000 A0F14203 		sub	r3, r0, #66
 1094 0004 172B     		cmp	r3, #23
 1095 0006 02D8     		bhi	.L142
 865:..\common\tterm/TTerm.c ****         return c + 32;
 1096              		.loc 1 865 0
 1097 0008 2030     		adds	r0, r0, #32
 1098              	.LVL147:
 1099 000a C0B2     		uxtb	r0, r0
 1100 000c 7047     		bx	lr
 1101              	.LVL148:
 1102              	.L142:
 1103              	.LBB51:
 1104              	.LBB52:
 866:..\common\tterm/TTerm.c ****     }
 867:..\common\tterm/TTerm.c ****     
 868:..\common\tterm/TTerm.c ****     switch(c){
 1105              		.loc 1 868 0
 1106 000e D628     		cmp	r0, #214
 1107 0010 05D0     		beq	.L145
 1108 0012 DC28     		cmp	r0, #220
 1109 0014 05D0     		beq	.L147
 1110 0016 C428     		cmp	r0, #196
 1111 0018 08BF     		it	eq
 1112 001a E420     		moveq	r0, #228
 1113              	.LVL149:
 1114 001c 7047     		bx	lr
 1115              	.LVL150:
 1116              	.L145:
 869:..\common\tterm/TTerm.c ****         case '':
 870:..\common\tterm/TTerm.c ****             return '';
 871:..\common\tterm/TTerm.c ****         case '':
 872:..\common\tterm/TTerm.c ****             return '';
 873:..\common\tterm/TTerm.c ****         case '':
 874:..\common\tterm/TTerm.c ****             return '';
 1117              		.loc 1 874 0
 1118 001e F620     		movs	r0, #246
 1119              	.LVL151:
 1120 0020 7047     		bx	lr
 1121              	.LVL152:
 1122              	.L147:
 870:..\common\tterm/TTerm.c ****         case '':
 1123              		.loc 1 870 0
 1124 0022 FC20     		movs	r0, #252
 1125              	.LVL153:
 1126              	.LBE52:
 1127              	.LBE51:
 875:..\common\tterm/TTerm.c ****         default:
 876:..\common\tterm/TTerm.c ****             return c;
 877:..\common\tterm/TTerm.c ****     }
 878:..\common\tterm/TTerm.c **** }
 1128              		.loc 1 878 0
 1129 0024 7047     		bx	lr
ARM GAS  C:\Users\chemi\AppData\Local\Temp\cc0tO343.s 			page 38


 1130              		.cfi_endproc
 1131              	.LFE90:
 1132              		.size	toLowerCase, .-toLowerCase
 1133              		.section	.text.TERM_isSorted,"ax",%progbits
 1134              		.align	1
 1135              		.global	TERM_isSorted
 1136              		.thumb
 1137              		.thumb_func
 1138              		.type	TERM_isSorted, %function
 1139              	TERM_isSorted:
 1140              	.LFB89:
 836:..\common\tterm/TTerm.c ****     uint8_t currPos = 0;
 1141              		.loc 1 836 0
 1142              		.cfi_startproc
 1143              		@ args = 0, pretend = 0, frame = 0
 1144              		@ frame_needed = 0, uses_anonymous_args = 0
 1145              	.LVL154:
 1146 0000 F8B5     		push	{r3, r4, r5, r6, r7, lr}
 1147              		.cfi_def_cfa_offset 24
 1148              		.cfi_offset 3, -24
 1149              		.cfi_offset 4, -20
 1150              		.cfi_offset 5, -16
 1151              		.cfi_offset 6, -12
 1152              		.cfi_offset 7, -8
 1153              		.cfi_offset 14, -4
 836:..\common\tterm/TTerm.c ****     uint8_t currPos = 0;
 1154              		.loc 1 836 0
 1155 0002 0646     		mov	r6, r0
 839:..\common\tterm/TTerm.c ****         char letterA = toLowerCase(a->command[currPos]);
 1156              		.loc 1 839 0
 1157 0004 C268     		ldr	r2, [r0, #12]
 1158 0006 0025     		movs	r5, #0
 1159              	.LVL155:
 1160              	.L149:
 1161 0008 ECB2     		uxtb	r4, r5
 1162              	.LVL156:
 839:..\common\tterm/TTerm.c ****         char letterA = toLowerCase(a->command[currPos]);
 1163              		.loc 1 839 0 is_stmt 0 discriminator 1
 1164 000a A242     		cmp	r2, r4
 1165 000c C868     		ldr	r0, [r1, #12]
 1166 000e 04D8     		bhi	.L151
 1167              	.L153:
 1168              	.LBB53:
 844:..\common\tterm/TTerm.c ****         }else if(letterB > letterA){
 1169              		.loc 1 844 0 is_stmt 1
 1170 0010 8242     		cmp	r2, r0
 1171 0012 34BF     		ite	cc
 1172 0014 0020     		movcc	r0, #0
 1173 0016 0120     		movcs	r0, #1
 1174              	.LBE53:
 1175 0018 F8BD     		pop	{r3, r4, r5, r6, r7, pc}
 1176              	.LVL157:
 1177              	.L151:
 839:..\common\tterm/TTerm.c ****         char letterA = toLowerCase(a->command[currPos]);
 1178              		.loc 1 839 0 discriminator 2
 1179 001a A042     		cmp	r0, r4
 1180 001c F8D9     		bls	.L153
ARM GAS  C:\Users\chemi\AppData\Local\Temp\cc0tO343.s 			page 39


 1181              	.LBB54:
 840:..\common\tterm/TTerm.c ****         char letterB = toLowerCase(b->command[currPos]);
 1182              		.loc 1 840 0
 1183 001e 7368     		ldr	r3, [r6, #4]
 1184 0020 185D     		ldrb	r0, [r3, r4]	@ zero_extendqisi2
 1185 0022 FFF7FEFF 		bl	toLowerCase
 1186              	.LVL158:
 841:..\common\tterm/TTerm.c ****         //if the letters are different we return 1 if a is smaller than b (they are correctly sorte
 1187              		.loc 1 841 0
 1188 0026 4B68     		ldr	r3, [r1, #4]
 840:..\common\tterm/TTerm.c ****         char letterB = toLowerCase(b->command[currPos]);
 1189              		.loc 1 840 0
 1190 0028 0746     		mov	r7, r0
 1191              	.LVL159:
 841:..\common\tterm/TTerm.c ****         //if the letters are different we return 1 if a is smaller than b (they are correctly sorte
 1192              		.loc 1 841 0
 1193 002a 185D     		ldrb	r0, [r3, r4]	@ zero_extendqisi2
 1194 002c FFF7FEFF 		bl	toLowerCase
 1195              	.LVL160:
 843:..\common\tterm/TTerm.c ****             return 1;
 1196              		.loc 1 843 0
 1197 0030 8742     		cmp	r7, r0
 1198 0032 04D8     		bhi	.L154
 1199 0034 05F10105 		add	r5, r5, #1
 845:..\common\tterm/TTerm.c ****             return 0;
 1200              		.loc 1 845 0
 1201 0038 E6D2     		bcs	.L149
 846:..\common\tterm/TTerm.c ****         }
 1202              		.loc 1 846 0
 1203 003a 0020     		movs	r0, #0
 1204              	.LVL161:
 1205              	.LBE54:
 861:..\common\tterm/TTerm.c **** 
 1206              		.loc 1 861 0
 1207 003c F8BD     		pop	{r3, r4, r5, r6, r7, pc}
 1208              	.LVL162:
 1209              	.L154:
 1210              	.LBB55:
 844:..\common\tterm/TTerm.c ****         }else if(letterB > letterA){
 1211              		.loc 1 844 0
 1212 003e 0120     		movs	r0, #1
 1213              	.LVL163:
 1214 0040 F8BD     		pop	{r3, r4, r5, r6, r7, pc}
 1215              	.LBE55:
 1216              		.cfi_endproc
 1217              	.LFE89:
 1218              		.size	TERM_isSorted, .-TERM_isSorted
 1219              		.section	.text.TERM_LIST_add,"ax",%progbits
 1220              		.align	1
 1221              		.global	TERM_LIST_add
 1222              		.thumb
 1223              		.thumb_func
 1224              		.type	TERM_LIST_add, %function
 1225              	TERM_LIST_add:
 1226              	.LFB88:
 782:..\common\tterm/TTerm.c ****     uint32_t currPos = 0;
 1227              		.loc 1 782 0
ARM GAS  C:\Users\chemi\AppData\Local\Temp\cc0tO343.s 			page 40


 1228              		.cfi_startproc
 1229              		@ args = 0, pretend = 0, frame = 0
 1230              		@ frame_needed = 0, uses_anonymous_args = 0
 1231              	.LVL164:
 1232 0000 2DE9F041 		push	{r4, r5, r6, r7, r8, lr}
 1233              		.cfi_def_cfa_offset 24
 1234              		.cfi_offset 4, -24
 1235              		.cfi_offset 5, -20
 1236              		.cfi_offset 6, -16
 1237              		.cfi_offset 7, -12
 1238              		.cfi_offset 8, -8
 1239              		.cfi_offset 14, -4
 782:..\common\tterm/TTerm.c ****     uint32_t currPos = 0;
 1240              		.loc 1 782 0
 1241 0004 0546     		mov	r5, r0
 1242 0006 0E46     		mov	r6, r1
 785:..\common\tterm/TTerm.c ****     
 1243              		.loc 1 785 0
 1244 0008 CF69     		ldr	r7, [r1, #28]
 787:..\common\tterm/TTerm.c ****         if(TERM_isSorted(currComp, item)){
 1245              		.loc 1 787 0
 1246 000a CC68     		ldr	r4, [r1, #12]
 784:..\common\tterm/TTerm.c ****     TermCommandDescriptor * currComp = head->nextCmd;
 1247              		.loc 1 784 0
 1248 000c 01F11C08 		add	r8, r1, #28
 1249              	.LVL165:
 1250              	.L157:
 787:..\common\tterm/TTerm.c ****         if(TERM_isSorted(currComp, item)){
 1251              		.loc 1 787 0
 1252 0010 A4B1     		cbz	r4, .L163
 788:..\common\tterm/TTerm.c ****             *lastComp = item;
 1253              		.loc 1 788 0
 1254 0012 2946     		mov	r1, r5
 1255 0014 3846     		mov	r0, r7
 1256 0016 FFF7FEFF 		bl	TERM_isSorted
 1257              	.LVL166:
 1258 001a 18B1     		cbz	r0, .L158
 789:..\common\tterm/TTerm.c ****             item->nextCmd = currComp;
 1259              		.loc 1 789 0
 1260 001c C8F80050 		str	r5, [r8]
 790:..\common\tterm/TTerm.c ****             head->commandLength ++;
 1261              		.loc 1 790 0
 1262 0020 EF61     		str	r7, [r5, #28]
 1263 0022 03E0     		b	.L162
 1264              	.L158:
 795:..\common\tterm/TTerm.c ****             item->nextCmd = currComp->nextCmd;
 1265              		.loc 1 795 0
 1266 0024 FB69     		ldr	r3, [r7, #28]
 1267 0026 2BB9     		cbnz	r3, .L160
 796:..\common\tterm/TTerm.c ****             currComp->nextCmd = item;
 1268              		.loc 1 796 0
 1269 0028 EB61     		str	r3, [r5, #28]
 797:..\common\tterm/TTerm.c ****             head->commandLength ++;
 1270              		.loc 1 797 0
 1271 002a FD61     		str	r5, [r7, #28]
 1272              	.L162:
 798:..\common\tterm/TTerm.c ****             return;
ARM GAS  C:\Users\chemi\AppData\Local\Temp\cc0tO343.s 			page 41


 1273              		.loc 1 798 0
 1274 002c 0134     		adds	r4, r4, #1
 1275 002e F460     		str	r4, [r6, #12]
 799:..\common\tterm/TTerm.c ****         }
 1276              		.loc 1 799 0
 1277 0030 BDE8F081 		pop	{r4, r5, r6, r7, r8, pc}
 1278              	.LVL167:
 1279              	.L160:
 801:..\common\tterm/TTerm.c ****         currComp = currComp->nextCmd;
 1280              		.loc 1 801 0
 1281 0034 07F11C08 		add	r8, r7, #28
 1282              	.LVL168:
 1283 0038 1F46     		mov	r7, r3
 1284 003a E9E7     		b	.L157
 1285              	.LVL169:
 1286              	.L163:
 807:..\common\tterm/TTerm.c **** }
 1287              		.loc 1 807 0
 1288 003c 0123     		movs	r3, #1
 805:..\common\tterm/TTerm.c ****     *lastComp = item;
 1289              		.loc 1 805 0
 1290 003e EC61     		str	r4, [r5, #28]
 806:..\common\tterm/TTerm.c ****     head->commandLength ++;
 1291              		.loc 1 806 0
 1292 0040 C8F80050 		str	r5, [r8]
 807:..\common\tterm/TTerm.c **** }
 1293              		.loc 1 807 0
 1294 0044 F360     		str	r3, [r6, #12]
 1295 0046 BDE8F081 		pop	{r4, r5, r6, r7, r8, pc}
 1296              		.cfi_endproc
 1297              	.LFE88:
 1298              		.size	TERM_LIST_add, .-TERM_LIST_add
 1299              		.section	.text.TERM_addCommand,"ax",%progbits
 1300              		.align	1
 1301              		.global	TERM_addCommand
 1302              		.thumb
 1303              		.thumb_func
 1304              		.type	TERM_addCommand, %function
 1305              	TERM_addCommand:
 1306              	.LFB87:
 766:..\common\tterm/TTerm.c ****     if(head->commandLength == 0xff) return 0;
 1307              		.loc 1 766 0
 1308              		.cfi_startproc
 1309              		@ args = 4, pretend = 0, frame = 0
 1310              		@ frame_needed = 0, uses_anonymous_args = 0
 1311              	.LVL170:
 1312 0000 2DE9F843 		push	{r3, r4, r5, r6, r7, r8, r9, lr}
 1313              		.cfi_def_cfa_offset 32
 1314              		.cfi_offset 3, -32
 1315              		.cfi_offset 4, -28
 1316              		.cfi_offset 5, -24
 1317              		.cfi_offset 6, -20
 1318              		.cfi_offset 7, -16
 1319              		.cfi_offset 8, -12
 1320              		.cfi_offset 9, -8
 1321              		.cfi_offset 14, -4
 766:..\common\tterm/TTerm.c ****     if(head->commandLength == 0xff) return 0;
ARM GAS  C:\Users\chemi\AppData\Local\Temp\cc0tO343.s 			page 42


 1322              		.loc 1 766 0
 1323 0004 089D     		ldr	r5, [sp, #32]
 1324 0006 1F46     		mov	r7, r3
 767:..\common\tterm/TTerm.c ****     
 1325              		.loc 1 767 0
 1326 0008 EB68     		ldr	r3, [r5, #12]
 1327              	.LVL171:
 766:..\common\tterm/TTerm.c ****     if(head->commandLength == 0xff) return 0;
 1328              		.loc 1 766 0
 1329 000a 8046     		mov	r8, r0
 767:..\common\tterm/TTerm.c ****     
 1330              		.loc 1 767 0
 1331 000c FF2B     		cmp	r3, #255
 766:..\common\tterm/TTerm.c ****     if(head->commandLength == 0xff) return 0;
 1332              		.loc 1 766 0
 1333 000e 0E46     		mov	r6, r1
 1334 0010 9146     		mov	r9, r2
 767:..\common\tterm/TTerm.c ****     
 1335              		.loc 1 767 0
 1336 0012 16D0     		beq	.L166
 769:..\common\tterm/TTerm.c ****     
 1337              		.loc 1 769 0
 1338 0014 2020     		movs	r0, #32
 1339              	.LVL172:
 1340 0016 FFF7FEFF 		bl	pvPortMalloc
 1341              	.LVL173:
 1342 001a 0446     		mov	r4, r0
 1343              	.LVL174:
 771:..\common\tterm/TTerm.c ****     newCMD->commandDescription = description;
 1344              		.loc 1 771 0
 1345 001c 4660     		str	r6, [r0, #4]
 772:..\common\tterm/TTerm.c ****     newCMD->commandLength = strlen(command);
 1346              		.loc 1 772 0
 1347 001e C0F80890 		str	r9, [r0, #8]
 773:..\common\tterm/TTerm.c ****     newCMD->function = function;
 1348              		.loc 1 773 0
 1349 0022 3046     		mov	r0, r6
 1350              	.LVL175:
 1351 0024 FFF7FEFF 		bl	strlen
 1352              	.LVL176:
 776:..\common\tterm/TTerm.c ****     
 1353              		.loc 1 776 0
 1354 0028 0023     		movs	r3, #0
 773:..\common\tterm/TTerm.c ****     newCMD->function = function;
 1355              		.loc 1 773 0
 1356 002a E060     		str	r0, [r4, #12]
 774:..\common\tterm/TTerm.c ****     newCMD->minPermissionLevel = minPermissionLevel;
 1357              		.loc 1 774 0
 1358 002c C4F80080 		str	r8, [r4]
 778:..\common\tterm/TTerm.c ****     return newCMD;
 1359              		.loc 1 778 0
 1360 0030 2046     		mov	r0, r4
 775:..\common\tterm/TTerm.c ****     newCMD->ACHandler = 0;
 1361              		.loc 1 775 0
 1362 0032 2774     		strb	r7, [r4, #16]
 776:..\common\tterm/TTerm.c ****     
 1363              		.loc 1 776 0
ARM GAS  C:\Users\chemi\AppData\Local\Temp\cc0tO343.s 			page 43


 1364 0034 6361     		str	r3, [r4, #20]
 778:..\common\tterm/TTerm.c ****     return newCMD;
 1365              		.loc 1 778 0
 1366 0036 2946     		mov	r1, r5
 1367 0038 FFF7FEFF 		bl	TERM_LIST_add
 1368              	.LVL177:
 779:..\common\tterm/TTerm.c **** }
 1369              		.loc 1 779 0
 1370 003c 2046     		mov	r0, r4
 1371 003e BDE8F883 		pop	{r3, r4, r5, r6, r7, r8, r9, pc}
 1372              	.LVL178:
 1373              	.L166:
 767:..\common\tterm/TTerm.c ****     
 1374              		.loc 1 767 0
 1375 0042 0020     		movs	r0, #0
 1376              	.LVL179:
 780:..\common\tterm/TTerm.c **** 
 1377              		.loc 1 780 0
 1378 0044 BDE8F883 		pop	{r3, r4, r5, r6, r7, r8, r9, pc}
 1379              		.cfi_endproc
 1380              	.LFE87:
 1381              		.size	TERM_addCommand, .-TERM_addCommand
 1382              		.section	.text.TERM_setCursorPos,"ax",%progbits
 1383              		.align	1
 1384              		.global	TERM_setCursorPos
 1385              		.thumb
 1386              		.thumb_func
 1387              		.type	TERM_setCursorPos, %function
 1388              	TERM_setCursorPos:
 1389              	.LFB92:
 879:..\common\tterm/TTerm.c **** 
 880:..\common\tterm/TTerm.c **** void TERM_Box(TERMINAL_HANDLE * handle, uint8_t row1, uint8_t col1, uint8_t row2, uint8_t col2) {
 881:..\common\tterm/TTerm.c **** 	TERM_setCursorPos(handle, row1, col1);
 882:..\common\tterm/TTerm.c **** 	TERM_sendVT100Code(handle, _VT100_BACKGROUND_COLOR, _VT100_BLUE);
 883:..\common\tterm/TTerm.c **** 	ttprintf("\xE2\x95\x94"); //edge upper left
 884:..\common\tterm/TTerm.c **** 	int i = 0;
 885:..\common\tterm/TTerm.c **** 	for (i = 1; i < (col2 - col1); i++) {
 886:..\common\tterm/TTerm.c **** 		ttprintf("\xE2\x95\x90"); //=
 887:..\common\tterm/TTerm.c **** 	}
 888:..\common\tterm/TTerm.c **** 	ttprintf("\xE2\x95\x97"); //edge upper right
 889:..\common\tterm/TTerm.c **** 	for (i = 1; i < (row2 - row1); i++) {
 890:..\common\tterm/TTerm.c **** 		TERM_setCursorPos(handle, row1 + i, col1);
 891:..\common\tterm/TTerm.c **** 		ttprintf("\xE2\x95\x91"); //left ||
 892:..\common\tterm/TTerm.c **** 		TERM_setCursorPos(handle, row1 + i, col2);
 893:..\common\tterm/TTerm.c **** 		ttprintf("\xE2\x95\x91"); //right ||
 894:..\common\tterm/TTerm.c **** 	}
 895:..\common\tterm/TTerm.c **** 	TERM_setCursorPos(handle, row2, col1);
 896:..\common\tterm/TTerm.c **** 	ttprintf("\xE2\x95\x9A"); //edge lower left
 897:..\common\tterm/TTerm.c **** 	for (i = 1; i < (col2 - col1); i++) {
 898:..\common\tterm/TTerm.c **** 		ttprintf("\xE2\x95\x90"); //=
 899:..\common\tterm/TTerm.c **** 	}
 900:..\common\tterm/TTerm.c **** 	ttprintf("\xE2\x95\x9D"); //edge lower right
 901:..\common\tterm/TTerm.c **** 	TERM_sendVT100Code(handle, _VT100_FOREGROUND_COLOR, _VT100_WHITE);
 902:..\common\tterm/TTerm.c **** }
 903:..\common\tterm/TTerm.c **** 
 904:..\common\tterm/TTerm.c **** void TERM_setCursorPos(TERMINAL_HANDLE * handle, uint16_t row, uint16_t column){
 1390              		.loc 1 904 0
ARM GAS  C:\Users\chemi\AppData\Local\Temp\cc0tO343.s 			page 44


 1391              		.cfi_startproc
 1392              		@ args = 0, pretend = 0, frame = 0
 1393              		@ frame_needed = 0, uses_anonymous_args = 0
 1394              		@ link register save eliminated.
 1395              	.LVL180:
 1396 0000 10B4     		push	{r4}
 1397              		.cfi_def_cfa_offset 4
 1398              		.cfi_offset 4, -4
 905:..\common\tterm/TTerm.c ****     ttprintf(ESC_STR "[%i;%iH", row, column);
 1399              		.loc 1 905 0
 1400 0002 446A     		ldr	r4, [r0, #36]
 1401 0004 1346     		mov	r3, r2
 1402 0006 A446     		mov	ip, r4
 1403 0008 0A46     		mov	r2, r1
 1404              	.LVL181:
 1405 000a 4068     		ldr	r0, [r0, #4]
 1406              	.LVL182:
 1407 000c 0149     		ldr	r1, .L168
 1408              	.LVL183:
 906:..\common\tterm/TTerm.c **** }
 1409              		.loc 1 906 0
 1410 000e 10BC     		pop	{r4}
 1411              		.cfi_restore 4
 1412              		.cfi_def_cfa_offset 0
 905:..\common\tterm/TTerm.c ****     ttprintf(ESC_STR "[%i;%iH", row, column);
 1413              		.loc 1 905 0
 1414 0010 6047     		bx	ip
 1415              	.LVL184:
 1416              	.L169:
 1417 0012 00BF     		.align	2
 1418              	.L168:
 1419 0014 BC000000 		.word	.LC6
 1420              		.cfi_endproc
 1421              	.LFE92:
 1422              		.size	TERM_setCursorPos, .-TERM_setCursorPos
 1423              		.section	.text.TERM_sendVT100Code,"ax",%progbits
 1424              		.align	1
 1425              		.global	TERM_sendVT100Code
 1426              		.thumb
 1427              		.thumb_func
 1428              		.type	TERM_sendVT100Code, %function
 1429              	TERM_sendVT100Code:
 1430              	.LFB93:
 907:..\common\tterm/TTerm.c **** 
 908:..\common\tterm/TTerm.c **** void TERM_sendVT100Code(TERMINAL_HANDLE * handle, uint16_t cmd, uint8_t var){
 1431              		.loc 1 908 0
 1432              		.cfi_startproc
 1433              		@ args = 0, pretend = 0, frame = 0
 1434              		@ frame_needed = 0, uses_anonymous_args = 0
 1435              		@ link register save eliminated.
 1436              	.LVL185:
 909:..\common\tterm/TTerm.c ****     switch(cmd){
 1437              		.loc 1 909 0
 1438 0000 0E29     		cmp	r1, #14
 908:..\common\tterm/TTerm.c ****     switch(cmd){
 1439              		.loc 1 908 0
 1440 0002 10B4     		push	{r4}
ARM GAS  C:\Users\chemi\AppData\Local\Temp\cc0tO343.s 			page 45


 1441              		.cfi_def_cfa_offset 4
 1442              		.cfi_offset 4, -4
 1443              		.loc 1 909 0
 1444 0004 00F0C480 		beq	.L172
 1445 0008 23D8     		bhi	.L173
 1446 000a 0629     		cmp	r1, #6
 1447 000c 00F09680 		beq	.L174
 1448 0010 0DD8     		bhi	.L175
 1449 0012 0229     		cmp	r1, #2
 1450 0014 79D0     		beq	.L176
 1451 0016 04D8     		bhi	.L177
 1452 0018 0029     		cmp	r1, #0
 1453 001a 66D0     		beq	.L178
 1454 001c 0129     		cmp	r1, #1
 1455 001e 6CD0     		beq	.L179
 1456 0020 FFE0     		b	.L170
 1457              	.L177:
 1458 0022 0429     		cmp	r1, #4
 1459 0024 D0F88830 		ldr	r3, [r0, #136]
 1460 0028 7ED0     		beq	.L180
 1461 002a 76D9     		bls	.L299
 1462 002c 81E0     		b	.L307
 1463              	.L175:
 1464 002e 0A29     		cmp	r1, #10
 1465 0030 D0F88830 		ldr	r3, [r0, #136]
 1466 0034 00F09880 		beq	.L183
 1467 0038 05D8     		bhi	.L184
 1468 003a 0829     		cmp	r1, #8
 1469 003c 00F08A80 		beq	.L185
 1470 0040 40F28380 		bls	.L300
 1471 0044 8BE0     		b	.L308
 1472              	.L184:
 1473 0046 0C29     		cmp	r1, #12
 1474 0048 00F09880 		beq	.L188
 1475 004c 40F29180 		bls	.L301
 1476 0050 99E0     		b	.L309
 1477              	.L173:
 1478 0052 1729     		cmp	r1, #23
 1479 0054 00F0C580 		beq	.L191
 1480 0058 14D8     		bhi	.L192
 1481 005a 1229     		cmp	r1, #18
 1482 005c 00F0AE80 		beq	.L193
 1483 0060 07D8     		bhi	.L194
 1484 0062 1029     		cmp	r1, #16
 1485 0064 D0F88830 		ldr	r3, [r0, #136]
 1486 0068 00F09E80 		beq	.L195
 1487 006c 40F29780 		bls	.L302
 1488 0070 9FE0     		b	.L310
 1489              	.L194:
 1490 0072 1429     		cmp	r1, #20
 1491 0074 00F0CD80 		beq	.L198
 1492 0078 C0F0A780 		bcc	.L199
 1493 007c 1629     		cmp	r1, #22
 1494 007e 00F0AA80 		beq	.L200
 1495 0082 CEE0     		b	.L170
 1496              	.L192:
 1497 0084 1B29     		cmp	r1, #27
ARM GAS  C:\Users\chemi\AppData\Local\Temp\cc0tO343.s 			page 46


 1498 0086 00F0BE80 		beq	.L201
 1499 008a 07D8     		bhi	.L202
 1500 008c 1929     		cmp	r1, #25
 1501 008e D0F88830 		ldr	r3, [r0, #136]
 1502 0092 00F0B080 		beq	.L203
 1503 0096 40F2AA80 		bls	.L303
 1504 009a B0E0     		b	.L311
 1505              	.L202:
 1506 009c 41F20303 		movw	r3, #4099
 1507 00a0 9942     		cmp	r1, r3
 1508 00a2 18D0     		beq	.L206
 1509 00a4 41F20403 		movw	r3, #4100
 1510 00a8 9942     		cmp	r1, r3
 1511 00aa 0CD0     		beq	.L207
 1512 00ac B1F5805F 		cmp	r1, #4096
 1513 00b0 40F0B780 		bne	.L170
 910:..\common\tterm/TTerm.c ****         case _VT100_RESET:
 911:..\common\tterm/TTerm.c ****             ttprintfEcho("%cc", 0x1b);
 1514              		.loc 1 911 0
 1515 00b4 D0F88830 		ldr	r3, [r0, #136]
 1516 00b8 002B     		cmp	r3, #0
 1517 00ba 00F0B280 		beq	.L170
 1518              		.loc 1 911 0 is_stmt 0 discriminator 1
 1519 00be 436A     		ldr	r3, [r0, #36]
 1520 00c0 1B22     		movs	r2, #27
 1521              	.LVL186:
 1522 00c2 5949     		ldr	r1, .L312
 1523              	.LVL187:
 1524 00c4 AAE0     		b	.L304
 1525              	.LVL188:
 1526              	.L207:
 912:..\common\tterm/TTerm.c ****             break;
 913:..\common\tterm/TTerm.c ****         case _VT100_CURSOR_BACK:
 914:..\common\tterm/TTerm.c ****             ttprintfEcho("\x1b[D");
 1527              		.loc 1 914 0 is_stmt 1
 1528 00c6 D0F88830 		ldr	r3, [r0, #136]
 1529 00ca 002B     		cmp	r3, #0
 1530 00cc 00F0A980 		beq	.L170
 1531              		.loc 1 914 0 is_stmt 0 discriminator 1
 1532 00d0 436A     		ldr	r3, [r0, #36]
 1533 00d2 5649     		ldr	r1, .L312+4
 1534              	.LVL189:
 1535 00d4 06E0     		b	.L305
 1536              	.LVL190:
 1537              	.L206:
 915:..\common\tterm/TTerm.c ****             break;
 916:..\common\tterm/TTerm.c ****         case _VT100_CURSOR_FORWARD:
 917:..\common\tterm/TTerm.c ****             ttprintfEcho("\x1b[C");
 1538              		.loc 1 917 0 is_stmt 1
 1539 00d6 D0F88830 		ldr	r3, [r0, #136]
 1540 00da 002B     		cmp	r3, #0
 1541 00dc 00F0A180 		beq	.L170
 1542              		.loc 1 917 0 is_stmt 0 discriminator 1
 1543 00e0 436A     		ldr	r3, [r0, #36]
 1544 00e2 5349     		ldr	r1, .L312+8
 1545              	.LVL191:
 1546              	.L305:
ARM GAS  C:\Users\chemi\AppData\Local\Temp\cc0tO343.s 			page 47


 1547 00e4 4068     		ldr	r0, [r0, #4]
 1548              	.LVL192:
 918:..\common\tterm/TTerm.c ****             break;
 919:..\common\tterm/TTerm.c ****         case _VT100_CURSOR_POS1:
 920:..\common\tterm/TTerm.c ****             ttprintfEcho("\x1b[H");
 921:..\common\tterm/TTerm.c ****             break;
 922:..\common\tterm/TTerm.c ****         case _VT100_CURSOR_END:
 923:..\common\tterm/TTerm.c ****             ttprintfEcho("\x1b[F");
 924:..\common\tterm/TTerm.c ****             break;
 925:..\common\tterm/TTerm.c ****         case _VT100_FOREGROUND_COLOR:
 926:..\common\tterm/TTerm.c ****             ttprintfEcho("\x1b[%dm", var+30);
 927:..\common\tterm/TTerm.c ****             break;
 928:..\common\tterm/TTerm.c ****         case _VT100_BACKGROUND_COLOR:
 929:..\common\tterm/TTerm.c ****             ttprintfEcho("\x1b[%dm", var+40);
 930:..\common\tterm/TTerm.c ****             break;
 931:..\common\tterm/TTerm.c ****         case _VT100_RESET_ATTRIB:
 932:..\common\tterm/TTerm.c ****             ttprintfEcho("\x1b[0m");
 933:..\common\tterm/TTerm.c ****             break;
 934:..\common\tterm/TTerm.c ****         case _VT100_BRIGHT:
 935:..\common\tterm/TTerm.c ****             ttprintfEcho("\x1b[1m");
 936:..\common\tterm/TTerm.c ****             break;
 937:..\common\tterm/TTerm.c ****         case _VT100_DIM:
 938:..\common\tterm/TTerm.c ****             ttprintfEcho("\x1b[2m");
 939:..\common\tterm/TTerm.c ****             break;
 940:..\common\tterm/TTerm.c ****         case _VT100_UNDERSCORE:
 941:..\common\tterm/TTerm.c ****             ttprintfEcho("\x1b[4m");
 942:..\common\tterm/TTerm.c ****             break;
 943:..\common\tterm/TTerm.c ****         case _VT100_BLINK:
 944:..\common\tterm/TTerm.c ****             ttprintfEcho("\x1b[5m");
 945:..\common\tterm/TTerm.c ****             break;
 946:..\common\tterm/TTerm.c ****         case _VT100_REVERSE:
 947:..\common\tterm/TTerm.c ****             ttprintfEcho("\x1b[7m");
 948:..\common\tterm/TTerm.c ****             break;
 949:..\common\tterm/TTerm.c ****         case _VT100_HIDDEN:
 950:..\common\tterm/TTerm.c ****             ttprintfEcho("\x1b[8m");
 951:..\common\tterm/TTerm.c ****             break;
 952:..\common\tterm/TTerm.c ****         case _VT100_ERASE_SCREEN:
 953:..\common\tterm/TTerm.c ****             ttprintfEcho("\x1b[2J");
 954:..\common\tterm/TTerm.c ****             break;
 955:..\common\tterm/TTerm.c ****         case _VT100_ERASE_LINE:
 956:..\common\tterm/TTerm.c ****             ttprintfEcho("\x1b[2K");
 957:..\common\tterm/TTerm.c ****             break;
 958:..\common\tterm/TTerm.c ****         case _VT100_FONT_G0:
 959:..\common\tterm/TTerm.c ****             ttprintfEcho("\x1b(");
 960:..\common\tterm/TTerm.c ****             break;
 961:..\common\tterm/TTerm.c ****         case _VT100_FONT_G1:
 962:..\common\tterm/TTerm.c ****             ttprintfEcho("\x1b)");
 963:..\common\tterm/TTerm.c ****             break;
 964:..\common\tterm/TTerm.c ****         case _VT100_WRAP_ON:
 965:..\common\tterm/TTerm.c ****             ttprintfEcho("\x1b[7h");
 966:..\common\tterm/TTerm.c ****             break;
 967:..\common\tterm/TTerm.c ****         case _VT100_WRAP_OFF:
 968:..\common\tterm/TTerm.c ****             ttprintfEcho("\x1b[7l");
 969:..\common\tterm/TTerm.c ****             break;
 970:..\common\tterm/TTerm.c ****         case _VT100_ERASE_LINE_END:
 971:..\common\tterm/TTerm.c ****             ttprintfEcho("\x1b[K");
 972:..\common\tterm/TTerm.c ****             break;
ARM GAS  C:\Users\chemi\AppData\Local\Temp\cc0tO343.s 			page 48


 973:..\common\tterm/TTerm.c ****         case _VT100_CURSOR_BACK_BY:
 974:..\common\tterm/TTerm.c ****             ttprintfEcho("\x1b[%dD", var);
 975:..\common\tterm/TTerm.c ****             break;
 976:..\common\tterm/TTerm.c ****         case _VT100_CURSOR_FORWARD_BY:
 977:..\common\tterm/TTerm.c ****             ttprintfEcho("\x1b[%dC", var);
 978:..\common\tterm/TTerm.c ****             break;
 979:..\common\tterm/TTerm.c ****         case _VT100_CURSOR_SAVE_POSITION:
 980:..\common\tterm/TTerm.c ****             ttprintfEcho("\x1b" "7");
 981:..\common\tterm/TTerm.c ****             break;
 982:..\common\tterm/TTerm.c ****         case _VT100_CURSOR_RESTORE_POSITION:
 983:..\common\tterm/TTerm.c ****             ttprintfEcho("\x1b" "8");
 984:..\common\tterm/TTerm.c ****             break;
 985:..\common\tterm/TTerm.c ****         case _VT100_CURSOR_ENABLE:
 986:..\common\tterm/TTerm.c ****             ttprintfEcho("\x1b[?25h");
 987:..\common\tterm/TTerm.c ****             break;
 988:..\common\tterm/TTerm.c ****         case _VT100_CURSOR_DISABLE:
 989:..\common\tterm/TTerm.c ****             ttprintfEcho("\x1b[?25l");
 990:..\common\tterm/TTerm.c ****             break;
 991:..\common\tterm/TTerm.c ****         case _VT100_CURSOR_SET_COLUMN:
 992:..\common\tterm/TTerm.c ****             ttprintfEcho(ESC_STR "[%i`", var);
 993:..\common\tterm/TTerm.c ****             break;
 994:..\common\tterm/TTerm.c ****         case _VT100_CLS:
 995:..\common\tterm/TTerm.c ****             ttprintfEcho("\x1b[2J\033[1;1H");
 996:..\common\tterm/TTerm.c ****             break;
 997:..\common\tterm/TTerm.c ****         case _VT100_CURSOR_DOWN_BY:
 998:..\common\tterm/TTerm.c ****             ttprintfEcho("\x1b[%dB", var);
 999:..\common\tterm/TTerm.c ****             break;
1000:..\common\tterm/TTerm.c ****             
1001:..\common\tterm/TTerm.c ****     }
1002:..\common\tterm/TTerm.c **** }
 1549              		.loc 1 1002 0 is_stmt 1 discriminator 1
 1550 00e6 10BC     		pop	{r4}
 1551              		.cfi_remember_state
 1552              		.cfi_restore 4
 1553              		.cfi_def_cfa_offset 0
 917:..\common\tterm/TTerm.c ****             break;
 1554              		.loc 1 917 0 discriminator 1
 1555 00e8 1847     		bx	r3
 1556              	.LVL193:
 1557              	.L178:
 1558              		.cfi_restore_state
 920:..\common\tterm/TTerm.c ****             break;
 1559              		.loc 1 920 0
 1560 00ea D0F88830 		ldr	r3, [r0, #136]
 1561 00ee 002B     		cmp	r3, #0
 1562 00f0 00F09780 		beq	.L170
 920:..\common\tterm/TTerm.c ****             break;
 1563              		.loc 1 920 0 is_stmt 0 discriminator 1
 1564 00f4 436A     		ldr	r3, [r0, #36]
 1565 00f6 4F49     		ldr	r1, .L312+12
 1566              	.LVL194:
 1567 00f8 F4E7     		b	.L305
 1568              	.LVL195:
 1569              	.L179:
 923:..\common\tterm/TTerm.c ****             break;
 1570              		.loc 1 923 0 is_stmt 1
 1571 00fa D0F88830 		ldr	r3, [r0, #136]
ARM GAS  C:\Users\chemi\AppData\Local\Temp\cc0tO343.s 			page 49


 1572 00fe 002B     		cmp	r3, #0
 1573 0100 00F08F80 		beq	.L170
 923:..\common\tterm/TTerm.c ****             break;
 1574              		.loc 1 923 0 is_stmt 0 discriminator 1
 1575 0104 436A     		ldr	r3, [r0, #36]
 1576 0106 4C49     		ldr	r1, .L312+16
 1577              	.LVL196:
 1578 0108 ECE7     		b	.L305
 1579              	.LVL197:
 1580              	.L176:
 926:..\common\tterm/TTerm.c ****             break;
 1581              		.loc 1 926 0 is_stmt 1
 1582 010a D0F88830 		ldr	r3, [r0, #136]
 1583 010e 002B     		cmp	r3, #0
 1584 0110 00F08780 		beq	.L170
 926:..\common\tterm/TTerm.c ****             break;
 1585              		.loc 1 926 0 is_stmt 0 discriminator 1
 1586 0114 436A     		ldr	r3, [r0, #36]
 1587 0116 1E32     		adds	r2, r2, #30
 1588              	.LVL198:
 1589 0118 04E0     		b	.L306
 1590              	.LVL199:
 1591              	.L299:
 929:..\common\tterm/TTerm.c ****             break;
 1592              		.loc 1 929 0 is_stmt 1
 1593 011a 002B     		cmp	r3, #0
 1594 011c 00F08180 		beq	.L170
 929:..\common\tterm/TTerm.c ****             break;
 1595              		.loc 1 929 0 is_stmt 0 discriminator 1
 1596 0120 436A     		ldr	r3, [r0, #36]
 1597 0122 2832     		adds	r2, r2, #40
 1598              	.LVL200:
 1599              	.L306:
 1600 0124 4549     		ldr	r1, .L312+20
 1601              	.LVL201:
 1602 0126 79E0     		b	.L304
 1603              	.LVL202:
 1604              	.L180:
 932:..\common\tterm/TTerm.c ****             break;
 1605              		.loc 1 932 0 is_stmt 1
 1606 0128 002B     		cmp	r3, #0
 1607 012a 7AD0     		beq	.L170
 932:..\common\tterm/TTerm.c ****             break;
 1608              		.loc 1 932 0 is_stmt 0 discriminator 1
 1609 012c 436A     		ldr	r3, [r0, #36]
 1610 012e 4449     		ldr	r1, .L312+24
 1611              	.LVL203:
 1612 0130 D8E7     		b	.L305
 1613              	.LVL204:
 1614              	.L307:
 935:..\common\tterm/TTerm.c ****             break;
 1615              		.loc 1 935 0 is_stmt 1
 1616 0132 002B     		cmp	r3, #0
 1617 0134 75D0     		beq	.L170
 935:..\common\tterm/TTerm.c ****             break;
 1618              		.loc 1 935 0 is_stmt 0 discriminator 1
 1619 0136 436A     		ldr	r3, [r0, #36]
ARM GAS  C:\Users\chemi\AppData\Local\Temp\cc0tO343.s 			page 50


 1620 0138 4249     		ldr	r1, .L312+28
 1621              	.LVL205:
 1622 013a D3E7     		b	.L305
 1623              	.LVL206:
 1624              	.L174:
 938:..\common\tterm/TTerm.c ****             break;
 1625              		.loc 1 938 0 is_stmt 1
 1626 013c D0F88830 		ldr	r3, [r0, #136]
 1627 0140 002B     		cmp	r3, #0
 1628 0142 6ED0     		beq	.L170
 938:..\common\tterm/TTerm.c ****             break;
 1629              		.loc 1 938 0 is_stmt 0 discriminator 1
 1630 0144 436A     		ldr	r3, [r0, #36]
 1631 0146 4049     		ldr	r1, .L312+32
 1632              	.LVL207:
 1633 0148 CCE7     		b	.L305
 1634              	.LVL208:
 1635              	.L300:
 941:..\common\tterm/TTerm.c ****             break;
 1636              		.loc 1 941 0 is_stmt 1
 1637 014a 002B     		cmp	r3, #0
 1638 014c 69D0     		beq	.L170
 941:..\common\tterm/TTerm.c ****             break;
 1639              		.loc 1 941 0 is_stmt 0 discriminator 1
 1640 014e 436A     		ldr	r3, [r0, #36]
 1641 0150 3E49     		ldr	r1, .L312+36
 1642              	.LVL209:
 1643 0152 C7E7     		b	.L305
 1644              	.LVL210:
 1645              	.L185:
 944:..\common\tterm/TTerm.c ****             break;
 1646              		.loc 1 944 0 is_stmt 1
 1647 0154 002B     		cmp	r3, #0
 1648 0156 64D0     		beq	.L170
 944:..\common\tterm/TTerm.c ****             break;
 1649              		.loc 1 944 0 is_stmt 0 discriminator 1
 1650 0158 436A     		ldr	r3, [r0, #36]
 1651 015a 3D49     		ldr	r1, .L312+40
 1652              	.LVL211:
 1653 015c C2E7     		b	.L305
 1654              	.LVL212:
 1655              	.L308:
 947:..\common\tterm/TTerm.c ****             break;
 1656              		.loc 1 947 0 is_stmt 1
 1657 015e 002B     		cmp	r3, #0
 1658 0160 5FD0     		beq	.L170
 947:..\common\tterm/TTerm.c ****             break;
 1659              		.loc 1 947 0 is_stmt 0 discriminator 1
 1660 0162 436A     		ldr	r3, [r0, #36]
 1661 0164 3B49     		ldr	r1, .L312+44
 1662              	.LVL213:
 1663 0166 BDE7     		b	.L305
 1664              	.LVL214:
 1665              	.L183:
 950:..\common\tterm/TTerm.c ****             break;
 1666              		.loc 1 950 0 is_stmt 1
 1667 0168 002B     		cmp	r3, #0
ARM GAS  C:\Users\chemi\AppData\Local\Temp\cc0tO343.s 			page 51


 1668 016a 5AD0     		beq	.L170
 950:..\common\tterm/TTerm.c ****             break;
 1669              		.loc 1 950 0 is_stmt 0 discriminator 1
 1670 016c 436A     		ldr	r3, [r0, #36]
 1671 016e 3A49     		ldr	r1, .L312+48
 1672              	.LVL215:
 1673 0170 B8E7     		b	.L305
 1674              	.LVL216:
 1675              	.L301:
 953:..\common\tterm/TTerm.c ****             break;
 1676              		.loc 1 953 0 is_stmt 1
 1677 0172 002B     		cmp	r3, #0
 1678 0174 55D0     		beq	.L170
 953:..\common\tterm/TTerm.c ****             break;
 1679              		.loc 1 953 0 is_stmt 0 discriminator 1
 1680 0176 436A     		ldr	r3, [r0, #36]
 1681 0178 3849     		ldr	r1, .L312+52
 1682              	.LVL217:
 1683 017a B3E7     		b	.L305
 1684              	.LVL218:
 1685              	.L188:
 956:..\common\tterm/TTerm.c ****             break;
 1686              		.loc 1 956 0 is_stmt 1
 1687 017c 002B     		cmp	r3, #0
 1688 017e 50D0     		beq	.L170
 956:..\common\tterm/TTerm.c ****             break;
 1689              		.loc 1 956 0 is_stmt 0 discriminator 1
 1690 0180 436A     		ldr	r3, [r0, #36]
 1691 0182 3749     		ldr	r1, .L312+56
 1692              	.LVL219:
 1693 0184 AEE7     		b	.L305
 1694              	.LVL220:
 1695              	.L309:
 959:..\common\tterm/TTerm.c ****             break;
 1696              		.loc 1 959 0 is_stmt 1
 1697 0186 002B     		cmp	r3, #0
 1698 0188 4BD0     		beq	.L170
 959:..\common\tterm/TTerm.c ****             break;
 1699              		.loc 1 959 0 is_stmt 0 discriminator 1
 1700 018a 436A     		ldr	r3, [r0, #36]
 1701 018c 3549     		ldr	r1, .L312+60
 1702              	.LVL221:
 1703 018e A9E7     		b	.L305
 1704              	.LVL222:
 1705              	.L172:
 962:..\common\tterm/TTerm.c ****             break;
 1706              		.loc 1 962 0 is_stmt 1
 1707 0190 D0F88830 		ldr	r3, [r0, #136]
 1708 0194 002B     		cmp	r3, #0
 1709 0196 44D0     		beq	.L170
 962:..\common\tterm/TTerm.c ****             break;
 1710              		.loc 1 962 0 is_stmt 0 discriminator 1
 1711 0198 436A     		ldr	r3, [r0, #36]
 1712 019a 3349     		ldr	r1, .L312+64
 1713              	.LVL223:
 1714 019c A2E7     		b	.L305
 1715              	.LVL224:
ARM GAS  C:\Users\chemi\AppData\Local\Temp\cc0tO343.s 			page 52


 1716              	.L302:
 965:..\common\tterm/TTerm.c ****             break;
 1717              		.loc 1 965 0 is_stmt 1
 1718 019e 002B     		cmp	r3, #0
 1719 01a0 3FD0     		beq	.L170
 965:..\common\tterm/TTerm.c ****             break;
 1720              		.loc 1 965 0 is_stmt 0 discriminator 1
 1721 01a2 436A     		ldr	r3, [r0, #36]
 1722 01a4 3149     		ldr	r1, .L312+68
 1723              	.LVL225:
 1724 01a6 9DE7     		b	.L305
 1725              	.LVL226:
 1726              	.L195:
 968:..\common\tterm/TTerm.c ****             break;
 1727              		.loc 1 968 0 is_stmt 1
 1728 01a8 002B     		cmp	r3, #0
 1729 01aa 3AD0     		beq	.L170
 968:..\common\tterm/TTerm.c ****             break;
 1730              		.loc 1 968 0 is_stmt 0 discriminator 1
 1731 01ac 436A     		ldr	r3, [r0, #36]
 1732 01ae 3049     		ldr	r1, .L312+72
 1733              	.LVL227:
 1734 01b0 98E7     		b	.L305
 1735              	.LVL228:
 1736              	.L310:
 971:..\common\tterm/TTerm.c ****             break;
 1737              		.loc 1 971 0 is_stmt 1
 1738 01b2 002B     		cmp	r3, #0
 1739 01b4 35D0     		beq	.L170
 971:..\common\tterm/TTerm.c ****             break;
 1740              		.loc 1 971 0 is_stmt 0 discriminator 1
 1741 01b6 436A     		ldr	r3, [r0, #36]
 1742 01b8 2E49     		ldr	r1, .L312+76
 1743              	.LVL229:
 1744 01ba 93E7     		b	.L305
 1745              	.LVL230:
 1746              	.L193:
 974:..\common\tterm/TTerm.c ****             break;
 1747              		.loc 1 974 0 is_stmt 1
 1748 01bc D0F88830 		ldr	r3, [r0, #136]
 1749 01c0 002B     		cmp	r3, #0
 1750 01c2 2ED0     		beq	.L170
 974:..\common\tterm/TTerm.c ****             break;
 1751              		.loc 1 974 0 is_stmt 0 discriminator 1
 1752 01c4 436A     		ldr	r3, [r0, #36]
 1753 01c6 2C49     		ldr	r1, .L312+80
 1754              	.LVL231:
 1755 01c8 28E0     		b	.L304
 1756              	.LVL232:
 1757              	.L199:
 977:..\common\tterm/TTerm.c ****             break;
 1758              		.loc 1 977 0 is_stmt 1
 1759 01ca D0F88830 		ldr	r3, [r0, #136]
 1760 01ce 43B3     		cbz	r3, .L170
 977:..\common\tterm/TTerm.c ****             break;
 1761              		.loc 1 977 0 is_stmt 0 discriminator 1
 1762 01d0 436A     		ldr	r3, [r0, #36]
ARM GAS  C:\Users\chemi\AppData\Local\Temp\cc0tO343.s 			page 53


 1763 01d2 2A49     		ldr	r1, .L312+84
 1764              	.LVL233:
 1765 01d4 22E0     		b	.L304
 1766              	.LVL234:
 1767              	.L200:
 980:..\common\tterm/TTerm.c ****             break;
 1768              		.loc 1 980 0 is_stmt 1
 1769 01d6 D0F88830 		ldr	r3, [r0, #136]
 1770 01da 13B3     		cbz	r3, .L170
 980:..\common\tterm/TTerm.c ****             break;
 1771              		.loc 1 980 0 is_stmt 0 discriminator 1
 1772 01dc 436A     		ldr	r3, [r0, #36]
 1773 01de 2849     		ldr	r1, .L312+88
 1774              	.LVL235:
 1775 01e0 80E7     		b	.L305
 1776              	.LVL236:
 1777              	.L191:
 983:..\common\tterm/TTerm.c ****             break;
 1778              		.loc 1 983 0 is_stmt 1
 1779 01e2 D0F88830 		ldr	r3, [r0, #136]
 1780 01e6 E3B1     		cbz	r3, .L170
 983:..\common\tterm/TTerm.c ****             break;
 1781              		.loc 1 983 0 is_stmt 0 discriminator 1
 1782 01e8 436A     		ldr	r3, [r0, #36]
 1783 01ea 2649     		ldr	r1, .L312+92
 1784              	.LVL237:
 1785 01ec 7AE7     		b	.L305
 1786              	.LVL238:
 1787              	.L303:
 986:..\common\tterm/TTerm.c ****             break;
 1788              		.loc 1 986 0 is_stmt 1
 1789 01ee C3B1     		cbz	r3, .L170
 986:..\common\tterm/TTerm.c ****             break;
 1790              		.loc 1 986 0 is_stmt 0 discriminator 1
 1791 01f0 436A     		ldr	r3, [r0, #36]
 1792 01f2 2549     		ldr	r1, .L312+96
 1793              	.LVL239:
 1794 01f4 76E7     		b	.L305
 1795              	.LVL240:
 1796              	.L203:
 989:..\common\tterm/TTerm.c ****             break;
 1797              		.loc 1 989 0 is_stmt 1
 1798 01f6 A3B1     		cbz	r3, .L170
 989:..\common\tterm/TTerm.c ****             break;
 1799              		.loc 1 989 0 is_stmt 0 discriminator 1
 1800 01f8 436A     		ldr	r3, [r0, #36]
 1801 01fa 2449     		ldr	r1, .L312+100
 1802              	.LVL241:
 1803 01fc 72E7     		b	.L305
 1804              	.LVL242:
 1805              	.L311:
 992:..\common\tterm/TTerm.c ****             break;
 1806              		.loc 1 992 0 is_stmt 1
 1807 01fe 83B1     		cbz	r3, .L170
 992:..\common\tterm/TTerm.c ****             break;
 1808              		.loc 1 992 0 is_stmt 0 discriminator 1
 1809 0200 436A     		ldr	r3, [r0, #36]
ARM GAS  C:\Users\chemi\AppData\Local\Temp\cc0tO343.s 			page 54


 1810 0202 2349     		ldr	r1, .L312+104
 1811              	.LVL243:
 1812 0204 0AE0     		b	.L304
 1813              	.LVL244:
 1814              	.L201:
 995:..\common\tterm/TTerm.c ****             break;
 1815              		.loc 1 995 0 is_stmt 1
 1816 0206 D0F88830 		ldr	r3, [r0, #136]
 1817 020a 53B1     		cbz	r3, .L170
 995:..\common\tterm/TTerm.c ****             break;
 1818              		.loc 1 995 0 is_stmt 0 discriminator 1
 1819 020c 436A     		ldr	r3, [r0, #36]
 1820 020e 2149     		ldr	r1, .L312+108
 1821              	.LVL245:
 1822 0210 68E7     		b	.L305
 1823              	.LVL246:
 1824              	.L198:
 998:..\common\tterm/TTerm.c ****             break;
 1825              		.loc 1 998 0 is_stmt 1
 1826 0212 D0F88830 		ldr	r3, [r0, #136]
 1827 0216 23B1     		cbz	r3, .L170
 998:..\common\tterm/TTerm.c ****             break;
 1828              		.loc 1 998 0 is_stmt 0 discriminator 1
 1829 0218 436A     		ldr	r3, [r0, #36]
 1830 021a 1F49     		ldr	r1, .L312+112
 1831              	.LVL247:
 1832              	.L304:
 1833 021c 4068     		ldr	r0, [r0, #4]
 1834              	.LVL248:
 1835              		.loc 1 1002 0 is_stmt 1 discriminator 1
 1836 021e 10BC     		pop	{r4}
 1837              		.cfi_remember_state
 1838              		.cfi_restore 4
 1839              		.cfi_def_cfa_offset 0
 998:..\common\tterm/TTerm.c ****             break;
 1840              		.loc 1 998 0 discriminator 1
 1841 0220 1847     		bx	r3
 1842              	.LVL249:
 1843              	.L170:
 1844              		.cfi_restore_state
 1845              		.loc 1 1002 0
 1846 0222 10BC     		pop	{r4}
 1847              		.cfi_restore 4
 1848              		.cfi_def_cfa_offset 0
 1849 0224 7047     		bx	lr
 1850              	.L313:
 1851 0226 00BF     		.align	2
 1852              	.L312:
 1853 0228 C5000000 		.word	.LC7
 1854 022c C9000000 		.word	.LC8
 1855 0230 CD000000 		.word	.LC9
 1856 0234 D1000000 		.word	.LC10
 1857 0238 D5000000 		.word	.LC11
 1858 023c D9000000 		.word	.LC12
 1859 0240 DF000000 		.word	.LC13
 1860 0244 E4000000 		.word	.LC14
 1861 0248 E9000000 		.word	.LC15
ARM GAS  C:\Users\chemi\AppData\Local\Temp\cc0tO343.s 			page 55


 1862 024c EE000000 		.word	.LC16
 1863 0250 F3000000 		.word	.LC17
 1864 0254 F8000000 		.word	.LC18
 1865 0258 FD000000 		.word	.LC19
 1866 025c 02010000 		.word	.LC20
 1867 0260 07010000 		.word	.LC21
 1868 0264 0C010000 		.word	.LC22
 1869 0268 0F010000 		.word	.LC23
 1870 026c 12010000 		.word	.LC24
 1871 0270 17010000 		.word	.LC25
 1872 0274 1C010000 		.word	.LC26
 1873 0278 20010000 		.word	.LC27
 1874 027c 26010000 		.word	.LC28
 1875 0280 2C010000 		.word	.LC29
 1876 0284 2F010000 		.word	.LC30
 1877 0288 32010000 		.word	.LC31
 1878 028c 39010000 		.word	.LC32
 1879 0290 40010000 		.word	.LC33
 1880 0294 46010000 		.word	.LC34
 1881 0298 51010000 		.word	.LC35
 1882              		.cfi_endproc
 1883              	.LFE93:
 1884              		.size	TERM_sendVT100Code, .-TERM_sendVT100Code
 1885              		.section	.text.TERM_printDebug,"ax",%progbits
 1886              		.align	1
 1887              		.global	TERM_printDebug
 1888              		.thumb
 1889              		.thumb_func
 1890              		.type	TERM_printDebug, %function
 1891              	TERM_printDebug:
 1892              	.LFB71:
 128:..\common\tterm/TTerm.c ****     //TODO make this nicer... we don't need a double buffer allocation, we should instead send the 
 1893              		.loc 1 128 0
 1894              		.cfi_startproc
 1895              		@ args = 4, pretend = 12, frame = 8
 1896              		@ frame_needed = 0, uses_anonymous_args = 1
 1897              	.LVL250:
 1898 0000 0EB4     		push	{r1, r2, r3}
 1899              		.cfi_def_cfa_offset 12
 1900              		.cfi_offset 1, -12
 1901              		.cfi_offset 2, -8
 1902              		.cfi_offset 3, -4
 1903 0002 70B5     		push	{r4, r5, r6, lr}
 1904              		.cfi_def_cfa_offset 28
 1905              		.cfi_offset 4, -28
 1906              		.cfi_offset 5, -24
 1907              		.cfi_offset 6, -20
 1908              		.cfi_offset 14, -16
 1909 0004 85B0     		sub	sp, sp, #20
 1910              		.cfi_def_cfa_offset 48
 128:..\common\tterm/TTerm.c ****     //TODO make this nicer... we don't need a double buffer allocation, we should instead send the 
 1911              		.loc 1 128 0
 1912 0006 09AB     		add	r3, sp, #36
 1913 0008 53F8046B 		ldr	r6, [r3], #4
 1914 000c 0446     		mov	r4, r0
 134:..\common\tterm/TTerm.c ****     vsnprintf(buff, 256,format, arg);
 1915              		.loc 1 134 0
ARM GAS  C:\Users\chemi\AppData\Local\Temp\cc0tO343.s 			page 56


 1916 000e 4FF48070 		mov	r0, #256
 1917              	.LVL251:
 132:..\common\tterm/TTerm.c ****     
 1918              		.loc 1 132 0
 1919 0012 0393     		str	r3, [sp, #12]
 134:..\common\tterm/TTerm.c ****     vsnprintf(buff, 256,format, arg);
 1920              		.loc 1 134 0
 1921 0014 FFF7FEFF 		bl	pvPortMalloc
 1922              	.LVL252:
 135:..\common\tterm/TTerm.c ****     
 1923              		.loc 1 135 0
 1924 0018 039B     		ldr	r3, [sp, #12]
 1925 001a 3246     		mov	r2, r6
 1926 001c 4FF48071 		mov	r1, #256
 134:..\common\tterm/TTerm.c ****     vsnprintf(buff, 256,format, arg);
 1927              		.loc 1 134 0
 1928 0020 0546     		mov	r5, r0
 1929              	.LVL253:
 135:..\common\tterm/TTerm.c ****     
 1930              		.loc 1 135 0
 1931 0022 FFF7FEFF 		bl	vsnprintf
 1932              	.LVL254:
 137:..\common\tterm/TTerm.c ****     
 1933              		.loc 1 137 0
 1934 0026 D4F88830 		ldr	r3, [r4, #136]
 1935 002a 23B1     		cbz	r3, .L315
 137:..\common\tterm/TTerm.c ****     
 1936              		.loc 1 137 0 is_stmt 0 discriminator 1
 1937 002c 636A     		ldr	r3, [r4, #36]
 1938 002e 2A46     		mov	r2, r5
 1939 0030 1549     		ldr	r1, .L330
 1940 0032 6068     		ldr	r0, [r4, #4]
 1941 0034 9847     		blx	r3
 1942              	.LVL255:
 1943              	.L315:
 139:..\common\tterm/TTerm.c ****         ttprintfEcho("%s@%s>", handle->currUserName, TERM_DEVICE_NAME);
 1944              		.loc 1 139 0 is_stmt 1
 1945 0036 E268     		ldr	r2, [r4, #12]
 1946 0038 D4F88830 		ldr	r3, [r4, #136]
 1947 003c 3AB9     		cbnz	r2, .L316
 140:..\common\tterm/TTerm.c ****     }else{
 1948              		.loc 1 140 0
 1949 003e D3B1     		cbz	r3, .L318
 140:..\common\tterm/TTerm.c ****     }else{
 1950              		.loc 1 140 0 is_stmt 0 discriminator 1
 1951 0040 666A     		ldr	r6, [r4, #36]
 1952 0042 124B     		ldr	r3, .L330+4
 1953 0044 A26A     		ldr	r2, [r4, #40]
 1954 0046 1249     		ldr	r1, .L330+8
 1955 0048 6068     		ldr	r0, [r4, #4]
 1956 004a B047     		blx	r6
 1957              	.LVL256:
 1958 004c 13E0     		b	.L318
 1959              	.L316:
 142:..\common\tterm/TTerm.c ****         if(handle->inputBuffer[handle->currBufferPosition] != 0) TERM_sendVT100Code(handle, _VT100_
 1960              		.loc 1 142 0 is_stmt 1
 1961 004e 3BB1     		cbz	r3, .L319
ARM GAS  C:\Users\chemi\AppData\Local\Temp\cc0tO343.s 			page 57


 142:..\common\tterm/TTerm.c ****         if(handle->inputBuffer[handle->currBufferPosition] != 0) TERM_sendVT100Code(handle, _VT100_
 1962              		.loc 1 142 0 is_stmt 0 discriminator 1
 1963 0050 2368     		ldr	r3, [r4]
 1964 0052 666A     		ldr	r6, [r4, #36]
 1965 0054 0093     		str	r3, [sp]
 1966 0056 A26A     		ldr	r2, [r4, #40]
 1967 0058 0C4B     		ldr	r3, .L330+4
 1968 005a 0E49     		ldr	r1, .L330+12
 1969 005c 6068     		ldr	r0, [r4, #4]
 1970 005e B047     		blx	r6
 1971              	.LVL257:
 1972              	.L319:
 143:..\common\tterm/TTerm.c ****     }
 1973              		.loc 1 143 0 is_stmt 1
 1974 0060 A268     		ldr	r2, [r4, #8]
 1975 0062 2368     		ldr	r3, [r4]
 1976 0064 9B5C     		ldrb	r3, [r3, r2]	@ zero_extendqisi2
 1977 0066 33B1     		cbz	r3, .L318
 143:..\common\tterm/TTerm.c ****     }
 1978              		.loc 1 143 0 is_stmt 0 discriminator 1
 1979 0068 E368     		ldr	r3, [r4, #12]
 1980 006a 1221     		movs	r1, #18
 1981 006c 9A1A     		subs	r2, r3, r2
 1982 006e D2B2     		uxtb	r2, r2
 1983 0070 2046     		mov	r0, r4
 1984 0072 FFF7FEFF 		bl	TERM_sendVT100Code
 1985              	.LVL258:
 1986              	.L318:
 146:..\common\tterm/TTerm.c ****     
 1987              		.loc 1 146 0 is_stmt 1
 1988 0076 2846     		mov	r0, r5
 1989 0078 FFF7FEFF 		bl	vPortFree
 1990              	.LVL259:
 149:..\common\tterm/TTerm.c **** 
 1991              		.loc 1 149 0
 1992 007c 05B0     		add	sp, sp, #20
 1993              		.cfi_def_cfa_offset 28
 1994              		@ sp needed
 1995 007e BDE87040 		pop	{r4, r5, r6, lr}
 1996              		.cfi_restore 14
 1997              		.cfi_restore 6
 1998              		.cfi_restore 5
 1999              		.cfi_restore 4
 2000              		.cfi_def_cfa_offset 12
 2001              	.LVL260:
 2002 0082 03B0     		add	sp, sp, #12
 2003              		.cfi_restore 3
 2004              		.cfi_restore 2
 2005              		.cfi_restore 1
 2006              		.cfi_def_cfa_offset 0
 2007 0084 7047     		bx	lr
 2008              	.L331:
 2009 0086 00BF     		.align	2
 2010              	.L330:
 2011 0088 57010000 		.word	.LC36
 2012 008c 00000000 		.word	.LC0
 2013 0090 5C010000 		.word	.LC37
ARM GAS  C:\Users\chemi\AppData\Local\Temp\cc0tO343.s 			page 58


 2014 0094 63010000 		.word	.LC38
 2015              		.cfi_endproc
 2016              	.LFE71:
 2017              		.size	TERM_printDebug, .-TERM_printDebug
 2018              		.section	.text.TERM_printBootMessage,"ax",%progbits
 2019              		.align	1
 2020              		.global	TERM_printBootMessage
 2021              		.thumb
 2022              		.thumb_func
 2023              		.type	TERM_printBootMessage, %function
 2024              	TERM_printBootMessage:
 2025              	.LFB74:
 267:..\common\tterm/TTerm.c ****     TERM_sendVT100Code(handle, _VT100_RESET, 0); TERM_sendVT100Code(handle, _VT100_CURSOR_POS1, 0);
 2026              		.loc 1 267 0
 2027              		.cfi_startproc
 2028              		@ args = 0, pretend = 0, frame = 0
 2029              		@ frame_needed = 0, uses_anonymous_args = 0
 2030              	.LVL261:
 2031 0000 37B5     		push	{r0, r1, r2, r4, r5, lr}
 2032              		.cfi_def_cfa_offset 24
 2033              		.cfi_offset 4, -12
 2034              		.cfi_offset 5, -8
 2035              		.cfi_offset 14, -4
 267:..\common\tterm/TTerm.c ****     TERM_sendVT100Code(handle, _VT100_RESET, 0); TERM_sendVT100Code(handle, _VT100_CURSOR_POS1, 0);
 2036              		.loc 1 267 0
 2037 0002 0446     		mov	r4, r0
 268:..\common\tterm/TTerm.c ****     ttprintfEcho("\33[?7l\r\n\n\n%s\r\n", TERM_startupText1);
 2038              		.loc 1 268 0
 2039 0004 0022     		movs	r2, #0
 2040 0006 4FF48051 		mov	r1, #4096
 2041 000a FFF7FEFF 		bl	TERM_sendVT100Code
 2042              	.LVL262:
 2043 000e 0022     		movs	r2, #0
 2044 0010 1146     		mov	r1, r2
 2045 0012 2046     		mov	r0, r4
 2046 0014 FFF7FEFF 		bl	TERM_sendVT100Code
 2047              	.LVL263:
 2048 0018 0022     		movs	r2, #0
 2049 001a 1021     		movs	r1, #16
 2050 001c 2046     		mov	r0, r4
 2051 001e FFF7FEFF 		bl	TERM_sendVT100Code
 2052              	.LVL264:
 269:..\common\tterm/TTerm.c ****     ttprintfEcho("%s\r\n", TERM_startupText2);
 2053              		.loc 1 269 0
 2054 0022 D4F88830 		ldr	r3, [r4, #136]
 2055 0026 23B1     		cbz	r3, .L333
 269:..\common\tterm/TTerm.c ****     ttprintfEcho("%s\r\n", TERM_startupText2);
 2056              		.loc 1 269 0 is_stmt 0 discriminator 1
 2057 0028 636A     		ldr	r3, [r4, #36]
 2058 002a 1E4A     		ldr	r2, .L356
 2059 002c 1E49     		ldr	r1, .L356+4
 2060 002e 6068     		ldr	r0, [r4, #4]
 2061 0030 9847     		blx	r3
 2062              	.LVL265:
 2063              	.L333:
 270:..\common\tterm/TTerm.c ****     ttprintfEcho("%s\r\n", TERM_startupText3);
 2064              		.loc 1 270 0 is_stmt 1
ARM GAS  C:\Users\chemi\AppData\Local\Temp\cc0tO343.s 			page 59


 2065 0032 D4F88830 		ldr	r3, [r4, #136]
 2066 0036 23B1     		cbz	r3, .L334
 270:..\common\tterm/TTerm.c ****     ttprintfEcho("%s\r\n", TERM_startupText3);
 2067              		.loc 1 270 0 is_stmt 0 discriminator 1
 2068 0038 636A     		ldr	r3, [r4, #36]
 2069 003a 1C4A     		ldr	r2, .L356+8
 2070 003c 1C49     		ldr	r1, .L356+12
 2071 003e 6068     		ldr	r0, [r4, #4]
 2072 0040 9847     		blx	r3
 2073              	.LVL266:
 2074              	.L334:
 271:..\common\tterm/TTerm.c ****     
 2075              		.loc 1 271 0 is_stmt 1
 2076 0042 D4F88830 		ldr	r3, [r4, #136]
 2077 0046 23B1     		cbz	r3, .L335
 271:..\common\tterm/TTerm.c ****     
 2078              		.loc 1 271 0 is_stmt 0 discriminator 1
 2079 0048 636A     		ldr	r3, [r4, #36]
 2080 004a 1A4A     		ldr	r2, .L356+16
 2081 004c 1849     		ldr	r1, .L356+12
 2082 004e 6068     		ldr	r0, [r4, #4]
 2083 0050 9847     		blx	r3
 2084              	.LVL267:
 2085              	.L335:
 273:..\common\tterm/TTerm.c ****         ttprintfEcho("\r\n\r\n%s@%s>", handle->currUserName, TERM_DEVICE_NAME);
 2086              		.loc 1 273 0 is_stmt 1
 2087 0052 E268     		ldr	r2, [r4, #12]
 2088 0054 D4F88830 		ldr	r3, [r4, #136]
 2089 0058 52B9     		cbnz	r2, .L336
 274:..\common\tterm/TTerm.c ****     }else{
 2090              		.loc 1 274 0
 2091 005a 03B3     		cbz	r3, .L332
 274:..\common\tterm/TTerm.c ****     }else{
 2092              		.loc 1 274 0 is_stmt 0 discriminator 1
 2093 005c 656A     		ldr	r5, [r4, #36]
 2094 005e 164B     		ldr	r3, .L356+20
 2095 0060 AC46     		mov	ip, r5
 2096 0062 A26A     		ldr	r2, [r4, #40]
 2097 0064 1549     		ldr	r1, .L356+24
 2098 0066 6068     		ldr	r0, [r4, #4]
 279:..\common\tterm/TTerm.c **** 
 2099              		.loc 1 279 0 is_stmt 1 discriminator 1
 2100 0068 03B0     		add	sp, sp, #12
 2101              		.cfi_remember_state
 2102              		.cfi_def_cfa_offset 12
 2103              		@ sp needed
 2104 006a BDE83040 		pop	{r4, r5, lr}
 2105              		.cfi_restore 14
 2106              		.cfi_restore 5
 2107              		.cfi_restore 4
 2108              		.cfi_def_cfa_offset 0
 2109              	.LVL268:
 274:..\common\tterm/TTerm.c ****     }else{
 2110              		.loc 1 274 0 discriminator 1
 2111 006e 6047     		bx	ip
 2112              	.LVL269:
 2113              	.L336:
ARM GAS  C:\Users\chemi\AppData\Local\Temp\cc0tO343.s 			page 60


 2114              		.cfi_restore_state
 276:..\common\tterm/TTerm.c ****         if(handle->inputBuffer[handle->currBufferPosition] != 0) TERM_sendVT100Code(handle, _VT100_
 2115              		.loc 1 276 0
 2116 0070 3BB1     		cbz	r3, .L339
 276:..\common\tterm/TTerm.c ****         if(handle->inputBuffer[handle->currBufferPosition] != 0) TERM_sendVT100Code(handle, _VT100_
 2117              		.loc 1 276 0 is_stmt 0 discriminator 1
 2118 0072 2368     		ldr	r3, [r4]
 2119 0074 656A     		ldr	r5, [r4, #36]
 2120 0076 0093     		str	r3, [sp]
 2121 0078 A26A     		ldr	r2, [r4, #40]
 2122 007a 0F4B     		ldr	r3, .L356+20
 2123 007c 1049     		ldr	r1, .L356+28
 2124 007e 6068     		ldr	r0, [r4, #4]
 2125 0080 A847     		blx	r5
 2126              	.LVL270:
 2127              	.L339:
 277:..\common\tterm/TTerm.c ****     }
 2128              		.loc 1 277 0 is_stmt 1
 2129 0082 A268     		ldr	r2, [r4, #8]
 2130 0084 2368     		ldr	r3, [r4]
 2131 0086 9B5C     		ldrb	r3, [r3, r2]	@ zero_extendqisi2
 2132 0088 4BB1     		cbz	r3, .L332
 277:..\common\tterm/TTerm.c ****     }
 2133              		.loc 1 277 0 is_stmt 0 discriminator 1
 2134 008a 2046     		mov	r0, r4
 2135 008c E368     		ldr	r3, [r4, #12]
 2136 008e 1221     		movs	r1, #18
 2137 0090 9A1A     		subs	r2, r3, r2
 2138 0092 D2B2     		uxtb	r2, r2
 279:..\common\tterm/TTerm.c **** 
 2139              		.loc 1 279 0 is_stmt 1 discriminator 1
 2140 0094 03B0     		add	sp, sp, #12
 2141              		.cfi_remember_state
 2142              		.cfi_def_cfa_offset 12
 2143              		@ sp needed
 2144 0096 BDE83040 		pop	{r4, r5, lr}
 2145              		.cfi_restore 14
 2146              		.cfi_restore 5
 2147              		.cfi_restore 4
 2148              		.cfi_def_cfa_offset 0
 2149              	.LVL271:
 277:..\common\tterm/TTerm.c ****     }
 2150              		.loc 1 277 0 discriminator 1
 2151 009a FFF7FEBF 		b	TERM_sendVT100Code
 2152              	.LVL272:
 2153              	.L332:
 2154              		.cfi_restore_state
 279:..\common\tterm/TTerm.c **** 
 2155              		.loc 1 279 0
 2156 009e 03B0     		add	sp, sp, #12
 2157              		.cfi_def_cfa_offset 12
 2158              		@ sp needed
 2159 00a0 30BD     		pop	{r4, r5, pc}
 2160              	.LVL273:
 2161              	.L357:
 2162 00a2 00BF     		.align	2
 2163              	.L356:
ARM GAS  C:\Users\chemi\AppData\Local\Temp\cc0tO343.s 			page 61


 2164 00a4 00000000 		.word	.LANCHOR0
 2165 00a8 6C010000 		.word	.LC39
 2166 00ac 9B000000 		.word	.LANCHOR0+155
 2167 00b0 7A010000 		.word	.LC40
 2168 00b4 D3000000 		.word	.LANCHOR0+211
 2169 00b8 00000000 		.word	.LC0
 2170 00bc 7F010000 		.word	.LC41
 2171 00c0 8A010000 		.word	.LC42
 2172              		.cfi_endproc
 2173              	.LFE74:
 2174              		.size	TERM_printBootMessage, .-TERM_printBootMessage
 2175              		.section	.text.TERM_createNewHandle,"ax",%progbits
 2176              		.align	1
 2177              		.global	TERM_createNewHandle
 2178              		.thumb
 2179              		.thumb_func
 2180              		.type	TERM_createNewHandle, %function
 2181              	TERM_createNewHandle:
 2182              	.LFB69:
  51:..\common\tterm/TTerm.c **** #else
 2183              		.loc 1 51 0
 2184              		.cfi_startproc
 2185              		@ args = 8, pretend = 0, frame = 0
 2186              		@ frame_needed = 0, uses_anonymous_args = 0
 2187              	.LVL274:
 2188 0000 2DE9F743 		push	{r0, r1, r2, r4, r5, r6, r7, r8, r9, lr}
 2189              		.cfi_def_cfa_offset 40
 2190              		.cfi_offset 4, -28
 2191              		.cfi_offset 5, -24
 2192              		.cfi_offset 6, -20
 2193              		.cfi_offset 7, -16
 2194              		.cfi_offset 8, -12
 2195              		.cfi_offset 9, -8
 2196              		.cfi_offset 14, -4
  51:..\common\tterm/TTerm.c **** #else
 2197              		.loc 1 51 0
 2198 0004 8146     		mov	r9, r0
  55:..\common\tterm/TTerm.c ****     memset(ret, 0, sizeof(TERMINAL_HANDLE));
 2199              		.loc 1 55 0
 2200 0006 9420     		movs	r0, #148
 2201              	.LVL275:
  51:..\common\tterm/TTerm.c **** #else
 2202              		.loc 1 51 0
 2203 0008 1E46     		mov	r6, r3
 2204 000a 8846     		mov	r8, r1
 2205 000c 1746     		mov	r7, r2
 2206 000e 0A9D     		ldr	r5, [sp, #40]
  55:..\common\tterm/TTerm.c ****     memset(ret, 0, sizeof(TERMINAL_HANDLE));
 2207              		.loc 1 55 0
 2208 0010 FFF7FEFF 		bl	pvPortMalloc
 2209              	.LVL276:
  56:..\common\tterm/TTerm.c ****     ret->inputBuffer = pvPortMalloc(TERM_INPUTBUFFER_SIZE);
 2210              		.loc 1 56 0
 2211 0014 9422     		movs	r2, #148
 2212 0016 0021     		movs	r1, #0
  55:..\common\tterm/TTerm.c ****     memset(ret, 0, sizeof(TERMINAL_HANDLE));
 2213              		.loc 1 55 0
ARM GAS  C:\Users\chemi\AppData\Local\Temp\cc0tO343.s 			page 62


 2214 0018 0446     		mov	r4, r0
 2215              	.LVL277:
  56:..\common\tterm/TTerm.c ****     ret->inputBuffer = pvPortMalloc(TERM_INPUTBUFFER_SIZE);
 2216              		.loc 1 56 0
 2217 001a FFF7FEFF 		bl	memset
 2218              	.LVL278:
  57:..\common\tterm/TTerm.c ****     ret->print = printFunction;
 2219              		.loc 1 57 0
 2220 001e 8020     		movs	r0, #128
 2221 0020 FFF7FEFF 		bl	pvPortMalloc
 2222              	.LVL279:
  58:..\common\tterm/TTerm.c ****     #if EXTENDED_PRINTF == 1
 2223              		.loc 1 58 0
 2224 0024 C4F82490 		str	r9, [r4, #36]
  57:..\common\tterm/TTerm.c ****     ret->print = printFunction;
 2225              		.loc 1 57 0
 2226 0028 2060     		str	r0, [r4]
  60:..\common\tterm/TTerm.c ****     #endif    
 2227              		.loc 1 60 0
 2228 002a C4F80480 		str	r8, [r4, #4]
  64:..\common\tterm/TTerm.c ****     sprintf(ret->currUserName, "%s%s%s", TERM_getVT100Code(_VT100_FOREGROUND_COLOR, _VT100_BLUE), u
 2229              		.loc 1 64 0
 2230 002e 0B98     		ldr	r0, [sp, #44]
  62:..\common\tterm/TTerm.c ****     ret->cmdListHead = cmdListHead;
 2231              		.loc 1 62 0
 2232 0030 C4F88870 		str	r7, [r4, #136]
  63:..\common\tterm/TTerm.c ****     ret->currUserName = pvPortMalloc(strlen(usr) + 1 + strlen(TERM_getVT100Code(_VT100_FOREGROUND_C
 2233              		.loc 1 63 0
 2234 0034 C4F88C60 		str	r6, [r4, #140]
  64:..\common\tterm/TTerm.c ****     sprintf(ret->currUserName, "%s%s%s", TERM_getVT100Code(_VT100_FOREGROUND_COLOR, _VT100_BLUE), u
 2235              		.loc 1 64 0
 2236 0038 FFF7FEFF 		bl	strlen
 2237              	.LVL280:
 2238 003c 0A30     		adds	r0, r0, #10
 2239 003e FFF7FEFF 		bl	pvPortMalloc
 2240              	.LVL281:
  65:..\common\tterm/TTerm.c ****     ret->currEscSeqPos = 0xff;
 2241              		.loc 1 65 0
 2242 0042 1B4B     		ldr	r3, .L362
  64:..\common\tterm/TTerm.c ****     sprintf(ret->currUserName, "%s%s%s", TERM_getVT100Code(_VT100_FOREGROUND_COLOR, _VT100_BLUE), u
 2243              		.loc 1 64 0
 2244 0044 A062     		str	r0, [r4, #40]
  65:..\common\tterm/TTerm.c ****     ret->currEscSeqPos = 0xff;
 2245              		.loc 1 65 0
 2246 0046 1B4A     		ldr	r2, .L362+4
 2247 0048 0093     		str	r3, [sp]
 2248 004a 1B49     		ldr	r1, .L362+8
 2249 004c 0B9B     		ldr	r3, [sp, #44]
 2250 004e FFF7FEFF 		bl	sprintf
 2251              	.LVL282:
  66:..\common\tterm/TTerm.c ****     
 2252              		.loc 1 66 0
 2253 0052 FF23     		movs	r3, #255
 2254 0054 84F87430 		strb	r3, [r4, #116]
  68:..\common\tterm/TTerm.c ****         ret->errorPrinter = TERM_defaultErrorPrinter;
 2255              		.loc 1 68 0
 2256 0058 1DB9     		cbnz	r5, .L359
ARM GAS  C:\Users\chemi\AppData\Local\Temp\cc0tO343.s 			page 63


  69:..\common\tterm/TTerm.c ****     }else{
 2257              		.loc 1 69 0
 2258 005a 184B     		ldr	r3, .L362+12
 2259 005c C4F89030 		str	r3, [r4, #144]
 2260 0060 01E0     		b	.L360
 2261              	.L359:
  71:..\common\tterm/TTerm.c ****     }
 2262              		.loc 1 71 0
 2263 0062 C4F89050 		str	r5, [r4, #144]
 2264              	.L360:
  80:..\common\tterm/TTerm.c ****         TERM_baseCMDsAdded = 1;
 2265              		.loc 1 80 0
 2266 0066 164D     		ldr	r5, .L362+16
 2267 0068 2E68     		ldr	r6, [r5]
 2268              	.LVL283:
 2269 006a D6B9     		cbnz	r6, .L361
  81:..\common\tterm/TTerm.c ****         
 2270              		.loc 1 81 0
 2271 006c 0123     		movs	r3, #1
 2272 006e 45F8043B 		str	r3, [r5], #4
  83:..\common\tterm/TTerm.c ****         TERM_addCommand(CMD_cls, "cls", "Clears the screen", 0, &TERM_cmdListHead);
 2273              		.loc 1 83 0
 2274 0072 144A     		ldr	r2, .L362+20
 2275 0074 3346     		mov	r3, r6
 2276 0076 1449     		ldr	r1, .L362+24
 2277 0078 0095     		str	r5, [sp]
 2278 007a 1448     		ldr	r0, .L362+28
 2279 007c FFF7FEFF 		bl	TERM_addCommand
 2280              	.LVL284:
  84:..\common\tterm/TTerm.c ****         TERM_addCommand(CMD_testCommandHandler, "test", "Test input", 0, &TERM_cmdListHead);
 2281              		.loc 1 84 0
 2282 0080 3346     		mov	r3, r6
 2283 0082 134A     		ldr	r2, .L362+32
 2284 0084 1349     		ldr	r1, .L362+36
 2285 0086 0095     		str	r5, [sp]
 2286 0088 1348     		ldr	r0, .L362+40
 2287 008a FFF7FEFF 		bl	TERM_addCommand
 2288              	.LVL285:
  85:..\common\tterm/TTerm.c ****         //TERM_addCommand(CMD_reset, "reset", "resets the fibernet", 0, &TERM_cmdListHead);
 2289              		.loc 1 85 0
 2290 008e 0095     		str	r5, [sp]
 2291 0090 3346     		mov	r3, r6
 2292 0092 124A     		ldr	r2, .L362+44
 2293 0094 1249     		ldr	r1, .L362+48
 2294 0096 1348     		ldr	r0, .L362+52
 2295 0098 FFF7FEFF 		bl	TERM_addCommand
 2296              	.LVL286:
  88:..\common\tterm/TTerm.c ****         
 2297              		.loc 1 88 0
 2298 009c 2846     		mov	r0, r5
 2299 009e FFF7FEFF 		bl	REGISTER_apps
 2300              	.LVL287:
 2301              	.L361:
 101:..\common\tterm/TTerm.c **** #endif
 2302              		.loc 1 101 0
 2303 00a2 2046     		mov	r0, r4
 2304 00a4 FFF7FEFF 		bl	TERM_printBootMessage
ARM GAS  C:\Users\chemi\AppData\Local\Temp\cc0tO343.s 			page 64


 2305              	.LVL288:
 104:..\common\tterm/TTerm.c **** 
 2306              		.loc 1 104 0
 2307 00a8 2046     		mov	r0, r4
 2308 00aa 03B0     		add	sp, sp, #12
 2309              		.cfi_def_cfa_offset 28
 2310              		@ sp needed
 2311 00ac BDE8F083 		pop	{r4, r5, r6, r7, r8, r9, pc}
 2312              	.LVL289:
 2313              	.L363:
 2314              		.align	2
 2315              	.L362:
 2316 00b0 DF000000 		.word	.LC13
 2317 00b4 97010000 		.word	.LC43
 2318 00b8 9D010000 		.word	.LC44
 2319 00bc 00000000 		.word	TERM_defaultErrorPrinter
 2320 00c0 00000000 		.word	.LANCHOR1
 2321 00c4 A4010000 		.word	.LC45
 2322 00c8 BF010000 		.word	.LC46
 2323 00cc 00000000 		.word	CMD_help
 2324 00d0 C4010000 		.word	.LC47
 2325 00d4 D6010000 		.word	.LC48
 2326 00d8 00000000 		.word	CMD_cls
 2327 00dc DA010000 		.word	.LC49
 2328 00e0 E5010000 		.word	.LC50
 2329 00e4 00000000 		.word	CMD_testCommandHandler
 2330              		.cfi_endproc
 2331              	.LFE69:
 2332              		.size	TERM_createNewHandle, .-TERM_createNewHandle
 2333              		.section	.text.TERM_handleInput,"ax",%progbits
 2334              		.align	1
 2335              		.global	TERM_handleInput
 2336              		.thumb
 2337              		.thumb_func
 2338              		.type	TERM_handleInput, %function
 2339              	TERM_handleInput:
 2340              	.LFB78:
 312:..\common\tterm/TTerm.c ****     //ttprintfEcho("received 0x%04x\r\n", c);
 2341              		.loc 1 312 0
 2342              		.cfi_startproc
 2343              		@ args = 0, pretend = 0, frame = 0
 2344              		@ frame_needed = 0, uses_anonymous_args = 0
 2345              	.LVL290:
 2346 0000 F0B5     		push	{r4, r5, r6, r7, lr}
 2347              		.cfi_def_cfa_offset 20
 2348              		.cfi_offset 4, -20
 2349              		.cfi_offset 5, -16
 2350              		.cfi_offset 6, -12
 2351              		.cfi_offset 7, -8
 2352              		.cfi_offset 14, -4
 314:..\common\tterm/TTerm.c ****         //call the handler of the current override
 2353              		.loc 1 314 0
 2354 0002 4E69     		ldr	r6, [r1, #20]
 312:..\common\tterm/TTerm.c ****     //ttprintfEcho("received 0x%04x\r\n", c);
 2355              		.loc 1 312 0
 2356 0004 85B0     		sub	sp, sp, #20
 2357              		.cfi_def_cfa_offset 40
ARM GAS  C:\Users\chemi\AppData\Local\Temp\cc0tO343.s 			page 65


 312:..\common\tterm/TTerm.c ****     //ttprintfEcho("received 0x%04x\r\n", c);
 2358              		.loc 1 312 0
 2359 0006 0546     		mov	r5, r0
 2360 0008 0C46     		mov	r4, r1
 314:..\common\tterm/TTerm.c ****         //call the handler of the current override
 2361              		.loc 1 314 0
 2362 000a 4EB1     		cbz	r6, .L365
 2363              	.LBB69:
 316:..\common\tterm/TTerm.c ****         
 2364              		.loc 1 316 0
 2365 000c 7368     		ldr	r3, [r6, #4]
 2366 000e 0146     		mov	r1, r0
 2367              	.LVL291:
 2368 0010 2046     		mov	r0, r4
 2369              	.LVL292:
 2370 0012 9847     		blx	r3
 2371              	.LVL293:
 318:..\common\tterm/TTerm.c ****         
 2372              		.loc 1 318 0
 2373 0014 D4F89030 		ldr	r3, [r4, #144]
 2374 0018 0146     		mov	r1, r0
 2375 001a 2046     		mov	r0, r4
 2376              	.LVL294:
 2377 001c 9847     		blx	r3
 2378              	.LVL295:
 320:..\common\tterm/TTerm.c ****     }
 2379              		.loc 1 320 0
 2380 001e 6DE2     		b	.L366
 2381              	.LVL296:
 2382              	.L365:
 2383              	.LBE69:
 2384              	.LBB70:
 2385              	.LBB71:
 323:..\common\tterm/TTerm.c ****         case '\r':      //enter
 2386              		.loc 1 323 0
 2387 0020 B0F5805F 		cmp	r0, #4096
 2388 0024 00F01282 		beq	.L368
 2389 0028 15D8     		bhi	.L369
 2390 002a 0A28     		cmp	r0, #10
 2391 002c 00F09480 		beq	.L370
 2392 0030 07D8     		bhi	.L371
 2393 0032 0828     		cmp	r0, #8
 2394 0034 00F09080 		beq	.L370
 2395 0038 00F26C81 		bhi	.L372
 2396 003c 0328     		cmp	r0, #3
 2397 003e 76D0     		beq	.L373
 2398 0040 57E2     		b	.L367
 2399              	.L371:
 2400 0042 7E28     		cmp	r0, #126
 2401 0044 05D8     		bhi	.L374
 2402 0046 2028     		cmp	r0, #32
 2403 0048 80F00482 		bcs	.L375
 2404 004c 0D28     		cmp	r0, #13
 2405 004e 21D0     		beq	.L376
 2406 0050 4FE2     		b	.L367
 2407              	.L374:
 2408 0052 7F28     		cmp	r0, #127
ARM GAS  C:\Users\chemi\AppData\Local\Temp\cc0tO343.s 			page 66


 2409 0054 1CE0     		b	.L526
 2410              	.L369:
 2411 0056 41F20403 		movw	r3, #4100
 2412 005a 9842     		cmp	r0, r3
 2413 005c 00F00481 		beq	.L377
 2414 0060 07D8     		bhi	.L378
 2415 0062 41F20203 		movw	r3, #4098
 2416 0066 9842     		cmp	r0, r3
 2417 0068 00F0E080 		beq	.L379
 2418 006c 40F2CC80 		bls	.L522
 2419 0070 EBE0     		b	.L544
 2420              	.L378:
 2421 0072 41F20603 		movw	r3, #4102
 2422 0076 9842     		cmp	r0, r3
 2423 0078 00F01981 		beq	.L382
 2424 007c C0F00481 		bcc	.L383
 2425 0080 41F20703 		movw	r3, #4103
 2426 0084 9842     		cmp	r0, r3
 2427 0086 00F08F81 		beq	.L384
 2428 008a 41F20803 		movw	r3, #4104
 2429 008e 9842     		cmp	r0, r3
 2430              	.L526:
 2431 0090 62D0     		beq	.L370
 2432 0092 2EE2     		b	.L367
 2433              	.L376:
 325:..\common\tterm/TTerm.c ****             
 2434              		.loc 1 325 0
 2435 0094 0321     		movs	r1, #3
 2436              	.LVL297:
 2437 0096 2046     		mov	r0, r4
 2438              	.LVL298:
 2439 0098 FFF7FEFF 		bl	TERM_checkForCopy
 2440              	.LVL299:
 327:..\common\tterm/TTerm.c ****                 ttprintfEcho("\r\n", handle->inputBuffer);
 2441              		.loc 1 327 0
 2442 009c E268     		ldr	r2, [r4, #12]
 2443 009e D4F88830 		ldr	r3, [r4, #136]
 2444 00a2 002A     		cmp	r2, #0
 2445 00a4 3BD0     		beq	.L385
 2446              	.LBB72:
 328:..\common\tterm/TTerm.c **** 
 2447              		.loc 1 328 0
 2448 00a6 23B1     		cbz	r3, .L386
 2449 00a8 636A     		ldr	r3, [r4, #36]
 2450 00aa 2268     		ldr	r2, [r4]
 2451 00ac 9249     		ldr	r1, .L546
 2452 00ae 6068     		ldr	r0, [r4, #4]
 2453 00b0 9847     		blx	r3
 2454              	.LVL300:
 2455              	.L386:
 330:..\common\tterm/TTerm.c ****                     vPortFree(handle->historyBuffer[handle->currHistoryWritePosition]);
 2456              		.loc 1 330 0
 2457 00b2 E36E     		ldr	r3, [r4, #108]
 2458 00b4 04EB8303 		add	r3, r4, r3, lsl #2
 2459 00b8 D86A     		ldr	r0, [r3, #44]
 2460 00ba 38B1     		cbz	r0, .L387
 331:..\common\tterm/TTerm.c ****                     handle->historyBuffer[handle->currHistoryWritePosition] = 0;
ARM GAS  C:\Users\chemi\AppData\Local\Temp\cc0tO343.s 			page 67


 2461              		.loc 1 331 0
 2462 00bc FFF7FEFF 		bl	vPortFree
 2463              	.LVL301:
 332:..\common\tterm/TTerm.c ****                 }
 2464              		.loc 1 332 0
 2465 00c0 E36E     		ldr	r3, [r4, #108]
 2466 00c2 0022     		movs	r2, #0
 2467 00c4 0A33     		adds	r3, r3, #10
 2468 00c6 04EB8303 		add	r3, r4, r3, lsl #2
 2469 00ca 5A60     		str	r2, [r3, #4]
 2470              	.L387:
 335:..\common\tterm/TTerm.c ****                 memcpy(handle->historyBuffer[handle->currHistoryWritePosition], handle->inputBuffer
 2471              		.loc 1 335 0
 2472 00cc E068     		ldr	r0, [r4, #12]
 2473 00ce E56E     		ldr	r5, [r4, #108]
 2474 00d0 0130     		adds	r0, r0, #1
 2475 00d2 FFF7FEFF 		bl	pvPortMalloc
 2476              	.LVL302:
 336:..\common\tterm/TTerm.c ****                 
 2477              		.loc 1 336 0
 2478 00d6 E36E     		ldr	r3, [r4, #108]
 2479 00d8 E268     		ldr	r2, [r4, #12]
 335:..\common\tterm/TTerm.c ****                 memcpy(handle->historyBuffer[handle->currHistoryWritePosition], handle->inputBuffer
 2480              		.loc 1 335 0
 2481 00da 04EB8505 		add	r5, r4, r5, lsl #2
 336:..\common\tterm/TTerm.c ****                 
 2482              		.loc 1 336 0
 2483 00de 04EB8303 		add	r3, r4, r3, lsl #2
 335:..\common\tterm/TTerm.c ****                 memcpy(handle->historyBuffer[handle->currHistoryWritePosition], handle->inputBuffer
 2484              		.loc 1 335 0
 2485 00e2 E862     		str	r0, [r5, #44]
 336:..\common\tterm/TTerm.c ****                 
 2486              		.loc 1 336 0
 2487 00e4 0132     		adds	r2, r2, #1
 2488 00e6 2168     		ldr	r1, [r4]
 2489 00e8 D86A     		ldr	r0, [r3, #44]
 2490 00ea FFF7FEFF 		bl	memcpy
 2491              	.LVL303:
 338:..\common\tterm/TTerm.c ****                 
 2492              		.loc 1 338 0
 2493 00ee E36E     		ldr	r3, [r4, #108]
 342:..\common\tterm/TTerm.c ****                 (*handle->errorPrinter)(handle, retCode);
 2494              		.loc 1 342 0
 2495 00f0 2246     		mov	r2, r4
 338:..\common\tterm/TTerm.c ****                 
 2496              		.loc 1 338 0
 2497 00f2 0133     		adds	r3, r3, #1
 2498 00f4 0F2B     		cmp	r3, #15
 2499 00f6 88BF     		it	hi
 2500 00f8 0023     		movhi	r3, #0
 2501 00fa E366     		str	r3, [r4, #108]
 340:..\common\tterm/TTerm.c **** 
 2502              		.loc 1 340 0
 2503 00fc E36E     		ldr	r3, [r4, #108]
 342:..\common\tterm/TTerm.c ****                 (*handle->errorPrinter)(handle, retCode);
 2504              		.loc 1 342 0
 2505 00fe A189     		ldrh	r1, [r4, #12]
ARM GAS  C:\Users\chemi\AppData\Local\Temp\cc0tO343.s 			page 68


 340:..\common\tterm/TTerm.c **** 
 2506              		.loc 1 340 0
 2507 0100 2367     		str	r3, [r4, #112]
 342:..\common\tterm/TTerm.c ****                 (*handle->errorPrinter)(handle, retCode);
 2508              		.loc 1 342 0
 2509 0102 2068     		ldr	r0, [r4]
 2510 0104 FFF7FEFF 		bl	TERM_interpretCMD
 2511              	.LVL304:
 343:..\common\tterm/TTerm.c ****                 
 2512              		.loc 1 343 0
 2513 0108 D4F89030 		ldr	r3, [r4, #144]
 2514 010c 0146     		mov	r1, r0
 2515 010e 2046     		mov	r0, r4
 2516              	.LVL305:
 2517 0110 9847     		blx	r3
 2518              	.LVL306:
 347:..\common\tterm/TTerm.c ****             }else{
 2519              		.loc 1 347 0
 2520 0112 2268     		ldr	r2, [r4]
 345:..\common\tterm/TTerm.c ****                 handle->currBufferLength = 0;
 2521              		.loc 1 345 0
 2522 0114 0023     		movs	r3, #0
 2523 0116 A360     		str	r3, [r4, #8]
 346:..\common\tterm/TTerm.c ****                 handle->inputBuffer[handle->currBufferPosition] = 0;
 2524              		.loc 1 346 0
 2525 0118 E360     		str	r3, [r4, #12]
 347:..\common\tterm/TTerm.c ****             }else{
 2526              		.loc 1 347 0
 2527 011a 1370     		strb	r3, [r2]
 2528 011c EEE1     		b	.L366
 2529              	.L385:
 2530              	.LBE72:
 349:..\common\tterm/TTerm.c ****             }       
 2531              		.loc 1 349 0
 2532 011e 002B     		cmp	r3, #0
 2533 0120 00F0EC81 		beq	.L366
 2534 0124 656A     		ldr	r5, [r4, #36]
 2535 0126 754B     		ldr	r3, .L546+4
 2536 0128 A26A     		ldr	r2, [r4, #40]
 2537 012a 7549     		ldr	r1, .L546+8
 2538 012c 11E0     		b	.L531
 2539              	.LVL307:
 2540              	.L373:
 356:..\common\tterm/TTerm.c ****         	TERM_sendVT100Code(handle, _VT100_ERASE_LINE, 0);
 2541              		.loc 1 356 0
 2542 012e 0B68     		ldr	r3, [r1]
 354:..\common\tterm/TTerm.c ****         	handle->currBufferLength=0;
 2543              		.loc 1 354 0
 2544 0130 8E60     		str	r6, [r1, #8]
 355:..\common\tterm/TTerm.c ****         	handle->inputBuffer[0]=0;
 2545              		.loc 1 355 0
 2546 0132 CE60     		str	r6, [r1, #12]
 357:..\common\tterm/TTerm.c ****         	ttprintfEcho("\r%s@%s>", handle->currUserName, TERM_DEVICE_NAME);
 2547              		.loc 1 357 0
 2548 0134 3246     		mov	r2, r6
 356:..\common\tterm/TTerm.c ****         	TERM_sendVT100Code(handle, _VT100_ERASE_LINE, 0);
 2549              		.loc 1 356 0
ARM GAS  C:\Users\chemi\AppData\Local\Temp\cc0tO343.s 			page 69


 2550 0136 1E70     		strb	r6, [r3]
 357:..\common\tterm/TTerm.c ****         	ttprintfEcho("\r%s@%s>", handle->currUserName, TERM_DEVICE_NAME);
 2551              		.loc 1 357 0
 2552 0138 0C21     		movs	r1, #12
 2553              	.LVL308:
 2554 013a 2046     		mov	r0, r4
 2555              	.LVL309:
 2556 013c FFF7FEFF 		bl	TERM_sendVT100Code
 2557              	.LVL310:
 358:..\common\tterm/TTerm.c ****             break;
 2558              		.loc 1 358 0
 2559 0140 D4F88830 		ldr	r3, [r4, #136]
 2560 0144 002B     		cmp	r3, #0
 2561 0146 00F0D981 		beq	.L366
 2562 014a 656A     		ldr	r5, [r4, #36]
 2563 014c 6B4B     		ldr	r3, .L546+4
 2564 014e A26A     		ldr	r2, [r4, #40]
 2565 0150 6C49     		ldr	r1, .L546+12
 2566              	.L531:
 2567 0152 6068     		ldr	r0, [r4, #4]
 2568 0154 A847     		blx	r5
 2569              	.LVL311:
 2570 0156 D1E1     		b	.L366
 2571              	.LVL312:
 2572              	.L370:
 364:..\common\tterm/TTerm.c **** 
 2573              		.loc 1 364 0
 2574 0158 0321     		movs	r1, #3
 2575              	.LVL313:
 2576 015a 2046     		mov	r0, r4
 2577              	.LVL314:
 2578 015c FFF7FEFF 		bl	TERM_checkForCopy
 2579              	.LVL315:
 366:..\common\tterm/TTerm.c ****                 handle->currBufferPosition ++;
 2580              		.loc 1 366 0
 2581 0160 E268     		ldr	r2, [r4, #12]
 2582 0162 A368     		ldr	r3, [r4, #8]
 2583 0164 9342     		cmp	r3, r2
 2584 0166 41F20802 		movw	r2, #4104
 2585 016a 0AD2     		bcs	.L392
 2586 016c 9542     		cmp	r5, r2
 2587 016e 0BD1     		bne	.L393
 367:..\common\tterm/TTerm.c ****                 TERM_sendVT100Code(handle, _VT100_CURSOR_FORWARD, 0);
 2588              		.loc 1 367 0
 2589 0170 0133     		adds	r3, r3, #1
 2590 0172 A360     		str	r3, [r4, #8]
 368:..\common\tterm/TTerm.c ****             }else if (c == _VT100_KEY_DEL) {
 2591              		.loc 1 368 0
 2592 0174 0022     		movs	r2, #0
 2593 0176 41F20301 		movw	r1, #4099
 2594 017a 2046     		mov	r0, r4
 2595 017c FFF7FEFF 		bl	TERM_sendVT100Code
 2596              	.LVL316:
 2597 0180 02E0     		b	.L393
 2598              	.L392:
 369:..\common\tterm/TTerm.c ****                 break;
 2599              		.loc 1 369 0
ARM GAS  C:\Users\chemi\AppData\Local\Temp\cc0tO343.s 			page 70


 2600 0182 9542     		cmp	r5, r2
 2601 0184 00F0BA81 		beq	.L366
 2602              	.L393:
 373:..\common\tterm/TTerm.c **** 
 2603              		.loc 1 373 0
 2604 0188 A368     		ldr	r3, [r4, #8]
 2605 018a 002B     		cmp	r3, #0
 2606 018c 00F0B681 		beq	.L366
 375:..\common\tterm/TTerm.c ****                 //we are somewhere in the middle -> move back existing characters
 2607              		.loc 1 375 0
 2608 0190 2268     		ldr	r2, [r4]
 2609 0192 D15C     		ldrb	r1, [r2, r3]	@ zero_extendqisi2
 2610 0194 013B     		subs	r3, r3, #1
 2611 0196 59B3     		cbz	r1, .L394
 2612              	.LVL317:
 2613 0198 1344     		add	r3, r3, r2
 2614              	.LVL318:
 2615              	.L395:
 2616 019a 981A     		subs	r0, r3, r2
 2617              	.LVL319:
 2618              	.LBB73:
 2619              	.LBB74:
 2620              	.LBB75:
 616:..\common\tterm/TTerm.c ****             src[currPos] = src[currPos - offset];
 2621              		.loc 1 616 0
 2622 019c 13F8011F 		ldrb	r1, [r3, #1]!	@ zero_extendqisi2
 2623 01a0 11B1     		cbz	r1, .L545
 617:..\common\tterm/TTerm.c ****         }
 2624              		.loc 1 617 0
 2625 01a2 03F8011C 		strb	r1, [r3, #-1]
 2626              	.LVL320:
 2627 01a6 F8E7     		b	.L395
 2628              	.LVL321:
 2629              	.L545:
 619:..\common\tterm/TTerm.c ****         return;
 2630              		.loc 1 619 0
 2631 01a8 1154     		strb	r1, [r2, r0]
 2632              	.LVL322:
 2633              	.LBE75:
 2634              	.LBE74:
 2635              	.LBE73:
 378:..\common\tterm/TTerm.c ****                 TERM_sendVT100Code(handle, _VT100_ERASE_LINE_END, 0);
 2636              		.loc 1 378 0
 2637 01aa D4F88830 		ldr	r3, [r4, #136]
 2638 01ae 1BB1     		cbz	r3, .L397
 2639 01b0 636A     		ldr	r3, [r4, #36]
 2640 01b2 5549     		ldr	r1, .L546+16
 2641 01b4 6068     		ldr	r0, [r4, #4]
 2642 01b6 9847     		blx	r3
 2643              	.LVL323:
 2644              	.L397:
 379:..\common\tterm/TTerm.c ****                 ttprintfEcho("%s", &handle->inputBuffer[handle->currBufferPosition - 1]);
 2645              		.loc 1 379 0
 2646 01b8 0022     		movs	r2, #0
 2647 01ba 1121     		movs	r1, #17
 2648 01bc 2046     		mov	r0, r4
 2649 01be FFF7FEFF 		bl	TERM_sendVT100Code
ARM GAS  C:\Users\chemi\AppData\Local\Temp\cc0tO343.s 			page 71


 2650              	.LVL324:
 380:..\common\tterm/TTerm.c ****                 TERM_sendVT100Code(handle, _VT100_CURSOR_BACK_BY, handle->currBufferLength - handle
 2651              		.loc 1 380 0
 2652 01c2 D4F88830 		ldr	r3, [r4, #136]
 2653 01c6 3BB1     		cbz	r3, .L398
 2654 01c8 A268     		ldr	r2, [r4, #8]
 2655 01ca 2168     		ldr	r1, [r4]
 2656 01cc 013A     		subs	r2, r2, #1
 2657 01ce 0A44     		add	r2, r2, r1
 2658 01d0 636A     		ldr	r3, [r4, #36]
 2659 01d2 4E49     		ldr	r1, .L546+20
 2660 01d4 6068     		ldr	r0, [r4, #4]
 2661 01d6 9847     		blx	r3
 2662              	.LVL325:
 2663              	.L398:
 381:..\common\tterm/TTerm.c ****                 handle->currBufferPosition --;
 2664              		.loc 1 381 0
 2665 01d8 E368     		ldr	r3, [r4, #12]
 2666 01da A268     		ldr	r2, [r4, #8]
 2667 01dc 1221     		movs	r1, #18
 2668 01de 9A1A     		subs	r2, r3, r2
 2669 01e0 D2B2     		uxtb	r2, r2
 2670 01e2 2046     		mov	r0, r4
 2671 01e4 FFF7FEFF 		bl	TERM_sendVT100Code
 2672              	.LVL326:
 382:..\common\tterm/TTerm.c ****                 handle->currBufferLength --;
 2673              		.loc 1 382 0
 2674 01e8 A368     		ldr	r3, [r4, #8]
 2675 01ea 013B     		subs	r3, r3, #1
 2676 01ec A360     		str	r3, [r4, #8]
 2677 01ee 08E0     		b	.L399
 2678              	.L394:
 386:..\common\tterm/TTerm.c ****                 ttprintfEcho("\x08 \x08");           
 2679              		.loc 1 386 0
 2680 01f0 A360     		str	r3, [r4, #8]
 2681 01f2 D154     		strb	r1, [r2, r3]
 387:..\common\tterm/TTerm.c ****                 handle->currBufferLength --;
 2682              		.loc 1 387 0
 2683 01f4 D4F88830 		ldr	r3, [r4, #136]
 2684 01f8 1BB1     		cbz	r3, .L399
 2685 01fa 636A     		ldr	r3, [r4, #36]
 2686 01fc 4449     		ldr	r1, .L546+24
 2687 01fe 6068     		ldr	r0, [r4, #4]
 2688 0200 9847     		blx	r3
 2689              	.LVL327:
 2690              	.L399:
 388:..\common\tterm/TTerm.c ****             }
 2691              		.loc 1 388 0
 2692 0202 E368     		ldr	r3, [r4, #12]
 2693 0204 013B     		subs	r3, r3, #1
 2694 0206 72E1     		b	.L528
 2695              	.LVL328:
 2696              	.L522:
 393:..\common\tterm/TTerm.c **** 
 2697              		.loc 1 393 0
 2698 0208 0321     		movs	r1, #3
 2699              	.LVL329:
ARM GAS  C:\Users\chemi\AppData\Local\Temp\cc0tO343.s 			page 72


 2700 020a 2046     		mov	r0, r4
 2701              	.LVL330:
 2702 020c FFF7FEFF 		bl	TERM_checkForCopy
 2703              	.LVL331:
 395:..\common\tterm/TTerm.c **** 				//move the cursor to the right position
 2704              		.loc 1 395 0
 2705 0210 E368     		ldr	r3, [r4, #12]
 2706 0212 A268     		ldr	r2, [r4, #8]
 2707 0214 9342     		cmp	r3, r2
 2708 0216 40F27181 		bls	.L366
 397:..\common\tterm/TTerm.c **** 				handle->currBufferPosition = handle->currBufferLength;
 2709              		.loc 1 397 0
 2710 021a 9A1A     		subs	r2, r3, r2
 2711 021c D2B2     		uxtb	r2, r2
 2712 021e 1321     		movs	r1, #19
 2713 0220 2046     		mov	r0, r4
 2714 0222 FFF7FEFF 		bl	TERM_sendVT100Code
 2715              	.LVL332:
 398:..\common\tterm/TTerm.c **** 			}
 2716              		.loc 1 398 0
 2717 0226 E368     		ldr	r3, [r4, #12]
 2718 0228 A360     		str	r3, [r4, #8]
 2719 022a 67E1     		b	.L366
 2720              	.LVL333:
 2721              	.L379:
 403:..\common\tterm/TTerm.c **** 
 2722              		.loc 1 403 0
 2723 022c 0321     		movs	r1, #3
 2724              	.LVL334:
 2725 022e 2046     		mov	r0, r4
 2726              	.LVL335:
 2727 0230 FFF7FEFF 		bl	TERM_checkForCopy
 2728              	.LVL336:
 405:..\common\tterm/TTerm.c **** 				//move the cursor to the right position
 2729              		.loc 1 405 0
 2730 0234 A268     		ldr	r2, [r4, #8]
 2731 0236 002A     		cmp	r2, #0
 2732 0238 00F06081 		beq	.L366
 407:..\common\tterm/TTerm.c **** 				handle->currBufferPosition = 0;
 2733              		.loc 1 407 0
 2734 023c D2B2     		uxtb	r2, r2
 2735 023e 1221     		movs	r1, #18
 2736 0240 2046     		mov	r0, r4
 2737 0242 FFF7FEFF 		bl	TERM_sendVT100Code
 2738              	.LVL337:
 408:..\common\tterm/TTerm.c **** 			}
 2739              		.loc 1 408 0
 2740 0246 A660     		str	r6, [r4, #8]
 2741 0248 58E1     		b	.L366
 2742              	.LVL338:
 2743              	.L544:
 413:..\common\tterm/TTerm.c ****             
 2744              		.loc 1 413 0
 2745 024a 0321     		movs	r1, #3
 2746              	.LVL339:
 2747 024c 2046     		mov	r0, r4
 2748              	.LVL340:
ARM GAS  C:\Users\chemi\AppData\Local\Temp\cc0tO343.s 			page 73


 2749 024e FFF7FEFF 		bl	TERM_checkForCopy
 2750              	.LVL341:
 415:..\common\tterm/TTerm.c ****                 handle->currBufferPosition ++;
 2751              		.loc 1 415 0
 2752 0252 A368     		ldr	r3, [r4, #8]
 2753 0254 E268     		ldr	r2, [r4, #12]
 2754 0256 9342     		cmp	r3, r2
 2755 0258 80F05081 		bcs	.L366
 416:..\common\tterm/TTerm.c ****                 TERM_sendVT100Code(handle, _VT100_CURSOR_FORWARD, 0);
 2756              		.loc 1 416 0
 2757 025c 0133     		adds	r3, r3, #1
 2758 025e A360     		str	r3, [r4, #8]
 417:..\common\tterm/TTerm.c ****             }
 2759              		.loc 1 417 0
 2760 0260 3246     		mov	r2, r6
 2761 0262 41F20301 		movw	r1, #4099
 2762 0266 0BE0     		b	.L527
 2763              	.LVL342:
 2764              	.L377:
 422:..\common\tterm/TTerm.c ****             
 2765              		.loc 1 422 0
 2766 0268 0321     		movs	r1, #3
 2767              	.LVL343:
 2768 026a 2046     		mov	r0, r4
 2769              	.LVL344:
 2770 026c FFF7FEFF 		bl	TERM_checkForCopy
 2771              	.LVL345:
 424:..\common\tterm/TTerm.c ****                 handle->currBufferPosition --;
 2772              		.loc 1 424 0
 2773 0270 A368     		ldr	r3, [r4, #8]
 2774 0272 002B     		cmp	r3, #0
 2775 0274 00F04281 		beq	.L366
 426:..\common\tterm/TTerm.c ****             }
 2776              		.loc 1 426 0
 2777 0278 3246     		mov	r2, r6
 2778 027a 2946     		mov	r1, r5
 425:..\common\tterm/TTerm.c ****                 TERM_sendVT100Code(handle, _VT100_CURSOR_BACK, 0);
 2779              		.loc 1 425 0
 2780 027c 013B     		subs	r3, r3, #1
 2781 027e A360     		str	r3, [r4, #8]
 2782              	.L527:
 426:..\common\tterm/TTerm.c ****             }
 2783              		.loc 1 426 0
 2784 0280 2046     		mov	r0, r4
 2785 0282 FFF7FEFF 		bl	TERM_sendVT100Code
 2786              	.LVL346:
 2787 0286 39E1     		b	.L366
 2788              	.LVL347:
 2789              	.L383:
 431:..\common\tterm/TTerm.c ****             
 2790              		.loc 1 431 0
 2791 0288 0121     		movs	r1, #1
 2792              	.LVL348:
 2793 028a 2046     		mov	r0, r4
 2794              	.LVL349:
 2795 028c FFF7FEFF 		bl	TERM_checkForCopy
 2796              	.LVL350:
ARM GAS  C:\Users\chemi\AppData\Local\Temp\cc0tO343.s 			page 74


 434:..\common\tterm/TTerm.c ****                 
 2797              		.loc 1 434 0
 2798 0290 0F21     		movs	r1, #15
 2799              	.L405:
 2800 0292 236F     		ldr	r3, [r4, #112]
 2801 0294 013B     		subs	r3, r3, #1
 2802 0296 0F2B     		cmp	r3, #15
 2803 0298 88BF     		it	hi
 2804 029a 0B46     		movhi	r3, r1
 436:..\common\tterm/TTerm.c ****                     break;
 2805              		.loc 1 436 0
 2806 029c 04EB8302 		add	r2, r4, r3, lsl #2
 2807 02a0 D06A     		ldr	r0, [r2, #44]
 434:..\common\tterm/TTerm.c ****                 
 2808              		.loc 1 434 0
 2809 02a2 2367     		str	r3, [r4, #112]
 2810 02a4 E26E     		ldr	r2, [r4, #108]
 436:..\common\tterm/TTerm.c ****                     break;
 2811              		.loc 1 436 0
 2812 02a6 A8B9     		cbnz	r0, .L543
 439:..\common\tterm/TTerm.c ****             
 2813              		.loc 1 439 0
 2814 02a8 9342     		cmp	r3, r2
 2815 02aa F2D1     		bne	.L405
 2816 02ac 12E0     		b	.L543
 2817              	.LVL351:
 2818              	.L382:
 453:..\common\tterm/TTerm.c ****             
 2819              		.loc 1 453 0
 2820 02ae 0121     		movs	r1, #1
 2821              	.LVL352:
 2822 02b0 2046     		mov	r0, r4
 2823              	.LVL353:
 2824 02b2 FFF7FEFF 		bl	TERM_checkForCopy
 2825              	.LVL354:
 455:..\common\tterm/TTerm.c ****                 if(++handle->currHistoryReadPosition >= TERM_HISTORYSIZE) handle->currHistoryReadPo
 2826              		.loc 1 455 0
 2827 02b6 E26E     		ldr	r2, [r4, #108]
 2828              	.L408:
 2829 02b8 236F     		ldr	r3, [r4, #112]
 2830 02ba 9342     		cmp	r3, r2
 2831 02bc 09D0     		beq	.L414
 456:..\common\tterm/TTerm.c ****                 
 2832              		.loc 1 456 0
 2833 02be 0133     		adds	r3, r3, #1
 2834 02c0 0F2B     		cmp	r3, #15
 2835 02c2 88BF     		it	hi
 2836 02c4 3346     		movhi	r3, r6
 2837 02c6 2367     		str	r3, [r4, #112]
 458:..\common\tterm/TTerm.c ****                     break;
 2838              		.loc 1 458 0
 2839 02c8 04EB8303 		add	r3, r4, r3, lsl #2
 2840 02cc DB6A     		ldr	r3, [r3, #44]
 2841 02ce 002B     		cmp	r3, #0
 2842 02d0 F2D0     		beq	.L408
 2843              	.L414:
 464:..\common\tterm/TTerm.c ****                 ttprintfEcho("\x07");   //rings a bell doesn't it?                                 
ARM GAS  C:\Users\chemi\AppData\Local\Temp\cc0tO343.s 			page 75


 2844              		.loc 1 464 0
 2845 02d2 236F     		ldr	r3, [r4, #112]
 2846              	.L543:
 2847 02d4 9A42     		cmp	r2, r3
 2848 02d6 7AD0     		beq	.L539
 469:..\common\tterm/TTerm.c ****                 ttprintfEcho("\r%s@%s>%s", handle->currUserName, TERM_DEVICE_NAME, handle->historyB
 2849              		.loc 1 469 0
 2850 02d8 0022     		movs	r2, #0
 2851 02da 0C21     		movs	r1, #12
 2852 02dc 2046     		mov	r0, r4
 2853 02de FFF7FEFF 		bl	TERM_sendVT100Code
 2854              	.LVL355:
 470:..\common\tterm/TTerm.c ****             }
 2855              		.loc 1 470 0
 2856 02e2 D4F88830 		ldr	r3, [r4, #136]
 2857 02e6 002B     		cmp	r3, #0
 2858 02e8 00F00881 		beq	.L366
 2859 02ec 236F     		ldr	r3, [r4, #112]
 2860 02ee 04EB8303 		add	r3, r4, r3, lsl #2
 2861 02f2 DB6A     		ldr	r3, [r3, #44]
 2862 02f4 7DE0     		b	.L530
 2863              	.L547:
 2864 02f6 00BF     		.align	2
 2865              	.L546:
 2866 02f8 1E020000 		.word	.LC55
 2867 02fc 00000000 		.word	.LC0
 2868 0300 04000000 		.word	.LC1
 2869 0304 21020000 		.word	.LC56
 2870 0308 29020000 		.word	.LC57
 2871 030c 2B020000 		.word	.LC58
 2872 0310 2E020000 		.word	.LC59
 2873              	.LVL356:
 2874              	.L372:
 475:..\common\tterm/TTerm.c ****             
 2875              		.loc 1 475 0
 2876 0314 0221     		movs	r1, #2
 2877              	.LVL357:
 2878 0316 2046     		mov	r0, r4
 2879              	.LVL358:
 2880 0318 FFF7FEFF 		bl	TERM_checkForCopy
 2881              	.LVL359:
 477:..\common\tterm/TTerm.c ****                 TERM_doAutoComplete(handle);
 2882              		.loc 1 477 0
 2883 031c A369     		ldr	r3, [r4, #24]
 2884 031e 13B9     		cbnz	r3, .L416
 478:..\common\tterm/TTerm.c ****             }
 2885              		.loc 1 478 0
 2886 0320 2046     		mov	r0, r4
 2887 0322 FFF7FEFF 		bl	TERM_doAutoComplete
 2888              	.LVL360:
 2889              	.L416:
 481:..\common\tterm/TTerm.c ****             
 2890              		.loc 1 481 0
 2891 0326 2369     		ldr	r3, [r4, #16]
 2892 0328 E269     		ldr	r2, [r4, #28]
 2893 032a 0133     		adds	r3, r3, #1
 2894 032c 9342     		cmp	r3, r2
ARM GAS  C:\Users\chemi\AppData\Local\Temp\cc0tO343.s 			page 76


 2895 032e 2361     		str	r3, [r4, #16]
 2896 0330 84BF     		itt	hi
 2897 0332 0023     		movhi	r3, #0
 2898 0334 2361     		strhi	r3, [r4, #16]
 483:..\common\tterm/TTerm.c ****                 ttprintfEcho("\x07");
 2899              		.loc 1 483 0
 2900 0336 2369     		ldr	r3, [r4, #16]
 2901 0338 002B     		cmp	r3, #0
 2902 033a 48D0     		beq	.L539
 2903              	.LBB76:
 488:..\common\tterm/TTerm.c ****                 unsigned printQuotationMarks = strchr(handle->autocompleteBuffer[handle->currAutoco
 2904              		.loc 1 488 0
 2905 033c 0022     		movs	r2, #0
 2906 033e 0C21     		movs	r1, #12
 2907 0340 2046     		mov	r0, r4
 2908 0342 FFF7FEFF 		bl	TERM_sendVT100Code
 2909              	.LVL361:
 489:..\common\tterm/TTerm.c ****                 
 2910              		.loc 1 489 0
 2911 0346 2369     		ldr	r3, [r4, #16]
 2912 0348 A269     		ldr	r2, [r4, #24]
 2913 034a 03F18043 		add	r3, r3, #1073741824
 2914 034e 013B     		subs	r3, r3, #1
 2915 0350 52F82350 		ldr	r5, [r2, r3, lsl #2]
 2916 0354 2021     		movs	r1, #32
 2917 0356 2846     		mov	r0, r5
 2918 0358 FFF7FEFF 		bl	strchr
 2919              	.LVL362:
 492:..\common\tterm/TTerm.c ****                     ttprintfEcho(printQuotationMarks ? "\r%s@%s>\"%s\"" : "\r%s@%s>%s", handle->cur
 2920              		.loc 1 492 0
 2921 035c 236A     		ldr	r3, [r4, #32]
 489:..\common\tterm/TTerm.c ****                 
 2922              		.loc 1 489 0
 2923 035e 0646     		mov	r6, r0
 2924              	.LVL363:
 2925 0360 D4F88820 		ldr	r2, [r4, #136]
 492:..\common\tterm/TTerm.c ****                     ttprintfEcho(printQuotationMarks ? "\r%s@%s>\"%s\"" : "\r%s@%s>%s", handle->cur
 2926              		.loc 1 492 0
 2927 0364 73B9     		cbnz	r3, .L420
 493:..\common\tterm/TTerm.c ****                 }else{
 2928              		.loc 1 493 0
 2929 0366 002A     		cmp	r2, #0
 2930 0368 00F0C880 		beq	.L366
 2931 036c 676A     		ldr	r7, [r4, #36]
 2932 036e 6068     		ldr	r0, [r4, #4]
 2933              	.LVL364:
 2934 0370 0095     		str	r5, [sp]
 2935 0372 A26A     		ldr	r2, [r4, #40]
 2936 0374 6349     		ldr	r1, .L548
 2937 0376 644C     		ldr	r4, .L548+4
 2938              	.LVL365:
 2939 0378 644B     		ldr	r3, .L548+8
 2940 037a 002E     		cmp	r6, #0
 2941 037c 18BF     		it	ne
 2942 037e 2146     		movne	r1, r4
 2943 0380 B847     		blx	r7
 2944              	.LVL366:
ARM GAS  C:\Users\chemi\AppData\Local\Temp\cc0tO343.s 			page 77


 2945 0382 BBE0     		b	.L366
 2946              	.LVL367:
 2947              	.L420:
 495:..\common\tterm/TTerm.c ****                 }
 2948              		.loc 1 495 0
 2949 0384 002A     		cmp	r2, #0
 2950 0386 00F0B980 		beq	.L366
 2951 038a 676A     		ldr	r7, [r4, #36]
 2952 038c 6068     		ldr	r0, [r4, #4]
 2953              	.LVL368:
 2954 038e 0295     		str	r5, [sp, #8]
 2955 0390 2268     		ldr	r2, [r4]
 2956 0392 0093     		str	r3, [sp]
 2957 0394 0192     		str	r2, [sp, #4]
 2958 0396 A26A     		ldr	r2, [r4, #40]
 2959 0398 5D49     		ldr	r1, .L548+12
 2960 039a 5E4C     		ldr	r4, .L548+16
 2961              	.LVL369:
 2962 039c 5B4B     		ldr	r3, .L548+8
 2963 039e 002E     		cmp	r6, #0
 2964 03a0 18BF     		it	ne
 2965 03a2 2146     		movne	r1, r4
 2966 03a4 B847     		blx	r7
 2967              	.LVL370:
 2968 03a6 A9E0     		b	.L366
 2969              	.LVL371:
 2970              	.L384:
 2971              	.LBE76:
 501:..\common\tterm/TTerm.c ****             
 2972              		.loc 1 501 0
 2973 03a8 0221     		movs	r1, #2
 2974              	.LVL372:
 2975 03aa 2046     		mov	r0, r4
 2976              	.LVL373:
 2977 03ac FFF7FEFF 		bl	TERM_checkForCopy
 2978              	.LVL374:
 503:..\common\tterm/TTerm.c ****                 TERM_doAutoComplete(handle);
 2979              		.loc 1 503 0
 2980 03b0 A369     		ldr	r3, [r4, #24]
 2981 03b2 13B9     		cbnz	r3, .L423
 504:..\common\tterm/TTerm.c ****             }
 2982              		.loc 1 504 0
 2983 03b4 2046     		mov	r0, r4
 2984 03b6 FFF7FEFF 		bl	TERM_doAutoComplete
 2985              	.LVL375:
 2986              	.L423:
 507:..\common\tterm/TTerm.c ****             
 2987              		.loc 1 507 0
 2988 03ba 2269     		ldr	r2, [r4, #16]
 2989 03bc E369     		ldr	r3, [r4, #28]
 2990 03be 013A     		subs	r2, r2, #1
 2991 03c0 013B     		subs	r3, r3, #1
 2992 03c2 9A42     		cmp	r2, r3
 2993 03c4 2261     		str	r2, [r4, #16]
 2994 03c6 88BF     		it	hi
 2995 03c8 2361     		strhi	r3, [r4, #16]
 509:..\common\tterm/TTerm.c ****                 ttprintfEcho("\x07");
ARM GAS  C:\Users\chemi\AppData\Local\Temp\cc0tO343.s 			page 78


 2996              		.loc 1 509 0
 2997 03ca 2369     		ldr	r3, [r4, #16]
 2998 03cc CBB9     		cbnz	r3, .L425
 2999              	.L539:
 510:..\common\tterm/TTerm.c ****                 TERM_sendVT100Code(handle, _VT100_ERASE_LINE, 0);
 3000              		.loc 1 510 0
 3001 03ce D4F88830 		ldr	r3, [r4, #136]
 3002 03d2 1BB1     		cbz	r3, .L426
 3003 03d4 636A     		ldr	r3, [r4, #36]
 3004 03d6 5049     		ldr	r1, .L548+20
 3005 03d8 6068     		ldr	r0, [r4, #4]
 3006 03da 9847     		blx	r3
 3007              	.LVL376:
 3008              	.L426:
 511:..\common\tterm/TTerm.c ****                 ttprintfEcho("\r%s@%s>%s", handle->currUserName, TERM_DEVICE_NAME, handle->inputBuf
 3009              		.loc 1 511 0
 3010 03dc 0022     		movs	r2, #0
 3011 03de 0C21     		movs	r1, #12
 3012 03e0 2046     		mov	r0, r4
 3013 03e2 FFF7FEFF 		bl	TERM_sendVT100Code
 3014              	.LVL377:
 512:..\common\tterm/TTerm.c ****             }else{
 3015              		.loc 1 512 0
 3016 03e6 D4F88830 		ldr	r3, [r4, #136]
 3017 03ea 002B     		cmp	r3, #0
 3018 03ec 00F08680 		beq	.L366
 3019 03f0 2368     		ldr	r3, [r4]
 3020              	.L530:
 3021 03f2 0093     		str	r3, [sp]
 3022 03f4 656A     		ldr	r5, [r4, #36]
 3023 03f6 454B     		ldr	r3, .L548+8
 3024 03f8 A26A     		ldr	r2, [r4, #40]
 3025 03fa 4249     		ldr	r1, .L548
 3026 03fc 6068     		ldr	r0, [r4, #4]
 3027 03fe A847     		blx	r5
 3028              	.LVL378:
 3029 0400 7CE0     		b	.L366
 3030              	.L425:
 3031              	.LBB77:
 514:..\common\tterm/TTerm.c ****                 unsigned printQuotationMarks = strchr(handle->autocompleteBuffer[handle->currAutoco
 3032              		.loc 1 514 0
 3033 0402 0022     		movs	r2, #0
 3034 0404 0C21     		movs	r1, #12
 3035 0406 2046     		mov	r0, r4
 3036 0408 FFF7FEFF 		bl	TERM_sendVT100Code
 3037              	.LVL379:
 515:..\common\tterm/TTerm.c ****                 ttprintfEcho(printQuotationMarks ? "\r%s@%s>%.*s\"%s\"" : "\r%s@%s>%.*s%s", handle-
 3038              		.loc 1 515 0
 3039 040c 2369     		ldr	r3, [r4, #16]
 3040 040e A269     		ldr	r2, [r4, #24]
 3041 0410 03F18043 		add	r3, r3, #1073741824
 3042 0414 013B     		subs	r3, r3, #1
 3043 0416 52F82350 		ldr	r5, [r2, r3, lsl #2]
 3044 041a 2021     		movs	r1, #32
 3045 041c 2846     		mov	r0, r5
 3046 041e FFF7FEFF 		bl	strchr
 3047              	.LVL380:
ARM GAS  C:\Users\chemi\AppData\Local\Temp\cc0tO343.s 			page 79


 516:..\common\tterm/TTerm.c ****             }
 3048              		.loc 1 516 0
 3049 0422 D4F88830 		ldr	r3, [r4, #136]
 515:..\common\tterm/TTerm.c ****                 ttprintfEcho(printQuotationMarks ? "\r%s@%s>%.*s\"%s\"" : "\r%s@%s>%.*s%s", handle-
 3050              		.loc 1 515 0
 3051 0426 0746     		mov	r7, r0
 3052              	.LVL381:
 516:..\common\tterm/TTerm.c ****             }
 3053              		.loc 1 516 0
 3054 0428 002B     		cmp	r3, #0
 3055 042a 67D0     		beq	.L366
 3056 042c 666A     		ldr	r6, [r4, #36]
 3057 042e 6068     		ldr	r0, [r4, #4]
 3058              	.LVL382:
 3059 0430 0295     		str	r5, [sp, #8]
 3060 0432 2368     		ldr	r3, [r4]
 3061 0434 3749     		ldr	r1, .L548+16
 3062 0436 0193     		str	r3, [sp, #4]
 3063 0438 236A     		ldr	r3, [r4, #32]
 3064 043a 0093     		str	r3, [sp]
 3065 043c A26A     		ldr	r2, [r4, #40]
 3066 043e 344C     		ldr	r4, .L548+12
 3067              	.LVL383:
 3068 0440 324B     		ldr	r3, .L548+8
 3069 0442 002F     		cmp	r7, #0
 3070 0444 08BF     		it	eq
 3071 0446 2146     		moveq	r1, r4
 3072 0448 B047     		blx	r6
 3073              	.LVL384:
 3074 044a 57E0     		b	.L366
 3075              	.LVL385:
 3076              	.L368:
 3077              	.LBE77:
 521:..\common\tterm/TTerm.c ****             break;
 3078              		.loc 1 521 0
 3079 044c 0846     		mov	r0, r1
 3080              	.LVL386:
 3081 044e FFF7FEFF 		bl	TERM_printBootMessage
 3082              	.LVL387:
 3083 0452 53E0     		b	.L366
 3084              	.LVL388:
 3085              	.L375:
 525:..\common\tterm/TTerm.c **** 
 3086              		.loc 1 525 0
 3087 0454 0321     		movs	r1, #3
 3088              	.LVL389:
 3089 0456 2046     		mov	r0, r4
 3090              	.LVL390:
 3091 0458 FFF7FEFF 		bl	TERM_checkForCopy
 3092              	.LVL391:
 529:..\common\tterm/TTerm.c **** 				strsft(handle->inputBuffer, handle->currBufferPosition, 1);
 3093              		.loc 1 529 0
 3094 045c 2068     		ldr	r0, [r4]
 3095 045e A168     		ldr	r1, [r4, #8]
 3096 0460 435C     		ldrb	r3, [r0, r1]	@ zero_extendqisi2
 3097 0462 33B3     		cbz	r3, .L428
 3098 0464 E368     		ldr	r3, [r4, #12]
ARM GAS  C:\Users\chemi\AppData\Local\Temp\cc0tO343.s 			page 80


 3099 0466 7D2B     		cmp	r3, #125
 3100 0468 23D8     		bhi	.L428
 530:..\common\tterm/TTerm.c **** 				handle->inputBuffer[handle->currBufferPosition] = c;
 3101              		.loc 1 530 0
 3102 046a 0122     		movs	r2, #1
 3103 046c FFF7FEFF 		bl	strsft
 3104              	.LVL392:
 531:..\common\tterm/TTerm.c **** 				TERM_sendVT100Code(handle, _VT100_ERASE_LINE_END, 0);
 3105              		.loc 1 531 0
 3106 0470 2268     		ldr	r2, [r4]
 3107 0472 A368     		ldr	r3, [r4, #8]
 532:..\common\tterm/TTerm.c **** 				ttprintfEcho("%s", &handle->inputBuffer[handle->currBufferPosition]);
 3108              		.loc 1 532 0
 3109 0474 1121     		movs	r1, #17
 531:..\common\tterm/TTerm.c **** 				TERM_sendVT100Code(handle, _VT100_ERASE_LINE_END, 0);
 3110              		.loc 1 531 0
 3111 0476 D554     		strb	r5, [r2, r3]
 532:..\common\tterm/TTerm.c **** 				ttprintfEcho("%s", &handle->inputBuffer[handle->currBufferPosition]);
 3112              		.loc 1 532 0
 3113 0478 2046     		mov	r0, r4
 3114 047a 3246     		mov	r2, r6
 3115 047c FFF7FEFF 		bl	TERM_sendVT100Code
 3116              	.LVL393:
 533:..\common\tterm/TTerm.c **** 				TERM_sendVT100Code(handle, _VT100_CURSOR_BACK_BY, handle->currBufferLength - handle->currBuffer
 3117              		.loc 1 533 0
 3118 0480 D4F88830 		ldr	r3, [r4, #136]
 3119 0484 33B1     		cbz	r3, .L429
 3120 0486 2168     		ldr	r1, [r4]
 3121 0488 A268     		ldr	r2, [r4, #8]
 3122 048a 636A     		ldr	r3, [r4, #36]
 3123 048c 0A44     		add	r2, r2, r1
 3124 048e 6068     		ldr	r0, [r4, #4]
 3125 0490 2249     		ldr	r1, .L548+24
 3126 0492 9847     		blx	r3
 3127              	.LVL394:
 3128              	.L429:
 534:..\common\tterm/TTerm.c **** 				handle->currBufferLength ++;
 3129              		.loc 1 534 0
 3130 0494 E368     		ldr	r3, [r4, #12]
 3131 0496 A268     		ldr	r2, [r4, #8]
 3132 0498 1221     		movs	r1, #18
 3133 049a 9A1A     		subs	r2, r3, r2
 3134 049c D2B2     		uxtb	r2, r2
 3135 049e 2046     		mov	r0, r4
 3136 04a0 FFF7FEFF 		bl	TERM_sendVT100Code
 3137              	.LVL395:
 535:..\common\tterm/TTerm.c **** 				handle->currBufferPosition ++;
 3138              		.loc 1 535 0
 3139 04a4 E368     		ldr	r3, [r4, #12]
 3140 04a6 0133     		adds	r3, r3, #1
 3141 04a8 E360     		str	r3, [r4, #12]
 536:..\common\tterm/TTerm.c **** 			}else{
 3142              		.loc 1 536 0
 3143 04aa A368     		ldr	r3, [r4, #8]
 3144 04ac 0133     		adds	r3, r3, #1
 3145 04ae A360     		str	r3, [r4, #8]
 3146 04b0 14E0     		b	.L430
ARM GAS  C:\Users\chemi\AppData\Local\Temp\cc0tO343.s 			page 81


 3147              	.L428:
 540:..\common\tterm/TTerm.c **** 				handle->inputBuffer[handle->currBufferPosition] = 0;
 3148              		.loc 1 540 0
 3149 04b2 4B1C     		adds	r3, r1, #1
 3150 04b4 A360     		str	r3, [r4, #8]
 3151 04b6 4554     		strb	r5, [r0, r1]
 541:..\common\tterm/TTerm.c **** 				handle->currBufferLength ++;
 3152              		.loc 1 541 0
 3153 04b8 A368     		ldr	r3, [r4, #8]
 3154 04ba 2268     		ldr	r2, [r4]
 3155 04bc 0021     		movs	r1, #0
 3156 04be D154     		strb	r1, [r2, r3]
 542:..\common\tterm/TTerm.c **** 				if(handle->currBufferPosition < TERM_INPUTBUFFER_SIZE -1){
 3157              		.loc 1 542 0
 3158 04c0 E368     		ldr	r3, [r4, #12]
 3159 04c2 0133     		adds	r3, r3, #1
 3160 04c4 E360     		str	r3, [r4, #12]
 543:..\common\tterm/TTerm.c **** 					ttprintfEcho("%c", c);
 3161              		.loc 1 543 0
 3162 04c6 A368     		ldr	r3, [r4, #8]
 3163 04c8 7E2B     		cmp	r3, #126
 3164 04ca 07D8     		bhi	.L430
 544:..\common\tterm/TTerm.c **** 				}
 3165              		.loc 1 544 0
 3166 04cc D4F88830 		ldr	r3, [r4, #136]
 3167 04d0 23B1     		cbz	r3, .L430
 3168 04d2 636A     		ldr	r3, [r4, #36]
 3169 04d4 2A46     		mov	r2, r5
 3170 04d6 1249     		ldr	r1, .L548+28
 3171 04d8 6068     		ldr	r0, [r4, #4]
 3172 04da 9847     		blx	r3
 3173              	.LVL396:
 3174              	.L430:
 549:..\common\tterm/TTerm.c **** 				handle->currBufferPosition = TERM_INPUTBUFFER_SIZE -2;
 3175              		.loc 1 549 0
 3176 04dc A368     		ldr	r3, [r4, #8]
 3177 04de 7E2B     		cmp	r3, #126
 550:..\common\tterm/TTerm.c **** 			}
 3178              		.loc 1 550 0
 3179 04e0 84BF     		itt	hi
 3180 04e2 7E23     		movhi	r3, #126
 3181 04e4 A360     		strhi	r3, [r4, #8]
 552:..\common\tterm/TTerm.c **** 				handle->currBufferLength = TERM_INPUTBUFFER_SIZE -2;
 3182              		.loc 1 552 0
 3183 04e6 E368     		ldr	r3, [r4, #12]
 3184 04e8 7E2B     		cmp	r3, #126
 3185 04ea 07D9     		bls	.L366
 553:..\common\tterm/TTerm.c **** 			}
 3186              		.loc 1 553 0
 3187 04ec 7E23     		movs	r3, #126
 3188              	.L528:
 3189 04ee E360     		str	r3, [r4, #12]
 3190 04f0 04E0     		b	.L366
 3191              	.LVL397:
 3192              	.L367:
 559:..\common\tterm/TTerm.c ****             break;
 3193              		.loc 1 559 0
ARM GAS  C:\Users\chemi\AppData\Local\Temp\cc0tO343.s 			page 82


 3194 04f2 2A46     		mov	r2, r5
 3195 04f4 0B49     		ldr	r1, .L548+32
 3196              	.LVL398:
 3197 04f6 2046     		mov	r0, r4
 3198              	.LVL399:
 3199 04f8 FFF7FEFF 		bl	TERM_printDebug
 3200              	.LVL400:
 3201              	.L366:
 3202              	.LBE71:
 3203              	.LBE70:
 563:..\common\tterm/TTerm.c **** 
 3204              		.loc 1 563 0
 3205 04fc 0120     		movs	r0, #1
 3206 04fe 05B0     		add	sp, sp, #20
 3207              		.cfi_def_cfa_offset 20
 3208              		@ sp needed
 3209 0500 F0BD     		pop	{r4, r5, r6, r7, pc}
 3210              	.L549:
 3211 0502 00BF     		.align	2
 3212              	.L548:
 3213 0504 F6010000 		.word	.LC52
 3214 0508 EA010000 		.word	.LC51
 3215 050c 00000000 		.word	.LC0
 3216 0510 10020000 		.word	.LC54
 3217 0514 00020000 		.word	.LC53
 3218 0518 32020000 		.word	.LC60
 3219 051c 2B020000 		.word	.LC58
 3220 0520 34020000 		.word	.LC61
 3221 0524 37020000 		.word	.LC62
 3222              		.cfi_endproc
 3223              	.LFE78:
 3224              		.size	TERM_handleInput, .-TERM_handleInput
 3225              		.section	.text.TERM_processBuffer,"ax",%progbits
 3226              		.align	1
 3227              		.global	TERM_processBuffer
 3228              		.thumb
 3229              		.thumb_func
 3230              		.type	TERM_processBuffer, %function
 3231              	TERM_processBuffer:
 3232              	.LFB72:
 154:..\common\tterm/TTerm.c ****     uint16_t currPos = 0;
 3233              		.loc 1 154 0
 3234              		.cfi_startproc
 3235              		@ args = 0, pretend = 0, frame = 0
 3236              		@ frame_needed = 0, uses_anonymous_args = 0
 3237              	.LVL401:
 3238 0000 2DE9F843 		push	{r3, r4, r5, r6, r7, r8, r9, lr}
 3239              		.cfi_def_cfa_offset 32
 3240              		.cfi_offset 3, -32
 3241              		.cfi_offset 4, -28
 3242              		.cfi_offset 5, -24
 3243              		.cfi_offset 6, -20
 3244              		.cfi_offset 7, -16
 3245              		.cfi_offset 8, -12
 3246              		.cfi_offset 9, -8
 3247              		.cfi_offset 14, -4
 154:..\common\tterm/TTerm.c ****     uint16_t currPos = 0;
ARM GAS  C:\Users\chemi\AppData\Local\Temp\cc0tO343.s 			page 83


 3248              		.loc 1 154 0
 3249 0004 8846     		mov	r8, r1
 3250 0006 1446     		mov	r4, r2
 3251 0008 0546     		mov	r5, r0
 3252 000a 00EB0109 		add	r9, r0, r1
 253:..\common\tterm/TTerm.c **** 				}else{
 3253              		.loc 1 253 0
 3254 000e 0026     		movs	r6, #0
 246:..\common\tterm/TTerm.c **** 					}else{
 3255              		.loc 1 246 0
 3256 0010 FF27     		movs	r7, #255
 3257              	.LVL402:
 3258              	.L551:
 156:..\common\tterm/TTerm.c **** 
 3259              		.loc 1 156 0 discriminator 1
 3260 0012 4D45     		cmp	r5, r9
 3261 0014 00F0A280 		beq	.L596
 158:..\common\tterm/TTerm.c ****     		TERM_handleInput(data[currPos], handle);
 3262              		.loc 1 158 0
 3263 0018 6369     		ldr	r3, [r4, #20]
 3264 001a 13B1     		cbz	r3, .L552
 158:..\common\tterm/TTerm.c ****     		TERM_handleInput(data[currPos], handle);
 3265              		.loc 1 158 0 is_stmt 0 discriminator 1
 3266 001c 1B7A     		ldrb	r3, [r3, #8]	@ zero_extendqisi2
 3267 001e 012B     		cmp	r3, #1
 3268 0020 1ED0     		beq	.L595
 3269              	.L552:
 162:..\common\tterm/TTerm.c **** 				if(handle->currEscSeqPos == 0){
 3270              		.loc 1 162 0 is_stmt 1
 3271 0022 94F87420 		ldrb	r2, [r4, #116]	@ zero_extendqisi2
 3272 0026 FF2A     		cmp	r2, #255
 3273 0028 00F08D80 		beq	.L554
 163:..\common\tterm/TTerm.c **** 					if(data[currPos] == '['){
 3274              		.loc 1 163 0
 3275 002c DAB9     		cbnz	r2, .L555
 164:..\common\tterm/TTerm.c **** 						if(handle->currEscSeqPos < TTERM_ESC_SEQ_BUFFER_SIZE){
 3276              		.loc 1 164 0
 3277 002e 2B78     		ldrb	r3, [r5]	@ zero_extendqisi2
 3278 0030 5B2B     		cmp	r3, #91
 3279 0032 05D1     		bne	.L556
 166:..\common\tterm/TTerm.c **** 							handle->currEscSeqPos++;
 3280              		.loc 1 166 0
 3281 0034 84F87530 		strb	r3, [r4, #117]
 167:..\common\tterm/TTerm.c **** 						}
 3282              		.loc 1 167 0
 3283 0038 0123     		movs	r3, #1
 3284 003a 84F87430 		strb	r3, [r4, #116]
 3285 003e 8BE0     		b	.L553
 3286              	.L556:
 170:..\common\tterm/TTerm.c **** 							case 'c':
 3287              		.loc 1 170 0
 3288 0040 1B2B     		cmp	r3, #27
 3289 0042 07D0     		beq	.L558
 3290 0044 632B     		cmp	r3, #99
 172:..\common\tterm/TTerm.c **** 								TERM_handleInput(_VT100_RESET, handle);
 3291              		.loc 1 172 0
 3292 0046 84F87470 		strb	r7, [r4, #116]
ARM GAS  C:\Users\chemi\AppData\Local\Temp\cc0tO343.s 			page 84


 173:..\common\tterm/TTerm.c **** 								break;
 3293              		.loc 1 173 0
 3294 004a 2146     		mov	r1, r4
 170:..\common\tterm/TTerm.c **** 							case 'c':
 3295              		.loc 1 170 0
 3296 004c 05D1     		bne	.L589
 3297              	.LVL403:
 173:..\common\tterm/TTerm.c **** 								break;
 3298              		.loc 1 173 0
 3299 004e 4FF48050 		mov	r0, #4096
 3300 0052 7FE0     		b	.L594
 3301              	.LVL404:
 3302              	.L558:
 176:..\common\tterm/TTerm.c **** 								break;
 3303              		.loc 1 176 0
 3304 0054 84F87420 		strb	r2, [r4, #116]
 177:..\common\tterm/TTerm.c **** 							default:
 3305              		.loc 1 177 0
 3306 0058 7EE0     		b	.L553
 3307              	.LVL405:
 3308              	.L589:
 180:..\common\tterm/TTerm.c **** 								TERM_handleInput(data[currPos], handle);
 3309              		.loc 1 180 0
 3310 005a 1B20     		movs	r0, #27
 3311 005c FFF7FEFF 		bl	TERM_handleInput
 3312              	.LVL406:
 3313              	.L595:
 181:..\common\tterm/TTerm.c **** 								break;
 3314              		.loc 1 181 0
 3315 0060 2146     		mov	r1, r4
 3316 0062 2878     		ldrb	r0, [r5]	@ zero_extendqisi2
 3317 0064 76E0     		b	.L594
 3318              	.L555:
 186:..\common\tterm/TTerm.c **** 						if(data[currPos] == 'n'){
 3319              		.loc 1 186 0
 3320 0066 2978     		ldrb	r1, [r5]	@ zero_extendqisi2
 3321 0068 0846     		mov	r0, r1
 3322 006a FFF7FEFF 		bl	isACIILetter
 3323              	.LVL407:
 3324 006e 0028     		cmp	r0, #0
 3325 0070 61D0     		beq	.L560
 187:..\common\tterm/TTerm.c **** 							if(handle->currEscSeqPos == 2){
 3326              		.loc 1 187 0
 3327 0072 6E29     		cmp	r1, #110
 3328 0074 5CD0     		beq	.L561
 193:..\common\tterm/TTerm.c **** 							if(handle->currEscSeqPos == 1){              //Query device code
 3329              		.loc 1 193 0
 3330 0076 6329     		cmp	r1, #99
 3331 0078 5AD0     		beq	.L561
 196:..\common\tterm/TTerm.c **** 							if(handle->currEscSeqPos == 1){              //end
 3332              		.loc 1 196 0
 3333 007a 4629     		cmp	r1, #70
 3334 007c 05D1     		bne	.L562
 197:..\common\tterm/TTerm.c **** 								TERM_handleInput(_VT100_KEY_END, handle);
 3335              		.loc 1 197 0
 3336 007e 012A     		cmp	r2, #1
 3337 0080 56D1     		bne	.L561
ARM GAS  C:\Users\chemi\AppData\Local\Temp\cc0tO343.s 			page 85


 198:..\common\tterm/TTerm.c **** 							}
 3338              		.loc 1 198 0
 3339 0082 2146     		mov	r1, r4
 3340 0084 41F20100 		movw	r0, #4097
 3341 0088 49E0     		b	.L590
 3342              	.L562:
 200:..\common\tterm/TTerm.c **** 							if(handle->currEscSeqPos == 1){              //pos1
 3343              		.loc 1 200 0
 3344 008a 4829     		cmp	r1, #72
 3345 008c 05D1     		bne	.L563
 201:..\common\tterm/TTerm.c **** 								TERM_handleInput(_VT100_KEY_POS1, handle);
 3346              		.loc 1 201 0
 3347 008e 012A     		cmp	r2, #1
 3348 0090 4ED1     		bne	.L561
 202:..\common\tterm/TTerm.c **** 							}
 3349              		.loc 1 202 0
 3350 0092 2146     		mov	r1, r4
 3351 0094 41F20200 		movw	r0, #4098
 3352 0098 41E0     		b	.L590
 3353              	.L563:
 204:..\common\tterm/TTerm.c **** 							if(handle->currEscSeqPos > 1){
 3354              		.loc 1 204 0
 3355 009a 4329     		cmp	r1, #67
 3356 009c 05D1     		bne	.L564
 205:..\common\tterm/TTerm.c **** 								handle->escSeqBuff[handle->currEscSeqPos] = 0;
 3357              		.loc 1 205 0
 3358 009e 012A     		cmp	r2, #1
 3359 00a0 17D1     		bne	.L593
 208:..\common\tterm/TTerm.c **** 							}
 3360              		.loc 1 208 0
 3361 00a2 2146     		mov	r1, r4
 3362 00a4 41F20300 		movw	r0, #4099
 3363 00a8 39E0     		b	.L590
 3364              	.L564:
 210:..\common\tterm/TTerm.c **** 							if(handle->currEscSeqPos > 1){
 3365              		.loc 1 210 0
 3366 00aa 4429     		cmp	r1, #68
 3367 00ac 05D1     		bne	.L566
 211:..\common\tterm/TTerm.c **** 								handle->escSeqBuff[handle->currEscSeqPos] = 0;
 3368              		.loc 1 211 0
 3369 00ae 012A     		cmp	r2, #1
 3370 00b0 0FD1     		bne	.L593
 214:..\common\tterm/TTerm.c **** 							}
 3371              		.loc 1 214 0
 3372 00b2 2146     		mov	r1, r4
 3373 00b4 41F20400 		movw	r0, #4100
 3374 00b8 31E0     		b	.L590
 3375              	.L566:
 216:..\common\tterm/TTerm.c **** 							if(handle->currEscSeqPos > 1){
 3376              		.loc 1 216 0
 3377 00ba 4129     		cmp	r1, #65
 3378 00bc 05D1     		bne	.L568
 217:..\common\tterm/TTerm.c **** 								handle->escSeqBuff[handle->currEscSeqPos] = 0;
 3379              		.loc 1 217 0
 3380 00be 012A     		cmp	r2, #1
 3381 00c0 07D1     		bne	.L593
 220:..\common\tterm/TTerm.c **** 							}
ARM GAS  C:\Users\chemi\AppData\Local\Temp\cc0tO343.s 			page 86


 3382              		.loc 1 220 0
 3383 00c2 2146     		mov	r1, r4
 3384 00c4 41F20500 		movw	r0, #4101
 3385 00c8 29E0     		b	.L590
 3386              	.L568:
 222:..\common\tterm/TTerm.c **** 							if(handle->currEscSeqPos > 1){
 3387              		.loc 1 222 0
 3388 00ca 4229     		cmp	r1, #66
 3389 00cc 09D1     		bne	.L570
 223:..\common\tterm/TTerm.c **** 								handle->escSeqBuff[handle->currEscSeqPos] = 0;
 3390              		.loc 1 223 0
 3391 00ce 012A     		cmp	r2, #1
 3392 00d0 03D0     		beq	.L571
 3393              	.L593:
 224:..\common\tterm/TTerm.c **** 							}else{
 3394              		.loc 1 224 0
 3395 00d2 2244     		add	r2, r2, r4
 3396 00d4 82F87560 		strb	r6, [r2, #117]
 3397 00d8 2AE0     		b	.L561
 3398              	.L571:
 226:..\common\tterm/TTerm.c **** 							}
 3399              		.loc 1 226 0
 3400 00da 2146     		mov	r1, r4
 3401 00dc 41F20600 		movw	r0, #4102
 3402 00e0 1DE0     		b	.L590
 3403              	.L570:
 228:..\common\tterm/TTerm.c **** 							TERM_handleInput(_VT100_BACKWARDS_TAB, handle);
 3404              		.loc 1 228 0
 3405 00e2 5A29     		cmp	r1, #90
 3406 00e4 03D1     		bne	.L572
 229:..\common\tterm/TTerm.c **** 
 3407              		.loc 1 229 0
 3408 00e6 2146     		mov	r1, r4
 3409 00e8 41F20700 		movw	r0, #4103
 3410 00ec 17E0     		b	.L590
 3411              	.L572:
 231:..\common\tterm/TTerm.c **** 							if(handle->escSeqBuff[1] == 0x32){            //insert
 3412              		.loc 1 231 0
 3413 00ee 7E29     		cmp	r1, #126
 3414 00f0 1BD1     		bne	.L573
 232:..\common\tterm/TTerm.c **** 								TERM_handleInput(_VT100_KEY_INS, handle);
 3415              		.loc 1 232 0
 3416 00f2 94F87630 		ldrb	r3, [r4, #118]	@ zero_extendqisi2
 233:..\common\tterm/TTerm.c **** 							}else if(handle->escSeqBuff[1] == 0x33){      //delete
 3417              		.loc 1 233 0
 3418 00f6 2146     		mov	r1, r4
 232:..\common\tterm/TTerm.c **** 								TERM_handleInput(_VT100_KEY_INS, handle);
 3419              		.loc 1 232 0
 3420 00f8 322B     		cmp	r3, #50
 3421 00fa 02D1     		bne	.L574
 3422              	.LVL408:
 233:..\common\tterm/TTerm.c **** 							}else if(handle->escSeqBuff[1] == 0x33){      //delete
 3423              		.loc 1 233 0
 3424 00fc 41F20900 		movw	r0, #4105
 3425 0100 0DE0     		b	.L590
 3426              	.L574:
 234:..\common\tterm/TTerm.c **** 								TERM_handleInput(_VT100_KEY_DEL, handle);
ARM GAS  C:\Users\chemi\AppData\Local\Temp\cc0tO343.s 			page 87


 3427              		.loc 1 234 0
 3428 0102 332B     		cmp	r3, #51
 3429 0104 02D1     		bne	.L575
 235:..\common\tterm/TTerm.c **** 							}else if(handle->escSeqBuff[1] == 0x35){      //page up
 3430              		.loc 1 235 0
 3431 0106 41F20800 		movw	r0, #4104
 3432 010a 08E0     		b	.L590
 3433              	.L575:
 236:..\common\tterm/TTerm.c **** 								TERM_handleInput(_VT100_KEY_PAGE_UP, handle);
 3434              		.loc 1 236 0
 3435 010c 352B     		cmp	r3, #53
 3436 010e 02D1     		bne	.L576
 237:..\common\tterm/TTerm.c **** 							}else if(handle->escSeqBuff[1] == 0x36){      //page down
 3437              		.loc 1 237 0
 3438 0110 41F20A00 		movw	r0, #4106
 3439 0114 03E0     		b	.L590
 3440              	.L576:
 238:..\common\tterm/TTerm.c **** 								TERM_handleInput(_VT100_KEY_PAGE_DOWN, handle);
 3441              		.loc 1 238 0
 3442 0116 362B     		cmp	r3, #54
 3443 0118 04D1     		bne	.L577
 239:..\common\tterm/TTerm.c **** 							}else{
 3444              		.loc 1 239 0
 3445 011a 41F20B00 		movw	r0, #4107
 3446              	.L590:
 3447 011e FFF7FEFF 		bl	TERM_handleInput
 3448              	.LVL409:
 3449 0122 05E0     		b	.L561
 3450              	.LVL410:
 3451              	.L577:
 241:..\common\tterm/TTerm.c **** 							}
 3452              		.loc 1 241 0
 3453 0124 4FF6FF70 		movw	r0, #65535
 3454 0128 F9E7     		b	.L590
 3455              	.LVL411:
 3456              	.L573:
 244:..\common\tterm/TTerm.c **** 						}
 3457              		.loc 1 244 0
 3458 012a 2244     		add	r2, r2, r4
 3459 012c 82F87660 		strb	r6, [r2, #118]
 3460              	.L561:
 246:..\common\tterm/TTerm.c **** 					}else{
 3461              		.loc 1 246 0
 3462 0130 84F87470 		strb	r7, [r4, #116]
 3463 0134 10E0     		b	.L553
 3464              	.L560:
 248:..\common\tterm/TTerm.c **** 					}
 3465              		.loc 1 248 0
 3466 0136 531C     		adds	r3, r2, #1
 3467 0138 84F87430 		strb	r3, [r4, #116]
 3468 013c 2B78     		ldrb	r3, [r5]	@ zero_extendqisi2
 3469 013e 2244     		add	r2, r2, r4
 3470 0140 82F87530 		strb	r3, [r2, #117]
 3471 0144 08E0     		b	.L553
 3472              	.L554:
 252:..\common\tterm/TTerm.c **** 					handle->currEscSeqPos = 0;
 3473              		.loc 1 252 0
ARM GAS  C:\Users\chemi\AppData\Local\Temp\cc0tO343.s 			page 88


 3474 0146 2878     		ldrb	r0, [r5]	@ zero_extendqisi2
 3475 0148 1B28     		cmp	r0, #27
 3476 014a 02D1     		bne	.L578
 253:..\common\tterm/TTerm.c **** 				}else{
 3477              		.loc 1 253 0
 3478 014c 84F87460 		strb	r6, [r4, #116]
 3479 0150 02E0     		b	.L553
 3480              	.L578:
 255:..\common\tterm/TTerm.c **** 				}
 3481              		.loc 1 255 0
 3482 0152 2146     		mov	r1, r4
 3483              	.LVL412:
 3484              	.L594:
 3485 0154 FFF7FEFF 		bl	TERM_handleInput
 3486              	.LVL413:
 3487              	.L553:
 3488 0158 0135     		adds	r5, r5, #1
 3489              	.LVL414:
 3490 015a 5AE7     		b	.L551
 3491              	.LVL415:
 3492              	.L596:
 261:..\common\tterm/TTerm.c **** 
 3493              		.loc 1 261 0
 3494 015c 5FFA88F0 		uxtb	r0, r8
 3495 0160 BDE8F883 		pop	{r3, r4, r5, r6, r7, r8, r9, pc}
 3496              		.cfi_endproc
 3497              	.LFE72:
 3498              		.size	TERM_processBuffer, .-TERM_processBuffer
 3499              		.section	.text.TERM_Box,"ax",%progbits
 3500              		.align	1
 3501              		.global	TERM_Box
 3502              		.thumb
 3503              		.thumb_func
 3504              		.type	TERM_Box, %function
 3505              	TERM_Box:
 3506              	.LFB91:
 880:..\common\tterm/TTerm.c **** 	TERM_setCursorPos(handle, row1, col1);
 3507              		.loc 1 880 0
 3508              		.cfi_startproc
 3509              		@ args = 4, pretend = 0, frame = 8
 3510              		@ frame_needed = 0, uses_anonymous_args = 0
 3511              	.LVL416:
 3512 0000 2DE9F74F 		push	{r0, r1, r2, r4, r5, r6, r7, r8, r9, r10, fp, lr}
 3513              		.cfi_def_cfa_offset 48
 3514              		.cfi_offset 4, -36
 3515              		.cfi_offset 5, -32
 3516              		.cfi_offset 6, -28
 3517              		.cfi_offset 7, -24
 3518              		.cfi_offset 8, -20
 3519              		.cfi_offset 9, -16
 3520              		.cfi_offset 10, -12
 3521              		.cfi_offset 11, -8
 3522              		.cfi_offset 14, -4
 880:..\common\tterm/TTerm.c **** 	TERM_setCursorPos(handle, row1, col1);
 3523              		.loc 1 880 0
 3524 0004 0446     		mov	r4, r0
 881:..\common\tterm/TTerm.c **** 	TERM_sendVT100Code(handle, _VT100_BACKGROUND_COLOR, _VT100_BLUE);
ARM GAS  C:\Users\chemi\AppData\Local\Temp\cc0tO343.s 			page 89


 3525              		.loc 1 881 0
 3526 0006 1FFA81FB 		uxth	fp, r1
 3527 000a 1FFA82F9 		uxth	r9, r2
 880:..\common\tterm/TTerm.c **** 	TERM_setCursorPos(handle, row1, col1);
 3528              		.loc 1 880 0
 3529 000e 1546     		mov	r5, r2
 3530 0010 0E46     		mov	r6, r1
 881:..\common\tterm/TTerm.c **** 	TERM_sendVT100Code(handle, _VT100_BACKGROUND_COLOR, _VT100_BLUE);
 3531              		.loc 1 881 0
 3532 0012 4A46     		mov	r2, r9
 3533              	.LVL417:
 3534 0014 5946     		mov	r1, fp
 3535              	.LVL418:
 880:..\common\tterm/TTerm.c **** 	TERM_setCursorPos(handle, row1, col1);
 3536              		.loc 1 880 0
 3537 0016 9A46     		mov	r10, r3
 3538 0018 9DF83080 		ldrb	r8, [sp, #48]	@ zero_extendqisi2
 881:..\common\tterm/TTerm.c **** 	TERM_sendVT100Code(handle, _VT100_BACKGROUND_COLOR, _VT100_BLUE);
 3539              		.loc 1 881 0
 3540 001c FFF7FEFF 		bl	TERM_setCursorPos
 3541              	.LVL419:
 882:..\common\tterm/TTerm.c **** 	ttprintf("\xE2\x95\x94"); //edge upper left
 3542              		.loc 1 882 0
 3543 0020 0422     		movs	r2, #4
 3544 0022 0321     		movs	r1, #3
 3545 0024 2046     		mov	r0, r4
 3546 0026 FFF7FEFF 		bl	TERM_sendVT100Code
 3547              	.LVL420:
 883:..\common\tterm/TTerm.c **** 	int i = 0;
 3548              		.loc 1 883 0
 3549 002a 636A     		ldr	r3, [r4, #36]
 3550 002c 2649     		ldr	r1, .L607
 3551 002e 6068     		ldr	r0, [r4, #4]
 3552 0030 9847     		blx	r3
 3553              	.LVL421:
 885:..\common\tterm/TTerm.c **** 		ttprintf("\xE2\x95\x90"); //=
 3554              		.loc 1 885 0
 3555 0032 0127     		movs	r7, #1
 3556 0034 C5EB0805 		rsb	r5, r5, r8
 3557              	.LVL422:
 3558              	.L598:
 885:..\common\tterm/TTerm.c **** 		ttprintf("\xE2\x95\x90"); //=
 3559              		.loc 1 885 0 is_stmt 0 discriminator 1
 3560 0038 AF42     		cmp	r7, r5
 3561 003a 636A     		ldr	r3, [r4, #36]
 3562 003c 04DA     		bge	.L604
 886:..\common\tterm/TTerm.c **** 	}
 3563              		.loc 1 886 0 is_stmt 1 discriminator 3
 3564 003e 2349     		ldr	r1, .L607+4
 3565 0040 6068     		ldr	r0, [r4, #4]
 3566 0042 9847     		blx	r3
 3567              	.LVL423:
 885:..\common\tterm/TTerm.c **** 		ttprintf("\xE2\x95\x90"); //=
 3568              		.loc 1 885 0 discriminator 3
 3569 0044 0137     		adds	r7, r7, #1
 3570              	.LVL424:
 3571 0046 F7E7     		b	.L598
ARM GAS  C:\Users\chemi\AppData\Local\Temp\cc0tO343.s 			page 90


 3572              	.L604:
 888:..\common\tterm/TTerm.c **** 	for (i = 1; i < (row2 - row1); i++) {
 3573              		.loc 1 888 0
 3574 0048 2149     		ldr	r1, .L607+8
 3575 004a 6068     		ldr	r0, [r4, #4]
 3576 004c 9847     		blx	r3
 3577              	.LVL425:
 889:..\common\tterm/TTerm.c **** 		TERM_setCursorPos(handle, row1 + i, col1);
 3578              		.loc 1 889 0
 3579 004e 0127     		movs	r7, #1
 3580 0050 C6EB0A06 		rsb	r6, r6, r10
 892:..\common\tterm/TTerm.c **** 		ttprintf("\xE2\x95\x91"); //right ||
 3581              		.loc 1 892 0
 3582 0054 1FFA88F8 		uxth	r8, r8
 3583              	.LVL426:
 3584              	.L600:
 889:..\common\tterm/TTerm.c **** 		TERM_setCursorPos(handle, row1 + i, col1);
 3585              		.loc 1 889 0 discriminator 1
 3586 0058 B742     		cmp	r7, r6
 3587 005a 18DA     		bge	.L605
 3588 005c 0BEB0703 		add	r3, fp, r7
 3589 0060 9BB2     		uxth	r3, r3
 890:..\common\tterm/TTerm.c **** 		ttprintf("\xE2\x95\x91"); //left ||
 3590              		.loc 1 890 0 discriminator 3
 3591 0062 1946     		mov	r1, r3
 3592 0064 4A46     		mov	r2, r9
 3593 0066 2046     		mov	r0, r4
 3594 0068 0193     		str	r3, [sp, #4]
 3595 006a FFF7FEFF 		bl	TERM_setCursorPos
 3596              	.LVL427:
 891:..\common\tterm/TTerm.c **** 		TERM_setCursorPos(handle, row1 + i, col2);
 3597              		.loc 1 891 0 discriminator 3
 3598 006e 626A     		ldr	r2, [r4, #36]
 3599 0070 1849     		ldr	r1, .L607+12
 3600 0072 6068     		ldr	r0, [r4, #4]
 3601 0074 9047     		blx	r2
 3602              	.LVL428:
 892:..\common\tterm/TTerm.c **** 		ttprintf("\xE2\x95\x91"); //right ||
 3603              		.loc 1 892 0 discriminator 3
 3604 0076 019B     		ldr	r3, [sp, #4]
 3605 0078 4246     		mov	r2, r8
 3606 007a 1946     		mov	r1, r3
 3607 007c 2046     		mov	r0, r4
 3608 007e FFF7FEFF 		bl	TERM_setCursorPos
 3609              	.LVL429:
 893:..\common\tterm/TTerm.c **** 	}
 3610              		.loc 1 893 0 discriminator 3
 3611 0082 636A     		ldr	r3, [r4, #36]
 3612 0084 1349     		ldr	r1, .L607+12
 3613 0086 6068     		ldr	r0, [r4, #4]
 3614 0088 9847     		blx	r3
 3615              	.LVL430:
 889:..\common\tterm/TTerm.c **** 		TERM_setCursorPos(handle, row1 + i, col1);
 3616              		.loc 1 889 0 discriminator 3
 3617 008a 0137     		adds	r7, r7, #1
 3618              	.LVL431:
 3619 008c E4E7     		b	.L600
ARM GAS  C:\Users\chemi\AppData\Local\Temp\cc0tO343.s 			page 91


 3620              	.L605:
 895:..\common\tterm/TTerm.c **** 	ttprintf("\xE2\x95\x9A"); //edge lower left
 3621              		.loc 1 895 0
 3622 008e 4A46     		mov	r2, r9
 3623 0090 5146     		mov	r1, r10
 3624 0092 2046     		mov	r0, r4
 3625 0094 FFF7FEFF 		bl	TERM_setCursorPos
 3626              	.LVL432:
 896:..\common\tterm/TTerm.c **** 	for (i = 1; i < (col2 - col1); i++) {
 3627              		.loc 1 896 0
 3628 0098 636A     		ldr	r3, [r4, #36]
 3629 009a 0F49     		ldr	r1, .L607+16
 3630 009c 6068     		ldr	r0, [r4, #4]
 3631 009e 9847     		blx	r3
 3632              	.LVL433:
 897:..\common\tterm/TTerm.c **** 		ttprintf("\xE2\x95\x90"); //=
 3633              		.loc 1 897 0
 3634 00a0 0126     		movs	r6, #1
 3635              	.LVL434:
 3636              	.L602:
 897:..\common\tterm/TTerm.c **** 		ttprintf("\xE2\x95\x90"); //=
 3637              		.loc 1 897 0 is_stmt 0 discriminator 1
 3638 00a2 AE42     		cmp	r6, r5
 3639 00a4 636A     		ldr	r3, [r4, #36]
 3640 00a6 04DA     		bge	.L606
 898:..\common\tterm/TTerm.c **** 	}
 3641              		.loc 1 898 0 is_stmt 1 discriminator 3
 3642 00a8 0849     		ldr	r1, .L607+4
 3643 00aa 6068     		ldr	r0, [r4, #4]
 3644 00ac 9847     		blx	r3
 3645              	.LVL435:
 897:..\common\tterm/TTerm.c **** 		ttprintf("\xE2\x95\x90"); //=
 3646              		.loc 1 897 0 discriminator 3
 3647 00ae 0136     		adds	r6, r6, #1
 3648              	.LVL436:
 3649 00b0 F7E7     		b	.L602
 3650              	.L606:
 900:..\common\tterm/TTerm.c **** 	TERM_sendVT100Code(handle, _VT100_FOREGROUND_COLOR, _VT100_WHITE);
 3651              		.loc 1 900 0
 3652 00b2 0A49     		ldr	r1, .L607+20
 3653 00b4 6068     		ldr	r0, [r4, #4]
 3654 00b6 9847     		blx	r3
 3655              	.LVL437:
 901:..\common\tterm/TTerm.c **** }
 3656              		.loc 1 901 0
 3657 00b8 2046     		mov	r0, r4
 3658 00ba 0722     		movs	r2, #7
 3659 00bc 0221     		movs	r1, #2
 902:..\common\tterm/TTerm.c **** 
 3660              		.loc 1 902 0
 3661 00be 03B0     		add	sp, sp, #12
 3662              		.cfi_def_cfa_offset 36
 3663              		@ sp needed
 3664 00c0 BDE8F04F 		pop	{r4, r5, r6, r7, r8, r9, r10, fp, lr}
 3665              		.cfi_restore 14
 3666              		.cfi_restore 11
 3667              		.cfi_restore 10
ARM GAS  C:\Users\chemi\AppData\Local\Temp\cc0tO343.s 			page 92


 3668              		.cfi_restore 9
 3669              		.cfi_restore 8
 3670              		.cfi_restore 7
 3671              		.cfi_restore 6
 3672              		.cfi_restore 5
 3673              		.cfi_restore 4
 3674              		.cfi_def_cfa_offset 0
 3675              	.LVL438:
 901:..\common\tterm/TTerm.c **** }
 3676              		.loc 1 901 0
 3677 00c4 FFF7FEBF 		b	TERM_sendVT100Code
 3678              	.LVL439:
 3679              	.L608:
 3680              		.align	2
 3681              	.L607:
 3682 00c8 57020000 		.word	.LC63
 3683 00cc 5B020000 		.word	.LC64
 3684 00d0 5F020000 		.word	.LC65
 3685 00d4 63020000 		.word	.LC66
 3686 00d8 67020000 		.word	.LC67
 3687 00dc 6B020000 		.word	.LC68
 3688              		.cfi_endproc
 3689              	.LFE91:
 3690              		.size	TERM_Box, .-TERM_Box
 3691              		.section	.text.TERM_getVT100Code,"ax",%progbits
 3692              		.align	1
 3693              		.global	TERM_getVT100Code
 3694              		.thumb
 3695              		.thumb_func
 3696              		.type	TERM_getVT100Code, %function
 3697              	TERM_getVT100Code:
 3698              	.LFB94:
1003:..\common\tterm/TTerm.c **** 
1004:..\common\tterm/TTerm.c **** //returns a static pointer to the requested VT100 code, so it can be used in printf without needing
1005:..\common\tterm/TTerm.c **** const char * TERM_getVT100Code(uint16_t cmd, uint8_t var){
 3699              		.loc 1 1005 0
 3700              		.cfi_startproc
 3701              		@ args = 0, pretend = 0, frame = 0
 3702              		@ frame_needed = 0, uses_anonymous_args = 0
 3703              		@ link register save eliminated.
 3704              	.LVL440:
1006:..\common\tterm/TTerm.c ****     //INFO this is deprecated since all of the VT100 functions are handled by the terminal now
1007:..\common\tterm/TTerm.c ****     switch(cmd){
 3705              		.loc 1 1007 0
 3706 0000 0C28     		cmp	r0, #12
 3707 0002 6BD0     		beq	.L611
 3708 0004 1FD8     		bhi	.L612
 3709 0006 0528     		cmp	r0, #5
 3710 0008 5ED0     		beq	.L613
 3711 000a 0ED8     		bhi	.L614
 3712 000c 0228     		cmp	r0, #2
 3713 000e 47D0     		beq	.L615
 3714 0010 05D8     		bhi	.L616
 3715 0012 0028     		cmp	r0, #0
 3716 0014 42D0     		beq	.L617
 3717 0016 0128     		cmp	r0, #1
 3718 0018 6ED1     		bne	.L610
ARM GAS  C:\Users\chemi\AppData\Local\Temp\cc0tO343.s 			page 93


1008:..\common\tterm/TTerm.c ****         case _VT100_RESET:
1009:..\common\tterm/TTerm.c ****             return "\x1b" "C";
1010:..\common\tterm/TTerm.c ****             
1011:..\common\tterm/TTerm.c ****         case _VT100_CURSOR_BACK:
1012:..\common\tterm/TTerm.c ****             return "\x1b[D";
1013:..\common\tterm/TTerm.c ****             
1014:..\common\tterm/TTerm.c ****         case _VT100_CURSOR_FORWARD:
1015:..\common\tterm/TTerm.c ****             return "\x1b[C";
1016:..\common\tterm/TTerm.c ****             
1017:..\common\tterm/TTerm.c ****         case _VT100_CURSOR_POS1:
1018:..\common\tterm/TTerm.c ****             return "\x1b[H";
1019:..\common\tterm/TTerm.c ****             
1020:..\common\tterm/TTerm.c ****         case _VT100_CURSOR_END:
1021:..\common\tterm/TTerm.c ****             return "\x1b[F";
 3719              		.loc 1 1021 0
 3720 001a 3B48     		ldr	r0, .L649
 3721              	.LVL441:
 3722 001c 7047     		bx	lr
 3723              	.LVL442:
 3724              	.L616:
1007:..\common\tterm/TTerm.c ****         case _VT100_RESET:
 3725              		.loc 1 1007 0
 3726 001e 0328     		cmp	r0, #3
 3727 0020 48D0     		beq	.L619
 3728 0022 0428     		cmp	r0, #4
 3729 0024 68D1     		bne	.L610
1022:..\common\tterm/TTerm.c ****         case _VT100_FOREGROUND_COLOR:
1023:..\common\tterm/TTerm.c ****             switch(var){
1024:..\common\tterm/TTerm.c ****                 case 0:
1025:..\common\tterm/TTerm.c ****                     return "\x1b[30m";
1026:..\common\tterm/TTerm.c ****                 case 1:
1027:..\common\tterm/TTerm.c ****                     return "\x1b[31m";
1028:..\common\tterm/TTerm.c ****                 case 2:
1029:..\common\tterm/TTerm.c ****                     return "\x1b[32m";
1030:..\common\tterm/TTerm.c ****                 case 3:
1031:..\common\tterm/TTerm.c ****                     return "\x1b[33m";
1032:..\common\tterm/TTerm.c ****                 case 4:
1033:..\common\tterm/TTerm.c ****                     return "\x1b[34m";
1034:..\common\tterm/TTerm.c ****                 case 5:
1035:..\common\tterm/TTerm.c ****                     return "\x1b[35m";
1036:..\common\tterm/TTerm.c ****                 case 6:
1037:..\common\tterm/TTerm.c ****                     return "\x1b[36m";
1038:..\common\tterm/TTerm.c ****                 case 7:
1039:..\common\tterm/TTerm.c ****                     return "\x1b[37m";
1040:..\common\tterm/TTerm.c ****                 default:
1041:..\common\tterm/TTerm.c ****                     return "\x1b[30m";
1042:..\common\tterm/TTerm.c ****             }
1043:..\common\tterm/TTerm.c ****             
1044:..\common\tterm/TTerm.c ****         case _VT100_BACKGROUND_COLOR:
1045:..\common\tterm/TTerm.c ****             switch(var){
1046:..\common\tterm/TTerm.c ****                 case 0:
1047:..\common\tterm/TTerm.c ****                     return "\x1b[40m";
1048:..\common\tterm/TTerm.c ****                 case 1:
1049:..\common\tterm/TTerm.c ****                     return "\x1b[41m";
1050:..\common\tterm/TTerm.c ****                 case 2:
1051:..\common\tterm/TTerm.c ****                     return "\x1b[42m";
1052:..\common\tterm/TTerm.c ****                 case 3:
ARM GAS  C:\Users\chemi\AppData\Local\Temp\cc0tO343.s 			page 94


1053:..\common\tterm/TTerm.c ****                     return "\x1b[43m";
1054:..\common\tterm/TTerm.c ****                 case 4:
1055:..\common\tterm/TTerm.c ****                     return "\x1b[44m";
1056:..\common\tterm/TTerm.c ****                 case 5:
1057:..\common\tterm/TTerm.c ****                     return "\x1b[45m";
1058:..\common\tterm/TTerm.c ****                 case 6:
1059:..\common\tterm/TTerm.c ****                     return "\x1b[46m";
1060:..\common\tterm/TTerm.c ****                 case 7:
1061:..\common\tterm/TTerm.c ****                     return "\x1b[47m";
1062:..\common\tterm/TTerm.c ****                 default:
1063:..\common\tterm/TTerm.c ****                     return "\x1b[40m";
1064:..\common\tterm/TTerm.c ****             }
1065:..\common\tterm/TTerm.c ****             
1066:..\common\tterm/TTerm.c ****         case _VT100_RESET_ATTRIB:
1067:..\common\tterm/TTerm.c ****             return "\x1b[0m";
 3730              		.loc 1 1067 0
 3731 0026 3948     		ldr	r0, .L649+4
 3732              	.LVL443:
 3733 0028 7047     		bx	lr
 3734              	.LVL444:
 3735              	.L614:
1007:..\common\tterm/TTerm.c ****         case _VT100_RESET:
 3736              		.loc 1 1007 0
 3737 002a 0828     		cmp	r0, #8
 3738 002c 50D0     		beq	.L621
 3739 002e 05D8     		bhi	.L622
 3740 0030 0628     		cmp	r0, #6
 3741 0032 4BD0     		beq	.L623
 3742 0034 0728     		cmp	r0, #7
 3743 0036 5FD1     		bne	.L610
1068:..\common\tterm/TTerm.c ****             
1069:..\common\tterm/TTerm.c ****         case _VT100_BRIGHT:
1070:..\common\tterm/TTerm.c ****             return "\x1b[1m";
1071:..\common\tterm/TTerm.c ****             
1072:..\common\tterm/TTerm.c ****         case _VT100_DIM:
1073:..\common\tterm/TTerm.c ****             return "\x1b[2m";
1074:..\common\tterm/TTerm.c ****             
1075:..\common\tterm/TTerm.c ****         case _VT100_UNDERSCORE:
1076:..\common\tterm/TTerm.c ****             return "\x1b[4m";
 3744              		.loc 1 1076 0
 3745 0038 3548     		ldr	r0, .L649+8
 3746              	.LVL445:
 3747 003a 7047     		bx	lr
 3748              	.LVL446:
 3749              	.L622:
1007:..\common\tterm/TTerm.c ****         case _VT100_RESET:
 3750              		.loc 1 1007 0
 3751 003c 0A28     		cmp	r0, #10
 3752 003e 49D0     		beq	.L625
 3753 0040 4AD8     		bhi	.L647
1077:..\common\tterm/TTerm.c ****             
1078:..\common\tterm/TTerm.c ****         case _VT100_BLINK:
1079:..\common\tterm/TTerm.c ****             return "\x1b[5m";
1080:..\common\tterm/TTerm.c ****             
1081:..\common\tterm/TTerm.c ****         case _VT100_REVERSE:
1082:..\common\tterm/TTerm.c ****             return "\x1b[7m";
 3754              		.loc 1 1082 0
ARM GAS  C:\Users\chemi\AppData\Local\Temp\cc0tO343.s 			page 95


 3755 0042 3448     		ldr	r0, .L649+12
 3756              	.LVL447:
