ARM GAS  C:\Users\chemi\AppData\Local\Temp\ccIirTms.s 			page 1


   1              		.syntax unified
   2              		.cpu cortex-m3
   3              		.fpu softvfp
   4              		.eabi_attribute 20, 1
   5              		.eabi_attribute 21, 1
   6              		.eabi_attribute 23, 3
   7              		.eabi_attribute 24, 1
   8              		.eabi_attribute 25, 1
   9              		.eabi_attribute 26, 1
  10              		.eabi_attribute 30, 4
  11              		.eabi_attribute 34, 1
  12              		.eabi_attribute 18, 4
  13              		.thumb
  14              		.syntax unified
  15              		.file	"uart_rx.c"
  16              		.text
  17              	.Ltext0:
  18              		.cfi_sections	.debug_frame
  19              		.section	.text.uart_rx_Interrupt,"ax",%progbits
  20              		.align	1
  21              		.global	uart_rx_Interrupt
  22              		.thumb
  23              		.thumb_func
  24              		.type	uart_rx_Interrupt, %function
  25              	uart_rx_Interrupt:
  26              	.LFB3:
  27              		.file 1 "Generated_Source\\PSoC5\\uart_rx.c"
   1:Generated_Source\PSoC5/uart_rx.c **** /*******************************************************************************
   2:Generated_Source\PSoC5/uart_rx.c **** * File Name: uart_rx.c  
   3:Generated_Source\PSoC5/uart_rx.c **** * Version 1.70
   4:Generated_Source\PSoC5/uart_rx.c **** *
   5:Generated_Source\PSoC5/uart_rx.c **** *  Description:
   6:Generated_Source\PSoC5/uart_rx.c **** *   API for controlling the state of an interrupt.
   7:Generated_Source\PSoC5/uart_rx.c **** *
   8:Generated_Source\PSoC5/uart_rx.c **** *
   9:Generated_Source\PSoC5/uart_rx.c **** *  Note:
  10:Generated_Source\PSoC5/uart_rx.c **** *
  11:Generated_Source\PSoC5/uart_rx.c **** ********************************************************************************
  12:Generated_Source\PSoC5/uart_rx.c **** * Copyright 2008-2015, Cypress Semiconductor Corporation.  All rights reserved.
  13:Generated_Source\PSoC5/uart_rx.c **** * You may use this file only in accordance with the license, terms, conditions, 
  14:Generated_Source\PSoC5/uart_rx.c **** * disclaimers, and limitations in the end user license agreement accompanying 
  15:Generated_Source\PSoC5/uart_rx.c **** * the software package with which this file was provided.
  16:Generated_Source\PSoC5/uart_rx.c **** *******************************************************************************/
  17:Generated_Source\PSoC5/uart_rx.c **** 
  18:Generated_Source\PSoC5/uart_rx.c **** 
  19:Generated_Source\PSoC5/uart_rx.c **** #include <cydevice_trm.h>
  20:Generated_Source\PSoC5/uart_rx.c **** #include <CyLib.h>
  21:Generated_Source\PSoC5/uart_rx.c **** #include <uart_rx.h>
  22:Generated_Source\PSoC5/uart_rx.c **** 
  23:Generated_Source\PSoC5/uart_rx.c **** 
  24:Generated_Source\PSoC5/uart_rx.c **** #if !defined(uart_rx__REMOVED) /* Check for removal by optimization */
  25:Generated_Source\PSoC5/uart_rx.c **** 
  26:Generated_Source\PSoC5/uart_rx.c **** /*******************************************************************************
  27:Generated_Source\PSoC5/uart_rx.c **** *  Place your includes, defines and code here 
  28:Generated_Source\PSoC5/uart_rx.c **** ********************************************************************************/
  29:Generated_Source\PSoC5/uart_rx.c **** /* `#START uart_rx_intc` */
  30:Generated_Source\PSoC5/uart_rx.c **** 
ARM GAS  C:\Users\chemi\AppData\Local\Temp\ccIirTms.s 			page 2


  31:Generated_Source\PSoC5/uart_rx.c **** /* `#END` */
  32:Generated_Source\PSoC5/uart_rx.c **** 
  33:Generated_Source\PSoC5/uart_rx.c **** #ifndef CYINT_IRQ_BASE
  34:Generated_Source\PSoC5/uart_rx.c **** #define CYINT_IRQ_BASE      16
  35:Generated_Source\PSoC5/uart_rx.c **** #endif /* CYINT_IRQ_BASE */
  36:Generated_Source\PSoC5/uart_rx.c **** #ifndef CYINT_VECT_TABLE
  37:Generated_Source\PSoC5/uart_rx.c **** #define CYINT_VECT_TABLE    ((cyisraddress **) CYREG_NVIC_VECT_OFFSET)
  38:Generated_Source\PSoC5/uart_rx.c **** #endif /* CYINT_VECT_TABLE */
  39:Generated_Source\PSoC5/uart_rx.c **** 
  40:Generated_Source\PSoC5/uart_rx.c **** /* Declared in startup, used to set unused interrupts to. */
  41:Generated_Source\PSoC5/uart_rx.c **** CY_ISR_PROTO(IntDefaultHandler);
  42:Generated_Source\PSoC5/uart_rx.c **** 
  43:Generated_Source\PSoC5/uart_rx.c **** 
  44:Generated_Source\PSoC5/uart_rx.c **** /*******************************************************************************
  45:Generated_Source\PSoC5/uart_rx.c **** * Function Name: uart_rx_Start
  46:Generated_Source\PSoC5/uart_rx.c **** ********************************************************************************
  47:Generated_Source\PSoC5/uart_rx.c **** *
  48:Generated_Source\PSoC5/uart_rx.c **** * Summary:
  49:Generated_Source\PSoC5/uart_rx.c **** *  Set up the interrupt and enable it. This function disables the interrupt, 
  50:Generated_Source\PSoC5/uart_rx.c **** *  sets the default interrupt vector, sets the priority from the value in the
  51:Generated_Source\PSoC5/uart_rx.c **** *  Design Wide Resources Interrupt Editor, then enables the interrupt to the 
  52:Generated_Source\PSoC5/uart_rx.c **** *  interrupt controller.
  53:Generated_Source\PSoC5/uart_rx.c **** *
  54:Generated_Source\PSoC5/uart_rx.c **** * Parameters:  
  55:Generated_Source\PSoC5/uart_rx.c **** *   None
  56:Generated_Source\PSoC5/uart_rx.c **** *
  57:Generated_Source\PSoC5/uart_rx.c **** * Return:
  58:Generated_Source\PSoC5/uart_rx.c **** *   None
  59:Generated_Source\PSoC5/uart_rx.c **** *
  60:Generated_Source\PSoC5/uart_rx.c **** *******************************************************************************/
  61:Generated_Source\PSoC5/uart_rx.c **** void uart_rx_Start(void)
  62:Generated_Source\PSoC5/uart_rx.c **** {
  63:Generated_Source\PSoC5/uart_rx.c ****     /* For all we know the interrupt is active. */
  64:Generated_Source\PSoC5/uart_rx.c ****     uart_rx_Disable();
  65:Generated_Source\PSoC5/uart_rx.c **** 
  66:Generated_Source\PSoC5/uart_rx.c ****     /* Set the ISR to point to the uart_rx Interrupt. */
  67:Generated_Source\PSoC5/uart_rx.c ****     uart_rx_SetVector(&uart_rx_Interrupt);
  68:Generated_Source\PSoC5/uart_rx.c **** 
  69:Generated_Source\PSoC5/uart_rx.c ****     /* Set the priority. */
  70:Generated_Source\PSoC5/uart_rx.c ****     uart_rx_SetPriority((uint8)uart_rx_INTC_PRIOR_NUMBER);
  71:Generated_Source\PSoC5/uart_rx.c **** 
  72:Generated_Source\PSoC5/uart_rx.c ****     /* Enable it. */
  73:Generated_Source\PSoC5/uart_rx.c ****     uart_rx_Enable();
  74:Generated_Source\PSoC5/uart_rx.c **** }
  75:Generated_Source\PSoC5/uart_rx.c **** 
  76:Generated_Source\PSoC5/uart_rx.c **** 
  77:Generated_Source\PSoC5/uart_rx.c **** /*******************************************************************************
  78:Generated_Source\PSoC5/uart_rx.c **** * Function Name: uart_rx_StartEx
  79:Generated_Source\PSoC5/uart_rx.c **** ********************************************************************************
  80:Generated_Source\PSoC5/uart_rx.c **** *
  81:Generated_Source\PSoC5/uart_rx.c **** * Summary:
  82:Generated_Source\PSoC5/uart_rx.c **** *  Sets up the interrupt and enables it. This function disables the interrupt,
  83:Generated_Source\PSoC5/uart_rx.c **** *  sets the interrupt vector based on the address passed in, sets the priority 
  84:Generated_Source\PSoC5/uart_rx.c **** *  from the value in the Design Wide Resources Interrupt Editor, then enables 
  85:Generated_Source\PSoC5/uart_rx.c **** *  the interrupt to the interrupt controller.
  86:Generated_Source\PSoC5/uart_rx.c **** *  
  87:Generated_Source\PSoC5/uart_rx.c **** *  When defining ISR functions, the CY_ISR and CY_ISR_PROTO macros should be 
ARM GAS  C:\Users\chemi\AppData\Local\Temp\ccIirTms.s 			page 3


  88:Generated_Source\PSoC5/uart_rx.c **** *  used to provide consistent definition across compilers:
  89:Generated_Source\PSoC5/uart_rx.c **** *  
  90:Generated_Source\PSoC5/uart_rx.c **** *  Function definition example:
  91:Generated_Source\PSoC5/uart_rx.c **** *   CY_ISR(MyISR)
  92:Generated_Source\PSoC5/uart_rx.c **** *   {
  93:Generated_Source\PSoC5/uart_rx.c **** *   }
  94:Generated_Source\PSoC5/uart_rx.c **** *   Function prototype example:
  95:Generated_Source\PSoC5/uart_rx.c **** *   CY_ISR_PROTO(MyISR);
  96:Generated_Source\PSoC5/uart_rx.c **** *
  97:Generated_Source\PSoC5/uart_rx.c **** * Parameters:  
  98:Generated_Source\PSoC5/uart_rx.c **** *   address: Address of the ISR to set in the interrupt vector table.
  99:Generated_Source\PSoC5/uart_rx.c **** *
 100:Generated_Source\PSoC5/uart_rx.c **** * Return:
 101:Generated_Source\PSoC5/uart_rx.c **** *   None
 102:Generated_Source\PSoC5/uart_rx.c **** *
 103:Generated_Source\PSoC5/uart_rx.c **** *******************************************************************************/
 104:Generated_Source\PSoC5/uart_rx.c **** void uart_rx_StartEx(cyisraddress address)
 105:Generated_Source\PSoC5/uart_rx.c **** {
 106:Generated_Source\PSoC5/uart_rx.c ****     /* For all we know the interrupt is active. */
 107:Generated_Source\PSoC5/uart_rx.c ****     uart_rx_Disable();
 108:Generated_Source\PSoC5/uart_rx.c **** 
 109:Generated_Source\PSoC5/uart_rx.c ****     /* Set the ISR to point to the uart_rx Interrupt. */
 110:Generated_Source\PSoC5/uart_rx.c ****     uart_rx_SetVector(address);
 111:Generated_Source\PSoC5/uart_rx.c **** 
 112:Generated_Source\PSoC5/uart_rx.c ****     /* Set the priority. */
 113:Generated_Source\PSoC5/uart_rx.c ****     uart_rx_SetPriority((uint8)uart_rx_INTC_PRIOR_NUMBER);
 114:Generated_Source\PSoC5/uart_rx.c **** 
 115:Generated_Source\PSoC5/uart_rx.c ****     /* Enable it. */
 116:Generated_Source\PSoC5/uart_rx.c ****     uart_rx_Enable();
 117:Generated_Source\PSoC5/uart_rx.c **** }
 118:Generated_Source\PSoC5/uart_rx.c **** 
 119:Generated_Source\PSoC5/uart_rx.c **** 
 120:Generated_Source\PSoC5/uart_rx.c **** /*******************************************************************************
 121:Generated_Source\PSoC5/uart_rx.c **** * Function Name: uart_rx_Stop
 122:Generated_Source\PSoC5/uart_rx.c **** ********************************************************************************
 123:Generated_Source\PSoC5/uart_rx.c **** *
 124:Generated_Source\PSoC5/uart_rx.c **** * Summary:
 125:Generated_Source\PSoC5/uart_rx.c **** *   Disables and removes the interrupt.
 126:Generated_Source\PSoC5/uart_rx.c **** *
 127:Generated_Source\PSoC5/uart_rx.c **** * Parameters:  
 128:Generated_Source\PSoC5/uart_rx.c **** *   None
 129:Generated_Source\PSoC5/uart_rx.c **** *
 130:Generated_Source\PSoC5/uart_rx.c **** * Return:
 131:Generated_Source\PSoC5/uart_rx.c **** *   None
 132:Generated_Source\PSoC5/uart_rx.c **** *
 133:Generated_Source\PSoC5/uart_rx.c **** *******************************************************************************/
 134:Generated_Source\PSoC5/uart_rx.c **** void uart_rx_Stop(void)
 135:Generated_Source\PSoC5/uart_rx.c **** {
 136:Generated_Source\PSoC5/uart_rx.c ****     /* Disable this interrupt. */
 137:Generated_Source\PSoC5/uart_rx.c ****     uart_rx_Disable();
 138:Generated_Source\PSoC5/uart_rx.c **** 
 139:Generated_Source\PSoC5/uart_rx.c ****     /* Set the ISR to point to the passive one. */
 140:Generated_Source\PSoC5/uart_rx.c ****     uart_rx_SetVector(&IntDefaultHandler);
 141:Generated_Source\PSoC5/uart_rx.c **** }
 142:Generated_Source\PSoC5/uart_rx.c **** 
 143:Generated_Source\PSoC5/uart_rx.c **** 
 144:Generated_Source\PSoC5/uart_rx.c **** /*******************************************************************************
ARM GAS  C:\Users\chemi\AppData\Local\Temp\ccIirTms.s 			page 4


 145:Generated_Source\PSoC5/uart_rx.c **** * Function Name: uart_rx_Interrupt
 146:Generated_Source\PSoC5/uart_rx.c **** ********************************************************************************
 147:Generated_Source\PSoC5/uart_rx.c **** *
 148:Generated_Source\PSoC5/uart_rx.c **** * Summary:
 149:Generated_Source\PSoC5/uart_rx.c **** *   The default Interrupt Service Routine for uart_rx.
 150:Generated_Source\PSoC5/uart_rx.c **** *
 151:Generated_Source\PSoC5/uart_rx.c **** *   Add custom code between the coments to keep the next version of this file
 152:Generated_Source\PSoC5/uart_rx.c **** *   from over writting your code.
 153:Generated_Source\PSoC5/uart_rx.c **** *
 154:Generated_Source\PSoC5/uart_rx.c **** * Parameters:  
 155:Generated_Source\PSoC5/uart_rx.c **** *
 156:Generated_Source\PSoC5/uart_rx.c **** * Return:
 157:Generated_Source\PSoC5/uart_rx.c **** *   None
 158:Generated_Source\PSoC5/uart_rx.c **** *
 159:Generated_Source\PSoC5/uart_rx.c **** *******************************************************************************/
 160:Generated_Source\PSoC5/uart_rx.c **** CY_ISR(uart_rx_Interrupt)
 161:Generated_Source\PSoC5/uart_rx.c **** {
  28              		.loc 1 161 0
  29              		.cfi_startproc
  30              		@ args = 0, pretend = 0, frame = 0
  31              		@ frame_needed = 0, uses_anonymous_args = 0
  32              		@ link register save eliminated.
  33 0000 7047     		bx	lr
  34              		.cfi_endproc
  35              	.LFE3:
  36              		.size	uart_rx_Interrupt, .-uart_rx_Interrupt
  37              		.section	.text.uart_rx_Start,"ax",%progbits
  38              		.align	1
  39              		.global	uart_rx_Start
  40              		.thumb
  41              		.thumb_func
  42              		.type	uart_rx_Start, %function
  43              	uart_rx_Start:
  44              	.LFB0:
  62:Generated_Source\PSoC5/uart_rx.c ****     /* For all we know the interrupt is active. */
  45              		.loc 1 62 0
  46              		.cfi_startproc
  47              		@ args = 0, pretend = 0, frame = 0
  48              		@ frame_needed = 0, uses_anonymous_args = 0
  49              		@ link register save eliminated.
  50              	.LBB22:
  51              	.LBB23:
 162:Generated_Source\PSoC5/uart_rx.c ****     #ifdef uart_rx_INTERRUPT_INTERRUPT_CALLBACK
 163:Generated_Source\PSoC5/uart_rx.c ****         uart_rx_Interrupt_InterruptCallback();
 164:Generated_Source\PSoC5/uart_rx.c ****     #endif /* uart_rx_INTERRUPT_INTERRUPT_CALLBACK */ 
 165:Generated_Source\PSoC5/uart_rx.c **** 
 166:Generated_Source\PSoC5/uart_rx.c ****     /*  Place your Interrupt code here. */
 167:Generated_Source\PSoC5/uart_rx.c ****     /* `#START uart_rx_Interrupt` */
 168:Generated_Source\PSoC5/uart_rx.c **** 
 169:Generated_Source\PSoC5/uart_rx.c ****     /* `#END` */
 170:Generated_Source\PSoC5/uart_rx.c **** }
 171:Generated_Source\PSoC5/uart_rx.c **** 
 172:Generated_Source\PSoC5/uart_rx.c **** 
 173:Generated_Source\PSoC5/uart_rx.c **** /*******************************************************************************
 174:Generated_Source\PSoC5/uart_rx.c **** * Function Name: uart_rx_SetVector
 175:Generated_Source\PSoC5/uart_rx.c **** ********************************************************************************
 176:Generated_Source\PSoC5/uart_rx.c **** *
ARM GAS  C:\Users\chemi\AppData\Local\Temp\ccIirTms.s 			page 5


 177:Generated_Source\PSoC5/uart_rx.c **** * Summary:
 178:Generated_Source\PSoC5/uart_rx.c **** *   Change the ISR vector for the Interrupt. Note calling uart_rx_Start
 179:Generated_Source\PSoC5/uart_rx.c **** *   will override any effect this method would have had. To set the vector 
 180:Generated_Source\PSoC5/uart_rx.c **** *   before the component has been started use uart_rx_StartEx instead.
 181:Generated_Source\PSoC5/uart_rx.c **** * 
 182:Generated_Source\PSoC5/uart_rx.c **** *   When defining ISR functions, the CY_ISR and CY_ISR_PROTO macros should be 
 183:Generated_Source\PSoC5/uart_rx.c **** *   used to provide consistent definition across compilers:
 184:Generated_Source\PSoC5/uart_rx.c **** *
 185:Generated_Source\PSoC5/uart_rx.c **** *   Function definition example:
 186:Generated_Source\PSoC5/uart_rx.c **** *   CY_ISR(MyISR)
 187:Generated_Source\PSoC5/uart_rx.c **** *   {
 188:Generated_Source\PSoC5/uart_rx.c **** *   }
 189:Generated_Source\PSoC5/uart_rx.c **** *
 190:Generated_Source\PSoC5/uart_rx.c **** *   Function prototype example:
 191:Generated_Source\PSoC5/uart_rx.c **** *     CY_ISR_PROTO(MyISR);
 192:Generated_Source\PSoC5/uart_rx.c **** *
 193:Generated_Source\PSoC5/uart_rx.c **** * Parameters:
 194:Generated_Source\PSoC5/uart_rx.c **** *   address: Address of the ISR to set in the interrupt vector table.
 195:Generated_Source\PSoC5/uart_rx.c **** *
 196:Generated_Source\PSoC5/uart_rx.c **** * Return:
 197:Generated_Source\PSoC5/uart_rx.c **** *   None
 198:Generated_Source\PSoC5/uart_rx.c **** *
 199:Generated_Source\PSoC5/uart_rx.c **** *******************************************************************************/
 200:Generated_Source\PSoC5/uart_rx.c **** void uart_rx_SetVector(cyisraddress address)
 201:Generated_Source\PSoC5/uart_rx.c **** {
 202:Generated_Source\PSoC5/uart_rx.c ****     cyisraddress * ramVectorTable;
 203:Generated_Source\PSoC5/uart_rx.c **** 
 204:Generated_Source\PSoC5/uart_rx.c ****     ramVectorTable = (cyisraddress *) *CYINT_VECT_TABLE;
 205:Generated_Source\PSoC5/uart_rx.c **** 
 206:Generated_Source\PSoC5/uart_rx.c ****     ramVectorTable[CYINT_IRQ_BASE + (uint32)uart_rx__INTC_NUMBER] = address;
 207:Generated_Source\PSoC5/uart_rx.c **** }
 208:Generated_Source\PSoC5/uart_rx.c **** 
 209:Generated_Source\PSoC5/uart_rx.c **** 
 210:Generated_Source\PSoC5/uart_rx.c **** /*******************************************************************************
 211:Generated_Source\PSoC5/uart_rx.c **** * Function Name: uart_rx_GetVector
 212:Generated_Source\PSoC5/uart_rx.c **** ********************************************************************************
 213:Generated_Source\PSoC5/uart_rx.c **** *
 214:Generated_Source\PSoC5/uart_rx.c **** * Summary:
 215:Generated_Source\PSoC5/uart_rx.c **** *   Gets the "address" of the current ISR vector for the Interrupt.
 216:Generated_Source\PSoC5/uart_rx.c **** *
 217:Generated_Source\PSoC5/uart_rx.c **** * Parameters:
 218:Generated_Source\PSoC5/uart_rx.c **** *   None
 219:Generated_Source\PSoC5/uart_rx.c **** *
 220:Generated_Source\PSoC5/uart_rx.c **** * Return:
 221:Generated_Source\PSoC5/uart_rx.c **** *   Address of the ISR in the interrupt vector table.
 222:Generated_Source\PSoC5/uart_rx.c **** *
 223:Generated_Source\PSoC5/uart_rx.c **** *******************************************************************************/
 224:Generated_Source\PSoC5/uart_rx.c **** cyisraddress uart_rx_GetVector(void)
 225:Generated_Source\PSoC5/uart_rx.c **** {
 226:Generated_Source\PSoC5/uart_rx.c ****     cyisraddress * ramVectorTable;
 227:Generated_Source\PSoC5/uart_rx.c **** 
 228:Generated_Source\PSoC5/uart_rx.c ****     ramVectorTable = (cyisraddress *) *CYINT_VECT_TABLE;
 229:Generated_Source\PSoC5/uart_rx.c **** 
 230:Generated_Source\PSoC5/uart_rx.c ****     return ramVectorTable[CYINT_IRQ_BASE + (uint32)uart_rx__INTC_NUMBER];
 231:Generated_Source\PSoC5/uart_rx.c **** }
 232:Generated_Source\PSoC5/uart_rx.c **** 
 233:Generated_Source\PSoC5/uart_rx.c **** 
ARM GAS  C:\Users\chemi\AppData\Local\Temp\ccIirTms.s 			page 6


 234:Generated_Source\PSoC5/uart_rx.c **** /*******************************************************************************
 235:Generated_Source\PSoC5/uart_rx.c **** * Function Name: uart_rx_SetPriority
 236:Generated_Source\PSoC5/uart_rx.c **** ********************************************************************************
 237:Generated_Source\PSoC5/uart_rx.c **** *
 238:Generated_Source\PSoC5/uart_rx.c **** * Summary:
 239:Generated_Source\PSoC5/uart_rx.c **** *   Sets the Priority of the Interrupt. 
 240:Generated_Source\PSoC5/uart_rx.c **** *
 241:Generated_Source\PSoC5/uart_rx.c **** *   Note calling uart_rx_Start or uart_rx_StartEx will 
 242:Generated_Source\PSoC5/uart_rx.c **** *   override any effect this API would have had. This API should only be called
 243:Generated_Source\PSoC5/uart_rx.c **** *   after uart_rx_Start or uart_rx_StartEx has been called. 
 244:Generated_Source\PSoC5/uart_rx.c **** *   To set the initial priority for the component, use the Design-Wide Resources
 245:Generated_Source\PSoC5/uart_rx.c **** *   Interrupt Editor.
 246:Generated_Source\PSoC5/uart_rx.c **** *
 247:Generated_Source\PSoC5/uart_rx.c **** *   Note This API has no effect on Non-maskable interrupt NMI).
 248:Generated_Source\PSoC5/uart_rx.c **** *
 249:Generated_Source\PSoC5/uart_rx.c **** * Parameters:
 250:Generated_Source\PSoC5/uart_rx.c **** *   priority: Priority of the interrupt, 0 being the highest priority
 251:Generated_Source\PSoC5/uart_rx.c **** *             PSoC 3 and PSoC 5LP: Priority is from 0 to 7.
 252:Generated_Source\PSoC5/uart_rx.c **** *             PSoC 4: Priority is from 0 to 3.
 253:Generated_Source\PSoC5/uart_rx.c **** *
 254:Generated_Source\PSoC5/uart_rx.c **** * Return:
 255:Generated_Source\PSoC5/uart_rx.c **** *   None
 256:Generated_Source\PSoC5/uart_rx.c **** *
 257:Generated_Source\PSoC5/uart_rx.c **** *******************************************************************************/
 258:Generated_Source\PSoC5/uart_rx.c **** void uart_rx_SetPriority(uint8 priority)
 259:Generated_Source\PSoC5/uart_rx.c **** {
 260:Generated_Source\PSoC5/uart_rx.c ****     *uart_rx_INTC_PRIOR = priority << 5;
 261:Generated_Source\PSoC5/uart_rx.c **** }
 262:Generated_Source\PSoC5/uart_rx.c **** 
 263:Generated_Source\PSoC5/uart_rx.c **** 
 264:Generated_Source\PSoC5/uart_rx.c **** /*******************************************************************************
 265:Generated_Source\PSoC5/uart_rx.c **** * Function Name: uart_rx_GetPriority
 266:Generated_Source\PSoC5/uart_rx.c **** ********************************************************************************
 267:Generated_Source\PSoC5/uart_rx.c **** *
 268:Generated_Source\PSoC5/uart_rx.c **** * Summary:
 269:Generated_Source\PSoC5/uart_rx.c **** *   Gets the Priority of the Interrupt.
 270:Generated_Source\PSoC5/uart_rx.c **** *
 271:Generated_Source\PSoC5/uart_rx.c **** * Parameters:
 272:Generated_Source\PSoC5/uart_rx.c **** *   None
 273:Generated_Source\PSoC5/uart_rx.c **** *
 274:Generated_Source\PSoC5/uart_rx.c **** * Return:
 275:Generated_Source\PSoC5/uart_rx.c **** *   Priority of the interrupt, 0 being the highest priority
 276:Generated_Source\PSoC5/uart_rx.c **** *    PSoC 3 and PSoC 5LP: Priority is from 0 to 7.
 277:Generated_Source\PSoC5/uart_rx.c **** *    PSoC 4: Priority is from 0 to 3.
 278:Generated_Source\PSoC5/uart_rx.c **** *
 279:Generated_Source\PSoC5/uart_rx.c **** *******************************************************************************/
 280:Generated_Source\PSoC5/uart_rx.c **** uint8 uart_rx_GetPriority(void)
 281:Generated_Source\PSoC5/uart_rx.c **** {
 282:Generated_Source\PSoC5/uart_rx.c ****     uint8 priority;
 283:Generated_Source\PSoC5/uart_rx.c **** 
 284:Generated_Source\PSoC5/uart_rx.c **** 
 285:Generated_Source\PSoC5/uart_rx.c ****     priority = *uart_rx_INTC_PRIOR >> 5;
 286:Generated_Source\PSoC5/uart_rx.c **** 
 287:Generated_Source\PSoC5/uart_rx.c ****     return priority;
 288:Generated_Source\PSoC5/uart_rx.c **** }
 289:Generated_Source\PSoC5/uart_rx.c **** 
 290:Generated_Source\PSoC5/uart_rx.c **** 
ARM GAS  C:\Users\chemi\AppData\Local\Temp\ccIirTms.s 			page 7


 291:Generated_Source\PSoC5/uart_rx.c **** /*******************************************************************************
 292:Generated_Source\PSoC5/uart_rx.c **** * Function Name: uart_rx_Enable
 293:Generated_Source\PSoC5/uart_rx.c **** ********************************************************************************
 294:Generated_Source\PSoC5/uart_rx.c **** *
 295:Generated_Source\PSoC5/uart_rx.c **** * Summary:
 296:Generated_Source\PSoC5/uart_rx.c **** *   Enables the interrupt to the interrupt controller. Do not call this function
 297:Generated_Source\PSoC5/uart_rx.c **** *   unless ISR_Start() has been called or the functionality of the ISR_Start() 
 298:Generated_Source\PSoC5/uart_rx.c **** *   function, which sets the vector and the priority, has been called.
 299:Generated_Source\PSoC5/uart_rx.c **** *
 300:Generated_Source\PSoC5/uart_rx.c **** * Parameters:
 301:Generated_Source\PSoC5/uart_rx.c **** *   None
 302:Generated_Source\PSoC5/uart_rx.c **** *
 303:Generated_Source\PSoC5/uart_rx.c **** * Return:
 304:Generated_Source\PSoC5/uart_rx.c **** *   None
 305:Generated_Source\PSoC5/uart_rx.c **** *
 306:Generated_Source\PSoC5/uart_rx.c **** *******************************************************************************/
 307:Generated_Source\PSoC5/uart_rx.c **** void uart_rx_Enable(void)
 308:Generated_Source\PSoC5/uart_rx.c **** {
 309:Generated_Source\PSoC5/uart_rx.c ****     /* Enable the general interrupt. */
 310:Generated_Source\PSoC5/uart_rx.c ****     *uart_rx_INTC_SET_EN = uart_rx__INTC_MASK;
 311:Generated_Source\PSoC5/uart_rx.c **** }
 312:Generated_Source\PSoC5/uart_rx.c **** 
 313:Generated_Source\PSoC5/uart_rx.c **** 
 314:Generated_Source\PSoC5/uart_rx.c **** /*******************************************************************************
 315:Generated_Source\PSoC5/uart_rx.c **** * Function Name: uart_rx_GetState
 316:Generated_Source\PSoC5/uart_rx.c **** ********************************************************************************
 317:Generated_Source\PSoC5/uart_rx.c **** *
 318:Generated_Source\PSoC5/uart_rx.c **** * Summary:
 319:Generated_Source\PSoC5/uart_rx.c **** *   Gets the state (enabled, disabled) of the Interrupt.
 320:Generated_Source\PSoC5/uart_rx.c **** *
 321:Generated_Source\PSoC5/uart_rx.c **** * Parameters:
 322:Generated_Source\PSoC5/uart_rx.c **** *   None
 323:Generated_Source\PSoC5/uart_rx.c **** *
 324:Generated_Source\PSoC5/uart_rx.c **** * Return:
 325:Generated_Source\PSoC5/uart_rx.c **** *   1 if enabled, 0 if disabled.
 326:Generated_Source\PSoC5/uart_rx.c **** *
 327:Generated_Source\PSoC5/uart_rx.c **** *******************************************************************************/
 328:Generated_Source\PSoC5/uart_rx.c **** uint8 uart_rx_GetState(void)
 329:Generated_Source\PSoC5/uart_rx.c **** {
 330:Generated_Source\PSoC5/uart_rx.c ****     /* Get the state of the general interrupt. */
 331:Generated_Source\PSoC5/uart_rx.c ****     return ((*uart_rx_INTC_SET_EN & (uint32)uart_rx__INTC_MASK) != 0u) ? 1u:0u;
 332:Generated_Source\PSoC5/uart_rx.c **** }
 333:Generated_Source\PSoC5/uart_rx.c **** 
 334:Generated_Source\PSoC5/uart_rx.c **** 
 335:Generated_Source\PSoC5/uart_rx.c **** /*******************************************************************************
 336:Generated_Source\PSoC5/uart_rx.c **** * Function Name: uart_rx_Disable
 337:Generated_Source\PSoC5/uart_rx.c **** ********************************************************************************
 338:Generated_Source\PSoC5/uart_rx.c **** *
 339:Generated_Source\PSoC5/uart_rx.c **** * Summary:
 340:Generated_Source\PSoC5/uart_rx.c **** *   Disables the Interrupt in the interrupt controller.
 341:Generated_Source\PSoC5/uart_rx.c **** *
 342:Generated_Source\PSoC5/uart_rx.c **** * Parameters:
 343:Generated_Source\PSoC5/uart_rx.c **** *   None
 344:Generated_Source\PSoC5/uart_rx.c **** *
 345:Generated_Source\PSoC5/uart_rx.c **** * Return:
 346:Generated_Source\PSoC5/uart_rx.c **** *   None
 347:Generated_Source\PSoC5/uart_rx.c **** *
ARM GAS  C:\Users\chemi\AppData\Local\Temp\ccIirTms.s 			page 8


 348:Generated_Source\PSoC5/uart_rx.c **** *******************************************************************************/
 349:Generated_Source\PSoC5/uart_rx.c **** void uart_rx_Disable(void)
 350:Generated_Source\PSoC5/uart_rx.c **** {
 351:Generated_Source\PSoC5/uart_rx.c ****     /* Disable the general interrupt. */
 352:Generated_Source\PSoC5/uart_rx.c ****     *uart_rx_INTC_CLR_EN = uart_rx__INTC_MASK;
  52              		.loc 1 352 0
  53 0000 074A     		ldr	r2, .L3
  54 0002 4FF40063 		mov	r3, #2048
  55 0006 1360     		str	r3, [r2]
  56              	.LVL0:
  57              	.LBE23:
  58              	.LBE22:
  59              	.LBB24:
  60              	.LBB25:
 204:Generated_Source\PSoC5/uart_rx.c **** 
  61              		.loc 1 204 0
  62 0008 02F68832 		addw	r2, r2, #2952
  63 000c 1268     		ldr	r2, [r2]
  64              	.LVL1:
 206:Generated_Source\PSoC5/uart_rx.c **** }
  65              		.loc 1 206 0
  66 000e 0549     		ldr	r1, .L3+4
  67 0010 D166     		str	r1, [r2, #108]
  68              	.LVL2:
  69              	.LBE25:
  70              	.LBE24:
  71              	.LBB26:
  72              	.LBB27:
 260:Generated_Source\PSoC5/uart_rx.c **** }
  73              		.loc 1 260 0
  74 0012 054A     		ldr	r2, .L3+8
  75 0014 E021     		movs	r1, #224
  76 0016 1170     		strb	r1, [r2]
  77              	.LVL3:
  78              	.LBE27:
  79              	.LBE26:
  80              	.LBB28:
  81              	.LBB29:
 310:Generated_Source\PSoC5/uart_rx.c **** }
  82              		.loc 1 310 0
  83 0018 A2F20B32 		subw	r2, r2, #779
  84 001c 1360     		str	r3, [r2]
  85 001e 7047     		bx	lr
  86              	.L4:
  87              		.align	2
  88              	.L3:
  89 0020 80E100E0 		.word	-536813184
  90 0024 00000000 		.word	uart_rx_Interrupt
  91 0028 0BE400E0 		.word	-536812533
  92              	.LBE29:
  93              	.LBE28:
  94              		.cfi_endproc
  95              	.LFE0:
  96              		.size	uart_rx_Start, .-uart_rx_Start
  97              		.section	.text.uart_rx_StartEx,"ax",%progbits
  98              		.align	1
  99              		.global	uart_rx_StartEx
ARM GAS  C:\Users\chemi\AppData\Local\Temp\ccIirTms.s 			page 9


 100              		.thumb
 101              		.thumb_func
 102              		.type	uart_rx_StartEx, %function
 103              	uart_rx_StartEx:
 104              	.LFB1:
 105:Generated_Source\PSoC5/uart_rx.c ****     /* For all we know the interrupt is active. */
 105              		.loc 1 105 0
 106              		.cfi_startproc
 107              		@ args = 0, pretend = 0, frame = 0
 108              		@ frame_needed = 0, uses_anonymous_args = 0
 109              		@ link register save eliminated.
 110              	.LVL4:
 111              	.LBB30:
 112              	.LBB31:
 113              		.loc 1 352 0
 114 0000 074A     		ldr	r2, .L6
 115 0002 4FF40063 		mov	r3, #2048
 116 0006 1360     		str	r3, [r2]
 117              	.LVL5:
 118              	.LBE31:
 119              	.LBE30:
 120              	.LBB32:
 121              	.LBB33:
 204:Generated_Source\PSoC5/uart_rx.c **** 
 122              		.loc 1 204 0
 123 0008 02F68832 		addw	r2, r2, #2952
 124 000c 1268     		ldr	r2, [r2]
 125              	.LVL6:
 126              	.LBE33:
 127              	.LBE32:
 128              	.LBB35:
 129              	.LBB36:
 260:Generated_Source\PSoC5/uart_rx.c **** }
 130              		.loc 1 260 0
 131 000e E021     		movs	r1, #224
 132              	.LBE36:
 133              	.LBE35:
 134              	.LBB38:
 135              	.LBB34:
 206:Generated_Source\PSoC5/uart_rx.c **** }
 136              		.loc 1 206 0
 137 0010 D066     		str	r0, [r2, #108]
 138              	.LVL7:
 139              	.LBE34:
 140              	.LBE38:
 141              	.LBB39:
 142              	.LBB37:
 260:Generated_Source\PSoC5/uart_rx.c **** }
 143              		.loc 1 260 0
 144 0012 044A     		ldr	r2, .L6+4
 145 0014 1170     		strb	r1, [r2]
 146              	.LVL8:
 147              	.LBE37:
 148              	.LBE39:
 149              	.LBB40:
 150              	.LBB41:
 310:Generated_Source\PSoC5/uart_rx.c **** }
ARM GAS  C:\Users\chemi\AppData\Local\Temp\ccIirTms.s 			page 10


 151              		.loc 1 310 0
 152 0016 A2F20B32 		subw	r2, r2, #779
 153 001a 1360     		str	r3, [r2]
 154 001c 7047     		bx	lr
 155              	.L7:
 156 001e 00BF     		.align	2
 157              	.L6:
 158 0020 80E100E0 		.word	-536813184
 159 0024 0BE400E0 		.word	-536812533
 160              	.LBE41:
 161              	.LBE40:
 162              		.cfi_endproc
 163              	.LFE1:
 164              		.size	uart_rx_StartEx, .-uart_rx_StartEx
 165              		.section	.text.uart_rx_Stop,"ax",%progbits
 166              		.align	1
 167              		.global	uart_rx_Stop
 168              		.thumb
 169              		.thumb_func
 170              		.type	uart_rx_Stop, %function
 171              	uart_rx_Stop:
 172              	.LFB2:
 135:Generated_Source\PSoC5/uart_rx.c ****     /* Disable this interrupt. */
 173              		.loc 1 135 0
 174              		.cfi_startproc
 175              		@ args = 0, pretend = 0, frame = 0
 176              		@ frame_needed = 0, uses_anonymous_args = 0
 177              		@ link register save eliminated.
 178              	.LBB42:
 179              	.LBB43:
 180              		.loc 1 352 0
 181 0000 044B     		ldr	r3, .L9
 182 0002 4FF40062 		mov	r2, #2048
 183 0006 1A60     		str	r2, [r3]
 184              	.LVL9:
 185              	.LBE43:
 186              	.LBE42:
 187              	.LBB44:
 188              	.LBB45:
 204:Generated_Source\PSoC5/uart_rx.c **** 
 189              		.loc 1 204 0
 190 0008 03F68833 		addw	r3, r3, #2952
 191 000c 1B68     		ldr	r3, [r3]
 192              	.LVL10:
 206:Generated_Source\PSoC5/uart_rx.c **** }
 193              		.loc 1 206 0
 194 000e 024A     		ldr	r2, .L9+4
 195 0010 DA66     		str	r2, [r3, #108]
 196              	.LVL11:
 197 0012 7047     		bx	lr
 198              	.L10:
 199              		.align	2
 200              	.L9:
 201 0014 80E100E0 		.word	-536813184
 202 0018 00000000 		.word	IntDefaultHandler
 203              	.LBE45:
 204              	.LBE44:
ARM GAS  C:\Users\chemi\AppData\Local\Temp\ccIirTms.s 			page 11


 205              		.cfi_endproc
 206              	.LFE2:
 207              		.size	uart_rx_Stop, .-uart_rx_Stop
 208              		.section	.text.uart_rx_SetVector,"ax",%progbits
 209              		.align	1
 210              		.global	uart_rx_SetVector
 211              		.thumb
 212              		.thumb_func
 213              		.type	uart_rx_SetVector, %function
 214              	uart_rx_SetVector:
 215              	.LFB4:
 201:Generated_Source\PSoC5/uart_rx.c ****     cyisraddress * ramVectorTable;
 216              		.loc 1 201 0
 217              		.cfi_startproc
 218              		@ args = 0, pretend = 0, frame = 0
 219              		@ frame_needed = 0, uses_anonymous_args = 0
 220              		@ link register save eliminated.
 221              	.LVL12:
 204:Generated_Source\PSoC5/uart_rx.c **** 
 222              		.loc 1 204 0
 223 0000 014B     		ldr	r3, .L12
 224 0002 1B68     		ldr	r3, [r3]
 225              	.LVL13:
 206:Generated_Source\PSoC5/uart_rx.c **** }
 226              		.loc 1 206 0
 227 0004 D866     		str	r0, [r3, #108]
 228 0006 7047     		bx	lr
 229              	.L13:
 230              		.align	2
 231              	.L12:
 232 0008 08ED00E0 		.word	-536810232
 233              		.cfi_endproc
 234              	.LFE4:
 235              		.size	uart_rx_SetVector, .-uart_rx_SetVector
 236              		.section	.text.uart_rx_GetVector,"ax",%progbits
 237              		.align	1
 238              		.global	uart_rx_GetVector
 239              		.thumb
 240              		.thumb_func
 241              		.type	uart_rx_GetVector, %function
 242              	uart_rx_GetVector:
 243              	.LFB5:
 225:Generated_Source\PSoC5/uart_rx.c ****     cyisraddress * ramVectorTable;
 244              		.loc 1 225 0
 245              		.cfi_startproc
 246              		@ args = 0, pretend = 0, frame = 0
 247              		@ frame_needed = 0, uses_anonymous_args = 0
 248              		@ link register save eliminated.
 249              	.LVL14:
 228:Generated_Source\PSoC5/uart_rx.c **** 
 250              		.loc 1 228 0
 251 0000 014B     		ldr	r3, .L15
 252              	.LVL15:
 230:Generated_Source\PSoC5/uart_rx.c **** }
 253              		.loc 1 230 0
 254 0002 1B68     		ldr	r3, [r3]
 255              	.LVL16:
ARM GAS  C:\Users\chemi\AppData\Local\Temp\ccIirTms.s 			page 12


 231:Generated_Source\PSoC5/uart_rx.c **** 
 256              		.loc 1 231 0
 257 0004 D86E     		ldr	r0, [r3, #108]
 258 0006 7047     		bx	lr
 259              	.L16:
 260              		.align	2
 261              	.L15:
 262 0008 08ED00E0 		.word	-536810232
 263              		.cfi_endproc
 264              	.LFE5:
 265              		.size	uart_rx_GetVector, .-uart_rx_GetVector
 266              		.section	.text.uart_rx_SetPriority,"ax",%progbits
 267              		.align	1
 268              		.global	uart_rx_SetPriority
 269              		.thumb
 270              		.thumb_func
 271              		.type	uart_rx_SetPriority, %function
 272              	uart_rx_SetPriority:
 273              	.LFB6:
 259:Generated_Source\PSoC5/uart_rx.c ****     *uart_rx_INTC_PRIOR = priority << 5;
 274              		.loc 1 259 0
 275              		.cfi_startproc
 276              		@ args = 0, pretend = 0, frame = 0
 277              		@ frame_needed = 0, uses_anonymous_args = 0
 278              		@ link register save eliminated.
 279              	.LVL17:
 260:Generated_Source\PSoC5/uart_rx.c **** }
 280              		.loc 1 260 0
 281 0000 4001     		lsls	r0, r0, #5
 282              	.LVL18:
 283 0002 024B     		ldr	r3, .L18
 284 0004 C0B2     		uxtb	r0, r0
 285 0006 1870     		strb	r0, [r3]
 286 0008 7047     		bx	lr
 287              	.L19:
 288 000a 00BF     		.align	2
 289              	.L18:
 290 000c 0BE400E0 		.word	-536812533
 291              		.cfi_endproc
 292              	.LFE6:
 293              		.size	uart_rx_SetPriority, .-uart_rx_SetPriority
 294              		.section	.text.uart_rx_GetPriority,"ax",%progbits
 295              		.align	1
 296              		.global	uart_rx_GetPriority
 297              		.thumb
 298              		.thumb_func
 299              		.type	uart_rx_GetPriority, %function
 300              	uart_rx_GetPriority:
 301              	.LFB7:
 281:Generated_Source\PSoC5/uart_rx.c ****     uint8 priority;
 302              		.loc 1 281 0
 303              		.cfi_startproc
 304              		@ args = 0, pretend = 0, frame = 0
 305              		@ frame_needed = 0, uses_anonymous_args = 0
 306              		@ link register save eliminated.
 285:Generated_Source\PSoC5/uart_rx.c **** 
 307              		.loc 1 285 0
ARM GAS  C:\Users\chemi\AppData\Local\Temp\ccIirTms.s 			page 13


 308 0000 014B     		ldr	r3, .L21
 309 0002 1878     		ldrb	r0, [r3]	@ zero_extendqisi2
 310              	.LVL19:
 288:Generated_Source\PSoC5/uart_rx.c **** 
 311              		.loc 1 288 0
 312 0004 4009     		lsrs	r0, r0, #5
 313              	.LVL20:
 314 0006 7047     		bx	lr
 315              	.L22:
 316              		.align	2
 317              	.L21:
 318 0008 0BE400E0 		.word	-536812533
 319              		.cfi_endproc
 320              	.LFE7:
 321              		.size	uart_rx_GetPriority, .-uart_rx_GetPriority
 322              		.section	.text.uart_rx_Enable,"ax",%progbits
 323              		.align	1
 324              		.global	uart_rx_Enable
 325              		.thumb
 326              		.thumb_func
 327              		.type	uart_rx_Enable, %function
 328              	uart_rx_Enable:
 329              	.LFB8:
 308:Generated_Source\PSoC5/uart_rx.c ****     /* Enable the general interrupt. */
 330              		.loc 1 308 0
 331              		.cfi_startproc
 332              		@ args = 0, pretend = 0, frame = 0
 333              		@ frame_needed = 0, uses_anonymous_args = 0
 334              		@ link register save eliminated.
 310:Generated_Source\PSoC5/uart_rx.c **** }
 335              		.loc 1 310 0
 336 0000 024B     		ldr	r3, .L24
 337 0002 4FF40062 		mov	r2, #2048
 338 0006 1A60     		str	r2, [r3]
 339 0008 7047     		bx	lr
 340              	.L25:
 341 000a 00BF     		.align	2
 342              	.L24:
 343 000c 00E100E0 		.word	-536813312
 344              		.cfi_endproc
 345              	.LFE8:
 346              		.size	uart_rx_Enable, .-uart_rx_Enable
 347              		.section	.text.uart_rx_GetState,"ax",%progbits
 348              		.align	1
 349              		.global	uart_rx_GetState
 350              		.thumb
 351              		.thumb_func
 352              		.type	uart_rx_GetState, %function
 353              	uart_rx_GetState:
 354              	.LFB9:
 329:Generated_Source\PSoC5/uart_rx.c ****     /* Get the state of the general interrupt. */
 355              		.loc 1 329 0
 356              		.cfi_startproc
 357              		@ args = 0, pretend = 0, frame = 0
 358              		@ frame_needed = 0, uses_anonymous_args = 0
 359              		@ link register save eliminated.
 331:Generated_Source\PSoC5/uart_rx.c **** }
ARM GAS  C:\Users\chemi\AppData\Local\Temp\ccIirTms.s 			page 14


 360              		.loc 1 331 0
 361 0000 024B     		ldr	r3, .L27
 362 0002 1868     		ldr	r0, [r3]
 332:Generated_Source\PSoC5/uart_rx.c **** 
 363              		.loc 1 332 0
 364 0004 C0F3C020 		ubfx	r0, r0, #11, #1
 365 0008 7047     		bx	lr
 366              	.L28:
 367 000a 00BF     		.align	2
 368              	.L27:
 369 000c 00E100E0 		.word	-536813312
 370              		.cfi_endproc
 371              	.LFE9:
 372              		.size	uart_rx_GetState, .-uart_rx_GetState
 373              		.section	.text.uart_rx_Disable,"ax",%progbits
 374              		.align	1
 375              		.global	uart_rx_Disable
 376              		.thumb
 377              		.thumb_func
 378              		.type	uart_rx_Disable, %function
 379              	uart_rx_Disable:
 380              	.LFB10:
 350:Generated_Source\PSoC5/uart_rx.c ****     /* Disable the general interrupt. */
 381              		.loc 1 350 0
 382              		.cfi_startproc
 383              		@ args = 0, pretend = 0, frame = 0
 384              		@ frame_needed = 0, uses_anonymous_args = 0
 385              		@ link register save eliminated.
 386              		.loc 1 352 0
 387 0000 024B     		ldr	r3, .L30
 388 0002 4FF40062 		mov	r2, #2048
 389 0006 1A60     		str	r2, [r3]
 390 0008 7047     		bx	lr
 391              	.L31:
 392 000a 00BF     		.align	2
 393              	.L30:
 394 000c 80E100E0 		.word	-536813184
 395              		.cfi_endproc
 396              	.LFE10:
 397              		.size	uart_rx_Disable, .-uart_rx_Disable
 398              		.section	.text.uart_rx_SetPending,"ax",%progbits
 399              		.align	1
 400              		.global	uart_rx_SetPending
 401              		.thumb
 402              		.thumb_func
 403              		.type	uart_rx_SetPending, %function
 404              	uart_rx_SetPending:
 405              	.LFB11:
 353:Generated_Source\PSoC5/uart_rx.c **** }
 354:Generated_Source\PSoC5/uart_rx.c **** 
 355:Generated_Source\PSoC5/uart_rx.c **** 
 356:Generated_Source\PSoC5/uart_rx.c **** /*******************************************************************************
 357:Generated_Source\PSoC5/uart_rx.c **** * Function Name: uart_rx_SetPending
 358:Generated_Source\PSoC5/uart_rx.c **** ********************************************************************************
 359:Generated_Source\PSoC5/uart_rx.c **** *
 360:Generated_Source\PSoC5/uart_rx.c **** * Summary:
 361:Generated_Source\PSoC5/uart_rx.c **** *   Causes the Interrupt to enter the pending state, a software method of
ARM GAS  C:\Users\chemi\AppData\Local\Temp\ccIirTms.s 			page 15


 362:Generated_Source\PSoC5/uart_rx.c **** *   generating the interrupt.
 363:Generated_Source\PSoC5/uart_rx.c **** *
 364:Generated_Source\PSoC5/uart_rx.c **** * Parameters:
 365:Generated_Source\PSoC5/uart_rx.c **** *   None
 366:Generated_Source\PSoC5/uart_rx.c **** *
 367:Generated_Source\PSoC5/uart_rx.c **** * Return:
 368:Generated_Source\PSoC5/uart_rx.c **** *   None
 369:Generated_Source\PSoC5/uart_rx.c **** *
 370:Generated_Source\PSoC5/uart_rx.c **** * Side Effects:
 371:Generated_Source\PSoC5/uart_rx.c **** *   If interrupts are enabled and the interrupt is set up properly, the ISR is
 372:Generated_Source\PSoC5/uart_rx.c **** *   entered (depending on the priority of this interrupt and other pending 
 373:Generated_Source\PSoC5/uart_rx.c **** *   interrupts).
 374:Generated_Source\PSoC5/uart_rx.c **** *
 375:Generated_Source\PSoC5/uart_rx.c **** *******************************************************************************/
 376:Generated_Source\PSoC5/uart_rx.c **** void uart_rx_SetPending(void)
 377:Generated_Source\PSoC5/uart_rx.c **** {
 406              		.loc 1 377 0
 407              		.cfi_startproc
 408              		@ args = 0, pretend = 0, frame = 0
 409              		@ frame_needed = 0, uses_anonymous_args = 0
 410              		@ link register save eliminated.
 378:Generated_Source\PSoC5/uart_rx.c ****     *uart_rx_INTC_SET_PD = uart_rx__INTC_MASK;
 411              		.loc 1 378 0
 412 0000 024B     		ldr	r3, .L33
 413 0002 4FF40062 		mov	r2, #2048
 414 0006 1A60     		str	r2, [r3]
 415 0008 7047     		bx	lr
 416              	.L34:
 417 000a 00BF     		.align	2
 418              	.L33:
 419 000c 00E200E0 		.word	-536813056
 420              		.cfi_endproc
 421              	.LFE11:
 422              		.size	uart_rx_SetPending, .-uart_rx_SetPending
 423              		.section	.text.uart_rx_ClearPending,"ax",%progbits
 424              		.align	1
 425              		.global	uart_rx_ClearPending
 426              		.thumb
 427              		.thumb_func
 428              		.type	uart_rx_ClearPending, %function
 429              	uart_rx_ClearPending:
 430              	.LFB12:
 379:Generated_Source\PSoC5/uart_rx.c **** }
 380:Generated_Source\PSoC5/uart_rx.c **** 
 381:Generated_Source\PSoC5/uart_rx.c **** 
 382:Generated_Source\PSoC5/uart_rx.c **** /*******************************************************************************
 383:Generated_Source\PSoC5/uart_rx.c **** * Function Name: uart_rx_ClearPending
 384:Generated_Source\PSoC5/uart_rx.c **** ********************************************************************************
 385:Generated_Source\PSoC5/uart_rx.c **** *
 386:Generated_Source\PSoC5/uart_rx.c **** * Summary:
 387:Generated_Source\PSoC5/uart_rx.c **** *   Clears a pending interrupt in the interrupt controller.
 388:Generated_Source\PSoC5/uart_rx.c **** *
 389:Generated_Source\PSoC5/uart_rx.c **** *   Note Some interrupt sources are clear-on-read and require the block 
 390:Generated_Source\PSoC5/uart_rx.c **** *   interrupt/status register to be read/cleared with the appropriate block API 
 391:Generated_Source\PSoC5/uart_rx.c **** *   (GPIO, UART, and so on). Otherwise the ISR will continue to remain in 
 392:Generated_Source\PSoC5/uart_rx.c **** *   pending state even though the interrupt itself is cleared using this API.
 393:Generated_Source\PSoC5/uart_rx.c **** *
ARM GAS  C:\Users\chemi\AppData\Local\Temp\ccIirTms.s 			page 16


 394:Generated_Source\PSoC5/uart_rx.c **** * Parameters:
 395:Generated_Source\PSoC5/uart_rx.c **** *   None
 396:Generated_Source\PSoC5/uart_rx.c **** *
 397:Generated_Source\PSoC5/uart_rx.c **** * Return:
 398:Generated_Source\PSoC5/uart_rx.c **** *   None
 399:Generated_Source\PSoC5/uart_rx.c **** *
 400:Generated_Source\PSoC5/uart_rx.c **** *******************************************************************************/
 401:Generated_Source\PSoC5/uart_rx.c **** void uart_rx_ClearPending(void)
 402:Generated_Source\PSoC5/uart_rx.c **** {
 431              		.loc 1 402 0
 432              		.cfi_startproc
 433              		@ args = 0, pretend = 0, frame = 0
 434              		@ frame_needed = 0, uses_anonymous_args = 0
 435              		@ link register save eliminated.
 403:Generated_Source\PSoC5/uart_rx.c ****     *uart_rx_INTC_CLR_PD = uart_rx__INTC_MASK;
 436              		.loc 1 403 0
 437 0000 024B     		ldr	r3, .L36
 438 0002 4FF40062 		mov	r2, #2048
 439 0006 1A60     		str	r2, [r3]
 440 0008 7047     		bx	lr
 441              	.L37:
 442 000a 00BF     		.align	2
 443              	.L36:
 444 000c 80E200E0 		.word	-536812928
 445              		.cfi_endproc
 446              	.LFE12:
 447              		.size	uart_rx_ClearPending, .-uart_rx_ClearPending
 448              		.text
 449              	.Letext0:
 450              		.file 2 "Generated_Source\\PSoC5/cytypes.h"