ARM GAS  C:\Users\chemi\AppData\Local\Temp\cceWQSsJ.s 			page 1


   1              		.syntax unified
   2              		.cpu cortex-m3
   3              		.fpu softvfp
   4              		.eabi_attribute 20, 1
   5              		.eabi_attribute 21, 1
   6              		.eabi_attribute 23, 3
   7              		.eabi_attribute 24, 1
   8              		.eabi_attribute 25, 1
   9              		.eabi_attribute 26, 1
  10              		.eabi_attribute 30, 4
  11              		.eabi_attribute 34, 1
  12              		.eabi_attribute 18, 4
  13              		.thumb
  14              		.syntax unified
  15              		.file	"USBUART_1_cdc.c"
  16              		.text
  17              	.Ltext0:
  18              		.cfi_sections	.debug_frame
  19              		.section	.text.USBUART_1_GetInterfaceComPort,"ax",%progbits
  20              		.align	1
  21              		.global	USBUART_1_GetInterfaceComPort
  22              		.thumb
  23              		.thumb_func
  24              		.type	USBUART_1_GetInterfaceComPort, %function
  25              	USBUART_1_GetInterfaceComPort:
  26              	.LFB1:
  27              		.file 1 "Generated_Source\\PSoC5\\USBUART_1_cdc.c"
   1:Generated_Source\PSoC5/USBUART_1_cdc.c **** /***************************************************************************//**
   2:Generated_Source\PSoC5/USBUART_1_cdc.c **** * \file USBUART_1_cdc.c
   3:Generated_Source\PSoC5/USBUART_1_cdc.c **** * \version 3.20
   4:Generated_Source\PSoC5/USBUART_1_cdc.c **** *
   5:Generated_Source\PSoC5/USBUART_1_cdc.c **** * \brief
   6:Generated_Source\PSoC5/USBUART_1_cdc.c **** *  This file contains the USB CDC class request handler.
   7:Generated_Source\PSoC5/USBUART_1_cdc.c **** *
   8:Generated_Source\PSoC5/USBUART_1_cdc.c **** * Related Document:
   9:Generated_Source\PSoC5/USBUART_1_cdc.c **** *  Universal Serial Bus Class Definitions for Communication Devices Version 1.1
  10:Generated_Source\PSoC5/USBUART_1_cdc.c **** *
  11:Generated_Source\PSoC5/USBUART_1_cdc.c **** ********************************************************************************
  12:Generated_Source\PSoC5/USBUART_1_cdc.c **** * \copyright
  13:Generated_Source\PSoC5/USBUART_1_cdc.c **** * Copyright 2012-2016, Cypress Semiconductor Corporation.  All rights reserved.
  14:Generated_Source\PSoC5/USBUART_1_cdc.c **** * You may use this file only in accordance with the license, terms, conditions,
  15:Generated_Source\PSoC5/USBUART_1_cdc.c **** * disclaimers, and limitations in the end user license agreement accompanying
  16:Generated_Source\PSoC5/USBUART_1_cdc.c **** * the software package with which this file was provided.
  17:Generated_Source\PSoC5/USBUART_1_cdc.c **** *******************************************************************************/
  18:Generated_Source\PSoC5/USBUART_1_cdc.c **** 
  19:Generated_Source\PSoC5/USBUART_1_cdc.c **** #include "USBUART_1_cdc.h"
  20:Generated_Source\PSoC5/USBUART_1_cdc.c **** #include "USBUART_1_pvt.h"
  21:Generated_Source\PSoC5/USBUART_1_cdc.c **** 
  22:Generated_Source\PSoC5/USBUART_1_cdc.c **** 
  23:Generated_Source\PSoC5/USBUART_1_cdc.c **** #if defined(USBUART_1_ENABLE_CDC_CLASS)
  24:Generated_Source\PSoC5/USBUART_1_cdc.c **** 
  25:Generated_Source\PSoC5/USBUART_1_cdc.c **** /*******************************************************************************
  26:Generated_Source\PSoC5/USBUART_1_cdc.c **** *    CDC Variables
  27:Generated_Source\PSoC5/USBUART_1_cdc.c **** *******************************************************************************/
  28:Generated_Source\PSoC5/USBUART_1_cdc.c **** 
  29:Generated_Source\PSoC5/USBUART_1_cdc.c **** /*PUBLIC*/
  30:Generated_Source\PSoC5/USBUART_1_cdc.c **** /** Contains the current line coding structure. The host sets it using a
ARM GAS  C:\Users\chemi\AppData\Local\Temp\cceWQSsJ.s 			page 2


  31:Generated_Source\PSoC5/USBUART_1_cdc.c ****  * SET_LINE_CODING request and returns it to the user code using the
  32:Generated_Source\PSoC5/USBUART_1_cdc.c ****  * USBUART_1_GetDTERate(), USBUART_1_GetCharFormat(),
  33:Generated_Source\PSoC5/USBUART_1_cdc.c ****  * USBUART_1_GetParityType(), and USBUART_1_GetDataBits() APIs.
  34:Generated_Source\PSoC5/USBUART_1_cdc.c ****  * It is an array of 2 elements for COM port 1 and COM port 2 for MultiCOM port
  35:Generated_Source\PSoC5/USBUART_1_cdc.c ****  * support. In case of 1 COM port, data is in 0 element.*/
  36:Generated_Source\PSoC5/USBUART_1_cdc.c **** volatile uint8 USBUART_1_linesCoding[USBUART_1_MAX_MULTI_COM_NUM][USBUART_1_LINE_CODING_SIZE] =
  37:Generated_Source\PSoC5/USBUART_1_cdc.c **** {
  38:Generated_Source\PSoC5/USBUART_1_cdc.c ****     /*COM Port 1*/
  39:Generated_Source\PSoC5/USBUART_1_cdc.c ****     {
  40:Generated_Source\PSoC5/USBUART_1_cdc.c ****     0x00u, 0xC2u, 0x01u, 0x00u,     /* Data terminal rate 115200 */
  41:Generated_Source\PSoC5/USBUART_1_cdc.c ****     0x00u,                          /* 1 Stop bit */
  42:Generated_Source\PSoC5/USBUART_1_cdc.c ****     0x00u,                          /* None parity */
  43:Generated_Source\PSoC5/USBUART_1_cdc.c ****     0x08u                           /* 8 data bits */
  44:Generated_Source\PSoC5/USBUART_1_cdc.c ****     },
  45:Generated_Source\PSoC5/USBUART_1_cdc.c ****     /*COM Port 2*/
  46:Generated_Source\PSoC5/USBUART_1_cdc.c ****     {
  47:Generated_Source\PSoC5/USBUART_1_cdc.c ****     0x00u, 0xC2u, 0x01u, 0x00u,     /* Data terminal rate 115200 */
  48:Generated_Source\PSoC5/USBUART_1_cdc.c ****     0x00u,                          /* 1 Stop bit */
  49:Generated_Source\PSoC5/USBUART_1_cdc.c ****     0x00u,                          /* None parity */
  50:Generated_Source\PSoC5/USBUART_1_cdc.c ****     0x08u                           /* 8 data bits */
  51:Generated_Source\PSoC5/USBUART_1_cdc.c ****     }
  52:Generated_Source\PSoC5/USBUART_1_cdc.c **** };
  53:Generated_Source\PSoC5/USBUART_1_cdc.c **** 
  54:Generated_Source\PSoC5/USBUART_1_cdc.c **** /**Used as a flag for the USBUART_1_IsLineChanged() API, to inform it that the
  55:Generated_Source\PSoC5/USBUART_1_cdc.c ****  * host has been sent a request to change line coding or control bitmap. It is 
  56:Generated_Source\PSoC5/USBUART_1_cdc.c ****  * an array of 2 elements for COM port 1 and COM port 2 for MultiCOM port 
  57:Generated_Source\PSoC5/USBUART_1_cdc.c ****  * support. In case of 1 COM port, data is in 0 element.*/
  58:Generated_Source\PSoC5/USBUART_1_cdc.c **** volatile uint8  USBUART_1_linesChanged[USBUART_1_MAX_MULTI_COM_NUM];
  59:Generated_Source\PSoC5/USBUART_1_cdc.c **** /** Contains the current control-signal bitmap. The host sets it using a
  60:Generated_Source\PSoC5/USBUART_1_cdc.c ****  * SET_CONTROL_LINE request and returns it to the user code using the 
  61:Generated_Source\PSoC5/USBUART_1_cdc.c ****  * USBUART_1_GetLineControl() API. It is an array of 2 elements for COM 
  62:Generated_Source\PSoC5/USBUART_1_cdc.c ****  * port 1 and COM port 2 for MultiCOM port support. In case of 1 COM port, data 
  63:Generated_Source\PSoC5/USBUART_1_cdc.c ****  * is in 0 element.*/
  64:Generated_Source\PSoC5/USBUART_1_cdc.c **** volatile uint16 USBUART_1_linesControlBitmap[USBUART_1_MAX_MULTI_COM_NUM];
  65:Generated_Source\PSoC5/USBUART_1_cdc.c **** /** Contains the 16-bit serial state value that was sent using the 
  66:Generated_Source\PSoC5/USBUART_1_cdc.c ****  * \ref USBUART_1_SendSerialState() API. . It is an array of 2 elements 
  67:Generated_Source\PSoC5/USBUART_1_cdc.c ****  * for COM port 1 and COM port 2 for MultiCOM port support. In case of 1 COM 
  68:Generated_Source\PSoC5/USBUART_1_cdc.c ****  * port, data is in 0 element.*/
  69:Generated_Source\PSoC5/USBUART_1_cdc.c **** volatile uint16 USBUART_1_serialStateBitmap[USBUART_1_MAX_MULTI_COM_NUM];
  70:Generated_Source\PSoC5/USBUART_1_cdc.c **** /** Contains the data IN endpoint number. It is initialized after a 
  71:Generated_Source\PSoC5/USBUART_1_cdc.c ****  * SET_CONFIGURATION request based on a user descriptor. It is used in CDC APIs 
  72:Generated_Source\PSoC5/USBUART_1_cdc.c ****  * to send data to the PC. It is an array of 2 elements for COM port 1 and COM 
  73:Generated_Source\PSoC5/USBUART_1_cdc.c ****  * port 2 for MultiCOM port support. In case of 1 COM port, data is in 0 element.*/
  74:Generated_Source\PSoC5/USBUART_1_cdc.c **** volatile uint8  USBUART_1_cdcDataInEp[USBUART_1_MAX_MULTI_COM_NUM];
  75:Generated_Source\PSoC5/USBUART_1_cdc.c **** /** Contains the data OUT endpoint number. It is initialized after a 
  76:Generated_Source\PSoC5/USBUART_1_cdc.c ****  * SET_CONFIGURATION request based on user descriptor. It is used in CDC APIs to 
  77:Generated_Source\PSoC5/USBUART_1_cdc.c ****  * receive data from the PC. It is an array of 2 elements for COM port 1 and COM  
  78:Generated_Source\PSoC5/USBUART_1_cdc.c ****  * port 2 for MultiCOM port support. In case of 1 COM port, data is in 0 element.*/
  79:Generated_Source\PSoC5/USBUART_1_cdc.c **** volatile uint8  USBUART_1_cdcDataOutEp[USBUART_1_MAX_MULTI_COM_NUM];
  80:Generated_Source\PSoC5/USBUART_1_cdc.c **** /** Contains the data IN endpoint number for COMMUNICATION interface. It is 
  81:Generated_Source\PSoC5/USBUART_1_cdc.c ****  * initialized after a SET_CONFIGURATION request based on a user descriptor. It 
  82:Generated_Source\PSoC5/USBUART_1_cdc.c ****  * is used in CDC APIs to send data to the PC. It is an array of 2 elements for 
  83:Generated_Source\PSoC5/USBUART_1_cdc.c ****  * COM port 1 and COM port 2 for MultiCOM port support. In case of 1 COM port, 
  84:Generated_Source\PSoC5/USBUART_1_cdc.c ****  * data is in 0 element.*/
  85:Generated_Source\PSoC5/USBUART_1_cdc.c **** volatile uint8  USBUART_1_cdcCommInInterruptEp[USBUART_1_MAX_MULTI_COM_NUM];
  86:Generated_Source\PSoC5/USBUART_1_cdc.c **** 
  87:Generated_Source\PSoC5/USBUART_1_cdc.c **** /*PRIVATE*/
ARM GAS  C:\Users\chemi\AppData\Local\Temp\cceWQSsJ.s 			page 3


  88:Generated_Source\PSoC5/USBUART_1_cdc.c **** 
  89:Generated_Source\PSoC5/USBUART_1_cdc.c **** #define USBUART_1_CDC_IN_EP      (0u)
  90:Generated_Source\PSoC5/USBUART_1_cdc.c **** #define USBUART_1_CDC_OUT_EP     (1u)
  91:Generated_Source\PSoC5/USBUART_1_cdc.c **** #define USBUART_1_CDC_NOTE_EP    (2u)
  92:Generated_Source\PSoC5/USBUART_1_cdc.c **** 
  93:Generated_Source\PSoC5/USBUART_1_cdc.c **** #define USBUART_1_CDC_EP_MASK    (0x01u)
  94:Generated_Source\PSoC5/USBUART_1_cdc.c **** 
  95:Generated_Source\PSoC5/USBUART_1_cdc.c **** #define USBUART_1_GET_EP_COM_NUM(cdcComNums, epType) (((cdcComNums) >> (epType)) & USBUART_1_CDC_EP
  96:Generated_Source\PSoC5/USBUART_1_cdc.c **** 
  97:Generated_Source\PSoC5/USBUART_1_cdc.c **** 
  98:Generated_Source\PSoC5/USBUART_1_cdc.c **** /***************************************
  99:Generated_Source\PSoC5/USBUART_1_cdc.c **** *     Static Function Prototypes
 100:Generated_Source\PSoC5/USBUART_1_cdc.c **** ***************************************/
 101:Generated_Source\PSoC5/USBUART_1_cdc.c **** #if (USBUART_1_ENABLE_CDC_CLASS_API != 0u)
 102:Generated_Source\PSoC5/USBUART_1_cdc.c ****     static uint16 USBUART_1_StrLen(const char8 string[]) ;
 103:Generated_Source\PSoC5/USBUART_1_cdc.c ****     static t_USBUART_1_cdc_notification USBUART_1_serialStateNotification =
 104:Generated_Source\PSoC5/USBUART_1_cdc.c ****     {
 105:Generated_Source\PSoC5/USBUART_1_cdc.c **** 
 106:Generated_Source\PSoC5/USBUART_1_cdc.c ****         USBUART_1_SERIAL_STATE_REQUEST_TYPE, /* bRequestType    */
 107:Generated_Source\PSoC5/USBUART_1_cdc.c ****         USBUART_1_SERIAL_STATE,              /* bNotification   */
 108:Generated_Source\PSoC5/USBUART_1_cdc.c ****         0u,                                         /* wValue          */
 109:Generated_Source\PSoC5/USBUART_1_cdc.c ****         0u,                                         /* wValueMSB       */
 110:Generated_Source\PSoC5/USBUART_1_cdc.c ****         0u,                                         /* wIndex          */
 111:Generated_Source\PSoC5/USBUART_1_cdc.c ****         0u,                                         /* wIndexMSB       */
 112:Generated_Source\PSoC5/USBUART_1_cdc.c ****         USBUART_1_SERIAL_STATE_LENGTH,       /* wLength         */
 113:Generated_Source\PSoC5/USBUART_1_cdc.c ****         0u,                                         /* wLengthMSB      */
 114:Generated_Source\PSoC5/USBUART_1_cdc.c ****         0u,                                         /* wSerialState    */
 115:Generated_Source\PSoC5/USBUART_1_cdc.c ****         0u,                                         /* wSerialStateMSB */
 116:Generated_Source\PSoC5/USBUART_1_cdc.c ****     };
 117:Generated_Source\PSoC5/USBUART_1_cdc.c ****     static uint8 USBUART_1_activeCom = 0u;
 118:Generated_Source\PSoC5/USBUART_1_cdc.c **** #endif /* (USBUART_1_ENABLE_CDC_CLASS_API != 0u) */
 119:Generated_Source\PSoC5/USBUART_1_cdc.c **** 
 120:Generated_Source\PSoC5/USBUART_1_cdc.c **** 
 121:Generated_Source\PSoC5/USBUART_1_cdc.c **** /***************************************
 122:Generated_Source\PSoC5/USBUART_1_cdc.c **** * Custom Declarations
 123:Generated_Source\PSoC5/USBUART_1_cdc.c **** ***************************************/
 124:Generated_Source\PSoC5/USBUART_1_cdc.c **** 
 125:Generated_Source\PSoC5/USBUART_1_cdc.c **** /* `#START CDC_CUSTOM_DECLARATIONS` Place your declaration here */
 126:Generated_Source\PSoC5/USBUART_1_cdc.c **** 
 127:Generated_Source\PSoC5/USBUART_1_cdc.c **** /* `#END` */
 128:Generated_Source\PSoC5/USBUART_1_cdc.c **** 
 129:Generated_Source\PSoC5/USBUART_1_cdc.c **** 
 130:Generated_Source\PSoC5/USBUART_1_cdc.c **** /*******************************************************************************
 131:Generated_Source\PSoC5/USBUART_1_cdc.c **** * Function Name: USBUART_1_DispatchCDCClassRqst
 132:Generated_Source\PSoC5/USBUART_1_cdc.c **** ****************************************************************************//**
 133:Generated_Source\PSoC5/USBUART_1_cdc.c **** *
 134:Generated_Source\PSoC5/USBUART_1_cdc.c **** *  This routine dispatches CDC class requests.
 135:Generated_Source\PSoC5/USBUART_1_cdc.c **** *
 136:Generated_Source\PSoC5/USBUART_1_cdc.c **** * \return
 137:Generated_Source\PSoC5/USBUART_1_cdc.c **** *  requestHandled
 138:Generated_Source\PSoC5/USBUART_1_cdc.c **** *
 139:Generated_Source\PSoC5/USBUART_1_cdc.c **** * \globalvars
 140:Generated_Source\PSoC5/USBUART_1_cdc.c **** *   USBUART_1_linesCoding: Contains the current line coding structure.
 141:Generated_Source\PSoC5/USBUART_1_cdc.c **** *     It is set by the Host using SET_LINE_CODING request and returned to the
 142:Generated_Source\PSoC5/USBUART_1_cdc.c **** *     user code by the USBFS_GetDTERate(), USBFS_GetCharFormat(),
 143:Generated_Source\PSoC5/USBUART_1_cdc.c **** *     USBFS_GetParityType(), USBFS_GetDataBits() APIs.
 144:Generated_Source\PSoC5/USBUART_1_cdc.c **** *   USBUART_1_linesControlBitmap: Contains the current control signal
ARM GAS  C:\Users\chemi\AppData\Local\Temp\cceWQSsJ.s 			page 4


 145:Generated_Source\PSoC5/USBUART_1_cdc.c **** *     bitmap. It is set by the Host using SET_CONTROL_LINE request and returned
 146:Generated_Source\PSoC5/USBUART_1_cdc.c **** *     to the user code by the USBFS_GetLineControl() API.
 147:Generated_Source\PSoC5/USBUART_1_cdc.c **** *   USBUART_1_linesChanged: This variable is used as a flag for the
 148:Generated_Source\PSoC5/USBUART_1_cdc.c **** *     USBFS_IsLineChanged() API, to be aware that Host has been sent request
 149:Generated_Source\PSoC5/USBUART_1_cdc.c **** *     for changing Line Coding or Control Bitmap.
 150:Generated_Source\PSoC5/USBUART_1_cdc.c **** *
 151:Generated_Source\PSoC5/USBUART_1_cdc.c **** * \reentrant
 152:Generated_Source\PSoC5/USBUART_1_cdc.c **** *  No.
 153:Generated_Source\PSoC5/USBUART_1_cdc.c **** *
 154:Generated_Source\PSoC5/USBUART_1_cdc.c **** *******************************************************************************/
 155:Generated_Source\PSoC5/USBUART_1_cdc.c **** uint8 USBUART_1_DispatchCDCClassRqst(void) 
 156:Generated_Source\PSoC5/USBUART_1_cdc.c **** {
 157:Generated_Source\PSoC5/USBUART_1_cdc.c ****     uint8 requestHandled = USBUART_1_FALSE;
 158:Generated_Source\PSoC5/USBUART_1_cdc.c ****     uint8 comPort;
 159:Generated_Source\PSoC5/USBUART_1_cdc.c **** 
 160:Generated_Source\PSoC5/USBUART_1_cdc.c ****     comPort = USBUART_1_GetInterfaceComPort((uint8)USBUART_1_wIndexLoReg);
 161:Generated_Source\PSoC5/USBUART_1_cdc.c **** 
 162:Generated_Source\PSoC5/USBUART_1_cdc.c ****     /* Check request direction: D2H or H2D. */
 163:Generated_Source\PSoC5/USBUART_1_cdc.c ****     if (0u != (USBUART_1_bmRequestTypeReg & USBUART_1_RQST_DIR_D2H))
 164:Generated_Source\PSoC5/USBUART_1_cdc.c ****     {
 165:Generated_Source\PSoC5/USBUART_1_cdc.c ****         /* Handle direction from device to host. */
 166:Generated_Source\PSoC5/USBUART_1_cdc.c **** 
 167:Generated_Source\PSoC5/USBUART_1_cdc.c ****         switch (USBUART_1_bRequestReg)
 168:Generated_Source\PSoC5/USBUART_1_cdc.c ****         {
 169:Generated_Source\PSoC5/USBUART_1_cdc.c ****             case USBUART_1_CDC_GET_LINE_CODING:
 170:Generated_Source\PSoC5/USBUART_1_cdc.c ****                 USBUART_1_currentTD.count = USBUART_1_LINE_CODING_SIZE;
 171:Generated_Source\PSoC5/USBUART_1_cdc.c ****                 USBUART_1_currentTD.pData = USBUART_1_linesCoding[comPort];
 172:Generated_Source\PSoC5/USBUART_1_cdc.c ****                 requestHandled  = USBUART_1_InitControlRead();
 173:Generated_Source\PSoC5/USBUART_1_cdc.c ****                 break;
 174:Generated_Source\PSoC5/USBUART_1_cdc.c **** 
 175:Generated_Source\PSoC5/USBUART_1_cdc.c ****             /* `#START CDC_READ_REQUESTS` Place other request handler here */
 176:Generated_Source\PSoC5/USBUART_1_cdc.c **** 
 177:Generated_Source\PSoC5/USBUART_1_cdc.c ****             /* `#END` */
 178:Generated_Source\PSoC5/USBUART_1_cdc.c **** 
 179:Generated_Source\PSoC5/USBUART_1_cdc.c ****             default:
 180:Generated_Source\PSoC5/USBUART_1_cdc.c ****             /* Do not handle this request unless callback is defined. */
 181:Generated_Source\PSoC5/USBUART_1_cdc.c ****             #ifdef USBUART_1_DISPATCH_CDC_CLASS_CDC_READ_REQUESTS_CALLBACK
 182:Generated_Source\PSoC5/USBUART_1_cdc.c ****                 requestHandled = USBUART_1_DispatchCDCClass_CDC_READ_REQUESTS_Callback();
 183:Generated_Source\PSoC5/USBUART_1_cdc.c ****             #endif /* (USBUART_1_DISPATCH_CDC_CLASS_CDC_READ_REQUESTS_CALLBACK) */
 184:Generated_Source\PSoC5/USBUART_1_cdc.c ****                 break;
 185:Generated_Source\PSoC5/USBUART_1_cdc.c ****         }
 186:Generated_Source\PSoC5/USBUART_1_cdc.c ****     }
 187:Generated_Source\PSoC5/USBUART_1_cdc.c ****     else
 188:Generated_Source\PSoC5/USBUART_1_cdc.c ****     {
 189:Generated_Source\PSoC5/USBUART_1_cdc.c ****         /* Handle direction from host to device. */
 190:Generated_Source\PSoC5/USBUART_1_cdc.c **** 
 191:Generated_Source\PSoC5/USBUART_1_cdc.c ****         switch (USBUART_1_bRequestReg)
 192:Generated_Source\PSoC5/USBUART_1_cdc.c ****         {
 193:Generated_Source\PSoC5/USBUART_1_cdc.c ****             case USBUART_1_CDC_SET_LINE_CODING:
 194:Generated_Source\PSoC5/USBUART_1_cdc.c ****                 USBUART_1_currentTD.count  = USBUART_1_LINE_CODING_SIZE;
 195:Generated_Source\PSoC5/USBUART_1_cdc.c ****                 USBUART_1_currentTD.pData  = USBUART_1_linesCoding[comPort];
 196:Generated_Source\PSoC5/USBUART_1_cdc.c ****                 USBUART_1_linesChanged[comPort] |= USBUART_1_LINE_CODING_CHANGED;
 197:Generated_Source\PSoC5/USBUART_1_cdc.c **** 
 198:Generated_Source\PSoC5/USBUART_1_cdc.c ****                 requestHandled = USBUART_1_InitControlWrite();
 199:Generated_Source\PSoC5/USBUART_1_cdc.c ****                 break;
 200:Generated_Source\PSoC5/USBUART_1_cdc.c **** 
 201:Generated_Source\PSoC5/USBUART_1_cdc.c ****             case USBUART_1_CDC_SET_CONTROL_LINE_STATE:
ARM GAS  C:\Users\chemi\AppData\Local\Temp\cceWQSsJ.s 			page 5


 202:Generated_Source\PSoC5/USBUART_1_cdc.c ****                 USBUART_1_linesControlBitmap[comPort] = (uint8) USBUART_1_wValueLoReg;
 203:Generated_Source\PSoC5/USBUART_1_cdc.c ****                 USBUART_1_linesChanged[comPort]      |= USBUART_1_LINE_CONTROL_CHANGED;
 204:Generated_Source\PSoC5/USBUART_1_cdc.c **** 
 205:Generated_Source\PSoC5/USBUART_1_cdc.c ****                 requestHandled = USBUART_1_InitNoDataControlTransfer();
 206:Generated_Source\PSoC5/USBUART_1_cdc.c ****                 break;
 207:Generated_Source\PSoC5/USBUART_1_cdc.c **** 
 208:Generated_Source\PSoC5/USBUART_1_cdc.c ****             /* `#START CDC_WRITE_REQUESTS` Place other request handler here */
 209:Generated_Source\PSoC5/USBUART_1_cdc.c **** 
 210:Generated_Source\PSoC5/USBUART_1_cdc.c ****             /* `#END` */
 211:Generated_Source\PSoC5/USBUART_1_cdc.c **** 
 212:Generated_Source\PSoC5/USBUART_1_cdc.c ****             default:
 213:Generated_Source\PSoC5/USBUART_1_cdc.c ****                 /* Do not handle this request unless callback is defined. */
 214:Generated_Source\PSoC5/USBUART_1_cdc.c ****             #ifdef USBUART_1_DISPATCH_CDC_CLASS_CDC_WRITE_REQUESTS_CALLBACK
 215:Generated_Source\PSoC5/USBUART_1_cdc.c ****                 requestHandled = USBUART_1_DispatchCDCClass_CDC_WRITE_REQUESTS_Callback();
 216:Generated_Source\PSoC5/USBUART_1_cdc.c ****             #endif /* (USBUART_1_DISPATCH_CDC_CLASS_CDC_WRITE_REQUESTS_CALLBACK) */
 217:Generated_Source\PSoC5/USBUART_1_cdc.c ****                 break;
 218:Generated_Source\PSoC5/USBUART_1_cdc.c ****         }
 219:Generated_Source\PSoC5/USBUART_1_cdc.c ****     }
 220:Generated_Source\PSoC5/USBUART_1_cdc.c **** 
 221:Generated_Source\PSoC5/USBUART_1_cdc.c ****     return(requestHandled);
 222:Generated_Source\PSoC5/USBUART_1_cdc.c **** }
 223:Generated_Source\PSoC5/USBUART_1_cdc.c **** 
 224:Generated_Source\PSoC5/USBUART_1_cdc.c **** 
 225:Generated_Source\PSoC5/USBUART_1_cdc.c **** /***************************************************************************
 226:Generated_Source\PSoC5/USBUART_1_cdc.c **** * Function Name: USBUART_1_GetInterfaceComPort
 227:Generated_Source\PSoC5/USBUART_1_cdc.c **** ************************************************************************//**
 228:Generated_Source\PSoC5/USBUART_1_cdc.c **** *   \internal
 229:Generated_Source\PSoC5/USBUART_1_cdc.c **** *  Internal function which gets number of COM port by specified interface
 230:Generated_Source\PSoC5/USBUART_1_cdc.c **** *   number.
 231:Generated_Source\PSoC5/USBUART_1_cdc.c **** *
 232:Generated_Source\PSoC5/USBUART_1_cdc.c **** * \param uint8 interface
 233:Generated_Source\PSoC5/USBUART_1_cdc.c **** *  Interface number
 234:Generated_Source\PSoC5/USBUART_1_cdc.c **** *
 235:Generated_Source\PSoC5/USBUART_1_cdc.c **** * \return
 236:Generated_Source\PSoC5/USBUART_1_cdc.c **** *  COM port number (0 or 1) or error 0xFF
 237:Generated_Source\PSoC5/USBUART_1_cdc.c **** *
 238:Generated_Source\PSoC5/USBUART_1_cdc.c **** ***************************************************************************/
 239:Generated_Source\PSoC5/USBUART_1_cdc.c **** uint8 USBUART_1_GetInterfaceComPort(uint8 interface) 
 240:Generated_Source\PSoC5/USBUART_1_cdc.c **** {
  28              		.loc 1 240 0
  29              		.cfi_startproc
  30              		@ args = 0, pretend = 0, frame = 0
  31              		@ frame_needed = 0, uses_anonymous_args = 0
  32              	.LVL0:
  33 0000 70B5     		push	{r4, r5, r6, lr}
  34              		.cfi_def_cfa_offset 16
  35              		.cfi_offset 4, -16
  36              		.cfi_offset 5, -12
  37              		.cfi_offset 6, -8
  38              		.cfi_offset 14, -4
 241:Generated_Source\PSoC5/USBUART_1_cdc.c ****     uint8 comPort = 0u;
 242:Generated_Source\PSoC5/USBUART_1_cdc.c ****     uint8 res = 0xFFu;
 243:Generated_Source\PSoC5/USBUART_1_cdc.c ****     uint8 notEp;
 244:Generated_Source\PSoC5/USBUART_1_cdc.c **** 
 245:Generated_Source\PSoC5/USBUART_1_cdc.c ****     while (comPort < USBUART_1_MAX_MULTI_COM_NUM)
 246:Generated_Source\PSoC5/USBUART_1_cdc.c ****     {
 247:Generated_Source\PSoC5/USBUART_1_cdc.c ****         notEp = USBUART_1_cdcCommInInterruptEp[comPort];
ARM GAS  C:\Users\chemi\AppData\Local\Temp\cceWQSsJ.s 			page 6


  39              		.loc 1 247 0
  40 0002 094C     		ldr	r4, .L7
 248:Generated_Source\PSoC5/USBUART_1_cdc.c **** 
 249:Generated_Source\PSoC5/USBUART_1_cdc.c ****         if (USBUART_1_EP[notEp].interface == interface)
  41              		.loc 1 249 0
  42 0004 094D     		ldr	r5, .L7+4
 242:Generated_Source\PSoC5/USBUART_1_cdc.c ****     uint8 notEp;
  43              		.loc 1 242 0
  44 0006 FF21     		movs	r1, #255
 241:Generated_Source\PSoC5/USBUART_1_cdc.c ****     uint8 comPort = 0u;
  45              		.loc 1 241 0
  46 0008 0023     		movs	r3, #0
  47              		.loc 1 249 0
  48 000a 0C26     		movs	r6, #12
  49              	.LVL1:
  50              	.L3:
 247:Generated_Source\PSoC5/USBUART_1_cdc.c **** 
  51              		.loc 1 247 0
  52 000c E25C     		ldrb	r2, [r4, r3]	@ zero_extendqisi2
  53              	.LVL2:
  54              		.loc 1 249 0
  55 000e 06FB0252 		mla	r2, r6, r2, r5
  56              	.LVL3:
  57 0012 927A     		ldrb	r2, [r2, #10]	@ zero_extendqisi2
  58 0014 8242     		cmp	r2, r0
  59 0016 04BF     		itt	eq
  60 0018 1946     		moveq	r1, r3
  61              	.LVL4:
 250:Generated_Source\PSoC5/USBUART_1_cdc.c ****         {
 251:Generated_Source\PSoC5/USBUART_1_cdc.c ****             res = comPort;
 252:Generated_Source\PSoC5/USBUART_1_cdc.c ****             comPort = USBUART_1_MAX_MULTI_COM_NUM;
  62              		.loc 1 252 0
  63 001a 0223     		moveq	r3, #2
 253:Generated_Source\PSoC5/USBUART_1_cdc.c ****         }
 254:Generated_Source\PSoC5/USBUART_1_cdc.c **** 
 255:Generated_Source\PSoC5/USBUART_1_cdc.c ****         comPort++;
  64              		.loc 1 255 0
  65 001c 0133     		adds	r3, r3, #1
  66              	.LVL5:
  67 001e DBB2     		uxtb	r3, r3
 245:Generated_Source\PSoC5/USBUART_1_cdc.c ****     {
  68              		.loc 1 245 0
  69 0020 012B     		cmp	r3, #1
  70 0022 F3D0     		beq	.L3
  71              	.LVL6:
 256:Generated_Source\PSoC5/USBUART_1_cdc.c ****     }
 257:Generated_Source\PSoC5/USBUART_1_cdc.c ****     return (res);
 258:Generated_Source\PSoC5/USBUART_1_cdc.c **** }
  72              		.loc 1 258 0
  73 0024 0846     		mov	r0, r1
  74              	.LVL7:
  75 0026 70BD     		pop	{r4, r5, r6, pc}
  76              	.L8:
  77              		.align	2
  78              	.L7:
  79 0028 00000000 		.word	USBUART_1_cdcCommInInterruptEp
  80 002c 00000000 		.word	USBUART_1_EP
ARM GAS  C:\Users\chemi\AppData\Local\Temp\cceWQSsJ.s 			page 7


  81              		.cfi_endproc
  82              	.LFE1:
  83              		.size	USBUART_1_GetInterfaceComPort, .-USBUART_1_GetInterfaceComPort
  84              		.section	.text.USBUART_1_DispatchCDCClassRqst,"ax",%progbits
  85              		.align	1
  86              		.global	USBUART_1_DispatchCDCClassRqst
  87              		.thumb
  88              		.thumb_func
  89              		.type	USBUART_1_DispatchCDCClassRqst, %function
  90              	USBUART_1_DispatchCDCClassRqst:
  91              	.LFB0:
 156:Generated_Source\PSoC5/USBUART_1_cdc.c ****     uint8 requestHandled = USBUART_1_FALSE;
  92              		.loc 1 156 0
  93              		.cfi_startproc
  94              		@ args = 0, pretend = 0, frame = 0
  95              		@ frame_needed = 0, uses_anonymous_args = 0
  96              	.LVL8:
  97 0000 10B5     		push	{r4, lr}
  98              		.cfi_def_cfa_offset 8
  99              		.cfi_offset 4, -8
 100              		.cfi_offset 14, -4
 160:Generated_Source\PSoC5/USBUART_1_cdc.c **** 
 101              		.loc 1 160 0
 102 0002 1E4C     		ldr	r4, .L17
 103 0004 2079     		ldrb	r0, [r4, #4]	@ zero_extendqisi2
 104 0006 FFF7FEFF 		bl	USBUART_1_GetInterfaceComPort
 105              	.LVL9:
 163:Generated_Source\PSoC5/USBUART_1_cdc.c ****     {
 106              		.loc 1 163 0
 107 000a 2378     		ldrb	r3, [r4]	@ zero_extendqisi2
 108 000c 13F0800F 		tst	r3, #128
 167:Generated_Source\PSoC5/USBUART_1_cdc.c ****         {
 109              		.loc 1 167 0
 110 0010 6378     		ldrb	r3, [r4, #1]	@ zero_extendqisi2
 163:Generated_Source\PSoC5/USBUART_1_cdc.c ****     {
 111              		.loc 1 163 0
 112 0012 0DD0     		beq	.L10
 167:Generated_Source\PSoC5/USBUART_1_cdc.c ****         {
 113              		.loc 1 167 0
 114 0014 212B     		cmp	r3, #33
 115 0016 2ED1     		bne	.L11
 222:Generated_Source\PSoC5/USBUART_1_cdc.c **** 
 116              		.loc 1 222 0
 117 0018 BDE81040 		pop	{r4, lr}
 118              		.cfi_remember_state
 119              		.cfi_restore 14
 120              		.cfi_restore 4
 121              		.cfi_def_cfa_offset 0
 170:Generated_Source\PSoC5/USBUART_1_cdc.c ****                 USBUART_1_currentTD.pData = USBUART_1_linesCoding[comPort];
 122              		.loc 1 170 0
 123 001c 184B     		ldr	r3, .L17+4
 124 001e 0722     		movs	r2, #7
 125 0020 1A80     		strh	r2, [r3]	@ movhi
 171:Generated_Source\PSoC5/USBUART_1_cdc.c ****                 requestHandled  = USBUART_1_InitControlRead();
 126              		.loc 1 171 0
 127 0022 184A     		ldr	r2, .L17+8
 128 0024 C0EBC000 		rsb	r0, r0, r0, lsl #3
ARM GAS  C:\Users\chemi\AppData\Local\Temp\cceWQSsJ.s 			page 8


 129              	.LVL10:
 130 0028 1044     		add	r0, r0, r2
 131 002a 5860     		str	r0, [r3, #4]
 172:Generated_Source\PSoC5/USBUART_1_cdc.c ****                 break;
 132              		.loc 1 172 0
 133 002c FFF7FEBF 		b	USBUART_1_InitControlRead
 134              	.LVL11:
 135              	.L10:
 136              		.cfi_restore_state
 191:Generated_Source\PSoC5/USBUART_1_cdc.c ****         {
 137              		.loc 1 191 0
 138 0030 DBB2     		uxtb	r3, r3
 139 0032 202B     		cmp	r3, #32
 140 0034 0ED0     		beq	.L13
 141 0036 222B     		cmp	r3, #34
 142 0038 1DD1     		bne	.L11
 202:Generated_Source\PSoC5/USBUART_1_cdc.c ****                 USBUART_1_linesChanged[comPort]      |= USBUART_1_LINE_CONTROL_CHANGED;
 143              		.loc 1 202 0
 144 003a A378     		ldrb	r3, [r4, #2]	@ zero_extendqisi2
 145 003c 124A     		ldr	r2, .L17+12
 146 003e 22F81030 		strh	r3, [r2, r0, lsl #1]	@ movhi
 203:Generated_Source\PSoC5/USBUART_1_cdc.c **** 
 147              		.loc 1 203 0
 148 0042 124A     		ldr	r2, .L17+16
 149 0044 135C     		ldrb	r3, [r2, r0]	@ zero_extendqisi2
 150 0046 43F00203 		orr	r3, r3, #2
 151 004a 1354     		strb	r3, [r2, r0]
 222:Generated_Source\PSoC5/USBUART_1_cdc.c **** 
 152              		.loc 1 222 0
 153 004c BDE81040 		pop	{r4, lr}
 154              		.cfi_remember_state
 155              		.cfi_restore 14
 156              		.cfi_restore 4
 157              		.cfi_def_cfa_offset 0
 205:Generated_Source\PSoC5/USBUART_1_cdc.c ****                 break;
 158              		.loc 1 205 0
 159 0050 FFF7FEBF 		b	USBUART_1_InitNoDataControlTransfer
 160              	.LVL12:
 161              	.L13:
 162              		.cfi_restore_state
 194:Generated_Source\PSoC5/USBUART_1_cdc.c ****                 USBUART_1_currentTD.pData  = USBUART_1_linesCoding[comPort];
 163              		.loc 1 194 0
 164 0054 0A4A     		ldr	r2, .L17+4
 165 0056 0723     		movs	r3, #7
 195:Generated_Source\PSoC5/USBUART_1_cdc.c ****                 USBUART_1_linesChanged[comPort] |= USBUART_1_LINE_CODING_CHANGED;
 166              		.loc 1 195 0
 167 0058 0A49     		ldr	r1, .L17+8
 194:Generated_Source\PSoC5/USBUART_1_cdc.c ****                 USBUART_1_currentTD.pData  = USBUART_1_linesCoding[comPort];
 168              		.loc 1 194 0
 169 005a 1380     		strh	r3, [r2]	@ movhi
 195:Generated_Source\PSoC5/USBUART_1_cdc.c ****                 USBUART_1_linesChanged[comPort] |= USBUART_1_LINE_CODING_CHANGED;
 170              		.loc 1 195 0
 171 005c C0EBC003 		rsb	r3, r0, r0, lsl #3
 172 0060 0B44     		add	r3, r3, r1
 173 0062 5360     		str	r3, [r2, #4]
 196:Generated_Source\PSoC5/USBUART_1_cdc.c **** 
 174              		.loc 1 196 0
ARM GAS  C:\Users\chemi\AppData\Local\Temp\cceWQSsJ.s 			page 9


 175 0064 094A     		ldr	r2, .L17+16
 176 0066 135C     		ldrb	r3, [r2, r0]	@ zero_extendqisi2
 177 0068 43F00103 		orr	r3, r3, #1
 178 006c 1354     		strb	r3, [r2, r0]
 222:Generated_Source\PSoC5/USBUART_1_cdc.c **** 
 179              		.loc 1 222 0
 180 006e BDE81040 		pop	{r4, lr}
 181              		.cfi_remember_state
 182              		.cfi_restore 14
 183              		.cfi_restore 4
 184              		.cfi_def_cfa_offset 0
 198:Generated_Source\PSoC5/USBUART_1_cdc.c ****                 break;
 185              		.loc 1 198 0
 186 0072 FFF7FEBF 		b	USBUART_1_InitControlWrite
 187              	.LVL13:
 188              	.L11:
 189              		.cfi_restore_state
 222:Generated_Source\PSoC5/USBUART_1_cdc.c **** 
 190              		.loc 1 222 0
 191 0076 0020     		movs	r0, #0
 192              	.LVL14:
 193 0078 10BD     		pop	{r4, pc}
 194              	.L18:
 195 007a 00BF     		.align	2
 196              	.L17:
 197 007c 00600040 		.word	1073766400
 198 0080 00000000 		.word	USBUART_1_currentTD
 199 0084 00000000 		.word	.LANCHOR0
 200 0088 00000000 		.word	USBUART_1_linesControlBitmap
 201 008c 00000000 		.word	USBUART_1_linesChanged
 202              		.cfi_endproc
 203              	.LFE0:
 204              		.size	USBUART_1_DispatchCDCClassRqst, .-USBUART_1_DispatchCDCClassRqst
 205              		.section	.text.USBUART_1_CDC_Init,"ax",%progbits
 206              		.align	1
 207              		.global	USBUART_1_CDC_Init
 208              		.thumb
 209              		.thumb_func
 210              		.type	USBUART_1_CDC_Init, %function
 211              	USBUART_1_CDC_Init:
 212              	.LFB2:
 259:Generated_Source\PSoC5/USBUART_1_cdc.c **** 
 260:Generated_Source\PSoC5/USBUART_1_cdc.c **** 
 261:Generated_Source\PSoC5/USBUART_1_cdc.c **** /***************************************
 262:Generated_Source\PSoC5/USBUART_1_cdc.c **** * Optional CDC APIs
 263:Generated_Source\PSoC5/USBUART_1_cdc.c **** ***************************************/
 264:Generated_Source\PSoC5/USBUART_1_cdc.c **** #if (USBUART_1_ENABLE_CDC_CLASS_API != 0u)
 265:Generated_Source\PSoC5/USBUART_1_cdc.c **** /***************************************************************************
 266:Generated_Source\PSoC5/USBUART_1_cdc.c **** * Function Name: USBUART_1_CDC_Init
 267:Generated_Source\PSoC5/USBUART_1_cdc.c **** ************************************************************************//**
 268:Generated_Source\PSoC5/USBUART_1_cdc.c **** *
 269:Generated_Source\PSoC5/USBUART_1_cdc.c **** *  This function initializes the CDC interface to be ready to receive data
 270:Generated_Source\PSoC5/USBUART_1_cdc.c **** *  from the PC. The API set active communication port to 0 in the case of 
 271:Generated_Source\PSoC5/USBUART_1_cdc.c **** *  multiple communication port support.This API should be called after the 
 272:Generated_Source\PSoC5/USBUART_1_cdc.c **** *  device has been started and configured using USBUART_Start() API to 
 273:Generated_Source\PSoC5/USBUART_1_cdc.c **** *  initialize and start the USBFS component operation. Then call the 
 274:Generated_Source\PSoC5/USBUART_1_cdc.c **** *  USBUART_GetConfiguration() API to wait until the host has enumerated and 
ARM GAS  C:\Users\chemi\AppData\Local\Temp\cceWQSsJ.s 			page 10


 275:Generated_Source\PSoC5/USBUART_1_cdc.c **** *  configured the device. For example:
 276:Generated_Source\PSoC5/USBUART_1_cdc.c **** *
 277:Generated_Source\PSoC5/USBUART_1_cdc.c **** *  \snippet /USBFS_sut_02.cydsn/main.c wait for enumeration
 278:Generated_Source\PSoC5/USBUART_1_cdc.c **** *
 279:Generated_Source\PSoC5/USBUART_1_cdc.c **** * \return
 280:Generated_Source\PSoC5/USBUART_1_cdc.c **** *  cystatus:
 281:Generated_Source\PSoC5/USBUART_1_cdc.c **** *   Return Value    Description
 282:Generated_Source\PSoC5/USBUART_1_cdc.c **** *   USBUART_1_SUCCESS   CDC interface was initialized correctly
 283:Generated_Source\PSoC5/USBUART_1_cdc.c **** *   USBUART_1_FAILURE   CDC interface was not initialized
 284:Generated_Source\PSoC5/USBUART_1_cdc.c **** *
 285:Generated_Source\PSoC5/USBUART_1_cdc.c **** * \globalvars
 286:Generated_Source\PSoC5/USBUART_1_cdc.c **** *   USBUART_1_linesChanged: Initialized to zero.
 287:Generated_Source\PSoC5/USBUART_1_cdc.c **** *   USBUART_1_cdcDataOutEp: Used as an OUT endpoint number.
 288:Generated_Source\PSoC5/USBUART_1_cdc.c **** *
 289:Generated_Source\PSoC5/USBUART_1_cdc.c **** * \reentrant
 290:Generated_Source\PSoC5/USBUART_1_cdc.c **** *  No.
 291:Generated_Source\PSoC5/USBUART_1_cdc.c **** *
 292:Generated_Source\PSoC5/USBUART_1_cdc.c **** *******************************************************************************/
 293:Generated_Source\PSoC5/USBUART_1_cdc.c **** uint8 USBUART_1_CDC_Init(void) 
 294:Generated_Source\PSoC5/USBUART_1_cdc.c **** {
 213              		.loc 1 294 0
 214              		.cfi_startproc
 215              		@ args = 0, pretend = 0, frame = 0
 216              		@ frame_needed = 0, uses_anonymous_args = 0
 217              	.LVL15:
 218 0000 10B5     		push	{r4, lr}
 219              		.cfi_def_cfa_offset 8
 220              		.cfi_offset 4, -8
 221              		.cfi_offset 14, -4
 295:Generated_Source\PSoC5/USBUART_1_cdc.c ****     uint8 comPort;
 296:Generated_Source\PSoC5/USBUART_1_cdc.c ****     uint8 outEp;
 297:Generated_Source\PSoC5/USBUART_1_cdc.c ****     uint8 ret = USBUART_1_SUCCESS;
 298:Generated_Source\PSoC5/USBUART_1_cdc.c **** 
 299:Generated_Source\PSoC5/USBUART_1_cdc.c ****     USBUART_1_activeCom = 0u;
 222              		.loc 1 299 0
 223 0002 164A     		ldr	r2, .L28
 224 0004 0023     		movs	r3, #0
 225 0006 1370     		strb	r3, [r2]
 300:Generated_Source\PSoC5/USBUART_1_cdc.c ****     USBUART_1_linesChanged[USBUART_1_COM_PORT1] = 0u;
 226              		.loc 1 300 0
 227 0008 154A     		ldr	r2, .L28+4
 301:Generated_Source\PSoC5/USBUART_1_cdc.c ****     USBUART_1_linesChanged[USBUART_1_COM_PORT2] = 0u;
 302:Generated_Source\PSoC5/USBUART_1_cdc.c **** 
 303:Generated_Source\PSoC5/USBUART_1_cdc.c ****     for(comPort = 0u; comPort<USBUART_1_MAX_MULTI_COM_NUM; comPort++)
 304:Generated_Source\PSoC5/USBUART_1_cdc.c ****     {
 305:Generated_Source\PSoC5/USBUART_1_cdc.c ****         outEp = USBUART_1_cdcDataOutEp[comPort];
 228              		.loc 1 305 0
 229 000a 164C     		ldr	r4, .L28+8
 300:Generated_Source\PSoC5/USBUART_1_cdc.c ****     USBUART_1_linesChanged[USBUART_1_COM_PORT1] = 0u;
 230              		.loc 1 300 0
 231 000c 1370     		strb	r3, [r2]
 301:Generated_Source\PSoC5/USBUART_1_cdc.c ****     USBUART_1_linesChanged[USBUART_1_COM_PORT2] = 0u;
 232              		.loc 1 301 0
 233 000e 5370     		strb	r3, [r2, #1]
 234              	.LVL16:
 235              		.loc 1 305 0
 236 0010 2078     		ldrb	r0, [r4]	@ zero_extendqisi2
ARM GAS  C:\Users\chemi\AppData\Local\Temp\cceWQSsJ.s 			page 11


 237 0012 C0B2     		uxtb	r0, r0
 238              	.LVL17:
 306:Generated_Source\PSoC5/USBUART_1_cdc.c ****         if((0u != outEp) && (USBUART_1_MAX_EP > outEp))
 239              		.loc 1 306 0
 240 0014 431E     		subs	r3, r0, #1
 241 0016 072B     		cmp	r3, #7
 242 0018 01D8     		bhi	.L20
 307:Generated_Source\PSoC5/USBUART_1_cdc.c ****         {
 308:Generated_Source\PSoC5/USBUART_1_cdc.c ****             USBUART_1_EnableOutEP(outEp);
 243              		.loc 1 308 0
 244 001a FFF7FEFF 		bl	USBUART_1_EnableOutEP
 245              	.LVL18:
 246              	.L20:
 305:Generated_Source\PSoC5/USBUART_1_cdc.c ****         if((0u != outEp) && (USBUART_1_MAX_EP > outEp))
 247              		.loc 1 305 0
 248 001e 6078     		ldrb	r0, [r4, #1]	@ zero_extendqisi2
 249 0020 C0B2     		uxtb	r0, r0
 250              	.LVL19:
 306:Generated_Source\PSoC5/USBUART_1_cdc.c ****         if((0u != outEp) && (USBUART_1_MAX_EP > outEp))
 251              		.loc 1 306 0
 252 0022 431E     		subs	r3, r0, #1
 253 0024 072B     		cmp	r3, #7
 254 0026 01D8     		bhi	.L21
 255              		.loc 1 308 0
 256 0028 FFF7FEFF 		bl	USBUART_1_EnableOutEP
 257              	.LVL20:
 258              	.L21:
 309:Generated_Source\PSoC5/USBUART_1_cdc.c ****         }
 310:Generated_Source\PSoC5/USBUART_1_cdc.c **** 
 311:Generated_Source\PSoC5/USBUART_1_cdc.c ****     }
 312:Generated_Source\PSoC5/USBUART_1_cdc.c **** 
 313:Generated_Source\PSoC5/USBUART_1_cdc.c ****     /* COM Port 1 should be correct to proceed. */
 314:Generated_Source\PSoC5/USBUART_1_cdc.c ****     if ((0u == USBUART_1_cdcDataInEp[USBUART_1_COM_PORT1]) \
 259              		.loc 1 314 0
 260 002c 0E4A     		ldr	r2, .L28+12
 261 002e 1378     		ldrb	r3, [r2]	@ zero_extendqisi2
 262 0030 8BB1     		cbz	r3, .L27
 315:Generated_Source\PSoC5/USBUART_1_cdc.c ****             || (0u == USBUART_1_cdcDataOutEp[USBUART_1_COM_PORT1]) \
 263              		.loc 1 315 0
 264 0032 2378     		ldrb	r3, [r4]	@ zero_extendqisi2
 265 0034 7BB1     		cbz	r3, .L27
 316:Generated_Source\PSoC5/USBUART_1_cdc.c ****             || (0u ==  USBUART_1_cdcCommInInterruptEp[USBUART_1_COM_PORT1])
 266              		.loc 1 316 0
 267 0036 0D4B     		ldr	r3, .L28+16
 268 0038 1978     		ldrb	r1, [r3]	@ zero_extendqisi2
 269 003a 61B1     		cbz	r1, .L27
 317:Generated_Source\PSoC5/USBUART_1_cdc.c ****             || (USBUART_1_cdcDataInEp[USBUART_1_COM_PORT1] >= USBUART_1_MAX_EP)
 270              		.loc 1 317 0
 271 003c 1278     		ldrb	r2, [r2]	@ zero_extendqisi2
 272 003e 082A     		cmp	r2, #8
 273 0040 09D8     		bhi	.L27
 318:Generated_Source\PSoC5/USBUART_1_cdc.c ****             || (USBUART_1_cdcDataOutEp[USBUART_1_COM_PORT1] >= USBUART_1_MAX_EP)
 274              		.loc 1 318 0
 275 0042 084A     		ldr	r2, .L28+8
 276 0044 1278     		ldrb	r2, [r2]	@ zero_extendqisi2
 277 0046 082A     		cmp	r2, #8
 278 0048 05D8     		bhi	.L27
ARM GAS  C:\Users\chemi\AppData\Local\Temp\cceWQSsJ.s 			page 12


 319:Generated_Source\PSoC5/USBUART_1_cdc.c ****             || (USBUART_1_cdcCommInInterruptEp[USBUART_1_COM_PORT1] >= USBUART_1_MAX_EP))
 279              		.loc 1 319 0
 280 004a 1878     		ldrb	r0, [r3]	@ zero_extendqisi2
 297:Generated_Source\PSoC5/USBUART_1_cdc.c **** 
 281              		.loc 1 297 0
 282 004c 0828     		cmp	r0, #8
 283 004e 94BF     		ite	ls
 284 0050 0020     		movls	r0, #0
 285 0052 0120     		movhi	r0, #1
 286 0054 10BD     		pop	{r4, pc}
 287              	.L27:
 320:Generated_Source\PSoC5/USBUART_1_cdc.c ****     {
 321:Generated_Source\PSoC5/USBUART_1_cdc.c ****         ret = USBUART_1_FAILURE;
 288              		.loc 1 321 0
 289 0056 0120     		movs	r0, #1
 290              	.LVL21:
 322:Generated_Source\PSoC5/USBUART_1_cdc.c ****     }
 323:Generated_Source\PSoC5/USBUART_1_cdc.c **** 
 324:Generated_Source\PSoC5/USBUART_1_cdc.c ****     return (ret);
 325:Generated_Source\PSoC5/USBUART_1_cdc.c **** }
 291              		.loc 1 325 0
 292 0058 10BD     		pop	{r4, pc}
 293              	.L29:
 294 005a 00BF     		.align	2
 295              	.L28:
 296 005c 00000000 		.word	.LANCHOR1
 297 0060 00000000 		.word	USBUART_1_linesChanged
 298 0064 00000000 		.word	USBUART_1_cdcDataOutEp
 299 0068 00000000 		.word	USBUART_1_cdcDataInEp
 300 006c 00000000 		.word	USBUART_1_cdcCommInInterruptEp
 301              		.cfi_endproc
 302              	.LFE2:
 303              		.size	USBUART_1_CDC_Init, .-USBUART_1_CDC_Init
 304              		.section	.text.USBUART_1_PutData,"ax",%progbits
 305              		.align	1
 306              		.global	USBUART_1_PutData
 307              		.thumb
 308              		.thumb_func
 309              		.type	USBUART_1_PutData, %function
 310              	USBUART_1_PutData:
 311              	.LFB3:
 326:Generated_Source\PSoC5/USBUART_1_cdc.c **** 
 327:Generated_Source\PSoC5/USBUART_1_cdc.c **** 
 328:Generated_Source\PSoC5/USBUART_1_cdc.c **** /*******************************************************************************
 329:Generated_Source\PSoC5/USBUART_1_cdc.c **** * Function Name: USBUART_1_PutData
 330:Generated_Source\PSoC5/USBUART_1_cdc.c **** ****************************************************************************//**
 331:Generated_Source\PSoC5/USBUART_1_cdc.c **** *
 332:Generated_Source\PSoC5/USBUART_1_cdc.c **** *  This function sends a specified number of bytes from the location specified
 333:Generated_Source\PSoC5/USBUART_1_cdc.c **** *  by a pointer to the PC. The USBUART_1_CDCIsReady() function should be
 334:Generated_Source\PSoC5/USBUART_1_cdc.c **** *  called before sending new data, to be sure that the previous data has
 335:Generated_Source\PSoC5/USBUART_1_cdc.c **** *  finished sending.
 336:Generated_Source\PSoC5/USBUART_1_cdc.c **** *  If the last sent packet is less than maximum packet size the USB transfer
 337:Generated_Source\PSoC5/USBUART_1_cdc.c **** *  of this short packet will identify the end of the segment. If the last sent
 338:Generated_Source\PSoC5/USBUART_1_cdc.c **** *  packet is exactly maximum packet size, it shall be followed by a zero-length
 339:Generated_Source\PSoC5/USBUART_1_cdc.c **** *  packet (which is a short packet) to assure the end of segment is properly
 340:Generated_Source\PSoC5/USBUART_1_cdc.c **** *  identified. To send zero-length packet, use USBUART_1_PutData() API
 341:Generated_Source\PSoC5/USBUART_1_cdc.c **** *  with length parameter set to zero.
ARM GAS  C:\Users\chemi\AppData\Local\Temp\cceWQSsJ.s 			page 13


 342:Generated_Source\PSoC5/USBUART_1_cdc.c **** *
 343:Generated_Source\PSoC5/USBUART_1_cdc.c **** *  \param pData: pointer to the buffer containing data to be sent.
 344:Generated_Source\PSoC5/USBUART_1_cdc.c **** *  \param length: Specifies the number of bytes to send from the pData
 345:Generated_Source\PSoC5/USBUART_1_cdc.c **** *  buffer. Maximum length will be limited by the maximum packet
 346:Generated_Source\PSoC5/USBUART_1_cdc.c **** *  size for the endpoint. Data will be lost if length is greater than Max
 347:Generated_Source\PSoC5/USBUART_1_cdc.c **** *  Packet Size.
 348:Generated_Source\PSoC5/USBUART_1_cdc.c **** *
 349:Generated_Source\PSoC5/USBUART_1_cdc.c **** * \globalvars
 350:Generated_Source\PSoC5/USBUART_1_cdc.c **** *
 351:Generated_Source\PSoC5/USBUART_1_cdc.c **** *   USBUART_1_cdcDataInEp: CDC IN endpoint number used for sending
 352:Generated_Source\PSoC5/USBUART_1_cdc.c **** *     data.
 353:Generated_Source\PSoC5/USBUART_1_cdc.c **** *
 354:Generated_Source\PSoC5/USBUART_1_cdc.c **** * \reentrant
 355:Generated_Source\PSoC5/USBUART_1_cdc.c **** *  No.
 356:Generated_Source\PSoC5/USBUART_1_cdc.c **** *
 357:Generated_Source\PSoC5/USBUART_1_cdc.c **** *******************************************************************************/
 358:Generated_Source\PSoC5/USBUART_1_cdc.c **** void USBUART_1_PutData(const uint8* pData, uint16 length) 
 359:Generated_Source\PSoC5/USBUART_1_cdc.c **** {
 312              		.loc 1 359 0
 313              		.cfi_startproc
 314              		@ args = 0, pretend = 0, frame = 0
 315              		@ frame_needed = 0, uses_anonymous_args = 0
 316              		@ link register save eliminated.
 317              	.LVL22:
 318 0000 0A46     		mov	r2, r1
 319 0002 10B4     		push	{r4}
 320              		.cfi_def_cfa_offset 4
 321              		.cfi_offset 4, -4
 360:Generated_Source\PSoC5/USBUART_1_cdc.c ****     uint8 epNumber = USBUART_1_cdcDataInEp[USBUART_1_activeCom];
 322              		.loc 1 360 0
 323 0004 0A4B     		ldr	r3, .L32
 324 0006 0B49     		ldr	r1, .L32+4
 325              	.LVL23:
 326 0008 1B78     		ldrb	r3, [r3]	@ zero_extendqisi2
 361:Generated_Source\PSoC5/USBUART_1_cdc.c **** 
 362:Generated_Source\PSoC5/USBUART_1_cdc.c ****     /* Limit length to maximum packet size for endpoint. */
 363:Generated_Source\PSoC5/USBUART_1_cdc.c ****     if (length > USBUART_1_EP[epNumber].bufferSize)
 327              		.loc 1 363 0
 328 000a 0B4C     		ldr	r4, .L32+8
 360:Generated_Source\PSoC5/USBUART_1_cdc.c ****     uint8 epNumber = USBUART_1_cdcDataInEp[USBUART_1_activeCom];
 329              		.loc 1 360 0
 330 000c CB5C     		ldrb	r3, [r1, r3]	@ zero_extendqisi2
 331              		.loc 1 363 0
 332 000e 0C21     		movs	r1, #12
 360:Generated_Source\PSoC5/USBUART_1_cdc.c ****     uint8 epNumber = USBUART_1_cdcDataInEp[USBUART_1_activeCom];
 333              		.loc 1 360 0
 334 0010 DBB2     		uxtb	r3, r3
 335              	.LVL24:
 336              		.loc 1 363 0
 337 0012 01FB0341 		mla	r1, r1, r3, r4
 338 0016 0C89     		ldrh	r4, [r1, #8]
 339 0018 A4B2     		uxth	r4, r4
 340 001a 9442     		cmp	r4, r2
 364:Generated_Source\PSoC5/USBUART_1_cdc.c ****     {
 365:Generated_Source\PSoC5/USBUART_1_cdc.c ****         /* Caution: Data will be lost if length is greater than Max Packet Size. */
 366:Generated_Source\PSoC5/USBUART_1_cdc.c ****         length = USBUART_1_EP[epNumber].bufferSize;
 341              		.loc 1 366 0
ARM GAS  C:\Users\chemi\AppData\Local\Temp\cceWQSsJ.s 			page 14


 342 001c 38BF     		it	cc
 343 001e 0A89     		ldrhcc	r2, [r1, #8]
 367:Generated_Source\PSoC5/USBUART_1_cdc.c **** 
 368:Generated_Source\PSoC5/USBUART_1_cdc.c ****         /* Halt CPU in debug mode */
 369:Generated_Source\PSoC5/USBUART_1_cdc.c ****         CYASSERT(0u != 0u);
 370:Generated_Source\PSoC5/USBUART_1_cdc.c ****     }
 371:Generated_Source\PSoC5/USBUART_1_cdc.c **** 
 372:Generated_Source\PSoC5/USBUART_1_cdc.c ****     USBUART_1_LoadInEP(epNumber, pData, length);
 373:Generated_Source\PSoC5/USBUART_1_cdc.c **** }
 344              		.loc 1 373 0
 345 0020 10BC     		pop	{r4}
 346              		.cfi_restore 4
 347              		.cfi_def_cfa_offset 0
 372:Generated_Source\PSoC5/USBUART_1_cdc.c **** }
 348              		.loc 1 372 0
 349 0022 0146     		mov	r1, r0
 366:Generated_Source\PSoC5/USBUART_1_cdc.c **** 
 350              		.loc 1 366 0
 351 0024 38BF     		it	cc
 352 0026 92B2     		uxthcc	r2, r2
 353              	.LVL25:
 372:Generated_Source\PSoC5/USBUART_1_cdc.c **** }
 354              		.loc 1 372 0
 355 0028 1846     		mov	r0, r3
 356              	.LVL26:
 357 002a FFF7FEBF 		b	USBUART_1_LoadInEP
 358              	.LVL27:
 359              	.L33:
 360 002e 00BF     		.align	2
 361              	.L32:
 362 0030 00000000 		.word	.LANCHOR1
 363 0034 00000000 		.word	USBUART_1_cdcDataInEp
 364 0038 00000000 		.word	USBUART_1_EP
 365              		.cfi_endproc
 366              	.LFE3:
 367              		.size	USBUART_1_PutData, .-USBUART_1_PutData
 368              		.section	.text.USBUART_1_PutString,"ax",%progbits
 369              		.align	1
 370              		.global	USBUART_1_PutString
 371              		.thumb
 372              		.thumb_func
 373              		.type	USBUART_1_PutString, %function
 374              	USBUART_1_PutString:
 375              	.LFB5:
 374:Generated_Source\PSoC5/USBUART_1_cdc.c **** 
 375:Generated_Source\PSoC5/USBUART_1_cdc.c **** 
 376:Generated_Source\PSoC5/USBUART_1_cdc.c **** /*******************************************************************************
 377:Generated_Source\PSoC5/USBUART_1_cdc.c **** * Function Name: USBUART_1_StrLen
 378:Generated_Source\PSoC5/USBUART_1_cdc.c **** ****************************************************************************//**
 379:Generated_Source\PSoC5/USBUART_1_cdc.c **** *
 380:Generated_Source\PSoC5/USBUART_1_cdc.c **** *  Calculates length of a null terminated string.
 381:Generated_Source\PSoC5/USBUART_1_cdc.c **** *
 382:Generated_Source\PSoC5/USBUART_1_cdc.c **** *  \param string: pointer to the string.
 383:Generated_Source\PSoC5/USBUART_1_cdc.c **** *
 384:Generated_Source\PSoC5/USBUART_1_cdc.c **** * \return
 385:Generated_Source\PSoC5/USBUART_1_cdc.c **** *  Length of the string
 386:Generated_Source\PSoC5/USBUART_1_cdc.c **** *
ARM GAS  C:\Users\chemi\AppData\Local\Temp\cceWQSsJ.s 			page 15


 387:Generated_Source\PSoC5/USBUART_1_cdc.c **** *******************************************************************************/
 388:Generated_Source\PSoC5/USBUART_1_cdc.c **** static uint16 USBUART_1_StrLen(const char8 string[]) 
 389:Generated_Source\PSoC5/USBUART_1_cdc.c **** {
 390:Generated_Source\PSoC5/USBUART_1_cdc.c ****     uint16 len = 0u;
 391:Generated_Source\PSoC5/USBUART_1_cdc.c **** 
 392:Generated_Source\PSoC5/USBUART_1_cdc.c ****     while (string[len] != (char8)0)
 393:Generated_Source\PSoC5/USBUART_1_cdc.c ****     {
 394:Generated_Source\PSoC5/USBUART_1_cdc.c ****         len++;
 395:Generated_Source\PSoC5/USBUART_1_cdc.c ****     }
 396:Generated_Source\PSoC5/USBUART_1_cdc.c **** 
 397:Generated_Source\PSoC5/USBUART_1_cdc.c ****     return ((uint16) len);
 398:Generated_Source\PSoC5/USBUART_1_cdc.c **** }
 399:Generated_Source\PSoC5/USBUART_1_cdc.c **** 
 400:Generated_Source\PSoC5/USBUART_1_cdc.c **** 
 401:Generated_Source\PSoC5/USBUART_1_cdc.c **** /***************************************************************************
 402:Generated_Source\PSoC5/USBUART_1_cdc.c **** * Function Name: USBUART_1_PutString
 403:Generated_Source\PSoC5/USBUART_1_cdc.c **** ************************************************************************//**
 404:Generated_Source\PSoC5/USBUART_1_cdc.c **** *
 405:Generated_Source\PSoC5/USBUART_1_cdc.c **** *  This function sends a null terminated string to the PC. This function will
 406:Generated_Source\PSoC5/USBUART_1_cdc.c **** *  block if there is not enough memory to place the whole string. It will block
 407:Generated_Source\PSoC5/USBUART_1_cdc.c **** *  until the entire string has been written to the transmit buffer.
 408:Generated_Source\PSoC5/USBUART_1_cdc.c **** *  The USBUART_1_CDCIsReady() function should be called before
 409:Generated_Source\PSoC5/USBUART_1_cdc.c **** *  sending data with a new call to USBUART_1_PutString(), to be sure
 410:Generated_Source\PSoC5/USBUART_1_cdc.c **** *  that the previous data has finished sending. This function sends
 411:Generated_Source\PSoC5/USBUART_1_cdc.c **** *  zero-length packet automatically, if the length of the last packet, sent
 412:Generated_Source\PSoC5/USBUART_1_cdc.c **** *  by this API, is equal to Max Packet Size
 413:Generated_Source\PSoC5/USBUART_1_cdc.c **** *
 414:Generated_Source\PSoC5/USBUART_1_cdc.c **** *  \param string: pointer to the string to be sent to the PC.
 415:Generated_Source\PSoC5/USBUART_1_cdc.c **** *
 416:Generated_Source\PSoC5/USBUART_1_cdc.c **** * \globalvars
 417:Generated_Source\PSoC5/USBUART_1_cdc.c **** *
 418:Generated_Source\PSoC5/USBUART_1_cdc.c **** *   USBUART_1_cdcDataInEp: CDC IN endpoint number used for sending
 419:Generated_Source\PSoC5/USBUART_1_cdc.c **** *     data.
 420:Generated_Source\PSoC5/USBUART_1_cdc.c **** *
 421:Generated_Source\PSoC5/USBUART_1_cdc.c **** * \reentrant
 422:Generated_Source\PSoC5/USBUART_1_cdc.c **** *  No.
 423:Generated_Source\PSoC5/USBUART_1_cdc.c **** *
 424:Generated_Source\PSoC5/USBUART_1_cdc.c **** ***************************************************************************/
 425:Generated_Source\PSoC5/USBUART_1_cdc.c **** void USBUART_1_PutString(const char8 string[]) 
 426:Generated_Source\PSoC5/USBUART_1_cdc.c **** {
 376              		.loc 1 426 0
 377              		.cfi_startproc
 378              		@ args = 0, pretend = 0, frame = 0
 379              		@ frame_needed = 0, uses_anonymous_args = 0
 380              	.LVL28:
 381 0000 2DE9F84F 		push	{r3, r4, r5, r6, r7, r8, r9, r10, fp, lr}
 382              		.cfi_def_cfa_offset 40
 383              		.cfi_offset 3, -40
 384              		.cfi_offset 4, -36
 385              		.cfi_offset 5, -32
 386              		.cfi_offset 6, -28
 387              		.cfi_offset 7, -24
 388              		.cfi_offset 8, -20
 389              		.cfi_offset 9, -16
 390              		.cfi_offset 10, -12
 391              		.cfi_offset 11, -8
 392              		.cfi_offset 14, -4
ARM GAS  C:\Users\chemi\AppData\Local\Temp\cceWQSsJ.s 			page 16


 393              		.loc 1 426 0
 394 0004 8346     		mov	fp, r0
 427:Generated_Source\PSoC5/USBUART_1_cdc.c ****     uint16 strLength;
 428:Generated_Source\PSoC5/USBUART_1_cdc.c ****     uint16 sendLength;
 429:Generated_Source\PSoC5/USBUART_1_cdc.c ****     uint16 bufIndex = 0u;
 430:Generated_Source\PSoC5/USBUART_1_cdc.c **** 
 431:Generated_Source\PSoC5/USBUART_1_cdc.c ****     uint8  epNumber = USBUART_1_cdcDataInEp[USBUART_1_activeCom];
 395              		.loc 1 431 0
 396 0006 204B     		ldr	r3, .L46
 397 0008 204A     		ldr	r2, .L46+4
 398 000a 1B78     		ldrb	r3, [r3]	@ zero_extendqisi2
 399 000c D75C     		ldrb	r7, [r2, r3]	@ zero_extendqisi2
 400 000e 0023     		movs	r3, #0
 401 0010 FFB2     		uxtb	r7, r7
 402              	.LVL29:
 403              	.L35:
 404 0012 9CB2     		uxth	r4, r3
 405              	.LVL30:
 406              	.LBB4:
 407              	.LBB5:
 392:Generated_Source\PSoC5/USBUART_1_cdc.c ****     {
 408              		.loc 1 392 0
 409 0014 1BF80450 		ldrb	r5, [fp, r4]	@ zero_extendqisi2
 410 0018 0133     		adds	r3, r3, #1
 411 001a 002D     		cmp	r5, #0
 412 001c F9D1     		bne	.L35
 413 001e 2E46     		mov	r6, r5
 414              	.LBE5:
 415              	.LBE4:
 432:Generated_Source\PSoC5/USBUART_1_cdc.c **** 
 433:Generated_Source\PSoC5/USBUART_1_cdc.c ****     /* Get length string length (it is terminated with zero). */
 434:Generated_Source\PSoC5/USBUART_1_cdc.c ****     strLength = USBUART_1_StrLen(string);
 435:Generated_Source\PSoC5/USBUART_1_cdc.c **** 
 436:Generated_Source\PSoC5/USBUART_1_cdc.c ****     do
 437:Generated_Source\PSoC5/USBUART_1_cdc.c ****     {
 438:Generated_Source\PSoC5/USBUART_1_cdc.c ****         /* Limit length to maximum packet size of endpoint. */
 439:Generated_Source\PSoC5/USBUART_1_cdc.c ****         sendLength = (strLength > USBUART_1_EP[epNumber].bufferSize) ?
 416              		.loc 1 439 0
 417 0020 4FF00C08 		mov	r8, #12
 418 0024 08FB07F8 		mul	r8, r8, r7
 419 0028 194B     		ldr	r3, .L46+8
 420 002a 03EB0809 		add	r9, r3, r8
 421              	.LVL31:
 422              	.L40:
 423 002e B9F80830 		ldrh	r3, [r9, #8]
 440:Generated_Source\PSoC5/USBUART_1_cdc.c ****                                   USBUART_1_EP[epNumber].bufferSize : strLength;
 441:Generated_Source\PSoC5/USBUART_1_cdc.c **** 
 442:Generated_Source\PSoC5/USBUART_1_cdc.c ****         /* Load IN endpoint and expose it to host. */
 443:Generated_Source\PSoC5/USBUART_1_cdc.c ****         USBUART_1_LoadInEP(epNumber, (const uint8 *)&string[bufIndex], sendLength);
 424              		.loc 1 443 0
 425 0032 0BEB0601 		add	r1, fp, r6
 439:Generated_Source\PSoC5/USBUART_1_cdc.c ****                                   USBUART_1_EP[epNumber].bufferSize : strLength;
 426              		.loc 1 439 0
 427 0036 9BB2     		uxth	r3, r3
 428 0038 9C42     		cmp	r4, r3
 429 003a 94BF     		ite	ls
 430 003c 2546     		movls	r5, r4
ARM GAS  C:\Users\chemi\AppData\Local\Temp\cceWQSsJ.s 			page 17


 431 003e B9F80850 		ldrhhi	r5, [r9, #8]
 432              		.loc 1 443 0
 433 0042 3846     		mov	r0, r7
 439:Generated_Source\PSoC5/USBUART_1_cdc.c ****                                   USBUART_1_EP[epNumber].bufferSize : strLength;
 434              		.loc 1 439 0
 435 0044 88BF     		it	hi
 436 0046 ADB2     		uxthhi	r5, r5
 437              	.LVL32:
 444:Generated_Source\PSoC5/USBUART_1_cdc.c ****         strLength -= sendLength;
 438              		.loc 1 444 0
 439 0048 641B     		subs	r4, r4, r5
 440              	.LVL33:
 443:Generated_Source\PSoC5/USBUART_1_cdc.c ****         strLength -= sendLength;
 441              		.loc 1 443 0
 442 004a 2A46     		mov	r2, r5
 443              		.loc 1 444 0
 444 004c A4B2     		uxth	r4, r4
 445 004e DFF840A0 		ldr	r10, .L46+8
 443:Generated_Source\PSoC5/USBUART_1_cdc.c ****         strLength -= sendLength;
 446              		.loc 1 443 0
 447 0052 FFF7FEFF 		bl	USBUART_1_LoadInEP
 448              	.LVL34:
 445:Generated_Source\PSoC5/USBUART_1_cdc.c **** 
 446:Generated_Source\PSoC5/USBUART_1_cdc.c ****         /* If more data are present to send or full packet was sent */
 447:Generated_Source\PSoC5/USBUART_1_cdc.c ****         if ((strLength > 0u) || (sendLength == USBUART_1_EP[epNumber].bufferSize))
 449              		.loc 1 447 0
 450 0056 2CB9     		cbnz	r4, .L37
 451              	.LVL35:
 452              		.loc 1 447 0 is_stmt 0 discriminator 1
 453 0058 0AEB0803 		add	r3, r10, r8
 454 005c 1B89     		ldrh	r3, [r3, #8]
 455 005e 9BB2     		uxth	r3, r3
 456 0060 9D42     		cmp	r5, r3
 457 0062 0FD1     		bne	.L34
 458              	.LVL36:
 459              	.L37:
 448:Generated_Source\PSoC5/USBUART_1_cdc.c ****         {
 449:Generated_Source\PSoC5/USBUART_1_cdc.c ****             bufIndex += sendLength;
 460              		.loc 1 449 0 is_stmt 1
 461 0064 3544     		add	r5, r5, r6
 462              	.LVL37:
 463 0066 AEB2     		uxth	r6, r5
 464              	.LVL38:
 450:Generated_Source\PSoC5/USBUART_1_cdc.c **** 
 451:Generated_Source\PSoC5/USBUART_1_cdc.c ****             /* Wait until host read data from IN endpoint buffer. */
 452:Generated_Source\PSoC5/USBUART_1_cdc.c ****             while (USBUART_1_IN_BUFFER_FULL == USBUART_1_EP[epNumber].apiEpState)
 465              		.loc 1 452 0
 466 0068 C244     		add	r10, r10, r8
 467              	.L39:
 468              		.loc 1 452 0 is_stmt 0 discriminator 1
 469 006a 9AF80130 		ldrb	r3, [r10, #1]	@ zero_extendqisi2
 470 006e 002B     		cmp	r3, #0
 471 0070 FBD0     		beq	.L39
 453:Generated_Source\PSoC5/USBUART_1_cdc.c ****             {
 454:Generated_Source\PSoC5/USBUART_1_cdc.c ****             }
 455:Generated_Source\PSoC5/USBUART_1_cdc.c **** 
 456:Generated_Source\PSoC5/USBUART_1_cdc.c ****             /* If last packet is exactly maximum packet size, it shall be followed
ARM GAS  C:\Users\chemi\AppData\Local\Temp\cceWQSsJ.s 			page 18


 457:Generated_Source\PSoC5/USBUART_1_cdc.c ****             * by a zero-length packet to assure the end of segment is properly
 458:Generated_Source\PSoC5/USBUART_1_cdc.c ****             * identified by the terminal.
 459:Generated_Source\PSoC5/USBUART_1_cdc.c ****             */
 460:Generated_Source\PSoC5/USBUART_1_cdc.c ****             if (0u == strLength)
 472              		.loc 1 460 0 is_stmt 1
 473 0072 002C     		cmp	r4, #0
 474 0074 DBD1     		bne	.L40
 461:Generated_Source\PSoC5/USBUART_1_cdc.c ****             {
 462:Generated_Source\PSoC5/USBUART_1_cdc.c ****                 USBUART_1_LoadInEP(epNumber, NULL, 0u);
 475              		.loc 1 462 0
 476 0076 2246     		mov	r2, r4
 477 0078 2146     		mov	r1, r4
 478 007a 3846     		mov	r0, r7
 463:Generated_Source\PSoC5/USBUART_1_cdc.c ****             }
 464:Generated_Source\PSoC5/USBUART_1_cdc.c ****         }
 465:Generated_Source\PSoC5/USBUART_1_cdc.c ****     }
 466:Generated_Source\PSoC5/USBUART_1_cdc.c ****     while (strLength > 0u);
 467:Generated_Source\PSoC5/USBUART_1_cdc.c **** }
 479              		.loc 1 467 0
 480 007c BDE8F84F 		pop	{r3, r4, r5, r6, r7, r8, r9, r10, fp, lr}
 481              		.cfi_remember_state
 482              		.cfi_restore 14
 483              		.cfi_restore 11
 484              		.cfi_restore 10
 485              		.cfi_restore 9
 486              		.cfi_restore 8
 487              		.cfi_restore 7
 488              		.cfi_restore 6
 489              		.cfi_restore 5
 490              		.cfi_restore 4
 491              		.cfi_restore 3
 492              		.cfi_def_cfa_offset 0
 493              	.LVL39:
 462:Generated_Source\PSoC5/USBUART_1_cdc.c ****             }
 494              		.loc 1 462 0
 495 0080 FFF7FEBF 		b	USBUART_1_LoadInEP
 496              	.LVL40:
 497              	.L34:
 498              		.cfi_restore_state
 499 0084 BDE8F88F 		pop	{r3, r4, r5, r6, r7, r8, r9, r10, fp, pc}
 500              	.LVL41:
 501              	.L47:
 502              		.align	2
 503              	.L46:
 504 0088 00000000 		.word	.LANCHOR1
 505 008c 00000000 		.word	USBUART_1_cdcDataInEp
 506 0090 00000000 		.word	USBUART_1_EP
 507              		.cfi_endproc
 508              	.LFE5:
 509              		.size	USBUART_1_PutString, .-USBUART_1_PutString
 510              		.section	.text.USBUART_1_PutChar,"ax",%progbits
 511              		.align	1
 512              		.global	USBUART_1_PutChar
 513              		.thumb
 514              		.thumb_func
 515              		.type	USBUART_1_PutChar, %function
 516              	USBUART_1_PutChar:
ARM GAS  C:\Users\chemi\AppData\Local\Temp\cceWQSsJ.s 			page 19


 517              	.LFB6:
 468:Generated_Source\PSoC5/USBUART_1_cdc.c **** 
 469:Generated_Source\PSoC5/USBUART_1_cdc.c **** 
 470:Generated_Source\PSoC5/USBUART_1_cdc.c **** /***************************************************************************
 471:Generated_Source\PSoC5/USBUART_1_cdc.c **** * Function Name: USBUART_1_PutChar
 472:Generated_Source\PSoC5/USBUART_1_cdc.c **** ************************************************************************//**
 473:Generated_Source\PSoC5/USBUART_1_cdc.c **** *
 474:Generated_Source\PSoC5/USBUART_1_cdc.c **** *  This function writes a single character to the PC at a time. This is an
 475:Generated_Source\PSoC5/USBUART_1_cdc.c **** *  inefficient way to send large amounts of data.
 476:Generated_Source\PSoC5/USBUART_1_cdc.c **** *
 477:Generated_Source\PSoC5/USBUART_1_cdc.c **** *  \param txDataByte: Character to be sent to the PC.
 478:Generated_Source\PSoC5/USBUART_1_cdc.c **** *
 479:Generated_Source\PSoC5/USBUART_1_cdc.c **** *  \globalvars
 480:Generated_Source\PSoC5/USBUART_1_cdc.c **** *
 481:Generated_Source\PSoC5/USBUART_1_cdc.c **** *   USBUART_1_cdcDataInEp: CDC IN endpoint number used for sending
 482:Generated_Source\PSoC5/USBUART_1_cdc.c **** *     data.
 483:Generated_Source\PSoC5/USBUART_1_cdc.c **** *
 484:Generated_Source\PSoC5/USBUART_1_cdc.c **** *  \reentrant
 485:Generated_Source\PSoC5/USBUART_1_cdc.c **** *  No.
 486:Generated_Source\PSoC5/USBUART_1_cdc.c **** *
 487:Generated_Source\PSoC5/USBUART_1_cdc.c **** ***************************************************************************/
 488:Generated_Source\PSoC5/USBUART_1_cdc.c **** void USBUART_1_PutChar(char8 txDataByte) 
 489:Generated_Source\PSoC5/USBUART_1_cdc.c **** {
 518              		.loc 1 489 0
 519              		.cfi_startproc
 520              		@ args = 0, pretend = 0, frame = 8
 521              		@ frame_needed = 0, uses_anonymous_args = 0
 522              	.LVL42:
 523 0000 07B5     		push	{r0, r1, r2, lr}
 524              		.cfi_def_cfa_offset 16
 525              		.cfi_offset 14, -4
 490:Generated_Source\PSoC5/USBUART_1_cdc.c ****     uint8 dataByte;
 491:Generated_Source\PSoC5/USBUART_1_cdc.c ****     dataByte = (uint8) txDataByte;
 492:Generated_Source\PSoC5/USBUART_1_cdc.c **** 
 493:Generated_Source\PSoC5/USBUART_1_cdc.c ****     USBUART_1_LoadInEP(USBUART_1_cdcDataInEp[USBUART_1_activeCom], &dataByte, 1u);
 526              		.loc 1 493 0
 527 0002 064B     		ldr	r3, .L49
 528 0004 064A     		ldr	r2, .L49+4
 529 0006 1B78     		ldrb	r3, [r3]	@ zero_extendqisi2
 491:Generated_Source\PSoC5/USBUART_1_cdc.c **** 
 530              		.loc 1 491 0
 531 0008 02A9     		add	r1, sp, #8
 532 000a 01F8010D 		strb	r0, [r1, #-1]!
 533              		.loc 1 493 0
 534 000e D05C     		ldrb	r0, [r2, r3]	@ zero_extendqisi2
 535              	.LVL43:
 536 0010 0122     		movs	r2, #1
 537 0012 FFF7FEFF 		bl	USBUART_1_LoadInEP
 538              	.LVL44:
 494:Generated_Source\PSoC5/USBUART_1_cdc.c **** }
 539              		.loc 1 494 0
 540 0016 03B0     		add	sp, sp, #12
 541              		.cfi_def_cfa_offset 4
 542              		@ sp needed
 543 0018 5DF804FB 		ldr	pc, [sp], #4
 544              	.L50:
 545              		.align	2
ARM GAS  C:\Users\chemi\AppData\Local\Temp\cceWQSsJ.s 			page 20


 546              	.L49:
 547 001c 00000000 		.word	.LANCHOR1
 548 0020 00000000 		.word	USBUART_1_cdcDataInEp
 549              		.cfi_endproc
 550              	.LFE6:
 551              		.size	USBUART_1_PutChar, .-USBUART_1_PutChar
 552              		.section	.text.USBUART_1_PutCRLF,"ax",%progbits
 553              		.align	1
 554              		.global	USBUART_1_PutCRLF
 555              		.thumb
 556              		.thumb_func
 557              		.type	USBUART_1_PutCRLF, %function
 558              	USBUART_1_PutCRLF:
 559              	.LFB7:
 495:Generated_Source\PSoC5/USBUART_1_cdc.c **** 
 496:Generated_Source\PSoC5/USBUART_1_cdc.c **** 
 497:Generated_Source\PSoC5/USBUART_1_cdc.c **** /*******************************************************************************
 498:Generated_Source\PSoC5/USBUART_1_cdc.c **** * Function Name: USBUART_1_PutCRLF
 499:Generated_Source\PSoC5/USBUART_1_cdc.c **** ****************************************************************************//**
 500:Generated_Source\PSoC5/USBUART_1_cdc.c **** *
 501:Generated_Source\PSoC5/USBUART_1_cdc.c **** *  This function sends a carriage return (0x0D) and line feed (0x0A) to the
 502:Generated_Source\PSoC5/USBUART_1_cdc.c **** *  PC. This APIis provided to mimic API provided by our other UART components
 503:Generated_Source\PSoC5/USBUART_1_cdc.c **** *
 504:Generated_Source\PSoC5/USBUART_1_cdc.c **** * \globalvars
 505:Generated_Source\PSoC5/USBUART_1_cdc.c **** *
 506:Generated_Source\PSoC5/USBUART_1_cdc.c **** *   USBUART_1_cdcDataInEp: CDC IN endpoint number used for sending
 507:Generated_Source\PSoC5/USBUART_1_cdc.c **** *     data.
 508:Generated_Source\PSoC5/USBUART_1_cdc.c **** *
 509:Generated_Source\PSoC5/USBUART_1_cdc.c **** * \reentrant
 510:Generated_Source\PSoC5/USBUART_1_cdc.c **** *  No.
 511:Generated_Source\PSoC5/USBUART_1_cdc.c **** *
 512:Generated_Source\PSoC5/USBUART_1_cdc.c **** *******************************************************************************/
 513:Generated_Source\PSoC5/USBUART_1_cdc.c **** void USBUART_1_PutCRLF(void) 
 514:Generated_Source\PSoC5/USBUART_1_cdc.c **** {
 560              		.loc 1 514 0
 561              		.cfi_startproc
 562              		@ args = 0, pretend = 0, frame = 8
 563              		@ frame_needed = 0, uses_anonymous_args = 0
 564 0000 07B5     		push	{r0, r1, r2, lr}
 565              		.cfi_def_cfa_offset 16
 566              		.cfi_offset 14, -4
 515:Generated_Source\PSoC5/USBUART_1_cdc.c ****     const uint8 CYCODE txData[] = {0x0Du, 0x0Au};
 567              		.loc 1 515 0
 568 0002 074B     		ldr	r3, .L52
 516:Generated_Source\PSoC5/USBUART_1_cdc.c **** 
 517:Generated_Source\PSoC5/USBUART_1_cdc.c ****     USBUART_1_LoadInEP(USBUART_1_cdcDataInEp[USBUART_1_activeCom], (const uint8 *)txData, 2u);
 569              		.loc 1 517 0
 570 0004 074A     		ldr	r2, .L52+4
 515:Generated_Source\PSoC5/USBUART_1_cdc.c ****     const uint8 CYCODE txData[] = {0x0Du, 0x0Au};
 571              		.loc 1 515 0
 572 0006 1B88     		ldrh	r3, [r3]	@ unaligned
 573              		.loc 1 517 0
 574 0008 01A9     		add	r1, sp, #4
 515:Generated_Source\PSoC5/USBUART_1_cdc.c ****     const uint8 CYCODE txData[] = {0x0Du, 0x0Au};
 575              		.loc 1 515 0
 576 000a ADF80430 		strh	r3, [sp, #4]	@ unaligned
 577              		.loc 1 517 0
ARM GAS  C:\Users\chemi\AppData\Local\Temp\cceWQSsJ.s 			page 21


 578 000e 064B     		ldr	r3, .L52+8
 579 0010 1B78     		ldrb	r3, [r3]	@ zero_extendqisi2
 580 0012 D05C     		ldrb	r0, [r2, r3]	@ zero_extendqisi2
 581 0014 0222     		movs	r2, #2
 582 0016 FFF7FEFF 		bl	USBUART_1_LoadInEP
 583              	.LVL45:
 518:Generated_Source\PSoC5/USBUART_1_cdc.c **** }
 584              		.loc 1 518 0
 585 001a 03B0     		add	sp, sp, #12
 586              		.cfi_def_cfa_offset 4
 587              		@ sp needed
 588 001c 5DF804FB 		ldr	pc, [sp], #4
 589              	.L53:
 590              		.align	2
 591              	.L52:
 592 0020 00000000 		.word	.LANCHOR2
 593 0024 00000000 		.word	USBUART_1_cdcDataInEp
 594 0028 00000000 		.word	.LANCHOR1
 595              		.cfi_endproc
 596              	.LFE7:
 597              		.size	USBUART_1_PutCRLF, .-USBUART_1_PutCRLF
 598              		.section	.text.USBUART_1_GetCount,"ax",%progbits
 599              		.align	1
 600              		.global	USBUART_1_GetCount
 601              		.thumb
 602              		.thumb_func
 603              		.type	USBUART_1_GetCount, %function
 604              	USBUART_1_GetCount:
 605              	.LFB8:
 519:Generated_Source\PSoC5/USBUART_1_cdc.c **** 
 520:Generated_Source\PSoC5/USBUART_1_cdc.c **** 
 521:Generated_Source\PSoC5/USBUART_1_cdc.c **** /*******************************************************************************
 522:Generated_Source\PSoC5/USBUART_1_cdc.c **** * Function Name: USBUART_1_GetCount
 523:Generated_Source\PSoC5/USBUART_1_cdc.c **** ****************************************************************************//**
 524:Generated_Source\PSoC5/USBUART_1_cdc.c **** *
 525:Generated_Source\PSoC5/USBUART_1_cdc.c **** *  This function returns the number of bytes that were received from the PC.
 526:Generated_Source\PSoC5/USBUART_1_cdc.c **** *  The returned length value should be passed to USBUART_1_GetData() as
 527:Generated_Source\PSoC5/USBUART_1_cdc.c **** *  a parameter to read all received data. If all of the received data is not
 528:Generated_Source\PSoC5/USBUART_1_cdc.c **** *  read at one time by the USBUART_1_GetData() API, the unread data will
 529:Generated_Source\PSoC5/USBUART_1_cdc.c **** *  be lost.
 530:Generated_Source\PSoC5/USBUART_1_cdc.c **** *
 531:Generated_Source\PSoC5/USBUART_1_cdc.c **** * \return
 532:Generated_Source\PSoC5/USBUART_1_cdc.c **** *  Returns the number of received bytes. The maximum amount of received data at
 533:Generated_Source\PSoC5/USBUART_1_cdc.c **** *  a time is limited by the maximum packet size for the endpoint.
 534:Generated_Source\PSoC5/USBUART_1_cdc.c **** *
 535:Generated_Source\PSoC5/USBUART_1_cdc.c **** * \globalvars
 536:Generated_Source\PSoC5/USBUART_1_cdc.c **** *   USBUART_1_cdcDataOutEp: CDC OUT endpoint number used.
 537:Generated_Source\PSoC5/USBUART_1_cdc.c **** *
 538:Generated_Source\PSoC5/USBUART_1_cdc.c **** *******************************************************************************/
 539:Generated_Source\PSoC5/USBUART_1_cdc.c **** uint16 USBUART_1_GetCount(void) 
 540:Generated_Source\PSoC5/USBUART_1_cdc.c **** {
 606              		.loc 1 540 0
 607              		.cfi_startproc
 608              		@ args = 0, pretend = 0, frame = 0
 609              		@ frame_needed = 0, uses_anonymous_args = 0
 610              		@ link register save eliminated.
 541:Generated_Source\PSoC5/USBUART_1_cdc.c ****     uint16 bytesCount;
ARM GAS  C:\Users\chemi\AppData\Local\Temp\cceWQSsJ.s 			page 22


 542:Generated_Source\PSoC5/USBUART_1_cdc.c **** 
 543:Generated_Source\PSoC5/USBUART_1_cdc.c ****     uint8  epNumber = USBUART_1_cdcDataOutEp[USBUART_1_activeCom];
 611              		.loc 1 543 0
 612 0000 074B     		ldr	r3, .L56
 613 0002 084A     		ldr	r2, .L56+4
 614 0004 1B78     		ldrb	r3, [r3]	@ zero_extendqisi2
 615 0006 D05C     		ldrb	r0, [r2, r3]	@ zero_extendqisi2
 544:Generated_Source\PSoC5/USBUART_1_cdc.c **** 
 545:Generated_Source\PSoC5/USBUART_1_cdc.c ****     if (USBUART_1_OUT_BUFFER_FULL == USBUART_1_EP[epNumber].apiEpState)
 616              		.loc 1 545 0
 617 0008 074A     		ldr	r2, .L56+8
 543:Generated_Source\PSoC5/USBUART_1_cdc.c **** 
 618              		.loc 1 543 0
 619 000a C0B2     		uxtb	r0, r0
 620              	.LVL46:
 621              		.loc 1 545 0
 622 000c 0C23     		movs	r3, #12
 623 000e 03FB0023 		mla	r3, r3, r0, r2
 624 0012 5B78     		ldrb	r3, [r3, #1]	@ zero_extendqisi2
 625 0014 012B     		cmp	r3, #1
 626 0016 01D1     		bne	.L55
 546:Generated_Source\PSoC5/USBUART_1_cdc.c ****     {
 547:Generated_Source\PSoC5/USBUART_1_cdc.c ****         bytesCount = USBUART_1_GetEPCount(epNumber);
 627              		.loc 1 547 0
 628 0018 FFF7FEBF 		b	USBUART_1_GetEPCount
 629              	.LVL47:
 630              	.L55:
 548:Generated_Source\PSoC5/USBUART_1_cdc.c ****     }
 549:Generated_Source\PSoC5/USBUART_1_cdc.c ****     else
 550:Generated_Source\PSoC5/USBUART_1_cdc.c ****     {
 551:Generated_Source\PSoC5/USBUART_1_cdc.c ****         bytesCount = 0u;
 552:Generated_Source\PSoC5/USBUART_1_cdc.c ****     }
 553:Generated_Source\PSoC5/USBUART_1_cdc.c **** 
 554:Generated_Source\PSoC5/USBUART_1_cdc.c ****     return (bytesCount);
 555:Generated_Source\PSoC5/USBUART_1_cdc.c **** }
 631              		.loc 1 555 0
 632 001c 0020     		movs	r0, #0
 633              	.LVL48:
 634 001e 7047     		bx	lr
 635              	.L57:
 636              		.align	2
 637              	.L56:
 638 0020 00000000 		.word	.LANCHOR1
 639 0024 00000000 		.word	USBUART_1_cdcDataOutEp
 640 0028 00000000 		.word	USBUART_1_EP
 641              		.cfi_endproc
 642              	.LFE8:
 643              		.size	USBUART_1_GetCount, .-USBUART_1_GetCount
 644              		.section	.text.USBUART_1_DataIsReady,"ax",%progbits
 645              		.align	1
 646              		.global	USBUART_1_DataIsReady
 647              		.thumb
 648              		.thumb_func
 649              		.type	USBUART_1_DataIsReady, %function
 650              	USBUART_1_DataIsReady:
 651              	.LFB9:
 556:Generated_Source\PSoC5/USBUART_1_cdc.c **** 
ARM GAS  C:\Users\chemi\AppData\Local\Temp\cceWQSsJ.s 			page 23


 557:Generated_Source\PSoC5/USBUART_1_cdc.c **** 
 558:Generated_Source\PSoC5/USBUART_1_cdc.c **** /*******************************************************************************
 559:Generated_Source\PSoC5/USBUART_1_cdc.c **** * Function Name: USBUART_1_DataIsReady
 560:Generated_Source\PSoC5/USBUART_1_cdc.c **** ****************************************************************************//**
 561:Generated_Source\PSoC5/USBUART_1_cdc.c **** *
 562:Generated_Source\PSoC5/USBUART_1_cdc.c **** *  This function returns a non-zero value if the component received data or
 563:Generated_Source\PSoC5/USBUART_1_cdc.c **** *  received zero-length packet. The USBUART_1_GetAll() or
 564:Generated_Source\PSoC5/USBUART_1_cdc.c **** *  USBUART_1_GetData() API should be called to read data from the buffer
 565:Generated_Source\PSoC5/USBUART_1_cdc.c **** *  and reinitialize the OUT endpoint even when a zero-length packet is
 566:Generated_Source\PSoC5/USBUART_1_cdc.c **** *  received. These APIs will return zero value when zero-length packet is
 567:Generated_Source\PSoC5/USBUART_1_cdc.c **** *  received.
 568:Generated_Source\PSoC5/USBUART_1_cdc.c **** *
 569:Generated_Source\PSoC5/USBUART_1_cdc.c **** * \return
 570:Generated_Source\PSoC5/USBUART_1_cdc.c **** *  If the OUT packet is received, this function returns a non-zero value.
 571:Generated_Source\PSoC5/USBUART_1_cdc.c **** *  Otherwise, it returns zero.
 572:Generated_Source\PSoC5/USBUART_1_cdc.c **** *
 573:Generated_Source\PSoC5/USBUART_1_cdc.c **** * \globalvars
 574:Generated_Source\PSoC5/USBUART_1_cdc.c **** *   USBUART_1_cdcDataOutEp: CDC OUT endpoint number used.
 575:Generated_Source\PSoC5/USBUART_1_cdc.c **** *
 576:Generated_Source\PSoC5/USBUART_1_cdc.c **** *******************************************************************************/
 577:Generated_Source\PSoC5/USBUART_1_cdc.c **** uint8 USBUART_1_DataIsReady(void) 
 578:Generated_Source\PSoC5/USBUART_1_cdc.c **** {
 652              		.loc 1 578 0
 653              		.cfi_startproc
 654              		@ args = 0, pretend = 0, frame = 0
 655              		@ frame_needed = 0, uses_anonymous_args = 0
 656              		@ link register save eliminated.
 579:Generated_Source\PSoC5/USBUART_1_cdc.c ****     return (USBUART_1_GetEPState(USBUART_1_cdcDataOutEp[USBUART_1_activeCom]));
 657              		.loc 1 579 0
 658 0000 024B     		ldr	r3, .L59
 659 0002 034A     		ldr	r2, .L59+4
 660 0004 1B78     		ldrb	r3, [r3]	@ zero_extendqisi2
 661 0006 D05C     		ldrb	r0, [r2, r3]	@ zero_extendqisi2
 662 0008 FFF7FEBF 		b	USBUART_1_GetEPState
 663              	.LVL49:
 664              	.L60:
 665              		.align	2
 666              	.L59:
 667 000c 00000000 		.word	.LANCHOR1
 668 0010 00000000 		.word	USBUART_1_cdcDataOutEp
 669              		.cfi_endproc
 670              	.LFE9:
 671              		.size	USBUART_1_DataIsReady, .-USBUART_1_DataIsReady
 672              		.section	.text.USBUART_1_CDCIsReady,"ax",%progbits
 673              		.align	1
 674              		.global	USBUART_1_CDCIsReady
 675              		.thumb
 676              		.thumb_func
 677              		.type	USBUART_1_CDCIsReady, %function
 678              	USBUART_1_CDCIsReady:
 679              	.LFB10:
 580:Generated_Source\PSoC5/USBUART_1_cdc.c **** }
 581:Generated_Source\PSoC5/USBUART_1_cdc.c **** 
 582:Generated_Source\PSoC5/USBUART_1_cdc.c **** 
 583:Generated_Source\PSoC5/USBUART_1_cdc.c **** /*******************************************************************************
 584:Generated_Source\PSoC5/USBUART_1_cdc.c **** * Function Name: USBUART_1_CDCIsReady
 585:Generated_Source\PSoC5/USBUART_1_cdc.c **** ****************************************************************************//**
ARM GAS  C:\Users\chemi\AppData\Local\Temp\cceWQSsJ.s 			page 24


 586:Generated_Source\PSoC5/USBUART_1_cdc.c **** *
 587:Generated_Source\PSoC5/USBUART_1_cdc.c **** *  This function returns a non-zero value if the component is ready to send more
 588:Generated_Source\PSoC5/USBUART_1_cdc.c **** *  data to the PC; otherwise, it returns zero. The function should be called
 589:Generated_Source\PSoC5/USBUART_1_cdc.c **** *  before sending new data when using any of the following APIs:
 590:Generated_Source\PSoC5/USBUART_1_cdc.c **** *  USBUART_1_PutData(),USBUART_1_PutString(),
 591:Generated_Source\PSoC5/USBUART_1_cdc.c **** *  USBUART_1_PutChar or USBUART_1_PutCRLF(),
 592:Generated_Source\PSoC5/USBUART_1_cdc.c **** *  to be sure that the previous data has finished sending.
 593:Generated_Source\PSoC5/USBUART_1_cdc.c **** *
 594:Generated_Source\PSoC5/USBUART_1_cdc.c **** * \return
 595:Generated_Source\PSoC5/USBUART_1_cdc.c **** *  If the buffer can accept new data, this function returns a non-zero value.
 596:Generated_Source\PSoC5/USBUART_1_cdc.c **** *  Otherwise, it returns zero.
 597:Generated_Source\PSoC5/USBUART_1_cdc.c **** *
 598:Generated_Source\PSoC5/USBUART_1_cdc.c **** * \globalvars
 599:Generated_Source\PSoC5/USBUART_1_cdc.c **** *   USBUART_1_cdcDataInEp: CDC IN endpoint number used.
 600:Generated_Source\PSoC5/USBUART_1_cdc.c **** *
 601:Generated_Source\PSoC5/USBUART_1_cdc.c **** *******************************************************************************/
 602:Generated_Source\PSoC5/USBUART_1_cdc.c **** uint8 USBUART_1_CDCIsReady(void) 
 603:Generated_Source\PSoC5/USBUART_1_cdc.c **** {
 680              		.loc 1 603 0
 681              		.cfi_startproc
 682              		@ args = 0, pretend = 0, frame = 0
 683              		@ frame_needed = 0, uses_anonymous_args = 0
 684              		@ link register save eliminated.
 604:Generated_Source\PSoC5/USBUART_1_cdc.c ****     return (USBUART_1_GetEPState(USBUART_1_cdcDataInEp[USBUART_1_activeCom]));
 685              		.loc 1 604 0
 686 0000 024B     		ldr	r3, .L62
 687 0002 034A     		ldr	r2, .L62+4
 688 0004 1B78     		ldrb	r3, [r3]	@ zero_extendqisi2
 689 0006 D05C     		ldrb	r0, [r2, r3]	@ zero_extendqisi2
 690 0008 FFF7FEBF 		b	USBUART_1_GetEPState
 691              	.LVL50:
 692              	.L63:
 693              		.align	2
 694              	.L62:
 695 000c 00000000 		.word	.LANCHOR1
 696 0010 00000000 		.word	USBUART_1_cdcDataInEp
 697              		.cfi_endproc
 698              	.LFE10:
 699              		.size	USBUART_1_CDCIsReady, .-USBUART_1_CDCIsReady
 700              		.section	.text.USBUART_1_GetData,"ax",%progbits
 701              		.align	1
 702              		.global	USBUART_1_GetData
 703              		.thumb
 704              		.thumb_func
 705              		.type	USBUART_1_GetData, %function
 706              	USBUART_1_GetData:
 707              	.LFB11:
 605:Generated_Source\PSoC5/USBUART_1_cdc.c **** }
 606:Generated_Source\PSoC5/USBUART_1_cdc.c **** 
 607:Generated_Source\PSoC5/USBUART_1_cdc.c **** 
 608:Generated_Source\PSoC5/USBUART_1_cdc.c **** /***************************************************************************
 609:Generated_Source\PSoC5/USBUART_1_cdc.c **** * Function Name: USBUART_1_GetData
 610:Generated_Source\PSoC5/USBUART_1_cdc.c **** ************************************************************************//**
 611:Generated_Source\PSoC5/USBUART_1_cdc.c **** *
 612:Generated_Source\PSoC5/USBUART_1_cdc.c **** *  This function gets a specified number of bytes from the input buffer and
 613:Generated_Source\PSoC5/USBUART_1_cdc.c **** *  places them in a data array specified by the passed pointer.
 614:Generated_Source\PSoC5/USBUART_1_cdc.c **** *  The USBUART_1_DataIsReady() API should be called first, to be sure
ARM GAS  C:\Users\chemi\AppData\Local\Temp\cceWQSsJ.s 			page 25


 615:Generated_Source\PSoC5/USBUART_1_cdc.c **** *  that data is received from the host. If all received data will not be read at
 616:Generated_Source\PSoC5/USBUART_1_cdc.c **** *  once, the unread data will be lost. The USBUART_1_GetData() API should
 617:Generated_Source\PSoC5/USBUART_1_cdc.c **** *  be called to get the number of bytes that were received.
 618:Generated_Source\PSoC5/USBUART_1_cdc.c **** *
 619:Generated_Source\PSoC5/USBUART_1_cdc.c **** *  \param pData: Pointer to the data array where data will be placed.
 620:Generated_Source\PSoC5/USBUART_1_cdc.c **** *  \param Length: Number of bytes to read into the data array from the RX buffer.
 621:Generated_Source\PSoC5/USBUART_1_cdc.c **** *          Maximum length is limited by the the number of received bytes
 622:Generated_Source\PSoC5/USBUART_1_cdc.c **** *          or 64 bytes.
 623:Generated_Source\PSoC5/USBUART_1_cdc.c **** *
 624:Generated_Source\PSoC5/USBUART_1_cdc.c **** * \return
 625:Generated_Source\PSoC5/USBUART_1_cdc.c **** *         Number of bytes which function moves from endpoint RAM into the
 626:Generated_Source\PSoC5/USBUART_1_cdc.c **** *         data array. The function moves fewer than the requested number
 627:Generated_Source\PSoC5/USBUART_1_cdc.c **** *         of bytes if the host sends fewer bytes than requested or sends
 628:Generated_Source\PSoC5/USBUART_1_cdc.c **** *         zero-length packet.
 629:Generated_Source\PSoC5/USBUART_1_cdc.c **** *
 630:Generated_Source\PSoC5/USBUART_1_cdc.c **** * \globalvars
 631:Generated_Source\PSoC5/USBUART_1_cdc.c **** *   USBUART_1_cdcDataOutEp: CDC OUT endpoint number used.
 632:Generated_Source\PSoC5/USBUART_1_cdc.c **** *
 633:Generated_Source\PSoC5/USBUART_1_cdc.c **** * \reentrant
 634:Generated_Source\PSoC5/USBUART_1_cdc.c **** *  No.
 635:Generated_Source\PSoC5/USBUART_1_cdc.c **** *
 636:Generated_Source\PSoC5/USBUART_1_cdc.c **** ***************************************************************************/
 637:Generated_Source\PSoC5/USBUART_1_cdc.c **** uint16 USBUART_1_GetData(uint8* pData, uint16 length) 
 638:Generated_Source\PSoC5/USBUART_1_cdc.c **** {
 708              		.loc 1 638 0
 709              		.cfi_startproc
 710              		@ args = 0, pretend = 0, frame = 0
 711              		@ frame_needed = 0, uses_anonymous_args = 0
 712              		@ link register save eliminated.
 713              	.LVL51:
 639:Generated_Source\PSoC5/USBUART_1_cdc.c ****     uint8 epNumber = USBUART_1_cdcDataOutEp[USBUART_1_activeCom];
 714              		.loc 1 639 0
 715 0000 044B     		ldr	r3, .L65
 716 0002 054A     		ldr	r2, .L65+4
 717 0004 1B78     		ldrb	r3, [r3]	@ zero_extendqisi2
 718 0006 D35C     		ldrb	r3, [r2, r3]	@ zero_extendqisi2
 719              	.LVL52:
 640:Generated_Source\PSoC5/USBUART_1_cdc.c **** 
 641:Generated_Source\PSoC5/USBUART_1_cdc.c ****     /* Read data from OUT endpoint buffer. */
 642:Generated_Source\PSoC5/USBUART_1_cdc.c ****     length = USBUART_1_ReadOutEP(epNumber, pData, length);
 720              		.loc 1 642 0
 721 0008 0A46     		mov	r2, r1
 722 000a 0146     		mov	r1, r0
 723              	.LVL53:
 724 000c 1846     		mov	r0, r3
 725              	.LVL54:
 726 000e FFF7FEBF 		b	USBUART_1_ReadOutEP
 727              	.LVL55:
 728              	.L66:
 729 0012 00BF     		.align	2
 730              	.L65:
 731 0014 00000000 		.word	.LANCHOR1
 732 0018 00000000 		.word	USBUART_1_cdcDataOutEp
 733              		.cfi_endproc
 734              	.LFE11:
 735              		.size	USBUART_1_GetData, .-USBUART_1_GetData
 736              		.section	.text.USBUART_1_GetAll,"ax",%progbits
ARM GAS  C:\Users\chemi\AppData\Local\Temp\cceWQSsJ.s 			page 26


 737              		.align	1
 738              		.global	USBUART_1_GetAll
 739              		.thumb
 740              		.thumb_func
 741              		.type	USBUART_1_GetAll, %function
 742              	USBUART_1_GetAll:
 743              	.LFB12:
 643:Generated_Source\PSoC5/USBUART_1_cdc.c **** 
 644:Generated_Source\PSoC5/USBUART_1_cdc.c **** #if (USBUART_1_EP_MANAGEMENT_DMA_MANUAL)
 645:Generated_Source\PSoC5/USBUART_1_cdc.c ****     /* Wait until DMA complete transferring data from OUT endpoint buffer. */
 646:Generated_Source\PSoC5/USBUART_1_cdc.c ****     while (USBUART_1_OUT_BUFFER_FULL == USBUART_1_GetEPState(epNumber))
 647:Generated_Source\PSoC5/USBUART_1_cdc.c ****     {
 648:Generated_Source\PSoC5/USBUART_1_cdc.c ****     }
 649:Generated_Source\PSoC5/USBUART_1_cdc.c **** 
 650:Generated_Source\PSoC5/USBUART_1_cdc.c ****     /* Enable OUT endpoint to communicate with host. */
 651:Generated_Source\PSoC5/USBUART_1_cdc.c ****     USBUART_1_EnableOutEP(epNumber);
 652:Generated_Source\PSoC5/USBUART_1_cdc.c **** #endif /* (USBUART_1_EP_MANAGEMENT_DMA_MANUAL) */
 653:Generated_Source\PSoC5/USBUART_1_cdc.c **** 
 654:Generated_Source\PSoC5/USBUART_1_cdc.c ****     return (length);
 655:Generated_Source\PSoC5/USBUART_1_cdc.c **** }
 656:Generated_Source\PSoC5/USBUART_1_cdc.c **** 
 657:Generated_Source\PSoC5/USBUART_1_cdc.c **** 
 658:Generated_Source\PSoC5/USBUART_1_cdc.c **** /*******************************************************************************
 659:Generated_Source\PSoC5/USBUART_1_cdc.c **** * Function Name: USBUART_1_GetAll
 660:Generated_Source\PSoC5/USBUART_1_cdc.c **** ****************************************************************************//**
 661:Generated_Source\PSoC5/USBUART_1_cdc.c **** *
 662:Generated_Source\PSoC5/USBUART_1_cdc.c **** *  This function gets all bytes of received data from the input buffer and
 663:Generated_Source\PSoC5/USBUART_1_cdc.c **** *  places them into a specified data array. The
 664:Generated_Source\PSoC5/USBUART_1_cdc.c **** *  USBUART_1_DataIsReady() API should be called first, to be sure
 665:Generated_Source\PSoC5/USBUART_1_cdc.c **** *  that data is received from the host.
 666:Generated_Source\PSoC5/USBUART_1_cdc.c **** *
 667:Generated_Source\PSoC5/USBUART_1_cdc.c **** *  \param pData: Pointer to the data array where data will be placed.
 668:Generated_Source\PSoC5/USBUART_1_cdc.c **** *
 669:Generated_Source\PSoC5/USBUART_1_cdc.c **** * \return
 670:Generated_Source\PSoC5/USBUART_1_cdc.c **** *  Number of bytes received. The maximum amount of the received at a time
 671:Generated_Source\PSoC5/USBUART_1_cdc.c **** *  data is 64 bytes.
 672:Generated_Source\PSoC5/USBUART_1_cdc.c **** *
 673:Generated_Source\PSoC5/USBUART_1_cdc.c **** * \globalvars
 674:Generated_Source\PSoC5/USBUART_1_cdc.c **** *   - \ref USBUART_1_cdcDataOutEp: CDC OUT endpoint number used.
 675:Generated_Source\PSoC5/USBUART_1_cdc.c **** *   - \ref USBUART_1_EP[].bufferSize: EP max packet size is used as a
 676:Generated_Source\PSoC5/USBUART_1_cdc.c **** *     length to read all data from the EP buffer.
 677:Generated_Source\PSoC5/USBUART_1_cdc.c **** *
 678:Generated_Source\PSoC5/USBUART_1_cdc.c **** * \reentrant
 679:Generated_Source\PSoC5/USBUART_1_cdc.c **** *  No.
 680:Generated_Source\PSoC5/USBUART_1_cdc.c **** *
 681:Generated_Source\PSoC5/USBUART_1_cdc.c **** *******************************************************************************/
 682:Generated_Source\PSoC5/USBUART_1_cdc.c **** uint16 USBUART_1_GetAll(uint8* pData) 
 683:Generated_Source\PSoC5/USBUART_1_cdc.c **** {
 744              		.loc 1 683 0
 745              		.cfi_startproc
 746              		@ args = 0, pretend = 0, frame = 0
 747              		@ frame_needed = 0, uses_anonymous_args = 0
 748              		@ link register save eliminated.
 749              	.LVL56:
 684:Generated_Source\PSoC5/USBUART_1_cdc.c ****     uint8 epNumber = USBUART_1_cdcDataOutEp[USBUART_1_activeCom];
 750              		.loc 1 684 0
 751 0000 074B     		ldr	r3, .L68
ARM GAS  C:\Users\chemi\AppData\Local\Temp\cceWQSsJ.s 			page 27


 752 0002 084A     		ldr	r2, .L68+4
 753 0004 1B78     		ldrb	r3, [r3]	@ zero_extendqisi2
 685:Generated_Source\PSoC5/USBUART_1_cdc.c ****     uint16 dataLength;
 686:Generated_Source\PSoC5/USBUART_1_cdc.c **** 
 687:Generated_Source\PSoC5/USBUART_1_cdc.c ****     /* Read data from OUT endpoint buffer. */
 688:Generated_Source\PSoC5/USBUART_1_cdc.c ****     dataLength = USBUART_1_ReadOutEP(epNumber, pData, USBUART_1_EP[epNumber].bufferSize);
 754              		.loc 1 688 0
 755 0006 0849     		ldr	r1, .L68+8
 684:Generated_Source\PSoC5/USBUART_1_cdc.c ****     uint8 epNumber = USBUART_1_cdcDataOutEp[USBUART_1_activeCom];
 756              		.loc 1 684 0
 757 0008 D35C     		ldrb	r3, [r2, r3]	@ zero_extendqisi2
 758              		.loc 1 688 0
 759 000a 0C22     		movs	r2, #12
 684:Generated_Source\PSoC5/USBUART_1_cdc.c ****     uint8 epNumber = USBUART_1_cdcDataOutEp[USBUART_1_activeCom];
 760              		.loc 1 684 0
 761 000c DBB2     		uxtb	r3, r3
 762              	.LVL57:
 763              		.loc 1 688 0
 764 000e 02FB0312 		mla	r2, r2, r3, r1
 765 0012 1289     		ldrh	r2, [r2, #8]
 766 0014 0146     		mov	r1, r0
 767 0016 92B2     		uxth	r2, r2
 768 0018 1846     		mov	r0, r3
 769              	.LVL58:
 770 001a FFF7FEBF 		b	USBUART_1_ReadOutEP
 771              	.LVL59:
 772              	.L69:
 773 001e 00BF     		.align	2
 774              	.L68:
 775 0020 00000000 		.word	.LANCHOR1
 776 0024 00000000 		.word	USBUART_1_cdcDataOutEp
 777 0028 00000000 		.word	USBUART_1_EP
 778              		.cfi_endproc
 779              	.LFE12:
 780              		.size	USBUART_1_GetAll, .-USBUART_1_GetAll
 781              		.section	.text.USBUART_1_GetChar,"ax",%progbits
 782              		.align	1
 783              		.global	USBUART_1_GetChar
 784              		.thumb
 785              		.thumb_func
 786              		.type	USBUART_1_GetChar, %function
 787              	USBUART_1_GetChar:
 788              	.LFB13:
 689:Generated_Source\PSoC5/USBUART_1_cdc.c **** 
 690:Generated_Source\PSoC5/USBUART_1_cdc.c **** #if (USBUART_1_EP_MANAGEMENT_DMA_MANUAL)
 691:Generated_Source\PSoC5/USBUART_1_cdc.c ****     /* Wait until DMA complete transferring data from OUT endpoint buffer. */
 692:Generated_Source\PSoC5/USBUART_1_cdc.c ****     while (USBUART_1_OUT_BUFFER_FULL == USBUART_1_GetEPState(epNumber))
 693:Generated_Source\PSoC5/USBUART_1_cdc.c ****     {
 694:Generated_Source\PSoC5/USBUART_1_cdc.c ****     }
 695:Generated_Source\PSoC5/USBUART_1_cdc.c **** 
 696:Generated_Source\PSoC5/USBUART_1_cdc.c ****     /* Enable OUT endpoint to communicate with host. */
 697:Generated_Source\PSoC5/USBUART_1_cdc.c ****     USBUART_1_EnableOutEP(epNumber);
 698:Generated_Source\PSoC5/USBUART_1_cdc.c **** #endif /* (USBUART_1_EP_MANAGEMENT_DMA_MANUAL) */
 699:Generated_Source\PSoC5/USBUART_1_cdc.c **** 
 700:Generated_Source\PSoC5/USBUART_1_cdc.c ****     return (dataLength);
 701:Generated_Source\PSoC5/USBUART_1_cdc.c **** }
 702:Generated_Source\PSoC5/USBUART_1_cdc.c **** 
ARM GAS  C:\Users\chemi\AppData\Local\Temp\cceWQSsJ.s 			page 28


 703:Generated_Source\PSoC5/USBUART_1_cdc.c **** 
 704:Generated_Source\PSoC5/USBUART_1_cdc.c **** /***************************************************************************
 705:Generated_Source\PSoC5/USBUART_1_cdc.c **** * Function Name: USBUART_1_GetChar
 706:Generated_Source\PSoC5/USBUART_1_cdc.c **** ************************************************************************//**
 707:Generated_Source\PSoC5/USBUART_1_cdc.c **** *
 708:Generated_Source\PSoC5/USBUART_1_cdc.c **** *  This function reads one byte of received data from the buffer. If more than
 709:Generated_Source\PSoC5/USBUART_1_cdc.c **** *  one byte has been received from the host, the rest of the data will be lost.
 710:Generated_Source\PSoC5/USBUART_1_cdc.c **** *
 711:Generated_Source\PSoC5/USBUART_1_cdc.c **** * \return
 712:Generated_Source\PSoC5/USBUART_1_cdc.c **** *  Received one character.
 713:Generated_Source\PSoC5/USBUART_1_cdc.c **** *
 714:Generated_Source\PSoC5/USBUART_1_cdc.c **** * \globalvars
 715:Generated_Source\PSoC5/USBUART_1_cdc.c **** *   USBUART_1_cdcDataOutEp: CDC OUT endpoint number used.
 716:Generated_Source\PSoC5/USBUART_1_cdc.c **** *
 717:Generated_Source\PSoC5/USBUART_1_cdc.c **** * \reentrant
 718:Generated_Source\PSoC5/USBUART_1_cdc.c **** *  No.
 719:Generated_Source\PSoC5/USBUART_1_cdc.c **** *
 720:Generated_Source\PSoC5/USBUART_1_cdc.c **** ***************************************************************************/
 721:Generated_Source\PSoC5/USBUART_1_cdc.c **** uint8 USBUART_1_GetChar(void) 
 722:Generated_Source\PSoC5/USBUART_1_cdc.c **** {
 789              		.loc 1 722 0
 790              		.cfi_startproc
 791              		@ args = 0, pretend = 0, frame = 8
 792              		@ frame_needed = 0, uses_anonymous_args = 0
 793 0000 07B5     		push	{r0, r1, r2, lr}
 794              		.cfi_def_cfa_offset 16
 795              		.cfi_offset 14, -4
 723:Generated_Source\PSoC5/USBUART_1_cdc.c ****      uint8 rxData;
 724:Generated_Source\PSoC5/USBUART_1_cdc.c ****      uint8 epNumber = USBUART_1_cdcDataOutEp[USBUART_1_activeCom];
 796              		.loc 1 724 0
 797 0002 074B     		ldr	r3, .L71
 798 0004 074A     		ldr	r2, .L71+4
 799 0006 1B78     		ldrb	r3, [r3]	@ zero_extendqisi2
 725:Generated_Source\PSoC5/USBUART_1_cdc.c **** 
 726:Generated_Source\PSoC5/USBUART_1_cdc.c ****     (void) USBUART_1_ReadOutEP(epNumber, &rxData, 1u);
 800              		.loc 1 726 0
 801 0008 0DF10701 		add	r1, sp, #7
 724:Generated_Source\PSoC5/USBUART_1_cdc.c **** 
 802              		.loc 1 724 0
 803 000c D05C     		ldrb	r0, [r2, r3]	@ zero_extendqisi2
 804              	.LVL60:
 805              		.loc 1 726 0
 806 000e 0122     		movs	r2, #1
 807 0010 FFF7FEFF 		bl	USBUART_1_ReadOutEP
 808              	.LVL61:
 727:Generated_Source\PSoC5/USBUART_1_cdc.c **** 
 728:Generated_Source\PSoC5/USBUART_1_cdc.c **** #if (USBUART_1_EP_MANAGEMENT_DMA_MANUAL)
 729:Generated_Source\PSoC5/USBUART_1_cdc.c ****     /* Wait until DMA complete transferring data from OUT endpoint buffer. */
 730:Generated_Source\PSoC5/USBUART_1_cdc.c ****     while (USBUART_1_OUT_BUFFER_FULL == USBUART_1_GetEPState(epNumber))
 731:Generated_Source\PSoC5/USBUART_1_cdc.c ****     {
 732:Generated_Source\PSoC5/USBUART_1_cdc.c ****     }
 733:Generated_Source\PSoC5/USBUART_1_cdc.c **** 
 734:Generated_Source\PSoC5/USBUART_1_cdc.c ****     /* Enable OUT endpoint to communicate with host. */
 735:Generated_Source\PSoC5/USBUART_1_cdc.c ****     USBUART_1_EnableOutEP(epNumber);
 736:Generated_Source\PSoC5/USBUART_1_cdc.c **** #endif /* (USBUART_1_EP_MANAGEMENT_DMA_MANUAL) */
 737:Generated_Source\PSoC5/USBUART_1_cdc.c **** 
 738:Generated_Source\PSoC5/USBUART_1_cdc.c ****     return (rxData);
ARM GAS  C:\Users\chemi\AppData\Local\Temp\cceWQSsJ.s 			page 29


 739:Generated_Source\PSoC5/USBUART_1_cdc.c **** }
 809              		.loc 1 739 0
 810 0014 9DF80700 		ldrb	r0, [sp, #7]	@ zero_extendqisi2
 811 0018 03B0     		add	sp, sp, #12
 812              		.cfi_def_cfa_offset 4
 813              		@ sp needed
 814 001a 5DF804FB 		ldr	pc, [sp], #4
 815              	.L72:
 816 001e 00BF     		.align	2
 817              	.L71:
 818 0020 00000000 		.word	.LANCHOR1
 819 0024 00000000 		.word	USBUART_1_cdcDataOutEp
 820              		.cfi_endproc
 821              	.LFE13:
 822              		.size	USBUART_1_GetChar, .-USBUART_1_GetChar
 823              		.section	.text.USBUART_1_IsLineChanged,"ax",%progbits
 824              		.align	1
 825              		.global	USBUART_1_IsLineChanged
 826              		.thumb
 827              		.thumb_func
 828              		.type	USBUART_1_IsLineChanged, %function
 829              	USBUART_1_IsLineChanged:
 830              	.LFB14:
 740:Generated_Source\PSoC5/USBUART_1_cdc.c **** 
 741:Generated_Source\PSoC5/USBUART_1_cdc.c **** 
 742:Generated_Source\PSoC5/USBUART_1_cdc.c **** /*******************************************************************************
 743:Generated_Source\PSoC5/USBUART_1_cdc.c **** * Function Name: USBUART_1_IsLineChanged
 744:Generated_Source\PSoC5/USBUART_1_cdc.c **** ****************************************************************************//**
 745:Generated_Source\PSoC5/USBUART_1_cdc.c **** *
 746:Generated_Source\PSoC5/USBUART_1_cdc.c **** *  This function returns clear on read status of the line. It returns not zero
 747:Generated_Source\PSoC5/USBUART_1_cdc.c **** *  value when the host sends updated coding or control information to the
 748:Generated_Source\PSoC5/USBUART_1_cdc.c **** *  device. The USBUART_1_GetDTERate(), USBUART_1_GetCharFormat()
 749:Generated_Source\PSoC5/USBUART_1_cdc.c **** *  or USBUART_1_GetParityType() or USBUART_1_GetDataBits() API
 750:Generated_Source\PSoC5/USBUART_1_cdc.c **** *  should be called to read data coding information.
 751:Generated_Source\PSoC5/USBUART_1_cdc.c **** *  The USBUART_1_GetLineControl() API should be called to read line
 752:Generated_Source\PSoC5/USBUART_1_cdc.c **** *  control information.
 753:Generated_Source\PSoC5/USBUART_1_cdc.c **** *
 754:Generated_Source\PSoC5/USBUART_1_cdc.c **** * \return
 755:Generated_Source\PSoC5/USBUART_1_cdc.c **** *  If SET_LINE_CODING or CDC_SET_CONTROL_LINE_STATE requests are received, it
 756:Generated_Source\PSoC5/USBUART_1_cdc.c **** *  returns a non-zero value. Otherwise, it returns zero.
 757:Generated_Source\PSoC5/USBUART_1_cdc.c **** *  Return Value                 | Description
 758:Generated_Source\PSoC5/USBUART_1_cdc.c **** *  -----------------------------|--------------------------
 759:Generated_Source\PSoC5/USBUART_1_cdc.c **** *  USBUART_LINE_CODING_CHANGED  | Line coding changed
 760:Generated_Source\PSoC5/USBUART_1_cdc.c **** *  USBUART_LINE_CONTROL_CHANGED |   Line control changed
 761:Generated_Source\PSoC5/USBUART_1_cdc.c **** *
 762:Generated_Source\PSoC5/USBUART_1_cdc.c **** * \globalvars
 763:Generated_Source\PSoC5/USBUART_1_cdc.c **** *  - \ref USBUART_1_transferState: it is checked to be sure then OUT
 764:Generated_Source\PSoC5/USBUART_1_cdc.c **** *    data phase has been complete, and data written to the lineCoding or
 765:Generated_Source\PSoC5/USBUART_1_cdc.c **** *    Control Bitmap buffer.
 766:Generated_Source\PSoC5/USBUART_1_cdc.c **** *  - \ref USBUART_1_linesChanged: used as a flag to be aware that
 767:Generated_Source\PSoC5/USBUART_1_cdc.c **** *    Host has been sent request for changing Line Coding or Control Bitmap.
 768:Generated_Source\PSoC5/USBUART_1_cdc.c **** *
 769:Generated_Source\PSoC5/USBUART_1_cdc.c **** *******************************************************************************/
 770:Generated_Source\PSoC5/USBUART_1_cdc.c **** uint8 USBUART_1_IsLineChanged(void) 
 771:Generated_Source\PSoC5/USBUART_1_cdc.c **** {
 831              		.loc 1 771 0
 832              		.cfi_startproc
ARM GAS  C:\Users\chemi\AppData\Local\Temp\cceWQSsJ.s 			page 30


 833              		@ args = 0, pretend = 0, frame = 0
 834              		@ frame_needed = 0, uses_anonymous_args = 0
 835              	.LVL62:
 836 0000 10B5     		push	{r4, lr}
 837              		.cfi_def_cfa_offset 8
 838              		.cfi_offset 4, -8
 839              		.cfi_offset 14, -4
 772:Generated_Source\PSoC5/USBUART_1_cdc.c ****     uint8 state = 0u;
 773:Generated_Source\PSoC5/USBUART_1_cdc.c **** 
 774:Generated_Source\PSoC5/USBUART_1_cdc.c ****     /* transferState is checked to be sure then OUT data phase has been complete */
 775:Generated_Source\PSoC5/USBUART_1_cdc.c ****     if (USBUART_1_transferState == USBUART_1_TRANS_STATE_IDLE)
 840              		.loc 1 775 0
 841 0002 094B     		ldr	r3, .L77
 842 0004 1B78     		ldrb	r3, [r3]	@ zero_extendqisi2
 843 0006 03F0FF04 		and	r4, r3, #255
 844 000a 53B9     		cbnz	r3, .L75
 776:Generated_Source\PSoC5/USBUART_1_cdc.c ****     {
 777:Generated_Source\PSoC5/USBUART_1_cdc.c ****         if (USBUART_1_linesChanged[USBUART_1_activeCom] != 0u)
 845              		.loc 1 777 0
 846 000c 074B     		ldr	r3, .L77+4
 847 000e 084A     		ldr	r2, .L77+8
 848 0010 1B78     		ldrb	r3, [r3]	@ zero_extendqisi2
 849 0012 D15C     		ldrb	r1, [r2, r3]	@ zero_extendqisi2
 850 0014 01F0FF00 		and	r0, r1, #255
 851 0018 21B1     		cbz	r1, .L74
 778:Generated_Source\PSoC5/USBUART_1_cdc.c ****         {
 779:Generated_Source\PSoC5/USBUART_1_cdc.c ****             state = USBUART_1_linesChanged[USBUART_1_activeCom];
 852              		.loc 1 779 0
 853 001a D05C     		ldrb	r0, [r2, r3]	@ zero_extendqisi2
 780:Generated_Source\PSoC5/USBUART_1_cdc.c ****             USBUART_1_linesChanged[USBUART_1_activeCom] = 0u;
 854              		.loc 1 780 0
 855 001c D454     		strb	r4, [r2, r3]
 779:Generated_Source\PSoC5/USBUART_1_cdc.c ****             USBUART_1_linesChanged[USBUART_1_activeCom] = 0u;
 856              		.loc 1 779 0
 857 001e C0B2     		uxtb	r0, r0
 858              	.LVL63:
 859 0020 10BD     		pop	{r4, pc}
 860              	.LVL64:
 861              	.L75:
 772:Generated_Source\PSoC5/USBUART_1_cdc.c **** 
 862              		.loc 1 772 0
 863 0022 0020     		movs	r0, #0
 864              	.L74:
 865              	.LVL65:
 781:Generated_Source\PSoC5/USBUART_1_cdc.c ****         }
 782:Generated_Source\PSoC5/USBUART_1_cdc.c ****     }
 783:Generated_Source\PSoC5/USBUART_1_cdc.c **** 
 784:Generated_Source\PSoC5/USBUART_1_cdc.c ****     return (state);
 785:Generated_Source\PSoC5/USBUART_1_cdc.c **** }
 866              		.loc 1 785 0
 867 0024 10BD     		pop	{r4, pc}
 868              	.L78:
 869 0026 00BF     		.align	2
 870              	.L77:
 871 0028 00000000 		.word	USBUART_1_transferState
 872 002c 00000000 		.word	.LANCHOR1
 873 0030 00000000 		.word	USBUART_1_linesChanged
ARM GAS  C:\Users\chemi\AppData\Local\Temp\cceWQSsJ.s 			page 31


 874              		.cfi_endproc
 875              	.LFE14:
 876              		.size	USBUART_1_IsLineChanged, .-USBUART_1_IsLineChanged
 877              		.section	.text.USBUART_1_GetDTERate,"ax",%progbits
 878              		.align	1
 879              		.global	USBUART_1_GetDTERate
 880              		.thumb
 881              		.thumb_func
 882              		.type	USBUART_1_GetDTERate, %function
 883              	USBUART_1_GetDTERate:
 884              	.LFB15:
 786:Generated_Source\PSoC5/USBUART_1_cdc.c **** 
 787:Generated_Source\PSoC5/USBUART_1_cdc.c **** 
 788:Generated_Source\PSoC5/USBUART_1_cdc.c **** /***************************************************************************
 789:Generated_Source\PSoC5/USBUART_1_cdc.c **** * Function Name: USBUART_1_GetDTERate
 790:Generated_Source\PSoC5/USBUART_1_cdc.c **** ************************************************************************//**
 791:Generated_Source\PSoC5/USBUART_1_cdc.c **** *
 792:Generated_Source\PSoC5/USBUART_1_cdc.c **** *  This function returns the data terminal rate set for this port in bits
 793:Generated_Source\PSoC5/USBUART_1_cdc.c **** *  per second.
 794:Generated_Source\PSoC5/USBUART_1_cdc.c **** *
 795:Generated_Source\PSoC5/USBUART_1_cdc.c **** * \return
 796:Generated_Source\PSoC5/USBUART_1_cdc.c **** *  Returns a uint32 value of the data rate in bits per second.
 797:Generated_Source\PSoC5/USBUART_1_cdc.c **** *
 798:Generated_Source\PSoC5/USBUART_1_cdc.c **** * \globalvars
 799:Generated_Source\PSoC5/USBUART_1_cdc.c **** *  USBUART_1_linesCoding: First four bytes converted to uint32
 800:Generated_Source\PSoC5/USBUART_1_cdc.c **** *    depend on compiler, and returned as a data rate.
 801:Generated_Source\PSoC5/USBUART_1_cdc.c **** *
 802:Generated_Source\PSoC5/USBUART_1_cdc.c **** *******************************************************************************/
 803:Generated_Source\PSoC5/USBUART_1_cdc.c **** uint32 USBUART_1_GetDTERate(void) 
 804:Generated_Source\PSoC5/USBUART_1_cdc.c **** {
 885              		.loc 1 804 0
 886              		.cfi_startproc
 887              		@ args = 0, pretend = 0, frame = 0
 888              		@ frame_needed = 0, uses_anonymous_args = 0
 889 0000 10B5     		push	{r4, lr}
 890              		.cfi_def_cfa_offset 8
 891              		.cfi_offset 4, -8
 892              		.cfi_offset 14, -4
 805:Generated_Source\PSoC5/USBUART_1_cdc.c ****     uint32 rate;
 806:Generated_Source\PSoC5/USBUART_1_cdc.c **** 
 807:Generated_Source\PSoC5/USBUART_1_cdc.c ****     rate = USBUART_1_linesCoding[USBUART_1_activeCom][USBUART_1_LINE_CODING_RATE + 3u];
 893              		.loc 1 807 0
 894 0002 084B     		ldr	r3, .L80
 895 0004 084C     		ldr	r4, .L80+4
 896 0006 1B78     		ldrb	r3, [r3]	@ zero_extendqisi2
 897 0008 C3EBC303 		rsb	r3, r3, r3, lsl #3
 898 000c E118     		adds	r1, r4, r3
 899 000e C878     		ldrb	r0, [r1, #3]	@ zero_extendqisi2
 900              	.LVL66:
 808:Generated_Source\PSoC5/USBUART_1_cdc.c ****     rate = (rate << 8u) | USBUART_1_linesCoding[USBUART_1_activeCom][USBUART_1_LINE_CODING_RATE + 2
 901              		.loc 1 808 0
 902 0010 8A78     		ldrb	r2, [r1, #2]	@ zero_extendqisi2
 903              	.LVL67:
 809:Generated_Source\PSoC5/USBUART_1_cdc.c ****     rate = (rate << 8u) | USBUART_1_linesCoding[USBUART_1_activeCom][USBUART_1_LINE_CODING_RATE + 1
 904              		.loc 1 809 0
 905 0012 42EA0020 		orr	r0, r2, r0, lsl #8
 906              	.LVL68:
ARM GAS  C:\Users\chemi\AppData\Local\Temp\cceWQSsJ.s 			page 32


 907 0016 4A78     		ldrb	r2, [r1, #1]	@ zero_extendqisi2
 908              	.LVL69:
 810:Generated_Source\PSoC5/USBUART_1_cdc.c ****     rate = (rate << 8u) | USBUART_1_linesCoding[USBUART_1_activeCom][USBUART_1_LINE_CODING_RATE];
 909              		.loc 1 810 0
 910 0018 42EA0022 		orr	r2, r2, r0, lsl #8
 911              	.LVL70:
 912 001c E05C     		ldrb	r0, [r4, r3]	@ zero_extendqisi2
 913              	.LVL71:
 811:Generated_Source\PSoC5/USBUART_1_cdc.c **** 
 812:Generated_Source\PSoC5/USBUART_1_cdc.c ****     return (rate);
 813:Generated_Source\PSoC5/USBUART_1_cdc.c **** }
 914              		.loc 1 813 0
 915 001e 40EA0220 		orr	r0, r0, r2, lsl #8
 916              	.LVL72:
 917 0022 10BD     		pop	{r4, pc}
 918              	.L81:
 919              		.align	2
 920              	.L80:
 921 0024 00000000 		.word	.LANCHOR1
 922 0028 00000000 		.word	.LANCHOR0
 923              		.cfi_endproc
 924              	.LFE15:
 925              		.size	USBUART_1_GetDTERate, .-USBUART_1_GetDTERate
 926              		.section	.text.USBUART_1_GetCharFormat,"ax",%progbits
 927              		.align	1
 928              		.global	USBUART_1_GetCharFormat
 929              		.thumb
 930              		.thumb_func
 931              		.type	USBUART_1_GetCharFormat, %function
 932              	USBUART_1_GetCharFormat:
 933              	.LFB16:
 814:Generated_Source\PSoC5/USBUART_1_cdc.c **** 
 815:Generated_Source\PSoC5/USBUART_1_cdc.c **** 
 816:Generated_Source\PSoC5/USBUART_1_cdc.c **** /*******************************************************************************
 817:Generated_Source\PSoC5/USBUART_1_cdc.c **** * Function Name: USBUART_1_GetCharFormat
 818:Generated_Source\PSoC5/USBUART_1_cdc.c **** ****************************************************************************//**
 819:Generated_Source\PSoC5/USBUART_1_cdc.c **** *
 820:Generated_Source\PSoC5/USBUART_1_cdc.c **** *  Returns the number of stop bits.
 821:Generated_Source\PSoC5/USBUART_1_cdc.c **** *
 822:Generated_Source\PSoC5/USBUART_1_cdc.c **** * \return
 823:Generated_Source\PSoC5/USBUART_1_cdc.c **** *  Returns the number of stop bits.
 824:Generated_Source\PSoC5/USBUART_1_cdc.c **** *  Return               |Value Description
 825:Generated_Source\PSoC5/USBUART_1_cdc.c **** *  ---------------------|-------------------
 826:Generated_Source\PSoC5/USBUART_1_cdc.c **** *  USBUART_1_STOPBIT    | 1 stop bit
 827:Generated_Source\PSoC5/USBUART_1_cdc.c **** *  USBUART_1_5_STOPBITS | 1,5 stop bits
 828:Generated_Source\PSoC5/USBUART_1_cdc.c **** *  USBUART_2_STOPBITS   | 2 stop bits
 829:Generated_Source\PSoC5/USBUART_1_cdc.c **** *
 830:Generated_Source\PSoC5/USBUART_1_cdc.c **** *
 831:Generated_Source\PSoC5/USBUART_1_cdc.c **** * \globalvars
 832:Generated_Source\PSoC5/USBUART_1_cdc.c **** *  USBUART_1_linesCoding: used to get a parameter.
 833:Generated_Source\PSoC5/USBUART_1_cdc.c **** *
 834:Generated_Source\PSoC5/USBUART_1_cdc.c **** *******************************************************************************/
 835:Generated_Source\PSoC5/USBUART_1_cdc.c **** uint8 USBUART_1_GetCharFormat(void) 
 836:Generated_Source\PSoC5/USBUART_1_cdc.c **** {
 934              		.loc 1 836 0
 935              		.cfi_startproc
 936              		@ args = 0, pretend = 0, frame = 0
ARM GAS  C:\Users\chemi\AppData\Local\Temp\cceWQSsJ.s 			page 33


 937              		@ frame_needed = 0, uses_anonymous_args = 0
 938              		@ link register save eliminated.
 837:Generated_Source\PSoC5/USBUART_1_cdc.c ****     return (USBUART_1_linesCoding[USBUART_1_activeCom][USBUART_1_LINE_CODING_STOP_BITS]);
 939              		.loc 1 837 0
 940 0000 034B     		ldr	r3, .L83
 941 0002 044A     		ldr	r2, .L83+4
 942 0004 1B78     		ldrb	r3, [r3]	@ zero_extendqisi2
 943 0006 C3EBC303 		rsb	r3, r3, r3, lsl #3
 944 000a 1344     		add	r3, r3, r2
 945 000c 1879     		ldrb	r0, [r3, #4]	@ zero_extendqisi2
 838:Generated_Source\PSoC5/USBUART_1_cdc.c **** }
 946              		.loc 1 838 0
 947 000e 7047     		bx	lr
 948              	.L84:
 949              		.align	2
 950              	.L83:
 951 0010 00000000 		.word	.LANCHOR1
 952 0014 00000000 		.word	.LANCHOR0
 953              		.cfi_endproc
 954              	.LFE16:
 955              		.size	USBUART_1_GetCharFormat, .-USBUART_1_GetCharFormat
 956              		.section	.text.USBUART_1_GetParityType,"ax",%progbits
 957              		.align	1
 958              		.global	USBUART_1_GetParityType
 959              		.thumb
 960              		.thumb_func
 961              		.type	USBUART_1_GetParityType, %function
 962              	USBUART_1_GetParityType:
 963              	.LFB17:
 839:Generated_Source\PSoC5/USBUART_1_cdc.c **** 
 840:Generated_Source\PSoC5/USBUART_1_cdc.c **** 
 841:Generated_Source\PSoC5/USBUART_1_cdc.c **** /*******************************************************************************
 842:Generated_Source\PSoC5/USBUART_1_cdc.c **** * Function Name: USBUART_1_GetParityType
 843:Generated_Source\PSoC5/USBUART_1_cdc.c **** ****************************************************************************//**
 844:Generated_Source\PSoC5/USBUART_1_cdc.c **** *
 845:Generated_Source\PSoC5/USBUART_1_cdc.c **** *  This function returns the parity type for the CDC port.
 846:Generated_Source\PSoC5/USBUART_1_cdc.c **** *
 847:Generated_Source\PSoC5/USBUART_1_cdc.c **** * \return
 848:Generated_Source\PSoC5/USBUART_1_cdc.c **** *  Returns the parity type.
 849:Generated_Source\PSoC5/USBUART_1_cdc.c **** *   Return               | Value Description
 850:Generated_Source\PSoC5/USBUART_1_cdc.c **** *  ----------------------|-------------------
 851:Generated_Source\PSoC5/USBUART_1_cdc.c **** *  USBUART_PARITY_NONE   | 1 stop bit
 852:Generated_Source\PSoC5/USBUART_1_cdc.c **** *  USBUART_PARITY_ODD    | 1,5 stop bits
 853:Generated_Source\PSoC5/USBUART_1_cdc.c **** *  USBUART_PARITY_EVEN   | 2 stop bits
 854:Generated_Source\PSoC5/USBUART_1_cdc.c **** *  USBUART_PARITY_MARK   | Mark
 855:Generated_Source\PSoC5/USBUART_1_cdc.c **** *  USBUART_PARITY_SPACE  | Space
 856:Generated_Source\PSoC5/USBUART_1_cdc.c **** *
 857:Generated_Source\PSoC5/USBUART_1_cdc.c **** * \globalvars
 858:Generated_Source\PSoC5/USBUART_1_cdc.c **** *  USBUART_1_linesCoding: used to get a parameter.
 859:Generated_Source\PSoC5/USBUART_1_cdc.c **** *
 860:Generated_Source\PSoC5/USBUART_1_cdc.c **** *******************************************************************************/
 861:Generated_Source\PSoC5/USBUART_1_cdc.c **** uint8 USBUART_1_GetParityType(void) 
 862:Generated_Source\PSoC5/USBUART_1_cdc.c **** {
 964              		.loc 1 862 0
 965              		.cfi_startproc
 966              		@ args = 0, pretend = 0, frame = 0
 967              		@ frame_needed = 0, uses_anonymous_args = 0
ARM GAS  C:\Users\chemi\AppData\Local\Temp\cceWQSsJ.s 			page 34


 968              		@ link register save eliminated.
 863:Generated_Source\PSoC5/USBUART_1_cdc.c ****     return (USBUART_1_linesCoding[USBUART_1_activeCom][USBUART_1_LINE_CODING_PARITY]);
 969              		.loc 1 863 0
 970 0000 034B     		ldr	r3, .L86
 971 0002 044A     		ldr	r2, .L86+4
 972 0004 1B78     		ldrb	r3, [r3]	@ zero_extendqisi2
 973 0006 C3EBC303 		rsb	r3, r3, r3, lsl #3
 974 000a 1344     		add	r3, r3, r2
 975 000c 5879     		ldrb	r0, [r3, #5]	@ zero_extendqisi2
 864:Generated_Source\PSoC5/USBUART_1_cdc.c **** }
 976              		.loc 1 864 0
 977 000e 7047     		bx	lr
 978              	.L87:
 979              		.align	2
 980              	.L86:
 981 0010 00000000 		.word	.LANCHOR1
 982 0014 00000000 		.word	.LANCHOR0
 983              		.cfi_endproc
 984              	.LFE17:
 985              		.size	USBUART_1_GetParityType, .-USBUART_1_GetParityType
 986              		.section	.text.USBUART_1_GetDataBits,"ax",%progbits
 987              		.align	1
 988              		.global	USBUART_1_GetDataBits
 989              		.thumb
 990              		.thumb_func
 991              		.type	USBUART_1_GetDataBits, %function
 992              	USBUART_1_GetDataBits:
 993              	.LFB18:
 865:Generated_Source\PSoC5/USBUART_1_cdc.c **** 
 866:Generated_Source\PSoC5/USBUART_1_cdc.c **** 
 867:Generated_Source\PSoC5/USBUART_1_cdc.c **** /***************************************************************************
 868:Generated_Source\PSoC5/USBUART_1_cdc.c **** * Function Name: USBUART_1_GetDataBits
 869:Generated_Source\PSoC5/USBUART_1_cdc.c **** ************************************************************************//**
 870:Generated_Source\PSoC5/USBUART_1_cdc.c **** *
 871:Generated_Source\PSoC5/USBUART_1_cdc.c **** *  This function returns the number of data bits for the CDC port.
 872:Generated_Source\PSoC5/USBUART_1_cdc.c **** *
 873:Generated_Source\PSoC5/USBUART_1_cdc.c **** * \return
 874:Generated_Source\PSoC5/USBUART_1_cdc.c **** *  Returns the number of data bits.
 875:Generated_Source\PSoC5/USBUART_1_cdc.c **** *  The number of data bits can be 5, 6, 7, 8 or 16.
 876:Generated_Source\PSoC5/USBUART_1_cdc.c **** *
 877:Generated_Source\PSoC5/USBUART_1_cdc.c **** * \globalvars
 878:Generated_Source\PSoC5/USBUART_1_cdc.c **** *  USBUART_1_linesCoding: used to get a parameter.
 879:Generated_Source\PSoC5/USBUART_1_cdc.c **** *
 880:Generated_Source\PSoC5/USBUART_1_cdc.c **** *******************************************************************************/
 881:Generated_Source\PSoC5/USBUART_1_cdc.c **** uint8 USBUART_1_GetDataBits(void) 
 882:Generated_Source\PSoC5/USBUART_1_cdc.c **** {
 994              		.loc 1 882 0
 995              		.cfi_startproc
 996              		@ args = 0, pretend = 0, frame = 0
 997              		@ frame_needed = 0, uses_anonymous_args = 0
 998              		@ link register save eliminated.
 883:Generated_Source\PSoC5/USBUART_1_cdc.c ****     return (USBUART_1_linesCoding[USBUART_1_activeCom][USBUART_1_LINE_CODING_DATA_BITS]);
 999              		.loc 1 883 0
 1000 0000 034B     		ldr	r3, .L89
 1001 0002 044A     		ldr	r2, .L89+4
 1002 0004 1B78     		ldrb	r3, [r3]	@ zero_extendqisi2
 1003 0006 C3EBC303 		rsb	r3, r3, r3, lsl #3
ARM GAS  C:\Users\chemi\AppData\Local\Temp\cceWQSsJ.s 			page 35


 1004 000a 1344     		add	r3, r3, r2
 1005 000c 9879     		ldrb	r0, [r3, #6]	@ zero_extendqisi2
 884:Generated_Source\PSoC5/USBUART_1_cdc.c **** }
 1006              		.loc 1 884 0
 1007 000e 7047     		bx	lr
 1008              	.L90:
 1009              		.align	2
 1010              	.L89:
 1011 0010 00000000 		.word	.LANCHOR1
 1012 0014 00000000 		.word	.LANCHOR0
 1013              		.cfi_endproc
 1014              	.LFE18:
 1015              		.size	USBUART_1_GetDataBits, .-USBUART_1_GetDataBits
 1016              		.section	.text.USBUART_1_GetLineControl,"ax",%progbits
 1017              		.align	1
 1018              		.global	USBUART_1_GetLineControl
 1019              		.thumb
 1020              		.thumb_func
 1021              		.type	USBUART_1_GetLineControl, %function
 1022              	USBUART_1_GetLineControl:
 1023              	.LFB19:
 885:Generated_Source\PSoC5/USBUART_1_cdc.c **** 
 886:Generated_Source\PSoC5/USBUART_1_cdc.c **** 
 887:Generated_Source\PSoC5/USBUART_1_cdc.c **** /***************************************************************************
 888:Generated_Source\PSoC5/USBUART_1_cdc.c **** * Function Name: USBUART_1_GetLineControl
 889:Generated_Source\PSoC5/USBUART_1_cdc.c **** ************************************************************************//**
 890:Generated_Source\PSoC5/USBUART_1_cdc.c **** *
 891:Generated_Source\PSoC5/USBUART_1_cdc.c **** *  This function returns Line control bitmap that the host sends to the
 892:Generated_Source\PSoC5/USBUART_1_cdc.c **** *  device.
 893:Generated_Source\PSoC5/USBUART_1_cdc.c **** *
 894:Generated_Source\PSoC5/USBUART_1_cdc.c **** * \return
 895:Generated_Source\PSoC5/USBUART_1_cdc.c **** *  Returns Line control bitmap.
 896:Generated_Source\PSoC5/USBUART_1_cdc.c **** *  Return                   |Value Notes
 897:Generated_Source\PSoC5/USBUART_1_cdc.c **** *  -------------------------|-----------------------------------------------
 898:Generated_Source\PSoC5/USBUART_1_cdc.c **** *  USBUART_LINE_CONTROL_DTR |Indicates that a DTR signal is present. This signal corresponds to V.2
 899:Generated_Source\PSoC5/USBUART_1_cdc.c **** *  USBUART_LINE_CONTROL_RTS |Carrier control for half-duplex modems. This signal corresponds to V.2
 900:Generated_Source\PSoC5/USBUART_1_cdc.c **** *  RESERVED                 |The rest of the bits are reserved.
 901:Generated_Source\PSoC5/USBUART_1_cdc.c **** *
 902:Generated_Source\PSoC5/USBUART_1_cdc.c **** *  *Note* Some terminal emulation programs do not properly handle these
 903:Generated_Source\PSoC5/USBUART_1_cdc.c **** *  control signals. They update information about DTR and RTS state only
 904:Generated_Source\PSoC5/USBUART_1_cdc.c **** *  when the RTS signal changes the state.
 905:Generated_Source\PSoC5/USBUART_1_cdc.c **** *
 906:Generated_Source\PSoC5/USBUART_1_cdc.c **** * \globalvars
 907:Generated_Source\PSoC5/USBUART_1_cdc.c **** *  USBUART_1_linesControlBitmap: used to get a parameter.
 908:Generated_Source\PSoC5/USBUART_1_cdc.c **** *
 909:Generated_Source\PSoC5/USBUART_1_cdc.c **** *******************************************************************************/
 910:Generated_Source\PSoC5/USBUART_1_cdc.c **** uint16 USBUART_1_GetLineControl(void) 
 911:Generated_Source\PSoC5/USBUART_1_cdc.c **** {
 1024              		.loc 1 911 0
 1025              		.cfi_startproc
 1026              		@ args = 0, pretend = 0, frame = 0
 1027              		@ frame_needed = 0, uses_anonymous_args = 0
 1028              		@ link register save eliminated.
 912:Generated_Source\PSoC5/USBUART_1_cdc.c ****     return (USBUART_1_linesControlBitmap[USBUART_1_activeCom]);
 1029              		.loc 1 912 0
 1030 0000 034B     		ldr	r3, .L92
 1031 0002 1A78     		ldrb	r2, [r3]	@ zero_extendqisi2
ARM GAS  C:\Users\chemi\AppData\Local\Temp\cceWQSsJ.s 			page 36


 1032 0004 034B     		ldr	r3, .L92+4
 1033 0006 33F81200 		ldrh	r0, [r3, r2, lsl #1]
 913:Generated_Source\PSoC5/USBUART_1_cdc.c **** }
 1034              		.loc 1 913 0
 1035 000a 80B2     		uxth	r0, r0
 1036 000c 7047     		bx	lr
 1037              	.L93:
 1038 000e 00BF     		.align	2
 1039              	.L92:
 1040 0010 00000000 		.word	.LANCHOR1
 1041 0014 00000000 		.word	USBUART_1_linesControlBitmap
 1042              		.cfi_endproc
 1043              	.LFE19:
 1044              		.size	USBUART_1_GetLineControl, .-USBUART_1_GetLineControl
 1045              		.section	.text.USBUART_1_SendSerialState,"ax",%progbits
 1046              		.align	1
 1047              		.global	USBUART_1_SendSerialState
 1048              		.thumb
 1049              		.thumb_func
 1050              		.type	USBUART_1_SendSerialState, %function
 1051              	USBUART_1_SendSerialState:
 1052              	.LFB20:
 914:Generated_Source\PSoC5/USBUART_1_cdc.c **** 
 915:Generated_Source\PSoC5/USBUART_1_cdc.c **** 
 916:Generated_Source\PSoC5/USBUART_1_cdc.c **** /*******************************************************************************
 917:Generated_Source\PSoC5/USBUART_1_cdc.c **** * Function Name: USBUART_1_SendSerialState
 918:Generated_Source\PSoC5/USBUART_1_cdc.c **** ****************************************************************************//**
 919:Generated_Source\PSoC5/USBUART_1_cdc.c **** *
 920:Generated_Source\PSoC5/USBUART_1_cdc.c **** *  Sends the serial state notification to the host using the interrupt
 921:Generated_Source\PSoC5/USBUART_1_cdc.c **** *  endpoint for the COM port selected using the API SetComPort().The
 922:Generated_Source\PSoC5/USBUART_1_cdc.c **** *  USBUART_1_NotificationIsReady() API must be called to check if the
 923:Generated_Source\PSoC5/USBUART_1_cdc.c **** *  Component is ready to send more serial state to the host. The API will
 924:Generated_Source\PSoC5/USBUART_1_cdc.c **** *  not send the notification data if the interrupt endpoint Max Packet Size
 925:Generated_Source\PSoC5/USBUART_1_cdc.c **** *  is less than the required 10 bytes.
 926:Generated_Source\PSoC5/USBUART_1_cdc.c **** *
 927:Generated_Source\PSoC5/USBUART_1_cdc.c **** * \param uint16 serialState
 928:Generated_Source\PSoC5/USBUART_1_cdc.c **** *  16-bit value that will be sent from the device to the
 929:Generated_Source\PSoC5/USBUART_1_cdc.c **** *  host as SERIAL_STATE notification using the IN interrupt endpoint. Refer
 930:Generated_Source\PSoC5/USBUART_1_cdc.c **** *  to revision 1.2 of the CDC PSTN Subclass specification for bit field
 931:Generated_Source\PSoC5/USBUART_1_cdc.c **** *  definitions of the 16-bit serial state value.
 932:Generated_Source\PSoC5/USBUART_1_cdc.c **** *
 933:Generated_Source\PSoC5/USBUART_1_cdc.c **** *******************************************************************************/
 934:Generated_Source\PSoC5/USBUART_1_cdc.c **** void USBUART_1_SendSerialState (uint16 serialState) 
 935:Generated_Source\PSoC5/USBUART_1_cdc.c **** {
 1053              		.loc 1 935 0
 1054              		.cfi_startproc
 1055              		@ args = 0, pretend = 0, frame = 0
 1056              		@ frame_needed = 0, uses_anonymous_args = 0
 1057              		@ link register save eliminated.
 1058              	.LVL73:
 1059 0000 10B4     		push	{r4}
 1060              		.cfi_def_cfa_offset 4
 1061              		.cfi_offset 4, -4
 936:Generated_Source\PSoC5/USBUART_1_cdc.c ****     uint8 epNumber = USBUART_1_cdcCommInInterruptEp[USBUART_1_activeCom];
 1062              		.loc 1 936 0
 1063 0002 114B     		ldr	r3, .L96
 937:Generated_Source\PSoC5/USBUART_1_cdc.c **** 
ARM GAS  C:\Users\chemi\AppData\Local\Temp\cceWQSsJ.s 			page 37


 938:Generated_Source\PSoC5/USBUART_1_cdc.c ****     if(USBUART_1_SERIAL_STATE_SIZE <= USBUART_1_EP[epNumber].bufferSize)
 1064              		.loc 1 938 0
 1065 0004 114C     		ldr	r4, .L96+4
 936:Generated_Source\PSoC5/USBUART_1_cdc.c ****     uint8 epNumber = USBUART_1_cdcCommInInterruptEp[USBUART_1_activeCom];
 1066              		.loc 1 936 0
 1067 0006 1A78     		ldrb	r2, [r3]	@ zero_extendqisi2
 1068 0008 114B     		ldr	r3, .L96+8
 1069              		.loc 1 938 0
 1070 000a 0C21     		movs	r1, #12
 936:Generated_Source\PSoC5/USBUART_1_cdc.c ****     uint8 epNumber = USBUART_1_cdcCommInInterruptEp[USBUART_1_activeCom];
 1071              		.loc 1 936 0
 1072 000c 9B5C     		ldrb	r3, [r3, r2]	@ zero_extendqisi2
 1073 000e DBB2     		uxtb	r3, r3
 1074              	.LVL74:
 1075              		.loc 1 938 0
 1076 0010 01FB0341 		mla	r1, r1, r3, r4
 1077 0014 0C89     		ldrh	r4, [r1, #8]
 1078 0016 A4B2     		uxth	r4, r4
 1079 0018 092C     		cmp	r4, #9
 1080 001a 13D9     		bls	.L94
 939:Generated_Source\PSoC5/USBUART_1_cdc.c ****     {
 940:Generated_Source\PSoC5/USBUART_1_cdc.c ****         /* Save current SERIAL_STATE bitmap. */
 941:Generated_Source\PSoC5/USBUART_1_cdc.c ****         USBUART_1_serialStateBitmap[USBUART_1_activeCom] = serialState;
 1081              		.loc 1 941 0
 1082 001c 0D4C     		ldr	r4, .L96+12
 1083 001e 24F81200 		strh	r0, [r4, r2, lsl #1]	@ movhi
 942:Generated_Source\PSoC5/USBUART_1_cdc.c **** 
 943:Generated_Source\PSoC5/USBUART_1_cdc.c ****         /* Add interface number */
 944:Generated_Source\PSoC5/USBUART_1_cdc.c ****         USBUART_1_serialStateNotification.wIndex = USBUART_1_EP[epNumber].interface;
 1084              		.loc 1 944 0
 1085 0022 887A     		ldrb	r0, [r1, #10]	@ zero_extendqisi2
 1086              	.LVL75:
 1087 0024 0C49     		ldr	r1, .L96+16
 1088 0026 8874     		strb	r0, [r1, #18]
 945:Generated_Source\PSoC5/USBUART_1_cdc.c **** 
 946:Generated_Source\PSoC5/USBUART_1_cdc.c ****         /*Form SERIAL_STATE data*/
 947:Generated_Source\PSoC5/USBUART_1_cdc.c ****         USBUART_1_serialStateNotification.wSerialState =    LO8(USBUART_1_serialStateBitmap[USBUART
 1089              		.loc 1 947 0
 1090 0028 34F81200 		ldrh	r0, [r4, r2, lsl #1]
 948:Generated_Source\PSoC5/USBUART_1_cdc.c ****         USBUART_1_serialStateNotification.wSerialStateMSB = HI8(USBUART_1_serialStateBitmap[USBUART
 1091              		.loc 1 948 0
 1092 002c 34F81220 		ldrh	r2, [r4, r2, lsl #1]
 1093              	.LVL76:
 947:Generated_Source\PSoC5/USBUART_1_cdc.c ****         USBUART_1_serialStateNotification.wSerialStateMSB = HI8(USBUART_1_serialStateBitmap[USBUART
 1094              		.loc 1 947 0
 1095 0030 8875     		strb	r0, [r1, #22]
 1096              		.loc 1 948 0
 1097 0032 C2F30722 		ubfx	r2, r2, #8, #8
 1098 0036 CA75     		strb	r2, [r1, #23]
 949:Generated_Source\PSoC5/USBUART_1_cdc.c **** 
 950:Generated_Source\PSoC5/USBUART_1_cdc.c ****         USBUART_1_LoadInEP(epNumber, (uint8 *) &USBUART_1_serialStateNotification, sizeof(USBUART_1
 1099              		.loc 1 950 0
 1100 0038 1846     		mov	r0, r3
 1101 003a 0A22     		movs	r2, #10
 1102 003c 0E31     		adds	r1, r1, #14
 951:Generated_Source\PSoC5/USBUART_1_cdc.c ****     }
 952:Generated_Source\PSoC5/USBUART_1_cdc.c **** }
ARM GAS  C:\Users\chemi\AppData\Local\Temp\cceWQSsJ.s 			page 38


 1103              		.loc 1 952 0
 1104 003e 10BC     		pop	{r4}
 1105              		.cfi_remember_state
 1106              		.cfi_restore 4
 1107              		.cfi_def_cfa_offset 0
 1108              	.LVL77:
 950:Generated_Source\PSoC5/USBUART_1_cdc.c ****     }
 1109              		.loc 1 950 0
 1110 0040 FFF7FEBF 		b	USBUART_1_LoadInEP
 1111              	.LVL78:
 1112              	.L94:
 1113              		.cfi_restore_state
 1114              		.loc 1 952 0
 1115 0044 10BC     		pop	{r4}
 1116              		.cfi_restore 4
 1117              		.cfi_def_cfa_offset 0
 1118 0046 7047     		bx	lr
 1119              	.L97:
 1120              		.align	2
 1121              	.L96:
 1122 0048 00000000 		.word	.LANCHOR1
 1123 004c 00000000 		.word	USBUART_1_EP
 1124 0050 00000000 		.word	USBUART_1_cdcCommInInterruptEp
 1125 0054 00000000 		.word	USBUART_1_serialStateBitmap
 1126 0058 00000000 		.word	.LANCHOR0
 1127              		.cfi_endproc
 1128              	.LFE20:
 1129              		.size	USBUART_1_SendSerialState, .-USBUART_1_SendSerialState
 1130              		.section	.text.USBUART_1_GetSerialState,"ax",%progbits
 1131              		.align	1
 1132              		.global	USBUART_1_GetSerialState
 1133              		.thumb
 1134              		.thumb_func
 1135              		.type	USBUART_1_GetSerialState, %function
 1136              	USBUART_1_GetSerialState:
 1137              	.LFB21:
 953:Generated_Source\PSoC5/USBUART_1_cdc.c **** 
 954:Generated_Source\PSoC5/USBUART_1_cdc.c **** 
 955:Generated_Source\PSoC5/USBUART_1_cdc.c **** /*******************************************************************************
 956:Generated_Source\PSoC5/USBUART_1_cdc.c **** * Function Name: USBUART_1_GetSerialState
 957:Generated_Source\PSoC5/USBUART_1_cdc.c **** ****************************************************************************//**
 958:Generated_Source\PSoC5/USBUART_1_cdc.c **** *
 959:Generated_Source\PSoC5/USBUART_1_cdc.c **** *  This function returns the current serial state value for the COM port
 960:Generated_Source\PSoC5/USBUART_1_cdc.c **** *  selected using the API SetComPort().
 961:Generated_Source\PSoC5/USBUART_1_cdc.c **** *
 962:Generated_Source\PSoC5/USBUART_1_cdc.c **** * \return
 963:Generated_Source\PSoC5/USBUART_1_cdc.c **** *  16-bit serial state value. Refer to revision 1.2 of the CDC PSTN Subclass
 964:Generated_Source\PSoC5/USBUART_1_cdc.c **** *  specification for bit field definitions of the 16-bit serial state value.
 965:Generated_Source\PSoC5/USBUART_1_cdc.c **** *
 966:Generated_Source\PSoC5/USBUART_1_cdc.c **** *******************************************************************************/
 967:Generated_Source\PSoC5/USBUART_1_cdc.c **** uint16 USBUART_1_GetSerialState(void) 
 968:Generated_Source\PSoC5/USBUART_1_cdc.c **** {
 1138              		.loc 1 968 0
 1139              		.cfi_startproc
 1140              		@ args = 0, pretend = 0, frame = 0
 1141              		@ frame_needed = 0, uses_anonymous_args = 0
 1142              		@ link register save eliminated.
ARM GAS  C:\Users\chemi\AppData\Local\Temp\cceWQSsJ.s 			page 39


 969:Generated_Source\PSoC5/USBUART_1_cdc.c ****     return USBUART_1_serialStateBitmap[USBUART_1_activeCom];
 1143              		.loc 1 969 0
 1144 0000 034B     		ldr	r3, .L99
 1145 0002 1A78     		ldrb	r2, [r3]	@ zero_extendqisi2
 1146 0004 034B     		ldr	r3, .L99+4
 1147 0006 33F81200 		ldrh	r0, [r3, r2, lsl #1]
 970:Generated_Source\PSoC5/USBUART_1_cdc.c **** }
 1148              		.loc 1 970 0
 1149 000a 80B2     		uxth	r0, r0
 1150 000c 7047     		bx	lr
 1151              	.L100:
 1152 000e 00BF     		.align	2
 1153              	.L99:
 1154 0010 00000000 		.word	.LANCHOR1
 1155 0014 00000000 		.word	USBUART_1_serialStateBitmap
 1156              		.cfi_endproc
 1157              	.LFE21:
 1158              		.size	USBUART_1_GetSerialState, .-USBUART_1_GetSerialState
 1159              		.section	.text.USBUART_1_NotificationIsReady,"ax",%progbits
 1160              		.align	1
 1161              		.global	USBUART_1_NotificationIsReady
 1162              		.thumb
 1163              		.thumb_func
 1164              		.type	USBUART_1_NotificationIsReady, %function
 1165              	USBUART_1_NotificationIsReady:
 1166              	.LFB22:
 971:Generated_Source\PSoC5/USBUART_1_cdc.c **** 
 972:Generated_Source\PSoC5/USBUART_1_cdc.c **** 
 973:Generated_Source\PSoC5/USBUART_1_cdc.c **** /*******************************************************************************
 974:Generated_Source\PSoC5/USBUART_1_cdc.c **** * Function Name: USBUART_1_NotificationIsReady
 975:Generated_Source\PSoC5/USBUART_1_cdc.c **** ****************************************************************************//**
 976:Generated_Source\PSoC5/USBUART_1_cdc.c **** *
 977:Generated_Source\PSoC5/USBUART_1_cdc.c **** *  This function returns a non-zero value if the Component is ready to send
 978:Generated_Source\PSoC5/USBUART_1_cdc.c **** *  more notifications to the host; otherwise, it returns zero. The function
 979:Generated_Source\PSoC5/USBUART_1_cdc.c **** *  should be called before sending new notifications when using
 980:Generated_Source\PSoC5/USBUART_1_cdc.c **** *  USBUART_1_SendSerialState() to ensure that any previous
 981:Generated_Source\PSoC5/USBUART_1_cdc.c **** *  notification data has been already sent to the host.
 982:Generated_Source\PSoC5/USBUART_1_cdc.c **** *
 983:Generated_Source\PSoC5/USBUART_1_cdc.c **** * \return
 984:Generated_Source\PSoC5/USBUART_1_cdc.c **** *  If the buffer can accept new data(endpoint buffer not full), this
 985:Generated_Source\PSoC5/USBUART_1_cdc.c **** *  function returns a non-zero value. Otherwise, it returns zero.
 986:Generated_Source\PSoC5/USBUART_1_cdc.c **** *
 987:Generated_Source\PSoC5/USBUART_1_cdc.c **** * \globalvars
 988:Generated_Source\PSoC5/USBUART_1_cdc.c **** *   USBUART_1_cdcDataInEp: CDC IN endpoint number used.
 989:Generated_Source\PSoC5/USBUART_1_cdc.c **** *
 990:Generated_Source\PSoC5/USBUART_1_cdc.c **** *******************************************************************************/
 991:Generated_Source\PSoC5/USBUART_1_cdc.c **** uint8 USBUART_1_NotificationIsReady(void) 
 992:Generated_Source\PSoC5/USBUART_1_cdc.c **** {
 1167              		.loc 1 992 0
 1168              		.cfi_startproc
 1169              		@ args = 0, pretend = 0, frame = 0
 1170              		@ frame_needed = 0, uses_anonymous_args = 0
 1171              		@ link register save eliminated.
 993:Generated_Source\PSoC5/USBUART_1_cdc.c ****     return (USBUART_1_EP[USBUART_1_cdcCommInInterruptEp[USBUART_1_activeCom]].apiEpState);
 1172              		.loc 1 993 0
 1173 0000 044B     		ldr	r3, .L102
 1174 0002 054A     		ldr	r2, .L102+4
ARM GAS  C:\Users\chemi\AppData\Local\Temp\cceWQSsJ.s 			page 40


 1175 0004 1B78     		ldrb	r3, [r3]	@ zero_extendqisi2
 1176 0006 0C21     		movs	r1, #12
 1177 0008 D25C     		ldrb	r2, [r2, r3]	@ zero_extendqisi2
 1178 000a 044B     		ldr	r3, .L102+8
 1179 000c 01FB0233 		mla	r3, r1, r2, r3
 1180 0010 5878     		ldrb	r0, [r3, #1]	@ zero_extendqisi2
 994:Generated_Source\PSoC5/USBUART_1_cdc.c **** }
 1181              		.loc 1 994 0
 1182 0012 7047     		bx	lr
 1183              	.L103:
 1184              		.align	2
 1185              	.L102:
 1186 0014 00000000 		.word	.LANCHOR1
 1187 0018 00000000 		.word	USBUART_1_cdcCommInInterruptEp
 1188 001c 00000000 		.word	USBUART_1_EP
 1189              		.cfi_endproc
 1190              	.LFE22:
 1191              		.size	USBUART_1_NotificationIsReady, .-USBUART_1_NotificationIsReady
 1192              		.section	.text.USBUART_1_SetComPort,"ax",%progbits
 1193              		.align	1
 1194              		.global	USBUART_1_SetComPort
 1195              		.thumb
 1196              		.thumb_func
 1197              		.type	USBUART_1_SetComPort, %function
 1198              	USBUART_1_SetComPort:
 1199              	.LFB23:
 995:Generated_Source\PSoC5/USBUART_1_cdc.c **** 
 996:Generated_Source\PSoC5/USBUART_1_cdc.c **** 
 997:Generated_Source\PSoC5/USBUART_1_cdc.c **** /*******************************************************************************
 998:Generated_Source\PSoC5/USBUART_1_cdc.c **** * Function Name: USBUART_1_SetComPort
 999:Generated_Source\PSoC5/USBUART_1_cdc.c **** ****************************************************************************//**
1000:Generated_Source\PSoC5/USBUART_1_cdc.c **** *
1001:Generated_Source\PSoC5/USBUART_1_cdc.c **** *  This function allows the user to select from one of the two COM ports
1002:Generated_Source\PSoC5/USBUART_1_cdc.c **** *  they wish to address in the instance of having multiple COM ports
1003:Generated_Source\PSoC5/USBUART_1_cdc.c **** *  instantiated though the use of a composite device. Once set, all future
1004:Generated_Source\PSoC5/USBUART_1_cdc.c **** *  function calls related to the USBUART will be affected. This addressed
1005:Generated_Source\PSoC5/USBUART_1_cdc.c **** *  COM port can be changed during run time.
1006:Generated_Source\PSoC5/USBUART_1_cdc.c **** *
1007:Generated_Source\PSoC5/USBUART_1_cdc.c **** * \param comNumber
1008:Generated_Source\PSoC5/USBUART_1_cdc.c **** *  Contains the COM interface the user wishes to address. Value can either
1009:Generated_Source\PSoC5/USBUART_1_cdc.c **** *  be 0 or 1 since a maximum of only 2 COM ports can be supported. Note that
1010:Generated_Source\PSoC5/USBUART_1_cdc.c **** *  this COM port number is not the COM port number assigned on the PC side
1011:Generated_Source\PSoC5/USBUART_1_cdc.c **** *  for the UART communication. If a value greater than 1 is passed, the
1012:Generated_Source\PSoC5/USBUART_1_cdc.c **** *  function returns without performing any action.
1013:Generated_Source\PSoC5/USBUART_1_cdc.c **** *
1014:Generated_Source\PSoC5/USBUART_1_cdc.c **** *******************************************************************************/
1015:Generated_Source\PSoC5/USBUART_1_cdc.c **** void USBUART_1_SetComPort(uint8 comNumber) 
1016:Generated_Source\PSoC5/USBUART_1_cdc.c **** {
 1200              		.loc 1 1016 0
 1201              		.cfi_startproc
 1202              		@ args = 0, pretend = 0, frame = 0
 1203              		@ frame_needed = 0, uses_anonymous_args = 0
 1204              		@ link register save eliminated.
 1205              	.LVL79:
1017:Generated_Source\PSoC5/USBUART_1_cdc.c ****     if ((USBUART_1_activeCom != comNumber) && \
 1206              		.loc 1 1017 0
 1207 0000 034B     		ldr	r3, .L106
ARM GAS  C:\Users\chemi\AppData\Local\Temp\cceWQSsJ.s 			page 41


 1208 0002 1A78     		ldrb	r2, [r3]	@ zero_extendqisi2
 1209 0004 8242     		cmp	r2, r0
 1210 0006 02D0     		beq	.L104
 1211              		.loc 1 1017 0 is_stmt 0 discriminator 1
 1212 0008 0128     		cmp	r0, #1
1018:Generated_Source\PSoC5/USBUART_1_cdc.c ****             (comNumber < USBUART_1_MAX_MULTI_COM_NUM ))
1019:Generated_Source\PSoC5/USBUART_1_cdc.c ****     {
1020:Generated_Source\PSoC5/USBUART_1_cdc.c ****         USBUART_1_activeCom = comNumber;
 1213              		.loc 1 1020 0 is_stmt 1 discriminator 1
 1214 000a 98BF     		it	ls
 1215 000c 1870     		strbls	r0, [r3]
 1216              	.L104:
 1217 000e 7047     		bx	lr
 1218              	.L107:
 1219              		.align	2
 1220              	.L106:
 1221 0010 00000000 		.word	.LANCHOR1
 1222              		.cfi_endproc
 1223              	.LFE23:
 1224              		.size	USBUART_1_SetComPort, .-USBUART_1_SetComPort
 1225              		.section	.text.USBUART_1_GetComPort,"ax",%progbits
 1226              		.align	1
 1227              		.global	USBUART_1_GetComPort
 1228              		.thumb
 1229              		.thumb_func
 1230              		.type	USBUART_1_GetComPort, %function
 1231              	USBUART_1_GetComPort:
 1232              	.LFB24:
1021:Generated_Source\PSoC5/USBUART_1_cdc.c ****     }
1022:Generated_Source\PSoC5/USBUART_1_cdc.c **** }
1023:Generated_Source\PSoC5/USBUART_1_cdc.c **** 
1024:Generated_Source\PSoC5/USBUART_1_cdc.c **** 
1025:Generated_Source\PSoC5/USBUART_1_cdc.c **** /*******************************************************************************
1026:Generated_Source\PSoC5/USBUART_1_cdc.c **** * Function Name: USBUART_1_GetComPort
1027:Generated_Source\PSoC5/USBUART_1_cdc.c **** ****************************************************************************//**
1028:Generated_Source\PSoC5/USBUART_1_cdc.c **** *
1029:Generated_Source\PSoC5/USBUART_1_cdc.c **** *  This function returns the current selected COM port that the user is
1030:Generated_Source\PSoC5/USBUART_1_cdc.c **** *  currently addressing in the instance of having multiple COM ports
1031:Generated_Source\PSoC5/USBUART_1_cdc.c **** *  instantiated though the use of a composite device.
1032:Generated_Source\PSoC5/USBUART_1_cdc.c **** *
1033:Generated_Source\PSoC5/USBUART_1_cdc.c **** * \return
1034:Generated_Source\PSoC5/USBUART_1_cdc.c **** *  Returns the currently selected COM port. Value can either be 0 or 1 since
1035:Generated_Source\PSoC5/USBUART_1_cdc.c **** *  a maximum of only 2 COM ports can be supported. . Note that this COM port
1036:Generated_Source\PSoC5/USBUART_1_cdc.c **** *  number is not the COM port number assigned on the PC side for the UART
1037:Generated_Source\PSoC5/USBUART_1_cdc.c **** *  communication.
1038:Generated_Source\PSoC5/USBUART_1_cdc.c **** *
1039:Generated_Source\PSoC5/USBUART_1_cdc.c **** *******************************************************************************/
1040:Generated_Source\PSoC5/USBUART_1_cdc.c **** uint8 USBUART_1_GetComPort(void) 
1041:Generated_Source\PSoC5/USBUART_1_cdc.c **** {
 1233              		.loc 1 1041 0
 1234              		.cfi_startproc
 1235              		@ args = 0, pretend = 0, frame = 0
 1236              		@ frame_needed = 0, uses_anonymous_args = 0
 1237              		@ link register save eliminated.
1042:Generated_Source\PSoC5/USBUART_1_cdc.c ****     return (USBUART_1_activeCom);
1043:Generated_Source\PSoC5/USBUART_1_cdc.c **** }
 1238              		.loc 1 1043 0
ARM GAS  C:\Users\chemi\AppData\Local\Temp\cceWQSsJ.s 			page 42


 1239 0000 014B     		ldr	r3, .L109
 1240 0002 1878     		ldrb	r0, [r3]	@ zero_extendqisi2
 1241 0004 7047     		bx	lr
 1242              	.L110:
 1243 0006 00BF     		.align	2
 1244              	.L109:
 1245 0008 00000000 		.word	.LANCHOR1
 1246              		.cfi_endproc
 1247              	.LFE24:
 1248              		.size	USBUART_1_GetComPort, .-USBUART_1_GetComPort
 1249              		.section	.text.USBUART_1_Cdc_EpInit,"ax",%progbits
 1250              		.align	1
 1251              		.global	USBUART_1_Cdc_EpInit
 1252              		.thumb
 1253              		.thumb_func
 1254              		.type	USBUART_1_Cdc_EpInit, %function
 1255              	USBUART_1_Cdc_EpInit:
 1256              	.LFB25:
1044:Generated_Source\PSoC5/USBUART_1_cdc.c **** 
1045:Generated_Source\PSoC5/USBUART_1_cdc.c **** 
1046:Generated_Source\PSoC5/USBUART_1_cdc.c **** #endif  /* (USBUART_1_ENABLE_CDC_CLASS_API) */
1047:Generated_Source\PSoC5/USBUART_1_cdc.c **** 
1048:Generated_Source\PSoC5/USBUART_1_cdc.c **** 
1049:Generated_Source\PSoC5/USBUART_1_cdc.c **** /***************************************************************************
1050:Generated_Source\PSoC5/USBUART_1_cdc.c **** * Function Name: USBUART_1_Cdc_EpInit
1051:Generated_Source\PSoC5/USBUART_1_cdc.c **** ************************************************************************//**
1052:Generated_Source\PSoC5/USBUART_1_cdc.c **** *
1053:Generated_Source\PSoC5/USBUART_1_cdc.c **** *  \internal
1054:Generated_Source\PSoC5/USBUART_1_cdc.c **** *  This routine decide type of endpoint (IN, OUT, Notification) and same to
1055:Generated_Source\PSoC5/USBUART_1_cdc.c **** *   appropriate global variables  according to COM port number.
1056:Generated_Source\PSoC5/USBUART_1_cdc.c **** *   USBUART_1_cdcDataInEp[], USBUART_1_cdcCommInInterruptEp[],
1057:Generated_Source\PSoC5/USBUART_1_cdc.c **** *   USBUART_1_cdcDataOutEp[]
1058:Generated_Source\PSoC5/USBUART_1_cdc.c **** *
1059:Generated_Source\PSoC5/USBUART_1_cdc.c **** * \param pEP: Pointer to structure with current EP description.
1060:Generated_Source\PSoC5/USBUART_1_cdc.c **** * \param epNum: EP number
1061:Generated_Source\PSoC5/USBUART_1_cdc.c **** * \param cdcComNums: Bit array of current COM ports for CDC IN, OUT,
1062:Generated_Source\PSoC5/USBUART_1_cdc.c **** *        and notification EPs(0 - COM port 1, 1- COM port 2)
1063:Generated_Source\PSoC5/USBUART_1_cdc.c **** *
1064:Generated_Source\PSoC5/USBUART_1_cdc.c **** * \return
1065:Generated_Source\PSoC5/USBUART_1_cdc.c **** *  Updated cdcComNums
1066:Generated_Source\PSoC5/USBUART_1_cdc.c **** *
1067:Generated_Source\PSoC5/USBUART_1_cdc.c **** * \reentrant
1068:Generated_Source\PSoC5/USBUART_1_cdc.c **** *  No.
1069:Generated_Source\PSoC5/USBUART_1_cdc.c **** *
1070:Generated_Source\PSoC5/USBUART_1_cdc.c **** ***************************************************************************/
1071:Generated_Source\PSoC5/USBUART_1_cdc.c **** uint8 USBUART_1_Cdc_EpInit(const T_USBUART_1_EP_SETTINGS_BLOCK CYCODE *pEP, uint8 epNum, uint8 cdcC
1072:Generated_Source\PSoC5/USBUART_1_cdc.c **** {
 1257              		.loc 1 1072 0
 1258              		.cfi_startproc
 1259              		@ args = 0, pretend = 0, frame = 0
 1260              		@ frame_needed = 0, uses_anonymous_args = 0
 1261              		@ link register save eliminated.
 1262              	.LVL80:
1073:Generated_Source\PSoC5/USBUART_1_cdc.c ****     uint8 epType;
1074:Generated_Source\PSoC5/USBUART_1_cdc.c **** 
1075:Generated_Source\PSoC5/USBUART_1_cdc.c ****     epType = pEP->attributes & USBUART_1_EP_TYPE_MASK;
 1263              		.loc 1 1075 0
ARM GAS  C:\Users\chemi\AppData\Local\Temp\cceWQSsJ.s 			page 43


 1264 0000 C378     		ldrb	r3, [r0, #3]	@ zero_extendqisi2
1076:Generated_Source\PSoC5/USBUART_1_cdc.c **** 
1077:Generated_Source\PSoC5/USBUART_1_cdc.c ****     if (0u != (pEP->addr & USBUART_1_DIR_IN))
 1265              		.loc 1 1077 0
 1266 0002 90F90200 		ldrsb	r0, [r0, #2]
 1267              	.LVL81:
1075:Generated_Source\PSoC5/USBUART_1_cdc.c **** 
 1268              		.loc 1 1075 0
 1269 0006 03F00303 		and	r3, r3, #3
 1270              	.LVL82:
 1271              		.loc 1 1077 0
 1272 000a 0028     		cmp	r0, #0
 1273 000c 0FDA     		bge	.L112
1078:Generated_Source\PSoC5/USBUART_1_cdc.c ****     {
1079:Generated_Source\PSoC5/USBUART_1_cdc.c ****         if (epType != USBUART_1_EP_TYPE_INT)
 1274              		.loc 1 1079 0
 1275 000e 032B     		cmp	r3, #3
1080:Generated_Source\PSoC5/USBUART_1_cdc.c ****         {
1081:Generated_Source\PSoC5/USBUART_1_cdc.c ****             USBUART_1_cdcDataInEp[USBUART_1_GET_EP_COM_NUM(cdcComNums, USBUART_1_CDC_IN_EP)] = epNu
 1276              		.loc 1 1081 0
 1277 0010 15BF     		itete	ne
 1278 0012 0C48     		ldrne	r0, .L118
1082:Generated_Source\PSoC5/USBUART_1_cdc.c ****             cdcComNums |= (uint8)(USBUART_1_COM_PORT2 << USBUART_1_CDC_IN_EP);
1083:Generated_Source\PSoC5/USBUART_1_cdc.c ****         }
1084:Generated_Source\PSoC5/USBUART_1_cdc.c ****         else
1085:Generated_Source\PSoC5/USBUART_1_cdc.c ****         {
1086:Generated_Source\PSoC5/USBUART_1_cdc.c **** 
1087:Generated_Source\PSoC5/USBUART_1_cdc.c ****             USBUART_1_cdcCommInInterruptEp[USBUART_1_GET_EP_COM_NUM(cdcComNums, USBUART_1_CDC_NOTE_
 1279              		.loc 1 1087 0
 1280 0014 0C48     		ldreq	r0, .L118+4
1081:Generated_Source\PSoC5/USBUART_1_cdc.c ****             cdcComNums |= (uint8)(USBUART_1_COM_PORT2 << USBUART_1_CDC_IN_EP);
 1281              		.loc 1 1081 0
 1282 0016 02F00103 		andne	r3, r2, #1
 1283              	.LVL83:
 1284              		.loc 1 1087 0
 1285 001a C2F38003 		ubfxeq	r3, r2, #2, #1
1081:Generated_Source\PSoC5/USBUART_1_cdc.c ****             cdcComNums |= (uint8)(USBUART_1_COM_PORT2 << USBUART_1_CDC_IN_EP);
 1286              		.loc 1 1081 0
 1287 001e 19BF     		ittee	ne
 1288 0020 C154     		strbne	r1, [r0, r3]
1082:Generated_Source\PSoC5/USBUART_1_cdc.c ****             cdcComNums |= (uint8)(USBUART_1_COM_PORT2 << USBUART_1_CDC_IN_EP);
 1289              		.loc 1 1082 0
 1290 0022 42F00102 		orrne	r2, r2, #1
 1291              	.LVL84:
 1292              		.loc 1 1087 0
 1293 0026 C154     		strbeq	r1, [r0, r3]
1088:Generated_Source\PSoC5/USBUART_1_cdc.c ****             cdcComNums |= (uint8)(USBUART_1_COM_PORT2 << USBUART_1_CDC_NOTE_EP);
 1294              		.loc 1 1088 0
 1295 0028 42F00402 		orreq	r2, r2, #4
 1296              	.LVL85:
 1297 002c 07E0     		b	.L114
 1298              	.LVL86:
 1299              	.L112:
1089:Generated_Source\PSoC5/USBUART_1_cdc.c ****         }
1090:Generated_Source\PSoC5/USBUART_1_cdc.c ****     }
1091:Generated_Source\PSoC5/USBUART_1_cdc.c ****     else
1092:Generated_Source\PSoC5/USBUART_1_cdc.c ****     {
ARM GAS  C:\Users\chemi\AppData\Local\Temp\cceWQSsJ.s 			page 44


1093:Generated_Source\PSoC5/USBUART_1_cdc.c ****         if (epType != USBUART_1_EP_TYPE_INT)
 1300              		.loc 1 1093 0
 1301 002e 032B     		cmp	r3, #3
1094:Generated_Source\PSoC5/USBUART_1_cdc.c ****         {
1095:Generated_Source\PSoC5/USBUART_1_cdc.c ****             USBUART_1_cdcDataOutEp[USBUART_1_GET_EP_COM_NUM(cdcComNums, USBUART_1_CDC_OUT_EP)] = ep
 1302              		.loc 1 1095 0
 1303 0030 1FBF     		itttt	ne
 1304 0032 0648     		ldrne	r0, .L118+8
 1305 0034 C2F34003 		ubfxne	r3, r2, #1, #1
 1306              	.LVL87:
 1307 0038 C154     		strbne	r1, [r0, r3]
1096:Generated_Source\PSoC5/USBUART_1_cdc.c ****             cdcComNums |= (uint8)(USBUART_1_COM_PORT2 << USBUART_1_CDC_OUT_EP);
 1308              		.loc 1 1096 0
 1309 003a 42F00202 		orrne	r2, r2, #2
 1310              	.LVL88:
 1311              	.L114:
1097:Generated_Source\PSoC5/USBUART_1_cdc.c ****         }
1098:Generated_Source\PSoC5/USBUART_1_cdc.c ****     }
1099:Generated_Source\PSoC5/USBUART_1_cdc.c ****     return (cdcComNums);
1100:Generated_Source\PSoC5/USBUART_1_cdc.c **** }
 1312              		.loc 1 1100 0
 1313 003e 1046     		mov	r0, r2
 1314 0040 7047     		bx	lr
 1315              	.L119:
 1316 0042 00BF     		.align	2
 1317              	.L118:
 1318 0044 00000000 		.word	USBUART_1_cdcDataInEp
 1319 0048 00000000 		.word	USBUART_1_cdcCommInInterruptEp
 1320 004c 00000000 		.word	USBUART_1_cdcDataOutEp
 1321              		.cfi_endproc
 1322              	.LFE25:
 1323              		.size	USBUART_1_Cdc_EpInit, .-USBUART_1_Cdc_EpInit
 1324              		.comm	USBUART_1_cdcCommInInterruptEp,2,1
 1325              		.comm	USBUART_1_cdcDataOutEp,2,1
 1326              		.comm	USBUART_1_cdcDataInEp,2,1
 1327              		.comm	USBUART_1_serialStateBitmap,4,2
 1328              		.comm	USBUART_1_linesControlBitmap,4,2
 1329              		.comm	USBUART_1_linesChanged,2,1
 1330              		.global	USBUART_1_linesCoding
 1331              		.section	.rodata
 1332              		.set	.LANCHOR2,. + 0
 1333              	.LC0:
 1334 0000 0D       		.byte	13
 1335 0001 0A       		.byte	10
 1336              		.data
 1337              		.set	.LANCHOR0,. + 0
 1338              		.type	USBUART_1_linesCoding, %object
 1339              		.size	USBUART_1_linesCoding, 14
 1340              	USBUART_1_linesCoding:
 1341 0000 00       		.byte	0
 1342 0001 C2       		.byte	-62
 1343 0002 01       		.byte	1
 1344 0003 00       		.byte	0
 1345 0004 00       		.byte	0
 1346 0005 00       		.byte	0
 1347 0006 08       		.byte	8
 1348 0007 00       		.byte	0
ARM GAS  C:\Users\chemi\AppData\Local\Temp\cceWQSsJ.s 			page 45


 1349 0008 C2       		.byte	-62
 1350 0009 01       		.byte	1
 1351 000a 00       		.byte	0
 1352 000b 00       		.byte	0
 1353 000c 00       		.byte	0
 1354 000d 08       		.byte	8
 1355              		.type	USBUART_1_serialStateNotification, %object
 1356              		.size	USBUART_1_serialStateNotification, 10
 1357              	USBUART_1_serialStateNotification:
 1358 000e A1       		.byte	-95
 1359 000f 20       		.byte	32
 1360 0010 00       		.byte	0
 1361 0011 00       		.byte	0
 1362 0012 00       		.byte	0
 1363 0013 00       		.byte	0
 1364 0014 02       		.byte	2
 1365 0015 00       		.byte	0
 1366 0016 00       		.byte	0
 1367 0017 00       		.byte	0
 1368              		.bss
 1369              		.set	.LANCHOR1,. + 0
 1370              		.type	USBUART_1_activeCom, %object
 1371              		.size	USBUART_1_activeCom, 1
 1372              	USBUART_1_activeCom:
 1373 0000 00       		.space	1
 1374              		.text
 1375              	.Letext0:
 1376              		.file 2 "Generated_Source\\PSoC5\\cytypes.h"
 1377              		.file 3 "Generated_Source\\PSoC5\\USBUART_1.h"
 1378              		.file 4 "Generated_Source\\PSoC5\\USBUART_1_pvt.h"