ARM GAS  C:\Users\chemi\AppData\Local\Temp\ccyyfZEo.s 			page 1


   1              		.syntax unified
   2              		.cpu cortex-m3
   3              		.fpu softvfp
   4              		.eabi_attribute 20, 1
   5              		.eabi_attribute 21, 1
   6              		.eabi_attribute 23, 3
   7              		.eabi_attribute 24, 1
   8              		.eabi_attribute 25, 1
   9              		.eabi_attribute 26, 1
  10              		.eabi_attribute 30, 4
  11              		.eabi_attribute 34, 1
  12              		.eabi_attribute 18, 4
  13              		.thumb
  14              		.syntax unified
  15              		.file	"util.c"
  16              		.text
  17              	.Ltext0:
  18              		.cfi_sections	.debug_frame
  19              		.section	.text.PWL_getY,"ax",%progbits
  20              		.align	1
  21              		.global	PWL_getY
  22              		.thumb
  23              		.thumb_func
  24              		.type	PWL_getY, %function
  25              	PWL_getY:
  26              	.LFB68:
  27              		.file 1 "..\\common\\Modules\\utilH\\util.c"
   1:..\common\Modules\utilH/util.c **** #include <stdint.h>
   2:..\common\Modules\utilH/util.c **** #include <string.h>
   3:..\common\Modules\utilH/util.c **** #include <stdlib.h>
   4:..\common\Modules\utilH/util.c **** #include <math.h>
   5:..\common\Modules\utilH/util.c **** 
   6:..\common\Modules\utilH/util.c **** #if __has_include("ff.h")
   7:..\common\Modules\utilH/util.c **** #include "ff.h"
   8:..\common\Modules\utilH/util.c **** #endif
   9:..\common\Modules\utilH/util.c **** 
  10:..\common\Modules\utilH/util.c **** #include "include/util.h"
  11:..\common\Modules\utilH/util.c **** #include "TTerm.h"
  12:..\common\Modules\utilH/util.c **** 
  13:..\common\Modules\utilH/util.c **** /*
  14:..\common\Modules\utilH/util.c ****  * peicewise linear function algorithm, allows for fast lut implementations
  15:..\common\Modules\utilH/util.c ****  * 
  16:..\common\Modules\utilH/util.c ****  * usage: call with any x value and information to y LUT you created to get the linear approximatio
  17:..\common\Modules\utilH/util.c ****  *      
  18:..\common\Modules\utilH/util.c ****  * preComputedDerivative tells the interpreter wether you have a third dataset in each row containi
  19:..\common\Modules\utilH/util.c ****  *      
  20:..\common\Modules\utilH/util.c ****  * PWL row-format:
  21:..\common\Modules\utilH/util.c ****  *   preComputedDerivative=0:
  22:..\common\Modules\utilH/util.c ****  *      {xValue,yValue}
  23:..\common\Modules\utilH/util.c ****  *      
  24:..\common\Modules\utilH/util.c ****  *      - xValue: x coordinate of the point
  25:..\common\Modules\utilH/util.c ****  *      - yValue: y coordinate of the point
  26:..\common\Modules\utilH/util.c ****  *   preComputedDerivative=1:
  27:..\common\Modules\utilH/util.c ****  *      {xValue,yValue,dY/dX}
  28:..\common\Modules\utilH/util.c ****  *      - x/yValue: as in preComputedDerivative=0
  29:..\common\Modules\utilH/util.c ****  *      - dY/dX: pre-computed rate of change in between the point and the next one in the list
  30:..\common\Modules\utilH/util.c ****  *  
ARM GAS  C:\Users\chemi\AppData\Local\Temp\ccyyfZEo.s 			page 2


  31:..\common\Modules\utilH/util.c ****  *      NOTE: the list must be sorted by x values in ascending order (x[0] < x[1] < x[2]...)
  32:..\common\Modules\utilH/util.c ****  *      NOTE: if you need this to be fast, make sure to pre-calculate the derivatives as this saves
  33:..\common\Modules\utilH/util.c ****  */
  34:..\common\Modules\utilH/util.c **** int32_t PWL_getY(int32_t x, int32_t * pwl, uint32_t listSizeRows, uint32_t preComputedDerivative){
  28              		.loc 1 34 0
  29              		.cfi_startproc
  30              		@ args = 0, pretend = 0, frame = 0
  31              		@ frame_needed = 0, uses_anonymous_args = 0
  32              	.LVL0:
  35:..\common\Modules\utilH/util.c ****     if(listSizeRows < 2){
  33              		.loc 1 35 0
  34 0000 012A     		cmp	r2, #1
  34:..\common\Modules\utilH/util.c ****     if(listSizeRows < 2){
  35              		.loc 1 34 0
  36 0002 F0B5     		push	{r4, r5, r6, r7, lr}
  37              		.cfi_def_cfa_offset 20
  38              		.cfi_offset 4, -20
  39              		.cfi_offset 5, -16
  40              		.cfi_offset 6, -12
  41              		.cfi_offset 7, -8
  42              		.cfi_offset 14, -4
  34:..\common\Modules\utilH/util.c ****     if(listSizeRows < 2){
  43              		.loc 1 34 0
  44 0004 8446     		mov	ip, r0
  45              		.loc 1 35 0
  46 0006 42D9     		bls	.L16
  47 0008 0025     		movs	r5, #0
  48 000a 0F46     		mov	r7, r1
  49              	.LVL1:
  50 000c 2C46     		mov	r4, r5
  51 000e 002B     		cmp	r3, #0
  52 0010 14BF     		ite	ne
  53 0012 4FF00C0E 		movne	lr, #12
  54 0016 4FF0080E 		moveq	lr, #8
  55              	.LVL2:
  56              	.L7:
  36:..\common\Modules\utilH/util.c ****         //can't approximate any function if all we have is a single point. We need at least two
  37:..\common\Modules\utilH/util.c ****         //configASSERT(0);
  38:..\common\Modules\utilH/util.c ****         return 0;
  39:..\common\Modules\utilH/util.c ****     }
  40:..\common\Modules\utilH/util.c ****     
  41:..\common\Modules\utilH/util.c ****     int32_t * currentRow = NULL;
  42:..\common\Modules\utilH/util.c ****     int32_t * lastRow = NULL;
  43:..\common\Modules\utilH/util.c ****     
  44:..\common\Modules\utilH/util.c ****     //find the neighbouring points
  45:..\common\Modules\utilH/util.c ****     int32_t entry = 0;
  46:..\common\Modules\utilH/util.c ****     for(entry = 0; entry < listSizeRows; entry++){
  47:..\common\Modules\utilH/util.c ****         //calculate data pointer to current row. If preComputedDiff is on then there is a third val
  48:..\common\Modules\utilH/util.c ****         currentRow = pwl + entry * (preComputedDerivative ? 3 : 2);
  49:..\common\Modules\utilH/util.c ****         
  50:..\common\Modules\utilH/util.c ****         //check if by any chance x exactly matches the value in the row
  51:..\common\Modules\utilH/util.c ****         if(currentRow[0] == x){
  57              		.loc 1 51 0 discriminator 4
  58 001a 3868     		ldr	r0, [r7]
  48:..\common\Modules\utilH/util.c ****         
  59              		.loc 1 48 0 discriminator 4
  60 001c 3E46     		mov	r6, r7
ARM GAS  C:\Users\chemi\AppData\Local\Temp\ccyyfZEo.s 			page 3


  61              	.LVL3:
  62              		.loc 1 51 0 discriminator 4
  63 001e 6045     		cmp	r0, ip
  64 0020 01D1     		bne	.L3
  52:..\common\Modules\utilH/util.c ****             //oh yes actually it does => just return the y value
  53:..\common\Modules\utilH/util.c ****             return currentRow[1];
  65              		.loc 1 53 0
  66 0022 7868     		ldr	r0, [r7, #4]
  67 0024 F0BD     		pop	{r4, r5, r6, r7, pc}
  68              	.LVL4:
  69              	.L3:
  70 0026 7744     		add	r7, r7, lr
  54:..\common\Modules\utilH/util.c ****         }
  55:..\common\Modules\utilH/util.c ****         
  56:..\common\Modules\utilH/util.c ****         //check if the entry we are looking at has a x value larger than the one we are looking for
  57:..\common\Modules\utilH/util.c ****         if(currentRow[0] > x){
  71              		.loc 1 57 0
  72 0028 0CDD     		ble	.L4
  58:..\common\Modules\utilH/util.c ****             //entry found :)
  59:..\common\Modules\utilH/util.c ****             
  60:..\common\Modules\utilH/util.c ****             //check if we are at the first entry in the list
  61:..\common\Modules\utilH/util.c ****             if(lastRow == NULL){ 
  73              		.loc 1 61 0
  74 002a 84B9     		cbnz	r4, .L5
  62:..\common\Modules\utilH/util.c ****                 //yes we are, that means that the x value we are looking for lies outside the bound
  63:..\common\Modules\utilH/util.c ****                 
  64:..\common\Modules\utilH/util.c ****                 //is there at least one point ahead of us?
  65:..\common\Modules\utilH/util.c ****                 if(entry + 1 >= listSizeRows){
  75              		.loc 1 65 0
  76 002c 6F1C     		adds	r7, r5, #1
  77 002e BA42     		cmp	r2, r7
  78 0030 2BD9     		bls	.L14
  79              	.LVL5:
  66:..\common\Modules\utilH/util.c ****                     //hmm no, this shouldn't technically be possible as we already check for a list
  67:..\common\Modules\utilH/util.c ****                     
  68:..\common\Modules\utilH/util.c ****                     //this btw means that we are left of the first point in the graph, but no other
  69:..\common\Modules\utilH/util.c ****                     return 0;
  70:..\common\Modules\utilH/util.c ****                 }
  71:..\common\Modules\utilH/util.c ****                 
  72:..\common\Modules\utilH/util.c ****                 //change the pointers to point to the correct points
  73:..\common\Modules\utilH/util.c ****                 lastRow     = currentRow;
  74:..\common\Modules\utilH/util.c ****                 currentRow  = pwl + (entry + 1) * (preComputedDerivative ? 3 : 2);
  80              		.loc 1 74 0
  81 0032 002B     		cmp	r3, #0
  82 0034 14BF     		ite	ne
  83 0036 0322     		movne	r2, #3
  84              	.LVL6:
  85 0038 0222     		moveq	r2, #2
  86 003a 5743     		muls	r7, r2, r7
  87              	.LVL7:
  48:..\common\Modules\utilH/util.c ****         
  88              		.loc 1 48 0
  89 003c 3446     		mov	r4, r6
  90              		.loc 1 74 0
  91 003e 01EB8706 		add	r6, r1, r7, lsl #2
  92              	.LVL8:
  75:..\common\Modules\utilH/util.c ****                 
ARM GAS  C:\Users\chemi\AppData\Local\Temp\ccyyfZEo.s 			page 4


  76:..\common\Modules\utilH/util.c ****                 break;
  93              		.loc 1 76 0
  94 0042 04E0     		b	.L5
  95              	.LVL9:
  96              	.L4:
  46:..\common\Modules\utilH/util.c ****         //calculate data pointer to current row. If preComputedDiff is on then there is a third val
  97              		.loc 1 46 0 discriminator 2
  98 0044 0135     		adds	r5, r5, #1
  99              	.LVL10:
 100 0046 9542     		cmp	r5, r2
 101 0048 3446     		mov	r4, r6
 102 004a E6D1     		bne	.L7
 103              	.LVL11:
 104 004c 03E0     		b	.L8
 105              	.LVL12:
 106              	.L5:
  77:..\common\Modules\utilH/util.c ****             }
  78:..\common\Modules\utilH/util.c ****             
  79:..\common\Modules\utilH/util.c ****             //point found in list, no change to pointers needed
  80:..\common\Modules\utilH/util.c ****             break;
  81:..\common\Modules\utilH/util.c ****         }
  82:..\common\Modules\utilH/util.c ****         
  83:..\common\Modules\utilH/util.c ****         //entry not yet found, update last point
  84:..\common\Modules\utilH/util.c ****         lastRow = currentRow;
  85:..\common\Modules\utilH/util.c ****     }
  86:..\common\Modules\utilH/util.c ****     
  87:..\common\Modules\utilH/util.c ****     //check if there was no entry in the list larger than the x we are looking for. If so just use 
  88:..\common\Modules\utilH/util.c ****     if(lastRow == currentRow){
 107              		.loc 1 88 0
 108 004e A642     		cmp	r6, r4
 109 0050 0BD1     		bne	.L9
 110              	.LVL13:
  89:..\common\Modules\utilH/util.c ****         //this means loop exited due to entry == listSizeRows. Move lastRow back one entry
  90:..\common\Modules\utilH/util.c ****         
  91:..\common\Modules\utilH/util.c ****         //can we actually do that?
  92:..\common\Modules\utilH/util.c ****         if(entry - 2 < 0){
 111              		.loc 1 92 0
 112 0052 012D     		cmp	r5, #1
 113 0054 1BDD     		ble	.L16
 114              	.L8:
 115              	.LVL14:
  93:..\common\Modules\utilH/util.c ****             //hmm no, this again means there is only one point in the list... can't do anything
  94:..\common\Modules\utilH/util.c ****             return 0;
  95:..\common\Modules\utilH/util.c ****         }
  96:..\common\Modules\utilH/util.c ****         
  97:..\common\Modules\utilH/util.c ****         lastRow = pwl + (entry-2) * (preComputedDerivative ? 3 : 2);
 116              		.loc 1 97 0
 117 0056 002B     		cmp	r3, #0
 118 0058 A5F10205 		sub	r5, r5, #2
 119              	.LVL15:
 120 005c 14BF     		ite	ne
 121 005e 0322     		movne	r2, #3
 122 0060 0222     		moveq	r2, #2
 123 0062 5543     		muls	r5, r2, r5
 124              	.LVL16:
 125 0064 2646     		mov	r6, r4
 126 0066 01EB8504 		add	r4, r1, r5, lsl #2
ARM GAS  C:\Users\chemi\AppData\Local\Temp\ccyyfZEo.s 			page 5


 127              	.LVL17:
 128              	.L9:
  98:..\common\Modules\utilH/util.c ****     }
  99:..\common\Modules\utilH/util.c ****     
 100:..\common\Modules\utilH/util.c ****     //now interpolate between the two points pointed to by lastRow (start point, left of X) and cur
 101:..\common\Modules\utilH/util.c ****             
 102:..\common\Modules\utilH/util.c ****     //first calculate the x offset from the start point
 103:..\common\Modules\utilH/util.c ****     int32_t localX = x - lastRow[0];
 129              		.loc 1 103 0
 130 006a 2768     		ldr	r7, [r4]
 104:..\common\Modules\utilH/util.c ****     int32_t localY = lastRow[1];        
 131              		.loc 1 104 0
 132 006c 6568     		ldr	r5, [r4, #4]
 103:..\common\Modules\utilH/util.c ****     int32_t localY = lastRow[1];        
 133              		.loc 1 103 0
 134 006e C7EB0C02 		rsb	r2, r7, ip
 135              	.LVL18:
 105:..\common\Modules\utilH/util.c **** 
 106:..\common\Modules\utilH/util.c ****     //calculate derivative of pwl between start and end points
 107:..\common\Modules\utilH/util.c ****     int32_t dYdX = 0;
 108:..\common\Modules\utilH/util.c ****     if(preComputedDerivative){
 136              		.loc 1 108 0
 137 0072 0BB1     		cbz	r3, .L11
 109:..\common\Modules\utilH/util.c ****         //nothing to compute, just read the value from the start point dataset
 110:..\common\Modules\utilH/util.c ****         dYdX = lastRow[2];
 138              		.loc 1 110 0
 139 0074 A368     		ldr	r3, [r4, #8]
 140              	.LVL19:
 141 0076 05E0     		b	.L12
 142              	.LVL20:
 143              	.L11:
 111:..\common\Modules\utilH/util.c ****     }else{
 112:..\common\Modules\utilH/util.c ****         //dy = currentRow[1] - lastRow[1];
 113:..\common\Modules\utilH/util.c ****         //dx = currentRow[0] - lastRow[0];
 114:..\common\Modules\utilH/util.c ****         dYdX = (currentRow[1] - lastRow[1]) / (currentRow[0] - lastRow[0]);
 144              		.loc 1 114 0
 145 0078 7368     		ldr	r3, [r6, #4]
 146              	.LVL21:
 147 007a 3168     		ldr	r1, [r6]
 148              	.LVL22:
 149 007c 5B1B     		subs	r3, r3, r5
 150 007e C81B     		subs	r0, r1, r7
 151 0080 93FBF0F3 		sdiv	r3, r3, r0
 152              	.LVL23:
 153              	.L12:
 115:..\common\Modules\utilH/util.c ****     }
 116:..\common\Modules\utilH/util.c **** 
 117:..\common\Modules\utilH/util.c ****     //calculate linear function as 
 118:..\common\Modules\utilH/util.c ****     //   y = m     *   x       + b         with m=dYdX, x=localX, b=localY
 119:..\common\Modules\utilH/util.c ****     return   dYdX  *   localX  + localY;
 154              		.loc 1 119 0
 155 0084 02FB0350 		mla	r0, r2, r3, r5
 156 0088 F0BD     		pop	{r4, r5, r6, r7, pc}
 157              	.LVL24:
 158              	.L14:
  38:..\common\Modules\utilH/util.c ****     }
 159              		.loc 1 38 0
ARM GAS  C:\Users\chemi\AppData\Local\Temp\ccyyfZEo.s 			page 6


 160 008a 2046     		mov	r0, r4
 161 008c F0BD     		pop	{r4, r5, r6, r7, pc}
 162              	.LVL25:
 163              	.L16:
 164 008e 0020     		movs	r0, #0
 120:..\common\Modules\utilH/util.c **** }
 165              		.loc 1 120 0
 166 0090 F0BD     		pop	{r4, r5, r6, r7, pc}
 167              		.cfi_endproc
 168              	.LFE68:
 169              		.size	PWL_getY, .-PWL_getY
 170              		.section	.text.isAsciiSpecialCharacter,"ax",%progbits
 171              		.align	1
 172              		.global	isAsciiSpecialCharacter
 173              		.thumb
 174              		.thumb_func
 175              		.type	isAsciiSpecialCharacter, %function
 176              	isAsciiSpecialCharacter:
 177              	.LFB69:
 121:..\common\Modules\utilH/util.c **** 
 122:..\common\Modules\utilH/util.c **** #if __has_include("ff.h")
 123:..\common\Modules\utilH/util.c **** /*
 124:..\common\Modules\utilH/util.c ****  * Config file tool. Looks through a given file and finds the first line that contains a definition
 125:..\common\Modules\utilH/util.c ****  * 
 126:..\common\Modules\utilH/util.c ****  * Line format: 
 127:..\common\Modules\utilH/util.c ****  *      //a very nice comment, as long as it contains "//" as the first two non space characters
 128:..\common\Modules\utilH/util.c ****  *      aVeryNiceKeyName = a very nice value with spaces that ends with a newline char //a comment 
 129:..\common\Modules\utilH/util.c ****  * 
 130:..\common\Modules\utilH/util.c ****  *      WARNING: maximum line length given by CONFIG_MAX_LINE_SIZE, entries that are longer will be
 131:..\common\Modules\utilH/util.c ****  *      WARNING: maximum line count given by CONFIG_MAX_LINE_COUNT, no more lines will be read
 132:..\common\Modules\utilH/util.c ****  *      NOTE: value will be trimmed of leading and lagging spaces
 133:..\common\Modules\utilH/util.c ****  */
 134:..\common\Modules\utilH/util.c **** char * CONFIG_getKey(FIL * file, char * keyToFind){
 135:..\common\Modules\utilH/util.c ****     //check if the file is value
 136:..\common\Modules\utilH/util.c ****     if(file < 0xff){
 137:..\common\Modules\utilH/util.c ****         //no its not, either NULL or an error code. Just return
 138:..\common\Modules\utilH/util.c ****         return NULL;
 139:..\common\Modules\utilH/util.c ****     }
 140:..\common\Modules\utilH/util.c ****     
 141:..\common\Modules\utilH/util.c ****     //file is valid, seek to the beginning
 142:..\common\Modules\utilH/util.c ****     FRESULT seekRes = f_lseek(file, 0);
 143:..\common\Modules\utilH/util.c ****     if(seekRes != FR_OK) TERM_printDebug(TERM_handle, "seek failed (%d)", seekRes);
 144:..\common\Modules\utilH/util.c ****     
 145:..\common\Modules\utilH/util.c ****     uint32_t rowsRead = 0;
 146:..\common\Modules\utilH/util.c ****     char * rowBuffer = pvPortMalloc(CONFIG_MAX_LINE_SIZE * sizeof(char));
 147:..\common\Modules\utilH/util.c ****     if(rowBuffer == NULL) return NULL;  //no space available for row buffer
 148:..\common\Modules\utilH/util.c ****     
 149:..\common\Modules\utilH/util.c ****     //go through the file
 150:..\common\Modules\utilH/util.c ****     while(rowsRead < CONFIG_MAX_LINE_COUNT){
 151:..\common\Modules\utilH/util.c ****         //read a line
 152:..\common\Modules\utilH/util.c ****         uint32_t bytesRead = f_gets(rowBuffer, CONFIG_MAX_LINE_SIZE * sizeof(char), file);
 153:..\common\Modules\utilH/util.c ****         
 154:..\common\Modules\utilH/util.c ****         //did it work?
 155:..\common\Modules\utilH/util.c ****         if(bytesRead == 0){
 156:..\common\Modules\utilH/util.c ****             //no, some error occurred before we found the key, just return null after cleaning up
 157:..\common\Modules\utilH/util.c ****             //TERM_printDebug(TERM_handle, "didn't manage to read even one byte :( ");
 158:..\common\Modules\utilH/util.c ****             
ARM GAS  C:\Users\chemi\AppData\Local\Temp\ccyyfZEo.s 			page 7


 159:..\common\Modules\utilH/util.c ****             //free the row buffer
 160:..\common\Modules\utilH/util.c ****             vPortFree(rowBuffer);        
 161:..\common\Modules\utilH/util.c ****             return NULL;
 162:..\common\Modules\utilH/util.c ****             
 163:..\common\Modules\utilH/util.c ****         }else if(bytesRead == CONFIG_MAX_LINE_SIZE * sizeof(char)){
 164:..\common\Modules\utilH/util.c ****             //we came across a line too big to fit our buffer, try to find the end of this line so 
 165:..\common\Modules\utilH/util.c ****             while((bytesRead = f_gets(rowBuffer, CONFIG_MAX_LINE_SIZE * sizeof(char), file))){ 
 166:..\common\Modules\utilH/util.c ****                 if(bytesRead < CONFIG_MAX_LINE_SIZE * sizeof(char)) break;
 167:..\common\Modules\utilH/util.c ****                 //TODO check if we somehow overran the buffer
 168:..\common\Modules\utilH/util.c ****             }
 169:..\common\Modules\utilH/util.c ****             //TERM_printDebug(TERM_handle, "line[%d] was too large an skipped ", rowsRead);
 170:..\common\Modules\utilH/util.c ****             
 171:..\common\Modules\utilH/util.c ****             //continue scanning the next line
 172:..\common\Modules\utilH/util.c ****             rowsRead++;
 173:..\common\Modules\utilH/util.c ****             continue;
 174:..\common\Modules\utilH/util.c ****             
 175:..\common\Modules\utilH/util.c ****         }else if(bytesRead > CONFIG_MAX_LINE_SIZE * sizeof(char)){
 176:..\common\Modules\utilH/util.c ****             //we overran the buffer!! code is now in an instable state, reboot is unfortunately the
 177:..\common\Modules\utilH/util.c ****             //TODO
 178:..\common\Modules\utilH/util.c ****             while(1);   //wait for reboot
 179:..\common\Modules\utilH/util.c ****         }else if(bytesRead <= 2){
 180:..\common\Modules\utilH/util.c ****             //empty line :) just skip it
 181:..\common\Modules\utilH/util.c ****             continue;
 182:..\common\Modules\utilH/util.c ****         }
 183:..\common\Modules\utilH/util.c ****         
 184:..\common\Modules\utilH/util.c ****         //TERM_printDebug(TERM_handle, "got line[%d] with length %d: \"%s\" ", rowsRead, bytesRead,
 185:..\common\Modules\utilH/util.c ****         
 186:..\common\Modules\utilH/util.c ****         enum {key_trimLeadingSpaces, key_findEnd, equalSign_find, value_trimLeadingSpaces, value_fi
 187:..\common\Modules\utilH/util.c ****         
 188:..\common\Modules\utilH/util.c ****         //check the current line for two patterns: "//" and "="
 189:..\common\Modules\utilH/util.c ****         uint32_t consequitiveslashCount = 0;
 190:..\common\Modules\utilH/util.c ****         
 191:..\common\Modules\utilH/util.c ****         char * key = NULL;
 192:..\common\Modules\utilH/util.c ****         uint32_t keyEndFound = 0;
 193:..\common\Modules\utilH/util.c ****         
 194:..\common\Modules\utilH/util.c ****         uint32_t equalSignFound = 0;
 195:..\common\Modules\utilH/util.c ****         
 196:..\common\Modules\utilH/util.c ****         char * value = NULL;
 197:..\common\Modules\utilH/util.c ****         char * currentEndOfValue = NULL;
 198:..\common\Modules\utilH/util.c ****         char * currentEndOfValueBeforeCommentSequence = NULL;
 199:..\common\Modules\utilH/util.c ****         uint32_t wasWaitingForValueBeforeCommentSequence = 0;
 200:..\common\Modules\utilH/util.c ****         
 201:..\common\Modules\utilH/util.c ****         for(uint32_t currChar = 0; currChar < bytesRead-1; currChar++){
 202:..\common\Modules\utilH/util.c ****             //check what letter we are scanning
 203:..\common\Modules\utilH/util.c ****             
 204:..\common\Modules\utilH/util.c ****             //TERM_printDebug(TERM_handle, "\tscanning letter '%c' (%02x) ", rowBuffer[currChar], r
 205:..\common\Modules\utilH/util.c ****             
 206:..\common\Modules\utilH/util.c ****             //are we at the end of the string?
 207:..\common\Modules\utilH/util.c ****             if(rowBuffer[currChar] == 0) break; //yes => exit loop
 208:..\common\Modules\utilH/util.c ****             
 209:..\common\Modules\utilH/util.c ****             //check if we have run across a comment sequence ("//")
 210:..\common\Modules\utilH/util.c ****             if(rowBuffer[currChar] == '/'){
 211:..\common\Modules\utilH/util.c ****                 //yes, now check if the previous char was a / as well
 212:..\common\Modules\utilH/util.c ****                 if(consequitiveslashCount == 1){
 213:..\common\Modules\utilH/util.c ****                     //yes, we just scanned across a comment start sequence. 
 214:..\common\Modules\utilH/util.c ****                     
 215:..\common\Modules\utilH/util.c ****                     //TERM_printDebug(TERM_handle, "\t\tend of command sequence ");
ARM GAS  C:\Users\chemi\AppData\Local\Temp\ccyyfZEo.s 			page 8


 216:..\common\Modules\utilH/util.c ****                     
 217:..\common\Modules\utilH/util.c ****                     if(currentEndOfValueBeforeCommentSequence != NULL){ 
 218:..\common\Modules\utilH/util.c ****                         currentEndOfValue = currentEndOfValueBeforeCommentSequence;
 219:..\common\Modules\utilH/util.c ****                         //TERM_printDebug(TERM_handle, "\t\twe were waiting for a non space char be
 220:..\common\Modules\utilH/util.c ****                     }
 221:..\common\Modules\utilH/util.c ****                     
 222:..\common\Modules\utilH/util.c ****                     if(wasWaitingForValueBeforeCommentSequence){
 223:..\common\Modules\utilH/util.c ****                         value = NULL;
 224:..\common\Modules\utilH/util.c ****                         state = value_trimLeadingSpaces;
 225:..\common\Modules\utilH/util.c ****                         //TERM_printDebug(TERM_handle, "\t\twe were waiting for a non space char af
 226:..\common\Modules\utilH/util.c ****                     }
 227:..\common\Modules\utilH/util.c ****                     
 228:..\common\Modules\utilH/util.c ****                     //cut the string off before the comment sequence and stop scanning
 229:..\common\Modules\utilH/util.c ****                     rowBuffer[currChar-1] = 0;
 230:..\common\Modules\utilH/util.c ****                     break;
 231:..\common\Modules\utilH/util.c ****                 }else{
 232:..\common\Modules\utilH/util.c ****                     //TERM_printDebug(TERM_handle, "\t\tstart of command sequence ");
 233:..\common\Modules\utilH/util.c ****                     consequitiveslashCount++;   //keep track of how many slashes in a row we found
 234:..\common\Modules\utilH/util.c ****                     
 235:..\common\Modules\utilH/util.c ****                     if(currentEndOfValue != NULL) currentEndOfValueBeforeCommentSequence = currentE
 236:..\common\Modules\utilH/util.c ****                     if(state == value_trimLeadingSpaces) wasWaitingForValueBeforeCommentSequence = 
 237:..\common\Modules\utilH/util.c ****                 }
 238:..\common\Modules\utilH/util.c ****             }else{
 239:..\common\Modules\utilH/util.c ****                 consequitiveslashCount = 0;
 240:..\common\Modules\utilH/util.c ****                 wasWaitingForValueBeforeCommentSequence = 0;
 241:..\common\Modules\utilH/util.c ****                 currentEndOfValueBeforeCommentSequence = NULL;
 242:..\common\Modules\utilH/util.c ****             }
 243:..\common\Modules\utilH/util.c ****             
 244:..\common\Modules\utilH/util.c ****             //run detection statemachine
 245:..\common\Modules\utilH/util.c ****             switch(state){
 246:..\common\Modules\utilH/util.c ****                 case key_trimLeadingSpaces:
 247:..\common\Modules\utilH/util.c ****                     //we haven't run across any non space characters so far, check if this is one
 248:..\common\Modules\utilH/util.c ****                     if(rowBuffer[currChar] != ' ' && !isAsciiSpecialCharacter(rowBuffer[currChar]))
 249:..\common\Modules\utilH/util.c ****                         //yay start of potential key found :)
 250:..\common\Modules\utilH/util.c ****                         
 251:..\common\Modules\utilH/util.c ****                         //now make sure this isn't the key-to-value seperator already
 252:..\common\Modules\utilH/util.c ****                         if(rowBuffer[currChar] == '='){
 253:..\common\Modules\utilH/util.c ****                             //hmmm it is, that means no key was found and we may as well stop analy
 254:..\common\Modules\utilH/util.c ****                             //TERM_printDebug(TERM_handle, "\t\tfirst non space char after start of
 255:..\common\Modules\utilH/util.c ****                             currChar = bytesRead; //set current pointer to something outside the bo
 256:..\common\Modules\utilH/util.c ****                             break;
 257:..\common\Modules\utilH/util.c ****                         }
 258:..\common\Modules\utilH/util.c ****                         
 259:..\common\Modules\utilH/util.c ****                         //TERM_printDebug(TERM_handle, "\t\tfirst non space char after start of str
 260:..\common\Modules\utilH/util.c ****                         
 261:..\common\Modules\utilH/util.c ****                         //yep a valid first char of the key, note down the position
 262:..\common\Modules\utilH/util.c ****                         key = &rowBuffer[currChar];
 263:..\common\Modules\utilH/util.c ****                         
 264:..\common\Modules\utilH/util.c ****                         //switch to next state: finding the end of the key (first non letter char o
 265:..\common\Modules\utilH/util.c ****                         state = key_findEnd;
 266:..\common\Modules\utilH/util.c ****                     }
 267:..\common\Modules\utilH/util.c ****                     break;
 268:..\common\Modules\utilH/util.c ****                     
 269:..\common\Modules\utilH/util.c ****                 case key_findEnd:
 270:..\common\Modules\utilH/util.c ****                     //is this a space that would signal the end of the key?
 271:..\common\Modules\utilH/util.c ****                     if(isAsciiSpecialCharacter(rowBuffer[currChar]) || rowBuffer[currChar] == ' '){
 272:..\common\Modules\utilH/util.c ****                         //TERM_printDebug(TERM_handle, "\t\tfirst non letter after start of key ");
ARM GAS  C:\Users\chemi\AppData\Local\Temp\ccyyfZEo.s 			page 9


 273:..\common\Modules\utilH/util.c ****                         //yes :) add a string terminator here
 274:..\common\Modules\utilH/util.c ****                         rowBuffer[currChar] = 0;
 275:..\common\Modules\utilH/util.c ****                         
 276:..\common\Modules\utilH/util.c ****                         //switch to next state: finding the equal sign
 277:..\common\Modules\utilH/util.c ****                         state = equalSign_find;
 278:..\common\Modules\utilH/util.c ****                     }else if(rowBuffer[currChar] == '='){
 279:..\common\Modules\utilH/util.c ****                         //TERM_printDebug(TERM_handle, "\t\tfirst non letter after start of key and
 280:..\common\Modules\utilH/util.c ****                         //oh wow already found the equal sign, that also marks the end of the key s
 281:..\common\Modules\utilH/util.c ****                         rowBuffer[currChar] = 0;
 282:..\common\Modules\utilH/util.c ****                         
 283:..\common\Modules\utilH/util.c ****                         //skip next state and go straight to finding the start of the value string
 284:..\common\Modules\utilH/util.c ****                         state = value_trimLeadingSpaces;
 285:..\common\Modules\utilH/util.c ****                     }
 286:..\common\Modules\utilH/util.c ****                     break;
 287:..\common\Modules\utilH/util.c ****                     
 288:..\common\Modules\utilH/util.c ****                 case equalSign_find:
 289:..\common\Modules\utilH/util.c ****                     if(rowBuffer[currChar] == '='){
 290:..\common\Modules\utilH/util.c ****                         //TERM_printDebug(TERM_handle, "\t\tequal sign too ");
 291:..\common\Modules\utilH/util.c ****                         //found the equal sign
 292:..\common\Modules\utilH/util.c ****                         
 293:..\common\Modules\utilH/util.c ****                         //switch to next state: finding the start of the value string
 294:..\common\Modules\utilH/util.c ****                         state = value_trimLeadingSpaces;
 295:..\common\Modules\utilH/util.c ****                     }
 296:..\common\Modules\utilH/util.c ****                     break;
 297:..\common\Modules\utilH/util.c ****                     
 298:..\common\Modules\utilH/util.c ****                 case value_trimLeadingSpaces:
 299:..\common\Modules\utilH/util.c ****                     //we haven't run across any non space characters after the equal sign so far, c
 300:..\common\Modules\utilH/util.c ****                     if(rowBuffer[currChar] != ' ' && !isAsciiSpecialCharacter(rowBuffer[currChar]))
 301:..\common\Modules\utilH/util.c ****                         //TERM_printDebug(TERM_handle, "\t\tfirst non space char after equal sign, 
 302:..\common\Modules\utilH/util.c ****                         //yay start of potential value string found :)
 303:..\common\Modules\utilH/util.c ****                         
 304:..\common\Modules\utilH/util.c ****                         //note down the position
 305:..\common\Modules\utilH/util.c ****                         value = &rowBuffer[currChar];
 306:..\common\Modules\utilH/util.c ****                         
 307:..\common\Modules\utilH/util.c ****                         //switch to next state: finding the end of the key (first non letter char o
 308:..\common\Modules\utilH/util.c ****                         state = value_findEnd;
 309:..\common\Modules\utilH/util.c ****                     }
 310:..\common\Modules\utilH/util.c ****                     break;
 311:..\common\Modules\utilH/util.c ****                     
 312:..\common\Modules\utilH/util.c ****                 case value_findEnd:
 313:..\common\Modules\utilH/util.c ****                     //is this a space that we might need to trim?
 314:..\common\Modules\utilH/util.c ****                     
 315:..\common\Modules\utilH/util.c ****                     if(isAsciiSpecialCharacter(rowBuffer[currChar]) || rowBuffer[currChar] == ' '){
 316:..\common\Modules\utilH/util.c ****                         //yes, check if we have already got a potential candidate for the end of th
 317:..\common\Modules\utilH/util.c ****                         if(currentEndOfValue == NULL){
 318:..\common\Modules\utilH/util.c ****                             //TERM_printDebug(TERM_handle, "\t\tpotential first space after value s
 319:..\common\Modules\utilH/util.c ****                             
 320:..\common\Modules\utilH/util.c ****                             //no, no candidate exists. That means we are a suspect (pretty sus if y
 321:..\common\Modules\utilH/util.c ****                             currentEndOfValue = &rowBuffer[currChar];
 322:..\common\Modules\utilH/util.c ****                         }else; //there is already another candidate. Aka no non-space char was scan
 323:..\common\Modules\utilH/util.c ****                         
 324:..\common\Modules\utilH/util.c ****                     }else{
 325:..\common\Modules\utilH/util.c ****                         //ah we got a non space char, reset the potential end of the buffer
 326:..\common\Modules\utilH/util.c ****                         if(currentEndOfValue != NULL){
 327:..\common\Modules\utilH/util.c ****                             currentEndOfValue = NULL;
 328:..\common\Modules\utilH/util.c ****                             //TERM_printDebug(TERM_handle, "\t\tnope*d ");
 329:..\common\Modules\utilH/util.c ****                         }
ARM GAS  C:\Users\chemi\AppData\Local\Temp\ccyyfZEo.s 			page 10


 330:..\common\Modules\utilH/util.c ****                     }
 331:..\common\Modules\utilH/util.c ****                     break;
 332:..\common\Modules\utilH/util.c ****             }
 333:..\common\Modules\utilH/util.c ****         }
 334:..\common\Modules\utilH/util.c ****         
 335:..\common\Modules\utilH/util.c ****         //row scanning statemachine has exited, see how far it got
 336:..\common\Modules\utilH/util.c ****         if(state == value_findEnd){
 337:..\common\Modules\utilH/util.c ****             //is there a trailing space char we need to trim?
 338:..\common\Modules\utilH/util.c ****             if(currentEndOfValue != NULL) *currentEndOfValue = 0; //yes, make a terminator out of i
 339:..\common\Modules\utilH/util.c ****                 
 340:..\common\Modules\utilH/util.c ****             //got all the way through to the end, so a potential key and value pair exists in the b
 341:..\common\Modules\utilH/util.c ****             //TERM_printDebug(TERM_handle, "\tstate machine got all the way through :D ");
 342:..\common\Modules\utilH/util.c ****             //TERM_printDebug(TERM_handle, "\t\t key=\"%s\" value=\"%s\" ", key, value);
 343:..\common\Modules\utilH/util.c ****             
 344:..\common\Modules\utilH/util.c ****             //now check if the key matches the one we are looking for
 345:..\common\Modules\utilH/util.c ****             if(strcmp(keyToFind, key) == 0){
 346:..\common\Modules\utilH/util.c ****                 //yes we found it!! :D now transfer the value string into its own buffer and return
 347:..\common\Modules\utilH/util.c ****                 
 348:..\common\Modules\utilH/util.c ****                 //create and copy to new buffer
 349:..\common\Modules\utilH/util.c ****                 char * ret = pvPortMalloc(strlen(value)+1);
 350:..\common\Modules\utilH/util.c ****                 strcpy(ret, value);
 351:..\common\Modules\utilH/util.c ****                 vPortFree(rowBuffer);
 352:..\common\Modules\utilH/util.c ****                 
 353:..\common\Modules\utilH/util.c ****                 TERM_printDebug(TERM_handle, "key matches! final value return=\"%s\" ", ret);
 354:..\common\Modules\utilH/util.c ****                 return ret;
 355:..\common\Modules\utilH/util.c ****             }
 356:..\common\Modules\utilH/util.c ****         }
 357:..\common\Modules\utilH/util.c ****                 
 358:..\common\Modules\utilH/util.c ****         //TERM_printDebug(TERM_handle, "row wasn't what we hoped :( \r\n\n\n\n");
 359:..\common\Modules\utilH/util.c ****         
 360:..\common\Modules\utilH/util.c ****         rowsRead++;
 361:..\common\Modules\utilH/util.c ****     }
 362:..\common\Modules\utilH/util.c ****     
 363:..\common\Modules\utilH/util.c ****     //TERM_printDebug(TERM_handle, "scanned %d rows and didn't find the key :(\r\n", rowsRead);
 364:..\common\Modules\utilH/util.c ****         
 365:..\common\Modules\utilH/util.c ****     //free the row buffer
 366:..\common\Modules\utilH/util.c ****     vPortFree(rowBuffer);   
 367:..\common\Modules\utilH/util.c ****     return NULL;
 368:..\common\Modules\utilH/util.c **** }
 369:..\common\Modules\utilH/util.c **** #endif
 370:..\common\Modules\utilH/util.c **** 
 371:..\common\Modules\utilH/util.c **** uint32_t isAsciiSpecialCharacter(char c){
 178              		.loc 1 371 0
 179              		.cfi_startproc
 180              		@ args = 0, pretend = 0, frame = 0
 181              		@ frame_needed = 0, uses_anonymous_args = 0
 182              		@ link register save eliminated.
 183              	.LVL26:
 184 0000 2038     		subs	r0, r0, #32
 185              	.LVL27:
 372:..\common\Modules\utilH/util.c ****     if(c < 32) return 1;
 373:..\common\Modules\utilH/util.c ****     if(c > 127) return 1;
 374:..\common\Modules\utilH/util.c ****     return 0;
 375:..\common\Modules\utilH/util.c **** }
 186              		.loc 1 375 0
 187 0002 5F28     		cmp	r0, #95
 188 0004 94BF     		ite	ls
ARM GAS  C:\Users\chemi\AppData\Local\Temp\ccyyfZEo.s 			page 11


 189 0006 0020     		movls	r0, #0
 190 0008 0120     		movhi	r0, #1
 191 000a 7047     		bx	lr
 192              		.cfi_endproc
 193              	.LFE69:
 194              		.size	isAsciiSpecialCharacter, .-isAsciiSpecialCharacter
 195              		.section	.text.isAsciiNumber,"ax",%progbits
 196              		.align	1
 197              		.global	isAsciiNumber
 198              		.thumb
 199              		.thumb_func
 200              		.type	isAsciiNumber, %function
 201              	isAsciiNumber:
 202              	.LFB70:
 376:..\common\Modules\utilH/util.c **** 
 377:..\common\Modules\utilH/util.c **** uint32_t isAsciiNumber(char c){
 203              		.loc 1 377 0
 204              		.cfi_startproc
 205              		@ args = 0, pretend = 0, frame = 0
 206              		@ frame_needed = 0, uses_anonymous_args = 0
 207              		@ link register save eliminated.
 208              	.LVL28:
 209 0000 3038     		subs	r0, r0, #48
 210              	.LVL29:
 378:..\common\Modules\utilH/util.c ****     if(c >= '0' && c <= '9') return 1;
 379:..\common\Modules\utilH/util.c ****     return 0;
 380:..\common\Modules\utilH/util.c **** }
 211              		.loc 1 380 0
 212 0002 0928     		cmp	r0, #9
 213 0004 8CBF     		ite	hi
 214 0006 0020     		movhi	r0, #0
 215 0008 0120     		movls	r0, #1
 216 000a 7047     		bx	lr
 217              		.cfi_endproc
 218              	.LFE70:
 219              		.size	isAsciiNumber, .-isAsciiNumber
 220              		.section	.text.atoiFP,"ax",%progbits
 221              		.align	1
 222              		.global	atoiFP
 223              		.thumb
 224              		.thumb_func
 225              		.type	atoiFP, %function
 226              	atoiFP:
 227              	.LFB73:
 381:..\common\Modules\utilH/util.c **** 
 382:..\common\Modules\utilH/util.c **** 
 383:..\common\Modules\utilH/util.c **** 
 384:..\common\Modules\utilH/util.c **** 
 385:..\common\Modules\utilH/util.c **** 
 386:..\common\Modules\utilH/util.c **** 
 387:..\common\Modules\utilH/util.c **** /*
 388:..\common\Modules\utilH/util.c ****  * Fixed point atoi function that supports multipliers like k,m,M,c,d etc.
 389:..\common\Modules\utilH/util.c ****  * 
 390:..\common\Modules\utilH/util.c ****  * input string must start with a number, otherwise 0 is returned. It will scan until either a null
 391:..\common\Modules\utilH/util.c ****  * 
 392:..\common\Modules\utilH/util.c ****  * ignoreUnit will make the function not return in an error state if the string contains a unit at 
 393:..\common\Modules\utilH/util.c ****  * 
ARM GAS  C:\Users\chemi\AppData\Local\Temp\ccyyfZEo.s 			page 12


 394:..\common\Modules\utilH/util.c ****  *      NOTE: if the returned value would contain an integer overflow due to an excessively large i
 395:..\common\Modules\utilH/util.c ****  *      NOTE: any numbers after the last digit in the fixed point return will be ignored
 396:..\common\Modules\utilH/util.c ****  */
 397:..\common\Modules\utilH/util.c **** 
 398:..\common\Modules\utilH/util.c **** static int32_t ctoi(char c){
 399:..\common\Modules\utilH/util.c ****     if(!isAsciiNumber(c)) return 0;
 400:..\common\Modules\utilH/util.c ****     return c - '0';  //if we are sure that the char is a number, then we can convert it by subtract
 401:..\common\Modules\utilH/util.c **** }
 402:..\common\Modules\utilH/util.c **** 
 403:..\common\Modules\utilH/util.c **** static int32_t getExponent(char c){
 404:..\common\Modules\utilH/util.c ****     if(c == 'f')    return -15;
 405:..\common\Modules\utilH/util.c ****     if(c == 'p')    return -12;
 406:..\common\Modules\utilH/util.c ****     if(c == 'n')    return -9;
 407:..\common\Modules\utilH/util.c ****     if(c == 'u' || c == 230) return -6;    //ascii 230 is the greek micro
 408:..\common\Modules\utilH/util.c ****     if(c == 'm')    return -3;
 409:..\common\Modules\utilH/util.c ****     if(c == 'c')    return -2;
 410:..\common\Modules\utilH/util.c ****     if(c == 'd')    return -1;
 411:..\common\Modules\utilH/util.c ****     if(c == '.')    return 0;
 412:..\common\Modules\utilH/util.c ****     if(c == 'h')    return 2;
 413:..\common\Modules\utilH/util.c ****     if(c == 'k')    return 3;
 414:..\common\Modules\utilH/util.c ****     if(c == 'M')    return 6;
 415:..\common\Modules\utilH/util.c ****     if(c == 'G')    return 9;
 416:..\common\Modules\utilH/util.c ****     if(c == 'T')    return 12;
 417:..\common\Modules\utilH/util.c ****     if(c == 'P')    return 15;
 418:..\common\Modules\utilH/util.c ****     
 419:..\common\Modules\utilH/util.c ****     if(isAsciiNumber(c)) return 0xffffffff;
 420:..\common\Modules\utilH/util.c ****     return 0x7fffffff;
 421:..\common\Modules\utilH/util.c **** }
 422:..\common\Modules\utilH/util.c **** 
 423:..\common\Modules\utilH/util.c **** //precalculated exponents that are reasonable for a int32_t number
 424:..\common\Modules\utilH/util.c **** static int32_t exponentTable[10] = {
 425:..\common\Modules\utilH/util.c **** 1, //10 ^ 0
 426:..\common\Modules\utilH/util.c **** 10, //10 ^ 1
 427:..\common\Modules\utilH/util.c **** 100, //10 ^ 2
 428:..\common\Modules\utilH/util.c **** 1000, //10 ^ 3
 429:..\common\Modules\utilH/util.c **** 10000, //10 ^ 4
 430:..\common\Modules\utilH/util.c **** 100000, //10 ^ 5
 431:..\common\Modules\utilH/util.c **** 1000000, //10 ^ 6
 432:..\common\Modules\utilH/util.c **** 10000000, //10 ^ 7
 433:..\common\Modules\utilH/util.c **** 100000000, //10 ^ 8
 434:..\common\Modules\utilH/util.c **** 1000000000, //10 ^ 9
 435:..\common\Modules\utilH/util.c **** };
 436:..\common\Modules\utilH/util.c **** 
 437:..\common\Modules\utilH/util.c **** int32_t atoiFP(char * a, uint32_t strlen, int32_t baseExponent, uint32_t ignoreUnit){
 228              		.loc 1 437 0
 229              		.cfi_startproc
 230              		@ args = 0, pretend = 0, frame = 24
 231              		@ frame_needed = 0, uses_anonymous_args = 0
 232              	.LVL30:
 233 0000 2DE9F04F 		push	{r4, r5, r6, r7, r8, r9, r10, fp, lr}
 234              		.cfi_def_cfa_offset 36
 235              		.cfi_offset 4, -36
 236              		.cfi_offset 5, -32
 237              		.cfi_offset 6, -28
 238              		.cfi_offset 7, -24
 239              		.cfi_offset 8, -20
 240              		.cfi_offset 9, -16
ARM GAS  C:\Users\chemi\AppData\Local\Temp\ccyyfZEo.s 			page 13


 241              		.cfi_offset 10, -12
 242              		.cfi_offset 11, -8
 243              		.cfi_offset 14, -4
 438:..\common\Modules\utilH/util.c ****     int32_t ret = 0;
 439:..\common\Modules\utilH/util.c ****     
 440:..\common\Modules\utilH/util.c ****     enum {waitStart, waitMultiplier, waitEnd, waitE_Exponent} state = waitStart;
 441:..\common\Modules\utilH/util.c ****     
 442:..\common\Modules\utilH/util.c ****     int32_t currentNumberPositionExponent = 0;
 443:..\common\Modules\utilH/util.c ****     
 444:..\common\Modules\utilH/util.c ****     uint32_t isNumberNegative = 0;
 445:..\common\Modules\utilH/util.c ****     uint32_t isExponentADot = 0;
 446:..\common\Modules\utilH/util.c ****     uint32_t breakBit = 0;
 447:..\common\Modules\utilH/util.c ****     
 448:..\common\Modules\utilH/util.c ****     char* startOfNumber = NULL;
 449:..\common\Modules\utilH/util.c ****     char* startOfNumberExponent = NULL;
 244              		.loc 1 449 0
 245 0004 4FF00008 		mov	r8, #0
 437:..\common\Modules\utilH/util.c ****     int32_t ret = 0;
 246              		.loc 1 437 0
 247 0008 87B0     		sub	sp, sp, #28
 248              		.cfi_def_cfa_offset 64
 437:..\common\Modules\utilH/util.c ****     int32_t ret = 0;
 249              		.loc 1 437 0
 250 000a 0192     		str	r2, [sp, #4]
 448:..\common\Modules\utilH/util.c ****     char* startOfNumberExponent = NULL;
 251              		.loc 1 448 0
 252 000c C146     		mov	r9, r8
 450:..\common\Modules\utilH/util.c ****     
 451:..\common\Modules\utilH/util.c ****     uint32_t checkForLength = strlen > 0;
 452:..\common\Modules\utilH/util.c ****     
 453:..\common\Modules\utilH/util.c ****     //iterate through the string
 454:..\common\Modules\utilH/util.c ****     while(*a != 0 && !breakBit){
 253              		.loc 1 454 0
 254 000e 0A46     		mov	r2, r1
 255              	.LVL31:
 446:..\common\Modules\utilH/util.c ****     
 256              		.loc 1 446 0
 257 0010 C446     		mov	ip, r8
 445:..\common\Modules\utilH/util.c ****     uint32_t breakBit = 0;
 258              		.loc 1 445 0
 259 0012 C646     		mov	lr, r8
 444:..\common\Modules\utilH/util.c ****     uint32_t isExponentADot = 0;
 260              		.loc 1 444 0
 261 0014 C246     		mov	r10, r8
 442:..\common\Modules\utilH/util.c ****     
 262              		.loc 1 442 0
 263 0016 4746     		mov	r7, r8
 440:..\common\Modules\utilH/util.c ****     
 264              		.loc 1 440 0
 265 0018 4546     		mov	r5, r8
 266              	.LVL32:
 267              	.L23:
 268              		.loc 1 454 0
 269 001a 0478     		ldrb	r4, [r0]	@ zero_extendqisi2
 270 001c 24B9     		cbnz	r4, .L161
 271              	.LVL33:
 272              	.L54:
ARM GAS  C:\Users\chemi\AppData\Local\Temp\ccyyfZEo.s 			page 14


 455:..\common\Modules\utilH/util.c ****         if(checkForLength) if(!strlen--) break;
 456:..\common\Modules\utilH/util.c ****         //TERM_printDebug(TERM_handle, "\r\n\nscanning letter '%c' (%02x) ", *a, *a);
 457:..\common\Modules\utilH/util.c ****         
 458:..\common\Modules\utilH/util.c ****         int32_t currentExponent = getExponent(*a);
 459:..\common\Modules\utilH/util.c ****         
 460:..\common\Modules\utilH/util.c ****         //which state are we in?
 461:..\common\Modules\utilH/util.c ****         switch(state){
 462:..\common\Modules\utilH/util.c ****             case waitStart:
 463:..\common\Modules\utilH/util.c ****                 //skip any leading spaces
 464:..\common\Modules\utilH/util.c ****                 if(*a != ' '){
 465:..\common\Modules\utilH/util.c ****                     //found a non space char, is it a number?
 466:..\common\Modules\utilH/util.c ****                     if(isAsciiNumber(*a)){
 467:..\common\Modules\utilH/util.c ****                         //TERM_printDebug(TERM_handle, "\t found start of number ");
 468:..\common\Modules\utilH/util.c ****                         //yes, start of number to convert
 469:..\common\Modules\utilH/util.c ****                         startOfNumber = a;
 470:..\common\Modules\utilH/util.c ****                         state = waitMultiplier;
 471:..\common\Modules\utilH/util.c ****                         
 472:..\common\Modules\utilH/util.c ****                     }else if(*a == '.'){
 473:..\common\Modules\utilH/util.c ****                         //we got a dot as the first char, skip waiting for a first exponent as we a
 474:..\common\Modules\utilH/util.c ****                         startOfNumber = a;
 475:..\common\Modules\utilH/util.c ****                         currentNumberPositionExponent = 0;
 476:..\common\Modules\utilH/util.c ****                         state = waitEnd;
 477:..\common\Modules\utilH/util.c ****                         isExponentADot = 1;
 478:..\common\Modules\utilH/util.c ****                         
 479:..\common\Modules\utilH/util.c ****                     }else if(*a == '-'){
 480:..\common\Modules\utilH/util.c ****                         //no, but the current character is a minus sign, invert the sign of the ret
 481:..\common\Modules\utilH/util.c ****                         isNumberNegative = !isNumberNegative;
 482:..\common\Modules\utilH/util.c ****                         //TERM_printDebug(TERM_handle, "\tfound sign (number is now %d) ", isNumber
 483:..\common\Modules\utilH/util.c ****                         
 484:..\common\Modules\utilH/util.c ****                     }else if(*a != '+'){    //a number string with a leading plus is also valid, bu
 485:..\common\Modules\utilH/util.c ****                         //TERM_printDebug(TERM_handle, "\tfound sign (number is now %d) ", isNumber
 486:..\common\Modules\utilH/util.c ****                         //no, apparently the string doesn't start with a number => invalid :(
 487:..\common\Modules\utilH/util.c ****                         return 0;
 488:..\common\Modules\utilH/util.c ****                     }
 489:..\common\Modules\utilH/util.c ****                 }
 490:..\common\Modules\utilH/util.c ****                 break;
 491:..\common\Modules\utilH/util.c ****             case waitMultiplier:
 492:..\common\Modules\utilH/util.c ****                 if(currentExponent == 0x7fffffff){
 493:..\common\Modules\utilH/util.c ****                     //current character is neither a valid exponent designator or a number. we like
 494:..\common\Modules\utilH/util.c ****                     
 495:..\common\Modules\utilH/util.c ****                     //check if by any chance this is an 'e' and there is also at least one more cha
 496:..\common\Modules\utilH/util.c ****                     if((*a == 'e' || *a == 'E') && (!checkForLength || strlen) && *(a+1) != 0){
 497:..\common\Modules\utilH/util.c ****                         //yes it is
 498:..\common\Modules\utilH/util.c ****                         if(*(a+1) == '-' || isAsciiNumber(*(a+1))){
 499:..\common\Modules\utilH/util.c ****                             //TERM_printDebug(TERM_handle, "\tfound start of exponent string ");
 500:..\common\Modules\utilH/util.c ****                             //and it is also a number, yay. That means we must now scan for the end
 501:..\common\Modules\utilH/util.c ****                             startOfNumberExponent = a + 1;
 502:..\common\Modules\utilH/util.c ****                             state = waitE_Exponent;
 503:..\common\Modules\utilH/util.c ****                         }else{
 504:..\common\Modules\utilH/util.c ****                             //TERM_printDebug(TERM_handle, "\tpotential start of exponent string wa
 505:..\common\Modules\utilH/util.c ****                             //break out of the loop and continue on to the conversion
 506:..\common\Modules\utilH/util.c ****                             breakBit = 1;
 507:..\common\Modules\utilH/util.c ****                             break;
 508:..\common\Modules\utilH/util.c ****                         }
 509:..\common\Modules\utilH/util.c ****                     }else{
 510:..\common\Modules\utilH/util.c ****                         //TERM_printDebug(TERM_handle, "\tend of number ");
 511:..\common\Modules\utilH/util.c ****                         //break out of the loop and continue on to the conversion
ARM GAS  C:\Users\chemi\AppData\Local\Temp\ccyyfZEo.s 			page 15


 512:..\common\Modules\utilH/util.c ****                         breakBit = 1;
 513:..\common\Modules\utilH/util.c ****                         break;
 514:..\common\Modules\utilH/util.c ****                     }
 515:..\common\Modules\utilH/util.c ****                     
 516:..\common\Modules\utilH/util.c ****                 }else if(currentExponent != 0xffffffff){
 517:..\common\Modules\utilH/util.c ****                         
 518:..\common\Modules\utilH/util.c ****                     //we found an exponent of some description. remember its value as we continue t
 519:..\common\Modules\utilH/util.c ****                     currentNumberPositionExponent = currentExponent;
 520:..\common\Modules\utilH/util.c ****                     state = waitEnd;
 521:..\common\Modules\utilH/util.c ****                     
 522:..\common\Modules\utilH/util.c ****                     //now check if the exponent is a dot, if so we can accept another real exponent
 523:..\common\Modules\utilH/util.c ****                     if(currentExponent == 0) isExponentADot = 1;
 524:..\common\Modules\utilH/util.c ****                     
 525:..\common\Modules\utilH/util.c ****                     //TERM_printDebug(TERM_handle, "\tfound a first exponent (%d) currNumExp=%d ", 
 526:..\common\Modules\utilH/util.c ****                 }else{
 527:..\common\Modules\utilH/util.c ****                     //TERM_printDebug(TERM_handle, "\tthat's just a digit :) ");
 528:..\common\Modules\utilH/util.c ****                 }
 529:..\common\Modules\utilH/util.c ****                 break;
 530:..\common\Modules\utilH/util.c ****             case waitEnd:
 531:..\common\Modules\utilH/util.c ****                 if(!isAsciiNumber(*a)){
 532:..\common\Modules\utilH/util.c ****                     //we've reached another non number
 533:..\common\Modules\utilH/util.c ****                     
 534:..\common\Modules\utilH/util.c ****                     //check if the first non number found was a dot and we currently have a valid e
 535:..\common\Modules\utilH/util.c ****                     if(isExponentADot){
 536:..\common\Modules\utilH/util.c ****                         
 537:..\common\Modules\utilH/util.c ****                         //yes it was. Now check if we have reached the start of a numerical exponen
 538:..\common\Modules\utilH/util.c ****                         if((*a == 'e' || *a == 'E') && strlen){
 539:..\common\Modules\utilH/util.c ****                             //yes it is
 540:..\common\Modules\utilH/util.c ****                             if(*(a+1) == '-' || isAsciiNumber(*(a+1))){
 541:..\common\Modules\utilH/util.c ****                                 //TERM_printDebug(TERM_handle, "\tfound exponent string start ");
 542:..\common\Modules\utilH/util.c ****                                 //and it is also a number, yay. That means we must now scan for the
 543:..\common\Modules\utilH/util.c ****                                 startOfNumberExponent = a + 1;
 544:..\common\Modules\utilH/util.c ****                                 state = waitE_Exponent;
 545:..\common\Modules\utilH/util.c ****                             }else{
 546:..\common\Modules\utilH/util.c ****                                 //TERM_printDebug(TERM_handle, "\tfound non exponent string start "
 547:..\common\Modules\utilH/util.c ****                                 
 548:..\common\Modules\utilH/util.c ****                                 //break out of the loop and continue on to the conversion
 549:..\common\Modules\utilH/util.c ****                                 breakBit = 1;
 550:..\common\Modules\utilH/util.c ****                                 break;
 551:..\common\Modules\utilH/util.c ****                             }
 552:..\common\Modules\utilH/util.c ****                         }else if(currentExponent != 0x7fffffff){
 553:..\common\Modules\utilH/util.c ****                             //TERM_printDebug(TERM_handle, "\tfound exponent after string %d ", cur
 554:..\common\Modules\utilH/util.c ****                             
 555:..\common\Modules\utilH/util.c ****                             currentNumberPositionExponent += currentExponent;
 556:..\common\Modules\utilH/util.c ****                     
 557:..\common\Modules\utilH/util.c ****                             //break out of the loop and continue on to the conversion
 558:..\common\Modules\utilH/util.c ****                             breakBit = 1;
 559:..\common\Modules\utilH/util.c ****                             break;
 560:..\common\Modules\utilH/util.c ****                         }else{
 561:..\common\Modules\utilH/util.c ****                             //TERM_printDebug(TERM_handle, "\tfound end of number string without ex
 562:..\common\Modules\utilH/util.c ****                             
 563:..\common\Modules\utilH/util.c ****                             //a dot was the first exponent and we have now reached the first non di
 564:..\common\Modules\utilH/util.c ****                             //check if we are allowed to ignore this and convert anyway or must ret
 565:..\common\Modules\utilH/util.c ****                             if(!ignoreUnit) return 0;
 566:..\common\Modules\utilH/util.c **** 
 567:..\common\Modules\utilH/util.c ****                             //otherwise break out of the loop and continue on to the conversion
 568:..\common\Modules\utilH/util.c ****                             breakBit = 1;
ARM GAS  C:\Users\chemi\AppData\Local\Temp\ccyyfZEo.s 			page 16


 569:..\common\Modules\utilH/util.c ****                             break;
 570:..\common\Modules\utilH/util.c ****                         }
 571:..\common\Modules\utilH/util.c ****                     }else{
 572:..\common\Modules\utilH/util.c ****                         //TERM_printDebug(TERM_handle, "\tfound end of number string with exponent 
 573:..\common\Modules\utilH/util.c ****                         //no we already got a valid exponent or aren't even scanning one now. We mu
 574:..\common\Modules\utilH/util.c ****                         //check if we are allowed to ignore this and convert anyway or must return 
 575:..\common\Modules\utilH/util.c ****                         if(!ignoreUnit) return 0;
 576:..\common\Modules\utilH/util.c ****                     
 577:..\common\Modules\utilH/util.c ****                         //otherwise break out of the loop and continue on to the conversion
 578:..\common\Modules\utilH/util.c ****                         breakBit = 1;
 579:..\common\Modules\utilH/util.c ****                         break;
 580:..\common\Modules\utilH/util.c ****                     }
 581:..\common\Modules\utilH/util.c ****                 }else{
 582:..\common\Modules\utilH/util.c ****                     //we are scanning a number, make sure to decrease the current numbers exponent 
 583:..\common\Modules\utilH/util.c ****                     currentNumberPositionExponent--;
 584:..\common\Modules\utilH/util.c ****                     //TERM_printDebug(TERM_handle, "\tcurrNumExp=%d ", currentNumberPositionExponen
 585:..\common\Modules\utilH/util.c ****                 }
 586:..\common\Modules\utilH/util.c ****                 break;
 587:..\common\Modules\utilH/util.c ****                 
 588:..\common\Modules\utilH/util.c ****             case waitE_Exponent:
 589:..\common\Modules\utilH/util.c ****                 //we have passed a "e" in the string and must now find the end of the number after 
 590:..\common\Modules\utilH/util.c ****                 
 591:..\common\Modules\utilH/util.c ****                 //check if we are still scanning a number or the sign (but sign only if it is the f
 592:..\common\Modules\utilH/util.c ****                 if(!isAsciiNumber(*a) && !((*a == '-' || *a == '+') && a == startOfNumberExponent))
 593:..\common\Modules\utilH/util.c ****                     //TERM_printDebug(TERM_handle, "\tfound end of exponent string ");
 594:..\common\Modules\utilH/util.c ****                     //found first non sign and non number char, that means we are now at the end of
 595:..\common\Modules\utilH/util.c ****                     
 596:..\common\Modules\utilH/util.c ****                     //break the loop and let the conversion routinge handle the exponent string
 597:..\common\Modules\utilH/util.c ****                     breakBit = 1;
 598:..\common\Modules\utilH/util.c ****                     break;
 599:..\common\Modules\utilH/util.c ****                 }else{
 600:..\common\Modules\utilH/util.c ****                     //TERM_printDebug(TERM_handle, "\tthat's just a digit :) ");
 601:..\common\Modules\utilH/util.c ****                 }
 602:..\common\Modules\utilH/util.c ****                 break;
 603:..\common\Modules\utilH/util.c ****         }
 604:..\common\Modules\utilH/util.c ****         
 605:..\common\Modules\utilH/util.c ****         if(!breakBit) a++;
 606:..\common\Modules\utilH/util.c ****     }
 607:..\common\Modules\utilH/util.c ****     
 608:..\common\Modules\utilH/util.c ****     //are we still waiting for the end on an exponent string?
 609:..\common\Modules\utilH/util.c ****     if(state == waitE_Exponent){
 273              		.loc 1 609 0
 274 001e 032D     		cmp	r5, #3
 275 0020 7CD1     		bne	.L26
 276 0022 4146     		mov	r1, r8
 277              	.LVL34:
 278 0024 0023     		movs	r3, #0
 279              	.LVL35:
 280 0026 69E0     		b	.L56
 281              	.LVL36:
 282              	.L161:
 454:..\common\Modules\utilH/util.c ****         if(checkForLength) if(!strlen--) break;
 283              		.loc 1 454 0 discriminator 1
 284 0028 BCF1000F 		cmp	ip, #0
 285 002c F7D1     		bne	.L54
 286              	.LBB46:
 455:..\common\Modules\utilH/util.c ****         if(checkForLength) if(!strlen--) break;
ARM GAS  C:\Users\chemi\AppData\Local\Temp\ccyyfZEo.s 			page 17


 287              		.loc 1 455 0
 288 002e 19B1     		cbz	r1, .L24
 455:..\common\Modules\utilH/util.c ****         if(checkForLength) if(!strlen--) break;
 289              		.loc 1 455 0 is_stmt 0 discriminator 1
 290 0030 561E     		subs	r6, r2, #1
 291              	.LVL37:
 292 0032 002A     		cmp	r2, #0
 293 0034 F3D0     		beq	.L54
 294 0036 3246     		mov	r2, r6
 295              	.LVL38:
 296              	.L24:
 297              	.LBB47:
 298              	.LBB48:
 404:..\common\Modules\utilH/util.c ****     if(c == 'p')    return -12;
 299              		.loc 1 404 0 is_stmt 1
 300 0038 662C     		cmp	r4, #102
 301 003a 00F0FC80 		beq	.L83
 405:..\common\Modules\utilH/util.c ****     if(c == 'n')    return -9;
 302              		.loc 1 405 0
 303 003e 702C     		cmp	r4, #112
 304 0040 00F0FC80 		beq	.L84
 406:..\common\Modules\utilH/util.c ****     if(c == 'u' || c == 230) return -6;    //ascii 230 is the greek micro
 305              		.loc 1 406 0
 306 0044 6E2C     		cmp	r4, #110
 307 0046 00F0FC80 		beq	.L85
 407:..\common\Modules\utilH/util.c ****     if(c == 'm')    return -3;
 308              		.loc 1 407 0
 309 004a 752C     		cmp	r4, #117
 310 004c 00F0FC80 		beq	.L87
 311 0050 E62C     		cmp	r4, #230
 312 0052 00F0F980 		beq	.L87
 408:..\common\Modules\utilH/util.c ****     if(c == 'c')    return -2;
 313              		.loc 1 408 0
 314 0056 6D2C     		cmp	r4, #109
 315 0058 00F0F980 		beq	.L88
 409:..\common\Modules\utilH/util.c ****     if(c == 'd')    return -1;
 316              		.loc 1 409 0
 317 005c 632C     		cmp	r4, #99
 318 005e 00F0F980 		beq	.L89
 410:..\common\Modules\utilH/util.c ****     if(c == '.')    return 0;
 319              		.loc 1 410 0
 320 0062 642C     		cmp	r4, #100
 321 0064 00F0F980 		beq	.L90
 411:..\common\Modules\utilH/util.c ****     if(c == 'h')    return 2;
 322              		.loc 1 411 0
 323 0068 2E2C     		cmp	r4, #46
 324 006a 00F0C780 		beq	.L28
 412:..\common\Modules\utilH/util.c ****     if(c == 'k')    return 3;
 325              		.loc 1 412 0
 326 006e 682C     		cmp	r4, #104
 327 0070 00F0F680 		beq	.L91
 413:..\common\Modules\utilH/util.c ****     if(c == 'M')    return 6;
 328              		.loc 1 413 0
 329 0074 6B2C     		cmp	r4, #107
 330 0076 00F0F580 		beq	.L92
 414:..\common\Modules\utilH/util.c ****     if(c == 'G')    return 9;
 331              		.loc 1 414 0
ARM GAS  C:\Users\chemi\AppData\Local\Temp\ccyyfZEo.s 			page 18


 332 007a 4D2C     		cmp	r4, #77
 333 007c 00F0F480 		beq	.L93
 415:..\common\Modules\utilH/util.c ****     if(c == 'T')    return 12;
 334              		.loc 1 415 0
 335 0080 472C     		cmp	r4, #71
 336 0082 00F0F380 		beq	.L94
 416:..\common\Modules\utilH/util.c ****     if(c == 'P')    return 15;
 337              		.loc 1 416 0
 338 0086 542C     		cmp	r4, #84
 339 0088 00F0F280 		beq	.L95
 417:..\common\Modules\utilH/util.c ****     
 340              		.loc 1 417 0
 341 008c 502C     		cmp	r4, #80
 342 008e 00F0F180 		beq	.L96
 343              	.LVL39:
 344              	.LBB49:
 345              	.LBB50:
 378:..\common\Modules\utilH/util.c ****     return 0;
 346              		.loc 1 378 0
 347 0092 A4F13006 		sub	r6, r4, #48
 348 0096 092E     		cmp	r6, #9
 349 0098 00F29580 		bhi	.L29
 350              	.LVL40:
 351              	.LBE50:
 352              	.LBE49:
 353              	.LBE48:
 354              	.LBE47:
 461:..\common\Modules\utilH/util.c ****             case waitStart:
 355              		.loc 1 461 0
 356 009c 032D     		cmp	r5, #3
 357 009e 24D8     		bhi	.L73
 358 00a0 DFE805F0 		tbb	[pc, r5]
 359              	.L32:
 360 00a4 04       		.byte	(.L31-.L32)/2
 361 00a5 C1       		.byte	(.L156-.L32)/2
 362 00a6 0A       		.byte	(.L98-.L32)/2
 363 00a7 15       		.byte	(.L35-.L32)/2
 364              	.LVL41:
 365              		.p2align 1
 366              	.L36:
 464:..\common\Modules\utilH/util.c ****                     //found a non space char, is it a number?
 367              		.loc 1 464 0
 368 00a8 202C     		cmp	r4, #32
 369 00aa 1ED0     		beq	.L73
 370              	.LVL42:
 371              	.L31:
 372              	.LBB54:
 373              	.LBB55:
 378:..\common\Modules\utilH/util.c ****     return 0;
 374              		.loc 1 378 0
 375 00ac A4F13005 		sub	r5, r4, #48
 376              	.LVL43:
 377 00b0 092D     		cmp	r5, #9
 378 00b2 40F2B780 		bls	.L99
 379 00b6 4BE0     		b	.L162
 380              	.LVL44:
 381              	.L98:
ARM GAS  C:\Users\chemi\AppData\Local\Temp\ccyyfZEo.s 			page 19


 382              	.LBE55:
 383              	.LBE54:
 384              	.LBB57:
 385              	.LBB51:
 419:..\common\Modules\utilH/util.c ****     return 0x7fffffff;
 386              		.loc 1 419 0
 387 00b8 4FF0FF36 		mov	r6, #-1
 388 00bc 01E0     		b	.L34
 389              	.LVL45:
 390              	.L107:
 420:..\common\Modules\utilH/util.c **** }
 391              		.loc 1 420 0
 392 00be 6FF00046 		mvn	r6, #-2147483648
 393              	.LVL46:
 394              	.L34:
 395              	.LBE51:
 396              	.LBE57:
 397              	.LBB58:
 398              	.LBB59:
 378:..\common\Modules\utilH/util.c ****     return 0;
 399              		.loc 1 378 0
 400 00c2 A4F13005 		sub	r5, r4, #48
 401              	.LVL47:
 402 00c6 092D     		cmp	r5, #9
 403 00c8 4CD8     		bhi	.L163
 404              	.LVL48:
 405              	.LBE59:
 406              	.LBE58:
 583:..\common\Modules\utilH/util.c ****                     //TERM_printDebug(TERM_handle, "\tcurrNumExp=%d ", currentNumberPositionExponen
 407              		.loc 1 583 0
 408 00ca 013F     		subs	r7, r7, #1
 409              	.LVL49:
 410 00cc 6AE0     		b	.L155
 411              	.LVL50:
 412              	.L35:
 413              	.LBB60:
 414              	.LBB61:
 378:..\common\Modules\utilH/util.c ****     return 0;
 415              		.loc 1 378 0
 416 00ce A4F13005 		sub	r5, r4, #48
 417              	.LVL51:
 418 00d2 092D     		cmp	r5, #9
 419 00d4 40F2A980 		bls	.L103
 420              	.LVL52:
 421              	.LBE61:
 422              	.LBE60:
 592:..\common\Modules\utilH/util.c ****                     //TERM_printDebug(TERM_handle, "\tfound end of exponent string ");
 423              		.loc 1 592 0
 424 00d8 2D2C     		cmp	r4, #45
 425 00da 01D0     		beq	.L72
 592:..\common\Modules\utilH/util.c ****                     //TERM_printDebug(TERM_handle, "\tfound end of exponent string ");
 426              		.loc 1 592 0 is_stmt 0 discriminator 2
 427 00dc 2B2C     		cmp	r4, #43
 428 00de 63D1     		bne	.L104
 429              	.L72:
 592:..\common\Modules\utilH/util.c ****                     //TERM_printDebug(TERM_handle, "\tfound end of exponent string ");
 430              		.loc 1 592 0 discriminator 4
ARM GAS  C:\Users\chemi\AppData\Local\Temp\ccyyfZEo.s 			page 20


 431 00e0 4045     		cmp	r0, r8
 432 00e2 4FF00305 		mov	r5, #3
 433 00e6 40F0A380 		bne	.L47
 434              	.LVL53:
 435              	.L73:
 605:..\common\Modules\utilH/util.c ****     }
 436              		.loc 1 605 0 is_stmt 1 discriminator 1
 437 00ea 0130     		adds	r0, r0, #1
 438              	.LVL54:
 439 00ec 95E7     		b	.L23
 440              	.LVL55:
 441              	.L58:
 442              	.LBE46:
 443              	.LBB73:
 610:..\common\Modules\utilH/util.c ****         //yes, we are now at the end of it
 611:..\common\Modules\utilH/util.c ****         //TERM_printDebug(TERM_handle, "string ended with end of exponent string ");
 612:..\common\Modules\utilH/util.c ****         //found first non sign and non number char, that means we are now at the end of the exponen
 613:..\common\Modules\utilH/util.c **** 
 614:..\common\Modules\utilH/util.c ****         //copy that number into a new string for conversion
 615:..\common\Modules\utilH/util.c ****         uint32_t i = 0;
 616:..\common\Modules\utilH/util.c ****         char exponentBuffer[11];
 617:..\common\Modules\utilH/util.c ****         char * exponentStringPosition = startOfNumberExponent;
 618:..\common\Modules\utilH/util.c ****         for(; i < 10 && exponentStringPosition != a; i++){
 619:..\common\Modules\utilH/util.c ****             exponentBuffer[i] = *(exponentStringPosition++);
 444              		.loc 1 619 0 discriminator 3
 445 00ee 11F8014B 		ldrb	r4, [r1], #1	@ zero_extendqisi2
 446              	.LVL56:
 447 00f2 03AA     		add	r2, sp, #12
 448 00f4 9C54     		strb	r4, [r3, r2]
 618:..\common\Modules\utilH/util.c ****             exponentBuffer[i] = *(exponentStringPosition++);
 449              		.loc 1 618 0 discriminator 3
 450 00f6 0133     		adds	r3, r3, #1
 451              	.LVL57:
 452 00f8 0A2B     		cmp	r3, #10
 453 00fa 01D0     		beq	.L57
 454              	.LVL58:
 455              	.L56:
 618:..\common\Modules\utilH/util.c ****             exponentBuffer[i] = *(exponentStringPosition++);
 456              		.loc 1 618 0 is_stmt 0 discriminator 2
 457 00fc 8842     		cmp	r0, r1
 458 00fe F6D1     		bne	.L58
 459              	.L57:
 620:..\common\Modules\utilH/util.c ****         }
 621:..\common\Modules\utilH/util.c ****         //terminate the string
 622:..\common\Modules\utilH/util.c ****         exponentBuffer[i] = 0;
 460              		.loc 1 622 0 is_stmt 1
 461 0100 06AA     		add	r2, sp, #24
 462 0102 1A44     		add	r2, r2, r3
 623:..\common\Modules\utilH/util.c **** 
 624:..\common\Modules\utilH/util.c ****         //did we actually get an entire string or was the buffer too small?
 625:..\common\Modules\utilH/util.c ****         if(exponentStringPosition == a){
 463              		.loc 1 625 0
 464 0104 8842     		cmp	r0, r1
 622:..\common\Modules\utilH/util.c **** 
 465              		.loc 1 622 0
 466 0106 4FF00003 		mov	r3, #0
 467              	.LVL59:
ARM GAS  C:\Users\chemi\AppData\Local\Temp\ccyyfZEo.s 			page 21


 468 010a 02F80C3C 		strb	r3, [r2, #-12]
 469              		.loc 1 625 0
 470 010e 14D1     		bne	.L159
 471              	.LBB74:
 626:..\common\Modules\utilH/util.c ****             //yes that worked, now convert the number to an int with the normal atoi function
 627:..\common\Modules\utilH/util.c ****             int32_t newExponent = atoi(exponentBuffer);
 472              		.loc 1 627 0
 473 0110 03A8     		add	r0, sp, #12
 474              	.LVL60:
 475 0112 FFF7FEFF 		bl	atoi
 476              	.LVL61:
 628:..\common\Modules\utilH/util.c ****             currentNumberPositionExponent += newExponent;
 477              		.loc 1 628 0
 478 0116 0744     		add	r7, r7, r0
 479              	.LVL62:
 629:..\common\Modules\utilH/util.c **** 
 630:..\common\Modules\utilH/util.c ****             //TERM_printDebug(TERM_handle, "\t\tcopied string: \"%s\"=", exponentBuffer, newExponen
 631:..\common\Modules\utilH/util.c **** 
 632:..\common\Modules\utilH/util.c ****             //now roll back the current char pointer to the 'e' we scanned before entering this sta
 633:..\common\Modules\utilH/util.c ****             //this is to allow for the conversion to take place as if no numerical exponent existed
 634:..\common\Modules\utilH/util.c ****             a = startOfNumberExponent-1;
 480              		.loc 1 634 0
 481 0118 08F1FF30 		add	r0, r8, #-1
 482              	.LVL63:
 483              	.L26:
 484              	.LBE74:
 485              	.LBE73:
 635:..\common\Modules\utilH/util.c ****         }else{
 636:..\common\Modules\utilH/util.c ****             //TERM_printDebug(TERM_handle, "\t\texponent buffer was too small :(");
 637:..\common\Modules\utilH/util.c ****             //no didn't work unfortunately, that means the number read was invalid and we must retu
 638:..\common\Modules\utilH/util.c ****             return 0;
 639:..\common\Modules\utilH/util.c ****         }
 640:..\common\Modules\utilH/util.c ****     }
 641:..\common\Modules\utilH/util.c ****     
 642:..\common\Modules\utilH/util.c ****     //check if we successfully exited the loop
 643:..\common\Modules\utilH/util.c ****     if(startOfNumber == NULL){
 486              		.loc 1 643 0
 487 011c B9F1000F 		cmp	r9, #0
 488 0120 01D1     		bne	.L164
 489              	.LVL64:
 490              	.L40:
 491              	.LBB75:
 487:..\common\Modules\utilH/util.c ****                     }
 492              		.loc 1 487 0
 493 0122 0020     		movs	r0, #0
 494 0124 BCE0     		b	.L150
 495              	.LVL65:
 496              	.L164:
 497              	.LBE75:
 644:..\common\Modules\utilH/util.c ****         //no :( no number was found
 645:..\common\Modules\utilH/util.c ****         return 0;
 646:..\common\Modules\utilH/util.c ****     }
 647:..\common\Modules\utilH/util.c ****     
 648:..\common\Modules\utilH/util.c ****     //shift the fixed point exponent by the base exponent
 649:..\common\Modules\utilH/util.c ****     currentNumberPositionExponent += baseExponent;
 498              		.loc 1 649 0
 499 0126 019B     		ldr	r3, [sp, #4]
ARM GAS  C:\Users\chemi\AppData\Local\Temp\ccyyfZEo.s 			page 22


 500              	.LBB76:
 650:..\common\Modules\utilH/util.c ****                         
 651:..\common\Modules\utilH/util.c ****     //TERM_printDebug(TERM_handle, "Now converting the number with the current exponent of %d (from
 652:..\common\Modules\utilH/util.c ****     
 653:..\common\Modules\utilH/util.c ****     //start of number found, we are now one byte after the end of the number string, step backwards
 654:..\common\Modules\utilH/util.c ****     while(*--a != 0 && a >= startOfNumber){
 655:..\common\Modules\utilH/util.c ****         //TERM_printDebug(TERM_handle, "\r\n\nscanning letter '%c' (%02x) ", *a, *a);
 656:..\common\Modules\utilH/util.c ****         
 657:..\common\Modules\utilH/util.c ****         //is the character we are at right now a number?
 658:..\common\Modules\utilH/util.c ****         if(isAsciiNumber(*a)){
 659:..\common\Modules\utilH/util.c ****             //yes, would it actually be put into the return value? it wouldn't if the exponent was 
 660:..\common\Modules\utilH/util.c ****             if(currentNumberPositionExponent >= 0){
 661:..\common\Modules\utilH/util.c ****                 if(currentNumberPositionExponent < 10){
 662:..\common\Modules\utilH/util.c ****                     //yes, convert it
 663:..\common\Modules\utilH/util.c ****                     int32_t currentNumber = ctoi(*a);
 664:..\common\Modules\utilH/util.c ****                     
 665:..\common\Modules\utilH/util.c ****                     //TERM_printDebug(TERM_handle, "\tconverted digit to int = %d", currentNumber);
 666:..\common\Modules\utilH/util.c ****                     
 667:..\common\Modules\utilH/util.c ****                     //and finally do a check for a potential overflow if a digit larger than 2 gets
 668:..\common\Modules\utilH/util.c ****                     if(currentNumberPositionExponent == 9 && currentNumber > 2){
 669:..\common\Modules\utilH/util.c ****                         //TERM_printDebug(TERM_handle, "\t=> would overflow :( ");
 670:..\common\Modules\utilH/util.c ****                         //yes overflow would occur :(
 671:..\common\Modules\utilH/util.c ****                         return 0;
 672:..\common\Modules\utilH/util.c ****                     }
 673:..\common\Modules\utilH/util.c ****                     
 674:..\common\Modules\utilH/util.c ****                     //no overflow would occur, scale the number by the current exponent
 675:..\common\Modules\utilH/util.c ****                     currentNumber *= exponentTable[currentNumberPositionExponent];
 501              		.loc 1 675 0
 502 0128 5F4A     		ldr	r2, .L166
 503              	.LBE76:
 649:..\common\Modules\utilH/util.c ****                         
 504              		.loc 1 649 0
 505 012a 1F44     		add	r7, r7, r3
 506              	.LVL66:
 438:..\common\Modules\utilH/util.c ****     
 507              		.loc 1 438 0
 508 012c 0023     		movs	r3, #0
 509              	.LVL67:
 510              	.L60:
 654:..\common\Modules\utilH/util.c ****         //TERM_printDebug(TERM_handle, "\r\n\nscanning letter '%c' (%02x) ", *a, *a);
 511              		.loc 1 654 0
 512 012e 10F8011D 		ldrb	r1, [r0, #-1]!	@ zero_extendqisi2
 513              	.LVL68:
 514 0132 21B9     		cbnz	r1, .L64
 515              	.L67:
 676:..\common\Modules\utilH/util.c ****                     
 677:..\common\Modules\utilH/util.c ****                     //TERM_printDebug(TERM_handle, "\tscaled with exponent %d (10^%d) = %d ", expon
 678:..\common\Modules\utilH/util.c ****                     
 679:..\common\Modules\utilH/util.c ****                     ret += currentNumber;
 680:..\common\Modules\utilH/util.c ****                     
 681:..\common\Modules\utilH/util.c ****                     //TERM_printDebug(TERM_handle, "\tret is now %d ", ret);
 682:..\common\Modules\utilH/util.c ****                 }else{
 683:..\common\Modules\utilH/util.c ****                     //TERM_printDebug(TERM_handle, "\tignoring number due to exponent > 10 (%d)", c
 684:..\common\Modules\utilH/util.c ****                     //a number with too big of an exponent would be converted, which would cause an
 685:..\common\Modules\utilH/util.c ****                     return 0;
 686:..\common\Modules\utilH/util.c ****                 }
 687:..\common\Modules\utilH/util.c ****             }else{
ARM GAS  C:\Users\chemi\AppData\Local\Temp\ccyyfZEo.s 			page 23


 688:..\common\Modules\utilH/util.c ****                 //TERM_printDebug(TERM_handle, "\tignoring number due to exponent < 0 (%d)", curren
 689:..\common\Modules\utilH/util.c ****             }
 690:..\common\Modules\utilH/util.c ****                     
 691:..\common\Modules\utilH/util.c ****             //increase position exponent by one for the digit to the left of us
 692:..\common\Modules\utilH/util.c ****             currentNumberPositionExponent++;
 693:..\common\Modules\utilH/util.c ****         }else{
 694:..\common\Modules\utilH/util.c ****             //TERM_printDebug(TERM_handle, "\tnot a number, skipping character ");
 695:..\common\Modules\utilH/util.c ****             //current char is not a number, this should only occur once [perhaps TODO check if that
 696:..\common\Modules\utilH/util.c ****         }
 697:..\common\Modules\utilH/util.c ****     }
 698:..\common\Modules\utilH/util.c ****                     
 699:..\common\Modules\utilH/util.c ****     //TERM_printDebug(TERM_handle, "conversion done! result without sign = %d ", ret);
 700:..\common\Modules\utilH/util.c ****     
 701:..\common\Modules\utilH/util.c ****     //and finally return the number taking the sign bit into account
 702:..\common\Modules\utilH/util.c ****     return isNumberNegative ? -ret : ret;
 516              		.loc 1 702 0
 517 0134 BAF1000F 		cmp	r10, #0
 518 0138 08D1     		bne	.L65
 519              	.LVL69:
 520              	.L159:
 521 013a 1846     		mov	r0, r3
 522 013c B0E0     		b	.L150
 523              	.LVL70:
 524              	.L64:
 654:..\common\Modules\utilH/util.c ****         //TERM_printDebug(TERM_handle, "\r\n\nscanning letter '%c' (%02x) ", *a, *a);
 525              		.loc 1 654 0 discriminator 1
 526 013e 8145     		cmp	r9, r0
 527 0140 F8D8     		bhi	.L67
 528              	.LVL71:
 529              	.LBB77:
 530              	.LBB78:
 378:..\common\Modules\utilH/util.c ****     return 0;
 531              		.loc 1 378 0
 532 0142 3039     		subs	r1, r1, #48
 533              	.LVL72:
 534 0144 CCB2     		uxtb	r4, r1
 535 0146 092C     		cmp	r4, #9
 536 0148 30D9     		bls	.L61
 537 014a F0E7     		b	.L60
 538              	.L65:
 539              	.LBE78:
 540              	.LBE77:
 541              		.loc 1 702 0 discriminator 1
 542 014c 5842     		negs	r0, r3
 543              	.LVL73:
 544 014e A7E0     		b	.L150
 545              	.LVL74:
 546              	.L162:
 547              	.LBB79:
 472:..\common\Modules\utilH/util.c ****                         //we got a dot as the first char, skip waiting for a first exponent as we a
 548              		.loc 1 472 0
 549 0150 2E2C     		cmp	r4, #46
 550 0152 23D0     		beq	.L165
 479:..\common\Modules\utilH/util.c ****                         //no, but the current character is a minus sign, invert the sign of the ret
 551              		.loc 1 479 0
 552 0154 2D2C     		cmp	r4, #45
 553 0156 02D1     		bne	.L39
ARM GAS  C:\Users\chemi\AppData\Local\Temp\ccyyfZEo.s 			page 24


 554 0158 8AF0010A 		eor	r10, r10, #1
 555              	.LVL75:
 556 015c 1CE0     		b	.L100
 557              	.L39:
 484:..\common\Modules\utilH/util.c ****                         //TERM_printDebug(TERM_handle, "\tfound sign (number is now %d) ", isNumber
 558              		.loc 1 484 0
 559 015e 2B2C     		cmp	r4, #43
 560 0160 1AD0     		beq	.L100
 561 0162 DEE7     		b	.L40
 562              	.LVL76:
 563              	.L163:
 535:..\common\Modules\utilH/util.c ****                         
 564              		.loc 1 535 0
 565 0164 BEF1000F 		cmp	lr, #0
 566 0168 13D0     		beq	.L154
 538:..\common\Modules\utilH/util.c ****                             //yes it is
 567              		.loc 1 538 0 discriminator 2
 568 016a 04F0DF04 		and	r4, r4, #223
 569 016e 452C     		cmp	r4, #69
 570 0170 09D1     		bne	.L50
 538:..\common\Modules\utilH/util.c ****                             //yes it is
 571              		.loc 1 538 0 is_stmt 0 discriminator 3
 572 0172 42B1     		cbz	r2, .L50
 540:..\common\Modules\utilH/util.c ****                                 //TERM_printDebug(TERM_handle, "\tfound exponent string start ");
 573              		.loc 1 540 0 is_stmt 1
 574 0174 4478     		ldrb	r4, [r0, #1]	@ zero_extendqisi2
 575 0176 2D2C     		cmp	r4, #45
 576 0178 02D0     		beq	.L51
 577              	.LVL77:
 578              	.LBB63:
 579              	.LBB64:
 378:..\common\Modules\utilH/util.c ****     return 0;
 580              		.loc 1 378 0 discriminator 1
 581 017a 303C     		subs	r4, r4, #48
 582              	.LVL78:
 583 017c 092C     		cmp	r4, #9
 584 017e 56D8     		bhi	.L102
 585              	.LVL79:
 586              	.L51:
 587              	.LBE64:
 588              	.LBE63:
 543:..\common\Modules\utilH/util.c ****                                 state = waitE_Exponent;
 589              		.loc 1 543 0
 590 0180 00F10108 		add	r8, r0, #1
 591              	.LVL80:
 592 0184 51E0     		b	.L103
 593              	.LVL81:
 594              	.L50:
 552:..\common\Modules\utilH/util.c ****                             //TERM_printDebug(TERM_handle, "\tfound exponent after string %d ", cur
 595              		.loc 1 552 0
 596 0186 6FF00044 		mvn	r4, #-2147483648
 597 018a A642     		cmp	r6, r4
 598 018c 01D0     		beq	.L154
 555:..\common\Modules\utilH/util.c ****                     
 599              		.loc 1 555 0
 600 018e 3744     		add	r7, r7, r6
 601              	.LVL82:
ARM GAS  C:\Users\chemi\AppData\Local\Temp\ccyyfZEo.s 			page 25


 602 0190 4DE0     		b	.L102
 603              	.LVL83:
 604              	.L154:
 575:..\common\Modules\utilH/util.c ****                     
 605              		.loc 1 575 0
 606 0192 002B     		cmp	r3, #0
 607 0194 4BD1     		bne	.L102
 608 0196 C4E7     		b	.L40
 609              	.L100:
 610 0198 0025     		movs	r5, #0
 611 019a A6E7     		b	.L73
 612              	.L165:
 613 019c 8146     		mov	r9, r0
 477:..\common\Modules\utilH/util.c ****                         
 614              		.loc 1 477 0
 615 019e 4FF0010E 		mov	lr, #1
 616              	.LVL84:
 475:..\common\Modules\utilH/util.c ****                         state = waitEnd;
 617              		.loc 1 475 0
 618 01a2 0027     		movs	r7, #0
 619              	.LVL85:
 620              	.L155:
 476:..\common\Modules\utilH/util.c ****                         isExponentADot = 1;
 621              		.loc 1 476 0
 622 01a4 0225     		movs	r5, #2
 623              	.LVL86:
 624 01a6 A0E7     		b	.L73
 625              	.LVL87:
 626              	.L104:
 627 01a8 0325     		movs	r5, #3
 628 01aa 41E0     		b	.L47
 629              	.LVL88:
 630              	.L61:
 631              	.LBE79:
 660:..\common\Modules\utilH/util.c ****                 if(currentNumberPositionExponent < 10){
 632              		.loc 1 660 0
 633 01ac 002F     		cmp	r7, #0
 634 01ae 08DB     		blt	.L76
 661:..\common\Modules\utilH/util.c ****                     //yes, convert it
 635              		.loc 1 661 0
 636 01b0 092F     		cmp	r7, #9
 637 01b2 B6DC     		bgt	.L40
 638              	.LBB80:
 668:..\common\Modules\utilH/util.c ****                         //TERM_printDebug(TERM_handle, "\t=> would overflow :( ");
 639              		.loc 1 668 0
 640 01b4 01D1     		bne	.L78
 668:..\common\Modules\utilH/util.c ****                         //TERM_printDebug(TERM_handle, "\t=> would overflow :( ");
 641              		.loc 1 668 0 is_stmt 0 discriminator 1
 642 01b6 0229     		cmp	r1, #2
 643 01b8 B3DC     		bgt	.L40
 644              	.L78:
 645              	.LVL89:
 679:..\common\Modules\utilH/util.c ****                     
 646              		.loc 1 679 0 is_stmt 1
 647 01ba 52F82740 		ldr	r4, [r2, r7, lsl #2]
 648 01be 04FB0133 		mla	r3, r4, r1, r3
 649              	.LVL90:
ARM GAS  C:\Users\chemi\AppData\Local\Temp\ccyyfZEo.s 			page 26


 650              	.L76:
 651              	.LBE80:
 692:..\common\Modules\utilH/util.c ****         }else{
 652              		.loc 1 692 0
 653 01c2 0137     		adds	r7, r7, #1
 654              	.LVL91:
 655 01c4 B3E7     		b	.L60
 656              	.LVL92:
 657              	.L29:
 658              	.LBB81:
 461:..\common\Modules\utilH/util.c ****             case waitStart:
 659              		.loc 1 461 0
 660 01c6 032D     		cmp	r5, #3
 661 01c8 8FD8     		bhi	.L73
 662 01ca 01A6     		adr	r6, .L79
 663 01cc 56F825F0 		ldr	pc, [r6, r5, lsl #2]
 664              		.p2align 2
 665              	.L79:
 666 01d0 A9000000 		.word	.L36+1
 667 01d4 E1010000 		.word	.L43+1
 668 01d8 BF000000 		.word	.L107+1
 669 01dc CF000000 		.word	.L35+1
 670              		.p2align 1
 671              	.L43:
 496:..\common\Modules\utilH/util.c ****                         //yes it is
 672              		.loc 1 496 0 discriminator 2
 673 01e0 04F0DF04 		and	r4, r4, #223
 674              	.LVL93:
 675 01e4 452C     		cmp	r4, #69
 676 01e6 23D1     		bne	.L47
 496:..\common\Modules\utilH/util.c ****                         //yes it is
 677              		.loc 1 496 0 is_stmt 0 discriminator 3
 678 01e8 01B1     		cbz	r1, .L45
 496:..\common\Modules\utilH/util.c ****                         //yes it is
 679              		.loc 1 496 0 discriminator 5
 680 01ea 0AB3     		cbz	r2, .L47
 681              	.L45:
 496:..\common\Modules\utilH/util.c ****                         //yes it is
 682              		.loc 1 496 0 discriminator 6
 683 01ec 4478     		ldrb	r4, [r0, #1]	@ zero_extendqisi2
 684 01ee FCB1     		cbz	r4, .L47
 498:..\common\Modules\utilH/util.c ****                             //TERM_printDebug(TERM_handle, "\tfound start of exponent string ");
 685              		.loc 1 498 0 is_stmt 1
 686 01f0 2D2C     		cmp	r4, #45
 687 01f2 C5D0     		beq	.L51
 688              	.LVL94:
 689              	.LBB66:
 690              	.LBB67:
 378:..\common\Modules\utilH/util.c ****     return 0;
 691              		.loc 1 378 0 discriminator 1
 692 01f4 303C     		subs	r4, r4, #48
 693              	.LVL95:
 694 01f6 092C     		cmp	r4, #9
 695 01f8 1AD8     		bhi	.L47
 696 01fa C1E7     		b	.L51
 697              	.LVL96:
 698              	.L28:
ARM GAS  C:\Users\chemi\AppData\Local\Temp\ccyyfZEo.s 			page 27


 699              	.LBE67:
 700              	.LBE66:
 461:..\common\Modules\utilH/util.c ****             case waitStart:
 701              		.loc 1 461 0
 702 01fc 032D     		cmp	r5, #3
 703 01fe 3FF674AF 		bhi	.L73
 704 0202 01A6     		adr	r6, .L80
 705 0204 56F825F0 		ldr	pc, [r6, r5, lsl #2]
 706              		.p2align 2
 707              	.L80:
 708 0208 AD000000 		.word	.L31+1
 709 020c 19020000 		.word	.L135+1
 710 0210 21020000 		.word	.L109+1
 711 0214 CF000000 		.word	.L35+1
 712              	.LVL97:
 713              		.p2align 1
 714              	.L135:
 523:..\common\Modules\utilH/util.c ****                     
 715              		.loc 1 523 0
 716 0218 0027     		movs	r7, #0
 717 021a 4FF0010E 		mov	lr, #1
 718              	.LVL98:
 719 021e C1E7     		b	.L155
 720              	.LVL99:
 721              	.L109:
 722              	.LBB68:
 723              	.LBB52:
 411:..\common\Modules\utilH/util.c ****     if(c == 'h')    return 2;
 724              		.loc 1 411 0
 725 0220 0026     		movs	r6, #0
 726 0222 4EE7     		b	.L34
 727              	.LVL100:
 728              	.L99:
 729              	.LBE52:
 730              	.LBE68:
 731              	.LBB69:
 732              	.LBB56:
 378:..\common\Modules\utilH/util.c ****     return 0;
 733              		.loc 1 378 0
 734 0224 8146     		mov	r9, r0
 735              	.LVL101:
 736              	.L156:
 737              	.LBE56:
 738              	.LBE69:
 470:..\common\Modules\utilH/util.c ****                         
 739              		.loc 1 470 0
 740 0226 0125     		movs	r5, #1
 741 0228 5FE7     		b	.L73
 742              	.L103:
 743              	.LBB70:
 744              	.LBB62:
 378:..\common\Modules\utilH/util.c ****     return 0;
 745              		.loc 1 378 0
 746 022a 0325     		movs	r5, #3
 747              	.LVL102:
 748 022c 5DE7     		b	.L73
 749              	.LVL103:
ARM GAS  C:\Users\chemi\AppData\Local\Temp\ccyyfZEo.s 			page 28


 750              	.L102:
 751              	.LBE62:
 752              	.LBE70:
 753              	.LBB71:
 754              	.LBB65:
 755 022e 0225     		movs	r5, #2
 756              	.L47:
 757              	.LVL104:
 758              	.LBE65:
 759              	.LBE71:
 760              	.LBB72:
 761              	.LBB53:
 411:..\common\Modules\utilH/util.c ****     if(c == 'h')    return 2;
 762              		.loc 1 411 0
 763 0230 4FF0010C 		mov	ip, #1
 764 0234 F1E6     		b	.L23
 765              	.LVL105:
 766              	.L83:
 404:..\common\Modules\utilH/util.c ****     if(c == 'p')    return -12;
 767              		.loc 1 404 0
 768 0236 6FF00E06 		mvn	r6, #14
 769 023a 1CE0     		b	.L27
 770              	.L84:
 405:..\common\Modules\utilH/util.c ****     if(c == 'n')    return -9;
 771              		.loc 1 405 0
 772 023c 6FF00B06 		mvn	r6, #11
 773 0240 19E0     		b	.L27
 774              	.L85:
 406:..\common\Modules\utilH/util.c ****     if(c == 'u' || c == 230) return -6;    //ascii 230 is the greek micro
 775              		.loc 1 406 0
 776 0242 6FF00806 		mvn	r6, #8
 777 0246 16E0     		b	.L27
 778              	.L87:
 407:..\common\Modules\utilH/util.c ****     if(c == 'm')    return -3;
 779              		.loc 1 407 0
 780 0248 6FF00506 		mvn	r6, #5
 781 024c 13E0     		b	.L27
 782              	.L88:
 408:..\common\Modules\utilH/util.c ****     if(c == 'c')    return -2;
 783              		.loc 1 408 0
 784 024e 6FF00206 		mvn	r6, #2
 785 0252 10E0     		b	.L27
 786              	.L89:
 409:..\common\Modules\utilH/util.c ****     if(c == 'd')    return -1;
 787              		.loc 1 409 0
 788 0254 6FF00106 		mvn	r6, #1
 789 0258 0DE0     		b	.L27
 790              	.L90:
 410:..\common\Modules\utilH/util.c ****     if(c == '.')    return 0;
 791              		.loc 1 410 0
 792 025a 4FF0FF36 		mov	r6, #-1
 793 025e 0AE0     		b	.L27
 794              	.L91:
 412:..\common\Modules\utilH/util.c ****     if(c == 'k')    return 3;
 795              		.loc 1 412 0
 796 0260 0226     		movs	r6, #2
 797 0262 08E0     		b	.L27
ARM GAS  C:\Users\chemi\AppData\Local\Temp\ccyyfZEo.s 			page 29


 798              	.L92:
 413:..\common\Modules\utilH/util.c ****     if(c == 'M')    return 6;
 799              		.loc 1 413 0
 800 0264 0326     		movs	r6, #3
 801 0266 06E0     		b	.L27
 802              	.L93:
 414:..\common\Modules\utilH/util.c ****     if(c == 'G')    return 9;
 803              		.loc 1 414 0
 804 0268 0626     		movs	r6, #6
 805 026a 04E0     		b	.L27
 806              	.L94:
 415:..\common\Modules\utilH/util.c ****     if(c == 'T')    return 12;
 807              		.loc 1 415 0
 808 026c 0926     		movs	r6, #9
 809 026e 02E0     		b	.L27
 810              	.L95:
 416:..\common\Modules\utilH/util.c ****     if(c == 'P')    return 15;
 811              		.loc 1 416 0
 812 0270 0C26     		movs	r6, #12
 813 0272 00E0     		b	.L27
 814              	.L96:
 417:..\common\Modules\utilH/util.c ****     
 815              		.loc 1 417 0
 816 0274 0F26     		movs	r6, #15
 817              	.L27:
 818              	.LVL106:
 819              	.LBE53:
 820              	.LBE72:
 461:..\common\Modules\utilH/util.c ****             case waitStart:
 821              		.loc 1 461 0
 822 0276 032D     		cmp	r5, #3
 823 0278 3FF637AF 		bhi	.L73
 824 027c 0FF2040B 		adr	fp, .L81
 825 0280 5BF825F0 		ldr	pc, [fp, r5, lsl #2]
 826              		.p2align 2
 827              	.L81:
 828 0284 23010000 		.word	.L40+1
 829 0288 95020000 		.word	.L33+1
 830 028c C3000000 		.word	.L34+1
 831 0290 CF000000 		.word	.L35+1
 832              		.p2align 1
 833              	.L33:
 516:..\common\Modules\utilH/util.c ****                         
 834              		.loc 1 516 0
 835 0294 741C     		adds	r4, r6, #1
 836 0296 C6D0     		beq	.L156
 837              	.LVL107:
 523:..\common\Modules\utilH/util.c ****                     
 838              		.loc 1 523 0
 839 0298 002E     		cmp	r6, #0
 840 029a BDD0     		beq	.L135
 841 029c 3746     		mov	r7, r6
 842 029e 81E7     		b	.L155
 843              	.LVL108:
 844              	.L150:
 845              	.LBE81:
 703:..\common\Modules\utilH/util.c **** }
ARM GAS  C:\Users\chemi\AppData\Local\Temp\ccyyfZEo.s 			page 30


 846              		.loc 1 703 0
 847 02a0 07B0     		add	sp, sp, #28
 848              		.cfi_def_cfa_offset 36
 849              		@ sp needed
 850 02a2 BDE8F08F 		pop	{r4, r5, r6, r7, r8, r9, r10, fp, pc}
 851              	.LVL109:
 852              	.L167:
 853 02a6 00BF     		.align	2
 854              	.L166:
 855 02a8 00000000 		.word	.LANCHOR0
 856              		.cfi_endproc
 857              	.LFE73:
 858              		.size	atoiFP, .-atoiFP
 859              		.section	.text.qSin,"ax",%progbits
 860              		.align	1
 861              		.global	qSin
 862              		.thumb
 863              		.thumb_func
 864              		.type	qSin, %function
 865              	qSin:
 866              	.LFB74:
 704:..\common\Modules\utilH/util.c **** 
 705:..\common\Modules\utilH/util.c **** 
 706:..\common\Modules\utilH/util.c **** 
 707:..\common\Modules\utilH/util.c **** 
 708:..\common\Modules\utilH/util.c **** 
 709:..\common\Modules\utilH/util.c **** 
 710:..\common\Modules\utilH/util.c **** 
 711:..\common\Modules\utilH/util.c **** 
 712:..\common\Modules\utilH/util.c **** 
 713:..\common\Modules\utilH/util.c **** /*
 714:..\common\Modules\utilH/util.c ****  * LUT based fast sine function
 715:..\common\Modules\utilH/util.c ****  * 
 716:..\common\Modules\utilH/util.c ****  * parameter is a variable between 0-512 with 512 = 2pi. Return value is 0-500000
 717:..\common\Modules\utilH/util.c ****  *     
 718:..\common\Modules\utilH/util.c ****  */
 719:..\common\Modules\utilH/util.c **** 
 720:..\common\Modules\utilH/util.c **** 
 721:..\common\Modules\utilH/util.c **** //256 value sin lookup table x := [0, pi)
 722:..\common\Modules\utilH/util.c **** //TODO reduce this by half, symmetry's a bitch ;)
 723:..\common\Modules\utilH/util.c **** static const int32_t sineTable[] = {0, 6135, 12270, 18403, 24533, 30660, 36782, 42898, 49008, 55111
 724:..\common\Modules\utilH/util.c **** 
 725:..\common\Modules\utilH/util.c **** int32_t qSin(int32_t x){
 867              		.loc 1 725 0
 868              		.cfi_startproc
 869              		@ args = 0, pretend = 0, frame = 0
 870              		@ frame_needed = 0, uses_anonymous_args = 0
 871              		@ link register save eliminated.
 872              	.LVL110:
 726:..\common\Modules\utilH/util.c ****     int32_t xt = abs(x) % 0xff;
 873              		.loc 1 726 0
 874 0000 80EAE073 		eor	r3, r0, r0, asr #31
 875 0004 A3EBE073 		sub	r3, r3, r0, asr #31
 876 0008 FF22     		movs	r2, #255
 877 000a 93FBF2F2 		sdiv	r2, r3, r2
 878 000e C2EB0222 		rsb	r2, r2, r2, lsl #8
 879              	.LVL111:
ARM GAS  C:\Users\chemi\AppData\Local\Temp\ccyyfZEo.s 			page 31


 727:..\common\Modules\utilH/util.c ****     
 728:..\common\Modules\utilH/util.c ****     if(xt == 0) return 0;
 880              		.loc 1 728 0
 881 0012 9B1A     		subs	r3, r3, r2
 882              	.LVL112:
 883 0014 08D0     		beq	.L171
 729:..\common\Modules\utilH/util.c ****     return (x > 0) ? sineTable[xt] : -sineTable[xt];
 884              		.loc 1 729 0
 885 0016 0028     		cmp	r0, #0
 886 0018 0448     		ldr	r0, .L172
 887              	.LVL113:
 888 001a 4FEA8303 		lsl	r3, r3, #2
 889              	.LVL114:
 890 001e 0344     		add	r3, r3, r0
 891 0020 986A     		ldr	r0, [r3, #40]
 892 0022 D8BF     		it	le
 893 0024 4042     		rsble	r0, r0, #0
 894 0026 7047     		bx	lr
 895              	.LVL115:
 896              	.L171:
 728:..\common\Modules\utilH/util.c ****     return (x > 0) ? sineTable[xt] : -sineTable[xt];
 897              		.loc 1 728 0
 898 0028 1846     		mov	r0, r3
 899              	.LVL116:
 730:..\common\Modules\utilH/util.c **** }...
 900              		.loc 1 730 0
 901 002a 7047     		bx	lr
 902              	.L173:
 903              		.align	2
 904              	.L172:
 905 002c 00000000 		.word	.LANCHOR0
 906              		.cfi_endproc
 907              	.LFE74:
 908              		.size	qSin, .-qSin
 909              		.section	.rodata
 910              		.align	2
 911              		.set	.LANCHOR0,. + 0
 912              		.type	exponentTable, %object
 913              		.size	exponentTable, 40
 914              	exponentTable:
 915 0000 01000000 		.word	1
 916 0004 0A000000 		.word	10
 917 0008 64000000 		.word	100
 918 000c E8030000 		.word	1000
 919 0010 10270000 		.word	10000
 920 0014 A0860100 		.word	100000
 921 0018 40420F00 		.word	1000000
 922 001c 80969800 		.word	10000000
 923 0020 00E1F505 		.word	100000000
 924 0024 00CA9A3B 		.word	1000000000
 925              		.type	sineTable, %object
 926              		.size	sineTable, 1024
 927              	sineTable:
 928 0028 00000000 		.word	0
 929 002c F7170000 		.word	6135
 930 0030 EE2F0000 		.word	12270
 931 0034 E3470000 		.word	18403
ARM GAS  C:\Users\chemi\AppData\Local\Temp\ccyyfZEo.s 			page 32


 932 0038 D55F0000 		.word	24533
 933 003c C4770000 		.word	30660
 934 0040 AE8F0000 		.word	36782
 935 0044 92A70000 		.word	42898
 936 0048 70BF0000 		.word	49008
 937 004c 47D70000 		.word	55111
 938 0050 15EF0000 		.word	61205
 939 0054 DA060100 		.word	67290
 940 0058 951E0100 		.word	73365
 941 005c 45360100 		.word	79429
 942 0060 E84D0100 		.word	85480
 943 0064 7F650100 		.word	91519
 944 0068 097D0100 		.word	97545
 945 006c 83940100 		.word	103555
 946 0070 EEAB0100 		.word	109550
 947 0074 49C30100 		.word	115529
 948 0078 92DA0100 		.word	121490
 949 007c C8F10100 		.word	127432
 950 0080 EC080200 		.word	133356
 951 0084 FB1F0200 		.word	139259
 952 0088 F6360200 		.word	145142
 953 008c DA4D0200 		.word	151002
 954 0090 A8640200 		.word	156840
 955 0094 5F7B0200 		.word	162655
 956 0098 FC910200 		.word	168444
 957 009c 81A80200 		.word	174209
 958 00a0 EBBE0200 		.word	179947
 959 00a4 3AD50200 		.word	185658
 960 00a8 6DEB0200 		.word	191341
 961 00ac 84010300 		.word	196996
 962 00b0 7C170300 		.word	202620
 963 00b4 562D0300 		.word	208214
 964 00b8 11430300 		.word	213777
 965 00bc AC580300 		.word	219308
 966 00c0 256E0300 		.word	224805
 967 00c4 7D830300 		.word	230269
 968 00c8 B2980300 		.word	235698
 969 00cc C3AD0300 		.word	241091
 970 00d0 B1C20300 		.word	246449
 971 00d4 79D70300 		.word	251769
 972 00d8 1BEC0300 		.word	257051
 973 00dc 96000400 		.word	262294
 974 00e0 EA140400 		.word	267498
 975 00e4 16290400 		.word	272662
 976 00e8 193D0400 		.word	277785
 977 00ec F1500400 		.word	282865
 978 00f0 A0640400 		.word	287904
 979 00f4 22780400 		.word	292898
 980 00f8 798B0400 		.word	297849
 981 00fc A39E0400 		.word	302755
 982 0100 9FB10400 		.word	307615
 983 0104 6DC40400 		.word	312429
 984 0108 0CD70400 		.word	317196
 985 010c 7BE90400 		.word	321915
 986 0110 BAFB0400 		.word	326586
 987 0114 C70D0500 		.word	331207
 988 0118 A31F0500 		.word	335779
ARM GAS  C:\Users\chemi\AppData\Local\Temp\ccyyfZEo.s 			page 33


 989 011c 4C310500 		.word	340300
 990 0120 C2420500 		.word	344770
 991 0124 04540500 		.word	349188
 992 0128 11650500 		.word	353553
 993 012c E9750500 		.word	357865
 994 0130 8B860500 		.word	362123
 995 0134 F7960500 		.word	366327
 996 0138 2BA70500 		.word	370475
 997 013c 28B70500 		.word	374568
 998 0140 ECC60500 		.word	378604
 999 0144 77D60500 		.word	382583
 1000 0148 C9E50500 		.word	386505
 1001 014c E0F40500 		.word	390368
 1002 0150 BD030600 		.word	394173
 1003 0154 5E120600 		.word	397918
 1004 0158 C3200600 		.word	401603
 1005 015c EC2E0600 		.word	405228
 1006 0160 D83C0600 		.word	408792
 1007 0164 864A0600 		.word	412294
 1008 0168 F6570600 		.word	415734
 1009 016c 28650600 		.word	419112
 1010 0170 1A720600 		.word	422426
 1011 0174 CD7E0600 		.word	425677
 1012 0178 408B0600 		.word	428864
 1013 017c 72970600 		.word	431986
 1014 0180 63A30600 		.word	435043
 1015 0184 13AF0600 		.word	438035
 1016 0188 80BA0600 		.word	440960
 1017 018c ABC50600 		.word	443819
 1018 0190 94D00600 		.word	446612
 1019 0194 39DB0600 		.word	449337
 1020 0198 9AE50600 		.word	451994
 1021 019c B7EF0600 		.word	454583
 1022 01a0 90F90600 		.word	457104
 1023 01a4 24030700 		.word	459556
 1024 01a8 730C0700 		.word	461939
 1025 01ac 7D150700 		.word	464253
 1026 01b0 401E0700 		.word	466496
 1027 01b4 BD260700 		.word	468669
 1028 01b8 F42E0700 		.word	470772
 1029 01bc E3360700 		.word	472803
 1030 01c0 8C3E0700 		.word	474764
 1031 01c4 ED450700 		.word	476653
 1032 01c8 064D0700 		.word	478470
 1033 01cc D7530700 		.word	480215
 1034 01d0 605A0700 		.word	481888
 1035 01d4 A0600700 		.word	483488
 1036 01d8 97660700 		.word	485015
 1037 01dc 456C0700 		.word	486469
 1038 01e0 AB710700 		.word	487851
 1039 01e4 C6760700 		.word	489158
 1040 01e8 987B0700 		.word	490392
 1041 01ec 20800700 		.word	491552
 1042 01f0 5E840700 		.word	492638
 1043 01f4 52880700 		.word	493650
 1044 01f8 FC8B0700 		.word	494588
 1045 01fc 5B8F0700 		.word	495451
ARM GAS  C:\Users\chemi\AppData\Local\Temp\ccyyfZEo.s 			page 34


 1046 0200 6F920700 		.word	496239
 1047 0204 39950700 		.word	496953
 1048 0208 B8970700 		.word	497592
 1049 020c EC990700 		.word	498156
 1050 0210 D59B0700 		.word	498645
 1051 0214 739D0700 		.word	499059
 1052 0218 C59E0700 		.word	499397
 1053 021c CD9F0700 		.word	499661
 1054 0220 89A00700 		.word	499849
 1055 0224 FAA00700 		.word	499962
 1056 0228 20A10700 		.word	500000
 1057 022c FAA00700 		.word	499962
 1058 0230 89A00700 		.word	499849
 1059 0234 CD9F0700 		.word	499661
 1060 0238 C59E0700 		.word	499397
 1061 023c 739D0700 		.word	499059
 1062 0240 D59B0700 		.word	498645
 1063 0244 EC990700 		.word	498156
 1064 0248 B8970700 		.word	497592
 1065 024c 39950700 		.word	496953
 1066 0250 6F920700 		.word	496239
 1067 0254 5B8F0700 		.word	495451
 1068 0258 FC8B0700 		.word	494588
 1069 025c 52880700 		.word	493650
 1070 0260 5E840700 		.word	492638
 1071 0264 20800700 		.word	491552
 1072 0268 987B0700 		.word	490392
 1073 026c C6760700 		.word	489158
 1074 0270 AB710700 		.word	487851
 1075 0274 456C0700 		.word	486469
 1076 0278 97660700 		.word	485015
 1077 027c A0600700 		.word	483488
 1078 0280 605A0700 		.word	481888
 1079 0284 D7530700 		.word	480215
 1080 0288 064D0700 		.word	478470
 1081 028c ED450700 		.word	476653
 1082 0290 8C3E0700 		.word	474764
 1083 0294 E3360700 		.word	472803
 1084 0298 F42E0700 		.word	470772
 1085 029c BD260700 		.word	468669
 1086 02a0 401E0700 		.word	466496
 1087 02a4 7D150700 		.word	464253
 1088 02a8 730C0700 		.word	461939
 1089 02ac 24030700 		.word	459556
 1090 02b0 90F90600 		.word	457104
 1091 02b4 B7EF0600 		.word	454583
 1092 02b8 9AE50600 		.word	451994
 1093 02bc 39DB0600 		.word	449337
 1094 02c0 94D00600 		.word	446612
 1095 02c4 ABC50600 		.word	443819
 1096 02c8 80BA0600 		.word	440960
 1097 02cc 13AF0600 		.word	438035
 1098 02d0 63A30600 		.word	435043
 1099 02d4 72970600 		.word	431986
 1100 02d8 408B0600 		.word	428864
 1101 02dc CD7E0600 		.word	425677
 1102 02e0 1A720600 		.word	422426
ARM GAS  C:\Users\chemi\AppData\Local\Temp\ccyyfZEo.s 			page 35


 1103 02e4 28650600 		.word	419112
 1104 02e8 F6570600 		.word	415734
 1105 02ec 864A0600 		.word	412294
 1106 02f0 D83C0600 		.word	408792
 1107 02f4 EC2E0600 		.word	405228
 1108 02f8 C3200600 		.word	401603
 1109 02fc 5E120600 		.word	397918
 1110 0300 BD030600 		.word	394173
 1111 0304 E0F40500 		.word	390368
 1112 0308 C9E50500 		.word	386505
 1113 030c 77D60500 		.word	382583
 1114 0310 ECC60500 		.word	378604
 1115 0314 28B70500 		.word	374568
 1116 0318 2BA70500 		.word	370475
 1117 031c F7960500 		.word	366327
 1118 0320 8B860500 		.word	362123
 1119 0324 E9750500 		.word	357865
 1120 0328 11650500 		.word	353553
 1121 032c 04540500 		.word	349188
 1122 0330 C2420500 		.word	344770
 1123 0334 4C310500 		.word	340300
 1124 0338 A31F0500 		.word	335779
 1125 033c C70D0500 		.word	331207
 1126 0340 BAFB0400 		.word	326586
 1127 0344 7BE90400 		.word	321915
 1128 0348 0CD70400 		.word	317196
 1129 034c 6DC40400 		.word	312429
 1130 0350 9FB10400 		.word	307615
 1131 0354 A39E0400 		.word	302755
 1132 0358 798B0400 		.word	297849
 1133 035c 22780400 		.word	292898
 1134 0360 A0640400 		.word	287904
 1135 0364 F1500400 		.word	282865
 1136 0368 193D0400 		.word	277785
 1137 036c 16290400 		.word	272662
 1138 0370 EA140400 		.word	267498
 1139 0374 96000400 		.word	262294
 1140 0378 1BEC0300 		.word	257051
 1141 037c 79D70300 		.word	251769
 1142 0380 B1C20300 		.word	246449
 1143 0384 C3AD0300 		.word	241091
 1144 0388 B2980300 		.word	235698
 1145 038c 7D830300 		.word	230269
 1146 0390 256E0300 		.word	224805
 1147 0394 AC580300 		.word	219308
 1148 0398 11430300 		.word	213777
 1149 039c 562D0300 		.word	208214
 1150 03a0 7C170300 		.word	202620
 1151 03a4 84010300 		.word	196996
 1152 03a8 6DEB0200 		.word	191341
 1153 03ac 3AD50200 		.word	185658
 1154 03b0 EBBE0200 		.word	179947
 1155 03b4 81A80200 		.word	174209
 1156 03b8 FC910200 		.word	168444
 1157 03bc 5F7B0200 		.word	162655
 1158 03c0 A8640200 		.word	156840
 1159 03c4 DA4D0200 		.word	151002
ARM GAS  C:\Users\chemi\AppData\Local\Temp\ccyyfZEo.s 			page 36


 1160 03c8 F6360200 		.word	145142
 1161 03cc FB1F0200 		.word	139259
 1162 03d0 EC080200 		.word	133356
 1163 03d4 C8F10100 		.word	127432
 1164 03d8 92DA0100 		.word	121490
 1165 03dc 49C30100 		.word	115529
 1166 03e0 EEAB0100 		.word	109550
 1167 03e4 83940100 		.word	103555
 1168 03e8 097D0100 		.word	97545
 1169 03ec 7F650100 		.word	91519
 1170 03f0 E84D0100 		.word	85480
 1171 03f4 45360100 		.word	79429
 1172 03f8 951E0100 		.word	73365
 1173 03fc DA060100 		.word	67290
 1174 0400 15EF0000 		.word	61205
 1175 0404 47D70000 		.word	55111
 1176 0408 70BF0000 		.word	49008
 1177 040c 92A70000 		.word	42898
 1178 0410 AE8F0000 		.word	36782
 1179 0414 C4770000 		.word	30660
 1180 0418 D55F0000 		.word	24533
 1181 041c E3470000 		.word	18403
 1182 0420 EE2F0000 		.word	12270
 1183 0424 F7170000 		.word	6135
 1184              		.text
 1185              	.Letext0:
 1186              		.file 2 "c:\\program files (x86)\\cypress\\psoc creator\\4.4\\psoc creator\\import\\gnu\\arm\\5.4.
 1187              		.file 3 "c:\\program files (x86)\\cypress\\psoc creator\\4.4\\psoc creator\\import\\gnu\\arm\\5.4.
 1188              		.file 4 "Generated_Source\\PSoC5/core_cm3.h"
 1189              		.file 5 "c:\\program files (x86)\\cypress\\psoc creator\\4.4\\psoc creator\\import\\gnu\\arm\\5.4.