ARM GAS  C:\Users\chemi\AppData\Local\Temp\ccr4fFHe.s 			page 1


   1              		.syntax unified
   2              		.cpu cortex-m3
   3              		.fpu softvfp
   4              		.eabi_attribute 20, 1
   5              		.eabi_attribute 21, 1
   6              		.eabi_attribute 23, 3
   7              		.eabi_attribute 24, 1
   8              		.eabi_attribute 25, 1
   9              		.eabi_attribute 26, 1
  10              		.eabi_attribute 30, 4
  11              		.eabi_attribute 34, 1
  12              		.eabi_attribute 18, 4
  13              		.thumb
  14              		.syntax unified
  15              		.file	"VMSWrapper.c"
  16              		.text
  17              	.Ltext0:
  18              		.cfi_sections	.debug_frame
  19              		.section	.text.VMSW_task,"ax",%progbits
  20              		.align	1
  21              		.thumb
  22              		.thumb_func
  23              		.type	VMSW_task, %function
  24              	VMSW_task:
  25              	.LFB71:
  26              		.file 1 "..\\common\\vms\\VMSWrapper.c"
   1:..\common\vms/VMSWrapper.c **** /*
   2:..\common\vms/VMSWrapper.c ****  * File:   VMSWrapper.c
   3:..\common\vms/VMSWrapper.c ****  * Author: Thorb
   4:..\common\vms/VMSWrapper.c ****  *
   5:..\common\vms/VMSWrapper.c ****  * Created on 17 January 2023, 20:25
   6:..\common\vms/VMSWrapper.c ****  */
   7:..\common\vms/VMSWrapper.c **** 
   8:..\common\vms/VMSWrapper.c **** #include "SignalGenerator.h"
   9:..\common\vms/VMSWrapper.c **** #include "VMS.h"
  10:..\common\vms/VMSWrapper.c **** #include "FreeRTOS.h"
  11:..\common\vms/VMSWrapper.c **** #include "task.h"
  12:..\common\vms/VMSWrapper.c **** #include "VMSWrapper.h"
  13:..\common\vms/VMSWrapper.c **** #include "MidiProcessor.h"
  14:..\common\vms/VMSWrapper.c **** #include "VMSDefaults.h"
  15:..\common\vms/VMSWrapper.c **** #include "NoteMapper.h"
  16:..\common\vms/VMSWrapper.c **** #include "interrupter.h"
  17:..\common\vms/VMSWrapper.c **** #include "cli_common.h"
  18:..\common\vms/VMSWrapper.c **** #include "helper/nvm.h"
  19:..\common\vms/VMSWrapper.c **** #include "TTerm.h"
  20:..\common\vms/VMSWrapper.c **** #include "tasks/tsk_cli.h"
  21:..\common\vms/VMSWrapper.c **** 
  22:..\common\vms/VMSWrapper.c **** static VMS_VoiceData_t ** voiceData;
  23:..\common\vms/VMSWrapper.c **** 
  24:..\common\vms/VMSWrapper.c **** static uint32_t VMSW_getNextVoice(uint32_t note, uint32_t output, uint32_t channel);
  25:..\common\vms/VMSWrapper.c **** static void VMSW_task(void * params);
  26:..\common\vms/VMSWrapper.c **** 
  27:..\common\vms/VMSWrapper.c **** //static uint32_t blockMemSize = VMS_DEFAULT_BLOCKMEM_SIZE;
  28:..\common\vms/VMSWrapper.c **** static uint32_t blockMemBlockCount = VMS_DEFAULT_BLOCKMEM_SIZE/sizeof(VMS_Block_t);
  29:..\common\vms/VMSWrapper.c **** 
  30:..\common\vms/VMSWrapper.c **** uint32_t VMSW_getBlockMemSizeInBlocks(){
  31:..\common\vms/VMSWrapper.c ****     return blockMemBlockCount;
ARM GAS  C:\Users\chemi\AppData\Local\Temp\ccr4fFHe.s 			page 2


  32:..\common\vms/VMSWrapper.c **** }
  33:..\common\vms/VMSWrapper.c **** 
  34:..\common\vms/VMSWrapper.c **** VMS_VoiceData_t * VMSW_getVoiceData(){
  35:..\common\vms/VMSWrapper.c ****     return voiceData[0];
  36:..\common\vms/VMSWrapper.c **** }
  37:..\common\vms/VMSWrapper.c **** 
  38:..\common\vms/VMSWrapper.c **** void VMSW_init(){
  39:..\common\vms/VMSWrapper.c ****     //add vms memory to conman
  40:..\common\vms/VMSWrapper.c ****     
  41:..\common\vms/VMSWrapper.c ****     voiceData = pvPortMalloc(sizeof(VMS_VoiceData_t *) * SIGGEN_OUTPUTCOUNT);
  42:..\common\vms/VMSWrapper.c ****     for(uint32_t i = 0; i < SIGGEN_OUTPUTCOUNT; i++){
  43:..\common\vms/VMSWrapper.c ****         voiceData[i] = pvPortMalloc(sizeof(VMS_VoiceData_t) * SIGGEN_VOICECOUNT);
  44:..\common\vms/VMSWrapper.c ****         
  45:..\common\vms/VMSWrapper.c ****         //clear memory
  46:..\common\vms/VMSWrapper.c ****         memset(voiceData[i], 0, sizeof(VMS_VoiceData_t) * SIGGEN_VOICECOUNT);
  47:..\common\vms/VMSWrapper.c ****     }
  48:..\common\vms/VMSWrapper.c ****     
  49:..\common\vms/VMSWrapper.c ****     VMS_init();
  50:..\common\vms/VMSWrapper.c ****     
  51:..\common\vms/VMSWrapper.c ****     xTaskCreate(VMSW_task, "VMS Task", configMINIMAL_STACK_SIZE+256, NULL, tskIDLE_PRIORITY + 3, NU
  52:..\common\vms/VMSWrapper.c **** }
  53:..\common\vms/VMSWrapper.c **** 
  54:..\common\vms/VMSWrapper.c **** static void VMSW_task(void * params){
  27              		.loc 1 54 0
  28              		.cfi_startproc
  29              		@ Volatile: function does not return.
  30              		@ args = 0, pretend = 0, frame = 0
  31              		@ frame_needed = 0, uses_anonymous_args = 0
  32              	.LVL0:
  33 0000 08B5     		push	{r3, lr}
  34              		.cfi_def_cfa_offset 8
  35              		.cfi_offset 3, -8
  36              		.cfi_offset 14, -4
  55:..\common\vms/VMSWrapper.c ****     while(1){
  56:..\common\vms/VMSWrapper.c ****         //run VMS service
  57:..\common\vms/VMSWrapper.c ****         
  58:..\common\vms/VMSWrapper.c ****         //does the synth mode require vms?
  59:..\common\vms/VMSWrapper.c ****         if(param.synth == SYNTH_MIDI){
  37              		.loc 1 59 0
  38 0002 074C     		ldr	r4, .L6
  39              	.LVL1:
  40              	.L4:
  41 0004 94F82030 		ldrb	r3, [r4, #32]	@ zero_extendqisi2
  42 0008 012B     		cmp	r3, #1
  43 000a 02D1     		bne	.L2
  60:..\common\vms/VMSWrapper.c ****             //yes => run it
  61:..\common\vms/VMSWrapper.c ****             VMS_run();
  44              		.loc 1 61 0
  45 000c FFF7FEFF 		bl	VMS_run
  46              	.LVL2:
  47 0010 02E0     		b	.L3
  48              	.L2:
  62:..\common\vms/VMSWrapper.c ****         }else{
  63:..\common\vms/VMSWrapper.c ****             //no => save some cpu cycles
  64:..\common\vms/VMSWrapper.c ****             vTaskDelay(pdMS_TO_TICKS(100));
  49              		.loc 1 64 0
  50 0012 6420     		movs	r0, #100
ARM GAS  C:\Users\chemi\AppData\Local\Temp\ccr4fFHe.s 			page 3


  51 0014 FFF7FEFF 		bl	vTaskDelay
  52              	.LVL3:
  53              	.L3:
  65:..\common\vms/VMSWrapper.c ****         }
  66:..\common\vms/VMSWrapper.c ****         vTaskDelay(1);
  54              		.loc 1 66 0
  55 0018 0120     		movs	r0, #1
  56 001a FFF7FEFF 		bl	vTaskDelay
  57              	.LVL4:
  67:..\common\vms/VMSWrapper.c ****     }
  58              		.loc 1 67 0
  59 001e F1E7     		b	.L4
  60              	.L7:
  61              		.align	2
  62              	.L6:
  63 0020 00000000 		.word	param
  64              		.cfi_endproc
  65              	.LFE71:
  66              		.size	VMSW_task, .-VMSW_task
  67              		.section	.text.VMSW_getBlockMemSizeInBlocks,"ax",%progbits
  68              		.align	1
  69              		.global	VMSW_getBlockMemSizeInBlocks
  70              		.thumb
  71              		.thumb_func
  72              		.type	VMSW_getBlockMemSizeInBlocks, %function
  73              	VMSW_getBlockMemSizeInBlocks:
  74              	.LFB68:
  30:..\common\vms/VMSWrapper.c ****     return blockMemBlockCount;
  75              		.loc 1 30 0
  76              		.cfi_startproc
  77              		@ args = 0, pretend = 0, frame = 0
  78              		@ frame_needed = 0, uses_anonymous_args = 0
  79              		@ link register save eliminated.
  32:..\common\vms/VMSWrapper.c **** 
  80              		.loc 1 32 0
  81 0000 40F2B910 		movw	r0, #441
  82 0004 7047     		bx	lr
  83              		.cfi_endproc
  84              	.LFE68:
  85              		.size	VMSW_getBlockMemSizeInBlocks, .-VMSW_getBlockMemSizeInBlocks
  86              		.section	.text.VMSW_getVoiceData,"ax",%progbits
  87              		.align	1
  88              		.global	VMSW_getVoiceData
  89              		.thumb
  90              		.thumb_func
  91              		.type	VMSW_getVoiceData, %function
  92              	VMSW_getVoiceData:
  93              	.LFB69:
  34:..\common\vms/VMSWrapper.c ****     return voiceData[0];
  94              		.loc 1 34 0
  95              		.cfi_startproc
  96              		@ args = 0, pretend = 0, frame = 0
  97              		@ frame_needed = 0, uses_anonymous_args = 0
  98              		@ link register save eliminated.
  35:..\common\vms/VMSWrapper.c **** }
  99              		.loc 1 35 0
 100 0000 014B     		ldr	r3, .L10
ARM GAS  C:\Users\chemi\AppData\Local\Temp\ccr4fFHe.s 			page 4


 101 0002 1B68     		ldr	r3, [r3]
  36:..\common\vms/VMSWrapper.c **** 
 102              		.loc 1 36 0
 103 0004 1868     		ldr	r0, [r3]
 104 0006 7047     		bx	lr
 105              	.L11:
 106              		.align	2
 107              	.L10:
 108 0008 00000000 		.word	.LANCHOR0
 109              		.cfi_endproc
 110              	.LFE69:
 111              		.size	VMSW_getVoiceData, .-VMSW_getVoiceData
 112              		.section	.text.VMSW_init,"ax",%progbits
 113              		.align	1
 114              		.global	VMSW_init
 115              		.thumb
 116              		.thumb_func
 117              		.type	VMSW_init, %function
 118              	VMSW_init:
 119              	.LFB70:
  38:..\common\vms/VMSWrapper.c ****     //add vms memory to conman
 120              		.loc 1 38 0
 121              		.cfi_startproc
 122              		@ args = 0, pretend = 0, frame = 0
 123              		@ frame_needed = 0, uses_anonymous_args = 0
 124 0000 37B5     		push	{r0, r1, r2, r4, r5, lr}
 125              		.cfi_def_cfa_offset 24
 126              		.cfi_offset 4, -12
 127              		.cfi_offset 5, -8
 128              		.cfi_offset 14, -4
  41:..\common\vms/VMSWrapper.c ****     for(uint32_t i = 0; i < SIGGEN_OUTPUTCOUNT; i++){
 129              		.loc 1 41 0
 130 0002 0420     		movs	r0, #4
 131 0004 FFF7FEFF 		bl	pvPortMalloc
 132              	.LVL5:
 133 0008 0E4C     		ldr	r4, .L13
 134 000a 0546     		mov	r5, r0
 135 000c 2060     		str	r0, [r4]
 136              	.LVL6:
 137              	.LBB5:
  43:..\common\vms/VMSWrapper.c ****         
 138              		.loc 1 43 0
 139 000e 4FF43A70 		mov	r0, #744
 140 0012 FFF7FEFF 		bl	pvPortMalloc
 141              	.LVL7:
  46:..\common\vms/VMSWrapper.c ****     }
 142              		.loc 1 46 0
 143 0016 2368     		ldr	r3, [r4]
  43:..\common\vms/VMSWrapper.c ****         
 144              		.loc 1 43 0
 145 0018 2860     		str	r0, [r5]
  46:..\common\vms/VMSWrapper.c ****     }
 146              		.loc 1 46 0
 147 001a 4FF43A72 		mov	r2, #744
 148 001e 0021     		movs	r1, #0
 149 0020 1868     		ldr	r0, [r3]
 150 0022 FFF7FEFF 		bl	memset
ARM GAS  C:\Users\chemi\AppData\Local\Temp\ccr4fFHe.s 			page 5


 151              	.LVL8:
 152              	.LBE5:
  49:..\common\vms/VMSWrapper.c ****     
 153              		.loc 1 49 0
 154 0026 FFF7FEFF 		bl	VMS_init
 155              	.LVL9:
  51:..\common\vms/VMSWrapper.c **** }
 156              		.loc 1 51 0
 157 002a 0023     		movs	r3, #0
 158 002c 0322     		movs	r2, #3
 159 002e 8DE80C00 		stmia	sp, {r2, r3}
 160 0032 0549     		ldr	r1, .L13+4
 161 0034 4FF4B272 		mov	r2, #356
 162 0038 0448     		ldr	r0, .L13+8
 163 003a FFF7FEFF 		bl	xTaskCreate
 164              	.LVL10:
  52:..\common\vms/VMSWrapper.c **** 
 165              		.loc 1 52 0
 166 003e 03B0     		add	sp, sp, #12
 167              		.cfi_def_cfa_offset 12
 168              		@ sp needed
 169 0040 30BD     		pop	{r4, r5, pc}
 170              	.L14:
 171 0042 00BF     		.align	2
 172              	.L13:
 173 0044 00000000 		.word	.LANCHOR0
 174 0048 00000000 		.word	.LC0
 175 004c 00000000 		.word	VMSW_task
 176              		.cfi_endproc
 177              	.LFE70:
 178              		.size	VMSW_init, .-VMSW_init
 179              		.section	.text.VMSW_stopNote,"ax",%progbits
 180              		.align	1
 181              		.global	VMSW_stopNote
 182              		.thumb
 183              		.thumb_func
 184              		.type	VMSW_stopNote, %function
 185              	VMSW_stopNote:
 186              	.LFB72:
  68:..\common\vms/VMSWrapper.c **** }
  69:..\common\vms/VMSWrapper.c **** 
  70:..\common\vms/VMSWrapper.c **** void VMSW_stopNote(uint32_t output, uint32_t note, uint32_t channel){
 187              		.loc 1 70 0
 188              		.cfi_startproc
 189              		@ args = 0, pretend = 0, frame = 0
 190              		@ frame_needed = 0, uses_anonymous_args = 0
 191              	.LVL11:
 192 0000 70B5     		push	{r4, r5, r6, lr}
 193              		.cfi_def_cfa_offset 16
 194              		.cfi_offset 4, -16
 195              		.cfi_offset 5, -12
 196              		.cfi_offset 6, -8
 197              		.cfi_offset 14, -4
 198              		.loc 1 70 0
 199 0002 0D46     		mov	r5, r1
 200 0004 1646     		mov	r6, r2
  71:..\common\vms/VMSWrapper.c ****     if(output >= SIGGEN_OUTPUTCOUNT) return;
ARM GAS  C:\Users\chemi\AppData\Local\Temp\ccr4fFHe.s 			page 6


 201              		.loc 1 71 0
 202 0006 0446     		mov	r4, r0
 203 0008 D0B9     		cbnz	r0, .L15
  72:..\common\vms/VMSWrapper.c ****     
  73:..\common\vms/VMSWrapper.c ****     VMS_getSemaphore();
 204              		.loc 1 73 0
 205 000a FFF7FEFF 		bl	VMS_getSemaphore
 206              	.LVL12:
 207              	.LBB6:
  74:..\common\vms/VMSWrapper.c ****     //find which voice is playing the note (if one is even doing that...)
  75:..\common\vms/VMSWrapper.c ****     for(uint32_t currVoice = 0; currVoice < SIGGEN_VOICECOUNT; currVoice++){
  76:..\common\vms/VMSWrapper.c ****         //does the channel and the note match? If so => clear the note on bit, VMS should to the re
  77:..\common\vms/VMSWrapper.c ****         if(voiceData[output][currVoice].on && voiceData[output][currVoice].sourceChannel == channel
 208              		.loc 1 77 0
 209 000e 0D4B     		ldr	r3, .L23
 210 0010 1B68     		ldr	r3, [r3]
 211 0012 1B68     		ldr	r3, [r3]
 212 0014 03F53A70 		add	r0, r3, #744
 213              	.LVL13:
 214              	.L18:
 215 0018 DA6C     		ldr	r2, [r3, #76]
 216 001a 52B1     		cbz	r2, .L17
 217              		.loc 1 77 0 is_stmt 0 discriminator 1
 218 001c 93F86020 		ldrb	r2, [r3, #96]	@ zero_extendqisi2
 219 0020 B242     		cmp	r2, r6
 220 0022 06D1     		bne	.L17
 221              		.loc 1 77 0 discriminator 2
 222 0024 93F86120 		ldrb	r2, [r3, #97]	@ zero_extendqisi2
 223 0028 AA42     		cmp	r2, r5
  78:..\common\vms/VMSWrapper.c ****             voiceData[output][currVoice].on = 0;
  79:..\common\vms/VMSWrapper.c ****             
  80:..\common\vms/VMSWrapper.c ****             //TODO could this mess up portamento?
  81:..\common\vms/VMSWrapper.c ****             voiceData[output][currVoice].freqLast = voiceData[output][currVoice].freqCurrent;
 224              		.loc 1 81 0 is_stmt 1 discriminator 2
 225 002a 02BF     		ittt	eq
 226 002c 5A68     		ldreq	r2, [r3, #4]
  78:..\common\vms/VMSWrapper.c ****             voiceData[output][currVoice].on = 0;
 227              		.loc 1 78 0 discriminator 2
 228 002e DC64     		streq	r4, [r3, #76]
 229              		.loc 1 81 0 discriminator 2
 230 0030 DA60     		streq	r2, [r3, #12]
 231              	.L17:
 232 0032 7C33     		adds	r3, r3, #124
  75:..\common\vms/VMSWrapper.c ****         //does the channel and the note match? If so => clear the note on bit, VMS should to the re
 233              		.loc 1 75 0 discriminator 2
 234 0034 8342     		cmp	r3, r0
 235 0036 EFD1     		bne	.L18
 236              	.LBE6:
  82:..\common\vms/VMSWrapper.c ****         }
  83:..\common\vms/VMSWrapper.c ****     }
  84:..\common\vms/VMSWrapper.c ****     VMS_returnSemaphore();
  85:..\common\vms/VMSWrapper.c **** }
 237              		.loc 1 85 0
 238 0038 BDE87040 		pop	{r4, r5, r6, lr}
 239              		.cfi_remember_state
 240              		.cfi_restore 14
 241              		.cfi_restore 6
ARM GAS  C:\Users\chemi\AppData\Local\Temp\ccr4fFHe.s 			page 7


 242              		.cfi_restore 5
 243              		.cfi_restore 4
 244              		.cfi_def_cfa_offset 0
 245              	.LVL14:
  84:..\common\vms/VMSWrapper.c **** }
 246              		.loc 1 84 0
 247 003c FFF7FEBF 		b	VMS_returnSemaphore
 248              	.LVL15:
 249              	.L15:
 250              		.cfi_restore_state
 251 0040 70BD     		pop	{r4, r5, r6, pc}
 252              	.L24:
 253 0042 00BF     		.align	2
 254              	.L23:
 255 0044 00000000 		.word	.LANCHOR0
 256              		.cfi_endproc
 257              	.LFE72:
 258              		.size	VMSW_stopNote, .-VMSW_stopNote
 259              		.section	.text.VMSW_getSrcChannel,"ax",%progbits
 260              		.align	1
 261              		.global	VMSW_getSrcChannel
 262              		.thumb
 263              		.thumb_func
 264              		.type	VMSW_getSrcChannel, %function
 265              	VMSW_getSrcChannel:
 266              	.LFB74:
  86:..\common\vms/VMSWrapper.c **** 
  87:..\common\vms/VMSWrapper.c **** void VMSW_startNote(uint32_t output, uint32_t startBlockID, uint32_t sourceNote, uint32_t sourceCha
  88:..\common\vms/VMSWrapper.c ****     //would the note even be on after this? If not just go back without doing anything
  89:..\common\vms/VMSWrapper.c ****     if(targetFrequency == 0 || targetVolume == 0) return;
  90:..\common\vms/VMSWrapper.c ****     
  91:..\common\vms/VMSWrapper.c ****     //we also need to make sure the target frequency is not too high. VMS can only scale frequencie
  92:..\common\vms/VMSWrapper.c ****     if(targetFrequency > 100000) return;
  93:..\common\vms/VMSWrapper.c ****     
  94:..\common\vms/VMSWrapper.c ****     //TODO remove this hack once portamento works...
  95:..\common\vms/VMSWrapper.c ****     flags &= ~MAP_ENA_PORTAMENTO;
  96:..\common\vms/VMSWrapper.c ****     
  97:..\common\vms/VMSWrapper.c ****     //find voice to play the sound
  98:..\common\vms/VMSWrapper.c ****     uint32_t targetVoice = VMSW_getNextVoice(sourceNote, output, sourceChannel);
  99:..\common\vms/VMSWrapper.c ****     
 100:..\common\vms/VMSWrapper.c ****     VMS_VoiceData_t * vData = &(voiceData[output][targetVoice]);
 101:..\common\vms/VMSWrapper.c ****     
 102:..\common\vms/VMSWrapper.c ****     //yes, first remove all VMS blocks, then disable the siggen output
 103:..\common\vms/VMSWrapper.c ****     VMS_getSemaphore();
 104:..\common\vms/VMSWrapper.c ****     VMS_removeBlocksWithTargetVoice(targetVoice);
 105:..\common\vms/VMSWrapper.c ****     SigGen_setVoiceVMS(targetVoice, 0, 0, 0, 0, 0, 0, 0);
 106:..\common\vms/VMSWrapper.c ****     VMS_returnSemaphore();
 107:..\common\vms/VMSWrapper.c ****     
 108:..\common\vms/VMSWrapper.c ****     //reset voice data
 109:..\common\vms/VMSWrapper.c ****     uint32_t freqLast = vData->freqLast;
 110:..\common\vms/VMSWrapper.c ****     memset(&voiceData[output][targetVoice], 0, sizeof(VMS_VoiceData_t));
 111:..\common\vms/VMSWrapper.c ****     
 112:..\common\vms/VMSWrapper.c ****     //this is already a factor, no factor value needed. Current value <=> currentFactor
 113:..\common\vms/VMSWrapper.c ****     vData->freqLast = freqLast;
 114:..\common\vms/VMSWrapper.c ****     vData->portamentoTarget = 0;
 115:..\common\vms/VMSWrapper.c ****     vData->portamentoCurrent = (flags & MAP_ENA_PORTAMENTO) ? VMS_UNITY_FACTOR : 0;
 116:..\common\vms/VMSWrapper.c ****     
ARM GAS  C:\Users\chemi\AppData\Local\Temp\ccr4fFHe.s 			page 8


 117:..\common\vms/VMSWrapper.c ****     vData->freqTarget = targetFrequency;
 118:..\common\vms/VMSWrapper.c ****     
 119:..\common\vms/VMSWrapper.c ****     //apply frequency effects
 120:..\common\vms/VMSWrapper.c ****     uint32_t newFrequency = targetFrequency;
 121:..\common\vms/VMSWrapper.c ****     
 122:..\common\vms/VMSWrapper.c ****     //pitchbend
 123:..\common\vms/VMSWrapper.c ****     if(flags & MAP_ENA_PITCHBEND) newFrequency = MIDIPROC_SCALE_PITCHBEND(newFrequency, vData->sour
 124:..\common\vms/VMSWrapper.c ****     
 125:..\common\vms/VMSWrapper.c ****     //portamento, check if we need to apply it first though
 126:..\common\vms/VMSWrapper.c ****     if(flags & MAP_ENA_PORTAMENTO){ 
 127:..\common\vms/VMSWrapper.c ****         int32_t difference = (int32_t) freqLast - (int32_t) vData->freqTarget;
 128:..\common\vms/VMSWrapper.c ****         difference = (difference * (vData->portamentoCurrent>>6)) / 15625; 
 129:..\common\vms/VMSWrapper.c ****         newFrequency += difference;
 130:..\common\vms/VMSWrapper.c ****     }
 131:..\common\vms/VMSWrapper.c ****     
 132:..\common\vms/VMSWrapper.c ****     //and finally apply that frequency
 133:..\common\vms/VMSWrapper.c ****     vData->freqCurrent = newFrequency;
 134:..\common\vms/VMSWrapper.c ****     vData->freqFactor = 1000000;
 135:..\common\vms/VMSWrapper.c ****     
 136:..\common\vms/VMSWrapper.c ****     vData->volumeTarget = targetVolume;
 137:..\common\vms/VMSWrapper.c ****     
 138:..\common\vms/VMSWrapper.c ****     //TODO should we perhaps start this off at 0?
 139:..\common\vms/VMSWrapper.c ****     vData->onTimeTarget = targetOnTime;
 140:..\common\vms/VMSWrapper.c ****     vData->onTimeCurrent = targetOnTime;
 141:..\common\vms/VMSWrapper.c ****     vData->onTimeFactor = 1000000;
 142:..\common\vms/VMSWrapper.c ****     
 143:..\common\vms/VMSWrapper.c ****     vData->noiseTarget = 35000; //TODO make this better? idk a fixed value here might be bad especi
 144:..\common\vms/VMSWrapper.c ****     
 145:..\common\vms/VMSWrapper.c ****     vData->startTime = xTaskGetTickCount();
 146:..\common\vms/VMSWrapper.c ****     vData->sourceChannel = sourceChannel;
 147:..\common\vms/VMSWrapper.c ****     vData->sourceNote = sourceNote;
 148:..\common\vms/VMSWrapper.c ****     
 149:..\common\vms/VMSWrapper.c ****     vData->hypervoiceVolumeFactor = VMS_UNITY_FACTOR;
 150:..\common\vms/VMSWrapper.c ****     
 151:..\common\vms/VMSWrapper.c ****     //get the current volume from the factor. We need to scale this to prevent overflow :/
 152:..\common\vms/VMSWrapper.c ****     if(vData->volumeTarget == MAX_VOL){
 153:..\common\vms/VMSWrapper.c ****         //volume is max, no need to scale the volume, just write a scaled down version of the facto
 154:..\common\vms/VMSWrapper.c ****         vData->hypervoiceVolumeCurrent = vData->hypervoiceVolumeFactor >> 4; //LOSSY the axual divi
 155:..\common\vms/VMSWrapper.c ****     }else{
 156:..\common\vms/VMSWrapper.c ****         vData->hypervoiceVolumeCurrent = (((uint32_t)vData->hypervoiceVolumeFactor>>4) *  vData->vo
 157:..\common\vms/VMSWrapper.c ****     }
 158:..\common\vms/VMSWrapper.c ****     
 159:..\common\vms/VMSWrapper.c ****     vData->hypervoiceCount = 0;
 160:..\common\vms/VMSWrapper.c ****     vData->hypervoicePhase = 0;
 161:..\common\vms/VMSWrapper.c ****     
 162:..\common\vms/VMSWrapper.c ****     vData->voiceIndex = targetVoice;
 163:..\common\vms/VMSWrapper.c ****     
 164:..\common\vms/VMSWrapper.c ****     vData->flags = flags;
 165:..\common\vms/VMSWrapper.c ****     vData->baseVelocity = baseVelocity;
 166:..\common\vms/VMSWrapper.c ****     vData->baseVolume = baseVolume;
 167:..\common\vms/VMSWrapper.c ****     
 168:..\common\vms/VMSWrapper.c ****     vData->on = 1;
 169:..\common\vms/VMSWrapper.c ****     
 170:..\common\vms/VMSWrapper.c ****     VMS_getSemaphore();
 171:..\common\vms/VMSWrapper.c ****     
 172:..\common\vms/VMSWrapper.c ****     SigGen_setVoiceVMS(targetVoice, 0, 0, 0, 0, 0, 0, 0);
 173:..\common\vms/VMSWrapper.c ****     SigGen_setHyperVoiceVMS(targetVoice, 0, 0, 0, 0);
ARM GAS  C:\Users\chemi\AppData\Local\Temp\ccr4fFHe.s 			page 9


 174:..\common\vms/VMSWrapper.c ****     
 175:..\common\vms/VMSWrapper.c ****     VMS_addBlockToList(VMSW_getBlockPtr(startBlockID), output, targetVoice);
 176:..\common\vms/VMSWrapper.c ****     VMS_returnSemaphore();
 177:..\common\vms/VMSWrapper.c **** }
 178:..\common\vms/VMSWrapper.c **** 
 179:..\common\vms/VMSWrapper.c **** inline uint32_t VMSW_getSrcChannel(uint32_t output, uint32_t voice){
 267              		.loc 1 179 0
 268              		.cfi_startproc
 269              		@ args = 0, pretend = 0, frame = 0
 270              		@ frame_needed = 0, uses_anonymous_args = 0
 271              		@ link register save eliminated.
 272              	.LVL16:
 180:..\common\vms/VMSWrapper.c ****     return voiceData[output][voice].sourceChannel;
 273              		.loc 1 180 0
 274 0000 044B     		ldr	r3, .L26
 275 0002 1B68     		ldr	r3, [r3]
 276 0004 53F82020 		ldr	r2, [r3, r0, lsl #2]
 277 0008 7C23     		movs	r3, #124
 278 000a 03FB0121 		mla	r1, r3, r1, r2
 279              	.LVL17:
 181:..\common\vms/VMSWrapper.c **** }
 280              		.loc 1 181 0
 281 000e 91F86000 		ldrb	r0, [r1, #96]	@ zero_extendqisi2
 282              	.LVL18:
 283 0012 7047     		bx	lr
 284              	.L27:
 285              		.align	2
 286              	.L26:
 287 0014 00000000 		.word	.LANCHOR0
 288              		.cfi_endproc
 289              	.LFE74:
 290              		.size	VMSW_getSrcChannel, .-VMSW_getSrcChannel
 291              		.section	.text.VMSW_isVoiceOn,"ax",%progbits
 292              		.align	1
 293              		.global	VMSW_isVoiceOn
 294              		.thumb
 295              		.thumb_func
 296              		.type	VMSW_isVoiceOn, %function
 297              	VMSW_isVoiceOn:
 298              	.LFB75:
 182:..\common\vms/VMSWrapper.c **** 
 183:..\common\vms/VMSWrapper.c **** inline uint32_t VMSW_isVoiceOn(uint32_t output, uint32_t voice){
 299              		.loc 1 183 0
 300              		.cfi_startproc
 301              		@ args = 0, pretend = 0, frame = 0
 302              		@ frame_needed = 0, uses_anonymous_args = 0
 303              		@ link register save eliminated.
 304              	.LVL19:
 184:..\common\vms/VMSWrapper.c ****     return voiceData[output][voice].on;
 305              		.loc 1 184 0
 306 0000 044B     		ldr	r3, .L29
 307 0002 1B68     		ldr	r3, [r3]
 308 0004 53F82020 		ldr	r2, [r3, r0, lsl #2]
 309 0008 7C23     		movs	r3, #124
 310 000a 03FB0121 		mla	r1, r3, r1, r2
 311              	.LVL20:
 185:..\common\vms/VMSWrapper.c **** }
ARM GAS  C:\Users\chemi\AppData\Local\Temp\ccr4fFHe.s 			page 10


 312              		.loc 1 185 0
 313 000e C86C     		ldr	r0, [r1, #76]
 314              	.LVL21:
 315 0010 7047     		bx	lr
 316              	.L30:
 317 0012 00BF     		.align	2
 318              	.L29:
 319 0014 00000000 		.word	.LANCHOR0
 320              		.cfi_endproc
 321              	.LFE75:
 322              		.size	VMSW_isVoiceOn, .-VMSW_isVoiceOn
 323              		.section	.text.VMSW_isVoiceActive,"ax",%progbits
 324              		.align	1
 325              		.global	VMSW_isVoiceActive
 326              		.thumb
 327              		.thumb_func
 328              		.type	VMSW_isVoiceActive, %function
 329              	VMSW_isVoiceActive:
 330              	.LFB76:
 186:..\common\vms/VMSWrapper.c **** 
 187:..\common\vms/VMSWrapper.c **** inline uint32_t VMSW_isVoiceActive(uint32_t output, uint32_t voice){
 331              		.loc 1 187 0
 332              		.cfi_startproc
 333              		@ args = 0, pretend = 0, frame = 0
 334              		@ frame_needed = 0, uses_anonymous_args = 0
 335              		@ link register save eliminated.
 336              	.LVL22:
 188:..\common\vms/VMSWrapper.c ****     return voiceData[output][voice].volumeCurrent > 0 || voiceData[output][voice].on;
 337              		.loc 1 188 0
 338 0000 074B     		ldr	r3, .L34
 339 0002 1B68     		ldr	r3, [r3]
 340 0004 53F82020 		ldr	r2, [r3, r0, lsl #2]
 341 0008 7C23     		movs	r3, #124
 342 000a 03FB0121 		mla	r1, r3, r1, r2
 343              	.LVL23:
 344 000e 0B6A     		ldr	r3, [r1, #32]
 345 0010 23B9     		cbnz	r3, .L33
 346              		.loc 1 188 0 is_stmt 0 discriminator 2
 347 0012 C86C     		ldr	r0, [r1, #76]
 348              	.LVL24:
 349 0014 0030     		adds	r0, r0, #0
 350 0016 18BF     		it	ne
 351 0018 0120     		movne	r0, #1
 352 001a 7047     		bx	lr
 353              	.LVL25:
 354              	.L33:
 355              		.loc 1 188 0
 356 001c 0120     		movs	r0, #1
 357              	.LVL26:
 189:..\common\vms/VMSWrapper.c **** }
 358              		.loc 1 189 0 is_stmt 1
 359 001e 7047     		bx	lr
 360              	.L35:
 361              		.align	2
 362              	.L34:
 363 0020 00000000 		.word	.LANCHOR0
 364              		.cfi_endproc
ARM GAS  C:\Users\chemi\AppData\Local\Temp\ccr4fFHe.s 			page 11


 365              	.LFE76:
 366              		.size	VMSW_isVoiceActive, .-VMSW_isVoiceActive
 367              		.section	.text.VMSW_isAnyVoiceOn,"ax",%progbits
 368              		.align	1
 369              		.global	VMSW_isAnyVoiceOn
 370              		.thumb
 371              		.thumb_func
 372              		.type	VMSW_isAnyVoiceOn, %function
 373              	VMSW_isAnyVoiceOn:
 374              	.LFB77:
 190:..\common\vms/VMSWrapper.c **** 
 191:..\common\vms/VMSWrapper.c **** uint32_t VMSW_isAnyVoiceOn(){
 375              		.loc 1 191 0
 376              		.cfi_startproc
 377              		@ args = 0, pretend = 0, frame = 0
 378              		@ frame_needed = 0, uses_anonymous_args = 0
 379              		@ link register save eliminated.
 380              	.LVL27:
 381              	.LBB7:
 382              	.LBB8:
 192:..\common\vms/VMSWrapper.c ****     for(uint32_t j = 0; j < SIGGEN_OUTPUTCOUNT; j++){
 193:..\common\vms/VMSWrapper.c ****         for(uint32_t i = 0; i < SIGGEN_VOICECOUNT; i++){
 194:..\common\vms/VMSWrapper.c ****             if(voiceData[j][i].on > 0) return 1;
 383              		.loc 1 194 0
 384 0000 064B     		ldr	r3, .L41
 385 0002 1B68     		ldr	r3, [r3]
 386 0004 1B68     		ldr	r3, [r3]
 387 0006 03F53A72 		add	r2, r3, #744
 388              	.L38:
 389 000a D86C     		ldr	r0, [r3, #76]
 390 000c 18B9     		cbnz	r0, .L39
 391              	.LVL28:
 392 000e 7C33     		adds	r3, r3, #124
 193:..\common\vms/VMSWrapper.c ****             if(voiceData[j][i].on > 0) return 1;
 393              		.loc 1 193 0 discriminator 2
 394 0010 9342     		cmp	r3, r2
 395 0012 FAD1     		bne	.L38
 396 0014 7047     		bx	lr
 397              	.L39:
 398              		.loc 1 194 0
 399 0016 0120     		movs	r0, #1
 400              	.LBE8:
 401              	.LBE7:
 195:..\common\vms/VMSWrapper.c ****         }
 196:..\common\vms/VMSWrapper.c ****     }
 197:..\common\vms/VMSWrapper.c ****     return 0;
 198:..\common\vms/VMSWrapper.c **** }
 402              		.loc 1 198 0
 403 0018 7047     		bx	lr
 404              	.L42:
 405 001a 00BF     		.align	2
 406              	.L41:
 407 001c 00000000 		.word	.LANCHOR0
 408              		.cfi_endproc
 409              	.LFE77:
 410              		.size	VMSW_isAnyVoiceOn, .-VMSW_isAnyVoiceOn
 411              		.section	.text.VMSW_getBlockPtr,"ax",%progbits
ARM GAS  C:\Users\chemi\AppData\Local\Temp\ccr4fFHe.s 			page 12


 412              		.align	1
 413              		.global	VMSW_getBlockPtr
 414              		.thumb
 415              		.thumb_func
 416              		.type	VMSW_getBlockPtr, %function
 417              	VMSW_getBlockPtr:
 418              	.LFB78:
 199:..\common\vms/VMSWrapper.c **** 
 200:..\common\vms/VMSWrapper.c **** inline const VMS_Block_t * VMSW_getBlockPtr(uint32_t index){
 419              		.loc 1 200 0
 420              		.cfi_startproc
 421              		@ args = 0, pretend = 0, frame = 0
 422              		@ frame_needed = 0, uses_anonymous_args = 0
 423              	.LVL29:
 424 0000 38B5     		push	{r3, r4, r5, lr}
 425              		.cfi_def_cfa_offset 16
 426              		.cfi_offset 3, -16
 427              		.cfi_offset 4, -12
 428              		.cfi_offset 5, -8
 429              		.cfi_offset 14, -4
 201:..\common\vms/VMSWrapper.c ****     if(index == VMS_BLOCKID_DEFATTACK) return &VMS_DEFAULT_ATTAC;
 430              		.loc 1 201 0
 431 0002 4FF6F073 		movw	r3, #65520
 432 0006 9842     		cmp	r0, r3
 433 0008 19D0     		beq	.L47
 202:..\common\vms/VMSWrapper.c ****     if(index == VMS_BLOCKID_DEFSUSTAIN) return &VMS_DEFAULT_SUSTAIN;
 434              		.loc 1 202 0
 435 000a 4FF6F173 		movw	r3, #65521
 436 000e 9842     		cmp	r0, r3
 437 0010 17D0     		beq	.L48
 203:..\common\vms/VMSWrapper.c ****     if(index == VMS_BLOCKID_DEFRELEASE) return &VMS_DEFAULT_RELEASE;
 438              		.loc 1 203 0
 439 0012 4FF6F273 		movw	r3, #65522
 440 0016 9842     		cmp	r0, r3
 441 0018 15D0     		beq	.L49
 204:..\common\vms/VMSWrapper.c ****     
 205:..\common\vms/VMSWrapper.c ****     if(index >= blockMemBlockCount) return NULL;
 442              		.loc 1 205 0
 443 001a B0F5DC7F 		cmp	r0, #440
 444 001e 01D9     		bls	.L45
 445              	.LVL30:
 446              	.L46:
 447 0020 0020     		movs	r0, #0
 448 0022 38BD     		pop	{r3, r4, r5, pc}
 449              	.LVL31:
 450              	.L45:
 451              	.LBB11:
 452              	.LBB12:
 206:..\common\vms/VMSWrapper.c ****     
 207:..\common\vms/VMSWrapper.c ****     if(!VMS_isBlockValid(&NVM_blocks[index])) return NULL;
 453              		.loc 1 207 0
 454 0024 2623     		movs	r3, #38
 455 0026 03FB00F4 		mul	r4, r3, r0
 456 002a 084D     		ldr	r5, .L53
 457 002c 2868     		ldr	r0, [r5]
 458              	.LVL32:
 459 002e 2044     		add	r0, r0, r4
ARM GAS  C:\Users\chemi\AppData\Local\Temp\ccr4fFHe.s 			page 13


 460 0030 FFF7FEFF 		bl	VMS_isBlockValid
 461              	.LVL33:
 462 0034 0028     		cmp	r0, #0
 463 0036 F3D0     		beq	.L46
 208:..\common\vms/VMSWrapper.c ****     
 209:..\common\vms/VMSWrapper.c ****     //TODO readd block list pointer to nvm... it just makes things easier :3
 210:..\common\vms/VMSWrapper.c ****     return &NVM_blocks[index];
 464              		.loc 1 210 0
 465 0038 2868     		ldr	r0, [r5]
 466 003a 2044     		add	r0, r0, r4
 467 003c 38BD     		pop	{r3, r4, r5, pc}
 468              	.LVL34:
 469              	.L47:
 470              	.LBE12:
 471              	.LBE11:
 201:..\common\vms/VMSWrapper.c ****     if(index == VMS_BLOCKID_DEFSUSTAIN) return &VMS_DEFAULT_SUSTAIN;
 472              		.loc 1 201 0
 473 003e 0448     		ldr	r0, .L53+4
 474              	.LVL35:
 475 0040 38BD     		pop	{r3, r4, r5, pc}
 476              	.LVL36:
 477              	.L48:
 202:..\common\vms/VMSWrapper.c ****     if(index == VMS_BLOCKID_DEFRELEASE) return &VMS_DEFAULT_RELEASE;
 478              		.loc 1 202 0
 479 0042 0448     		ldr	r0, .L53+8
 480              	.LVL37:
 481 0044 38BD     		pop	{r3, r4, r5, pc}
 482              	.LVL38:
 483              	.L49:
 203:..\common\vms/VMSWrapper.c ****     
 484              		.loc 1 203 0
 485 0046 0448     		ldr	r0, .L53+12
 486              	.LVL39:
 211:..\common\vms/VMSWrapper.c **** }
 487              		.loc 1 211 0
 488 0048 38BD     		pop	{r3, r4, r5, pc}
 489              	.L54:
 490 004a 00BF     		.align	2
 491              	.L53:
 492 004c 00000000 		.word	NVM_blocks
 493 0050 00000000 		.word	VMS_DEFAULT_ATTAC
 494 0054 00000000 		.word	VMS_DEFAULT_SUSTAIN
 495 0058 00000000 		.word	VMS_DEFAULT_RELEASE
 496              		.cfi_endproc
 497              	.LFE78:
 498              		.size	VMSW_getBlockPtr, .-VMSW_getBlockPtr
 499              		.section	.text.VMSW_startNote,"ax",%progbits
 500              		.align	1
 501              		.global	VMSW_startNote
 502              		.thumb
 503              		.thumb_func
 504              		.type	VMSW_startNote, %function
 505              	VMSW_startNote:
 506              	.LFB73:
  87:..\common\vms/VMSWrapper.c ****     //would the note even be on after this? If not just go back without doing anything
 507              		.loc 1 87 0
 508              		.cfi_startproc
ARM GAS  C:\Users\chemi\AppData\Local\Temp\ccr4fFHe.s 			page 14


 509              		@ args = 24, pretend = 0, frame = 48
 510              		@ frame_needed = 0, uses_anonymous_args = 0
 511              	.LVL40:
 512 0000 2DE9F04F 		push	{r4, r5, r6, r7, r8, r9, r10, fp, lr}
 513              		.cfi_def_cfa_offset 36
 514              		.cfi_offset 4, -36
 515              		.cfi_offset 5, -32
 516              		.cfi_offset 6, -28
 517              		.cfi_offset 7, -24
 518              		.cfi_offset 8, -20
 519              		.cfi_offset 9, -16
 520              		.cfi_offset 10, -12
 521              		.cfi_offset 11, -8
 522              		.cfi_offset 14, -4
 523 0004 91B0     		sub	sp, sp, #68
 524              		.cfi_def_cfa_offset 104
  87:..\common\vms/VMSWrapper.c ****     //would the note even be on after this? If not just go back without doing anything
 525              		.loc 1 87 0
 526 0006 0C93     		str	r3, [sp, #48]
 527 0008 1A9B     		ldr	r3, [sp, #104]
 528              	.LVL41:
 529 000a 1C9F     		ldr	r7, [sp, #112]
 530 000c 0593     		str	r3, [sp, #20]
 531 000e 1B9B     		ldr	r3, [sp, #108]
 532 0010 0B92     		str	r2, [sp, #44]
 533 0012 0693     		str	r3, [sp, #24]
 534 0014 1D9B     		ldr	r3, [sp, #116]
  89:..\common\vms/VMSWrapper.c ****     
 535              		.loc 1 89 0
 536 0016 7A1E     		subs	r2, r7, #1
 537              	.LVL42:
  87:..\common\vms/VMSWrapper.c ****     //would the note even be on after this? If not just go back without doing anything
 538              		.loc 1 87 0
 539 0018 0793     		str	r3, [sp, #28]
 540 001a 1E9B     		ldr	r3, [sp, #120]
 541 001c 8046     		mov	r8, r0
 542 001e 0D93     		str	r3, [sp, #52]
 543 0020 1F9B     		ldr	r3, [sp, #124]
 544 0022 0A91     		str	r1, [sp, #40]
 545 0024 0E93     		str	r3, [sp, #56]
  89:..\common\vms/VMSWrapper.c ****     
 546              		.loc 1 89 0
 547 0026 5F4B     		ldr	r3, .L75
 548 0028 9A42     		cmp	r2, r3
 549 002a 00F2B880 		bhi	.L55
  89:..\common\vms/VMSWrapper.c ****     
 550              		.loc 1 89 0 is_stmt 0 discriminator 1
 551 002e 069B     		ldr	r3, [sp, #24]
 552 0030 002B     		cmp	r3, #0
 553 0032 00F0B480 		beq	.L55
  95:..\common\vms/VMSWrapper.c ****     
 554              		.loc 1 95 0 is_stmt 1
 555 0036 079B     		ldr	r3, [sp, #28]
 556 0038 0024     		movs	r4, #0
 557 003a 23F00803 		bic	r3, r3, #8
 558 003e 0993     		str	r3, [sp, #36]
 559              	.LVL43:
ARM GAS  C:\Users\chemi\AppData\Local\Temp\ccr4fFHe.s 			page 15


 560              	.L58:
 561              	.LBB18:
 562              	.LBB19:
 563              	.LBB20:
 212:..\common\vms/VMSWrapper.c **** 
 213:..\common\vms/VMSWrapper.c **** int32_t VMSW_getKnownValue(KNOWN_VALUE ID, uint32_t output, uint32_t voiceId){
 214:..\common\vms/VMSWrapper.c ****     //UART_print("get %d\r\n", ID);
 215:..\common\vms/VMSWrapper.c ****     switch(ID){
 216:..\common\vms/VMSWrapper.c ****         case maxOnTime:
 217:..\common\vms/VMSWrapper.c ****             return configuration.max_tr_pw;
 218:..\common\vms/VMSWrapper.c ****         case minOnTime:
 219:..\common\vms/VMSWrapper.c ****             return 0;
 220:..\common\vms/VMSWrapper.c ****         
 221:..\common\vms/VMSWrapper.c ****         case otCurrent:
 222:..\common\vms/VMSWrapper.c ****             return voiceData[output][voiceId].onTimeCurrent;
 223:..\common\vms/VMSWrapper.c ****         case otTarget:
 224:..\common\vms/VMSWrapper.c ****             return voiceData[output][voiceId].onTimeTarget;
 225:..\common\vms/VMSWrapper.c ****         case otFactor:
 226:..\common\vms/VMSWrapper.c ****             return voiceData[output][voiceId].onTimeFactor;
 227:..\common\vms/VMSWrapper.c ****             
 228:..\common\vms/VMSWrapper.c ****         case volumeCurrent:
 229:..\common\vms/VMSWrapper.c ****             return voiceData[output][voiceId].volumeCurrent;
 230:..\common\vms/VMSWrapper.c ****         case volumeTarget:
 231:..\common\vms/VMSWrapper.c ****             return voiceData[output][voiceId].volumeTarget;
 232:..\common\vms/VMSWrapper.c ****         case volumeFactor:
 233:..\common\vms/VMSWrapper.c ****             return voiceData[output][voiceId].volumeFactor;
 234:..\common\vms/VMSWrapper.c ****             
 235:..\common\vms/VMSWrapper.c ****         case freqCurrent:
 236:..\common\vms/VMSWrapper.c ****             return voiceData[output][voiceId].freqCurrent;
 237:..\common\vms/VMSWrapper.c ****         case freqTarget:
 238:..\common\vms/VMSWrapper.c ****             return voiceData[output][voiceId].freqTarget;
 239:..\common\vms/VMSWrapper.c ****         case freqFactor:
 240:..\common\vms/VMSWrapper.c ****             return voiceData[output][voiceId].freqFactor;
 241:..\common\vms/VMSWrapper.c ****         case pTime:
 242:..\common\vms/VMSWrapper.c ****             //TODO!
 243:..\common\vms/VMSWrapper.c ****             return 0;
 244:..\common\vms/VMSWrapper.c ****             
 245:..\common\vms/VMSWrapper.c ****         case circ1 ... circ4:
 246:..\common\vms/VMSWrapper.c ****             return voiceData[output][voiceId].circ[ID - circ1];
 247:..\common\vms/VMSWrapper.c ****             
 248:..\common\vms/VMSWrapper.c ****         case HyperVoice_Volume:
 249:..\common\vms/VMSWrapper.c ****             return voiceData[output][voiceId].hypervoiceVolumeFactor;
 250:..\common\vms/VMSWrapper.c ****             
 251:..\common\vms/VMSWrapper.c ****         case HyperVoice_Count:
 252:..\common\vms/VMSWrapper.c ****             return voiceData[output][voiceId].hypervoiceCount;
 253:..\common\vms/VMSWrapper.c ****             
 254:..\common\vms/VMSWrapper.c ****         case HyperVoice_Phase:
 255:..\common\vms/VMSWrapper.c ****             return voiceData[output][voiceId].hypervoicePhase;  //TODO? map to 0 - 0xff
 256:..\common\vms/VMSWrapper.c ****             
 257:..\common\vms/VMSWrapper.c ****         case CC_102 ... CC_119:
 258:..\common\vms/VMSWrapper.c ****             return MidiProcessor_getCCValue(VMSW_getSrcChannel(output, voiceId), ID - CC_102);
 259:..\common\vms/VMSWrapper.c ****         default:
 260:..\common\vms/VMSWrapper.c ****             return 0;
 261:..\common\vms/VMSWrapper.c ****     }
 262:..\common\vms/VMSWrapper.c ****     return 0;
 263:..\common\vms/VMSWrapper.c **** }
 264:..\common\vms/VMSWrapper.c **** 
ARM GAS  C:\Users\chemi\AppData\Local\Temp\ccr4fFHe.s 			page 16


 265:..\common\vms/VMSWrapper.c **** void VMSW_setKnownValue(KNOWN_VALUE ID, int32_t value, uint32_t output, uint32_t voiceId){
 266:..\common\vms/VMSWrapper.c ****     //precalculate voice data pointer, as this might be repeated multiple times in the following co
 267:..\common\vms/VMSWrapper.c ****     VMS_VoiceData_t * vData = &(voiceData[output][voiceId]);
 268:..\common\vms/VMSWrapper.c ****     
 269:..\common\vms/VMSWrapper.c ****     switch(ID){
 270:..\common\vms/VMSWrapper.c ****         //all other values can't be written by VMS
 271:..\common\vms/VMSWrapper.c ****         default:
 272:..\common\vms/VMSWrapper.c ****             return;
 273:..\common\vms/VMSWrapper.c ****             
 274:..\common\vms/VMSWrapper.c ****         case onTime:
 275:..\common\vms/VMSWrapper.c ****             //update volume. ontime is no longer used up until the very last stage
 276:..\common\vms/VMSWrapper.c ****             vData->onTimeFactor = value;
 277:..\common\vms/VMSWrapper.c ****             
 278:..\common\vms/VMSWrapper.c ****             vData->onTimeCurrent = (((uint32_t)value>>4) *  vData->onTimeTarget) / 62500; //62500 =
 279:..\common\vms/VMSWrapper.c ****             
 280:..\common\vms/VMSWrapper.c ****             //update siggen values
 281:..\common\vms/VMSWrapper.c ****             //TODO implement burst into VMS?
 282:..\common\vms/VMSWrapper.c ****             //TODO add custom hypervoice pulsewidth?
 283:..\common\vms/VMSWrapper.c ****             SigGen_setVoiceVMS(voiceId, 1, vData->onTimeCurrent, vData->volumeCurrent, vData->freqC
 284:..\common\vms/VMSWrapper.c ****             if(vData->hypervoiceCount > 0) SigGen_setHyperVoiceVMS(voiceId, vData->hypervoiceCount 
 285:..\common\vms/VMSWrapper.c ****             break;
 286:..\common\vms/VMSWrapper.c ****             
 287:..\common\vms/VMSWrapper.c ****             break;
 288:..\common\vms/VMSWrapper.c ****         
 289:..\common\vms/VMSWrapper.c ****         case volume:
 290:..\common\vms/VMSWrapper.c ****             //update volume. ontime is no longer used up until the very last stage
 291:..\common\vms/VMSWrapper.c ****             vData->volumeFactor = value;
 292:..\common\vms/VMSWrapper.c ****             
 293:..\common\vms/VMSWrapper.c ****             //get the current volume from the factor. We need to scale this to prevent overflow :/
 294:..\common\vms/VMSWrapper.c ****             if(vData->volumeTarget == MAX_VOL){
 295:..\common\vms/VMSWrapper.c ****                 //volume is max, no need to scale the volume, just write a scaled down version of t
 296:..\common\vms/VMSWrapper.c ****                 vData->volumeCurrent = value >> 4; //LOSSY the axual divisor should be 15.258...
 297:..\common\vms/VMSWrapper.c ****             }else{
 298:..\common\vms/VMSWrapper.c ****             }
 299:..\common\vms/VMSWrapper.c ****             
 300:..\common\vms/VMSWrapper.c ****             if(vData->volumeFactor == 1000000){
 301:..\common\vms/VMSWrapper.c ****                 vData->volumeCurrent = vData->volumeTarget; //62500 = 1000000 >> 4
 302:..\common\vms/VMSWrapper.c ****             }else{
 303:..\common\vms/VMSWrapper.c ****                 vData->volumeCurrent = (((uint32_t)value>>4) *  vData->volumeTarget) / 62500; //625
 304:..\common\vms/VMSWrapper.c ****             }
 305:..\common\vms/VMSWrapper.c ****             
 306:..\common\vms/VMSWrapper.c ****             //is hypervoice enabled? If so also update its volume
 307:..\common\vms/VMSWrapper.c ****             if(vData->hypervoiceCount > 0){
 308:..\common\vms/VMSWrapper.c ****                 //get the current volume from the factor. We need to scale this to prevent overflow
 309:..\common\vms/VMSWrapper.c ****                 
 310:..\common\vms/VMSWrapper.c ****                 if(vData->hypervoiceVolumeFactor == 1000000){
 311:..\common\vms/VMSWrapper.c ****                     //volume is max, no need to scale the volume, just write a scaled down version 
 312:..\common\vms/VMSWrapper.c ****                     vData->hypervoiceVolumeCurrent = vData->volumeCurrent; //LOSSY the axual diviso
 313:..\common\vms/VMSWrapper.c ****                 }else{
 314:..\common\vms/VMSWrapper.c ****                     vData->hypervoiceVolumeCurrent = (((uint32_t)vData->hypervoiceVolumeFactor>>4) 
 315:..\common\vms/VMSWrapper.c ****                 }
 316:..\common\vms/VMSWrapper.c ****                 
 317:..\common\vms/VMSWrapper.c ****                 SigGen_setHyperVoiceVMS(voiceId, vData->hypervoiceCount / 1000000, vData->onTimeCur
 318:..\common\vms/VMSWrapper.c ****             }
 319:..\common\vms/VMSWrapper.c ****             
 320:..\common\vms/VMSWrapper.c ****             //update siggen values
 321:..\common\vms/VMSWrapper.c ****             SigGen_setVoiceVMS(voiceId, 1, vData->onTimeCurrent, vData->volumeCurrent, vData->freqC
ARM GAS  C:\Users\chemi\AppData\Local\Temp\ccr4fFHe.s 			page 17


 322:..\common\vms/VMSWrapper.c ****             break;
 323:..\common\vms/VMSWrapper.c ****             
 324:..\common\vms/VMSWrapper.c ****         case freqCurrent:
 325:..\common\vms/VMSWrapper.c ****             vData->freqCurrent = value;
 326:..\common\vms/VMSWrapper.c ****             break;
 327:..\common\vms/VMSWrapper.c ****             
 328:..\common\vms/VMSWrapper.c ****         case frequency:
 329:..\common\vms/VMSWrapper.c ****             vData->freqFactor = value;
 330:..\common\vms/VMSWrapper.c ****             
 331:..\common\vms/VMSWrapper.c ****             //calculate current frequency
 332:..\common\vms/VMSWrapper.c ****             uint32_t newFrequency = vData->freqTarget;
 333:..\common\vms/VMSWrapper.c ****             
 334:..\common\vms/VMSWrapper.c ****             //apply frequency effects
 335:..\common\vms/VMSWrapper.c ****             
 336:..\common\vms/VMSWrapper.c ****             //pitchbend
 337:..\common\vms/VMSWrapper.c ****             
 338:..\common\vms/VMSWrapper.c ****             if(vData->flags & MAP_ENA_PITCHBEND) newFrequency = MIDIPROC_SCALE_PITCHBEND(newFrequen
 339:..\common\vms/VMSWrapper.c ****             
 340:..\common\vms/VMSWrapper.c ****             //portamento, check if we need to apply it first though
 341:..\common\vms/VMSWrapper.c ****             if(vData->portamentoCurrent != 0){ 
 342:..\common\vms/VMSWrapper.c ****                 int32_t difference = (int32_t) vData->freqLast - (int32_t) vData->freqTarget;
 343:..\common\vms/VMSWrapper.c ****                 difference = (difference * (vData->portamentoCurrent>>6)) / 15625; 
 344:..\common\vms/VMSWrapper.c ****                 newFrequency += difference;
 345:..\common\vms/VMSWrapper.c ****             }
 346:..\common\vms/VMSWrapper.c ****             
 347:..\common\vms/VMSWrapper.c ****             //and finally, the currentfreqFactor
 348:..\common\vms/VMSWrapper.c ****             if(value != 1000000) newFrequency = (newFrequency * (value>>6)) / 15625;
 349:..\common\vms/VMSWrapper.c ****             
 350:..\common\vms/VMSWrapper.c ****             vData->freqCurrent = newFrequency;
 351:..\common\vms/VMSWrapper.c ****             
 352:..\common\vms/VMSWrapper.c ****             SigGen_setVoiceVMS(voiceId, 1, vData->onTimeCurrent, vData->volumeCurrent, vData->freqC
 353:..\common\vms/VMSWrapper.c ****             break;
 354:..\common\vms/VMSWrapper.c ****             
 355:..\common\vms/VMSWrapper.c ****         case noise:
 356:..\common\vms/VMSWrapper.c ****             vData->noiseFactor = value;
 357:..\common\vms/VMSWrapper.c ****             vData->noiseCurrent = (((uint32_t)value>>4) *  vData->noiseTarget) / 62500; //62500 = 1
 358:..\common\vms/VMSWrapper.c ****             
 359:..\common\vms/VMSWrapper.c ****             SigGen_setVoiceVMS(voiceId, 1, vData->onTimeCurrent, vData->volumeCurrent, vData->freqC
 360:..\common\vms/VMSWrapper.c ****             break;
 361:..\common\vms/VMSWrapper.c ****             
 362:..\common\vms/VMSWrapper.c ****         case circ1 ... circ4:
 363:..\common\vms/VMSWrapper.c ****             vData->circ[ID - circ1] = value;
 364:..\common\vms/VMSWrapper.c ****             break;
 365:..\common\vms/VMSWrapper.c **** 
 366:..\common\vms/VMSWrapper.c ****         case HyperVoice_Count:
 367:..\common\vms/VMSWrapper.c ****             vData->hypervoiceCount = value;
 368:..\common\vms/VMSWrapper.c ****             
 369:..\common\vms/VMSWrapper.c ****             SigGen_setHyperVoiceVMS(voiceId, vData->hypervoiceCount / 1000000, vData->onTimeCurrent
 370:..\common\vms/VMSWrapper.c ****             break;
 371:..\common\vms/VMSWrapper.c **** 
 372:..\common\vms/VMSWrapper.c ****         case HyperVoice_Volume:
 373:..\common\vms/VMSWrapper.c ****             vData->hypervoiceVolumeFactor = value;
 374:..\common\vms/VMSWrapper.c ****             
 375:..\common\vms/VMSWrapper.c ****             //get the current volume from the factor. We need to scale this to prevent overflow :/
 376:..\common\vms/VMSWrapper.c ****             if(vData->hypervoiceVolumeFactor == 1000000){
 377:..\common\vms/VMSWrapper.c ****                 //volume is max, no need to scale the volume, just write a scaled down version of t
 378:..\common\vms/VMSWrapper.c ****                 vData->hypervoiceVolumeCurrent = vData->volumeCurrent; //LOSSY the axual divisor sh
ARM GAS  C:\Users\chemi\AppData\Local\Temp\ccr4fFHe.s 			page 18


 379:..\common\vms/VMSWrapper.c ****             }else{
 380:..\common\vms/VMSWrapper.c ****                 vData->hypervoiceVolumeCurrent = (((uint32_t)value>>4) *  vData->volumeCurrent) / 6
 381:..\common\vms/VMSWrapper.c ****             }
 382:..\common\vms/VMSWrapper.c ****             
 383:..\common\vms/VMSWrapper.c ****             SigGen_setHyperVoiceVMS(voiceId, vData->hypervoiceCount / 1000000, vData->onTimeCurrent
 384:..\common\vms/VMSWrapper.c ****             break;
 385:..\common\vms/VMSWrapper.c ****             
 386:..\common\vms/VMSWrapper.c ****         case HyperVoice_Phase:
 387:..\common\vms/VMSWrapper.c ****             vData->hypervoicePhase = value;  //map to 0 - 0xff
 388:..\common\vms/VMSWrapper.c ****             
 389:..\common\vms/VMSWrapper.c ****             SigGen_setHyperVoiceVMS(voiceId, vData->hypervoiceCount / 1000000, vData->onTimeCurrent
 390:..\common\vms/VMSWrapper.c ****             break;
 391:..\common\vms/VMSWrapper.c ****     }
 392:..\common\vms/VMSWrapper.c **** }
 393:..\common\vms/VMSWrapper.c **** 
 394:..\common\vms/VMSWrapper.c **** int32_t VMSW_getCurrentFactor(KNOWN_VALUE ID, uint32_t output, uint32_t voiceId){
 395:..\common\vms/VMSWrapper.c ****     switch(ID){
 396:..\common\vms/VMSWrapper.c ****         default:
 397:..\common\vms/VMSWrapper.c ****             return 0;
 398:..\common\vms/VMSWrapper.c ****         case onTime:
 399:..\common\vms/VMSWrapper.c ****             return voiceData[output][voiceId].onTimeFactor;
 400:..\common\vms/VMSWrapper.c ****         case volume:
 401:..\common\vms/VMSWrapper.c ****             return voiceData[output][voiceId].volumeFactor;
 402:..\common\vms/VMSWrapper.c ****         case frequency:
 403:..\common\vms/VMSWrapper.c ****             return voiceData[output][voiceId].freqFactor;
 404:..\common\vms/VMSWrapper.c ****         case noise:
 405:..\common\vms/VMSWrapper.c ****             return voiceData[output][voiceId].noiseFactor;
 406:..\common\vms/VMSWrapper.c ****             
 407:..\common\vms/VMSWrapper.c ****         case circ1 ... circ4:
 408:..\common\vms/VMSWrapper.c ****             return voiceData[output][voiceId].circ[ID - circ1];
 409:..\common\vms/VMSWrapper.c ****             
 410:..\common\vms/VMSWrapper.c ****         case HyperVoice_Count:
 411:..\common\vms/VMSWrapper.c ****             return voiceData[output][voiceId].hypervoiceCount;
 412:..\common\vms/VMSWrapper.c ****         case HyperVoice_Volume:
 413:..\common\vms/VMSWrapper.c ****             return voiceData[output][voiceId].hypervoiceVolumeFactor;
 414:..\common\vms/VMSWrapper.c ****         case HyperVoice_Phase:
 415:..\common\vms/VMSWrapper.c ****             return voiceData[output][voiceId].hypervoicePhase;
 416:..\common\vms/VMSWrapper.c ****     }
 417:..\common\vms/VMSWrapper.c ****     return 0;
 418:..\common\vms/VMSWrapper.c **** }
 419:..\common\vms/VMSWrapper.c **** 
 420:..\common\vms/VMSWrapper.c **** static uint32_t VMSW_getNextVoice(uint32_t note, uint32_t output, uint32_t channel){
 421:..\common\vms/VMSWrapper.c ****     //find the best matching voice to play the next note. Going through criteriums best to worst
 422:..\common\vms/VMSWrapper.c ****     
 423:..\common\vms/VMSWrapper.c ****     /*//is any note decaying that already was already playing this note before?
 424:..\common\vms/VMSWrapper.c ****     for(uint8_t currVoice = 0; currVoice < SIGGEN_VOICECOUNT; currVoice++){
 425:..\common\vms/VMSWrapper.c ****         if(!voiceData[currVoice].on && voiceData[currVoice].sourceNote == note){
 426:..\common\vms/VMSWrapper.c ****             return currVoice;
 427:..\common\vms/VMSWrapper.c ****         }
 428:..\common\vms/VMSWrapper.c ****     }*/
 429:..\common\vms/VMSWrapper.c ****     
 430:..\common\vms/VMSWrapper.c ****     //is any voice completely off at the moment?
 431:..\common\vms/VMSWrapper.c ****     for(uint8_t currVoice = 0; currVoice < SIGGEN_VOICECOUNT; currVoice++){
 432:..\common\vms/VMSWrapper.c ****         if(!VMSW_isVoiceActive(output, currVoice)){
 564              		.loc 1 432 0
 565 0040 2146     		mov	r1, r4
 566 0042 4046     		mov	r0, r8
ARM GAS  C:\Users\chemi\AppData\Local\Temp\ccr4fFHe.s 			page 19


 567 0044 2546     		mov	r5, r4
 568 0046 FFF7FEFF 		bl	VMSW_isVoiceActive
 569              	.LVL44:
 570 004a F0B1     		cbz	r0, .L57
 571              	.LVL45:
 572 004c 0134     		adds	r4, r4, #1
 573              	.LVL46:
 431:..\common\vms/VMSWrapper.c ****         if(!VMSW_isVoiceActive(output, currVoice)){
 574              		.loc 1 431 0
 575 004e 062C     		cmp	r4, #6
 576 0050 F6D1     		bne	.L58
 577              	.LBE20:
 578              	.LBB21:
 579              	.LBB22:
 433:..\common\vms/VMSWrapper.c ****             return currVoice;
 434:..\common\vms/VMSWrapper.c ****         }
 435:..\common\vms/VMSWrapper.c ****     }
 436:..\common\vms/VMSWrapper.c ****     
 437:..\common\vms/VMSWrapper.c ****     //Find the oldest voice to kill
 438:..\common\vms/VMSWrapper.c ****     uint32_t oldestAge = 0;
 439:..\common\vms/VMSWrapper.c ****     uint32_t oldestVoice = 0;
 440:..\common\vms/VMSWrapper.c ****     for(uint8_t currVoice = 0; currVoice < SIGGEN_VOICECOUNT; currVoice++){
 441:..\common\vms/VMSWrapper.c ****         uint32_t currNoteAge = xTaskGetTickCount() - voiceData[output][currVoice].startTime;
 580              		.loc 1 441 0
 581 0052 0024     		movs	r4, #0
 582 0054 2546     		mov	r5, r4
 583 0056 2646     		mov	r6, r4
 584 0058 DFF850A1 		ldr	r10, .L75+8
 585 005c 4FEA8809 		lsl	r9, r8, #2
 586 0060 4FF07C0B 		mov	fp, #124
 587              	.L60:
 588              	.LVL47:
 589 0064 FFF7FEFF 		bl	xTaskGetTickCount
 590              	.LVL48:
 591 0068 DAF80030 		ldr	r3, [r10]
 592 006c 53F80930 		ldr	r3, [r3, r9]
 593 0070 0BFB0433 		mla	r3, fp, r4, r3
 594 0074 DB6D     		ldr	r3, [r3, #92]
 595 0076 C01A     		subs	r0, r0, r3
 596              	.LVL49:
 442:..\common\vms/VMSWrapper.c ****         if(currNoteAge > oldestAge){ 
 597              		.loc 1 442 0
 598 0078 B042     		cmp	r0, r6
 443:..\common\vms/VMSWrapper.c ****             oldestAge = currNoteAge;
 444:..\common\vms/VMSWrapper.c ****             oldestVoice = currVoice;
 599              		.loc 1 444 0
 600 007a 88BF     		it	hi
 601 007c 2546     		movhi	r5, r4
 602 007e 04F10104 		add	r4, r4, #1
 603              	.LVL50:
 442:..\common\vms/VMSWrapper.c ****         if(currNoteAge > oldestAge){ 
 604              		.loc 1 442 0
 605 0082 88BF     		it	hi
 606 0084 0646     		movhi	r6, r0
 607              	.LVL51:
 608              	.LBE22:
 440:..\common\vms/VMSWrapper.c ****         uint32_t currNoteAge = xTaskGetTickCount() - voiceData[output][currVoice].startTime;
ARM GAS  C:\Users\chemi\AppData\Local\Temp\ccr4fFHe.s 			page 20


 609              		.loc 1 440 0
 610 0086 062C     		cmp	r4, #6
 611 0088 ECD1     		bne	.L60
 612              	.LVL52:
 613              	.L57:
 614              	.LBE21:
 615              	.LBE19:
 616              	.LBE18:
 100:..\common\vms/VMSWrapper.c ****     
 617              		.loc 1 100 0
 618 008a DFF820B1 		ldr	fp, .L75+8
 619 008e 4FF07C0A 		mov	r10, #124
 620 0092 0AFB05F9 		mul	r9, r10, r5
 621 0096 DBF80030 		ldr	r3, [fp]
 105:..\common\vms/VMSWrapper.c ****     VMS_returnSemaphore();
 622              		.loc 1 105 0
 623 009a 0026     		movs	r6, #0
 100:..\common\vms/VMSWrapper.c ****     
 624              		.loc 1 100 0
 625 009c 53F82830 		ldr	r3, [r3, r8, lsl #2]
 626 00a0 03EB0904 		add	r4, r3, r9
 627              	.LVL53:
 628 00a4 0893     		str	r3, [sp, #32]
 103:..\common\vms/VMSWrapper.c ****     VMS_removeBlocksWithTargetVoice(targetVoice);
 629              		.loc 1 103 0
 630 00a6 FFF7FEFF 		bl	VMS_getSemaphore
 631              	.LVL54:
 104:..\common\vms/VMSWrapper.c ****     SigGen_setVoiceVMS(targetVoice, 0, 0, 0, 0, 0, 0, 0);
 632              		.loc 1 104 0
 633 00aa 2846     		mov	r0, r5
 634 00ac FFF7FEFF 		bl	VMS_removeBlocksWithTargetVoice
 635              	.LVL55:
 105:..\common\vms/VMSWrapper.c ****     VMS_returnSemaphore();
 636              		.loc 1 105 0
 637 00b0 3346     		mov	r3, r6
 638 00b2 3246     		mov	r2, r6
 639 00b4 3146     		mov	r1, r6
 640 00b6 2846     		mov	r0, r5
 641 00b8 0396     		str	r6, [sp, #12]
 642 00ba 0296     		str	r6, [sp, #8]
 643 00bc 0196     		str	r6, [sp, #4]
 644 00be 0096     		str	r6, [sp]
 645 00c0 FFF7FEFF 		bl	SigGen_setVoiceVMS
 646              	.LVL56:
 106:..\common\vms/VMSWrapper.c ****     
 647              		.loc 1 106 0
 648 00c4 FFF7FEFF 		bl	VMS_returnSemaphore
 649              	.LVL57:
 110:..\common\vms/VMSWrapper.c ****     
 650              		.loc 1 110 0
 651 00c8 DBF80020 		ldr	r2, [fp]
 109:..\common\vms/VMSWrapper.c ****     memset(&voiceData[output][targetVoice], 0, sizeof(VMS_VoiceData_t));
 652              		.loc 1 109 0
 653 00cc E368     		ldr	r3, [r4, #12]
 110:..\common\vms/VMSWrapper.c ****     
 654              		.loc 1 110 0
 655 00ce 52F82800 		ldr	r0, [r2, r8, lsl #2]
ARM GAS  C:\Users\chemi\AppData\Local\Temp\ccr4fFHe.s 			page 21


 656 00d2 3146     		mov	r1, r6
 657 00d4 5246     		mov	r2, r10
 658 00d6 4844     		add	r0, r0, r9
 109:..\common\vms/VMSWrapper.c ****     memset(&voiceData[output][targetVoice], 0, sizeof(VMS_VoiceData_t));
 659              		.loc 1 109 0
 660 00d8 0F93     		str	r3, [sp, #60]
 661              	.LVL58:
 110:..\common\vms/VMSWrapper.c ****     
 662              		.loc 1 110 0
 663 00da FFF7FEFF 		bl	memset
 664              	.LVL59:
 113:..\common\vms/VMSWrapper.c ****     vData->portamentoTarget = 0;
 665              		.loc 1 113 0
 666 00de 0F9B     		ldr	r3, [sp, #60]
 114:..\common\vms/VMSWrapper.c ****     vData->portamentoCurrent = (flags & MAP_ENA_PORTAMENTO) ? VMS_UNITY_FACTOR : 0;
 667              		.loc 1 114 0
 668 00e0 6664     		str	r6, [r4, #68]
 113:..\common\vms/VMSWrapper.c ****     vData->portamentoTarget = 0;
 669              		.loc 1 113 0
 670 00e2 E360     		str	r3, [r4, #12]
 117:..\common\vms/VMSWrapper.c ****     
 671              		.loc 1 117 0
 672 00e4 089B     		ldr	r3, [sp, #32]
 115:..\common\vms/VMSWrapper.c ****     
 673              		.loc 1 115 0
 674 00e6 A664     		str	r6, [r4, #72]
 117:..\common\vms/VMSWrapper.c ****     
 675              		.loc 1 117 0
 676 00e8 43F80970 		str	r7, [r3, r9]
 677              	.LVL60:
 123:..\common\vms/VMSWrapper.c ****     
 678              		.loc 1 123 0
 679 00ec 079B     		ldr	r3, [sp, #28]
 680              	.LVL61:
 681 00ee 1B06     		lsls	r3, r3, #24
 682 00f0 05D5     		bpl	.L61
 683              	.LVL62:
 123:..\common\vms/VMSWrapper.c ****     
 684              		.loc 1 123 0 is_stmt 0 discriminator 1
 685 00f2 94F86000 		ldrb	r0, [r4, #96]	@ zero_extendqisi2
 686 00f6 FFF7FEFF 		bl	MidiProcessor_getBendFactor
 687              	.LVL63:
 688 00fa 7843     		muls	r0, r7, r0
 689 00fc 470B     		lsrs	r7, r0, #13
 690              	.LVL64:
 691              	.L61:
 136:..\common\vms/VMSWrapper.c ****     
 692              		.loc 1 136 0 is_stmt 1
 693 00fe 069B     		ldr	r3, [sp, #24]
 134:..\common\vms/VMSWrapper.c ****     
 694              		.loc 1 134 0
 695 0100 294E     		ldr	r6, .L75+4
 136:..\common\vms/VMSWrapper.c ****     
 696              		.loc 1 136 0
 697 0102 E361     		str	r3, [r4, #28]
 139:..\common\vms/VMSWrapper.c ****     vData->onTimeCurrent = targetOnTime;
 698              		.loc 1 139 0
ARM GAS  C:\Users\chemi\AppData\Local\Temp\ccr4fFHe.s 			page 22


 699 0104 059B     		ldr	r3, [sp, #20]
 134:..\common\vms/VMSWrapper.c ****     
 700              		.loc 1 134 0
 701 0106 A660     		str	r6, [r4, #8]
 139:..\common\vms/VMSWrapper.c ****     vData->onTimeCurrent = targetOnTime;
 702              		.loc 1 139 0
 703 0108 2361     		str	r3, [r4, #16]
 140:..\common\vms/VMSWrapper.c ****     vData->onTimeFactor = 1000000;
 704              		.loc 1 140 0
 705 010a 6361     		str	r3, [r4, #20]
 143:..\common\vms/VMSWrapper.c ****     
 706              		.loc 1 143 0
 707 010c 48F6B803 		movw	r3, #35000
 141:..\common\vms/VMSWrapper.c ****     
 708              		.loc 1 141 0
 709 0110 A661     		str	r6, [r4, #24]
 143:..\common\vms/VMSWrapper.c ****     
 710              		.loc 1 143 0
 711 0112 A362     		str	r3, [r4, #40]
 133:..\common\vms/VMSWrapper.c ****     vData->freqFactor = 1000000;
 712              		.loc 1 133 0
 713 0114 6760     		str	r7, [r4, #4]
 145:..\common\vms/VMSWrapper.c ****     vData->sourceChannel = sourceChannel;
 714              		.loc 1 145 0
 715 0116 FFF7FEFF 		bl	xTaskGetTickCount
 716              	.LVL65:
 152:..\common\vms/VMSWrapper.c ****         //volume is max, no need to scale the volume, just write a scaled down version of the facto
 717              		.loc 1 152 0
 718 011a 47F6FF72 		movw	r2, #32767
 146:..\common\vms/VMSWrapper.c ****     vData->sourceNote = sourceNote;
 719              		.loc 1 146 0
 720 011e 9DF83030 		ldrb	r3, [sp, #48]	@ zero_extendqisi2
 149:..\common\vms/VMSWrapper.c ****     
 721              		.loc 1 149 0
 722 0122 A663     		str	r6, [r4, #56]
 146:..\common\vms/VMSWrapper.c ****     vData->sourceNote = sourceNote;
 723              		.loc 1 146 0
 724 0124 84F86030 		strb	r3, [r4, #96]
 147:..\common\vms/VMSWrapper.c ****     
 725              		.loc 1 147 0
 726 0128 9DF82C30 		ldrb	r3, [sp, #44]	@ zero_extendqisi2
 159:..\common\vms/VMSWrapper.c ****     vData->hypervoicePhase = 0;
 727              		.loc 1 159 0
 728 012c 0026     		movs	r6, #0
 147:..\common\vms/VMSWrapper.c ****     
 729              		.loc 1 147 0
 730 012e 84F86130 		strb	r3, [r4, #97]
 152:..\common\vms/VMSWrapper.c ****         //volume is max, no need to scale the volume, just write a scaled down version of the facto
 731              		.loc 1 152 0
 732 0132 E369     		ldr	r3, [r4, #28]
 145:..\common\vms/VMSWrapper.c ****     vData->sourceChannel = sourceChannel;
 733              		.loc 1 145 0
 734 0134 E065     		str	r0, [r4, #92]
 152:..\common\vms/VMSWrapper.c ****         //volume is max, no need to scale the volume, just write a scaled down version of the facto
 735              		.loc 1 152 0
 736 0136 9342     		cmp	r3, r2
 737 0138 4FF22442 		movw	r2, #62500
ARM GAS  C:\Users\chemi\AppData\Local\Temp\ccr4fFHe.s 			page 23


 156:..\common\vms/VMSWrapper.c ****     }
 738              		.loc 1 156 0
 739 013c 1EBF     		ittt	ne
 740 013e 5343     		mulne	r3, r2, r3
 741 0140 B3FBF2F3 		udivne	r3, r3, r2
 742 0144 E363     		strne	r3, [r4, #60]
 164:..\common\vms/VMSWrapper.c ****     vData->baseVelocity = baseVelocity;
 743              		.loc 1 164 0
 744 0146 099B     		ldr	r3, [sp, #36]
 154:..\common\vms/VMSWrapper.c ****     }else{
 745              		.loc 1 154 0
 746 0148 08BF     		it	eq
 747 014a E263     		streq	r2, [r4, #60]
 164:..\common\vms/VMSWrapper.c ****     vData->baseVelocity = baseVelocity;
 748              		.loc 1 164 0
 749 014c 2365     		str	r3, [r4, #80]
 165:..\common\vms/VMSWrapper.c ****     vData->baseVolume = baseVolume;
 750              		.loc 1 165 0
 751 014e 0E9B     		ldr	r3, [sp, #56]
 159:..\common\vms/VMSWrapper.c ****     vData->hypervoicePhase = 0;
 752              		.loc 1 159 0
 753 0150 6663     		str	r6, [r4, #52]
 165:..\common\vms/VMSWrapper.c ****     vData->baseVolume = baseVolume;
 754              		.loc 1 165 0
 755 0152 A365     		str	r3, [r4, #88]
 166:..\common\vms/VMSWrapper.c ****     
 756              		.loc 1 166 0
 757 0154 0D9B     		ldr	r3, [sp, #52]
 160:..\common\vms/VMSWrapper.c ****     
 758              		.loc 1 160 0
 759 0156 2664     		str	r6, [r4, #64]
 166:..\common\vms/VMSWrapper.c ****     
 760              		.loc 1 166 0
 761 0158 6365     		str	r3, [r4, #84]
 168:..\common\vms/VMSWrapper.c ****     
 762              		.loc 1 168 0
 763 015a 0123     		movs	r3, #1
 764 015c E364     		str	r3, [r4, #76]
 162:..\common\vms/VMSWrapper.c ****     
 765              		.loc 1 162 0
 766 015e A567     		str	r5, [r4, #120]
 170:..\common\vms/VMSWrapper.c ****     
 767              		.loc 1 170 0
 768 0160 FFF7FEFF 		bl	VMS_getSemaphore
 769              	.LVL66:
 172:..\common\vms/VMSWrapper.c ****     SigGen_setHyperVoiceVMS(targetVoice, 0, 0, 0, 0);
 770              		.loc 1 172 0
 771 0164 3346     		mov	r3, r6
 772 0166 3246     		mov	r2, r6
 773 0168 3146     		mov	r1, r6
 774 016a 2846     		mov	r0, r5
 775 016c 0396     		str	r6, [sp, #12]
 776 016e 0296     		str	r6, [sp, #8]
 777 0170 0196     		str	r6, [sp, #4]
 778 0172 0096     		str	r6, [sp]
 779 0174 FFF7FEFF 		bl	SigGen_setVoiceVMS
 780              	.LVL67:
ARM GAS  C:\Users\chemi\AppData\Local\Temp\ccr4fFHe.s 			page 24


 173:..\common\vms/VMSWrapper.c ****     
 781              		.loc 1 173 0
 782 0178 3346     		mov	r3, r6
 783 017a 3246     		mov	r2, r6
 784 017c 3146     		mov	r1, r6
 785 017e 2846     		mov	r0, r5
 786 0180 0096     		str	r6, [sp]
 787 0182 FFF7FEFF 		bl	SigGen_setHyperVoiceVMS
 788              	.LVL68:
 175:..\common\vms/VMSWrapper.c ****     VMS_returnSemaphore();
 789              		.loc 1 175 0
 790 0186 0A98     		ldr	r0, [sp, #40]
 791 0188 FFF7FEFF 		bl	VMSW_getBlockPtr
 792              	.LVL69:
 793 018c 2A46     		mov	r2, r5
 794 018e 4146     		mov	r1, r8
 795 0190 FFF7FEFF 		bl	VMS_addBlockToList
 796              	.LVL70:
 177:..\common\vms/VMSWrapper.c **** 
 797              		.loc 1 177 0
 798 0194 11B0     		add	sp, sp, #68
 799              		.cfi_remember_state
 800              		.cfi_def_cfa_offset 36
 801              		@ sp needed
 802 0196 BDE8F04F 		pop	{r4, r5, r6, r7, r8, r9, r10, fp, lr}
 803              		.cfi_restore 14
 804              		.cfi_restore 11
 805              		.cfi_restore 10
 806              		.cfi_restore 9
 807              		.cfi_restore 8
 808              		.cfi_restore 7
 809              		.cfi_restore 6
 810              		.cfi_restore 5
 811              		.cfi_restore 4
 812              		.cfi_def_cfa_offset 0
 813              	.LVL71:
 176:..\common\vms/VMSWrapper.c **** }
 814              		.loc 1 176 0
 815 019a FFF7FEBF 		b	VMS_returnSemaphore
 816              	.LVL72:
 817              	.L55:
 818              		.cfi_restore_state
 177:..\common\vms/VMSWrapper.c **** 
 819              		.loc 1 177 0
 820 019e 11B0     		add	sp, sp, #68
 821              		.cfi_def_cfa_offset 36
 822              		@ sp needed
 823 01a0 BDE8F08F 		pop	{r4, r5, r6, r7, r8, r9, r10, fp, pc}
 824              	.LVL73:
 825              	.L76:
 826              		.align	2
 827              	.L75:
 828 01a4 9F860100 		.word	99999
 829 01a8 40420F00 		.word	1000000
 830 01ac 00000000 		.word	.LANCHOR0
 831              		.cfi_endproc
 832              	.LFE73:
ARM GAS  C:\Users\chemi\AppData\Local\Temp\ccr4fFHe.s 			page 25


 833              		.size	VMSW_startNote, .-VMSW_startNote
 834              		.section	.text.VMSW_getKnownValue,"ax",%progbits
 835              		.align	1
 836              		.global	VMSW_getKnownValue
 837              		.thumb
 838              		.thumb_func
 839              		.type	VMSW_getKnownValue, %function
 840              	VMSW_getKnownValue:
 841              	.LFB79:
 213:..\common\vms/VMSWrapper.c ****     //UART_print("get %d\r\n", ID);
 842              		.loc 1 213 0
 843              		.cfi_startproc
 844              		@ args = 0, pretend = 0, frame = 0
 845              		@ frame_needed = 0, uses_anonymous_args = 0
 846              	.LVL74:
 847 0000 10B5     		push	{r4, lr}
 848              		.cfi_def_cfa_offset 8
 849              		.cfi_offset 4, -8
 850              		.cfi_offset 14, -4
 213:..\common\vms/VMSWrapper.c ****     //UART_print("get %d\r\n", ID);
 851              		.loc 1 213 0
 852 0002 0446     		mov	r4, r0
 853 0004 0846     		mov	r0, r1
 854              	.LVL75:
 855 0006 1146     		mov	r1, r2
 856              	.LVL76:
 215:..\common\vms/VMSWrapper.c ****         case maxOnTime:
 857              		.loc 1 215 0
 858 0008 282C     		cmp	r4, #40
 859 000a 00F29780 		bhi	.L95
 860 000e DFE804F0 		tbb	[pc, r4]
 861              	.L80:
 862 0012 15       		.byte	(.L79-.L80)/2
 863 0013 95       		.byte	(.L95-.L80)/2
 864 0014 95       		.byte	(.L95-.L80)/2
 865 0015 18       		.byte	(.L81-.L80)/2
 866 0016 21       		.byte	(.L82-.L80)/2
 867 0017 2A       		.byte	(.L83-.L80)/2
 868 0018 95       		.byte	(.L95-.L80)/2
 869 0019 4E       		.byte	(.L84-.L80)/2
 870 001a 57       		.byte	(.L85-.L80)/2
 871 001b 5F       		.byte	(.L86-.L80)/2
 872 001c 95       		.byte	(.L95-.L80)/2
 873 001d 95       		.byte	(.L95-.L80)/2
 874 001e 68       		.byte	(.L87-.L80)/2
 875 001f 68       		.byte	(.L87-.L80)/2
 876 0020 68       		.byte	(.L87-.L80)/2
 877 0021 68       		.byte	(.L87-.L80)/2
 878 0022 8D       		.byte	(.L88-.L80)/2
 879 0023 8D       		.byte	(.L88-.L80)/2
 880 0024 8D       		.byte	(.L88-.L80)/2
 881 0025 8D       		.byte	(.L88-.L80)/2
 882 0026 8D       		.byte	(.L88-.L80)/2
 883 0027 8D       		.byte	(.L88-.L80)/2
 884 0028 8D       		.byte	(.L88-.L80)/2
 885 0029 8D       		.byte	(.L88-.L80)/2
 886 002a 8D       		.byte	(.L88-.L80)/2
ARM GAS  C:\Users\chemi\AppData\Local\Temp\ccr4fFHe.s 			page 26


 887 002b 8D       		.byte	(.L88-.L80)/2
 888 002c 8D       		.byte	(.L88-.L80)/2
 889 002d 8D       		.byte	(.L88-.L80)/2
 890 002e 8D       		.byte	(.L88-.L80)/2
 891 002f 8D       		.byte	(.L88-.L80)/2
 892 0030 8D       		.byte	(.L88-.L80)/2
 893 0031 8D       		.byte	(.L88-.L80)/2
 894 0032 8D       		.byte	(.L88-.L80)/2
 895 0033 8D       		.byte	(.L88-.L80)/2
 896 0034 7B       		.byte	(.L89-.L80)/2
 897 0035 84       		.byte	(.L90-.L80)/2
 898 0036 72       		.byte	(.L91-.L80)/2
 899 0037 95       		.byte	(.L95-.L80)/2
 900 0038 33       		.byte	(.L92-.L80)/2
 901 0039 3C       		.byte	(.L93-.L80)/2
 902 003a 45       		.byte	(.L94-.L80)/2
 903 003b 00       		.p2align 1
 904              	.L79:
 217:..\common\vms/VMSWrapper.c ****         case minOnTime:
 905              		.loc 1 217 0
 906 003c 404B     		ldr	r3, .L97
 907 003e 9888     		ldrh	r0, [r3, #4]
 908              	.LVL77:
 909 0040 10BD     		pop	{r4, pc}
 910              	.LVL78:
 911              	.L81:
 222:..\common\vms/VMSWrapper.c ****         case otTarget:
 912              		.loc 1 222 0
 913 0042 404B     		ldr	r3, .L97+4
 914 0044 1B68     		ldr	r3, [r3]
 915 0046 53F82020 		ldr	r2, [r3, r0, lsl #2]
 916              	.LVL79:
 917 004a 7C23     		movs	r3, #124
 918 004c 03FB0121 		mla	r1, r3, r1, r2
 919              	.LVL80:
 920 0050 4869     		ldr	r0, [r1, #20]
 921              	.LVL81:
 922 0052 10BD     		pop	{r4, pc}
 923              	.LVL82:
 924              	.L82:
 224:..\common\vms/VMSWrapper.c ****         case otFactor:
 925              		.loc 1 224 0
 926 0054 3B4B     		ldr	r3, .L97+4
 927 0056 1B68     		ldr	r3, [r3]
 928 0058 53F82020 		ldr	r2, [r3, r0, lsl #2]
 929 005c 7C23     		movs	r3, #124
 930 005e 03FB0121 		mla	r1, r3, r1, r2
 931              	.LVL83:
 932 0062 0869     		ldr	r0, [r1, #16]
 933              	.LVL84:
 934 0064 10BD     		pop	{r4, pc}
 935              	.LVL85:
 936              	.L83:
 226:..\common\vms/VMSWrapper.c ****             
 937              		.loc 1 226 0
 938 0066 374B     		ldr	r3, .L97+4
 939 0068 1B68     		ldr	r3, [r3]
ARM GAS  C:\Users\chemi\AppData\Local\Temp\ccr4fFHe.s 			page 27


 940 006a 53F82020 		ldr	r2, [r3, r0, lsl #2]
 941 006e 7C23     		movs	r3, #124
 942 0070 03FB0121 		mla	r1, r3, r1, r2
 943              	.LVL86:
 944 0074 8869     		ldr	r0, [r1, #24]
 945              	.LVL87:
 946 0076 10BD     		pop	{r4, pc}
 947              	.LVL88:
 948              	.L92:
 229:..\common\vms/VMSWrapper.c ****         case volumeTarget:
 949              		.loc 1 229 0
 950 0078 324B     		ldr	r3, .L97+4
 951 007a 1B68     		ldr	r3, [r3]
 952 007c 53F82020 		ldr	r2, [r3, r0, lsl #2]
 953 0080 7C23     		movs	r3, #124
 954 0082 03FB0121 		mla	r1, r3, r1, r2
 955              	.LVL89:
 956 0086 086A     		ldr	r0, [r1, #32]
 957              	.LVL90:
 958 0088 10BD     		pop	{r4, pc}
 959              	.LVL91:
 960              	.L93:
 231:..\common\vms/VMSWrapper.c ****         case volumeFactor:
 961              		.loc 1 231 0
 962 008a 2E4B     		ldr	r3, .L97+4
 963 008c 1B68     		ldr	r3, [r3]
 964 008e 53F82020 		ldr	r2, [r3, r0, lsl #2]
 965 0092 7C23     		movs	r3, #124
 966 0094 03FB0121 		mla	r1, r3, r1, r2
 967              	.LVL92:
 968 0098 C869     		ldr	r0, [r1, #28]
 969              	.LVL93:
 970 009a 10BD     		pop	{r4, pc}
 971              	.LVL94:
 972              	.L94:
 233:..\common\vms/VMSWrapper.c ****             
 973              		.loc 1 233 0
 974 009c 294B     		ldr	r3, .L97+4
 975 009e 1B68     		ldr	r3, [r3]
 976 00a0 53F82020 		ldr	r2, [r3, r0, lsl #2]
 977 00a4 7C23     		movs	r3, #124
 978 00a6 03FB0121 		mla	r1, r3, r1, r2
 979              	.LVL95:
 980 00aa 486A     		ldr	r0, [r1, #36]
 981              	.LVL96:
 982 00ac 10BD     		pop	{r4, pc}
 983              	.LVL97:
 984              	.L84:
 236:..\common\vms/VMSWrapper.c ****         case freqTarget:
 985              		.loc 1 236 0
 986 00ae 254B     		ldr	r3, .L97+4
 987 00b0 1B68     		ldr	r3, [r3]
 988 00b2 53F82020 		ldr	r2, [r3, r0, lsl #2]
 989 00b6 7C23     		movs	r3, #124
 990 00b8 03FB0121 		mla	r1, r3, r1, r2
 991              	.LVL98:
 992 00bc 4868     		ldr	r0, [r1, #4]
ARM GAS  C:\Users\chemi\AppData\Local\Temp\ccr4fFHe.s 			page 28


 993              	.LVL99:
 994 00be 10BD     		pop	{r4, pc}
 995              	.LVL100:
 996              	.L85:
 238:..\common\vms/VMSWrapper.c ****         case freqFactor:
 997              		.loc 1 238 0
 998 00c0 204B     		ldr	r3, .L97+4
 999 00c2 7C22     		movs	r2, #124
 1000 00c4 1B68     		ldr	r3, [r3]
 1001 00c6 5143     		muls	r1, r2, r1
 1002              	.LVL101:
 1003 00c8 53F82030 		ldr	r3, [r3, r0, lsl #2]
 1004 00cc 5858     		ldr	r0, [r3, r1]
 1005              	.LVL102:
 1006 00ce 10BD     		pop	{r4, pc}
 1007              	.LVL103:
 1008              	.L86:
 240:..\common\vms/VMSWrapper.c ****         case pTime:
 1009              		.loc 1 240 0
 1010 00d0 1C4B     		ldr	r3, .L97+4
 1011 00d2 1B68     		ldr	r3, [r3]
 1012 00d4 53F82020 		ldr	r2, [r3, r0, lsl #2]
 1013 00d8 7C23     		movs	r3, #124
 1014 00da 03FB0121 		mla	r1, r3, r1, r2
 1015              	.LVL104:
 1016 00de 8868     		ldr	r0, [r1, #8]
 1017              	.LVL105:
 1018 00e0 10BD     		pop	{r4, pc}
 1019              	.LVL106:
 1020              	.L87:
 246:..\common\vms/VMSWrapper.c ****             
 1021              		.loc 1 246 0
 1022 00e2 184B     		ldr	r3, .L97+4
 1023 00e4 1B68     		ldr	r3, [r3]
 1024 00e6 53F82020 		ldr	r2, [r3, r0, lsl #2]
 1025 00ea 7C23     		movs	r3, #124
 1026 00ec 03FB0121 		mla	r1, r3, r1, r2
 1027              	.LVL107:
 1028 00f0 01EB8401 		add	r1, r1, r4, lsl #2
 1029 00f4 0FE0     		b	.L96
 1030              	.LVL108:
 1031              	.L91:
 249:..\common\vms/VMSWrapper.c ****             
 1032              		.loc 1 249 0
 1033 00f6 134B     		ldr	r3, .L97+4
 1034 00f8 1B68     		ldr	r3, [r3]
 1035 00fa 53F82020 		ldr	r2, [r3, r0, lsl #2]
 1036 00fe 7C23     		movs	r3, #124
 1037 0100 03FB0121 		mla	r1, r3, r1, r2
 1038              	.LVL109:
 1039 0104 886B     		ldr	r0, [r1, #56]
 1040              	.LVL110:
 1041 0106 10BD     		pop	{r4, pc}
 1042              	.LVL111:
 1043              	.L89:
 252:..\common\vms/VMSWrapper.c ****             
 1044              		.loc 1 252 0
ARM GAS  C:\Users\chemi\AppData\Local\Temp\ccr4fFHe.s 			page 29


 1045 0108 0E4B     		ldr	r3, .L97+4
 1046 010a 1B68     		ldr	r3, [r3]
 1047 010c 53F82020 		ldr	r2, [r3, r0, lsl #2]
 1048 0110 7C23     		movs	r3, #124
 1049 0112 03FB0121 		mla	r1, r3, r1, r2
 1050              	.LVL112:
 1051              	.L96:
 1052 0116 486B     		ldr	r0, [r1, #52]
 1053              	.LVL113:
 1054 0118 10BD     		pop	{r4, pc}
 1055              	.LVL114:
 1056              	.L90:
 255:..\common\vms/VMSWrapper.c ****             
 1057              		.loc 1 255 0
 1058 011a 0A4B     		ldr	r3, .L97+4
 1059 011c 1B68     		ldr	r3, [r3]
 1060 011e 53F82020 		ldr	r2, [r3, r0, lsl #2]
 1061 0122 7C23     		movs	r3, #124
 1062 0124 03FB0121 		mla	r1, r3, r1, r2
 1063              	.LVL115:
 1064 0128 086C     		ldr	r0, [r1, #64]
 1065              	.LVL116:
 1066 012a 10BD     		pop	{r4, pc}
 1067              	.LVL117:
 1068              	.L88:
 258:..\common\vms/VMSWrapper.c ****         default:
 1069              		.loc 1 258 0
 1070 012c FFF7FEFF 		bl	VMSW_getSrcChannel
 1071              	.LVL118:
 1072 0130 A4F11001 		sub	r1, r4, #16
 263:..\common\vms/VMSWrapper.c **** 
 1073              		.loc 1 263 0
 1074 0134 BDE81040 		pop	{r4, lr}
 1075              		.cfi_remember_state
 1076              		.cfi_restore 14
 1077              		.cfi_restore 4
 1078              		.cfi_def_cfa_offset 0
 258:..\common\vms/VMSWrapper.c ****         default:
 1079              		.loc 1 258 0
 1080 0138 FFF7FEBF 		b	MidiProcessor_getCCValue
 1081              	.LVL119:
 1082              	.L95:
 1083              		.cfi_restore_state
 219:..\common\vms/VMSWrapper.c ****         
 1084              		.loc 1 219 0
 1085 013c 0020     		movs	r0, #0
 1086              	.LVL120:
 263:..\common\vms/VMSWrapper.c **** 
 1087              		.loc 1 263 0
 1088 013e 10BD     		pop	{r4, pc}
 1089              	.L98:
 1090              		.align	2
 1091              	.L97:
 1092 0140 00000000 		.word	configuration
 1093 0144 00000000 		.word	.LANCHOR0
 1094              		.cfi_endproc
 1095              	.LFE79:
ARM GAS  C:\Users\chemi\AppData\Local\Temp\ccr4fFHe.s 			page 30


 1096              		.size	VMSW_getKnownValue, .-VMSW_getKnownValue
 1097              		.section	.text.VMSW_setKnownValue,"ax",%progbits
 1098              		.align	1
 1099              		.global	VMSW_setKnownValue
 1100              		.thumb
 1101              		.thumb_func
 1102              		.type	VMSW_setKnownValue, %function
 1103              	VMSW_setKnownValue:
 1104              	.LFB80:
 265:..\common\vms/VMSWrapper.c ****     //precalculate voice data pointer, as this might be repeated multiple times in the following co
 1105              		.loc 1 265 0
 1106              		.cfi_startproc
 1107              		@ args = 0, pretend = 0, frame = 0
 1108              		@ frame_needed = 0, uses_anonymous_args = 0
 1109              	.LVL121:
 1110 0000 2DE9F043 		push	{r4, r5, r6, r7, r8, r9, lr}
 1111              		.cfi_def_cfa_offset 28
 1112              		.cfi_offset 4, -28
 1113              		.cfi_offset 5, -24
 1114              		.cfi_offset 6, -20
 1115              		.cfi_offset 7, -16
 1116              		.cfi_offset 8, -12
 1117              		.cfi_offset 9, -8
 1118              		.cfi_offset 14, -4
 1119 0004 1F46     		mov	r7, r3
 267:..\common\vms/VMSWrapper.c ****     
 1120              		.loc 1 267 0
 1121 0006 7F4B     		ldr	r3, .L143
 1122              	.LVL122:
 1123 0008 4FF07C08 		mov	r8, #124
 1124 000c 1B68     		ldr	r3, [r3]
 1125 000e 08FB07F8 		mul	r8, r8, r7
 1126 0012 53F82290 		ldr	r9, [r3, r2, lsl #2]
 269:..\common\vms/VMSWrapper.c ****         //all other values can't be written by VMS
 1127              		.loc 1 269 0
 1128 0016 0F28     		cmp	r0, #15
 265:..\common\vms/VMSWrapper.c ****     //precalculate voice data pointer, as this might be repeated multiple times in the following co
 1129              		.loc 1 265 0
 1130 0018 85B0     		sub	sp, sp, #20
 1131              		.cfi_def_cfa_offset 48
 265:..\common\vms/VMSWrapper.c ****     //precalculate voice data pointer, as this might be repeated multiple times in the following co
 1132              		.loc 1 265 0
 1133 001a 0D46     		mov	r5, r1
 267:..\common\vms/VMSWrapper.c ****     
 1134              		.loc 1 267 0
 1135 001c 09EB0804 		add	r4, r9, r8
 1136              	.LVL123:
 269:..\common\vms/VMSWrapper.c ****         //all other values can't be written by VMS
 1137              		.loc 1 269 0
 1138 0020 1DD8     		bhi	.L101
 1139 0022 0C28     		cmp	r0, #12
 1140 0024 80F0C280 		bcs	.L102
 1141 0028 0628     		cmp	r0, #6
 1142 002a 00F08C80 		beq	.L103
 1143 002e 02D8     		bhi	.L104
 1144 0030 0228     		cmp	r0, #2
 1145 0032 2ED0     		beq	.L105
ARM GAS  C:\Users\chemi\AppData\Local\Temp\ccr4fFHe.s 			page 31


 1146 0034 E3E0     		b	.L99
 1147              	.L104:
 1148 0036 0728     		cmp	r0, #7
 1149 0038 00F08380 		beq	.L106
 1150 003c 0A28     		cmp	r0, #10
 1151 003e 40F0DE80 		bne	.L99
 1152              	.LBB23:
 357:..\common\vms/VMSWrapper.c ****             
 1153              		.loc 1 357 0
 1154 0042 A36A     		ldr	r3, [r4, #40]
 1155 0044 0D09     		lsrs	r5, r1, #4
 1156 0046 6B43     		muls	r3, r5, r3
 1157 0048 4FF22445 		movw	r5, #62500
 1158 004c B3FBF5F5 		udiv	r5, r3, r5
 359:..\common\vms/VMSWrapper.c ****             break;
 1159              		.loc 1 359 0
 1160 0050 0023     		movs	r3, #0
 356:..\common\vms/VMSWrapper.c ****             vData->noiseCurrent = (((uint32_t)value>>4) *  vData->noiseTarget) / 62500; //62500 = 1
 1161              		.loc 1 356 0
 1162 0052 2163     		str	r1, [r4, #48]
 357:..\common\vms/VMSWrapper.c ****             
 1163              		.loc 1 357 0
 1164 0054 E562     		str	r5, [r4, #44]
 359:..\common\vms/VMSWrapper.c ****             break;
 1165              		.loc 1 359 0
 1166 0056 0393     		str	r3, [sp, #12]
 1167 0058 0293     		str	r3, [sp, #8]
 1168 005a 0195     		str	r5, [sp, #4]
 1169 005c 9DE0     		b	.L141
 1170              	.L101:
 1171              	.LBE23:
 269:..\common\vms/VMSWrapper.c ****         //all other values can't be written by VMS
 1172              		.loc 1 269 0
 1173 005e 2328     		cmp	r0, #35
 1174 0060 00F0BE80 		beq	.L108
 1175 0064 0FD8     		bhi	.L109
 1176 0066 2228     		cmp	r0, #34
 1177 0068 40F0C980 		bne	.L99
 1178              	.LBB25:
 369:..\common\vms/VMSWrapper.c ****             break;
 1179              		.loc 1 369 0
 1180 006c 40F2D132 		movw	r2, #977
 1181              	.LVL124:
 1182 0070 236C     		ldr	r3, [r4, #64]
 367:..\common\vms/VMSWrapper.c ****             
 1183              		.loc 1 367 0
 1184 0072 6163     		str	r1, [r4, #52]
 369:..\common\vms/VMSWrapper.c ****             break;
 1185              		.loc 1 369 0
 1186 0074 B3FBF2F3 		udiv	r3, r3, r2
 1187 0078 6349     		ldr	r1, .L143+4
 1188              	.LVL125:
 1189 007a 0093     		str	r3, [sp]
 1190 007c E36B     		ldr	r3, [r4, #60]
 1191 007e 6269     		ldr	r2, [r4, #20]
 1192 0080 B5FBF1F1 		udiv	r1, r5, r1
 1193 0084 B8E0     		b	.L139
ARM GAS  C:\Users\chemi\AppData\Local\Temp\ccr4fFHe.s 			page 32


 1194              	.LVL126:
 1195              	.L109:
 1196              	.LBE25:
 269:..\common\vms/VMSWrapper.c ****         //all other values can't be written by VMS
 1197              		.loc 1 269 0
 1198 0086 2428     		cmp	r0, #36
 1199 0088 00F09480 		beq	.L111
 1200 008c 2528     		cmp	r0, #37
 1201 008e 25D0     		beq	.L112
 1202 0090 B5E0     		b	.L99
 1203              	.L105:
 1204              	.LBB26:
 278:..\common\vms/VMSWrapper.c ****             
 1205              		.loc 1 278 0
 1206 0092 2369     		ldr	r3, [r4, #16]
 1207 0094 0A09     		lsrs	r2, r1, #4
 1208              	.LVL127:
 1209 0096 5343     		muls	r3, r2, r3
 1210 0098 4FF22442 		movw	r2, #62500
 1211 009c B3FBF2F2 		udiv	r2, r3, r2
 283:..\common\vms/VMSWrapper.c ****             if(vData->hypervoiceCount > 0) SigGen_setHyperVoiceVMS(voiceId, vData->hypervoiceCount 
 1212              		.loc 1 283 0
 1213 00a0 0023     		movs	r3, #0
 276:..\common\vms/VMSWrapper.c ****             
 1214              		.loc 1 276 0
 1215 00a2 A161     		str	r1, [r4, #24]
 278:..\common\vms/VMSWrapper.c ****             
 1216              		.loc 1 278 0
 1217 00a4 6261     		str	r2, [r4, #20]
 283:..\common\vms/VMSWrapper.c ****             if(vData->hypervoiceCount > 0) SigGen_setHyperVoiceVMS(voiceId, vData->hypervoiceCount 
 1218              		.loc 1 283 0
 1219 00a6 0393     		str	r3, [sp, #12]
 1220 00a8 0293     		str	r3, [sp, #8]
 1221 00aa E36A     		ldr	r3, [r4, #44]
 1222 00ac 0121     		movs	r1, #1
 1223              	.LVL128:
 1224 00ae 0193     		str	r3, [sp, #4]
 1225 00b0 6368     		ldr	r3, [r4, #4]
 1226 00b2 3846     		mov	r0, r7
 1227              	.LVL129:
 1228 00b4 0093     		str	r3, [sp]
 1229 00b6 236A     		ldr	r3, [r4, #32]
 1230 00b8 FFF7FEFF 		bl	SigGen_setVoiceVMS
 1231              	.LVL130:
 284:..\common\vms/VMSWrapper.c ****             break;
 1232              		.loc 1 284 0
 1233 00bc 616B     		ldr	r1, [r4, #52]
 1234 00be 0029     		cmp	r1, #0
 1235 00c0 00F09D80 		beq	.L99
 284:..\common\vms/VMSWrapper.c ****             break;
 1236              		.loc 1 284 0 is_stmt 0 discriminator 1
 1237 00c4 40F2D132 		movw	r2, #977
 1238 00c8 236C     		ldr	r3, [r4, #64]
 1239 00ca 4F48     		ldr	r0, .L143+4
 1240 00cc B3FBF2F3 		udiv	r3, r3, r2
 1241 00d0 0093     		str	r3, [sp]
 1242 00d2 E36B     		ldr	r3, [r4, #60]
ARM GAS  C:\Users\chemi\AppData\Local\Temp\ccr4fFHe.s 			page 33


 1243 00d4 6269     		ldr	r2, [r4, #20]
 1244 00d6 B1FBF0F1 		udiv	r1, r1, r0
 1245 00da 8DE0     		b	.L139
 1246              	.LVL131:
 1247              	.L112:
 294:..\common\vms/VMSWrapper.c ****                 //volume is max, no need to scale the volume, just write a scaled down version of t
 1248              		.loc 1 294 0 is_stmt 1
 1249 00dc 47F6FF72 		movw	r2, #32767
 1250              	.LVL132:
 1251 00e0 E369     		ldr	r3, [r4, #28]
 307:..\common\vms/VMSWrapper.c ****                 //get the current volume from the factor. We need to scale this to prevent overflow
 1252              		.loc 1 307 0
 1253 00e2 606B     		ldr	r0, [r4, #52]
 1254              	.LVL133:
 294:..\common\vms/VMSWrapper.c ****                 //volume is max, no need to scale the volume, just write a scaled down version of t
 1255              		.loc 1 294 0
 1256 00e4 9342     		cmp	r3, r2
 296:..\common\vms/VMSWrapper.c ****             }else{
 1257              		.loc 1 296 0
 1258 00e6 04BF     		itt	eq
 1259 00e8 0A11     		asreq	r2, r1, #4
 1260 00ea 2262     		streq	r2, [r4, #32]
 300:..\common\vms/VMSWrapper.c ****                 vData->volumeCurrent = vData->volumeTarget; //62500 = 1000000 >> 4
 1261              		.loc 1 300 0
 1262 00ec 464A     		ldr	r2, .L143+4
 291:..\common\vms/VMSWrapper.c ****             
 1263              		.loc 1 291 0
 1264 00ee 6162     		str	r1, [r4, #36]
 300:..\common\vms/VMSWrapper.c ****                 vData->volumeCurrent = vData->volumeTarget; //62500 = 1000000 >> 4
 1265              		.loc 1 300 0
 1266 00f0 9142     		cmp	r1, r2
 303:..\common\vms/VMSWrapper.c ****             }
 1267              		.loc 1 303 0
 1268 00f2 1FBF     		itttt	ne
 1269 00f4 0D09     		lsrne	r5, r1, #4
 1270 00f6 6B43     		mulne	r3, r3, r5
 1271 00f8 4FF22445 		movwne	r5, #62500
 1272 00fc B3FBF5F3 		udivne	r3, r3, r5
 1273 0100 2362     		str	r3, [r4, #32]
 307:..\common\vms/VMSWrapper.c ****                 //get the current volume from the factor. We need to scale this to prevent overflow
 1274              		.loc 1 307 0
 1275 0102 C0B1     		cbz	r0, .L116
 310:..\common\vms/VMSWrapper.c ****                     //volume is max, no need to scale the volume, just write a scaled down version 
 1276              		.loc 1 310 0
 1277 0104 A26B     		ldr	r2, [r4, #56]
 1278 0106 4049     		ldr	r1, .L143+4
 1279              	.LVL134:
 1280 0108 236A     		ldr	r3, [r4, #32]
 1281 010a 8A42     		cmp	r2, r1
 314:..\common\vms/VMSWrapper.c ****                 }
 1282              		.loc 1 314 0
 1283 010c 1FBF     		itttt	ne
 1284 010e 1209     		lsrne	r2, r2, #4
 1285 0110 5343     		mulne	r3, r3, r2
 1286 0112 4FF22442 		movwne	r2, #62500
 1287 0116 B3FBF2F3 		udivne	r3, r3, r2
 317:..\common\vms/VMSWrapper.c ****             }
ARM GAS  C:\Users\chemi\AppData\Local\Temp\ccr4fFHe.s 			page 34


 1288              		.loc 1 317 0
 1289 011a 40F2D132 		movw	r2, #977
 314:..\common\vms/VMSWrapper.c ****                 }
 1290              		.loc 1 314 0
 1291 011e E363     		str	r3, [r4, #60]
 317:..\common\vms/VMSWrapper.c ****             }
 1292              		.loc 1 317 0
 1293 0120 236C     		ldr	r3, [r4, #64]
 1294 0122 B0FBF1F1 		udiv	r1, r0, r1
 1295 0126 B3FBF2F3 		udiv	r3, r3, r2
 1296 012a 0093     		str	r3, [sp]
 1297              	.LVL135:
 1298 012c E36B     		ldr	r3, [r4, #60]
 1299 012e 6269     		ldr	r2, [r4, #20]
 1300 0130 3846     		mov	r0, r7
 1301 0132 FFF7FEFF 		bl	SigGen_setHyperVoiceVMS
 1302              	.LVL136:
 1303              	.L116:
 321:..\common\vms/VMSWrapper.c ****             break;
 1304              		.loc 1 321 0
 1305 0136 0023     		movs	r3, #0
 1306 0138 0393     		str	r3, [sp, #12]
 1307 013a 0293     		str	r3, [sp, #8]
 1308 013c E36A     		ldr	r3, [r4, #44]
 1309 013e 0193     		str	r3, [sp, #4]
 1310 0140 2BE0     		b	.L141
 1311              	.LVL137:
 1312              	.L106:
 325:..\common\vms/VMSWrapper.c ****             break;
 1313              		.loc 1 325 0
 1314 0142 6160     		str	r1, [r4, #4]
 326:..\common\vms/VMSWrapper.c ****             
 1315              		.loc 1 326 0
 1316 0144 5BE0     		b	.L99
 1317              	.L103:
 338:..\common\vms/VMSWrapper.c ****             
 1318              		.loc 1 338 0
 1319 0146 236D     		ldr	r3, [r4, #80]
 329:..\common\vms/VMSWrapper.c ****             
 1320              		.loc 1 329 0
 1321 0148 A160     		str	r1, [r4, #8]
 338:..\common\vms/VMSWrapper.c ****             
 1322              		.loc 1 338 0
 1323 014a 1B06     		lsls	r3, r3, #24
 332:..\common\vms/VMSWrapper.c ****             
 1324              		.loc 1 332 0
 1325 014c 59F80860 		ldr	r6, [r9, r8]
 1326              	.LVL138:
 338:..\common\vms/VMSWrapper.c ****             
 1327              		.loc 1 338 0
 1328 0150 05D5     		bpl	.L119
 338:..\common\vms/VMSWrapper.c ****             
 1329              		.loc 1 338 0 is_stmt 0 discriminator 1
 1330 0152 94F86000 		ldrb	r0, [r4, #96]	@ zero_extendqisi2
 1331              	.LVL139:
 1332 0156 FFF7FEFF 		bl	MidiProcessor_getBendFactor
 1333              	.LVL140:
ARM GAS  C:\Users\chemi\AppData\Local\Temp\ccr4fFHe.s 			page 35


 1334 015a 7043     		muls	r0, r6, r0
 1335 015c 460B     		lsrs	r6, r0, #13
 1336              	.LVL141:
 1337              	.L119:
 341:..\common\vms/VMSWrapper.c ****                 int32_t difference = (int32_t) vData->freqLast - (int32_t) vData->freqTarget;
 1338              		.loc 1 341 0 is_stmt 1
 1339 015e A36C     		ldr	r3, [r4, #72]
 1340 0160 53B1     		cbz	r3, .L120
 1341              	.LVL142:
 1342              	.LBB24:
 343:..\common\vms/VMSWrapper.c ****                 newFrequency += difference;
 1343              		.loc 1 343 0
 1344 0162 E268     		ldr	r2, [r4, #12]
 1345 0164 59F80810 		ldr	r1, [r9, r8]
 1346 0168 9B11     		asrs	r3, r3, #6
 1347 016a 521A     		subs	r2, r2, r1
 1348              	.LVL143:
 1349 016c 5343     		muls	r3, r2, r3
 1350              	.LVL144:
 344:..\common\vms/VMSWrapper.c ****             }
 1351              		.loc 1 344 0
 1352 016e 43F60952 		movw	r2, #15625
 1353 0172 93FBF2F3 		sdiv	r3, r3, r2
 1354              	.LVL145:
 1355 0176 1E44     		add	r6, r6, r3
 1356              	.LVL146:
 1357              	.L120:
 1358              	.LBE24:
 348:..\common\vms/VMSWrapper.c ****             
 1359              		.loc 1 348 0
 1360 0178 234B     		ldr	r3, .L143+4
 1361 017a 9D42     		cmp	r5, r3
 1362 017c 1FBF     		itttt	ne
 1363 017e 43F60950 		movwne	r0, #15625
 1364 0182 AD11     		asrne	r5, r5, #6
 1365              	.LVL147:
 1366 0184 6E43     		mulne	r6, r6, r5
 1367              	.LVL148:
 1368 0186 B6FBF0F6 		udivne	r6, r6, r0
 1369              	.LVL149:
 352:..\common\vms/VMSWrapper.c ****             break;
 1370              		.loc 1 352 0
 1371 018a 0023     		movs	r3, #0
 350:..\common\vms/VMSWrapper.c ****             
 1372              		.loc 1 350 0
 1373 018c 6660     		str	r6, [r4, #4]
 352:..\common\vms/VMSWrapper.c ****             break;
 1374              		.loc 1 352 0
 1375 018e 0393     		str	r3, [sp, #12]
 1376 0190 0293     		str	r3, [sp, #8]
 1377 0192 E36A     		ldr	r3, [r4, #44]
 1378 0194 0096     		str	r6, [sp]
 1379 0196 0193     		str	r3, [sp, #4]
 1380 0198 01E0     		b	.L142
 1381              	.LVL150:
 1382              	.L141:
 359:..\common\vms/VMSWrapper.c ****             break;
ARM GAS  C:\Users\chemi\AppData\Local\Temp\ccr4fFHe.s 			page 36


 1383              		.loc 1 359 0
 1384 019a 6368     		ldr	r3, [r4, #4]
 1385 019c 0093     		str	r3, [sp]
 1386              	.L142:
 1387 019e 236A     		ldr	r3, [r4, #32]
 1388 01a0 6269     		ldr	r2, [r4, #20]
 1389 01a2 0121     		movs	r1, #1
 1390 01a4 3846     		mov	r0, r7
 1391 01a6 FFF7FEFF 		bl	SigGen_setVoiceVMS
 1392              	.LVL151:
 360:..\common\vms/VMSWrapper.c ****             
 1393              		.loc 1 360 0
 1394 01aa 28E0     		b	.L99
 1395              	.LVL152:
 1396              	.L102:
 363:..\common\vms/VMSWrapper.c ****             break;
 1397              		.loc 1 363 0
 1398 01ac 04EB8000 		add	r0, r4, r0, lsl #2
 1399              	.LVL153:
 1400 01b0 4163     		str	r1, [r0, #52]
 364:..\common\vms/VMSWrapper.c **** 
 1401              		.loc 1 364 0
 1402 01b2 24E0     		b	.L99
 1403              	.LVL154:
 1404              	.L111:
 373:..\common\vms/VMSWrapper.c ****             
 1405              		.loc 1 373 0
 1406 01b4 A163     		str	r1, [r4, #56]
 376:..\common\vms/VMSWrapper.c ****                 //volume is max, no need to scale the volume, just write a scaled down version of t
 1407              		.loc 1 376 0
 1408 01b6 1449     		ldr	r1, .L143+4
 1409              	.LVL155:
 1410 01b8 236A     		ldr	r3, [r4, #32]
 1411 01ba 8D42     		cmp	r5, r1
 380:..\common\vms/VMSWrapper.c ****             }
 1412              		.loc 1 380 0
 1413 01bc 1FBF     		itttt	ne
 1414 01be 2D09     		lsrne	r5, r5, #4
 1415              	.LVL156:
 1416 01c0 6B43     		mulne	r3, r3, r5
 1417 01c2 4FF22445 		movwne	r5, #62500
 1418 01c6 B3FBF5F3 		udivne	r3, r3, r5
 383:..\common\vms/VMSWrapper.c ****             break;
 1419              		.loc 1 383 0
 1420 01ca 40F2D132 		movw	r2, #977
 1421              	.LVL157:
 380:..\common\vms/VMSWrapper.c ****             }
 1422              		.loc 1 380 0
 1423 01ce E363     		str	r3, [r4, #60]
 383:..\common\vms/VMSWrapper.c ****             break;
 1424              		.loc 1 383 0
 1425 01d0 236C     		ldr	r3, [r4, #64]
 1426 01d2 606B     		ldr	r0, [r4, #52]
 1427              	.LVL158:
 1428 01d4 B3FBF2F3 		udiv	r3, r3, r2
 1429 01d8 0093     		str	r3, [sp]
 1430              	.LVL159:
ARM GAS  C:\Users\chemi\AppData\Local\Temp\ccr4fFHe.s 			page 37


 1431 01da E36B     		ldr	r3, [r4, #60]
 1432 01dc 6269     		ldr	r2, [r4, #20]
 1433 01de 09E0     		b	.L140
 1434              	.LVL160:
 1435              	.L108:
 387:..\common\vms/VMSWrapper.c ****             
 1436              		.loc 1 387 0
 1437 01e0 2164     		str	r1, [r4, #64]
 389:..\common\vms/VMSWrapper.c ****             break;
 1438              		.loc 1 389 0
 1439 01e2 40F2D131 		movw	r1, #977
 1440              	.LVL161:
 1441 01e6 B5FBF1F5 		udiv	r5, r5, r1
 1442              	.LVL162:
 1443 01ea 606B     		ldr	r0, [r4, #52]
 1444              	.LVL163:
 1445 01ec 0095     		str	r5, [sp]
 1446              	.LVL164:
 1447 01ee E36B     		ldr	r3, [r4, #60]
 1448 01f0 6269     		ldr	r2, [r4, #20]
 1449              	.LVL165:
 1450 01f2 0549     		ldr	r1, .L143+4
 1451              	.L140:
 1452 01f4 B0FBF1F1 		udiv	r1, r0, r1
 1453              	.L139:
 1454 01f8 3846     		mov	r0, r7
 1455 01fa FFF7FEFF 		bl	SigGen_setHyperVoiceVMS
 1456              	.LVL166:
 1457              	.L99:
 1458              	.LBE26:
 392:..\common\vms/VMSWrapper.c **** 
 1459              		.loc 1 392 0
 1460 01fe 05B0     		add	sp, sp, #20
 1461              		.cfi_def_cfa_offset 28
 1462              		@ sp needed
 1463 0200 BDE8F083 		pop	{r4, r5, r6, r7, r8, r9, pc}
 1464              	.LVL167:
 1465              	.L144:
 1466              		.align	2
 1467              	.L143:
 1468 0204 00000000 		.word	.LANCHOR0
 1469 0208 40420F00 		.word	1000000
 1470              		.cfi_endproc
 1471              	.LFE80:
 1472              		.size	VMSW_setKnownValue, .-VMSW_setKnownValue
 1473              		.section	.text.VMSW_getCurrentFactor,"ax",%progbits
 1474              		.align	1
 1475              		.global	VMSW_getCurrentFactor
 1476              		.thumb
 1477              		.thumb_func
 1478              		.type	VMSW_getCurrentFactor, %function
 1479              	VMSW_getCurrentFactor:
 1480              	.LFB81:
 394:..\common\vms/VMSWrapper.c ****     switch(ID){
 1481              		.loc 1 394 0
 1482              		.cfi_startproc
 1483              		@ args = 0, pretend = 0, frame = 0
ARM GAS  C:\Users\chemi\AppData\Local\Temp\ccr4fFHe.s 			page 38


 1484              		@ frame_needed = 0, uses_anonymous_args = 0
 1485              		@ link register save eliminated.
 1486              	.LVL168:
 395:..\common\vms/VMSWrapper.c ****         default:
 1487              		.loc 1 395 0
 1488 0000 0F28     		cmp	r0, #15
 1489 0002 10D8     		bhi	.L147
 1490 0004 0C28     		cmp	r0, #12
 1491 0006 3BD2     		bcs	.L148
 1492 0008 0628     		cmp	r0, #6
 1493 000a 27D0     		beq	.L149
 1494 000c 0A28     		cmp	r0, #10
 1495 000e 2ED0     		beq	.L150
 1496 0010 0228     		cmp	r0, #2
 1497 0012 52D1     		bne	.L157
 399:..\common\vms/VMSWrapper.c ****         case volume:
 1498              		.loc 1 399 0
 1499 0014 2A4B     		ldr	r3, .L158
 1500 0016 1B68     		ldr	r3, [r3]
 1501 0018 53F82110 		ldr	r1, [r3, r1, lsl #2]
 1502              	.LVL169:
 1503 001c 7C23     		movs	r3, #124
 1504 001e 03FB0212 		mla	r2, r3, r2, r1
 1505              	.LVL170:
 1506 0022 9069     		ldr	r0, [r2, #24]
 1507              	.LVL171:
 1508 0024 7047     		bx	lr
 1509              	.LVL172:
 1510              	.L147:
 395:..\common\vms/VMSWrapper.c ****         default:
 1511              		.loc 1 395 0
 1512 0026 2328     		cmp	r0, #35
 1513 0028 3ED0     		beq	.L152
 1514 002a 0AD8     		bhi	.L153
 1515 002c 2228     		cmp	r0, #34
 1516 002e 44D1     		bne	.L157
 411:..\common\vms/VMSWrapper.c ****         case HyperVoice_Volume:
 1517              		.loc 1 411 0
 1518 0030 234B     		ldr	r3, .L158
 1519 0032 1B68     		ldr	r3, [r3]
 1520 0034 53F82110 		ldr	r1, [r3, r1, lsl #2]
 1521              	.LVL173:
 1522 0038 7C23     		movs	r3, #124
 1523 003a 03FB0212 		mla	r2, r3, r2, r1
 1524              	.LVL174:
 1525 003e 506B     		ldr	r0, [r2, #52]
 1526              	.LVL175:
 1527 0040 7047     		bx	lr
 1528              	.LVL176:
 1529              	.L153:
 395:..\common\vms/VMSWrapper.c ****         default:
 1530              		.loc 1 395 0
 1531 0042 2428     		cmp	r0, #36
 1532 0044 27D0     		beq	.L155
 1533 0046 2528     		cmp	r0, #37
 1534 0048 37D1     		bne	.L157
 401:..\common\vms/VMSWrapper.c ****         case frequency:
ARM GAS  C:\Users\chemi\AppData\Local\Temp\ccr4fFHe.s 			page 39


 1535              		.loc 1 401 0
 1536 004a 1D4B     		ldr	r3, .L158
 1537 004c 1B68     		ldr	r3, [r3]
 1538 004e 53F82110 		ldr	r1, [r3, r1, lsl #2]
 1539              	.LVL177:
 1540 0052 7C23     		movs	r3, #124
 1541 0054 03FB0212 		mla	r2, r3, r2, r1
 1542              	.LVL178:
 1543 0058 506A     		ldr	r0, [r2, #36]
 1544              	.LVL179:
 1545 005a 7047     		bx	lr
 1546              	.LVL180:
 1547              	.L149:
 403:..\common\vms/VMSWrapper.c ****         case noise:
 1548              		.loc 1 403 0
 1549 005c 184B     		ldr	r3, .L158
 1550 005e 1B68     		ldr	r3, [r3]
 1551 0060 53F82110 		ldr	r1, [r3, r1, lsl #2]
 1552              	.LVL181:
 1553 0064 7C23     		movs	r3, #124
 1554 0066 03FB0212 		mla	r2, r3, r2, r1
 1555              	.LVL182:
 1556 006a 9068     		ldr	r0, [r2, #8]
 1557              	.LVL183:
 1558 006c 7047     		bx	lr
 1559              	.LVL184:
 1560              	.L150:
 405:..\common\vms/VMSWrapper.c ****             
 1561              		.loc 1 405 0
 1562 006e 144B     		ldr	r3, .L158
 1563 0070 1B68     		ldr	r3, [r3]
 1564 0072 53F82110 		ldr	r1, [r3, r1, lsl #2]
 1565              	.LVL185:
 1566 0076 7C23     		movs	r3, #124
 1567 0078 03FB0212 		mla	r2, r3, r2, r1
 1568              	.LVL186:
 1569 007c 106B     		ldr	r0, [r2, #48]
 1570              	.LVL187:
 1571 007e 7047     		bx	lr
 1572              	.LVL188:
 1573              	.L148:
 408:..\common\vms/VMSWrapper.c ****             
 1574              		.loc 1 408 0
 1575 0080 0F4B     		ldr	r3, .L158
 1576 0082 1B68     		ldr	r3, [r3]
 1577 0084 53F82110 		ldr	r1, [r3, r1, lsl #2]
 1578              	.LVL189:
 1579 0088 7C23     		movs	r3, #124
 1580 008a 03FB0212 		mla	r2, r3, r2, r1
 1581              	.LVL190:
 1582 008e 02EB8000 		add	r0, r2, r0, lsl #2
 1583              	.LVL191:
 1584 0092 406B     		ldr	r0, [r0, #52]
 1585 0094 7047     		bx	lr
 1586              	.LVL192:
 1587              	.L155:
 413:..\common\vms/VMSWrapper.c ****         case HyperVoice_Phase:
ARM GAS  C:\Users\chemi\AppData\Local\Temp\ccr4fFHe.s 			page 40


 1588              		.loc 1 413 0
 1589 0096 0A4B     		ldr	r3, .L158
 1590 0098 1B68     		ldr	r3, [r3]
 1591 009a 53F82110 		ldr	r1, [r3, r1, lsl #2]
 1592              	.LVL193:
 1593 009e 7C23     		movs	r3, #124
 1594 00a0 03FB0212 		mla	r2, r3, r2, r1
 1595              	.LVL194:
 1596 00a4 906B     		ldr	r0, [r2, #56]
 1597              	.LVL195:
 1598 00a6 7047     		bx	lr
 1599              	.LVL196:
 1600              	.L152:
 415:..\common\vms/VMSWrapper.c ****     }
 1601              		.loc 1 415 0
 1602 00a8 054B     		ldr	r3, .L158
 1603 00aa 1B68     		ldr	r3, [r3]
 1604 00ac 53F82130 		ldr	r3, [r3, r1, lsl #2]
 1605 00b0 7C21     		movs	r1, #124
 1606              	.LVL197:
 1607 00b2 01FB0232 		mla	r2, r1, r2, r3
 1608              	.LVL198:
 1609 00b6 106C     		ldr	r0, [r2, #64]
 1610              	.LVL199:
 1611 00b8 7047     		bx	lr
 1612              	.LVL200:
 1613              	.L157:
 397:..\common\vms/VMSWrapper.c ****         case onTime:
 1614              		.loc 1 397 0
 1615 00ba 0020     		movs	r0, #0
 1616              	.LVL201:
 418:..\common\vms/VMSWrapper.c **** 
 1617              		.loc 1 418 0
 1618 00bc 7047     		bx	lr
 1619              	.L159:
 1620 00be 00BF     		.align	2
 1621              	.L158:
 1622 00c0 00000000 		.word	.LANCHOR0
 1623              		.cfi_endproc
 1624              	.LFE81:
 1625              		.size	VMSW_getCurrentFactor, .-VMSW_getCurrentFactor
 1626              		.section	.text.VMSW_panicHandler,"ax",%progbits
 1627              		.align	1
 1628              		.global	VMSW_panicHandler
 1629              		.thumb
 1630              		.thumb_func
 1631              		.type	VMSW_panicHandler, %function
 1632              	VMSW_panicHandler:
 1633              	.LFB83:
 445:..\common\vms/VMSWrapper.c ****         }
 446:..\common\vms/VMSWrapper.c ****     }
 447:..\common\vms/VMSWrapper.c ****     
 448:..\common\vms/VMSWrapper.c ****     return oldestVoice;
 449:..\common\vms/VMSWrapper.c **** }
 450:..\common\vms/VMSWrapper.c **** 
 451:..\common\vms/VMSWrapper.c **** void VMSW_panicHandler(){
 1634              		.loc 1 451 0
ARM GAS  C:\Users\chemi\AppData\Local\Temp\ccr4fFHe.s 			page 41


 1635              		.cfi_startproc
 1636              		@ args = 0, pretend = 0, frame = 0
 1637              		@ frame_needed = 0, uses_anonymous_args = 0
 1638 0000 08B5     		push	{r3, lr}
 1639              		.cfi_def_cfa_offset 8
 1640              		.cfi_offset 3, -8
 1641              		.cfi_offset 14, -4
 452:..\common\vms/VMSWrapper.c ****     VMS_getSemaphore();
 1642              		.loc 1 452 0
 1643 0002 FFF7FEFF 		bl	VMS_getSemaphore
 1644              	.LVL202:
 453:..\common\vms/VMSWrapper.c ****     VMS_killBlocks();
 1645              		.loc 1 453 0
 1646 0006 FFF7FEFF 		bl	VMS_killBlocks
 1647              	.LVL203:
 1648              	.LBB27:
 1649              	.LBB28:
 454:..\common\vms/VMSWrapper.c ****     
 455:..\common\vms/VMSWrapper.c ****     //also kill all voices
 456:..\common\vms/VMSWrapper.c ****     for(uint32_t currOutput = 0; currOutput < SIGGEN_OUTPUTCOUNT; currOutput++){
 457:..\common\vms/VMSWrapper.c ****         for(uint8_t currVoice = 0; currVoice < SIGGEN_VOICECOUNT; currVoice++){
 458:..\common\vms/VMSWrapper.c ****             voiceData[currOutput][currVoice].on = 0;
 1650              		.loc 1 458 0
 1651 000a 084B     		ldr	r3, .L163
 1652 000c 0022     		movs	r2, #0
 1653 000e 1B68     		ldr	r3, [r3]
 1654 0010 1B68     		ldr	r3, [r3]
 1655 0012 03F53A71 		add	r1, r3, #744
 1656              	.LVL204:
 1657              	.L161:
 1658              		.loc 1 458 0 is_stmt 0 discriminator 3
 1659 0016 DA64     		str	r2, [r3, #76]
 459:..\common\vms/VMSWrapper.c ****             voiceData[currOutput][currVoice].volumeCurrent = 0;
 1660              		.loc 1 459 0 is_stmt 1 discriminator 3
 1661 0018 1A62     		str	r2, [r3, #32]
 460:..\common\vms/VMSWrapper.c ****             voiceData[currOutput][currVoice].freqCurrent = 0;
 1662              		.loc 1 460 0 discriminator 3
 1663 001a 5A60     		str	r2, [r3, #4]
 461:..\common\vms/VMSWrapper.c ****             voiceData[currOutput][currVoice].freqLast = 0; //TODO: make sure this won't make portam
 1664              		.loc 1 461 0 discriminator 3
 1665 001c DA60     		str	r2, [r3, #12]
 1666 001e 7C33     		adds	r3, r3, #124
 457:..\common\vms/VMSWrapper.c ****             voiceData[currOutput][currVoice].on = 0;
 1667              		.loc 1 457 0 discriminator 3
 1668 0020 9942     		cmp	r1, r3
 1669 0022 F8D1     		bne	.L161
 1670              	.LVL205:
 1671              	.LBE28:
 1672              	.LBE27:
 462:..\common\vms/VMSWrapper.c ****         }
 463:..\common\vms/VMSWrapper.c ****     }
 464:..\common\vms/VMSWrapper.c ****     VMS_returnSemaphore();
 465:..\common\vms/VMSWrapper.c **** }
 1673              		.loc 1 465 0
 1674 0024 BDE80840 		pop	{r3, lr}
 1675              		.cfi_restore 14
 1676              		.cfi_restore 3
ARM GAS  C:\Users\chemi\AppData\Local\Temp\ccr4fFHe.s 			page 42


 1677              		.cfi_def_cfa_offset 0
 464:..\common\vms/VMSWrapper.c **** }
 1678              		.loc 1 464 0
 1679 0028 FFF7FEBF 		b	VMS_returnSemaphore
 1680              	.LVL206:
 1681              	.L164:
 1682              		.align	2
 1683              	.L163:
 1684 002c 00000000 		.word	.LANCHOR0
 1685              		.cfi_endproc
 1686              	.LFE83:
 1687              		.size	VMSW_panicHandler, .-VMSW_panicHandler
 1688              		.section	.text.VMSW_bendHandler,"ax",%progbits
 1689              		.align	1
 1690              		.global	VMSW_bendHandler
 1691              		.thumb
 1692              		.thumb_func
 1693              		.type	VMSW_bendHandler, %function
 1694              	VMSW_bendHandler:
 1695              	.LFB84:
 466:..\common\vms/VMSWrapper.c **** 
 467:..\common\vms/VMSWrapper.c **** void VMSW_bendHandler(uint32_t channel){
 1696              		.loc 1 467 0
 1697              		.cfi_startproc
 1698              		@ args = 0, pretend = 0, frame = 0
 1699              		@ frame_needed = 0, uses_anonymous_args = 0
 1700              	.LVL207:
 1701 0000 F8B5     		push	{r3, r4, r5, r6, r7, lr}
 1702              		.cfi_def_cfa_offset 24
 1703              		.cfi_offset 3, -24
 1704              		.cfi_offset 4, -20
 1705              		.cfi_offset 5, -16
 1706              		.cfi_offset 6, -12
 1707              		.cfi_offset 7, -8
 1708              		.cfi_offset 14, -4
 1709              		.loc 1 467 0
 1710 0002 0546     		mov	r5, r0
 468:..\common\vms/VMSWrapper.c ****     VMS_getSemaphore();
 1711              		.loc 1 468 0
 1712 0004 FFF7FEFF 		bl	VMS_getSemaphore
 1713              	.LVL208:
 1714              	.LBB29:
 1715              	.LBB30:
 1716              	.LBB31:
 469:..\common\vms/VMSWrapper.c ****     //check all notes. Find which ones need to be updated
 470:..\common\vms/VMSWrapper.c ****     for(uint32_t currOutput = 0; currOutput < SIGGEN_OUTPUTCOUNT; currOutput++){
 471:..\common\vms/VMSWrapper.c ****         for(uint8_t currVoice = 0; currVoice < SIGGEN_VOICECOUNT; currVoice++){
 472:..\common\vms/VMSWrapper.c ****             //precalculate voice data pointer, as this might be repeated multiple times in the foll
 473:..\common\vms/VMSWrapper.c ****             VMS_VoiceData_t * vData = &(voiceData[currOutput][currVoice]);
 1717              		.loc 1 473 0
 1718 0008 0E4E     		ldr	r6, .L175
 1719              	.LBE31:
 1720              	.LBE30:
 1721              	.LBE29:
 468:..\common\vms/VMSWrapper.c ****     VMS_getSemaphore();
 1722              		.loc 1 468 0
 1723 000a 0024     		movs	r4, #0
ARM GAS  C:\Users\chemi\AppData\Local\Temp\ccr4fFHe.s 			page 43


 1724              	.LBB34:
 1725              	.LBB33:
 1726              	.LBB32:
 1727              		.loc 1 473 0
 1728 000c 7C27     		movs	r7, #124
 1729              	.LVL209:
 1730              	.L167:
 1731 000e 3368     		ldr	r3, [r6]
 1732 0010 1968     		ldr	r1, [r3]
 1733 0012 07FB0411 		mla	r1, r7, r4, r1
 1734              	.LVL210:
 474:..\common\vms/VMSWrapper.c ****             
 475:..\common\vms/VMSWrapper.c ****             if(vData->sourceChannel == channel && (vData->on > 0)){
 1735              		.loc 1 475 0
 1736 0016 91F86030 		ldrb	r3, [r1, #96]	@ zero_extendqisi2
 1737 001a AB42     		cmp	r3, r5
 1738 001c 0AD1     		bne	.L166
 1739              		.loc 1 475 0 is_stmt 0 discriminator 1
 1740 001e CB6C     		ldr	r3, [r1, #76]
 1741 0020 43B1     		cbz	r3, .L166
 476:..\common\vms/VMSWrapper.c ****                 //call VMSW_setKnownValue to trigger a value recalculation
 477:..\common\vms/VMSWrapper.c **** 
 478:..\common\vms/VMSWrapper.c ****                 //is pitchbend enabled on the current voice? If not just skip calculations
 479:..\common\vms/VMSWrapper.c ****                 if(!(vData->flags & MAP_ENA_PITCHBEND)) continue;
 1742              		.loc 1 479 0 is_stmt 1
 1743 0022 0B6D     		ldr	r3, [r1, #80]
 1744 0024 1B06     		lsls	r3, r3, #24
 1745 0026 05D5     		bpl	.L166
 480:..\common\vms/VMSWrapper.c ****                 
 481:..\common\vms/VMSWrapper.c ****                 VMSW_setKnownValue(frequency, vData->freqFactor, currOutput, currVoice);
 1746              		.loc 1 481 0
 1747 0028 2346     		mov	r3, r4
 1748 002a 0022     		movs	r2, #0
 1749 002c 8968     		ldr	r1, [r1, #8]
 1750              	.LVL211:
 1751 002e 0620     		movs	r0, #6
 1752 0030 FFF7FEFF 		bl	VMSW_setKnownValue
 1753              	.LVL212:
 1754              	.L166:
 1755 0034 0134     		adds	r4, r4, #1
 1756              	.LVL213:
 1757              	.LBE32:
 471:..\common\vms/VMSWrapper.c ****             //precalculate voice data pointer, as this might be repeated multiple times in the foll
 1758              		.loc 1 471 0 discriminator 2
 1759 0036 062C     		cmp	r4, #6
 1760 0038 E9D1     		bne	.L167
 1761              	.LVL214:
 1762              	.LBE33:
 1763              	.LBE34:
 482:..\common\vms/VMSWrapper.c ****             }
 483:..\common\vms/VMSWrapper.c ****         }
 484:..\common\vms/VMSWrapper.c ****     }
 485:..\common\vms/VMSWrapper.c ****     VMS_returnSemaphore();
 486:..\common\vms/VMSWrapper.c **** }
 1764              		.loc 1 486 0
 1765 003a BDE8F840 		pop	{r3, r4, r5, r6, r7, lr}
 1766              		.cfi_restore 14
ARM GAS  C:\Users\chemi\AppData\Local\Temp\ccr4fFHe.s 			page 44


 1767              		.cfi_restore 7
 1768              		.cfi_restore 6
 1769              		.cfi_restore 5
 1770              		.cfi_restore 4
 1771              		.cfi_restore 3
 1772              		.cfi_def_cfa_offset 0
 1773              	.LVL215:
 485:..\common\vms/VMSWrapper.c **** }
 1774              		.loc 1 485 0
 1775 003e FFF7FEBF 		b	VMS_returnSemaphore
 1776              	.LVL216:
 1777              	.L176:
 1778 0042 00BF     		.align	2
 1779              	.L175:
 1780 0044 00000000 		.word	.LANCHOR0
 1781              		.cfi_endproc
 1782              	.LFE84:
 1783              		.size	VMSW_bendHandler, .-VMSW_bendHandler
 1784              		.section	.text.VMSW_volumeChangeHandler,"ax",%progbits
 1785              		.align	1
 1786              		.global	VMSW_volumeChangeHandler
 1787              		.thumb
 1788              		.thumb_func
 1789              		.type	VMSW_volumeChangeHandler, %function
 1790              	VMSW_volumeChangeHandler:
 1791              	.LFB85:
 487:..\common\vms/VMSWrapper.c **** 
 488:..\common\vms/VMSWrapper.c **** void VMSW_volumeChangeHandler(uint32_t channel){
 1792              		.loc 1 488 0
 1793              		.cfi_startproc
 1794              		@ args = 0, pretend = 0, frame = 8
 1795              		@ frame_needed = 0, uses_anonymous_args = 0
 1796              	.LVL217:
 1797 0000 2DE9F341 		push	{r0, r1, r4, r5, r6, r7, r8, lr}
 1798              		.cfi_def_cfa_offset 32
 1799              		.cfi_offset 4, -24
 1800              		.cfi_offset 5, -20
 1801              		.cfi_offset 6, -16
 1802              		.cfi_offset 7, -12
 1803              		.cfi_offset 8, -8
 1804              		.cfi_offset 14, -4
 1805              		.loc 1 488 0
 1806 0004 0646     		mov	r6, r0
 489:..\common\vms/VMSWrapper.c ****     VMS_getSemaphore();
 1807              		.loc 1 489 0
 1808 0006 FFF7FEFF 		bl	VMS_getSemaphore
 1809              	.LVL218:
 1810              	.LBB35:
 1811              	.LBB36:
 1812              	.LBB37:
 490:..\common\vms/VMSWrapper.c ****     
 491:..\common\vms/VMSWrapper.c ****     for(uint32_t currOutput = 0; currOutput < SIGGEN_OUTPUTCOUNT; currOutput++){
 492:..\common\vms/VMSWrapper.c ****         for(uint8_t currVoice = 0; currVoice < SIGGEN_VOICECOUNT; currVoice++){
 493:..\common\vms/VMSWrapper.c ****             //precalculate voice data pointer, as this might be repeated multiple times in the foll
 494:..\common\vms/VMSWrapper.c ****             VMS_VoiceData_t * vData = &(voiceData[currOutput][currVoice]);
 1813              		.loc 1 494 0
 1814 000a 244F     		ldr	r7, .L194
ARM GAS  C:\Users\chemi\AppData\Local\Temp\ccr4fFHe.s 			page 45


 1815              	.LBE37:
 1816              	.LBE36:
 1817              	.LBE35:
 489:..\common\vms/VMSWrapper.c ****     VMS_getSemaphore();
 1818              		.loc 1 489 0
 1819 000c 0025     		movs	r5, #0
 1820              	.LBB41:
 1821              	.LBB40:
 1822              	.LBB39:
 1823              		.loc 1 494 0
 1824 000e 4FF07C08 		mov	r8, #124
 1825              	.LVL219:
 1826              	.L183:
 1827 0012 3B68     		ldr	r3, [r7]
 1828 0014 1C68     		ldr	r4, [r3]
 1829 0016 08FB0544 		mla	r4, r8, r5, r4
 1830              	.LVL220:
 495:..\common\vms/VMSWrapper.c ****             
 496:..\common\vms/VMSWrapper.c ****             //is the current block originating from this channel
 497:..\common\vms/VMSWrapper.c ****             if(vData->sourceChannel == channel && (vData->on > 0)){
 1831              		.loc 1 497 0
 1832 001a 94F86030 		ldrb	r3, [r4, #96]	@ zero_extendqisi2
 1833 001e B342     		cmp	r3, r6
 1834 0020 34D1     		bne	.L179
 1835              		.loc 1 497 0 is_stmt 0 discriminator 1
 1836 0022 E36C     		ldr	r3, [r4, #76]
 1837 0024 002B     		cmp	r3, #0
 1838 0026 31D0     		beq	.L179
 1839              	.LBB38:
 498:..\common\vms/VMSWrapper.c ****                 volatile uint32_t targetVolume = vData->baseVolume;
 1840              		.loc 1 498 0 is_stmt 1
 1841 0028 636D     		ldr	r3, [r4, #84]
 1842 002a 0193     		str	r3, [sp, #4]
 499:..\common\vms/VMSWrapper.c **** 
 500:..\common\vms/VMSWrapper.c ****                 if(vData->flags & MAP_ENA_STEREO){
 1843              		.loc 1 500 0
 1844 002c 236D     		ldr	r3, [r4, #80]
 1845 002e 5A06     		lsls	r2, r3, #25
 1846 0030 0AD5     		bpl	.L181
 501:..\common\vms/VMSWrapper.c ****                     targetVolume *= MidiProcessor_getStereoVolume(channel);
 1847              		.loc 1 501 0
 1848 0032 3046     		mov	r0, r6
 1849 0034 FFF7FEFF 		bl	MidiProcessor_getStereoVolume
 1850              	.LVL221:
 1851 0038 019B     		ldr	r3, [sp, #4]
 502:..\common\vms/VMSWrapper.c ****                     targetVolume /= MIDI_VOLUME_MAX;
 1852              		.loc 1 502 0
 1853 003a 7F22     		movs	r2, #127
 501:..\common\vms/VMSWrapper.c ****                     targetVolume *= MidiProcessor_getStereoVolume(channel);
 1854              		.loc 1 501 0
 1855 003c 5843     		muls	r0, r3, r0
 1856 003e 0190     		str	r0, [sp, #4]
 1857              		.loc 1 502 0
 1858 0040 019B     		ldr	r3, [sp, #4]
 1859 0042 B3FBF2F3 		udiv	r3, r3, r2
 1860 0046 0193     		str	r3, [sp, #4]
 1861              	.L181:
ARM GAS  C:\Users\chemi\AppData\Local\Temp\ccr4fFHe.s 			page 46


 503:..\common\vms/VMSWrapper.c ****                 }
 504:..\common\vms/VMSWrapper.c **** 
 505:..\common\vms/VMSWrapper.c ****                 if(vData->flags & MAP_ENA_VOLUME){
 1862              		.loc 1 505 0
 1863 0048 236D     		ldr	r3, [r4, #80]
 1864 004a 9B06     		lsls	r3, r3, #26
 1865 004c 12D5     		bpl	.L182
 506:..\common\vms/VMSWrapper.c ****                     targetVolume *= MidiProcessor_getVolume(channel);
 1866              		.loc 1 506 0
 1867 004e 3046     		mov	r0, r6
 1868 0050 FFF7FEFF 		bl	MidiProcessor_getVolume
 1869              	.LVL222:
 1870 0054 019B     		ldr	r3, [sp, #4]
 507:..\common\vms/VMSWrapper.c ****                     targetVolume /= MIDI_VOLUME_MAX;
 1871              		.loc 1 507 0
 1872 0056 7F21     		movs	r1, #127
 506:..\common\vms/VMSWrapper.c ****                     targetVolume *= MidiProcessor_getVolume(channel);
 1873              		.loc 1 506 0
 1874 0058 5843     		muls	r0, r3, r0
 1875 005a 0190     		str	r0, [sp, #4]
 1876              		.loc 1 507 0
 1877 005c 019A     		ldr	r2, [sp, #4]
 1878 005e B2FBF1F2 		udiv	r2, r2, r1
 1879 0062 0192     		str	r2, [sp, #4]
 508:..\common\vms/VMSWrapper.c **** 
 509:..\common\vms/VMSWrapper.c ****                     targetVolume *= vData->baseVelocity;
 1880              		.loc 1 509 0
 1881 0064 019B     		ldr	r3, [sp, #4]
 1882 0066 A26D     		ldr	r2, [r4, #88]
 1883 0068 5A43     		muls	r2, r3, r2
 1884 006a 0192     		str	r2, [sp, #4]
 510:..\common\vms/VMSWrapper.c ****                     targetVolume /= MIDI_VOLUME_MAX;
 1885              		.loc 1 510 0
 1886 006c 019B     		ldr	r3, [sp, #4]
 1887 006e B3FBF1F3 		udiv	r3, r3, r1
 1888 0072 0193     		str	r3, [sp, #4]
 1889              	.L182:
 511:..\common\vms/VMSWrapper.c ****                 }
 512:..\common\vms/VMSWrapper.c ****                 
 513:..\common\vms/VMSWrapper.c ****                 //TODO we actually need to figure out if the map scaled this volume...
 514:..\common\vms/VMSWrapper.c ****                 
 515:..\common\vms/VMSWrapper.c ****                 //did we actually change something?
 516:..\common\vms/VMSWrapper.c ****                 if(vData->volumeTarget != targetVolume){
 1890              		.loc 1 516 0
 1891 0074 019B     		ldr	r3, [sp, #4]
 1892 0076 E269     		ldr	r2, [r4, #28]
 1893 0078 9A42     		cmp	r2, r3
 1894 007a 07D0     		beq	.L179
 517:..\common\vms/VMSWrapper.c ****                     //yes! update parameters
 518:..\common\vms/VMSWrapper.c ****                     vData->volumeTarget = targetVolume;
 1895              		.loc 1 518 0
 1896 007c 019B     		ldr	r3, [sp, #4]
 519:..\common\vms/VMSWrapper.c ****                     
 520:..\common\vms/VMSWrapper.c ****                     //call VMSW_setKnownValue to trigger a value recalculation
 521:..\common\vms/VMSWrapper.c ****                     VMSW_setKnownValue(volumeCurrent, vData->volumeFactor, currOutput, currVoice);
 1897              		.loc 1 521 0
 1898 007e 0022     		movs	r2, #0
ARM GAS  C:\Users\chemi\AppData\Local\Temp\ccr4fFHe.s 			page 47


 518:..\common\vms/VMSWrapper.c ****                     
 1899              		.loc 1 518 0
 1900 0080 E361     		str	r3, [r4, #28]
 1901              		.loc 1 521 0
 1902 0082 616A     		ldr	r1, [r4, #36]
 1903 0084 2B46     		mov	r3, r5
 1904 0086 2620     		movs	r0, #38
 1905 0088 FFF7FEFF 		bl	VMSW_setKnownValue
 1906              	.LVL223:
 1907              	.L179:
 1908 008c 0135     		adds	r5, r5, #1
 1909              	.LVL224:
 1910              	.LBE38:
 1911              	.LBE39:
 492:..\common\vms/VMSWrapper.c ****             //precalculate voice data pointer, as this might be repeated multiple times in the foll
 1912              		.loc 1 492 0 discriminator 2
 1913 008e 062D     		cmp	r5, #6
 1914 0090 BFD1     		bne	.L183
 1915              	.LVL225:
 1916              	.LBE40:
 1917              	.LBE41:
 522:..\common\vms/VMSWrapper.c ****                 }
 523:..\common\vms/VMSWrapper.c **** 
 524:..\common\vms/VMSWrapper.c ****             }
 525:..\common\vms/VMSWrapper.c ****         }
 526:..\common\vms/VMSWrapper.c ****     }
 527:..\common\vms/VMSWrapper.c ****     
 528:..\common\vms/VMSWrapper.c ****     VMS_returnSemaphore();
 1918              		.loc 1 528 0
 1919 0092 FFF7FEFF 		bl	VMS_returnSemaphore
 1920              	.LVL226:
 529:..\common\vms/VMSWrapper.c **** }
 1921              		.loc 1 529 0
 1922 0096 02B0     		add	sp, sp, #8
 1923              		.cfi_def_cfa_offset 24
 1924              		@ sp needed
 1925 0098 BDE8F081 		pop	{r4, r5, r6, r7, r8, pc}
 1926              	.LVL227:
 1927              	.L195:
 1928              		.align	2
 1929              	.L194:
 1930 009c 00000000 		.word	.LANCHOR0
 1931              		.cfi_endproc
 1932              	.LFE85:
 1933              		.size	VMSW_volumeChangeHandler, .-VMSW_volumeChangeHandler
 1934              		.section	.text.VMSW_pulseWidthChangeHandler,"ax",%progbits
 1935              		.align	1
 1936              		.global	VMSW_pulseWidthChangeHandler
 1937              		.thumb
 1938              		.thumb_func
 1939              		.type	VMSW_pulseWidthChangeHandler, %function
 1940              	VMSW_pulseWidthChangeHandler:
 1941              	.LFB86:
 530:..\common\vms/VMSWrapper.c **** 
 531:..\common\vms/VMSWrapper.c **** void VMSW_pulseWidthChangeHandler(){
 1942              		.loc 1 531 0
 1943              		.cfi_startproc
ARM GAS  C:\Users\chemi\AppData\Local\Temp\ccr4fFHe.s 			page 48


 1944              		@ args = 0, pretend = 0, frame = 8
 1945              		@ frame_needed = 0, uses_anonymous_args = 0
 1946 0000 F7B5     		push	{r0, r1, r2, r4, r5, r6, r7, lr}
 1947              		.cfi_def_cfa_offset 32
 1948              		.cfi_offset 4, -20
 1949              		.cfi_offset 5, -16
 1950              		.cfi_offset 6, -12
 1951              		.cfi_offset 7, -8
 1952              		.cfi_offset 14, -4
 532:..\common\vms/VMSWrapper.c ****     VMS_getSemaphore();
 1953              		.loc 1 532 0
 1954 0002 FFF7FEFF 		bl	VMS_getSemaphore
 1955              	.LVL228:
 1956              	.LBB42:
 1957              	.LBB43:
 1958              	.LBB44:
 533:..\common\vms/VMSWrapper.c ****     
 534:..\common\vms/VMSWrapper.c ****     for(uint32_t currOutput = 0; currOutput < SIGGEN_OUTPUTCOUNT; currOutput++){
 535:..\common\vms/VMSWrapper.c ****         for(uint8_t currVoice = 0; currVoice < SIGGEN_VOICECOUNT; currVoice++){
 536:..\common\vms/VMSWrapper.c ****             //precalculate voice data pointer, as this might be repeated multiple times in the foll
 537:..\common\vms/VMSWrapper.c ****             VMS_VoiceData_t * vData = &(voiceData[currOutput][currVoice]);
 1959              		.loc 1 537 0
 1960 0006 0F4D     		ldr	r5, .L202
 538:..\common\vms/VMSWrapper.c ****             
 539:..\common\vms/VMSWrapper.c ****             
 540:..\common\vms/VMSWrapper.c ****             //if the voice is off then we won't touch it. 
 541:..\common\vms/VMSWrapper.c ****             //TODO perhaps we should? This means decaying notes won't be affected by pw changes
 542:..\common\vms/VMSWrapper.c ****             if(!vData->on) continue;
 543:..\common\vms/VMSWrapper.c ****             
 544:..\common\vms/VMSWrapper.c ****             volatile uint32_t targetPw = param.pw;
 1961              		.loc 1 544 0
 1962 0008 0F4F     		ldr	r7, .L202+4
 1963              	.LBE44:
 1964              	.LBE43:
 1965              	.LBE42:
 532:..\common\vms/VMSWrapper.c ****     
 1966              		.loc 1 532 0
 1967 000a 0024     		movs	r4, #0
 1968              	.LBB47:
 1969              	.LBB46:
 1970              	.LBB45:
 537:..\common\vms/VMSWrapper.c ****             
 1971              		.loc 1 537 0
 1972 000c 7C26     		movs	r6, #124
 1973              	.LVL229:
 1974              	.L200:
 1975 000e 2B68     		ldr	r3, [r5]
 1976 0010 1968     		ldr	r1, [r3]
 1977 0012 06FB0411 		mla	r1, r6, r4, r1
 1978              	.LVL230:
 542:..\common\vms/VMSWrapper.c ****             
 1979              		.loc 1 542 0
 1980 0016 CB6C     		ldr	r3, [r1, #76]
 1981 0018 6BB1     		cbz	r3, .L198
 1982              		.loc 1 544 0
 1983 001a 3B88     		ldrh	r3, [r7]
 545:..\common\vms/VMSWrapper.c **** 
ARM GAS  C:\Users\chemi\AppData\Local\Temp\ccr4fFHe.s 			page 49


 546:..\common\vms/VMSWrapper.c ****             //did we actually change something?
 547:..\common\vms/VMSWrapper.c ****             if(vData->onTimeTarget != targetPw){
 1984              		.loc 1 547 0
 1985 001c 0A69     		ldr	r2, [r1, #16]
 544:..\common\vms/VMSWrapper.c **** 
 1986              		.loc 1 544 0
 1987 001e 0193     		str	r3, [sp, #4]
 1988              		.loc 1 547 0
 1989 0020 019B     		ldr	r3, [sp, #4]
 1990 0022 9A42     		cmp	r2, r3
 1991 0024 07D0     		beq	.L198
 548:..\common\vms/VMSWrapper.c ****                 //yes! update parameters
 549:..\common\vms/VMSWrapper.c ****                 vData->onTimeTarget = targetPw;
 1992              		.loc 1 549 0
 1993 0026 019B     		ldr	r3, [sp, #4]
 550:..\common\vms/VMSWrapper.c ****                 
 551:..\common\vms/VMSWrapper.c ****                 //call VMSW_setKnownValue to trigger a value recalculation
 552:..\common\vms/VMSWrapper.c ****                 VMSW_setKnownValue(onTime, vData->onTimeFactor, currOutput, currVoice);
 1994              		.loc 1 552 0
 1995 0028 0022     		movs	r2, #0
 549:..\common\vms/VMSWrapper.c ****                 
 1996              		.loc 1 549 0
 1997 002a 0B61     		str	r3, [r1, #16]
 1998              		.loc 1 552 0
 1999 002c 0220     		movs	r0, #2
 2000 002e 2346     		mov	r3, r4
 2001 0030 8969     		ldr	r1, [r1, #24]
 2002              	.LVL231:
 2003 0032 FFF7FEFF 		bl	VMSW_setKnownValue
 2004              	.LVL232:
 2005              	.L198:
 2006 0036 0134     		adds	r4, r4, #1
 2007              	.LVL233:
 2008              	.LBE45:
 535:..\common\vms/VMSWrapper.c ****             //precalculate voice data pointer, as this might be repeated multiple times in the foll
 2009              		.loc 1 535 0 discriminator 2
 2010 0038 062C     		cmp	r4, #6
 2011 003a E8D1     		bne	.L200
 2012              	.LVL234:
 2013              	.LBE46:
 2014              	.LBE47:
 553:..\common\vms/VMSWrapper.c ****             }
 554:..\common\vms/VMSWrapper.c ****         }
 555:..\common\vms/VMSWrapper.c ****     }
 556:..\common\vms/VMSWrapper.c ****     
 557:..\common\vms/VMSWrapper.c ****     VMS_returnSemaphore();
 2015              		.loc 1 557 0
 2016 003c FFF7FEFF 		bl	VMS_returnSemaphore
 2017              	.LVL235:
 558:..\common\vms/VMSWrapper.c **** }...
 2018              		.loc 1 558 0
 2019 0040 03B0     		add	sp, sp, #12
 2020              		.cfi_def_cfa_offset 20
 2021              		@ sp needed
 2022 0042 F0BD     		pop	{r4, r5, r6, r7, pc}
 2023              	.L203:
 2024              		.align	2
ARM GAS  C:\Users\chemi\AppData\Local\Temp\ccr4fFHe.s 			page 50


 2025              	.L202:
 2026 0044 00000000 		.word	.LANCHOR0
 2027 0048 00000000 		.word	param
 2028              		.cfi_endproc
 2029              	.LFE86:
 2030              		.size	VMSW_pulseWidthChangeHandler, .-VMSW_pulseWidthChangeHandler
 2031              		.comm	interrupter,12,4
 2032              		.section	.rodata.str1.1,"aMS",%progbits,1
 2033              	.LC0:
 2034 0000 564D5320 		.ascii	"VMS Task\000"
 2034      5461736B 
 2034      00
 2035              		.bss
 2036              		.align	2
 2037              		.set	.LANCHOR0,. + 0
 2038              		.type	voiceData, %object
 2039              		.size	voiceData, 4
 2040              	voiceData:
 2041 0000 00000000 		.space	4
 2042              		.text
 2043              	.Letext0:
 2044              		.file 2 "c:\\program files (x86)\\cypress\\psoc creator\\4.4\\psoc creator\\import\\gnu\\arm\\5.4.
 2045              		.file 3 "c:\\program files (x86)\\cypress\\psoc creator\\4.4\\psoc creator\\import\\gnu\\arm\\5.4.
 2046              		.file 4 "..\\common\\rtos\\portable\\GCC\\ARM_CM3/portmacro.h"
 2047              		.file 5 "..\\common\\vms\\VMS.h"
 2048              		.file 6 "..\\common\\rtos\\include/timers.h"
 2049              		.file 7 "..\\common\\ud3core/SignalGenerator.h"
 2050              		.file 8 "..\\common\\ud3core/interrupter.h"
 2051              		.file 9 "..\\common\\ud3core/cli_common.h"
 2052              		.file 10 "Generated_Source\\PSoC5/core_cm3.h"
 2053              		.file 11 "..\\common\\vms\\VMSDefaults.h"
 2054              		.file 12 "..\\common\\ud3core/helper/nvm.h"
 2055              		.file 13 "..\\common\\rtos\\include/task.h"
 2056              		.file 14 "..\\common\\rtos\\include/portable.h"
 2057              		.file 15 "..\\common\\vms\\MidiProcessor.h"
 2058              		.section	.debug_info,"",%progbits
 2059              	.Ldebug_info0:
 2060 0000 51150000 		.4byte	0x1551
 2061 0004 0400     		.2byte	0x4
 2062 0006 00000000 		.4byte	.Ldebug_abbrev0
 2063 000a 04       		.byte	0x4
 2064 000b 01       		.uleb128 0x1
 2065 000c 27000000 		.4byte	.LASF281
 2066 0010 0C       		.byte	0xc
 2067 0011 DC080000 		.4byte	.LASF282
 2068 0015 32050000 		.4byte	.LASF283
 2069 0019 B0000000 		.4byte	.Ldebug_ranges0+0xb0
 2070 001d 00000000 		.4byte	0
 2071 0021 00000000 		.4byte	.Ldebug_line0
 2072 0025 02       		.uleb128 0x2
 2073 0026 01       		.byte	0x1
 2074 0027 06       		.byte	0x6
 2075 0028 62030000 		.4byte	.LASF0
 2076 002c 03       		.uleb128 0x3
 2077 002d 55020000 		.4byte	.LASF3
 2078 0031 02       		.byte	0x2
 2079 0032 1D       		.byte	0x1d
ARM GAS  C:\Users\chemi\AppData\Local\Temp\ccr4fFHe.s 			page 51


 2080 0033 37000000 		.4byte	0x37
 2081 0037 02       		.uleb128 0x2
 2082 0038 01       		.byte	0x1
 2083 0039 08       		.byte	0x8
 2084 003a B6030000 		.4byte	.LASF1
 2085 003e 02       		.uleb128 0x2
 2086 003f 02       		.byte	0x2
 2087 0040 05       		.byte	0x5
 2088 0041 410C0000 		.4byte	.LASF2
 2089 0045 03       		.uleb128 0x3
 2090 0046 21050000 		.4byte	.LASF4
 2091 004a 02       		.byte	0x2
 2092 004b 2B       		.byte	0x2b
 2093 004c 50000000 		.4byte	0x50
 2094 0050 02       		.uleb128 0x2
 2095 0051 02       		.byte	0x2
 2096 0052 07       		.byte	0x7
 2097 0053 D10D0000 		.4byte	.LASF5
 2098 0057 03       		.uleb128 0x3
 2099 0058 240E0000 		.4byte	.LASF6
 2100 005c 02       		.byte	0x2
 2101 005d 3F       		.byte	0x3f
 2102 005e 62000000 		.4byte	0x62
 2103 0062 02       		.uleb128 0x2
 2104 0063 04       		.byte	0x4
 2105 0064 05       		.byte	0x5
 2106 0065 99020000 		.4byte	.LASF7
 2107 0069 03       		.uleb128 0x3
 2108 006a 1F080000 		.4byte	.LASF8
 2109 006e 02       		.byte	0x2
 2110 006f 41       		.byte	0x41
 2111 0070 74000000 		.4byte	0x74
 2112 0074 02       		.uleb128 0x2
 2113 0075 04       		.byte	0x4
 2114 0076 07       		.byte	0x7
 2115 0077 8D060000 		.4byte	.LASF9
 2116 007b 02       		.uleb128 0x2
 2117 007c 08       		.byte	0x8
 2118 007d 05       		.byte	0x5
 2119 007e 2A080000 		.4byte	.LASF10
 2120 0082 02       		.uleb128 0x2
 2121 0083 08       		.byte	0x8
 2122 0084 07       		.byte	0x7
 2123 0085 C30A0000 		.4byte	.LASF11
 2124 0089 04       		.uleb128 0x4
 2125 008a 04       		.byte	0x4
 2126 008b 05       		.byte	0x5
 2127 008c 696E7400 		.ascii	"int\000"
 2128 0090 02       		.uleb128 0x2
 2129 0091 04       		.byte	0x4
 2130 0092 07       		.byte	0x7
 2131 0093 25090000 		.4byte	.LASF12
 2132 0097 03       		.uleb128 0x3
 2133 0098 6E030000 		.4byte	.LASF13
 2134 009c 03       		.byte	0x3
 2135 009d 18       		.byte	0x18
 2136 009e 2C000000 		.4byte	0x2c
ARM GAS  C:\Users\chemi\AppData\Local\Temp\ccr4fFHe.s 			page 52


 2137 00a2 03       		.uleb128 0x3
 2138 00a3 ED0A0000 		.4byte	.LASF14
 2139 00a7 03       		.byte	0x3
 2140 00a8 24       		.byte	0x24
 2141 00a9 45000000 		.4byte	0x45
 2142 00ad 03       		.uleb128 0x3
 2143 00ae F2000000 		.4byte	.LASF15
 2144 00b2 03       		.byte	0x3
 2145 00b3 2C       		.byte	0x2c
 2146 00b4 57000000 		.4byte	0x57
 2147 00b8 03       		.uleb128 0x3
 2148 00b9 820D0000 		.4byte	.LASF16
 2149 00bd 03       		.byte	0x3
 2150 00be 30       		.byte	0x30
 2151 00bf 69000000 		.4byte	0x69
 2152 00c3 02       		.uleb128 0x2
 2153 00c4 04       		.byte	0x4
 2154 00c5 04       		.byte	0x4
 2155 00c6 D6080000 		.4byte	.LASF17
 2156 00ca 02       		.uleb128 0x2
 2157 00cb 08       		.byte	0x8
 2158 00cc 04       		.byte	0x4
 2159 00cd 67080000 		.4byte	.LASF18
 2160 00d1 02       		.uleb128 0x2
 2161 00d2 01       		.byte	0x1
 2162 00d3 08       		.byte	0x8
 2163 00d4 99040000 		.4byte	.LASF19
 2164 00d8 02       		.uleb128 0x2
 2165 00d9 04       		.byte	0x4
 2166 00da 07       		.byte	0x7
 2167 00db 1E000000 		.4byte	.LASF20
 2168 00df 05       		.uleb128 0x5
 2169 00e0 04       		.byte	0x4
 2170 00e1 06       		.uleb128 0x6
 2171 00e2 B8000000 		.4byte	0xb8
 2172 00e6 03       		.uleb128 0x3
 2173 00e7 FF0A0000 		.4byte	.LASF21
 2174 00eb 04       		.byte	0x4
 2175 00ec 39       		.byte	0x39
 2176 00ed 74000000 		.4byte	0x74
 2177 00f1 03       		.uleb128 0x3
 2178 00f2 220B0000 		.4byte	.LASF22
 2179 00f6 04       		.byte	0x4
 2180 00f7 3F       		.byte	0x3f
 2181 00f8 B8000000 		.4byte	0xb8
 2182 00fc 07       		.uleb128 0x7
 2183 00fd F3020000 		.4byte	.LASF120
 2184 0101 01       		.byte	0x1
 2185 0102 37000000 		.4byte	0x37
 2186 0106 07       		.byte	0x7
 2187 0107 22       		.byte	0x22
 2188 0108 31010000 		.4byte	0x131
 2189 010c 08       		.uleb128 0x8
 2190 010d 0F0A0000 		.4byte	.LASF23
 2191 0111 00       		.byte	0
 2192 0112 08       		.uleb128 0x8
 2193 0113 A50A0000 		.4byte	.LASF24
ARM GAS  C:\Users\chemi\AppData\Local\Temp\ccr4fFHe.s 			page 53


 2194 0117 01       		.byte	0x1
 2195 0118 08       		.uleb128 0x8
 2196 0119 6E080000 		.4byte	.LASF25
 2197 011d 02       		.byte	0x2
 2198 011e 08       		.uleb128 0x8
 2199 011f 030D0000 		.4byte	.LASF26
 2200 0123 03       		.byte	0x3
 2201 0124 08       		.uleb128 0x8
 2202 0125 BF010000 		.4byte	.LASF27
 2203 0129 04       		.byte	0x4
 2204 012a 08       		.uleb128 0x8
 2205 012b 72040000 		.4byte	.LASF28
 2206 012f 05       		.byte	0x5
 2207 0130 00       		.byte	0
 2208 0131 06       		.uleb128 0x6
 2209 0132 AD000000 		.4byte	0xad
 2210 0136 03       		.uleb128 0x3
 2211 0137 8B010000 		.4byte	.LASF29
 2212 013b 05       		.byte	0x5
 2213 013c 08       		.byte	0x8
 2214 013d 41010000 		.4byte	0x141
 2215 0141 09       		.uleb128 0x9
 2216 0142 E40D0000 		.4byte	.LASF42
 2217 0146 26       		.byte	0x26
 2218 0147 05       		.byte	0x5
 2219 0148 69       		.byte	0x69
 2220 0149 DB010000 		.4byte	0x1db
 2221 014d 0A       		.uleb128 0xa
 2222 014e 7C0B0000 		.4byte	.LASF30
 2223 0152 05       		.byte	0x5
 2224 0153 6B       		.byte	0x6b
 2225 0154 E4040000 		.4byte	0x4e4
 2226 0158 00       		.byte	0
 2227 0159 0A       		.uleb128 0xa
 2228 015a C7060000 		.4byte	.LASF31
 2229 015e 05       		.byte	0x5
 2230 015f 6C       		.byte	0x6c
 2231 0160 A2000000 		.4byte	0xa2
 2232 0164 08       		.byte	0x8
 2233 0165 0B       		.uleb128 0xb
 2234 0166 F60A0000 		.4byte	.LASF32
 2235 016a 05       		.byte	0x5
 2236 016b 6F       		.byte	0x6f
 2237 016c BE040000 		.4byte	0x4be
 2238 0170 01       		.byte	0x1
 2239 0171 08       		.byte	0x8
 2240 0172 00       		.byte	0
 2241 0173 0A       		.byte	0xa
 2242 0174 0B       		.uleb128 0xb
 2243 0175 BA010000 		.4byte	.LASF33
 2244 0179 05       		.byte	0x5
 2245 017a 70       		.byte	0x70
 2246 017b 7F030000 		.4byte	0x37f
 2247 017f 01       		.byte	0x1
 2248 0180 08       		.byte	0x8
 2249 0181 00       		.byte	0
 2250 0182 0B       		.byte	0xb
ARM GAS  C:\Users\chemi\AppData\Local\Temp\ccr4fFHe.s 			page 54


 2251 0183 0B       		.uleb128 0xb
 2252 0184 C0060000 		.4byte	.LASF34
 2253 0188 05       		.byte	0x5
 2254 0189 71       		.byte	0x71
 2255 018a 9A040000 		.4byte	0x49a
 2256 018e 02       		.byte	0x2
 2257 018f 10       		.byte	0x10
 2258 0190 00       		.byte	0
 2259 0191 0C       		.byte	0xc
 2260 0192 0A       		.uleb128 0xa
 2261 0193 A8060000 		.4byte	.LASF35
 2262 0197 05       		.byte	0x5
 2263 0198 73       		.byte	0x73
 2264 0199 AD000000 		.4byte	0xad
 2265 019d 0E       		.byte	0xe
 2266 019e 0A       		.uleb128 0xa
 2267 019f 760A0000 		.4byte	.LASF36
 2268 01a3 05       		.byte	0x5
 2269 01a4 74       		.byte	0x74
 2270 01a5 AD000000 		.4byte	0xad
 2271 01a9 12       		.byte	0x12
 2272 01aa 0A       		.uleb128 0xa
 2273 01ab 7D0A0000 		.4byte	.LASF37
 2274 01af 05       		.byte	0x5
 2275 01b0 75       		.byte	0x75
 2276 01b1 AD000000 		.4byte	0xad
 2277 01b5 16       		.byte	0x16
 2278 01b6 0A       		.uleb128 0xa
 2279 01b7 840A0000 		.4byte	.LASF38
 2280 01bb 05       		.byte	0x5
 2281 01bc 76       		.byte	0x76
 2282 01bd AD000000 		.4byte	0xad
 2283 01c1 1A       		.byte	0x1a
 2284 01c2 0A       		.uleb128 0xa
 2285 01c3 DE070000 		.4byte	.LASF39
 2286 01c7 05       		.byte	0x5
 2287 01c8 78       		.byte	0x78
 2288 01c9 B8000000 		.4byte	0xb8
 2289 01cd 1E       		.byte	0x1e
 2290 01ce 0A       		.uleb128 0xa
 2291 01cf 82050000 		.4byte	.LASF40
 2292 01d3 05       		.byte	0x5
 2293 01d4 79       		.byte	0x79
 2294 01d5 B8000000 		.4byte	0xb8
 2295 01d9 22       		.byte	0x22
 2296 01da 00       		.byte	0
 2297 01db 03       		.uleb128 0x3
 2298 01dc FC030000 		.4byte	.LASF41
 2299 01e0 05       		.byte	0x5
 2300 01e1 09       		.byte	0x9
 2301 01e2 E6010000 		.4byte	0x1e6
 2302 01e6 09       		.uleb128 0x9
 2303 01e7 5F0C0000 		.4byte	.LASF43
 2304 01eb 7C       		.byte	0x7c
 2305 01ec 05       		.byte	0x5
 2306 01ed 2C       		.byte	0x2c
 2307 01ee 4E030000 		.4byte	0x34e
ARM GAS  C:\Users\chemi\AppData\Local\Temp\ccr4fFHe.s 			page 55


 2308 01f2 0A       		.uleb128 0xa
 2309 01f3 33010000 		.4byte	.LASF44
 2310 01f7 05       		.byte	0x5
 2311 01f8 2D       		.byte	0x2d
 2312 01f9 B8000000 		.4byte	0xb8
 2313 01fd 00       		.byte	0
 2314 01fe 0A       		.uleb128 0xa
 2315 01ff 1A070000 		.4byte	.LASF45
 2316 0203 05       		.byte	0x5
 2317 0204 2E       		.byte	0x2e
 2318 0205 B8000000 		.4byte	0xb8
 2319 0209 04       		.byte	0x4
 2320 020a 0A       		.uleb128 0xa
 2321 020b 31030000 		.4byte	.LASF46
 2322 020f 05       		.byte	0x5
 2323 0210 2F       		.byte	0x2f
 2324 0211 AD000000 		.4byte	0xad
 2325 0215 08       		.byte	0x8
 2326 0216 0A       		.uleb128 0xa
 2327 0217 4B0D0000 		.4byte	.LASF47
 2328 021b 05       		.byte	0x5
 2329 021c 30       		.byte	0x30
 2330 021d B8000000 		.4byte	0xb8
 2331 0221 0C       		.byte	0xc
 2332 0222 0A       		.uleb128 0xa
 2333 0223 C3050000 		.4byte	.LASF48
 2334 0227 05       		.byte	0x5
 2335 0228 32       		.byte	0x32
 2336 0229 B8000000 		.4byte	0xb8
 2337 022d 10       		.byte	0x10
 2338 022e 0A       		.uleb128 0xa
 2339 022f 48080000 		.4byte	.LASF49
 2340 0233 05       		.byte	0x5
 2341 0234 33       		.byte	0x33
 2342 0235 B8000000 		.4byte	0xb8
 2343 0239 14       		.byte	0x14
 2344 023a 0A       		.uleb128 0xa
 2345 023b A10B0000 		.4byte	.LASF50
 2346 023f 05       		.byte	0x5
 2347 0240 34       		.byte	0x34
 2348 0241 AD000000 		.4byte	0xad
 2349 0245 18       		.byte	0x18
 2350 0246 0A       		.uleb128 0xa
 2351 0247 870B0000 		.4byte	.LASF51
 2352 024b 05       		.byte	0x5
 2353 024c 36       		.byte	0x36
 2354 024d B8000000 		.4byte	0xb8
 2355 0251 1C       		.byte	0x1c
 2356 0252 0A       		.uleb128 0xa
 2357 0253 34020000 		.4byte	.LASF52
 2358 0257 05       		.byte	0x5
 2359 0258 37       		.byte	0x37
 2360 0259 B8000000 		.4byte	0xb8
 2361 025d 20       		.byte	0x20
 2362 025e 0A       		.uleb128 0xa
 2363 025f 340C0000 		.4byte	.LASF53
 2364 0263 05       		.byte	0x5
ARM GAS  C:\Users\chemi\AppData\Local\Temp\ccr4fFHe.s 			page 56


 2365 0264 38       		.byte	0x38
 2366 0265 AD000000 		.4byte	0xad
 2367 0269 24       		.byte	0x24
 2368 026a 0A       		.uleb128 0xa
 2369 026b 00080000 		.4byte	.LASF54
 2370 026f 05       		.byte	0x5
 2371 0270 3A       		.byte	0x3a
 2372 0271 B8000000 		.4byte	0xb8
 2373 0275 28       		.byte	0x28
 2374 0276 0A       		.uleb128 0xa
 2375 0277 CE000000 		.4byte	.LASF55
 2376 027b 05       		.byte	0x5
 2377 027c 3B       		.byte	0x3b
 2378 027d B8000000 		.4byte	0xb8
 2379 0281 2C       		.byte	0x2c
 2380 0282 0A       		.uleb128 0xa
 2381 0283 030E0000 		.4byte	.LASF56
 2382 0287 05       		.byte	0x5
 2383 0288 3C       		.byte	0x3c
 2384 0289 AD000000 		.4byte	0xad
 2385 028d 30       		.byte	0x30
 2386 028e 0A       		.uleb128 0xa
 2387 028f B60D0000 		.4byte	.LASF57
 2388 0293 05       		.byte	0x5
 2389 0294 3E       		.byte	0x3e
 2390 0295 B8000000 		.4byte	0xb8
 2391 0299 34       		.byte	0x34
 2392 029a 0A       		.uleb128 0xa
 2393 029b 22040000 		.4byte	.LASF58
 2394 029f 05       		.byte	0x5
 2395 02a0 3F       		.byte	0x3f
 2396 02a1 B8000000 		.4byte	0xb8
 2397 02a5 38       		.byte	0x38
 2398 02a6 0A       		.uleb128 0xa
 2399 02a7 AE0B0000 		.4byte	.LASF59
 2400 02ab 05       		.byte	0x5
 2401 02ac 40       		.byte	0x40
 2402 02ad B8000000 		.4byte	0xb8
 2403 02b1 3C       		.byte	0x3c
 2404 02b2 0A       		.uleb128 0xa
 2405 02b3 38080000 		.4byte	.LASF60
 2406 02b7 05       		.byte	0x5
 2407 02b8 41       		.byte	0x41
 2408 02b9 B8000000 		.4byte	0xb8
 2409 02bd 40       		.byte	0x40
 2410 02be 0A       		.uleb128 0xa
 2411 02bf C2020000 		.4byte	.LASF61
 2412 02c3 05       		.byte	0x5
 2413 02c4 43       		.byte	0x43
 2414 02c5 B8000000 		.4byte	0xb8
 2415 02c9 44       		.byte	0x44
 2416 02ca 0A       		.uleb128 0xa
 2417 02cb 60090000 		.4byte	.LASF62
 2418 02cf 05       		.byte	0x5
 2419 02d0 44       		.byte	0x44
 2420 02d1 AD000000 		.4byte	0xad
 2421 02d5 48       		.byte	0x48
ARM GAS  C:\Users\chemi\AppData\Local\Temp\ccr4fFHe.s 			page 57


 2422 02d6 0C       		.uleb128 0xc
 2423 02d7 6F6E00   		.ascii	"on\000"
 2424 02da 05       		.byte	0x5
 2425 02db 46       		.byte	0x46
 2426 02dc B8000000 		.4byte	0xb8
 2427 02e0 4C       		.byte	0x4c
 2428 02e1 0A       		.uleb128 0xa
 2429 02e2 82050000 		.4byte	.LASF40
 2430 02e6 05       		.byte	0x5
 2431 02e7 48       		.byte	0x48
 2432 02e8 B8000000 		.4byte	0xb8
 2433 02ec 50       		.byte	0x50
 2434 02ed 0A       		.uleb128 0xa
 2435 02ee 80010000 		.4byte	.LASF63
 2436 02f2 05       		.byte	0x5
 2437 02f3 49       		.byte	0x49
 2438 02f4 B8000000 		.4byte	0xb8
 2439 02f8 54       		.byte	0x54
 2440 02f9 0A       		.uleb128 0xa
 2441 02fa 0D020000 		.4byte	.LASF64
 2442 02fe 05       		.byte	0x5
 2443 02ff 4A       		.byte	0x4a
 2444 0300 B8000000 		.4byte	0xb8
 2445 0304 58       		.byte	0x58
 2446 0305 0A       		.uleb128 0xa
 2447 0306 410E0000 		.4byte	.LASF65
 2448 030a 05       		.byte	0x5
 2449 030b 4C       		.byte	0x4c
 2450 030c B8000000 		.4byte	0xb8
 2451 0310 5C       		.byte	0x5c
 2452 0311 0A       		.uleb128 0xa
 2453 0312 E7070000 		.4byte	.LASF66
 2454 0316 05       		.byte	0x5
 2455 0317 4D       		.byte	0x4d
 2456 0318 97000000 		.4byte	0x97
 2457 031c 60       		.byte	0x60
 2458 031d 0A       		.uleb128 0xa
 2459 031e B5060000 		.4byte	.LASF67
 2460 0322 05       		.byte	0x5
 2461 0323 4E       		.byte	0x4e
 2462 0324 97000000 		.4byte	0x97
 2463 0328 61       		.byte	0x61
 2464 0329 0A       		.uleb128 0xa
 2465 032a C0000000 		.4byte	.LASF68
 2466 032e 05       		.byte	0x5
 2467 032f 50       		.byte	0x50
 2468 0330 C9040000 		.4byte	0x4c9
 2469 0334 64       		.byte	0x64
 2470 0335 0A       		.uleb128 0xa
 2471 0336 32090000 		.4byte	.LASF69
 2472 033a 05       		.byte	0x5
 2473 033b 53       		.byte	0x53
 2474 033c B8000000 		.4byte	0xb8
 2475 0340 74       		.byte	0x74
 2476 0341 0A       		.uleb128 0xa
 2477 0342 5C0D0000 		.4byte	.LASF70
 2478 0346 05       		.byte	0x5
ARM GAS  C:\Users\chemi\AppData\Local\Temp\ccr4fFHe.s 			page 58


 2479 0347 55       		.byte	0x55
 2480 0348 B8000000 		.4byte	0xb8
 2481 034c 78       		.byte	0x78
 2482 034d 00       		.byte	0
 2483 034e 0D       		.uleb128 0xd
 2484 034f 01       		.byte	0x1
 2485 0350 37000000 		.4byte	0x37
 2486 0354 05       		.byte	0x5
 2487 0355 0C       		.byte	0xc
 2488 0356 7F030000 		.4byte	0x37f
 2489 035a 08       		.uleb128 0x8
 2490 035b E7060000 		.4byte	.LASF71
 2491 035f 00       		.byte	0
 2492 0360 08       		.uleb128 0x8
 2493 0361 130C0000 		.4byte	.LASF72
 2494 0365 01       		.byte	0x1
 2495 0366 08       		.uleb128 0x8
 2496 0367 12000000 		.4byte	.LASF73
 2497 036b 02       		.byte	0x2
 2498 036c 08       		.uleb128 0x8
 2499 036d 1A0B0000 		.4byte	.LASF74
 2500 0371 03       		.byte	0x3
 2501 0372 08       		.uleb128 0x8
 2502 0373 91020000 		.4byte	.LASF75
 2503 0377 04       		.byte	0x4
 2504 0378 08       		.uleb128 0x8
 2505 0379 0F0E0000 		.4byte	.LASF76
 2506 037d 05       		.byte	0x5
 2507 037e 00       		.byte	0
 2508 037f 03       		.uleb128 0x3
 2509 0380 070C0000 		.4byte	.LASF77
 2510 0384 05       		.byte	0x5
 2511 0385 0C       		.byte	0xc
 2512 0386 4E030000 		.4byte	0x34e
 2513 038a 0D       		.uleb128 0xd
 2514 038b 02       		.byte	0x2
 2515 038c 50000000 		.4byte	0x50
 2516 0390 05       		.byte	0x5
 2517 0391 0D       		.byte	0xd
 2518 0392 9A040000 		.4byte	0x49a
 2519 0396 08       		.uleb128 0x8
 2520 0397 7B030000 		.4byte	.LASF78
 2521 039b 00       		.byte	0
 2522 039c 08       		.uleb128 0x8
 2523 039d 17050000 		.4byte	.LASF79
 2524 03a1 01       		.byte	0x1
 2525 03a2 08       		.uleb128 0x8
 2526 03a3 60080000 		.4byte	.LASF80
 2527 03a7 02       		.byte	0x2
 2528 03a8 08       		.uleb128 0x8
 2529 03a9 710C0000 		.4byte	.LASF81
 2530 03ad 03       		.byte	0x3
 2531 03ae 08       		.uleb128 0x8
 2532 03af F2050000 		.4byte	.LASF82
 2533 03b3 04       		.byte	0x4
 2534 03b4 08       		.uleb128 0x8
 2535 03b5 4B0C0000 		.4byte	.LASF83
ARM GAS  C:\Users\chemi\AppData\Local\Temp\ccr4fFHe.s 			page 59


 2536 03b9 05       		.byte	0x5
 2537 03ba 08       		.uleb128 0x8
 2538 03bb CC080000 		.4byte	.LASF84
 2539 03bf 06       		.byte	0x6
 2540 03c0 08       		.uleb128 0x8
 2541 03c1 1A070000 		.4byte	.LASF45
 2542 03c5 07       		.byte	0x7
 2543 03c6 08       		.uleb128 0x8
 2544 03c7 33010000 		.4byte	.LASF44
 2545 03cb 08       		.byte	0x8
 2546 03cc 08       		.uleb128 0x8
 2547 03cd 31030000 		.4byte	.LASF46
 2548 03d1 09       		.byte	0x9
 2549 03d2 08       		.uleb128 0x8
 2550 03d3 5A090000 		.4byte	.LASF85
 2551 03d7 0A       		.byte	0xa
 2552 03d8 08       		.uleb128 0x8
 2553 03d9 F3060000 		.4byte	.LASF86
 2554 03dd 0B       		.byte	0xb
 2555 03de 08       		.uleb128 0x8
 2556 03df 78080000 		.4byte	.LASF87
 2557 03e3 0C       		.byte	0xc
 2558 03e4 08       		.uleb128 0x8
 2559 03e5 7E080000 		.4byte	.LASF88
 2560 03e9 0D       		.byte	0xd
 2561 03ea 08       		.uleb128 0x8
 2562 03eb 84080000 		.4byte	.LASF89
 2563 03ef 0E       		.byte	0xe
 2564 03f0 08       		.uleb128 0x8
 2565 03f1 8A080000 		.4byte	.LASF90
 2566 03f5 0F       		.byte	0xf
 2567 03f6 08       		.uleb128 0x8
 2568 03f7 C60B0000 		.4byte	.LASF91
 2569 03fb 10       		.byte	0x10
 2570 03fc 08       		.uleb128 0x8
 2571 03fd CD0B0000 		.4byte	.LASF92
 2572 0401 11       		.byte	0x11
 2573 0402 08       		.uleb128 0x8
 2574 0403 D40B0000 		.4byte	.LASF93
 2575 0407 12       		.byte	0x12
 2576 0408 08       		.uleb128 0x8
 2577 0409 DB0B0000 		.4byte	.LASF94
 2578 040d 13       		.byte	0x13
 2579 040e 08       		.uleb128 0x8
 2580 040f E20B0000 		.4byte	.LASF95
 2581 0413 14       		.byte	0x14
 2582 0414 08       		.uleb128 0x8
 2583 0415 E90B0000 		.4byte	.LASF96
 2584 0419 15       		.byte	0x15
 2585 041a 08       		.uleb128 0x8
 2586 041b F00B0000 		.4byte	.LASF97
 2587 041f 16       		.byte	0x16
 2588 0420 08       		.uleb128 0x8
 2589 0421 F70B0000 		.4byte	.LASF98
 2590 0425 17       		.byte	0x17
 2591 0426 08       		.uleb128 0x8
 2592 0427 7B0C0000 		.4byte	.LASF99
ARM GAS  C:\Users\chemi\AppData\Local\Temp\ccr4fFHe.s 			page 60


 2593 042b 18       		.byte	0x18
 2594 042c 08       		.uleb128 0x8
 2595 042d 820C0000 		.4byte	.LASF100
 2596 0431 19       		.byte	0x19
 2597 0432 08       		.uleb128 0x8
 2598 0433 890C0000 		.4byte	.LASF101
 2599 0437 1A       		.byte	0x1a
 2600 0438 08       		.uleb128 0x8
 2601 0439 900C0000 		.4byte	.LASF102
 2602 043d 1B       		.byte	0x1b
 2603 043e 08       		.uleb128 0x8
 2604 043f 970C0000 		.4byte	.LASF103
 2605 0443 1C       		.byte	0x1c
 2606 0444 08       		.uleb128 0x8
 2607 0445 9E0C0000 		.4byte	.LASF104
 2608 0449 1D       		.byte	0x1d
 2609 044a 08       		.uleb128 0x8
 2610 044b A50C0000 		.4byte	.LASF105
 2611 044f 1E       		.byte	0x1e
 2612 0450 08       		.uleb128 0x8
 2613 0451 AC0C0000 		.4byte	.LASF106
 2614 0455 1F       		.byte	0x1f
 2615 0456 08       		.uleb128 0x8
 2616 0457 B30C0000 		.4byte	.LASF107
 2617 045b 20       		.byte	0x20
 2618 045c 08       		.uleb128 0x8
 2619 045d BA0C0000 		.4byte	.LASF108
 2620 0461 21       		.byte	0x21
 2621 0462 08       		.uleb128 0x8
 2622 0463 FB040000 		.4byte	.LASF109
 2623 0467 22       		.byte	0x22
 2624 0468 08       		.uleb128 0x8
 2625 0469 0C0D0000 		.4byte	.LASF110
 2626 046d 23       		.byte	0x23
 2627 046e 08       		.uleb128 0x8
 2628 046f 670D0000 		.4byte	.LASF111
 2629 0473 24       		.byte	0x24
 2630 0474 08       		.uleb128 0x8
 2631 0475 220D0000 		.4byte	.LASF112
 2632 0479 25       		.byte	0x25
 2633 047a 08       		.uleb128 0x8
 2634 047b 34020000 		.4byte	.LASF52
 2635 047f 26       		.byte	0x26
 2636 0480 08       		.uleb128 0x8
 2637 0481 870B0000 		.4byte	.LASF51
 2638 0485 27       		.byte	0x27
 2639 0486 08       		.uleb128 0x8
 2640 0487 340C0000 		.4byte	.LASF53
 2641 048b 28       		.byte	0x28
 2642 048c 08       		.uleb128 0x8
 2643 048d F9020000 		.4byte	.LASF113
 2644 0491 29       		.byte	0x29
 2645 0492 0E       		.uleb128 0xe
 2646 0493 4B0E0000 		.4byte	.LASF114
 2647 0497 FFFF     		.2byte	0xffff
 2648 0499 00       		.byte	0
 2649 049a 03       		.uleb128 0x3
ARM GAS  C:\Users\chemi\AppData\Local\Temp\ccr4fFHe.s 			page 61


 2650 049b 54040000 		.4byte	.LASF115
 2651 049f 05       		.byte	0x5
 2652 04a0 0D       		.byte	0xd
 2653 04a1 8A030000 		.4byte	0x38a
 2654 04a5 0D       		.uleb128 0xd
 2655 04a6 01       		.byte	0x1
 2656 04a7 37000000 		.4byte	0x37
 2657 04ab 05       		.byte	0x5
 2658 04ac 0F       		.byte	0xf
 2659 04ad BE040000 		.4byte	0x4be
 2660 04b1 08       		.uleb128 0x8
 2661 04b2 EC0C0000 		.4byte	.LASF116
 2662 04b6 00       		.byte	0
 2663 04b7 08       		.uleb128 0x8
 2664 04b8 D0050000 		.4byte	.LASF117
 2665 04bc 01       		.byte	0x1
 2666 04bd 00       		.byte	0
 2667 04be 03       		.uleb128 0x3
 2668 04bf AE080000 		.4byte	.LASF118
 2669 04c3 05       		.byte	0x5
 2670 04c4 0F       		.byte	0xf
 2671 04c5 A5040000 		.4byte	0x4a5
 2672 04c9 0F       		.uleb128 0xf
 2673 04ca AD000000 		.4byte	0xad
 2674 04ce D9040000 		.4byte	0x4d9
 2675 04d2 10       		.uleb128 0x10
 2676 04d3 D8000000 		.4byte	0xd8
 2677 04d7 03       		.byte	0x3
 2678 04d8 00       		.byte	0
 2679 04d9 11       		.uleb128 0x11
 2680 04da 04       		.byte	0x4
 2681 04db DF040000 		.4byte	0x4df
 2682 04df 12       		.uleb128 0x12
 2683 04e0 36010000 		.4byte	0x136
 2684 04e4 0F       		.uleb128 0xf
 2685 04e5 A2000000 		.4byte	0xa2
 2686 04e9 F4040000 		.4byte	0x4f4
 2687 04ed 10       		.uleb128 0x10
 2688 04ee D8000000 		.4byte	0xd8
 2689 04f2 03       		.byte	0x3
 2690 04f3 00       		.byte	0
 2691 04f4 03       		.uleb128 0x3
 2692 04f5 3B070000 		.4byte	.LASF119
 2693 04f9 06       		.byte	0x6
 2694 04fa 4E       		.byte	0x4e
 2695 04fb FF040000 		.4byte	0x4ff
 2696 04ff 11       		.uleb128 0x11
 2697 0500 04       		.byte	0x4
 2698 0501 05050000 		.4byte	0x505
 2699 0505 13       		.uleb128 0x13
 2700 0506 A2070000 		.4byte	.LASF284
 2701 050a 07       		.uleb128 0x7
 2702 050b 0A090000 		.4byte	.LASF121
 2703 050f 01       		.byte	0x1
 2704 0510 37000000 		.4byte	0x37
 2705 0514 08       		.byte	0x8
 2706 0515 38       		.byte	0x38
ARM GAS  C:\Users\chemi\AppData\Local\Temp\ccr4fFHe.s 			page 62


 2707 0516 27050000 		.4byte	0x527
 2708 051a 08       		.uleb128 0x8
 2709 051b 2D0B0000 		.4byte	.LASF122
 2710 051f 00       		.byte	0
 2711 0520 08       		.uleb128 0x8
 2712 0521 98030000 		.4byte	.LASF123
 2713 0525 01       		.byte	0x1
 2714 0526 00       		.byte	0
 2715 0527 07       		.uleb128 0x7
 2716 0528 67020000 		.4byte	.LASF124
 2717 052c 01       		.byte	0x1
 2718 052d 37000000 		.4byte	0x37
 2719 0531 08       		.byte	0x8
 2720 0532 3D       		.byte	0x3d
 2721 0533 4A050000 		.4byte	0x54a
 2722 0537 08       		.uleb128 0x8
 2723 0538 D3020000 		.4byte	.LASF125
 2724 053c 00       		.byte	0
 2725 053d 08       		.uleb128 0x8
 2726 053e A2090000 		.4byte	.LASF126
 2727 0542 01       		.byte	0x1
 2728 0543 08       		.uleb128 0x8
 2729 0544 69060000 		.4byte	.LASF127
 2730 0548 02       		.byte	0x2
 2731 0549 00       		.byte	0
 2732 054a 07       		.uleb128 0x7
 2733 054b 00000000 		.4byte	.LASF128
 2734 054f 01       		.byte	0x1
 2735 0550 37000000 		.4byte	0x37
 2736 0554 08       		.byte	0x8
 2737 0555 43       		.byte	0x43
 2738 0556 67050000 		.4byte	0x567
 2739 055a 08       		.uleb128 0x8
 2740 055b C5000000 		.4byte	.LASF129
 2741 055f 00       		.byte	0
 2742 0560 08       		.uleb128 0x8
 2743 0561 DB000000 		.4byte	.LASF130
 2744 0565 01       		.byte	0x1
 2745 0566 00       		.byte	0
 2746 0567 07       		.uleb128 0x7
 2747 0568 88050000 		.4byte	.LASF131
 2748 056c 01       		.byte	0x1
 2749 056d 37000000 		.4byte	0x37
 2750 0571 08       		.byte	0x8
 2751 0572 49       		.byte	0x49
 2752 0573 84050000 		.4byte	0x584
 2753 0577 08       		.uleb128 0x8
 2754 0578 AB050000 		.4byte	.LASF132
 2755 057c 00       		.byte	0
 2756 057d 08       		.uleb128 0x8
 2757 057e 1A020000 		.4byte	.LASF133
 2758 0582 01       		.byte	0x1
 2759 0583 00       		.byte	0
 2760 0584 14       		.uleb128 0x14
 2761 0585 0C       		.byte	0xc
 2762 0586 08       		.byte	0x8
 2763 0587 4E       		.byte	0x4e
ARM GAS  C:\Users\chemi\AppData\Local\Temp\ccr4fFHe.s 			page 63


 2764 0588 E0050000 		.4byte	0x5e0
 2765 058c 0C       		.uleb128 0xc
 2766 058d 707700   		.ascii	"pw\000"
 2767 0590 08       		.byte	0x8
 2768 0591 50       		.byte	0x50
 2769 0592 A2000000 		.4byte	0xa2
 2770 0596 00       		.byte	0
 2771 0597 0C       		.uleb128 0xc
 2772 0598 70726400 		.ascii	"prd\000"
 2773 059c 08       		.byte	0x8
 2774 059d 51       		.byte	0x51
 2775 059e A2000000 		.4byte	0xa2
 2776 05a2 02       		.byte	0x2
 2777 05a3 0A       		.uleb128 0xa
 2778 05a4 76030000 		.4byte	.LASF134
 2779 05a8 08       		.byte	0x8
 2780 05a9 52       		.byte	0x52
 2781 05aa 27050000 		.4byte	0x527
 2782 05ae 04       		.byte	0x4
 2783 05af 0A       		.uleb128 0xa
 2784 05b0 DA090000 		.4byte	.LASF135
 2785 05b4 08       		.byte	0x8
 2786 05b5 53       		.byte	0x53
 2787 05b6 4A050000 		.4byte	0x54a
 2788 05ba 05       		.byte	0x5
 2789 05bb 0C       		.uleb128 0xc
 2790 05bc 6D6F6400 		.ascii	"mod\000"
 2791 05c0 08       		.byte	0x8
 2792 05c1 54       		.byte	0x54
 2793 05c2 67050000 		.4byte	0x567
 2794 05c6 06       		.byte	0x6
 2795 05c7 0A       		.uleb128 0xa
 2796 05c8 D7050000 		.4byte	.LASF136
 2797 05cc 08       		.byte	0x8
 2798 05cd 55       		.byte	0x55
 2799 05ce 0A050000 		.4byte	0x50a
 2800 05d2 07       		.byte	0x7
 2801 05d3 0A       		.uleb128 0xa
 2802 05d4 2E0E0000 		.4byte	.LASF137
 2803 05d8 08       		.byte	0x8
 2804 05d9 56       		.byte	0x56
 2805 05da F4040000 		.4byte	0x4f4
 2806 05de 08       		.byte	0x8
 2807 05df 00       		.byte	0
 2808 05e0 03       		.uleb128 0x3
 2809 05e1 F7080000 		.4byte	.LASF138
 2810 05e5 08       		.byte	0x8
 2811 05e6 57       		.byte	0x57
 2812 05e7 84050000 		.4byte	0x584
 2813 05eb 09       		.uleb128 0x9
 2814 05ec 680A0000 		.4byte	.LASF139
 2815 05f0 7C       		.byte	0x7c
 2816 05f1 09       		.byte	0x9
 2817 05f2 4B       		.byte	0x4b
 2818 05f3 98080000 		.4byte	0x898
 2819 05f7 0A       		.uleb128 0xa
 2820 05f8 FE0B0000 		.4byte	.LASF140
ARM GAS  C:\Users\chemi\AppData\Local\Temp\ccr4fFHe.s 			page 64


 2821 05fc 09       		.byte	0x9
 2822 05fd 4C       		.byte	0x4c
 2823 05fe 97000000 		.4byte	0x97
 2824 0602 00       		.byte	0
 2825 0603 0A       		.uleb128 0xa
 2826 0604 FB050000 		.4byte	.LASF141
 2827 0608 09       		.byte	0x9
 2828 0609 4D       		.byte	0x4d
 2829 060a A2000000 		.4byte	0xa2
 2830 060e 02       		.byte	0x2
 2831 060f 0A       		.uleb128 0xa
 2832 0610 620E0000 		.4byte	.LASF142
 2833 0614 09       		.byte	0x9
 2834 0615 4E       		.byte	0x4e
 2835 0616 A2000000 		.4byte	0xa2
 2836 061a 04       		.byte	0x4
 2837 061b 0A       		.uleb128 0xa
 2838 061c F5070000 		.4byte	.LASF143
 2839 0620 09       		.byte	0x9
 2840 0621 4F       		.byte	0x4f
 2841 0622 A2000000 		.4byte	0xa2
 2842 0626 06       		.byte	0x6
 2843 0627 0A       		.uleb128 0xa
 2844 0628 0C050000 		.4byte	.LASF144
 2845 062c 09       		.byte	0x9
 2846 062d 50       		.byte	0x50
 2847 062e A2000000 		.4byte	0xa2
 2848 0632 08       		.byte	0x8
 2849 0633 0A       		.uleb128 0xa
 2850 0634 A70D0000 		.4byte	.LASF145
 2851 0638 09       		.byte	0x9
 2852 0639 51       		.byte	0x51
 2853 063a A2000000 		.4byte	0xa2
 2854 063e 0A       		.byte	0xa
 2855 063f 0A       		.uleb128 0xa
 2856 0640 C4030000 		.4byte	.LASF146
 2857 0644 09       		.byte	0x9
 2858 0645 52       		.byte	0x52
 2859 0646 A2000000 		.4byte	0xa2
 2860 064a 0C       		.byte	0xc
 2861 064b 0A       		.uleb128 0xa
 2862 064c 6A050000 		.4byte	.LASF147
 2863 0650 09       		.byte	0x9
 2864 0651 53       		.byte	0x53
 2865 0652 A2000000 		.4byte	0xa2
 2866 0656 0E       		.byte	0xe
 2867 0657 0A       		.uleb128 0xa
 2868 0658 5D0B0000 		.4byte	.LASF148
 2869 065c 09       		.byte	0x9
 2870 065d 54       		.byte	0x54
 2871 065e 97000000 		.4byte	0x97
 2872 0662 10       		.byte	0x10
 2873 0663 0A       		.uleb128 0xa
 2874 0664 7F090000 		.4byte	.LASF149
 2875 0668 09       		.byte	0x9
 2876 0669 55       		.byte	0x55
 2877 066a 97000000 		.4byte	0x97
ARM GAS  C:\Users\chemi\AppData\Local\Temp\ccr4fFHe.s 			page 65


 2878 066e 11       		.byte	0x11
 2879 066f 0A       		.uleb128 0xa
 2880 0670 7B060000 		.4byte	.LASF150
 2881 0674 09       		.byte	0x9
 2882 0675 56       		.byte	0x56
 2883 0676 A2000000 		.4byte	0xa2
 2884 067a 12       		.byte	0x12
 2885 067b 0A       		.uleb128 0xa
 2886 067c 26070000 		.4byte	.LASF151
 2887 0680 09       		.byte	0x9
 2888 0681 57       		.byte	0x57
 2889 0682 A2000000 		.4byte	0xa2
 2890 0686 14       		.byte	0x14
 2891 0687 0A       		.uleb128 0xa
 2892 0688 570E0000 		.4byte	.LASF152
 2893 068c 09       		.byte	0x9
 2894 068d 58       		.byte	0x58
 2895 068e A2000000 		.4byte	0xa2
 2896 0692 16       		.byte	0x16
 2897 0693 0A       		.uleb128 0xa
 2898 0694 2C0A0000 		.4byte	.LASF153
 2899 0698 09       		.byte	0x9
 2900 0699 59       		.byte	0x59
 2901 069a A2000000 		.4byte	0xa2
 2902 069e 18       		.byte	0x18
 2903 069f 0A       		.uleb128 0xa
 2904 06a0 670B0000 		.4byte	.LASF154
 2905 06a4 09       		.byte	0x9
 2906 06a5 5A       		.byte	0x5a
 2907 06a6 A2000000 		.4byte	0xa2
 2908 06aa 1A       		.byte	0x1a
 2909 06ab 0A       		.uleb128 0xa
 2910 06ac 540C0000 		.4byte	.LASF155
 2911 06b0 09       		.byte	0x9
 2912 06b1 5B       		.byte	0x5b
 2913 06b2 A2000000 		.4byte	0xa2
 2914 06b6 1C       		.byte	0x1c
 2915 06b7 0A       		.uleb128 0xa
 2916 06b8 940B0000 		.4byte	.LASF156
 2917 06bc 09       		.byte	0x9
 2918 06bd 5C       		.byte	0x5c
 2919 06be 97000000 		.4byte	0x97
 2920 06c2 1E       		.byte	0x1e
 2921 06c3 0A       		.uleb128 0xa
 2922 06c4 9F050000 		.4byte	.LASF157
 2923 06c8 09       		.byte	0x9
 2924 06c9 5D       		.byte	0x5d
 2925 06ca A2000000 		.4byte	0xa2
 2926 06ce 20       		.byte	0x20
 2927 06cf 0A       		.uleb128 0xa
 2928 06d0 3C030000 		.4byte	.LASF158
 2929 06d4 09       		.byte	0x9
 2930 06d5 5E       		.byte	0x5e
 2931 06d6 A2000000 		.4byte	0xa2
 2932 06da 22       		.byte	0x22
 2933 06db 0A       		.uleb128 0xa
 2934 06dc D8060000 		.4byte	.LASF159
ARM GAS  C:\Users\chemi\AppData\Local\Temp\ccr4fFHe.s 			page 66


 2935 06e0 09       		.byte	0x9
 2936 06e1 5F       		.byte	0x5f
 2937 06e2 A2000000 		.4byte	0xa2
 2938 06e6 24       		.byte	0x24
 2939 06e7 0A       		.uleb128 0xa
 2940 06e8 39040000 		.4byte	.LASF160
 2941 06ec 09       		.byte	0x9
 2942 06ed 60       		.byte	0x60
 2943 06ee A2000000 		.4byte	0xa2
 2944 06f2 26       		.byte	0x26
 2945 06f3 0A       		.uleb128 0xa
 2946 06f4 03010000 		.4byte	.LASF161
 2947 06f8 09       		.byte	0x9
 2948 06f9 61       		.byte	0x61
 2949 06fa A2000000 		.4byte	0xa2
 2950 06fe 28       		.byte	0x28
 2951 06ff 0A       		.uleb128 0xa
 2952 0700 F50C0000 		.4byte	.LASF162
 2953 0704 09       		.byte	0x9
 2954 0705 62       		.byte	0x62
 2955 0706 97000000 		.4byte	0x97
 2956 070a 2A       		.byte	0x2a
 2957 070b 0A       		.uleb128 0xa
 2958 070c 530A0000 		.4byte	.LASF163
 2959 0710 09       		.byte	0x9
 2960 0711 63       		.byte	0x63
 2961 0712 C3000000 		.4byte	0xc3
 2962 0716 2C       		.byte	0x2c
 2963 0717 0A       		.uleb128 0xa
 2964 0718 CE070000 		.4byte	.LASF164
 2965 071c 09       		.byte	0x9
 2966 071d 64       		.byte	0x64
 2967 071e C3000000 		.4byte	0xc3
 2968 0722 30       		.byte	0x30
 2969 0723 0A       		.uleb128 0xa
 2970 0724 1A090000 		.4byte	.LASF165
 2971 0728 09       		.byte	0x9
 2972 0729 65       		.byte	0x65
 2973 072a 97000000 		.4byte	0x97
 2974 072e 34       		.byte	0x34
 2975 072f 0A       		.uleb128 0xa
 2976 0730 78020000 		.4byte	.LASF166
 2977 0734 09       		.byte	0x9
 2978 0735 66       		.byte	0x66
 2979 0736 97000000 		.4byte	0x97
 2980 073a 35       		.byte	0x35
 2981 073b 0A       		.uleb128 0xa
 2982 073c C60D0000 		.4byte	.LASF167
 2983 0740 09       		.byte	0x9
 2984 0741 67       		.byte	0x67
 2985 0742 97000000 		.4byte	0x97
 2986 0746 36       		.byte	0x36
 2987 0747 0A       		.uleb128 0xa
 2988 0748 2C0C0000 		.4byte	.LASF168
 2989 074c 09       		.byte	0x9
 2990 074d 68       		.byte	0x68
 2991 074e 98080000 		.4byte	0x898
ARM GAS  C:\Users\chemi\AppData\Local\Temp\ccr4fFHe.s 			page 67


 2992 0752 37       		.byte	0x37
 2993 0753 0A       		.uleb128 0xa
 2994 0754 380D0000 		.4byte	.LASF169
 2995 0758 09       		.byte	0x9
 2996 0759 69       		.byte	0x69
 2997 075a B8000000 		.4byte	0xb8
 2998 075e 48       		.byte	0x48
 2999 075f 0A       		.uleb128 0xa
 3000 0760 85030000 		.4byte	.LASF170
 3001 0764 09       		.byte	0x9
 3002 0765 6A       		.byte	0x6a
 3003 0766 97000000 		.4byte	0x97
 3004 076a 4C       		.byte	0x4c
 3005 076b 0A       		.uleb128 0xa
 3006 076c DA0A0000 		.4byte	.LASF171
 3007 0770 09       		.byte	0x9
 3008 0771 6B       		.byte	0x6b
 3009 0772 A2000000 		.4byte	0xa2
 3010 0776 4E       		.byte	0x4e
 3011 0777 0A       		.uleb128 0xa
 3012 0778 C2070000 		.4byte	.LASF172
 3013 077c 09       		.byte	0x9
 3014 077d 6C       		.byte	0x6c
 3015 077e A2000000 		.4byte	0xa2
 3016 0782 50       		.byte	0x50
 3017 0783 0A       		.uleb128 0xa
 3018 0784 A5030000 		.4byte	.LASF173
 3019 0788 09       		.byte	0x9
 3020 0789 6D       		.byte	0x6d
 3021 078a A2000000 		.4byte	0xa2
 3022 078e 52       		.byte	0x52
 3023 078f 0A       		.uleb128 0xa
 3024 0790 2C050000 		.4byte	.LASF174
 3025 0794 09       		.byte	0x9
 3026 0795 6E       		.byte	0x6e
 3027 0796 B8000000 		.4byte	0xb8
 3028 079a 54       		.byte	0x54
 3029 079b 0A       		.uleb128 0xa
 3030 079c 180E0000 		.4byte	.LASF175
 3031 07a0 09       		.byte	0x9
 3032 07a1 6F       		.byte	0x6f
 3033 07a2 A2000000 		.4byte	0xa2
 3034 07a6 58       		.byte	0x58
 3035 07a7 0A       		.uleb128 0xa
 3036 07a8 790D0000 		.4byte	.LASF176
 3037 07ac 09       		.byte	0x9
 3038 07ad 70       		.byte	0x70
 3039 07ae 97000000 		.4byte	0x97
 3040 07b2 5A       		.byte	0x5a
 3041 07b3 0A       		.uleb128 0xa
 3042 07b4 B2070000 		.4byte	.LASF177
 3043 07b8 09       		.byte	0x9
 3044 07b9 71       		.byte	0x71
 3045 07ba 97000000 		.4byte	0x97
 3046 07be 5B       		.byte	0x5b
 3047 07bf 0A       		.uleb128 0xa
 3048 07c0 1B040000 		.4byte	.LASF178
ARM GAS  C:\Users\chemi\AppData\Local\Temp\ccr4fFHe.s 			page 68


 3049 07c4 09       		.byte	0x9
 3050 07c5 72       		.byte	0x72
 3051 07c6 97000000 		.4byte	0x97
 3052 07ca 5C       		.byte	0x5c
 3053 07cb 0A       		.uleb128 0xa
 3054 07cc F2010000 		.4byte	.LASF179
 3055 07d0 09       		.byte	0x9
 3056 07d1 73       		.byte	0x73
 3057 07d2 97000000 		.4byte	0x97
 3058 07d6 5D       		.byte	0x5d
 3059 07d7 0A       		.uleb128 0xa
 3060 07d8 89090000 		.4byte	.LASF180
 3061 07dc 09       		.byte	0x9
 3062 07dd 74       		.byte	0x74
 3063 07de A2000000 		.4byte	0xa2
 3064 07e2 5E       		.byte	0x5e
 3065 07e3 0A       		.uleb128 0xa
 3066 07e4 F6030000 		.4byte	.LASF181
 3067 07e8 09       		.byte	0x9
 3068 07e9 75       		.byte	0x75
 3069 07ea A2000000 		.4byte	0xa2
 3070 07ee 60       		.byte	0x60
 3071 07ef 0A       		.uleb128 0xa
 3072 07f0 540D0000 		.4byte	.LASF182
 3073 07f4 09       		.byte	0x9
 3074 07f5 76       		.byte	0x76
 3075 07f6 A2000000 		.4byte	0xa2
 3076 07fa 62       		.byte	0x62
 3077 07fb 0A       		.uleb128 0xa
 3078 07fc D9070000 		.4byte	.LASF183
 3079 0800 09       		.byte	0x9
 3080 0801 77       		.byte	0x77
 3081 0802 A2000000 		.4byte	0xa2
 3082 0806 64       		.byte	0x64
 3083 0807 0A       		.uleb128 0xa
 3084 0808 240C0000 		.4byte	.LASF184
 3085 080c 09       		.byte	0x9
 3086 080d 78       		.byte	0x78
 3087 080e 97000000 		.4byte	0x97
 3088 0812 66       		.byte	0x66
 3089 0813 0A       		.uleb128 0xa
 3090 0814 48040000 		.4byte	.LASF185
 3091 0818 09       		.byte	0x9
 3092 0819 79       		.byte	0x79
 3093 081a A2000000 		.4byte	0xa2
 3094 081e 68       		.byte	0x68
 3095 081f 0A       		.uleb128 0xa
 3096 0820 9B070000 		.4byte	.LASF186
 3097 0824 09       		.byte	0x9
 3098 0825 7A       		.byte	0x7a
 3099 0826 C3000000 		.4byte	0xc3
 3100 082a 6C       		.byte	0x6c
 3101 082b 0A       		.uleb128 0xa
 3102 082c F4040000 		.4byte	.LASF187
 3103 0830 09       		.byte	0x9
 3104 0831 7B       		.byte	0x7b
 3105 0832 97000000 		.4byte	0x97
ARM GAS  C:\Users\chemi\AppData\Local\Temp\ccr4fFHe.s 			page 69


 3106 0836 70       		.byte	0x70
 3107 0837 0A       		.uleb128 0xa
 3108 0838 F90D0000 		.4byte	.LASF188
 3109 083c 09       		.byte	0x9
 3110 083d 7C       		.byte	0x7c
 3111 083e 97000000 		.4byte	0x97
 3112 0842 71       		.byte	0x71
 3113 0843 0A       		.uleb128 0xa
 3114 0844 290D0000 		.4byte	.LASF189
 3115 0848 09       		.byte	0x9
 3116 0849 7D       		.byte	0x7d
 3117 084a 97000000 		.4byte	0x97
 3118 084e 72       		.byte	0x72
 3119 084f 0A       		.uleb128 0xa
 3120 0850 FA010000 		.4byte	.LASF190
 3121 0854 09       		.byte	0x9
 3122 0855 7F       		.byte	0x7f
 3123 0856 97000000 		.4byte	0x97
 3124 085a 73       		.byte	0x73
 3125 085b 0A       		.uleb128 0xa
 3126 085c D3030000 		.4byte	.LASF191
 3127 0860 09       		.byte	0x9
 3128 0861 81       		.byte	0x81
 3129 0862 97000000 		.4byte	0x97
 3130 0866 74       		.byte	0x74
 3131 0867 0A       		.uleb128 0xa
 3132 0868 90080000 		.4byte	.LASF192
 3133 086c 09       		.byte	0x9
 3134 086d 82       		.byte	0x82
 3135 086e 97000000 		.4byte	0x97
 3136 0872 75       		.byte	0x75
 3137 0873 0A       		.uleb128 0xa
 3138 0874 D90C0000 		.4byte	.LASF193
 3139 0878 09       		.byte	0x9
 3140 0879 83       		.byte	0x83
 3141 087a 97000000 		.4byte	0x97
 3142 087e 76       		.byte	0x76
 3143 087f 0A       		.uleb128 0xa
 3144 0880 24060000 		.4byte	.LASF194
 3145 0884 09       		.byte	0x9
 3146 0885 84       		.byte	0x84
 3147 0886 97000000 		.4byte	0x97
 3148 088a 77       		.byte	0x77
 3149 088b 0A       		.uleb128 0xa
 3150 088c 72090000 		.4byte	.LASF195
 3151 0890 09       		.byte	0x9
 3152 0891 86       		.byte	0x86
 3153 0892 C3000000 		.4byte	0xc3
 3154 0896 78       		.byte	0x78
 3155 0897 00       		.byte	0
 3156 0898 0F       		.uleb128 0xf
 3157 0899 D1000000 		.4byte	0xd1
 3158 089d A8080000 		.4byte	0x8a8
 3159 08a1 10       		.uleb128 0x10
 3160 08a2 D8000000 		.4byte	0xd8
 3161 08a6 0F       		.byte	0xf
 3162 08a7 00       		.byte	0
ARM GAS  C:\Users\chemi\AppData\Local\Temp\ccr4fFHe.s 			page 70


 3163 08a8 03       		.uleb128 0x3
 3164 08a9 06030000 		.4byte	.LASF196
 3165 08ad 09       		.byte	0x9
 3166 08ae 88       		.byte	0x88
 3167 08af EB050000 		.4byte	0x5eb
 3168 08b3 09       		.uleb128 0x9
 3169 08b4 58060000 		.4byte	.LASF197
 3170 08b8 24       		.byte	0x24
 3171 08b9 09       		.byte	0x9
 3172 08ba 8A       		.byte	0x8a
 3173 08bb A3090000 		.4byte	0x9a3
 3174 08bf 0C       		.uleb128 0xc
 3175 08c0 707700   		.ascii	"pw\000"
 3176 08c3 09       		.byte	0x9
 3177 08c4 8B       		.byte	0x8b
 3178 08c5 A2000000 		.4byte	0xa2
 3179 08c9 00       		.byte	0
 3180 08ca 0C       		.uleb128 0xc
 3181 08cb 70776400 		.ascii	"pwd\000"
 3182 08cf 09       		.byte	0x9
 3183 08d0 8C       		.byte	0x8c
 3184 08d1 A2000000 		.4byte	0xa2
 3185 08d5 02       		.byte	0x2
 3186 08d6 0C       		.uleb128 0xc
 3187 08d7 766F6C00 		.ascii	"vol\000"
 3188 08db 09       		.byte	0x9
 3189 08dc 8D       		.byte	0x8d
 3190 08dd A2000000 		.4byte	0xa2
 3191 08e1 04       		.byte	0x4
 3192 08e2 0A       		.uleb128 0xa
 3193 08e3 11030000 		.4byte	.LASF198
 3194 08e7 09       		.byte	0x9
 3195 08e8 8E       		.byte	0x8e
 3196 08e9 A2000000 		.4byte	0xa2
 3197 08ed 06       		.byte	0x6
 3198 08ee 0A       		.uleb128 0xa
 3199 08ef 1C030000 		.4byte	.LASF199
 3200 08f3 09       		.byte	0x9
 3201 08f4 8F       		.byte	0x8f
 3202 08f5 A2000000 		.4byte	0xa2
 3203 08f9 08       		.byte	0x8
 3204 08fa 0A       		.uleb128 0xa
 3205 08fb B00A0000 		.4byte	.LASF200
 3206 08ff 09       		.byte	0x9
 3207 0900 90       		.byte	0x90
 3208 0901 A2000000 		.4byte	0xa2
 3209 0905 0A       		.byte	0xa
 3210 0906 0A       		.uleb128 0xa
 3211 0907 97090000 		.4byte	.LASF201
 3212 090b 09       		.byte	0x9
 3213 090c 91       		.byte	0x91
 3214 090d A2000000 		.4byte	0xa2
 3215 0911 0C       		.byte	0xc
 3216 0912 0A       		.uleb128 0xa
 3217 0913 7A050000 		.4byte	.LASF202
 3218 0917 09       		.byte	0x9
 3219 0918 92       		.byte	0x92
ARM GAS  C:\Users\chemi\AppData\Local\Temp\ccr4fFHe.s 			page 71


 3220 0919 A2000000 		.4byte	0xa2
 3221 091d 0E       		.byte	0xe
 3222 091e 0A       		.uleb128 0xa
 3223 091f F00D0000 		.4byte	.LASF203
 3224 0923 09       		.byte	0x9
 3225 0924 93       		.byte	0x93
 3226 0925 A2000000 		.4byte	0xa2
 3227 0929 10       		.byte	0x10
 3228 092a 0A       		.uleb128 0xa
 3229 092b 25030000 		.4byte	.LASF204
 3230 092f 09       		.byte	0x9
 3231 0930 94       		.byte	0x94
 3232 0931 97000000 		.4byte	0x97
 3233 0935 12       		.byte	0x12
 3234 0936 0A       		.uleb128 0xa
 3235 0937 E7010000 		.4byte	.LASF205
 3236 093b 09       		.byte	0x9
 3237 093c 95       		.byte	0x95
 3238 093d 97000000 		.4byte	0x97
 3239 0941 13       		.byte	0x13
 3240 0942 0A       		.uleb128 0xa
 3241 0943 85060000 		.4byte	.LASF206
 3242 0947 09       		.byte	0x9
 3243 0948 96       		.byte	0x96
 3244 0949 97000000 		.4byte	0x97
 3245 094d 14       		.byte	0x14
 3246 094e 0A       		.uleb128 0xa
 3247 094f A3080000 		.4byte	.LASF207
 3248 0953 09       		.byte	0x9
 3249 0954 97       		.byte	0x97
 3250 0955 A2000000 		.4byte	0xa2
 3251 0959 16       		.byte	0x16
 3252 095a 0A       		.uleb128 0xa
 3253 095b FA000000 		.4byte	.LASF208
 3254 095f 09       		.byte	0x9
 3255 0960 98       		.byte	0x98
 3256 0961 A2000000 		.4byte	0xa2
 3257 0965 18       		.byte	0x18
 3258 0966 0A       		.uleb128 0xa
 3259 0967 9D0A0000 		.4byte	.LASF209
 3260 096b 09       		.byte	0x9
 3261 096c 99       		.byte	0x99
 3262 096d 97000000 		.4byte	0x97
 3263 0971 1A       		.byte	0x1a
 3264 0972 0A       		.uleb128 0xa
 3265 0973 82020000 		.4byte	.LASF210
 3266 0977 09       		.byte	0x9
 3267 0978 9A       		.byte	0x9a
 3268 0979 A2000000 		.4byte	0xa2
 3269 097d 1C       		.byte	0x1c
 3270 097e 0A       		.uleb128 0xa
 3271 097f 56080000 		.4byte	.LASF211
 3272 0983 09       		.byte	0x9
 3273 0984 9B       		.byte	0x9b
 3274 0985 A2000000 		.4byte	0xa2
 3275 0989 1E       		.byte	0x1e
 3276 098a 0A       		.uleb128 0xa
ARM GAS  C:\Users\chemi\AppData\Local\Temp\ccr4fFHe.s 			page 72


 3277 098b B0030000 		.4byte	.LASF212
 3278 098f 09       		.byte	0x9
 3279 0990 9C       		.byte	0x9c
 3280 0991 97000000 		.4byte	0x97
 3281 0995 20       		.byte	0x20
 3282 0996 0A       		.uleb128 0xa
 3283 0997 0C060000 		.4byte	.LASF213
 3284 099b 09       		.byte	0x9
 3285 099c 9D       		.byte	0x9d
 3286 099d A2000000 		.4byte	0xa2
 3287 09a1 22       		.byte	0x22
 3288 09a2 00       		.byte	0
 3289 09a3 03       		.uleb128 0x3
 3290 09a4 72010000 		.4byte	.LASF214
 3291 09a8 09       		.byte	0x9
 3292 09a9 9F       		.byte	0x9f
 3293 09aa B3080000 		.4byte	0x8b3
 3294 09ae 15       		.uleb128 0x15
 3295 09af 4F010000 		.4byte	.LASF285
 3296 09b3 01       		.byte	0x1
 3297 09b4 A401     		.2byte	0x1a4
 3298 09b6 B8000000 		.4byte	0xb8
 3299 09ba 01       		.byte	0x1
 3300 09bb 2A0A0000 		.4byte	0xa2a
 3301 09bf 16       		.uleb128 0x16
 3302 09c0 1D0D0000 		.4byte	.LASF215
 3303 09c4 01       		.byte	0x1
 3304 09c5 A401     		.2byte	0x1a4
 3305 09c7 B8000000 		.4byte	0xb8
 3306 09cb 16       		.uleb128 0x16
 3307 09cc D0040000 		.4byte	.LASF216
 3308 09d0 01       		.byte	0x1
 3309 09d1 A401     		.2byte	0x1a4
 3310 09d3 B8000000 		.4byte	0xb8
 3311 09d7 16       		.uleb128 0x16
 3312 09d8 D0060000 		.4byte	.LASF217
 3313 09dc 01       		.byte	0x1
 3314 09dd A401     		.2byte	0x1a4
 3315 09df B8000000 		.4byte	0xb8
 3316 09e3 17       		.uleb128 0x17
 3317 09e4 C2090000 		.4byte	.LASF218
 3318 09e8 01       		.byte	0x1
 3319 09e9 B601     		.2byte	0x1b6
 3320 09eb B8000000 		.4byte	0xb8
 3321 09ef 17       		.uleb128 0x17
 3322 09f0 B6020000 		.4byte	.LASF219
 3323 09f4 01       		.byte	0x1
 3324 09f5 B701     		.2byte	0x1b7
 3325 09f7 B8000000 		.4byte	0xb8
 3326 09fb 18       		.uleb128 0x18
 3327 09fc 0D0A0000 		.4byte	0xa0d
 3328 0a00 17       		.uleb128 0x17
 3329 0a01 8E030000 		.4byte	.LASF220
 3330 0a05 01       		.byte	0x1
 3331 0a06 AF01     		.2byte	0x1af
 3332 0a08 97000000 		.4byte	0x97
 3333 0a0c 00       		.byte	0
ARM GAS  C:\Users\chemi\AppData\Local\Temp\ccr4fFHe.s 			page 73


 3334 0a0d 19       		.uleb128 0x19
 3335 0a0e 17       		.uleb128 0x17
 3336 0a0f 8E030000 		.4byte	.LASF220
 3337 0a13 01       		.byte	0x1
 3338 0a14 B801     		.2byte	0x1b8
 3339 0a16 97000000 		.4byte	0x97
 3340 0a1a 19       		.uleb128 0x19
 3341 0a1b 17       		.uleb128 0x17
 3342 0a1c B7050000 		.4byte	.LASF221
 3343 0a20 01       		.byte	0x1
 3344 0a21 B901     		.2byte	0x1b9
 3345 0a23 B8000000 		.4byte	0xb8
 3346 0a27 00       		.byte	0
 3347 0a28 00       		.byte	0
 3348 0a29 00       		.byte	0
 3349 0a2a 1A       		.uleb128 0x1a
 3350 0a2b 49090000 		.4byte	.LASF286
 3351 0a2f 01       		.byte	0x1
 3352 0a30 C8       		.byte	0xc8
 3353 0a31 D9040000 		.4byte	0x4d9
 3354 0a35 03       		.byte	0x3
 3355 0a36 460A0000 		.4byte	0xa46
 3356 0a3a 1B       		.uleb128 0x1b
 3357 0a3b 45060000 		.4byte	.LASF222
 3358 0a3f 01       		.byte	0x1
 3359 0a40 C8       		.byte	0xc8
 3360 0a41 B8000000 		.4byte	0xb8
 3361 0a45 00       		.byte	0
 3362 0a46 1C       		.uleb128 0x1c
 3363 0a47 9D0D0000 		.4byte	.LASF287
 3364 0a4b 01       		.byte	0x1
 3365 0a4c 36       		.byte	0x36
 3366 0a4d 00000000 		.4byte	.LFB71
 3367 0a51 24000000 		.4byte	.LFE71-.LFB71
 3368 0a55 01       		.uleb128 0x1
 3369 0a56 9C       		.byte	0x9c
 3370 0a57 970A0000 		.4byte	0xa97
 3371 0a5b 1D       		.uleb128 0x1d
 3372 0a5c E60A0000 		.4byte	.LASF225
 3373 0a60 01       		.byte	0x1
 3374 0a61 36       		.byte	0x36
 3375 0a62 DF000000 		.4byte	0xdf
 3376 0a66 00000000 		.4byte	.LLST0
 3377 0a6a 1E       		.uleb128 0x1e
 3378 0a6b 10000000 		.4byte	.LVL2
 3379 0a6f 82140000 		.4byte	0x1482
 3380 0a73 1F       		.uleb128 0x1f
 3381 0a74 18000000 		.4byte	.LVL3
 3382 0a78 8D140000 		.4byte	0x148d
 3383 0a7c 870A0000 		.4byte	0xa87
 3384 0a80 20       		.uleb128 0x20
 3385 0a81 01       		.uleb128 0x1
 3386 0a82 50       		.byte	0x50
 3387 0a83 02       		.uleb128 0x2
 3388 0a84 08       		.byte	0x8
 3389 0a85 64       		.byte	0x64
 3390 0a86 00       		.byte	0
ARM GAS  C:\Users\chemi\AppData\Local\Temp\ccr4fFHe.s 			page 74


 3391 0a87 21       		.uleb128 0x21
 3392 0a88 1E000000 		.4byte	.LVL4
 3393 0a8c 8D140000 		.4byte	0x148d
 3394 0a90 20       		.uleb128 0x20
 3395 0a91 01       		.uleb128 0x1
 3396 0a92 50       		.byte	0x50
 3397 0a93 01       		.uleb128 0x1
 3398 0a94 31       		.byte	0x31
 3399 0a95 00       		.byte	0
 3400 0a96 00       		.byte	0
 3401 0a97 22       		.uleb128 0x22
 3402 0a98 D7040000 		.4byte	.LASF223
 3403 0a9c 01       		.byte	0x1
 3404 0a9d 1E       		.byte	0x1e
 3405 0a9e B8000000 		.4byte	0xb8
 3406 0aa2 00000000 		.4byte	.LFB68
 3407 0aa6 06000000 		.4byte	.LFE68-.LFB68
 3408 0aaa 01       		.uleb128 0x1
 3409 0aab 9C       		.byte	0x9c
 3410 0aac 22       		.uleb128 0x22
 3411 0aad 60040000 		.4byte	.LASF224
 3412 0ab1 01       		.byte	0x1
 3413 0ab2 22       		.byte	0x22
 3414 0ab3 C10A0000 		.4byte	0xac1
 3415 0ab7 00000000 		.4byte	.LFB69
 3416 0abb 0C000000 		.4byte	.LFE69-.LFB69
 3417 0abf 01       		.uleb128 0x1
 3418 0ac0 9C       		.byte	0x9c
 3419 0ac1 11       		.uleb128 0x11
 3420 0ac2 04       		.byte	0x4
 3421 0ac3 DB010000 		.4byte	0x1db
 3422 0ac7 23       		.uleb128 0x23
 3423 0ac8 5E0A0000 		.4byte	.LASF246
 3424 0acc 01       		.byte	0x1
 3425 0acd 26       		.byte	0x26
 3426 0ace 00000000 		.4byte	.LFB70
 3427 0ad2 50000000 		.4byte	.LFE70-.LFB70
 3428 0ad6 01       		.uleb128 0x1
 3429 0ad7 9C       		.byte	0x9c
 3430 0ad8 730B0000 		.4byte	0xb73
 3431 0adc 24       		.uleb128 0x24
 3432 0add 0E000000 		.4byte	.LBB5
 3433 0ae1 18000000 		.4byte	.LBE5-.LBB5
 3434 0ae5 220B0000 		.4byte	0xb22
 3435 0ae9 25       		.uleb128 0x25
 3436 0aea 6900     		.ascii	"i\000"
 3437 0aec 01       		.byte	0x1
 3438 0aed 2A       		.byte	0x2a
 3439 0aee B8000000 		.4byte	0xb8
 3440 0af2 21000000 		.4byte	.LLST1
 3441 0af6 1F       		.uleb128 0x1f
 3442 0af7 16000000 		.4byte	.LVL7
 3443 0afb 99140000 		.4byte	0x1499
 3444 0aff 0B0B0000 		.4byte	0xb0b
 3445 0b03 20       		.uleb128 0x20
 3446 0b04 01       		.uleb128 0x1
 3447 0b05 50       		.byte	0x50
ARM GAS  C:\Users\chemi\AppData\Local\Temp\ccr4fFHe.s 			page 75


 3448 0b06 03       		.uleb128 0x3
 3449 0b07 0A       		.byte	0xa
 3450 0b08 E802     		.2byte	0x2e8
 3451 0b0a 00       		.byte	0
 3452 0b0b 21       		.uleb128 0x21
 3453 0b0c 26000000 		.4byte	.LVL8
 3454 0b10 A4140000 		.4byte	0x14a4
 3455 0b14 20       		.uleb128 0x20
 3456 0b15 01       		.uleb128 0x1
 3457 0b16 51       		.byte	0x51
 3458 0b17 01       		.uleb128 0x1
 3459 0b18 30       		.byte	0x30
 3460 0b19 20       		.uleb128 0x20
 3461 0b1a 01       		.uleb128 0x1
 3462 0b1b 52       		.byte	0x52
 3463 0b1c 03       		.uleb128 0x3
 3464 0b1d 0A       		.byte	0xa
 3465 0b1e E802     		.2byte	0x2e8
 3466 0b20 00       		.byte	0
 3467 0b21 00       		.byte	0
 3468 0b22 1F       		.uleb128 0x1f
 3469 0b23 08000000 		.4byte	.LVL5
 3470 0b27 99140000 		.4byte	0x1499
 3471 0b2b 350B0000 		.4byte	0xb35
 3472 0b2f 20       		.uleb128 0x20
 3473 0b30 01       		.uleb128 0x1
 3474 0b31 50       		.byte	0x50
 3475 0b32 01       		.uleb128 0x1
 3476 0b33 34       		.byte	0x34
 3477 0b34 00       		.byte	0
 3478 0b35 1E       		.uleb128 0x1e
 3479 0b36 2A000000 		.4byte	.LVL9
 3480 0b3a AD140000 		.4byte	0x14ad
 3481 0b3e 21       		.uleb128 0x21
 3482 0b3f 3E000000 		.4byte	.LVL10
 3483 0b43 B8140000 		.4byte	0x14b8
 3484 0b47 20       		.uleb128 0x20
 3485 0b48 01       		.uleb128 0x1
 3486 0b49 50       		.byte	0x50
 3487 0b4a 05       		.uleb128 0x5
 3488 0b4b 03       		.byte	0x3
 3489 0b4c 00000000 		.4byte	VMSW_task
 3490 0b50 20       		.uleb128 0x20
 3491 0b51 01       		.uleb128 0x1
 3492 0b52 51       		.byte	0x51
 3493 0b53 05       		.uleb128 0x5
 3494 0b54 03       		.byte	0x3
 3495 0b55 00000000 		.4byte	.LC0
 3496 0b59 20       		.uleb128 0x20
 3497 0b5a 01       		.uleb128 0x1
 3498 0b5b 52       		.byte	0x52
 3499 0b5c 03       		.uleb128 0x3
 3500 0b5d 0A       		.byte	0xa
 3501 0b5e 6401     		.2byte	0x164
 3502 0b60 20       		.uleb128 0x20
 3503 0b61 01       		.uleb128 0x1
 3504 0b62 53       		.byte	0x53
ARM GAS  C:\Users\chemi\AppData\Local\Temp\ccr4fFHe.s 			page 76


 3505 0b63 01       		.uleb128 0x1
 3506 0b64 30       		.byte	0x30
 3507 0b65 20       		.uleb128 0x20
 3508 0b66 02       		.uleb128 0x2
 3509 0b67 7D       		.byte	0x7d
 3510 0b68 00       		.sleb128 0
 3511 0b69 01       		.uleb128 0x1
 3512 0b6a 33       		.byte	0x33
 3513 0b6b 20       		.uleb128 0x20
 3514 0b6c 02       		.uleb128 0x2
 3515 0b6d 7D       		.byte	0x7d
 3516 0b6e 04       		.sleb128 4
 3517 0b6f 01       		.uleb128 0x1
 3518 0b70 30       		.byte	0x30
 3519 0b71 00       		.byte	0
 3520 0b72 00       		.byte	0
 3521 0b73 26       		.uleb128 0x26
 3522 0b74 CC090000 		.4byte	.LASF230
 3523 0b78 01       		.byte	0x1
 3524 0b79 46       		.byte	0x46
 3525 0b7a 00000000 		.4byte	.LFB72
 3526 0b7e 48000000 		.4byte	.LFE72-.LFB72
 3527 0b82 01       		.uleb128 0x1
 3528 0b83 9C       		.byte	0x9c
 3529 0b84 E50B0000 		.4byte	0xbe5
 3530 0b88 1D       		.uleb128 0x1d
 3531 0b89 D0040000 		.4byte	.LASF216
 3532 0b8d 01       		.byte	0x1
 3533 0b8e 46       		.byte	0x46
 3534 0b8f B8000000 		.4byte	0xb8
 3535 0b93 41000000 		.4byte	.LLST2
 3536 0b97 1D       		.uleb128 0x1d
 3537 0b98 1D0D0000 		.4byte	.LASF215
 3538 0b9c 01       		.byte	0x1
 3539 0b9d 46       		.byte	0x46
 3540 0b9e B8000000 		.4byte	0xb8
 3541 0ba2 78000000 		.4byte	.LLST3
 3542 0ba6 1D       		.uleb128 0x1d
 3543 0ba7 D0060000 		.4byte	.LASF217
 3544 0bab 01       		.byte	0x1
 3545 0bac 46       		.byte	0x46
 3546 0bad B8000000 		.4byte	0xb8
 3547 0bb1 AF000000 		.4byte	.LLST4
 3548 0bb5 24       		.uleb128 0x24
 3549 0bb6 0E000000 		.4byte	.LBB6
 3550 0bba 2A000000 		.4byte	.LBE6-.LBB6
 3551 0bbe D20B0000 		.4byte	0xbd2
 3552 0bc2 27       		.uleb128 0x27
 3553 0bc3 8E030000 		.4byte	.LASF220
 3554 0bc7 01       		.byte	0x1
 3555 0bc8 4B       		.byte	0x4b
 3556 0bc9 B8000000 		.4byte	0xb8
 3557 0bcd E6000000 		.4byte	.LLST5
 3558 0bd1 00       		.byte	0
 3559 0bd2 1E       		.uleb128 0x1e
 3560 0bd3 0E000000 		.4byte	.LVL12
 3561 0bd7 C4140000 		.4byte	0x14c4
ARM GAS  C:\Users\chemi\AppData\Local\Temp\ccr4fFHe.s 			page 77


 3562 0bdb 28       		.uleb128 0x28
 3563 0bdc 40000000 		.4byte	.LVL15
 3564 0be0 CF140000 		.4byte	0x14cf
 3565 0be4 00       		.byte	0
 3566 0be5 29       		.uleb128 0x29
 3567 0be6 190A0000 		.4byte	.LASF227
 3568 0bea 01       		.byte	0x1
 3569 0beb B3       		.byte	0xb3
 3570 0bec B8000000 		.4byte	0xb8
 3571 0bf0 00000000 		.4byte	.LFB74
 3572 0bf4 18000000 		.4byte	.LFE74-.LFB74
 3573 0bf8 01       		.uleb128 0x1
 3574 0bf9 9C       		.byte	0x9c
 3575 0bfa 1D0C0000 		.4byte	0xc1d
 3576 0bfe 1D       		.uleb128 0x1d
 3577 0bff D0040000 		.4byte	.LASF216
 3578 0c03 01       		.byte	0x1
 3579 0c04 B3       		.byte	0xb3
 3580 0c05 B8000000 		.4byte	0xb8
 3581 0c09 FA000000 		.4byte	.LLST6
 3582 0c0d 1D       		.uleb128 0x1d
 3583 0c0e 8B020000 		.4byte	.LASF226
 3584 0c12 01       		.byte	0x1
 3585 0c13 B3       		.byte	0xb3
 3586 0c14 B8000000 		.4byte	0xb8
 3587 0c18 1B010000 		.4byte	.LLST7
 3588 0c1c 00       		.byte	0
 3589 0c1d 29       		.uleb128 0x29
 3590 0c1e 0C040000 		.4byte	.LASF228
 3591 0c22 01       		.byte	0x1
 3592 0c23 B7       		.byte	0xb7
 3593 0c24 B8000000 		.4byte	0xb8
 3594 0c28 00000000 		.4byte	.LFB75
 3595 0c2c 18000000 		.4byte	.LFE75-.LFB75
 3596 0c30 01       		.uleb128 0x1
 3597 0c31 9C       		.byte	0x9c
 3598 0c32 550C0000 		.4byte	0xc55
 3599 0c36 1D       		.uleb128 0x1d
 3600 0c37 D0040000 		.4byte	.LASF216
 3601 0c3b 01       		.byte	0x1
 3602 0c3c B7       		.byte	0xb7
 3603 0c3d B8000000 		.4byte	0xb8
 3604 0c41 3C010000 		.4byte	.LLST8
 3605 0c45 1D       		.uleb128 0x1d
 3606 0c46 8B020000 		.4byte	.LASF226
 3607 0c4a 01       		.byte	0x1
 3608 0c4b B7       		.byte	0xb7
 3609 0c4c B8000000 		.4byte	0xb8
 3610 0c50 5D010000 		.4byte	.LLST9
 3611 0c54 00       		.byte	0
 3612 0c55 29       		.uleb128 0x29
 3613 0c56 9E040000 		.4byte	.LASF229
 3614 0c5a 01       		.byte	0x1
 3615 0c5b BB       		.byte	0xbb
 3616 0c5c B8000000 		.4byte	0xb8
 3617 0c60 00000000 		.4byte	.LFB76
 3618 0c64 24000000 		.4byte	.LFE76-.LFB76
ARM GAS  C:\Users\chemi\AppData\Local\Temp\ccr4fFHe.s 			page 78


 3619 0c68 01       		.uleb128 0x1
 3620 0c69 9C       		.byte	0x9c
 3621 0c6a 8D0C0000 		.4byte	0xc8d
 3622 0c6e 1D       		.uleb128 0x1d
 3623 0c6f D0040000 		.4byte	.LASF216
 3624 0c73 01       		.byte	0x1
 3625 0c74 BB       		.byte	0xbb
 3626 0c75 B8000000 		.4byte	0xb8
 3627 0c79 7E010000 		.4byte	.LLST10
 3628 0c7d 1D       		.uleb128 0x1d
 3629 0c7e 8B020000 		.4byte	.LASF226
 3630 0c82 01       		.byte	0x1
 3631 0c83 BB       		.byte	0xbb
 3632 0c84 B8000000 		.4byte	0xb8
 3633 0c88 B8010000 		.4byte	.LLST11
 3634 0c8c 00       		.byte	0
 3635 0c8d 2A       		.uleb128 0x2a
 3636 0c8e 8B0A0000 		.4byte	.LASF231
 3637 0c92 01       		.byte	0x1
 3638 0c93 BF       		.byte	0xbf
 3639 0c94 B8000000 		.4byte	0xb8
 3640 0c98 00000000 		.4byte	.LFB77
 3641 0c9c 20000000 		.4byte	.LFE77-.LFB77
 3642 0ca0 01       		.uleb128 0x1
 3643 0ca1 9C       		.byte	0x9c
 3644 0ca2 CE0C0000 		.4byte	0xcce
 3645 0ca6 2B       		.uleb128 0x2b
 3646 0ca7 00000000 		.4byte	.LBB7
 3647 0cab 18000000 		.4byte	.LBE7-.LBB7
 3648 0caf 2C       		.uleb128 0x2c
 3649 0cb0 6A00     		.ascii	"j\000"
 3650 0cb2 01       		.byte	0x1
 3651 0cb3 C0       		.byte	0xc0
 3652 0cb4 B8000000 		.4byte	0xb8
 3653 0cb8 00       		.byte	0
 3654 0cb9 2B       		.uleb128 0x2b
 3655 0cba 00000000 		.4byte	.LBB8
 3656 0cbe 18000000 		.4byte	.LBE8-.LBB8
 3657 0cc2 2D       		.uleb128 0x2d
 3658 0cc3 6900     		.ascii	"i\000"
 3659 0cc5 01       		.byte	0x1
 3660 0cc6 C1       		.byte	0xc1
 3661 0cc7 B8000000 		.4byte	0xb8
 3662 0ccb 00       		.byte	0
 3663 0ccc 00       		.byte	0
 3664 0ccd 00       		.byte	0
 3665 0cce 2E       		.uleb128 0x2e
 3666 0ccf 2A0A0000 		.4byte	0xa2a
 3667 0cd3 00000000 		.4byte	.LFB78
 3668 0cd7 5C000000 		.4byte	.LFE78-.LFB78
 3669 0cdb 01       		.uleb128 0x1
 3670 0cdc 9C       		.byte	0x9c
 3671 0cdd 070D0000 		.4byte	0xd07
 3672 0ce1 2F       		.uleb128 0x2f
 3673 0ce2 3A0A0000 		.4byte	0xa3a
 3674 0ce6 D9010000 		.4byte	.LLST12
 3675 0cea 2B       		.uleb128 0x2b
ARM GAS  C:\Users\chemi\AppData\Local\Temp\ccr4fFHe.s 			page 79


 3676 0ceb 24000000 		.4byte	.LBB11
 3677 0cef 1A000000 		.4byte	.LBE11-.LBB11
 3678 0cf3 2F       		.uleb128 0x2f
 3679 0cf4 3A0A0000 		.4byte	0xa3a
 3680 0cf8 5E020000 		.4byte	.LLST13
 3681 0cfc 1E       		.uleb128 0x1e
 3682 0cfd 34000000 		.4byte	.LVL33
 3683 0d01 DA140000 		.4byte	0x14da
 3684 0d05 00       		.byte	0
 3685 0d06 00       		.byte	0
 3686 0d07 26       		.uleb128 0x26
 3687 0d08 0B0B0000 		.4byte	.LASF232
 3688 0d0c 01       		.byte	0x1
 3689 0d0d 57       		.byte	0x57
 3690 0d0e 00000000 		.4byte	.LFB73
 3691 0d12 B0010000 		.4byte	.LFE73-.LFB73
 3692 0d16 01       		.uleb128 0x1
 3693 0d17 9C       		.byte	0x9c
 3694 0d18 D20F0000 		.4byte	0xfd2
 3695 0d1c 1D       		.uleb128 0x1d
 3696 0d1d D0040000 		.4byte	.LASF216
 3697 0d21 01       		.byte	0x1
 3698 0d22 57       		.byte	0x57
 3699 0d23 B8000000 		.4byte	0xb8
 3700 0d27 7F020000 		.4byte	.LLST14
 3701 0d2b 1D       		.uleb128 0x1d
 3702 0d2c 27020000 		.4byte	.LASF233
 3703 0d30 01       		.byte	0x1
 3704 0d31 57       		.byte	0x57
 3705 0d32 B8000000 		.4byte	0xb8
 3706 0d36 B6020000 		.4byte	.LLST15
 3707 0d3a 1D       		.uleb128 0x1d
 3708 0d3b B5060000 		.4byte	.LASF67
 3709 0d3f 01       		.byte	0x1
 3710 0d40 57       		.byte	0x57
 3711 0d41 B8000000 		.4byte	0xb8
 3712 0d45 EC020000 		.4byte	.LLST16
 3713 0d49 1D       		.uleb128 0x1d
 3714 0d4a E7070000 		.4byte	.LASF66
 3715 0d4e 01       		.byte	0x1
 3716 0d4f 57       		.byte	0x57
 3717 0d50 B8000000 		.4byte	0xb8
 3718 0d54 2F030000 		.4byte	.LLST17
 3719 0d58 1D       		.uleb128 0x1d
 3720 0d59 26010000 		.4byte	.LASF234
 3721 0d5d 01       		.byte	0x1
 3722 0d5e 57       		.byte	0x57
 3723 0d5f B8000000 		.4byte	0xb8
 3724 0d63 72030000 		.4byte	.LLST18
 3725 0d67 1D       		.uleb128 0x1d
 3726 0d68 4B060000 		.4byte	.LASF235
 3727 0d6c 01       		.byte	0x1
 3728 0d6d 57       		.byte	0x57
 3729 0d6e B8000000 		.4byte	0xb8
 3730 0d72 AA030000 		.4byte	.LLST19
 3731 0d76 1D       		.uleb128 0x1d
 3732 0d77 0A070000 		.4byte	.LASF236
ARM GAS  C:\Users\chemi\AppData\Local\Temp\ccr4fFHe.s 			page 80


 3733 0d7b 01       		.byte	0x1
 3734 0d7c 57       		.byte	0x57
 3735 0d7d B8000000 		.4byte	0xb8
 3736 0d81 E2030000 		.4byte	.LLST20
 3737 0d85 1D       		.uleb128 0x1d
 3738 0d86 82050000 		.4byte	.LASF40
 3739 0d8a 01       		.byte	0x1
 3740 0d8b 57       		.byte	0x57
 3741 0d8c B8000000 		.4byte	0xb8
 3742 0d90 1A040000 		.4byte	.LLST21
 3743 0d94 1D       		.uleb128 0x1d
 3744 0d95 80010000 		.4byte	.LASF63
 3745 0d99 01       		.byte	0x1
 3746 0d9a 57       		.byte	0x57
 3747 0d9b B8000000 		.4byte	0xb8
 3748 0d9f 60040000 		.4byte	.LLST22
 3749 0da3 1D       		.uleb128 0x1d
 3750 0da4 0D020000 		.4byte	.LASF64
 3751 0da8 01       		.byte	0x1
 3752 0da9 57       		.byte	0x57
 3753 0daa B8000000 		.4byte	0xb8
 3754 0dae 98040000 		.4byte	.LLST23
 3755 0db2 30       		.uleb128 0x30
 3756 0db3 E0050000 		.4byte	.LASF237
 3757 0db7 01       		.byte	0x1
 3758 0db8 62       		.byte	0x62
 3759 0db9 B8000000 		.4byte	0xb8
 3760 0dbd 27       		.uleb128 0x27
 3761 0dbe EC050000 		.4byte	.LASF238
 3762 0dc2 01       		.byte	0x1
 3763 0dc3 64       		.byte	0x64
 3764 0dc4 C10A0000 		.4byte	0xac1
 3765 0dc8 D0040000 		.4byte	.LLST24
 3766 0dcc 27       		.uleb128 0x27
 3767 0dcd 4B0D0000 		.4byte	.LASF47
 3768 0dd1 01       		.byte	0x1
 3769 0dd2 6D       		.byte	0x6d
 3770 0dd3 B8000000 		.4byte	0xb8
 3771 0dd7 E3040000 		.4byte	.LLST25
 3772 0ddb 27       		.uleb128 0x27
 3773 0ddc E5000000 		.4byte	.LASF239
 3774 0de0 01       		.byte	0x1
 3775 0de1 78       		.byte	0x78
 3776 0de2 B8000000 		.4byte	0xb8
 3777 0de6 0E050000 		.4byte	.LLST26
 3778 0dea 31       		.uleb128 0x31
 3779 0deb AE090000 		.4byte	0x9ae
 3780 0def 40000000 		.4byte	.LBB18
 3781 0df3 4A000000 		.4byte	.LBE18-.LBB18
 3782 0df7 01       		.byte	0x1
 3783 0df8 62       		.byte	0x62
 3784 0df9 8D0E0000 		.4byte	0xe8d
 3785 0dfd 2F       		.uleb128 0x2f
 3786 0dfe BF090000 		.4byte	0x9bf
 3787 0e02 41050000 		.4byte	.LLST27
 3788 0e06 2F       		.uleb128 0x2f
 3789 0e07 D7090000 		.4byte	0x9d7
ARM GAS  C:\Users\chemi\AppData\Local\Temp\ccr4fFHe.s 			page 81


 3790 0e0b 61050000 		.4byte	.LLST28
 3791 0e0f 2F       		.uleb128 0x2f
 3792 0e10 CB090000 		.4byte	0x9cb
 3793 0e14 81050000 		.4byte	.LLST29
 3794 0e18 2B       		.uleb128 0x2b
 3795 0e19 40000000 		.4byte	.LBB19
 3796 0e1d 4A000000 		.4byte	.LBE19-.LBB19
 3797 0e21 32       		.uleb128 0x32
 3798 0e22 E3090000 		.4byte	0x9e3
 3799 0e26 94050000 		.4byte	.LLST30
 3800 0e2a 33       		.uleb128 0x33
 3801 0e2b EF090000 		.4byte	0x9ef
 3802 0e2f 24       		.uleb128 0x24
 3803 0e30 40000000 		.4byte	.LBB20
 3804 0e34 12000000 		.4byte	.LBE20-.LBB20
 3805 0e38 5C0E0000 		.4byte	0xe5c
 3806 0e3c 32       		.uleb128 0x32
 3807 0e3d 000A0000 		.4byte	0xa00
 3808 0e41 A7050000 		.4byte	.LLST31
 3809 0e45 21       		.uleb128 0x21
 3810 0e46 4A000000 		.4byte	.LVL44
 3811 0e4a 550C0000 		.4byte	0xc55
 3812 0e4e 20       		.uleb128 0x20
 3813 0e4f 01       		.uleb128 0x1
 3814 0e50 50       		.byte	0x50
 3815 0e51 02       		.uleb128 0x2
 3816 0e52 78       		.byte	0x78
 3817 0e53 00       		.sleb128 0
 3818 0e54 20       		.uleb128 0x20
 3819 0e55 01       		.uleb128 0x1
 3820 0e56 51       		.byte	0x51
 3821 0e57 02       		.uleb128 0x2
 3822 0e58 74       		.byte	0x74
 3823 0e59 00       		.sleb128 0
 3824 0e5a 00       		.byte	0
 3825 0e5b 00       		.byte	0
 3826 0e5c 2B       		.uleb128 0x2b
 3827 0e5d 52000000 		.4byte	.LBB21
 3828 0e61 38000000 		.4byte	.LBE21-.LBB21
 3829 0e65 32       		.uleb128 0x32
 3830 0e66 0E0A0000 		.4byte	0xa0e
 3831 0e6a C7050000 		.4byte	.LLST32
 3832 0e6e 2B       		.uleb128 0x2b
 3833 0e6f 52000000 		.4byte	.LBB22
 3834 0e73 34000000 		.4byte	.LBE22-.LBB22
 3835 0e77 32       		.uleb128 0x32
 3836 0e78 1B0A0000 		.4byte	0xa1b
 3837 0e7c DA050000 		.4byte	.LLST33
 3838 0e80 1E       		.uleb128 0x1e
 3839 0e81 68000000 		.4byte	.LVL48
 3840 0e85 E5140000 		.4byte	0x14e5
 3841 0e89 00       		.byte	0
 3842 0e8a 00       		.byte	0
 3843 0e8b 00       		.byte	0
 3844 0e8c 00       		.byte	0
 3845 0e8d 1E       		.uleb128 0x1e
 3846 0e8e AA000000 		.4byte	.LVL54
ARM GAS  C:\Users\chemi\AppData\Local\Temp\ccr4fFHe.s 			page 82


 3847 0e92 C4140000 		.4byte	0x14c4
 3848 0e96 1F       		.uleb128 0x1f
 3849 0e97 B0000000 		.4byte	.LVL55
 3850 0e9b F1140000 		.4byte	0x14f1
 3851 0e9f AA0E0000 		.4byte	0xeaa
 3852 0ea3 20       		.uleb128 0x20
 3853 0ea4 01       		.uleb128 0x1
 3854 0ea5 50       		.byte	0x50
 3855 0ea6 02       		.uleb128 0x2
 3856 0ea7 75       		.byte	0x75
 3857 0ea8 00       		.sleb128 0
 3858 0ea9 00       		.byte	0
 3859 0eaa 1F       		.uleb128 0x1f
 3860 0eab C4000000 		.4byte	.LVL56
 3861 0eaf FC140000 		.4byte	0x14fc
 3862 0eb3 EC0E0000 		.4byte	0xeec
 3863 0eb7 20       		.uleb128 0x20
 3864 0eb8 01       		.uleb128 0x1
 3865 0eb9 50       		.byte	0x50
 3866 0eba 02       		.uleb128 0x2
 3867 0ebb 75       		.byte	0x75
 3868 0ebc 00       		.sleb128 0
 3869 0ebd 20       		.uleb128 0x20
 3870 0ebe 01       		.uleb128 0x1
 3871 0ebf 51       		.byte	0x51
 3872 0ec0 02       		.uleb128 0x2
 3873 0ec1 76       		.byte	0x76
 3874 0ec2 00       		.sleb128 0
 3875 0ec3 20       		.uleb128 0x20
 3876 0ec4 01       		.uleb128 0x1
 3877 0ec5 52       		.byte	0x52
 3878 0ec6 02       		.uleb128 0x2
 3879 0ec7 76       		.byte	0x76
 3880 0ec8 00       		.sleb128 0
 3881 0ec9 20       		.uleb128 0x20
 3882 0eca 01       		.uleb128 0x1
 3883 0ecb 53       		.byte	0x53
 3884 0ecc 02       		.uleb128 0x2
 3885 0ecd 76       		.byte	0x76
 3886 0ece 00       		.sleb128 0
 3887 0ecf 20       		.uleb128 0x20
 3888 0ed0 02       		.uleb128 0x2
 3889 0ed1 7D       		.byte	0x7d
 3890 0ed2 00       		.sleb128 0
 3891 0ed3 02       		.uleb128 0x2
 3892 0ed4 76       		.byte	0x76
 3893 0ed5 00       		.sleb128 0
 3894 0ed6 20       		.uleb128 0x20
 3895 0ed7 02       		.uleb128 0x2
 3896 0ed8 7D       		.byte	0x7d
 3897 0ed9 04       		.sleb128 4
 3898 0eda 02       		.uleb128 0x2
 3899 0edb 76       		.byte	0x76
 3900 0edc 00       		.sleb128 0
 3901 0edd 20       		.uleb128 0x20
 3902 0ede 02       		.uleb128 0x2
 3903 0edf 7D       		.byte	0x7d
ARM GAS  C:\Users\chemi\AppData\Local\Temp\ccr4fFHe.s 			page 83


 3904 0ee0 08       		.sleb128 8
 3905 0ee1 02       		.uleb128 0x2
 3906 0ee2 76       		.byte	0x76
 3907 0ee3 00       		.sleb128 0
 3908 0ee4 20       		.uleb128 0x20
 3909 0ee5 02       		.uleb128 0x2
 3910 0ee6 7D       		.byte	0x7d
 3911 0ee7 0C       		.sleb128 12
 3912 0ee8 02       		.uleb128 0x2
 3913 0ee9 76       		.byte	0x76
 3914 0eea 00       		.sleb128 0
 3915 0eeb 00       		.byte	0
 3916 0eec 1E       		.uleb128 0x1e
 3917 0eed C8000000 		.4byte	.LVL57
 3918 0ef1 CF140000 		.4byte	0x14cf
 3919 0ef5 1F       		.uleb128 0x1f
 3920 0ef6 DE000000 		.4byte	.LVL59
 3921 0efa A4140000 		.4byte	0x14a4
 3922 0efe 0F0F0000 		.4byte	0xf0f
 3923 0f02 20       		.uleb128 0x20
 3924 0f03 01       		.uleb128 0x1
 3925 0f04 51       		.byte	0x51
 3926 0f05 02       		.uleb128 0x2
 3927 0f06 76       		.byte	0x76
 3928 0f07 00       		.sleb128 0
 3929 0f08 20       		.uleb128 0x20
 3930 0f09 01       		.uleb128 0x1
 3931 0f0a 52       		.byte	0x52
 3932 0f0b 02       		.uleb128 0x2
 3933 0f0c 7A       		.byte	0x7a
 3934 0f0d 00       		.sleb128 0
 3935 0f0e 00       		.byte	0
 3936 0f0f 1E       		.uleb128 0x1e
 3937 0f10 FA000000 		.4byte	.LVL63
 3938 0f14 07150000 		.4byte	0x1507
 3939 0f18 1E       		.uleb128 0x1e
 3940 0f19 1A010000 		.4byte	.LVL65
 3941 0f1d E5140000 		.4byte	0x14e5
 3942 0f21 1E       		.uleb128 0x1e
 3943 0f22 64010000 		.4byte	.LVL66
 3944 0f26 C4140000 		.4byte	0x14c4
 3945 0f2a 1F       		.uleb128 0x1f
 3946 0f2b 78010000 		.4byte	.LVL67
 3947 0f2f FC140000 		.4byte	0x14fc
 3948 0f33 6C0F0000 		.4byte	0xf6c
 3949 0f37 20       		.uleb128 0x20
 3950 0f38 01       		.uleb128 0x1
 3951 0f39 50       		.byte	0x50
 3952 0f3a 02       		.uleb128 0x2
 3953 0f3b 75       		.byte	0x75
 3954 0f3c 00       		.sleb128 0
 3955 0f3d 20       		.uleb128 0x20
 3956 0f3e 01       		.uleb128 0x1
 3957 0f3f 51       		.byte	0x51
 3958 0f40 02       		.uleb128 0x2
 3959 0f41 76       		.byte	0x76
 3960 0f42 00       		.sleb128 0
ARM GAS  C:\Users\chemi\AppData\Local\Temp\ccr4fFHe.s 			page 84


 3961 0f43 20       		.uleb128 0x20
 3962 0f44 01       		.uleb128 0x1
 3963 0f45 52       		.byte	0x52
 3964 0f46 02       		.uleb128 0x2
 3965 0f47 76       		.byte	0x76
 3966 0f48 00       		.sleb128 0
 3967 0f49 20       		.uleb128 0x20
 3968 0f4a 01       		.uleb128 0x1
 3969 0f4b 53       		.byte	0x53
 3970 0f4c 02       		.uleb128 0x2
 3971 0f4d 76       		.byte	0x76
 3972 0f4e 00       		.sleb128 0
 3973 0f4f 20       		.uleb128 0x20
 3974 0f50 02       		.uleb128 0x2
 3975 0f51 7D       		.byte	0x7d
 3976 0f52 00       		.sleb128 0
 3977 0f53 02       		.uleb128 0x2
 3978 0f54 76       		.byte	0x76
 3979 0f55 00       		.sleb128 0
 3980 0f56 20       		.uleb128 0x20
 3981 0f57 02       		.uleb128 0x2
 3982 0f58 7D       		.byte	0x7d
 3983 0f59 04       		.sleb128 4
 3984 0f5a 02       		.uleb128 0x2
 3985 0f5b 76       		.byte	0x76
 3986 0f5c 00       		.sleb128 0
 3987 0f5d 20       		.uleb128 0x20
 3988 0f5e 02       		.uleb128 0x2
 3989 0f5f 7D       		.byte	0x7d
 3990 0f60 08       		.sleb128 8
 3991 0f61 02       		.uleb128 0x2
 3992 0f62 76       		.byte	0x76
 3993 0f63 00       		.sleb128 0
 3994 0f64 20       		.uleb128 0x20
 3995 0f65 02       		.uleb128 0x2
 3996 0f66 7D       		.byte	0x7d
 3997 0f67 0C       		.sleb128 12
 3998 0f68 02       		.uleb128 0x2
 3999 0f69 76       		.byte	0x76
 4000 0f6a 00       		.sleb128 0
 4001 0f6b 00       		.byte	0
 4002 0f6c 1F       		.uleb128 0x1f
 4003 0f6d 86010000 		.4byte	.LVL68
 4004 0f71 12150000 		.4byte	0x1512
 4005 0f75 990F0000 		.4byte	0xf99
 4006 0f79 20       		.uleb128 0x20
 4007 0f7a 01       		.uleb128 0x1
 4008 0f7b 50       		.byte	0x50
 4009 0f7c 02       		.uleb128 0x2
 4010 0f7d 75       		.byte	0x75
 4011 0f7e 00       		.sleb128 0
 4012 0f7f 20       		.uleb128 0x20
 4013 0f80 01       		.uleb128 0x1
 4014 0f81 51       		.byte	0x51
 4015 0f82 02       		.uleb128 0x2
 4016 0f83 76       		.byte	0x76
 4017 0f84 00       		.sleb128 0
ARM GAS  C:\Users\chemi\AppData\Local\Temp\ccr4fFHe.s 			page 85


 4018 0f85 20       		.uleb128 0x20
 4019 0f86 01       		.uleb128 0x1
 4020 0f87 52       		.byte	0x52
 4021 0f88 02       		.uleb128 0x2
 4022 0f89 76       		.byte	0x76
 4023 0f8a 00       		.sleb128 0
 4024 0f8b 20       		.uleb128 0x20
 4025 0f8c 01       		.uleb128 0x1
 4026 0f8d 53       		.byte	0x53
 4027 0f8e 02       		.uleb128 0x2
 4028 0f8f 76       		.byte	0x76
 4029 0f90 00       		.sleb128 0
 4030 0f91 20       		.uleb128 0x20
 4031 0f92 02       		.uleb128 0x2
 4032 0f93 7D       		.byte	0x7d
 4033 0f94 00       		.sleb128 0
 4034 0f95 02       		.uleb128 0x2
 4035 0f96 76       		.byte	0x76
 4036 0f97 00       		.sleb128 0
 4037 0f98 00       		.byte	0
 4038 0f99 1F       		.uleb128 0x1f
 4039 0f9a 8C010000 		.4byte	.LVL69
 4040 0f9e 2A0A0000 		.4byte	0xa2a
 4041 0fa2 AE0F0000 		.4byte	0xfae
 4042 0fa6 20       		.uleb128 0x20
 4043 0fa7 01       		.uleb128 0x1
 4044 0fa8 50       		.byte	0x50
 4045 0fa9 03       		.uleb128 0x3
 4046 0faa 91       		.byte	0x91
 4047 0fab 40       		.sleb128 -64
 4048 0fac 06       		.byte	0x6
 4049 0fad 00       		.byte	0
 4050 0fae 1F       		.uleb128 0x1f
 4051 0faf 94010000 		.4byte	.LVL70
 4052 0fb3 1D150000 		.4byte	0x151d
 4053 0fb7 C80F0000 		.4byte	0xfc8
 4054 0fbb 20       		.uleb128 0x20
 4055 0fbc 01       		.uleb128 0x1
 4056 0fbd 51       		.byte	0x51
 4057 0fbe 02       		.uleb128 0x2
 4058 0fbf 78       		.byte	0x78
 4059 0fc0 00       		.sleb128 0
 4060 0fc1 20       		.uleb128 0x20
 4061 0fc2 01       		.uleb128 0x1
 4062 0fc3 52       		.byte	0x52
 4063 0fc4 02       		.uleb128 0x2
 4064 0fc5 75       		.byte	0x75
 4065 0fc6 00       		.sleb128 0
 4066 0fc7 00       		.byte	0
 4067 0fc8 28       		.uleb128 0x28
 4068 0fc9 9E010000 		.4byte	.LVL72
 4069 0fcd CF140000 		.4byte	0x14cf
 4070 0fd1 00       		.byte	0
 4071 0fd2 29       		.uleb128 0x29
 4072 0fd3 AF090000 		.4byte	.LASF240
 4073 0fd7 01       		.byte	0x1
 4074 0fd8 D5       		.byte	0xd5
ARM GAS  C:\Users\chemi\AppData\Local\Temp\ccr4fFHe.s 			page 86


 4075 0fd9 AD000000 		.4byte	0xad
 4076 0fdd 00000000 		.4byte	.LFB79
 4077 0fe1 48010000 		.4byte	.LFE79-.LFB79
 4078 0fe5 01       		.uleb128 0x1
 4079 0fe6 9C       		.byte	0x9c
 4080 0fe7 2A100000 		.4byte	0x102a
 4081 0feb 34       		.uleb128 0x34
 4082 0fec 494400   		.ascii	"ID\000"
 4083 0fef 01       		.byte	0x1
 4084 0ff0 D5       		.byte	0xd5
 4085 0ff1 9A040000 		.4byte	0x49a
 4086 0ff5 ED050000 		.4byte	.LLST34
 4087 0ff9 1D       		.uleb128 0x1d
 4088 0ffa D0040000 		.4byte	.LASF216
 4089 0ffe 01       		.byte	0x1
 4090 0fff D5       		.byte	0xd5
 4091 1000 B8000000 		.4byte	0xb8
 4092 1004 0E060000 		.4byte	.LLST35
 4093 1008 1D       		.uleb128 0x1d
 4094 1009 5F020000 		.4byte	.LASF241
 4095 100d 01       		.byte	0x1
 4096 100e D5       		.byte	0xd5
 4097 100f B8000000 		.4byte	0xb8
 4098 1013 98070000 		.4byte	.LLST36
 4099 1017 1E       		.uleb128 0x1e
 4100 1018 30010000 		.4byte	.LVL118
 4101 101c E50B0000 		.4byte	0xbe5
 4102 1020 28       		.uleb128 0x28
 4103 1021 3C010000 		.4byte	.LVL119
 4104 1025 28150000 		.4byte	0x1528
 4105 1029 00       		.byte	0
 4106 102a 35       		.uleb128 0x35
 4107 102b 86040000 		.4byte	.LASF242
 4108 102f 01       		.byte	0x1
 4109 1030 0901     		.2byte	0x109
 4110 1032 00000000 		.4byte	.LFB80
 4111 1036 0C020000 		.4byte	.LFE80-.LFB80
 4112 103a 01       		.uleb128 0x1
 4113 103b 9C       		.byte	0x9c
 4114 103c 2F110000 		.4byte	0x112f
 4115 1040 36       		.uleb128 0x36
 4116 1041 494400   		.ascii	"ID\000"
 4117 1044 01       		.byte	0x1
 4118 1045 0901     		.2byte	0x109
 4119 1047 9A040000 		.4byte	0x49a
 4120 104b 14090000 		.4byte	.LLST37
 4121 104f 37       		.uleb128 0x37
 4122 1050 80040000 		.4byte	.LASF243
 4123 1054 01       		.byte	0x1
 4124 1055 0901     		.2byte	0x109
 4125 1057 AD000000 		.4byte	0xad
 4126 105b B2090000 		.4byte	.LLST38
 4127 105f 37       		.uleb128 0x37
 4128 1060 D0040000 		.4byte	.LASF216
 4129 1064 01       		.byte	0x1
 4130 1065 0901     		.2byte	0x109
 4131 1067 B8000000 		.4byte	0xb8
ARM GAS  C:\Users\chemi\AppData\Local\Temp\ccr4fFHe.s 			page 87


 4132 106b 900A0000 		.4byte	.LLST39
 4133 106f 37       		.uleb128 0x37
 4134 1070 5F020000 		.4byte	.LASF241
 4135 1074 01       		.byte	0x1
 4136 1075 0901     		.2byte	0x109
 4137 1077 B8000000 		.4byte	0xb8
 4138 107b 2E0B0000 		.4byte	.LLST40
 4139 107f 38       		.uleb128 0x38
 4140 1080 EC050000 		.4byte	.LASF238
 4141 1084 01       		.byte	0x1
 4142 1085 0B01     		.2byte	0x10b
 4143 1087 C10A0000 		.4byte	0xac1
 4144 108b 5A0B0000 		.4byte	.LLST41
 4145 108f 39       		.uleb128 0x39
 4146 1090 00000000 		.4byte	.Ldebug_ranges0+0
 4147 1094 38       		.uleb128 0x38
 4148 1095 E5000000 		.4byte	.LASF239
 4149 1099 01       		.byte	0x1
 4150 109a 4C01     		.2byte	0x14c
 4151 109c B8000000 		.4byte	0xb8
 4152 10a0 6D0B0000 		.4byte	.LLST42
 4153 10a4 24       		.uleb128 0x24
 4154 10a5 62010000 		.4byte	.LBB24
 4155 10a9 16000000 		.4byte	.LBE24-.LBB24
 4156 10ad C2100000 		.4byte	0x10c2
 4157 10b1 38       		.uleb128 0x38
 4158 10b2 390B0000 		.4byte	.LASF244
 4159 10b6 01       		.byte	0x1
 4160 10b7 5601     		.2byte	0x156
 4161 10b9 AD000000 		.4byte	0xad
 4162 10bd 8B0B0000 		.4byte	.LLST43
 4163 10c1 00       		.byte	0
 4164 10c2 1F       		.uleb128 0x1f
 4165 10c3 BC000000 		.4byte	.LVL130
 4166 10c7 FC140000 		.4byte	0x14fc
 4167 10cb E7100000 		.4byte	0x10e7
 4168 10cf 20       		.uleb128 0x20
 4169 10d0 01       		.uleb128 0x1
 4170 10d1 50       		.byte	0x50
 4171 10d2 02       		.uleb128 0x2
 4172 10d3 77       		.byte	0x77
 4173 10d4 00       		.sleb128 0
 4174 10d5 20       		.uleb128 0x20
 4175 10d6 01       		.uleb128 0x1
 4176 10d7 51       		.byte	0x51
 4177 10d8 01       		.uleb128 0x1
 4178 10d9 31       		.byte	0x31
 4179 10da 20       		.uleb128 0x20
 4180 10db 02       		.uleb128 0x2
 4181 10dc 7D       		.byte	0x7d
 4182 10dd 08       		.sleb128 8
 4183 10de 01       		.uleb128 0x1
 4184 10df 30       		.byte	0x30
 4185 10e0 20       		.uleb128 0x20
 4186 10e1 02       		.uleb128 0x2
 4187 10e2 7D       		.byte	0x7d
 4188 10e3 0C       		.sleb128 12
ARM GAS  C:\Users\chemi\AppData\Local\Temp\ccr4fFHe.s 			page 88


 4189 10e4 01       		.uleb128 0x1
 4190 10e5 30       		.byte	0x30
 4191 10e6 00       		.byte	0
 4192 10e7 1F       		.uleb128 0x1f
 4193 10e8 36010000 		.4byte	.LVL136
 4194 10ec 12150000 		.4byte	0x1512
 4195 10f0 FB100000 		.4byte	0x10fb
 4196 10f4 20       		.uleb128 0x20
 4197 10f5 01       		.uleb128 0x1
 4198 10f6 50       		.byte	0x50
 4199 10f7 02       		.uleb128 0x2
 4200 10f8 77       		.byte	0x77
 4201 10f9 00       		.sleb128 0
 4202 10fa 00       		.byte	0
 4203 10fb 1E       		.uleb128 0x1e
 4204 10fc 5A010000 		.4byte	.LVL140
 4205 1100 07150000 		.4byte	0x1507
 4206 1104 1F       		.uleb128 0x1f
 4207 1105 AA010000 		.4byte	.LVL151
 4208 1109 FC140000 		.4byte	0x14fc
 4209 110d 1D110000 		.4byte	0x111d
 4210 1111 20       		.uleb128 0x20
 4211 1112 01       		.uleb128 0x1
 4212 1113 50       		.byte	0x50
 4213 1114 02       		.uleb128 0x2
 4214 1115 77       		.byte	0x77
 4215 1116 00       		.sleb128 0
 4216 1117 20       		.uleb128 0x20
 4217 1118 01       		.uleb128 0x1
 4218 1119 51       		.byte	0x51
 4219 111a 01       		.uleb128 0x1
 4220 111b 31       		.byte	0x31
 4221 111c 00       		.byte	0
 4222 111d 21       		.uleb128 0x21
 4223 111e FE010000 		.4byte	.LVL166
 4224 1122 12150000 		.4byte	0x1512
 4225 1126 20       		.uleb128 0x20
 4226 1127 01       		.uleb128 0x1
 4227 1128 50       		.byte	0x50
 4228 1129 02       		.uleb128 0x2
 4229 112a 77       		.byte	0x77
 4230 112b 00       		.sleb128 0
 4231 112c 00       		.byte	0
 4232 112d 00       		.byte	0
 4233 112e 00       		.byte	0
 4234 112f 3A       		.uleb128 0x3a
 4235 1130 10010000 		.4byte	.LASF245
 4236 1134 01       		.byte	0x1
 4237 1135 8A01     		.2byte	0x18a
 4238 1137 AD000000 		.4byte	0xad
 4239 113b 00000000 		.4byte	.LFB81
 4240 113f C4000000 		.4byte	.LFE81-.LFB81
 4241 1143 01       		.uleb128 0x1
 4242 1144 9C       		.byte	0x9c
 4243 1145 79110000 		.4byte	0x1179
 4244 1149 36       		.uleb128 0x36
 4245 114a 494400   		.ascii	"ID\000"
ARM GAS  C:\Users\chemi\AppData\Local\Temp\ccr4fFHe.s 			page 89


 4246 114d 01       		.byte	0x1
 4247 114e 8A01     		.2byte	0x18a
 4248 1150 9A040000 		.4byte	0x49a
 4249 1154 CF0B0000 		.4byte	.LLST44
 4250 1158 37       		.uleb128 0x37
 4251 1159 D0040000 		.4byte	.LASF216
 4252 115d 01       		.byte	0x1
 4253 115e 8A01     		.2byte	0x18a
 4254 1160 B8000000 		.4byte	0xb8
 4255 1164 B80C0000 		.4byte	.LLST45
 4256 1168 37       		.uleb128 0x37
 4257 1169 5F020000 		.4byte	.LASF241
 4258 116d 01       		.byte	0x1
 4259 116e 8A01     		.2byte	0x18a
 4260 1170 B8000000 		.4byte	0xb8
 4261 1174 930D0000 		.4byte	.LLST46
 4262 1178 00       		.byte	0
 4263 1179 3B       		.uleb128 0x3b
 4264 117a E4030000 		.4byte	.LASF247
 4265 117e 01       		.byte	0x1
 4266 117f C301     		.2byte	0x1c3
 4267 1181 00000000 		.4byte	.LFB83
 4268 1185 30000000 		.4byte	.LFE83-.LFB83
 4269 1189 01       		.uleb128 0x1
 4270 118a 9C       		.byte	0x9c
 4271 118b E3110000 		.4byte	0x11e3
 4272 118f 24       		.uleb128 0x24
 4273 1190 0A000000 		.4byte	.LBB27
 4274 1194 1A000000 		.4byte	.LBE27-.LBB27
 4275 1198 C7110000 		.4byte	0x11c7
 4276 119c 38       		.uleb128 0x38
 4277 119d 710B0000 		.4byte	.LASF248
 4278 11a1 01       		.byte	0x1
 4279 11a2 C801     		.2byte	0x1c8
 4280 11a4 B8000000 		.4byte	0xb8
 4281 11a8 6E0E0000 		.4byte	.LLST47
 4282 11ac 2B       		.uleb128 0x2b
 4283 11ad 0A000000 		.4byte	.LBB28
 4284 11b1 1A000000 		.4byte	.LBE28-.LBB28
 4285 11b5 38       		.uleb128 0x38
 4286 11b6 8E030000 		.4byte	.LASF220
 4287 11ba 01       		.byte	0x1
 4288 11bb C901     		.2byte	0x1c9
 4289 11bd 97000000 		.4byte	0x97
 4290 11c1 8E0E0000 		.4byte	.LLST48
 4291 11c5 00       		.byte	0
 4292 11c6 00       		.byte	0
 4293 11c7 1E       		.uleb128 0x1e
 4294 11c8 06000000 		.4byte	.LVL202
 4295 11cc C4140000 		.4byte	0x14c4
 4296 11d0 1E       		.uleb128 0x1e
 4297 11d1 0A000000 		.4byte	.LVL203
 4298 11d5 33150000 		.4byte	0x1533
 4299 11d9 28       		.uleb128 0x28
 4300 11da 2C000000 		.4byte	.LVL206
 4301 11de CF140000 		.4byte	0x14cf
 4302 11e2 00       		.byte	0
ARM GAS  C:\Users\chemi\AppData\Local\Temp\ccr4fFHe.s 			page 90


 4303 11e3 35       		.uleb128 0x35
 4304 11e4 61010000 		.4byte	.LASF249
 4305 11e8 01       		.byte	0x1
 4306 11e9 D301     		.2byte	0x1d3
 4307 11eb 00000000 		.4byte	.LFB84
 4308 11ef 48000000 		.4byte	.LFE84-.LFB84
 4309 11f3 01       		.uleb128 0x1
 4310 11f4 9C       		.byte	0x9c
 4311 11f5 7C120000 		.4byte	0x127c
 4312 11f9 37       		.uleb128 0x37
 4313 11fa D0060000 		.4byte	.LASF217
 4314 11fe 01       		.byte	0x1
 4315 11ff D301     		.2byte	0x1d3
 4316 1201 B8000000 		.4byte	0xb8
 4317 1205 A20E0000 		.4byte	.LLST49
 4318 1209 3C       		.uleb128 0x3c
 4319 120a 20000000 		.4byte	.Ldebug_ranges0+0x20
 4320 120e 69120000 		.4byte	0x1269
 4321 1212 38       		.uleb128 0x38
 4322 1213 710B0000 		.4byte	.LASF248
 4323 1217 01       		.byte	0x1
 4324 1218 D601     		.2byte	0x1d6
 4325 121a B8000000 		.4byte	0xb8
 4326 121e CE0E0000 		.4byte	.LLST50
 4327 1222 39       		.uleb128 0x39
 4328 1223 20000000 		.4byte	.Ldebug_ranges0+0x20
 4329 1227 38       		.uleb128 0x38
 4330 1228 8E030000 		.4byte	.LASF220
 4331 122c 01       		.byte	0x1
 4332 122d D701     		.2byte	0x1d7
 4333 122f 97000000 		.4byte	0x97
 4334 1233 EE0E0000 		.4byte	.LLST51
 4335 1237 39       		.uleb128 0x39
 4336 1238 38000000 		.4byte	.Ldebug_ranges0+0x38
 4337 123c 38       		.uleb128 0x38
 4338 123d EC050000 		.4byte	.LASF238
 4339 1241 01       		.byte	0x1
 4340 1242 D901     		.2byte	0x1d9
 4341 1244 C10A0000 		.4byte	0xac1
 4342 1248 1A0F0000 		.4byte	.LLST52
 4343 124c 21       		.uleb128 0x21
 4344 124d 34000000 		.4byte	.LVL212
 4345 1251 2A100000 		.4byte	0x102a
 4346 1255 20       		.uleb128 0x20
 4347 1256 01       		.uleb128 0x1
 4348 1257 50       		.byte	0x50
 4349 1258 01       		.uleb128 0x1
 4350 1259 36       		.byte	0x36
 4351 125a 20       		.uleb128 0x20
 4352 125b 01       		.uleb128 0x1
 4353 125c 52       		.byte	0x52
 4354 125d 01       		.uleb128 0x1
 4355 125e 30       		.byte	0x30
 4356 125f 20       		.uleb128 0x20
 4357 1260 01       		.uleb128 0x1
 4358 1261 53       		.byte	0x53
 4359 1262 02       		.uleb128 0x2
ARM GAS  C:\Users\chemi\AppData\Local\Temp\ccr4fFHe.s 			page 91


 4360 1263 74       		.byte	0x74
 4361 1264 00       		.sleb128 0
 4362 1265 00       		.byte	0
 4363 1266 00       		.byte	0
 4364 1267 00       		.byte	0
 4365 1268 00       		.byte	0
 4366 1269 1E       		.uleb128 0x1e
 4367 126a 08000000 		.4byte	.LVL208
 4368 126e C4140000 		.4byte	0x14c4
 4369 1272 28       		.uleb128 0x28
 4370 1273 42000000 		.4byte	.LVL216
 4371 1277 CF140000 		.4byte	0x14cf
 4372 127b 00       		.byte	0
 4373 127c 35       		.uleb128 0x35
 4374 127d 440B0000 		.4byte	.LASF250
 4375 1281 01       		.byte	0x1
 4376 1282 E801     		.2byte	0x1e8
 4377 1284 00000000 		.4byte	.LFB85
 4378 1288 A0000000 		.4byte	.LFE85-.LFB85
 4379 128c 01       		.uleb128 0x1
 4380 128d 9C       		.byte	0x9c
 4381 128e 57130000 		.4byte	0x1357
 4382 1292 37       		.uleb128 0x37
 4383 1293 D0060000 		.4byte	.LASF217
 4384 1297 01       		.byte	0x1
 4385 1298 E801     		.2byte	0x1e8
 4386 129a B8000000 		.4byte	0xb8
 4387 129e 450F0000 		.4byte	.LLST53
 4388 12a2 3C       		.uleb128 0x3c
 4389 12a3 50000000 		.4byte	.Ldebug_ranges0+0x50
 4390 12a7 44130000 		.4byte	0x1344
 4391 12ab 38       		.uleb128 0x38
 4392 12ac 710B0000 		.4byte	.LASF248
 4393 12b0 01       		.byte	0x1
 4394 12b1 EB01     		.2byte	0x1eb
 4395 12b3 B8000000 		.4byte	0xb8
 4396 12b7 710F0000 		.4byte	.LLST54
 4397 12bb 39       		.uleb128 0x39
 4398 12bc 50000000 		.4byte	.Ldebug_ranges0+0x50
 4399 12c0 38       		.uleb128 0x38
 4400 12c1 8E030000 		.4byte	.LASF220
 4401 12c5 01       		.byte	0x1
 4402 12c6 EC01     		.2byte	0x1ec
 4403 12c8 97000000 		.4byte	0x97
 4404 12cc 910F0000 		.4byte	.LLST55
 4405 12d0 39       		.uleb128 0x39
 4406 12d1 68000000 		.4byte	.Ldebug_ranges0+0x68
 4407 12d5 38       		.uleb128 0x38
 4408 12d6 EC050000 		.4byte	.LASF238
 4409 12da 01       		.byte	0x1
 4410 12db EE01     		.2byte	0x1ee
 4411 12dd C10A0000 		.4byte	0xac1
 4412 12e1 BD0F0000 		.4byte	.LLST56
 4413 12e5 2B       		.uleb128 0x2b
 4414 12e6 28000000 		.4byte	.LBB38
 4415 12ea 66000000 		.4byte	.LBE38-.LBB38
 4416 12ee 3D       		.uleb128 0x3d
ARM GAS  C:\Users\chemi\AppData\Local\Temp\ccr4fFHe.s 			page 92


 4417 12ef 4B060000 		.4byte	.LASF235
 4418 12f3 01       		.byte	0x1
 4419 12f4 F201     		.2byte	0x1f2
 4420 12f6 E1000000 		.4byte	0xe1
 4421 12fa 02       		.uleb128 0x2
 4422 12fb 91       		.byte	0x91
 4423 12fc 64       		.sleb128 -28
 4424 12fd 1F       		.uleb128 0x1f
 4425 12fe 38000000 		.4byte	.LVL221
 4426 1302 3E150000 		.4byte	0x153e
 4427 1306 11130000 		.4byte	0x1311
 4428 130a 20       		.uleb128 0x20
 4429 130b 01       		.uleb128 0x1
 4430 130c 50       		.byte	0x50
 4431 130d 02       		.uleb128 0x2
 4432 130e 76       		.byte	0x76
 4433 130f 00       		.sleb128 0
 4434 1310 00       		.byte	0
 4435 1311 1F       		.uleb128 0x1f
 4436 1312 54000000 		.4byte	.LVL222
 4437 1316 49150000 		.4byte	0x1549
 4438 131a 25130000 		.4byte	0x1325
 4439 131e 20       		.uleb128 0x20
 4440 131f 01       		.uleb128 0x1
 4441 1320 50       		.byte	0x50
 4442 1321 02       		.uleb128 0x2
 4443 1322 76       		.byte	0x76
 4444 1323 00       		.sleb128 0
 4445 1324 00       		.byte	0
 4446 1325 21       		.uleb128 0x21
 4447 1326 8C000000 		.4byte	.LVL223
 4448 132a 2A100000 		.4byte	0x102a
 4449 132e 20       		.uleb128 0x20
 4450 132f 01       		.uleb128 0x1
 4451 1330 50       		.byte	0x50
 4452 1331 02       		.uleb128 0x2
 4453 1332 08       		.byte	0x8
 4454 1333 26       		.byte	0x26
 4455 1334 20       		.uleb128 0x20
 4456 1335 01       		.uleb128 0x1
 4457 1336 52       		.byte	0x52
 4458 1337 01       		.uleb128 0x1
 4459 1338 30       		.byte	0x30
 4460 1339 20       		.uleb128 0x20
 4461 133a 01       		.uleb128 0x1
 4462 133b 53       		.byte	0x53
 4463 133c 02       		.uleb128 0x2
 4464 133d 75       		.byte	0x75
 4465 133e 00       		.sleb128 0
 4466 133f 00       		.byte	0
 4467 1340 00       		.byte	0
 4468 1341 00       		.byte	0
 4469 1342 00       		.byte	0
 4470 1343 00       		.byte	0
 4471 1344 1E       		.uleb128 0x1e
 4472 1345 0A000000 		.4byte	.LVL218
 4473 1349 C4140000 		.4byte	0x14c4
ARM GAS  C:\Users\chemi\AppData\Local\Temp\ccr4fFHe.s 			page 93


 4474 134d 1E       		.uleb128 0x1e
 4475 134e 96000000 		.4byte	.LVL226
 4476 1352 CF140000 		.4byte	0x14cf
 4477 1356 00       		.byte	0
 4478 1357 3B       		.uleb128 0x3b
 4479 1358 F2090000 		.4byte	.LASF251
 4480 135c 01       		.byte	0x1
 4481 135d 1302     		.2byte	0x213
 4482 135f 00000000 		.4byte	.LFB86
 4483 1363 4C000000 		.4byte	.LFE86-.LFB86
 4484 1367 01       		.uleb128 0x1
 4485 1368 9C       		.byte	0x9c
 4486 1369 EF130000 		.4byte	0x13ef
 4487 136d 3C       		.uleb128 0x3c
 4488 136e 80000000 		.4byte	.Ldebug_ranges0+0x80
 4489 1372 DC130000 		.4byte	0x13dc
 4490 1376 38       		.uleb128 0x38
 4491 1377 710B0000 		.4byte	.LASF248
 4492 137b 01       		.byte	0x1
 4493 137c 1602     		.2byte	0x216
 4494 137e B8000000 		.4byte	0xb8
 4495 1382 D00F0000 		.4byte	.LLST57
 4496 1386 39       		.uleb128 0x39
 4497 1387 80000000 		.4byte	.Ldebug_ranges0+0x80
 4498 138b 38       		.uleb128 0x38
 4499 138c 8E030000 		.4byte	.LASF220
 4500 1390 01       		.byte	0x1
 4501 1391 1702     		.2byte	0x217
 4502 1393 97000000 		.4byte	0x97
 4503 1397 F00F0000 		.4byte	.LLST58
 4504 139b 39       		.uleb128 0x39
 4505 139c 98000000 		.4byte	.Ldebug_ranges0+0x98
 4506 13a0 38       		.uleb128 0x38
 4507 13a1 EC050000 		.4byte	.LASF238
 4508 13a5 01       		.byte	0x1
 4509 13a6 1902     		.2byte	0x219
 4510 13a8 C10A0000 		.4byte	0xac1
 4511 13ac 1C100000 		.4byte	.LLST59
 4512 13b0 3D       		.uleb128 0x3d
 4513 13b1 9F060000 		.4byte	.LASF252
 4514 13b5 01       		.byte	0x1
 4515 13b6 2002     		.2byte	0x220
 4516 13b8 E1000000 		.4byte	0xe1
 4517 13bc 02       		.uleb128 0x2
 4518 13bd 91       		.byte	0x91
 4519 13be 64       		.sleb128 -28
 4520 13bf 21       		.uleb128 0x21
 4521 13c0 36000000 		.4byte	.LVL232
 4522 13c4 2A100000 		.4byte	0x102a
 4523 13c8 20       		.uleb128 0x20
 4524 13c9 01       		.uleb128 0x1
 4525 13ca 50       		.byte	0x50
 4526 13cb 01       		.uleb128 0x1
 4527 13cc 32       		.byte	0x32
 4528 13cd 20       		.uleb128 0x20
 4529 13ce 01       		.uleb128 0x1
 4530 13cf 52       		.byte	0x52
ARM GAS  C:\Users\chemi\AppData\Local\Temp\ccr4fFHe.s 			page 94


 4531 13d0 01       		.uleb128 0x1
 4532 13d1 30       		.byte	0x30
 4533 13d2 20       		.uleb128 0x20
 4534 13d3 01       		.uleb128 0x1
 4535 13d4 53       		.byte	0x53
 4536 13d5 02       		.uleb128 0x2
 4537 13d6 74       		.byte	0x74
 4538 13d7 00       		.sleb128 0
 4539 13d8 00       		.byte	0
 4540 13d9 00       		.byte	0
 4541 13da 00       		.byte	0
 4542 13db 00       		.byte	0
 4543 13dc 1E       		.uleb128 0x1e
 4544 13dd 06000000 		.4byte	.LVL228
 4545 13e1 C4140000 		.4byte	0x14c4
 4546 13e5 1E       		.uleb128 0x1e
 4547 13e6 40000000 		.4byte	.LVL235
 4548 13ea CF140000 		.4byte	0x14cf
 4549 13ee 00       		.byte	0
 4550 13ef 3E       		.uleb128 0x3e
 4551 13f0 410D0000 		.4byte	.LASF253
 4552 13f4 01       		.byte	0x1
 4553 13f5 16       		.byte	0x16
 4554 13f6 00140000 		.4byte	0x1400
 4555 13fa 05       		.uleb128 0x5
 4556 13fb 03       		.byte	0x3
 4557 13fc 00000000 		.4byte	voiceData
 4558 1400 11       		.uleb128 0x11
 4559 1401 04       		.byte	0x4
 4560 1402 C10A0000 		.4byte	0xac1
 4561 1406 3F       		.uleb128 0x3f
 4562 1407 57050000 		.4byte	.LASF254
 4563 140b 01       		.byte	0x1
 4564 140c 1C       		.byte	0x1c
 4565 140d 13140000 		.4byte	0x1413
 4566 1411 B901     		.2byte	0x1b9
 4567 1413 12       		.uleb128 0x12
 4568 1414 B8000000 		.4byte	0xb8
 4569 1418 40       		.uleb128 0x40
 4570 1419 BF080000 		.4byte	.LASF255
 4571 141d 0A       		.byte	0xa
 4572 141e 1207     		.2byte	0x712
 4573 1420 31010000 		.4byte	0x131
 4574 1424 41       		.uleb128 0x41
 4575 1425 49070000 		.4byte	.LASF256
 4576 1429 0B       		.byte	0xb
 4577 142a 06       		.byte	0x6
 4578 142b DF040000 		.4byte	0x4df
 4579 142f 41       		.uleb128 0x41
 4580 1430 A2020000 		.4byte	.LASF257
 4581 1434 0B       		.byte	0xb
 4582 1435 07       		.byte	0x7
 4583 1436 DF040000 		.4byte	0x4df
 4584 143a 41       		.uleb128 0x41
 4585 143b 8B0D0000 		.4byte	.LASF258
 4586 143f 0B       		.byte	0xb
 4587 1440 08       		.byte	0x8
ARM GAS  C:\Users\chemi\AppData\Local\Temp\ccr4fFHe.s 			page 95


 4588 1441 DF040000 		.4byte	0x4df
 4589 1445 42       		.uleb128 0x42
 4590 1446 49030000 		.4byte	.LASF259
 4591 144a 08       		.byte	0x8
 4592 144b 59       		.byte	0x59
 4593 144c E0050000 		.4byte	0x5e0
 4594 1450 05       		.uleb128 0x5
 4595 1451 03       		.byte	0x3
 4596 1452 00000000 		.4byte	interrupter
 4597 1456 41       		.uleb128 0x41
 4598 1457 16060000 		.4byte	.LASF260
 4599 145b 09       		.byte	0x9
 4600 145c A1       		.byte	0xa1
 4601 145d A8080000 		.4byte	0x8a8
 4602 1461 41       		.uleb128 0x41
 4603 1462 3B0E0000 		.4byte	.LASF261
 4604 1466 09       		.byte	0x9
 4605 1467 A2       		.byte	0xa2
 4606 1468 A3090000 		.4byte	0x9a3
 4607 146c 41       		.uleb128 0x41
 4608 146d 30070000 		.4byte	.LASF262
 4609 1471 0C       		.byte	0xc
 4610 1472 21       		.byte	0x21
 4611 1473 77140000 		.4byte	0x1477
 4612 1477 11       		.uleb128 0x11
 4613 1478 04       		.byte	0x4
 4614 1479 7D140000 		.4byte	0x147d
 4615 147d 06       		.uleb128 0x6
 4616 147e DF040000 		.4byte	0x4df
 4617 1482 43       		.uleb128 0x43
 4618 1483 3D060000 		.4byte	.LASF263
 4619 1487 3D060000 		.4byte	.LASF263
 4620 148b 05       		.byte	0x5
 4621 148c 91       		.byte	0x91
 4622 148d 44       		.uleb128 0x44
 4623 148e B80A0000 		.4byte	.LASF264
 4624 1492 B80A0000 		.4byte	.LASF264
 4625 1496 0D       		.byte	0xd
 4626 1497 0C03     		.2byte	0x30c
 4627 1499 43       		.uleb128 0x43
 4628 149a 55030000 		.4byte	.LASF265
 4629 149e 55030000 		.4byte	.LASF265
 4630 14a2 0E       		.byte	0xe
 4631 14a3 B0       		.byte	0xb0
 4632 14a4 45       		.uleb128 0x45
 4633 14a5 C9040000 		.4byte	.LASF288
 4634 14a9 C9040000 		.4byte	.LASF288
 4635 14ad 43       		.uleb128 0x43
 4636 14ae 1B0C0000 		.4byte	.LASF266
 4637 14b2 1B0C0000 		.4byte	.LASF266
 4638 14b6 05       		.byte	0x5
 4639 14b7 94       		.byte	0x94
 4640 14b8 44       		.uleb128 0x44
 4641 14b9 E6090000 		.4byte	.LASF267
 4642 14bd E6090000 		.4byte	.LASF267
 4643 14c1 0D       		.byte	0xd
 4644 14c2 5501     		.2byte	0x155
ARM GAS  C:\Users\chemi\AppData\Local\Temp\ccr4fFHe.s 			page 96


 4645 14c4 43       		.uleb128 0x43
 4646 14c5 F9060000 		.4byte	.LASF268
 4647 14c9 F9060000 		.4byte	.LASF268
 4648 14cd 05       		.byte	0x5
 4649 14ce 92       		.byte	0x92
 4650 14cf 43       		.uleb128 0x43
 4651 14d0 A6010000 		.4byte	.LASF269
 4652 14d4 A6010000 		.4byte	.LASF269
 4653 14d8 05       		.byte	0x5
 4654 14d9 93       		.byte	0x93
 4655 14da 43       		.uleb128 0x43
 4656 14db 3E010000 		.4byte	.LASF270
 4657 14df 3E010000 		.4byte	.LASF270
 4658 14e3 05       		.byte	0x5
 4659 14e4 8E       		.byte	0x8e
 4660 14e5 44       		.uleb128 0x44
 4661 14e6 E1020000 		.4byte	.LASF271
 4662 14ea E1020000 		.4byte	.LASF271
 4663 14ee 0D       		.byte	0xd
 4664 14ef 9305     		.2byte	0x593
 4665 14f1 43       		.uleb128 0x43
 4666 14f2 7B070000 		.4byte	.LASF272
 4667 14f6 7B070000 		.4byte	.LASF272
 4668 14fa 05       		.byte	0x5
 4669 14fb 8D       		.byte	0x8d
 4670 14fc 43       		.uleb128 0x43
 4671 14fd 42020000 		.4byte	.LASF273
 4672 1501 42020000 		.4byte	.LASF273
 4673 1505 07       		.byte	0x7
 4674 1506 97       		.byte	0x97
 4675 1507 43       		.uleb128 0x43
 4676 1508 370A0000 		.4byte	.LASF274
 4677 150c 370A0000 		.4byte	.LASF274
 4678 1510 0F       		.byte	0xf
 4679 1511 49       		.byte	0x49
 4680 1512 43       		.uleb128 0x43
 4681 1513 C10C0000 		.4byte	.LASF275
 4682 1517 C10C0000 		.4byte	.LASF275
 4683 151b 07       		.byte	0x7
 4684 151c 96       		.byte	0x96
 4685 151d 43       		.uleb128 0x43
 4686 151e 0C080000 		.4byte	.LASF276
 4687 1522 0C080000 		.4byte	.LASF276
 4688 1526 05       		.byte	0x5
 4689 1527 90       		.byte	0x90
 4690 1528 43       		.uleb128 0x43
 4691 1529 CE010000 		.4byte	.LASF277
 4692 152d CE010000 		.4byte	.LASF277
 4693 1531 0F       		.byte	0xf
 4694 1532 46       		.byte	0x46
 4695 1533 43       		.uleb128 0x43
 4696 1534 97010000 		.4byte	.LASF278
 4697 1538 97010000 		.4byte	.LASF278
 4698 153c 05       		.byte	0x5
 4699 153d 8F       		.byte	0x8f
 4700 153e 43       		.uleb128 0x43
 4701 153f 5D070000 		.4byte	.LASF279
ARM GAS  C:\Users\chemi\AppData\Local\Temp\ccr4fFHe.s 			page 97


 4702 1543 5D070000 		.4byte	.LASF279
 4703 1547 0F       		.byte	0xf
 4704 1548 45       		.byte	0x45
 4705 1549 43       		.uleb128 0x43
 4706 154a B1040000 		.4byte	.LASF280
 4707 154e B1040000 		.4byte	.LASF280
 4708 1552 0F       		.byte	0xf
 4709 1553 47       		.byte	0x47
 4710 1554 00       		.byte	0
 4711              		.section	.debug_abbrev,"",%progbits
 4712              	.Ldebug_abbrev0:
 4713 0000 01       		.uleb128 0x1
 4714 0001 11       		.uleb128 0x11
 4715 0002 01       		.byte	0x1
 4716 0003 25       		.uleb128 0x25
 4717 0004 0E       		.uleb128 0xe
 4718 0005 13       		.uleb128 0x13
 4719 0006 0B       		.uleb128 0xb
 4720 0007 03       		.uleb128 0x3
 4721 0008 0E       		.uleb128 0xe
 4722 0009 1B       		.uleb128 0x1b
 4723 000a 0E       		.uleb128 0xe
 4724 000b 55       		.uleb128 0x55
 4725 000c 17       		.uleb128 0x17
 4726 000d 11       		.uleb128 0x11
 4727 000e 01       		.uleb128 0x1
 4728 000f 10       		.uleb128 0x10
 4729 0010 17       		.uleb128 0x17
 4730 0011 00       		.byte	0
 4731 0012 00       		.byte	0
 4732 0013 02       		.uleb128 0x2
 4733 0014 24       		.uleb128 0x24
 4734 0015 00       		.byte	0
 4735 0016 0B       		.uleb128 0xb
 4736 0017 0B       		.uleb128 0xb
 4737 0018 3E       		.uleb128 0x3e
 4738 0019 0B       		.uleb128 0xb
 4739 001a 03       		.uleb128 0x3
 4740 001b 0E       		.uleb128 0xe
 4741 001c 00       		.byte	0
 4742 001d 00       		.byte	0
 4743 001e 03       		.uleb128 0x3
 4744 001f 16       		.uleb128 0x16
 4745 0020 00       		.byte	0
 4746 0021 03       		.uleb128 0x3
 4747 0022 0E       		.uleb128 0xe
 4748 0023 3A       		.uleb128 0x3a
 4749 0024 0B       		.uleb128 0xb
 4750 0025 3B       		.uleb128 0x3b
 4751 0026 0B       		.uleb128 0xb
 4752 0027 49       		.uleb128 0x49
 4753 0028 13       		.uleb128 0x13
 4754 0029 00       		.byte	0
 4755 002a 00       		.byte	0
 4756 002b 04       		.uleb128 0x4
 4757 002c 24       		.uleb128 0x24
 4758 002d 00       		.byte	0
ARM GAS  C:\Users\chemi\AppData\Local\Temp\ccr4fFHe.s 			page 98


 4759 002e 0B       		.uleb128 0xb
 4760 002f 0B       		.uleb128 0xb
 4761 0030 3E       		.uleb128 0x3e
 4762 0031 0B       		.uleb128 0xb
 4763 0032 03       		.uleb128 0x3
 4764 0033 08       		.uleb128 0x8
 4765 0034 00       		.byte	0
 4766 0035 00       		.byte	0
 4767 0036 05       		.uleb128 0x5
 4768 0037 0F       		.uleb128 0xf
 4769 0038 00       		.byte	0
 4770 0039 0B       		.uleb128 0xb
 4771 003a 0B       		.uleb128 0xb
 4772 003b 00       		.byte	0
 4773 003c 00       		.byte	0
 4774 003d 06       		.uleb128 0x6
 4775 003e 35       		.uleb128 0x35
 4776 003f 00       		.byte	0
 4777 0040 49       		.uleb128 0x49
 4778 0041 13       		.uleb128 0x13
 4779 0042 00       		.byte	0
 4780 0043 00       		.byte	0
 4781 0044 07       		.uleb128 0x7
 4782 0045 04       		.uleb128 0x4
 4783 0046 01       		.byte	0x1
 4784 0047 03       		.uleb128 0x3
 4785 0048 0E       		.uleb128 0xe
 4786 0049 0B       		.uleb128 0xb
 4787 004a 0B       		.uleb128 0xb
 4788 004b 49       		.uleb128 0x49
 4789 004c 13       		.uleb128 0x13
 4790 004d 3A       		.uleb128 0x3a
 4791 004e 0B       		.uleb128 0xb
 4792 004f 3B       		.uleb128 0x3b
 4793 0050 0B       		.uleb128 0xb
 4794 0051 01       		.uleb128 0x1
 4795 0052 13       		.uleb128 0x13
 4796 0053 00       		.byte	0
 4797 0054 00       		.byte	0
 4798 0055 08       		.uleb128 0x8
 4799 0056 28       		.uleb128 0x28
 4800 0057 00       		.byte	0
 4801 0058 03       		.uleb128 0x3
 4802 0059 0E       		.uleb128 0xe
 4803 005a 1C       		.uleb128 0x1c
 4804 005b 0B       		.uleb128 0xb
 4805 005c 00       		.byte	0
 4806 005d 00       		.byte	0
 4807 005e 09       		.uleb128 0x9
 4808 005f 13       		.uleb128 0x13
 4809 0060 01       		.byte	0x1
 4810 0061 03       		.uleb128 0x3
 4811 0062 0E       		.uleb128 0xe
 4812 0063 0B       		.uleb128 0xb
 4813 0064 0B       		.uleb128 0xb
 4814 0065 3A       		.uleb128 0x3a
 4815 0066 0B       		.uleb128 0xb
ARM GAS  C:\Users\chemi\AppData\Local\Temp\ccr4fFHe.s 			page 99


 4816 0067 3B       		.uleb128 0x3b
 4817 0068 0B       		.uleb128 0xb
 4818 0069 01       		.uleb128 0x1
 4819 006a 13       		.uleb128 0x13
 4820 006b 00       		.byte	0
 4821 006c 00       		.byte	0
 4822 006d 0A       		.uleb128 0xa
 4823 006e 0D       		.uleb128 0xd
 4824 006f 00       		.byte	0
 4825 0070 03       		.uleb128 0x3
 4826 0071 0E       		.uleb128 0xe
 4827 0072 3A       		.uleb128 0x3a
 4828 0073 0B       		.uleb128 0xb
 4829 0074 3B       		.uleb128 0x3b
 4830 0075 0B       		.uleb128 0xb
 4831 0076 49       		.uleb128 0x49
 4832 0077 13       		.uleb128 0x13
 4833 0078 38       		.uleb128 0x38
 4834 0079 0B       		.uleb128 0xb
 4835 007a 00       		.byte	0
 4836 007b 00       		.byte	0
 4837 007c 0B       		.uleb128 0xb
 4838 007d 0D       		.uleb128 0xd
 4839 007e 00       		.byte	0
 4840 007f 03       		.uleb128 0x3
 4841 0080 0E       		.uleb128 0xe
 4842 0081 3A       		.uleb128 0x3a
 4843 0082 0B       		.uleb128 0xb
 4844 0083 3B       		.uleb128 0x3b
 4845 0084 0B       		.uleb128 0xb
 4846 0085 49       		.uleb128 0x49
 4847 0086 13       		.uleb128 0x13
 4848 0087 0B       		.uleb128 0xb
 4849 0088 0B       		.uleb128 0xb
 4850 0089 0D       		.uleb128 0xd
 4851 008a 0B       		.uleb128 0xb
 4852 008b 0C       		.uleb128 0xc
 4853 008c 0B       		.uleb128 0xb
 4854 008d 38       		.uleb128 0x38
 4855 008e 0B       		.uleb128 0xb
 4856 008f 00       		.byte	0
 4857 0090 00       		.byte	0
 4858 0091 0C       		.uleb128 0xc
 4859 0092 0D       		.uleb128 0xd
 4860 0093 00       		.byte	0
 4861 0094 03       		.uleb128 0x3
 4862 0095 08       		.uleb128 0x8
 4863 0096 3A       		.uleb128 0x3a
 4864 0097 0B       		.uleb128 0xb
 4865 0098 3B       		.uleb128 0x3b
 4866 0099 0B       		.uleb128 0xb
 4867 009a 49       		.uleb128 0x49
 4868 009b 13       		.uleb128 0x13
 4869 009c 38       		.uleb128 0x38
 4870 009d 0B       		.uleb128 0xb
 4871 009e 00       		.byte	0
 4872 009f 00       		.byte	0
ARM GAS  C:\Users\chemi\AppData\Local\Temp\ccr4fFHe.s 			page 100


 4873 00a0 0D       		.uleb128 0xd
 4874 00a1 04       		.uleb128 0x4
 4875 00a2 01       		.byte	0x1
 4876 00a3 0B       		.uleb128 0xb
 4877 00a4 0B       		.uleb128 0xb
 4878 00a5 49       		.uleb128 0x49
 4879 00a6 13       		.uleb128 0x13
 4880 00a7 3A       		.uleb128 0x3a
 4881 00a8 0B       		.uleb128 0xb
 4882 00a9 3B       		.uleb128 0x3b
 4883 00aa 0B       		.uleb128 0xb
 4884 00ab 01       		.uleb128 0x1
 4885 00ac 13       		.uleb128 0x13
 4886 00ad 00       		.byte	0
 4887 00ae 00       		.byte	0
 4888 00af 0E       		.uleb128 0xe
 4889 00b0 28       		.uleb128 0x28
 4890 00b1 00       		.byte	0
 4891 00b2 03       		.uleb128 0x3
 4892 00b3 0E       		.uleb128 0xe
 4893 00b4 1C       		.uleb128 0x1c
 4894 00b5 05       		.uleb128 0x5
 4895 00b6 00       		.byte	0
 4896 00b7 00       		.byte	0
 4897 00b8 0F       		.uleb128 0xf
 4898 00b9 01       		.uleb128 0x1
 4899 00ba 01       		.byte	0x1
 4900 00bb 49       		.uleb128 0x49
 4901 00bc 13       		.uleb128 0x13
 4902 00bd 01       		.uleb128 0x1
 4903 00be 13       		.uleb128 0x13
 4904 00bf 00       		.byte	0
 4905 00c0 00       		.byte	0
 4906 00c1 10       		.uleb128 0x10
 4907 00c2 21       		.uleb128 0x21
 4908 00c3 00       		.byte	0
 4909 00c4 49       		.uleb128 0x49
 4910 00c5 13       		.uleb128 0x13
 4911 00c6 2F       		.uleb128 0x2f
 4912 00c7 0B       		.uleb128 0xb
 4913 00c8 00       		.byte	0
 4914 00c9 00       		.byte	0
 4915 00ca 11       		.uleb128 0x11
 4916 00cb 0F       		.uleb128 0xf
 4917 00cc 00       		.byte	0
 4918 00cd 0B       		.uleb128 0xb
 4919 00ce 0B       		.uleb128 0xb
 4920 00cf 49       		.uleb128 0x49
 4921 00d0 13       		.uleb128 0x13
 4922 00d1 00       		.byte	0
 4923 00d2 00       		.byte	0
 4924 00d3 12       		.uleb128 0x12
 4925 00d4 26       		.uleb128 0x26
 4926 00d5 00       		.byte	0
 4927 00d6 49       		.uleb128 0x49
 4928 00d7 13       		.uleb128 0x13
 4929 00d8 00       		.byte	0
ARM GAS  C:\Users\chemi\AppData\Local\Temp\ccr4fFHe.s 			page 101


 4930 00d9 00       		.byte	0
 4931 00da 13       		.uleb128 0x13
 4932 00db 13       		.uleb128 0x13
 4933 00dc 00       		.byte	0
 4934 00dd 03       		.uleb128 0x3
 4935 00de 0E       		.uleb128 0xe
 4936 00df 3C       		.uleb128 0x3c
 4937 00e0 19       		.uleb128 0x19
 4938 00e1 00       		.byte	0
 4939 00e2 00       		.byte	0
 4940 00e3 14       		.uleb128 0x14
 4941 00e4 13       		.uleb128 0x13
 4942 00e5 01       		.byte	0x1
 4943 00e6 0B       		.uleb128 0xb
 4944 00e7 0B       		.uleb128 0xb
 4945 00e8 3A       		.uleb128 0x3a
 4946 00e9 0B       		.uleb128 0xb
 4947 00ea 3B       		.uleb128 0x3b
 4948 00eb 0B       		.uleb128 0xb
 4949 00ec 01       		.uleb128 0x1
 4950 00ed 13       		.uleb128 0x13
 4951 00ee 00       		.byte	0
 4952 00ef 00       		.byte	0
 4953 00f0 15       		.uleb128 0x15
 4954 00f1 2E       		.uleb128 0x2e
 4955 00f2 01       		.byte	0x1
 4956 00f3 03       		.uleb128 0x3
 4957 00f4 0E       		.uleb128 0xe
 4958 00f5 3A       		.uleb128 0x3a
 4959 00f6 0B       		.uleb128 0xb
 4960 00f7 3B       		.uleb128 0x3b
 4961 00f8 05       		.uleb128 0x5
 4962 00f9 27       		.uleb128 0x27
 4963 00fa 19       		.uleb128 0x19
 4964 00fb 49       		.uleb128 0x49
 4965 00fc 13       		.uleb128 0x13
 4966 00fd 20       		.uleb128 0x20
 4967 00fe 0B       		.uleb128 0xb
 4968 00ff 01       		.uleb128 0x1
 4969 0100 13       		.uleb128 0x13
 4970 0101 00       		.byte	0
 4971 0102 00       		.byte	0
 4972 0103 16       		.uleb128 0x16
 4973 0104 05       		.uleb128 0x5
 4974 0105 00       		.byte	0
 4975 0106 03       		.uleb128 0x3
 4976 0107 0E       		.uleb128 0xe
 4977 0108 3A       		.uleb128 0x3a
 4978 0109 0B       		.uleb128 0xb
 4979 010a 3B       		.uleb128 0x3b
 4980 010b 05       		.uleb128 0x5
 4981 010c 49       		.uleb128 0x49
 4982 010d 13       		.uleb128 0x13
 4983 010e 00       		.byte	0
 4984 010f 00       		.byte	0
 4985 0110 17       		.uleb128 0x17
 4986 0111 34       		.uleb128 0x34
ARM GAS  C:\Users\chemi\AppData\Local\Temp\ccr4fFHe.s 			page 102


 4987 0112 00       		.byte	0
 4988 0113 03       		.uleb128 0x3
 4989 0114 0E       		.uleb128 0xe
 4990 0115 3A       		.uleb128 0x3a
 4991 0116 0B       		.uleb128 0xb
 4992 0117 3B       		.uleb128 0x3b
 4993 0118 05       		.uleb128 0x5
 4994 0119 49       		.uleb128 0x49
 4995 011a 13       		.uleb128 0x13
 4996 011b 00       		.byte	0
 4997 011c 00       		.byte	0
 4998 011d 18       		.uleb128 0x18
 4999 011e 0B       		.uleb128 0xb
 5000 011f 01       		.byte	0x1
 5001 0120 01       		.uleb128 0x1
 5002 0121 13       		.uleb128 0x13
 5003 0122 00       		.byte	0
 5004 0123 00       		.byte	0
 5005 0124 19       		.uleb128 0x19
 5006 0125 0B       		.uleb128 0xb
 5007 0126 01       		.byte	0x1
 5008 0127 00       		.byte	0
 5009 0128 00       		.byte	0
 5010 0129 1A       		.uleb128 0x1a
 5011 012a 2E       		.uleb128 0x2e
 5012 012b 01       		.byte	0x1
 5013 012c 3F       		.uleb128 0x3f
 5014 012d 19       		.uleb128 0x19
 5015 012e 03       		.uleb128 0x3
 5016 012f 0E       		.uleb128 0xe
 5017 0130 3A       		.uleb128 0x3a
 5018 0131 0B       		.uleb128 0xb
 5019 0132 3B       		.uleb128 0x3b
 5020 0133 0B       		.uleb128 0xb
 5021 0134 27       		.uleb128 0x27
 5022 0135 19       		.uleb128 0x19
 5023 0136 49       		.uleb128 0x49
 5024 0137 13       		.uleb128 0x13
 5025 0138 20       		.uleb128 0x20
 5026 0139 0B       		.uleb128 0xb
 5027 013a 01       		.uleb128 0x1
 5028 013b 13       		.uleb128 0x13
 5029 013c 00       		.byte	0
 5030 013d 00       		.byte	0
 5031 013e 1B       		.uleb128 0x1b
 5032 013f 05       		.uleb128 0x5
 5033 0140 00       		.byte	0
 5034 0141 03       		.uleb128 0x3
 5035 0142 0E       		.uleb128 0xe
 5036 0143 3A       		.uleb128 0x3a
 5037 0144 0B       		.uleb128 0xb
 5038 0145 3B       		.uleb128 0x3b
 5039 0146 0B       		.uleb128 0xb
 5040 0147 49       		.uleb128 0x49
 5041 0148 13       		.uleb128 0x13
 5042 0149 00       		.byte	0
 5043 014a 00       		.byte	0
ARM GAS  C:\Users\chemi\AppData\Local\Temp\ccr4fFHe.s 			page 103


 5044 014b 1C       		.uleb128 0x1c
 5045 014c 2E       		.uleb128 0x2e
 5046 014d 01       		.byte	0x1
 5047 014e 03       		.uleb128 0x3
 5048 014f 0E       		.uleb128 0xe
 5049 0150 3A       		.uleb128 0x3a
 5050 0151 0B       		.uleb128 0xb
 5051 0152 3B       		.uleb128 0x3b
 5052 0153 0B       		.uleb128 0xb
 5053 0154 27       		.uleb128 0x27
 5054 0155 19       		.uleb128 0x19
 5055 0156 8701     		.uleb128 0x87
 5056 0158 19       		.uleb128 0x19
 5057 0159 11       		.uleb128 0x11
 5058 015a 01       		.uleb128 0x1
 5059 015b 12       		.uleb128 0x12
 5060 015c 06       		.uleb128 0x6
 5061 015d 40       		.uleb128 0x40
 5062 015e 18       		.uleb128 0x18
 5063 015f 9742     		.uleb128 0x2117
 5064 0161 19       		.uleb128 0x19
 5065 0162 01       		.uleb128 0x1
 5066 0163 13       		.uleb128 0x13
 5067 0164 00       		.byte	0
 5068 0165 00       		.byte	0
 5069 0166 1D       		.uleb128 0x1d
 5070 0167 05       		.uleb128 0x5
 5071 0168 00       		.byte	0
 5072 0169 03       		.uleb128 0x3
 5073 016a 0E       		.uleb128 0xe
 5074 016b 3A       		.uleb128 0x3a
 5075 016c 0B       		.uleb128 0xb
 5076 016d 3B       		.uleb128 0x3b
 5077 016e 0B       		.uleb128 0xb
 5078 016f 49       		.uleb128 0x49
 5079 0170 13       		.uleb128 0x13
 5080 0171 02       		.uleb128 0x2
 5081 0172 17       		.uleb128 0x17
 5082 0173 00       		.byte	0
 5083 0174 00       		.byte	0
 5084 0175 1E       		.uleb128 0x1e
 5085 0176 898201   		.uleb128 0x4109
 5086 0179 00       		.byte	0
 5087 017a 11       		.uleb128 0x11
 5088 017b 01       		.uleb128 0x1
 5089 017c 31       		.uleb128 0x31
 5090 017d 13       		.uleb128 0x13
 5091 017e 00       		.byte	0
 5092 017f 00       		.byte	0
 5093 0180 1F       		.uleb128 0x1f
 5094 0181 898201   		.uleb128 0x4109
 5095 0184 01       		.byte	0x1
 5096 0185 11       		.uleb128 0x11
 5097 0186 01       		.uleb128 0x1
 5098 0187 31       		.uleb128 0x31
 5099 0188 13       		.uleb128 0x13
 5100 0189 01       		.uleb128 0x1
ARM GAS  C:\Users\chemi\AppData\Local\Temp\ccr4fFHe.s 			page 104


 5101 018a 13       		.uleb128 0x13
 5102 018b 00       		.byte	0
 5103 018c 00       		.byte	0
 5104 018d 20       		.uleb128 0x20
 5105 018e 8A8201   		.uleb128 0x410a
 5106 0191 00       		.byte	0
 5107 0192 02       		.uleb128 0x2
 5108 0193 18       		.uleb128 0x18
 5109 0194 9142     		.uleb128 0x2111
 5110 0196 18       		.uleb128 0x18
 5111 0197 00       		.byte	0
 5112 0198 00       		.byte	0
 5113 0199 21       		.uleb128 0x21
 5114 019a 898201   		.uleb128 0x4109
 5115 019d 01       		.byte	0x1
 5116 019e 11       		.uleb128 0x11
 5117 019f 01       		.uleb128 0x1
 5118 01a0 31       		.uleb128 0x31
 5119 01a1 13       		.uleb128 0x13
 5120 01a2 00       		.byte	0
 5121 01a3 00       		.byte	0
 5122 01a4 22       		.uleb128 0x22
 5123 01a5 2E       		.uleb128 0x2e
 5124 01a6 00       		.byte	0
 5125 01a7 3F       		.uleb128 0x3f
 5126 01a8 19       		.uleb128 0x19
 5127 01a9 03       		.uleb128 0x3
 5128 01aa 0E       		.uleb128 0xe
 5129 01ab 3A       		.uleb128 0x3a
 5130 01ac 0B       		.uleb128 0xb
 5131 01ad 3B       		.uleb128 0x3b
 5132 01ae 0B       		.uleb128 0xb
 5133 01af 49       		.uleb128 0x49
 5134 01b0 13       		.uleb128 0x13
 5135 01b1 11       		.uleb128 0x11
 5136 01b2 01       		.uleb128 0x1
 5137 01b3 12       		.uleb128 0x12
 5138 01b4 06       		.uleb128 0x6
 5139 01b5 40       		.uleb128 0x40
 5140 01b6 18       		.uleb128 0x18
 5141 01b7 9742     		.uleb128 0x2117
 5142 01b9 19       		.uleb128 0x19
 5143 01ba 00       		.byte	0
 5144 01bb 00       		.byte	0
 5145 01bc 23       		.uleb128 0x23
 5146 01bd 2E       		.uleb128 0x2e
 5147 01be 01       		.byte	0x1
 5148 01bf 3F       		.uleb128 0x3f
 5149 01c0 19       		.uleb128 0x19
 5150 01c1 03       		.uleb128 0x3
 5151 01c2 0E       		.uleb128 0xe
 5152 01c3 3A       		.uleb128 0x3a
 5153 01c4 0B       		.uleb128 0xb
 5154 01c5 3B       		.uleb128 0x3b
 5155 01c6 0B       		.uleb128 0xb
 5156 01c7 11       		.uleb128 0x11
 5157 01c8 01       		.uleb128 0x1
ARM GAS  C:\Users\chemi\AppData\Local\Temp\ccr4fFHe.s 			page 105


 5158 01c9 12       		.uleb128 0x12
 5159 01ca 06       		.uleb128 0x6
 5160 01cb 40       		.uleb128 0x40
 5161 01cc 18       		.uleb128 0x18
 5162 01cd 9742     		.uleb128 0x2117
 5163 01cf 19       		.uleb128 0x19
 5164 01d0 01       		.uleb128 0x1
 5165 01d1 13       		.uleb128 0x13
 5166 01d2 00       		.byte	0
 5167 01d3 00       		.byte	0
 5168 01d4 24       		.uleb128 0x24
 5169 01d5 0B       		.uleb128 0xb
 5170 01d6 01       		.byte	0x1
 5171 01d7 11       		.uleb128 0x11
 5172 01d8 01       		.uleb128 0x1
 5173 01d9 12       		.uleb128 0x12
 5174 01da 06       		.uleb128 0x6
 5175 01db 01       		.uleb128 0x1
 5176 01dc 13       		.uleb128 0x13
 5177 01dd 00       		.byte	0
 5178 01de 00       		.byte	0
 5179 01df 25       		.uleb128 0x25
 5180 01e0 34       		.uleb128 0x34
 5181 01e1 00       		.byte	0
 5182 01e2 03       		.uleb128 0x3
 5183 01e3 08       		.uleb128 0x8
 5184 01e4 3A       		.uleb128 0x3a
 5185 01e5 0B       		.uleb128 0xb
 5186 01e6 3B       		.uleb128 0x3b
 5187 01e7 0B       		.uleb128 0xb
 5188 01e8 49       		.uleb128 0x49
 5189 01e9 13       		.uleb128 0x13
 5190 01ea 02       		.uleb128 0x2
 5191 01eb 17       		.uleb128 0x17
 5192 01ec 00       		.byte	0
 5193 01ed 00       		.byte	0
 5194 01ee 26       		.uleb128 0x26
 5195 01ef 2E       		.uleb128 0x2e
 5196 01f0 01       		.byte	0x1
 5197 01f1 3F       		.uleb128 0x3f
 5198 01f2 19       		.uleb128 0x19
 5199 01f3 03       		.uleb128 0x3
 5200 01f4 0E       		.uleb128 0xe
 5201 01f5 3A       		.uleb128 0x3a
 5202 01f6 0B       		.uleb128 0xb
 5203 01f7 3B       		.uleb128 0x3b
 5204 01f8 0B       		.uleb128 0xb
 5205 01f9 27       		.uleb128 0x27
 5206 01fa 19       		.uleb128 0x19
 5207 01fb 11       		.uleb128 0x11
 5208 01fc 01       		.uleb128 0x1
 5209 01fd 12       		.uleb128 0x12
 5210 01fe 06       		.uleb128 0x6
 5211 01ff 40       		.uleb128 0x40
 5212 0200 18       		.uleb128 0x18
 5213 0201 9742     		.uleb128 0x2117
 5214 0203 19       		.uleb128 0x19
ARM GAS  C:\Users\chemi\AppData\Local\Temp\ccr4fFHe.s 			page 106


 5215 0204 01       		.uleb128 0x1
 5216 0205 13       		.uleb128 0x13
 5217 0206 00       		.byte	0
 5218 0207 00       		.byte	0
 5219 0208 27       		.uleb128 0x27
 5220 0209 34       		.uleb128 0x34
 5221 020a 00       		.byte	0
 5222 020b 03       		.uleb128 0x3
 5223 020c 0E       		.uleb128 0xe
 5224 020d 3A       		.uleb128 0x3a
 5225 020e 0B       		.uleb128 0xb
 5226 020f 3B       		.uleb128 0x3b
 5227 0210 0B       		.uleb128 0xb
 5228 0211 49       		.uleb128 0x49
 5229 0212 13       		.uleb128 0x13
 5230 0213 02       		.uleb128 0x2
 5231 0214 17       		.uleb128 0x17
 5232 0215 00       		.byte	0
 5233 0216 00       		.byte	0
 5234 0217 28       		.uleb128 0x28
 5235 0218 898201   		.uleb128 0x4109
 5236 021b 00       		.byte	0
 5237 021c 11       		.uleb128 0x11
 5238 021d 01       		.uleb128 0x1
 5239 021e 9542     		.uleb128 0x2115
 5240 0220 19       		.uleb128 0x19
 5241 0221 31       		.uleb128 0x31
 5242 0222 13       		.uleb128 0x13
 5243 0223 00       		.byte	0
 5244 0224 00       		.byte	0
 5245 0225 29       		.uleb128 0x29
 5246 0226 2E       		.uleb128 0x2e
 5247 0227 01       		.byte	0x1
 5248 0228 3F       		.uleb128 0x3f
 5249 0229 19       		.uleb128 0x19
 5250 022a 03       		.uleb128 0x3
 5251 022b 0E       		.uleb128 0xe
 5252 022c 3A       		.uleb128 0x3a
 5253 022d 0B       		.uleb128 0xb
 5254 022e 3B       		.uleb128 0x3b
 5255 022f 0B       		.uleb128 0xb
 5256 0230 27       		.uleb128 0x27
 5257 0231 19       		.uleb128 0x19
 5258 0232 49       		.uleb128 0x49
 5259 0233 13       		.uleb128 0x13
 5260 0234 11       		.uleb128 0x11
 5261 0235 01       		.uleb128 0x1
 5262 0236 12       		.uleb128 0x12
 5263 0237 06       		.uleb128 0x6
 5264 0238 40       		.uleb128 0x40
 5265 0239 18       		.uleb128 0x18
 5266 023a 9742     		.uleb128 0x2117
 5267 023c 19       		.uleb128 0x19
 5268 023d 01       		.uleb128 0x1
 5269 023e 13       		.uleb128 0x13
 5270 023f 00       		.byte	0
 5271 0240 00       		.byte	0
ARM GAS  C:\Users\chemi\AppData\Local\Temp\ccr4fFHe.s 			page 107


 5272 0241 2A       		.uleb128 0x2a
 5273 0242 2E       		.uleb128 0x2e
 5274 0243 01       		.byte	0x1
 5275 0244 3F       		.uleb128 0x3f
 5276 0245 19       		.uleb128 0x19
 5277 0246 03       		.uleb128 0x3
 5278 0247 0E       		.uleb128 0xe
 5279 0248 3A       		.uleb128 0x3a
 5280 0249 0B       		.uleb128 0xb
 5281 024a 3B       		.uleb128 0x3b
 5282 024b 0B       		.uleb128 0xb
 5283 024c 49       		.uleb128 0x49
 5284 024d 13       		.uleb128 0x13
 5285 024e 11       		.uleb128 0x11
 5286 024f 01       		.uleb128 0x1
 5287 0250 12       		.uleb128 0x12
 5288 0251 06       		.uleb128 0x6
 5289 0252 40       		.uleb128 0x40
 5290 0253 18       		.uleb128 0x18
 5291 0254 9742     		.uleb128 0x2117
 5292 0256 19       		.uleb128 0x19
 5293 0257 01       		.uleb128 0x1
 5294 0258 13       		.uleb128 0x13
 5295 0259 00       		.byte	0
 5296 025a 00       		.byte	0
 5297 025b 2B       		.uleb128 0x2b
 5298 025c 0B       		.uleb128 0xb
 5299 025d 01       		.byte	0x1
 5300 025e 11       		.uleb128 0x11
 5301 025f 01       		.uleb128 0x1
 5302 0260 12       		.uleb128 0x12
 5303 0261 06       		.uleb128 0x6
 5304 0262 00       		.byte	0
 5305 0263 00       		.byte	0
 5306 0264 2C       		.uleb128 0x2c
 5307 0265 34       		.uleb128 0x34
 5308 0266 00       		.byte	0
 5309 0267 03       		.uleb128 0x3
 5310 0268 08       		.uleb128 0x8
 5311 0269 3A       		.uleb128 0x3a
 5312 026a 0B       		.uleb128 0xb
 5313 026b 3B       		.uleb128 0x3b
 5314 026c 0B       		.uleb128 0xb
 5315 026d 49       		.uleb128 0x49
 5316 026e 13       		.uleb128 0x13
 5317 026f 1C       		.uleb128 0x1c
 5318 0270 0B       		.uleb128 0xb
 5319 0271 00       		.byte	0
 5320 0272 00       		.byte	0
 5321 0273 2D       		.uleb128 0x2d
 5322 0274 34       		.uleb128 0x34
 5323 0275 00       		.byte	0
 5324 0276 03       		.uleb128 0x3
 5325 0277 08       		.uleb128 0x8
 5326 0278 3A       		.uleb128 0x3a
 5327 0279 0B       		.uleb128 0xb
 5328 027a 3B       		.uleb128 0x3b
ARM GAS  C:\Users\chemi\AppData\Local\Temp\ccr4fFHe.s 			page 108


 5329 027b 0B       		.uleb128 0xb
 5330 027c 49       		.uleb128 0x49
 5331 027d 13       		.uleb128 0x13
 5332 027e 00       		.byte	0
 5333 027f 00       		.byte	0
 5334 0280 2E       		.uleb128 0x2e
 5335 0281 2E       		.uleb128 0x2e
 5336 0282 01       		.byte	0x1
 5337 0283 31       		.uleb128 0x31
 5338 0284 13       		.uleb128 0x13
 5339 0285 11       		.uleb128 0x11
 5340 0286 01       		.uleb128 0x1
 5341 0287 12       		.uleb128 0x12
 5342 0288 06       		.uleb128 0x6
 5343 0289 40       		.uleb128 0x40
 5344 028a 18       		.uleb128 0x18
 5345 028b 9742     		.uleb128 0x2117
 5346 028d 19       		.uleb128 0x19
 5347 028e 01       		.uleb128 0x1
 5348 028f 13       		.uleb128 0x13
 5349 0290 00       		.byte	0
 5350 0291 00       		.byte	0
 5351 0292 2F       		.uleb128 0x2f
 5352 0293 05       		.uleb128 0x5
 5353 0294 00       		.byte	0
 5354 0295 31       		.uleb128 0x31
 5355 0296 13       		.uleb128 0x13
 5356 0297 02       		.uleb128 0x2
 5357 0298 17       		.uleb128 0x17
 5358 0299 00       		.byte	0
 5359 029a 00       		.byte	0
 5360 029b 30       		.uleb128 0x30
 5361 029c 34       		.uleb128 0x34
 5362 029d 00       		.byte	0
 5363 029e 03       		.uleb128 0x3
 5364 029f 0E       		.uleb128 0xe
 5365 02a0 3A       		.uleb128 0x3a
 5366 02a1 0B       		.uleb128 0xb
 5367 02a2 3B       		.uleb128 0x3b
 5368 02a3 0B       		.uleb128 0xb
 5369 02a4 49       		.uleb128 0x49
 5370 02a5 13       		.uleb128 0x13
 5371 02a6 00       		.byte	0
 5372 02a7 00       		.byte	0
 5373 02a8 31       		.uleb128 0x31
 5374 02a9 1D       		.uleb128 0x1d
 5375 02aa 01       		.byte	0x1
 5376 02ab 31       		.uleb128 0x31
 5377 02ac 13       		.uleb128 0x13
 5378 02ad 11       		.uleb128 0x11
 5379 02ae 01       		.uleb128 0x1
 5380 02af 12       		.uleb128 0x12
 5381 02b0 06       		.uleb128 0x6
 5382 02b1 58       		.uleb128 0x58
 5383 02b2 0B       		.uleb128 0xb
 5384 02b3 59       		.uleb128 0x59
 5385 02b4 0B       		.uleb128 0xb
ARM GAS  C:\Users\chemi\AppData\Local\Temp\ccr4fFHe.s 			page 109


 5386 02b5 01       		.uleb128 0x1
 5387 02b6 13       		.uleb128 0x13
 5388 02b7 00       		.byte	0
 5389 02b8 00       		.byte	0
 5390 02b9 32       		.uleb128 0x32
 5391 02ba 34       		.uleb128 0x34
 5392 02bb 00       		.byte	0
 5393 02bc 31       		.uleb128 0x31
 5394 02bd 13       		.uleb128 0x13
 5395 02be 02       		.uleb128 0x2
 5396 02bf 17       		.uleb128 0x17
 5397 02c0 00       		.byte	0
 5398 02c1 00       		.byte	0
 5399 02c2 33       		.uleb128 0x33
 5400 02c3 34       		.uleb128 0x34
 5401 02c4 00       		.byte	0
 5402 02c5 31       		.uleb128 0x31
 5403 02c6 13       		.uleb128 0x13
 5404 02c7 00       		.byte	0
 5405 02c8 00       		.byte	0
 5406 02c9 34       		.uleb128 0x34
 5407 02ca 05       		.uleb128 0x5
 5408 02cb 00       		.byte	0
 5409 02cc 03       		.uleb128 0x3
 5410 02cd 08       		.uleb128 0x8
 5411 02ce 3A       		.uleb128 0x3a
 5412 02cf 0B       		.uleb128 0xb
 5413 02d0 3B       		.uleb128 0x3b
 5414 02d1 0B       		.uleb128 0xb
 5415 02d2 49       		.uleb128 0x49
 5416 02d3 13       		.uleb128 0x13
 5417 02d4 02       		.uleb128 0x2
 5418 02d5 17       		.uleb128 0x17
 5419 02d6 00       		.byte	0
 5420 02d7 00       		.byte	0
 5421 02d8 35       		.uleb128 0x35
 5422 02d9 2E       		.uleb128 0x2e
 5423 02da 01       		.byte	0x1
 5424 02db 3F       		.uleb128 0x3f
 5425 02dc 19       		.uleb128 0x19
 5426 02dd 03       		.uleb128 0x3
 5427 02de 0E       		.uleb128 0xe
 5428 02df 3A       		.uleb128 0x3a
 5429 02e0 0B       		.uleb128 0xb
 5430 02e1 3B       		.uleb128 0x3b
 5431 02e2 05       		.uleb128 0x5
 5432 02e3 27       		.uleb128 0x27
 5433 02e4 19       		.uleb128 0x19
 5434 02e5 11       		.uleb128 0x11
 5435 02e6 01       		.uleb128 0x1
 5436 02e7 12       		.uleb128 0x12
 5437 02e8 06       		.uleb128 0x6
 5438 02e9 40       		.uleb128 0x40
 5439 02ea 18       		.uleb128 0x18
 5440 02eb 9742     		.uleb128 0x2117
 5441 02ed 19       		.uleb128 0x19
 5442 02ee 01       		.uleb128 0x1
ARM GAS  C:\Users\chemi\AppData\Local\Temp\ccr4fFHe.s 			page 110


 5443 02ef 13       		.uleb128 0x13
 5444 02f0 00       		.byte	0
 5445 02f1 00       		.byte	0
 5446 02f2 36       		.uleb128 0x36
 5447 02f3 05       		.uleb128 0x5
 5448 02f4 00       		.byte	0
 5449 02f5 03       		.uleb128 0x3
 5450 02f6 08       		.uleb128 0x8
 5451 02f7 3A       		.uleb128 0x3a
 5452 02f8 0B       		.uleb128 0xb
 5453 02f9 3B       		.uleb128 0x3b
 5454 02fa 05       		.uleb128 0x5
 5455 02fb 49       		.uleb128 0x49
 5456 02fc 13       		.uleb128 0x13
 5457 02fd 02       		.uleb128 0x2
 5458 02fe 17       		.uleb128 0x17
 5459 02ff 00       		.byte	0
 5460 0300 00       		.byte	0
 5461 0301 37       		.uleb128 0x37
 5462 0302 05       		.uleb128 0x5
 5463 0303 00       		.byte	0
 5464 0304 03       		.uleb128 0x3
 5465 0305 0E       		.uleb128 0xe
 5466 0306 3A       		.uleb128 0x3a
 5467 0307 0B       		.uleb128 0xb
 5468 0308 3B       		.uleb128 0x3b
 5469 0309 05       		.uleb128 0x5
 5470 030a 49       		.uleb128 0x49
 5471 030b 13       		.uleb128 0x13
 5472 030c 02       		.uleb128 0x2
 5473 030d 17       		.uleb128 0x17
 5474 030e 00       		.byte	0
 5475 030f 00       		.byte	0
 5476 0310 38       		.uleb128 0x38
 5477 0311 34       		.uleb128 0x34
 5478 0312 00       		.byte	0
 5479 0313 03       		.uleb128 0x3
 5480 0314 0E       		.uleb128 0xe
 5481 0315 3A       		.uleb128 0x3a
 5482 0316 0B       		.uleb128 0xb
 5483 0317 3B       		.uleb128 0x3b
 5484 0318 05       		.uleb128 0x5
 5485 0319 49       		.uleb128 0x49
 5486 031a 13       		.uleb128 0x13
 5487 031b 02       		.uleb128 0x2
 5488 031c 17       		.uleb128 0x17
 5489 031d 00       		.byte	0
 5490 031e 00       		.byte	0
 5491 031f 39       		.uleb128 0x39
 5492 0320 0B       		.uleb128 0xb
 5493 0321 01       		.byte	0x1
 5494 0322 55       		.uleb128 0x55
 5495 0323 17       		.uleb128 0x17
 5496 0324 00       		.byte	0
 5497 0325 00       		.byte	0
 5498 0326 3A       		.uleb128 0x3a
 5499 0327 2E       		.uleb128 0x2e
ARM GAS  C:\Users\chemi\AppData\Local\Temp\ccr4fFHe.s 			page 111


 5500 0328 01       		.byte	0x1
 5501 0329 3F       		.uleb128 0x3f
 5502 032a 19       		.uleb128 0x19
 5503 032b 03       		.uleb128 0x3
 5504 032c 0E       		.uleb128 0xe
 5505 032d 3A       		.uleb128 0x3a
 5506 032e 0B       		.uleb128 0xb
 5507 032f 3B       		.uleb128 0x3b
 5508 0330 05       		.uleb128 0x5
 5509 0331 27       		.uleb128 0x27
 5510 0332 19       		.uleb128 0x19
 5511 0333 49       		.uleb128 0x49
 5512 0334 13       		.uleb128 0x13
 5513 0335 11       		.uleb128 0x11
 5514 0336 01       		.uleb128 0x1
 5515 0337 12       		.uleb128 0x12
 5516 0338 06       		.uleb128 0x6
 5517 0339 40       		.uleb128 0x40
 5518 033a 18       		.uleb128 0x18
 5519 033b 9742     		.uleb128 0x2117
 5520 033d 19       		.uleb128 0x19
 5521 033e 01       		.uleb128 0x1
 5522 033f 13       		.uleb128 0x13
 5523 0340 00       		.byte	0
 5524 0341 00       		.byte	0
 5525 0342 3B       		.uleb128 0x3b
 5526 0343 2E       		.uleb128 0x2e
 5527 0344 01       		.byte	0x1
 5528 0345 3F       		.uleb128 0x3f
 5529 0346 19       		.uleb128 0x19
 5530 0347 03       		.uleb128 0x3
 5531 0348 0E       		.uleb128 0xe
 5532 0349 3A       		.uleb128 0x3a
 5533 034a 0B       		.uleb128 0xb
 5534 034b 3B       		.uleb128 0x3b
 5535 034c 05       		.uleb128 0x5
 5536 034d 11       		.uleb128 0x11
 5537 034e 01       		.uleb128 0x1
 5538 034f 12       		.uleb128 0x12
 5539 0350 06       		.uleb128 0x6
 5540 0351 40       		.uleb128 0x40
 5541 0352 18       		.uleb128 0x18
 5542 0353 9742     		.uleb128 0x2117
 5543 0355 19       		.uleb128 0x19
 5544 0356 01       		.uleb128 0x1
 5545 0357 13       		.uleb128 0x13
 5546 0358 00       		.byte	0
 5547 0359 00       		.byte	0
 5548 035a 3C       		.uleb128 0x3c
 5549 035b 0B       		.uleb128 0xb
 5550 035c 01       		.byte	0x1
 5551 035d 55       		.uleb128 0x55
 5552 035e 17       		.uleb128 0x17
 5553 035f 01       		.uleb128 0x1
 5554 0360 13       		.uleb128 0x13
 5555 0361 00       		.byte	0
 5556 0362 00       		.byte	0
ARM GAS  C:\Users\chemi\AppData\Local\Temp\ccr4fFHe.s 			page 112


 5557 0363 3D       		.uleb128 0x3d
 5558 0364 34       		.uleb128 0x34
 5559 0365 00       		.byte	0
 5560 0366 03       		.uleb128 0x3
 5561 0367 0E       		.uleb128 0xe
 5562 0368 3A       		.uleb128 0x3a
 5563 0369 0B       		.uleb128 0xb
 5564 036a 3B       		.uleb128 0x3b
 5565 036b 05       		.uleb128 0x5
 5566 036c 49       		.uleb128 0x49
 5567 036d 13       		.uleb128 0x13
 5568 036e 02       		.uleb128 0x2
 5569 036f 18       		.uleb128 0x18
 5570 0370 00       		.byte	0
 5571 0371 00       		.byte	0
 5572 0372 3E       		.uleb128 0x3e
 5573 0373 34       		.uleb128 0x34
 5574 0374 00       		.byte	0
 5575 0375 03       		.uleb128 0x3
 5576 0376 0E       		.uleb128 0xe
 5577 0377 3A       		.uleb128 0x3a
 5578 0378 0B       		.uleb128 0xb
 5579 0379 3B       		.uleb128 0x3b
 5580 037a 0B       		.uleb128 0xb
 5581 037b 49       		.uleb128 0x49
 5582 037c 13       		.uleb128 0x13
 5583 037d 02       		.uleb128 0x2
 5584 037e 18       		.uleb128 0x18
 5585 037f 00       		.byte	0
 5586 0380 00       		.byte	0
 5587 0381 3F       		.uleb128 0x3f
 5588 0382 34       		.uleb128 0x34
 5589 0383 00       		.byte	0
 5590 0384 03       		.uleb128 0x3
 5591 0385 0E       		.uleb128 0xe
 5592 0386 3A       		.uleb128 0x3a
 5593 0387 0B       		.uleb128 0xb
 5594 0388 3B       		.uleb128 0x3b
 5595 0389 0B       		.uleb128 0xb
 5596 038a 49       		.uleb128 0x49
 5597 038b 13       		.uleb128 0x13
 5598 038c 1C       		.uleb128 0x1c
 5599 038d 05       		.uleb128 0x5
 5600 038e 00       		.byte	0
 5601 038f 00       		.byte	0
 5602 0390 40       		.uleb128 0x40
 5603 0391 34       		.uleb128 0x34
 5604 0392 00       		.byte	0
 5605 0393 03       		.uleb128 0x3
 5606 0394 0E       		.uleb128 0xe
 5607 0395 3A       		.uleb128 0x3a
 5608 0396 0B       		.uleb128 0xb
 5609 0397 3B       		.uleb128 0x3b
 5610 0398 05       		.uleb128 0x5
 5611 0399 49       		.uleb128 0x49
 5612 039a 13       		.uleb128 0x13
 5613 039b 3F       		.uleb128 0x3f
ARM GAS  C:\Users\chemi\AppData\Local\Temp\ccr4fFHe.s 			page 113


 5614 039c 19       		.uleb128 0x19
 5615 039d 3C       		.uleb128 0x3c
 5616 039e 19       		.uleb128 0x19
 5617 039f 00       		.byte	0
 5618 03a0 00       		.byte	0
 5619 03a1 41       		.uleb128 0x41
 5620 03a2 34       		.uleb128 0x34
 5621 03a3 00       		.byte	0
 5622 03a4 03       		.uleb128 0x3
 5623 03a5 0E       		.uleb128 0xe
 5624 03a6 3A       		.uleb128 0x3a
 5625 03a7 0B       		.uleb128 0xb
 5626 03a8 3B       		.uleb128 0x3b
 5627 03a9 0B       		.uleb128 0xb
 5628 03aa 49       		.uleb128 0x49
 5629 03ab 13       		.uleb128 0x13
 5630 03ac 3F       		.uleb128 0x3f
 5631 03ad 19       		.uleb128 0x19
 5632 03ae 3C       		.uleb128 0x3c
 5633 03af 19       		.uleb128 0x19
 5634 03b0 00       		.byte	0
 5635 03b1 00       		.byte	0
 5636 03b2 42       		.uleb128 0x42
 5637 03b3 34       		.uleb128 0x34
 5638 03b4 00       		.byte	0
 5639 03b5 03       		.uleb128 0x3
 5640 03b6 0E       		.uleb128 0xe
 5641 03b7 3A       		.uleb128 0x3a
 5642 03b8 0B       		.uleb128 0xb
 5643 03b9 3B       		.uleb128 0x3b
 5644 03ba 0B       		.uleb128 0xb
 5645 03bb 49       		.uleb128 0x49
 5646 03bc 13       		.uleb128 0x13
 5647 03bd 3F       		.uleb128 0x3f
 5648 03be 19       		.uleb128 0x19
 5649 03bf 02       		.uleb128 0x2
 5650 03c0 18       		.uleb128 0x18
 5651 03c1 00       		.byte	0
 5652 03c2 00       		.byte	0
 5653 03c3 43       		.uleb128 0x43
 5654 03c4 2E       		.uleb128 0x2e
 5655 03c5 00       		.byte	0
 5656 03c6 3F       		.uleb128 0x3f
 5657 03c7 19       		.uleb128 0x19
 5658 03c8 3C       		.uleb128 0x3c
 5659 03c9 19       		.uleb128 0x19
 5660 03ca 6E       		.uleb128 0x6e
 5661 03cb 0E       		.uleb128 0xe
 5662 03cc 03       		.uleb128 0x3
 5663 03cd 0E       		.uleb128 0xe
 5664 03ce 3A       		.uleb128 0x3a
 5665 03cf 0B       		.uleb128 0xb
 5666 03d0 3B       		.uleb128 0x3b
 5667 03d1 0B       		.uleb128 0xb
 5668 03d2 00       		.byte	0
 5669 03d3 00       		.byte	0
 5670 03d4 44       		.uleb128 0x44
ARM GAS  C:\Users\chemi\AppData\Local\Temp\ccr4fFHe.s 			page 114


 5671 03d5 2E       		.uleb128 0x2e
 5672 03d6 00       		.byte	0
 5673 03d7 3F       		.uleb128 0x3f
 5674 03d8 19       		.uleb128 0x19
 5675 03d9 3C       		.uleb128 0x3c
 5676 03da 19       		.uleb128 0x19
 5677 03db 6E       		.uleb128 0x6e
 5678 03dc 0E       		.uleb128 0xe
 5679 03dd 03       		.uleb128 0x3
 5680 03de 0E       		.uleb128 0xe
 5681 03df 3A       		.uleb128 0x3a
 5682 03e0 0B       		.uleb128 0xb
 5683 03e1 3B       		.uleb128 0x3b
 5684 03e2 05       		.uleb128 0x5
 5685 03e3 00       		.byte	0
 5686 03e4 00       		.byte	0
 5687 03e5 45       		.uleb128 0x45
 5688 03e6 2E       		.uleb128 0x2e
 5689 03e7 00       		.byte	0
 5690 03e8 3F       		.uleb128 0x3f
 5691 03e9 19       		.uleb128 0x19
 5692 03ea 3C       		.uleb128 0x3c
 5693 03eb 19       		.uleb128 0x19
 5694 03ec 6E       		.uleb128 0x6e
 5695 03ed 0E       		.uleb128 0xe
 5696 03ee 03       		.uleb128 0x3
 5697 03ef 0E       		.uleb128 0xe
 5698 03f0 00       		.byte	0
 5699 03f1 00       		.byte	0
 5700 03f2 00       		.byte	0
 5701              		.section	.debug_loc,"",%progbits
 5702              	.Ldebug_loc0:
 5703              	.LLST0:
 5704 0000 00000000 		.4byte	.LVL0
 5705 0004 04000000 		.4byte	.LVL1
 5706 0008 0100     		.2byte	0x1
 5707 000a 50       		.byte	0x50
 5708 000b 04000000 		.4byte	.LVL1
 5709 000f 24000000 		.4byte	.LFE71
 5710 0013 0400     		.2byte	0x4
 5711 0015 F3       		.byte	0xf3
 5712 0016 01       		.uleb128 0x1
 5713 0017 50       		.byte	0x50
 5714 0018 9F       		.byte	0x9f
 5715 0019 00000000 		.4byte	0
 5716 001d 00000000 		.4byte	0
 5717              	.LLST1:
 5718 0021 0E000000 		.4byte	.LVL6
 5719 0025 26000000 		.4byte	.LVL8
 5720 0029 0200     		.2byte	0x2
 5721 002b 30       		.byte	0x30
 5722 002c 9F       		.byte	0x9f
 5723 002d 26000000 		.4byte	.LVL8
 5724 0031 50000000 		.4byte	.LFE70
 5725 0035 0200     		.2byte	0x2
 5726 0037 31       		.byte	0x31
 5727 0038 9F       		.byte	0x9f
ARM GAS  C:\Users\chemi\AppData\Local\Temp\ccr4fFHe.s 			page 115


 5728 0039 00000000 		.4byte	0
 5729 003d 00000000 		.4byte	0
 5730              	.LLST2:
 5731 0041 00000000 		.4byte	.LVL11
 5732 0045 0D000000 		.4byte	.LVL12-1
 5733 0049 0100     		.2byte	0x1
 5734 004b 50       		.byte	0x50
 5735 004c 0D000000 		.4byte	.LVL12-1
 5736 0050 3C000000 		.4byte	.LVL14
 5737 0054 0100     		.2byte	0x1
 5738 0056 54       		.byte	0x54
 5739 0057 3C000000 		.4byte	.LVL14
 5740 005b 40000000 		.4byte	.LVL15
 5741 005f 0400     		.2byte	0x4
 5742 0061 F3       		.byte	0xf3
 5743 0062 01       		.uleb128 0x1
 5744 0063 50       		.byte	0x50
 5745 0064 9F       		.byte	0x9f
 5746 0065 40000000 		.4byte	.LVL15
 5747 0069 48000000 		.4byte	.LFE72
 5748 006d 0100     		.2byte	0x1
 5749 006f 50       		.byte	0x50
 5750 0070 00000000 		.4byte	0
 5751 0074 00000000 		.4byte	0
 5752              	.LLST3:
 5753 0078 00000000 		.4byte	.LVL11
 5754 007c 0D000000 		.4byte	.LVL12-1
 5755 0080 0100     		.2byte	0x1
 5756 0082 51       		.byte	0x51
 5757 0083 0D000000 		.4byte	.LVL12-1
 5758 0087 3C000000 		.4byte	.LVL14
 5759 008b 0100     		.2byte	0x1
 5760 008d 55       		.byte	0x55
 5761 008e 3C000000 		.4byte	.LVL14
 5762 0092 40000000 		.4byte	.LVL15
 5763 0096 0400     		.2byte	0x4
 5764 0098 F3       		.byte	0xf3
 5765 0099 01       		.uleb128 0x1
 5766 009a 51       		.byte	0x51
 5767 009b 9F       		.byte	0x9f
 5768 009c 40000000 		.4byte	.LVL15
 5769 00a0 48000000 		.4byte	.LFE72
 5770 00a4 0100     		.2byte	0x1
 5771 00a6 51       		.byte	0x51
 5772 00a7 00000000 		.4byte	0
 5773 00ab 00000000 		.4byte	0
 5774              	.LLST4:
 5775 00af 00000000 		.4byte	.LVL11
 5776 00b3 0D000000 		.4byte	.LVL12-1
 5777 00b7 0100     		.2byte	0x1
 5778 00b9 52       		.byte	0x52
 5779 00ba 0D000000 		.4byte	.LVL12-1
 5780 00be 3C000000 		.4byte	.LVL14
 5781 00c2 0100     		.2byte	0x1
 5782 00c4 56       		.byte	0x56
 5783 00c5 3C000000 		.4byte	.LVL14
 5784 00c9 40000000 		.4byte	.LVL15
ARM GAS  C:\Users\chemi\AppData\Local\Temp\ccr4fFHe.s 			page 116


 5785 00cd 0400     		.2byte	0x4
 5786 00cf F3       		.byte	0xf3
 5787 00d0 01       		.uleb128 0x1
 5788 00d1 52       		.byte	0x52
 5789 00d2 9F       		.byte	0x9f
 5790 00d3 40000000 		.4byte	.LVL15
 5791 00d7 48000000 		.4byte	.LFE72
 5792 00db 0100     		.2byte	0x1
 5793 00dd 52       		.byte	0x52
 5794 00de 00000000 		.4byte	0
 5795 00e2 00000000 		.4byte	0
 5796              	.LLST5:
 5797 00e6 0E000000 		.4byte	.LVL12
 5798 00ea 18000000 		.4byte	.LVL13
 5799 00ee 0200     		.2byte	0x2
 5800 00f0 30       		.byte	0x30
 5801 00f1 9F       		.byte	0x9f
 5802 00f2 00000000 		.4byte	0
 5803 00f6 00000000 		.4byte	0
 5804              	.LLST6:
 5805 00fa 00000000 		.4byte	.LVL16
 5806 00fe 12000000 		.4byte	.LVL18
 5807 0102 0100     		.2byte	0x1
 5808 0104 50       		.byte	0x50
 5809 0105 12000000 		.4byte	.LVL18
 5810 0109 18000000 		.4byte	.LFE74
 5811 010d 0400     		.2byte	0x4
 5812 010f F3       		.byte	0xf3
 5813 0110 01       		.uleb128 0x1
 5814 0111 50       		.byte	0x50
 5815 0112 9F       		.byte	0x9f
 5816 0113 00000000 		.4byte	0
 5817 0117 00000000 		.4byte	0
 5818              	.LLST7:
 5819 011b 00000000 		.4byte	.LVL16
 5820 011f 0E000000 		.4byte	.LVL17
 5821 0123 0100     		.2byte	0x1
 5822 0125 51       		.byte	0x51
 5823 0126 0E000000 		.4byte	.LVL17
 5824 012a 18000000 		.4byte	.LFE74
 5825 012e 0400     		.2byte	0x4
 5826 0130 F3       		.byte	0xf3
 5827 0131 01       		.uleb128 0x1
 5828 0132 51       		.byte	0x51
 5829 0133 9F       		.byte	0x9f
 5830 0134 00000000 		.4byte	0
 5831 0138 00000000 		.4byte	0
 5832              	.LLST8:
 5833 013c 00000000 		.4byte	.LVL19
 5834 0140 10000000 		.4byte	.LVL21
 5835 0144 0100     		.2byte	0x1
 5836 0146 50       		.byte	0x50
 5837 0147 10000000 		.4byte	.LVL21
 5838 014b 18000000 		.4byte	.LFE75
 5839 014f 0400     		.2byte	0x4
 5840 0151 F3       		.byte	0xf3
 5841 0152 01       		.uleb128 0x1
ARM GAS  C:\Users\chemi\AppData\Local\Temp\ccr4fFHe.s 			page 117


 5842 0153 50       		.byte	0x50
 5843 0154 9F       		.byte	0x9f
 5844 0155 00000000 		.4byte	0
 5845 0159 00000000 		.4byte	0
 5846              	.LLST9:
 5847 015d 00000000 		.4byte	.LVL19
 5848 0161 0E000000 		.4byte	.LVL20
 5849 0165 0100     		.2byte	0x1
 5850 0167 51       		.byte	0x51
 5851 0168 0E000000 		.4byte	.LVL20
 5852 016c 18000000 		.4byte	.LFE75
 5853 0170 0400     		.2byte	0x4
 5854 0172 F3       		.byte	0xf3
 5855 0173 01       		.uleb128 0x1
 5856 0174 51       		.byte	0x51
 5857 0175 9F       		.byte	0x9f
 5858 0176 00000000 		.4byte	0
 5859 017a 00000000 		.4byte	0
 5860              	.LLST10:
 5861 017e 00000000 		.4byte	.LVL22
 5862 0182 14000000 		.4byte	.LVL24
 5863 0186 0100     		.2byte	0x1
 5864 0188 50       		.byte	0x50
 5865 0189 14000000 		.4byte	.LVL24
 5866 018d 1C000000 		.4byte	.LVL25
 5867 0191 0400     		.2byte	0x4
 5868 0193 F3       		.byte	0xf3
 5869 0194 01       		.uleb128 0x1
 5870 0195 50       		.byte	0x50
 5871 0196 9F       		.byte	0x9f
 5872 0197 1C000000 		.4byte	.LVL25
 5873 019b 1E000000 		.4byte	.LVL26
 5874 019f 0100     		.2byte	0x1
 5875 01a1 50       		.byte	0x50
 5876 01a2 1E000000 		.4byte	.LVL26
 5877 01a6 24000000 		.4byte	.LFE76
 5878 01aa 0400     		.2byte	0x4
 5879 01ac F3       		.byte	0xf3
 5880 01ad 01       		.uleb128 0x1
 5881 01ae 50       		.byte	0x50
 5882 01af 9F       		.byte	0x9f
 5883 01b0 00000000 		.4byte	0
 5884 01b4 00000000 		.4byte	0
 5885              	.LLST11:
 5886 01b8 00000000 		.4byte	.LVL22
 5887 01bc 0E000000 		.4byte	.LVL23
 5888 01c0 0100     		.2byte	0x1
 5889 01c2 51       		.byte	0x51
 5890 01c3 0E000000 		.4byte	.LVL23
 5891 01c7 24000000 		.4byte	.LFE76
 5892 01cb 0400     		.2byte	0x4
 5893 01cd F3       		.byte	0xf3
 5894 01ce 01       		.uleb128 0x1
 5895 01cf 51       		.byte	0x51
 5896 01d0 9F       		.byte	0x9f
 5897 01d1 00000000 		.4byte	0
 5898 01d5 00000000 		.4byte	0
ARM GAS  C:\Users\chemi\AppData\Local\Temp\ccr4fFHe.s 			page 118


 5899              	.LLST12:
 5900 01d9 00000000 		.4byte	.LVL29
 5901 01dd 20000000 		.4byte	.LVL30
 5902 01e1 0100     		.2byte	0x1
 5903 01e3 50       		.byte	0x50
 5904 01e4 20000000 		.4byte	.LVL30
 5905 01e8 24000000 		.4byte	.LVL31
 5906 01ec 0400     		.2byte	0x4
 5907 01ee F3       		.byte	0xf3
 5908 01ef 01       		.uleb128 0x1
 5909 01f0 50       		.byte	0x50
 5910 01f1 9F       		.byte	0x9f
 5911 01f2 24000000 		.4byte	.LVL31
 5912 01f6 2E000000 		.4byte	.LVL32
 5913 01fa 0100     		.2byte	0x1
 5914 01fc 50       		.byte	0x50
 5915 01fd 2E000000 		.4byte	.LVL32
 5916 0201 3E000000 		.4byte	.LVL34
 5917 0205 0400     		.2byte	0x4
 5918 0207 F3       		.byte	0xf3
 5919 0208 01       		.uleb128 0x1
 5920 0209 50       		.byte	0x50
 5921 020a 9F       		.byte	0x9f
 5922 020b 3E000000 		.4byte	.LVL34
 5923 020f 40000000 		.4byte	.LVL35
 5924 0213 0100     		.2byte	0x1
 5925 0215 50       		.byte	0x50
 5926 0216 40000000 		.4byte	.LVL35
 5927 021a 42000000 		.4byte	.LVL36
 5928 021e 0400     		.2byte	0x4
 5929 0220 F3       		.byte	0xf3
 5930 0221 01       		.uleb128 0x1
 5931 0222 50       		.byte	0x50
 5932 0223 9F       		.byte	0x9f
 5933 0224 42000000 		.4byte	.LVL36
 5934 0228 44000000 		.4byte	.LVL37
 5935 022c 0100     		.2byte	0x1
 5936 022e 50       		.byte	0x50
 5937 022f 44000000 		.4byte	.LVL37
 5938 0233 46000000 		.4byte	.LVL38
 5939 0237 0400     		.2byte	0x4
 5940 0239 F3       		.byte	0xf3
 5941 023a 01       		.uleb128 0x1
 5942 023b 50       		.byte	0x50
 5943 023c 9F       		.byte	0x9f
 5944 023d 46000000 		.4byte	.LVL38
 5945 0241 48000000 		.4byte	.LVL39
 5946 0245 0100     		.2byte	0x1
 5947 0247 50       		.byte	0x50
 5948 0248 48000000 		.4byte	.LVL39
 5949 024c 5C000000 		.4byte	.LFE78
 5950 0250 0400     		.2byte	0x4
 5951 0252 F3       		.byte	0xf3
 5952 0253 01       		.uleb128 0x1
 5953 0254 50       		.byte	0x50
 5954 0255 9F       		.byte	0x9f
 5955 0256 00000000 		.4byte	0
ARM GAS  C:\Users\chemi\AppData\Local\Temp\ccr4fFHe.s 			page 119


 5956 025a 00000000 		.4byte	0
 5957              	.LLST13:
 5958 025e 24000000 		.4byte	.LVL31
 5959 0262 2E000000 		.4byte	.LVL32
 5960 0266 0100     		.2byte	0x1
 5961 0268 50       		.byte	0x50
 5962 0269 2E000000 		.4byte	.LVL32
 5963 026d 3E000000 		.4byte	.LVL34
 5964 0271 0400     		.2byte	0x4
 5965 0273 F3       		.byte	0xf3
 5966 0274 01       		.uleb128 0x1
 5967 0275 50       		.byte	0x50
 5968 0276 9F       		.byte	0x9f
 5969 0277 00000000 		.4byte	0
 5970 027b 00000000 		.4byte	0
 5971              	.LLST14:
 5972 027f 00000000 		.4byte	.LVL40
 5973 0283 40000000 		.4byte	.LVL43
 5974 0287 0100     		.2byte	0x1
 5975 0289 50       		.byte	0x50
 5976 028a 40000000 		.4byte	.LVL43
 5977 028e 9A010000 		.4byte	.LVL71
 5978 0292 0100     		.2byte	0x1
 5979 0294 58       		.byte	0x58
 5980 0295 9A010000 		.4byte	.LVL71
 5981 0299 9E010000 		.4byte	.LVL72
 5982 029d 0400     		.2byte	0x4
 5983 029f F3       		.byte	0xf3
 5984 02a0 01       		.uleb128 0x1
 5985 02a1 50       		.byte	0x50
 5986 02a2 9F       		.byte	0x9f
 5987 02a3 9E010000 		.4byte	.LVL72
 5988 02a7 B0010000 		.4byte	.LFE73
 5989 02ab 0100     		.2byte	0x1
 5990 02ad 50       		.byte	0x50
 5991 02ae 00000000 		.4byte	0
 5992 02b2 00000000 		.4byte	0
 5993              	.LLST15:
 5994 02b6 00000000 		.4byte	.LVL40
 5995 02ba 40000000 		.4byte	.LVL43
 5996 02be 0100     		.2byte	0x1
 5997 02c0 51       		.byte	0x51
 5998 02c1 40000000 		.4byte	.LVL43
 5999 02c5 9A010000 		.4byte	.LVL71
 6000 02c9 0200     		.2byte	0x2
 6001 02cb 91       		.byte	0x91
 6002 02cc 40       		.sleb128 -64
 6003 02cd 9A010000 		.4byte	.LVL71
 6004 02d1 9E010000 		.4byte	.LVL72
 6005 02d5 0200     		.2byte	0x2
 6006 02d7 7D       		.byte	0x7d
 6007 02d8 40       		.sleb128 -64
 6008 02d9 9E010000 		.4byte	.LVL72
 6009 02dd B0010000 		.4byte	.LFE73
 6010 02e1 0100     		.2byte	0x1
 6011 02e3 51       		.byte	0x51
 6012 02e4 00000000 		.4byte	0
ARM GAS  C:\Users\chemi\AppData\Local\Temp\ccr4fFHe.s 			page 120


 6013 02e8 00000000 		.4byte	0
 6014              	.LLST16:
 6015 02ec 00000000 		.4byte	.LVL40
 6016 02f0 18000000 		.4byte	.LVL42
 6017 02f4 0100     		.2byte	0x1
 6018 02f6 52       		.byte	0x52
 6019 02f7 18000000 		.4byte	.LVL42
 6020 02fb 9A010000 		.4byte	.LVL71
 6021 02ff 0200     		.2byte	0x2
 6022 0301 91       		.byte	0x91
 6023 0302 44       		.sleb128 -60
 6024 0303 9A010000 		.4byte	.LVL71
 6025 0307 9E010000 		.4byte	.LVL72
 6026 030b 0200     		.2byte	0x2
 6027 030d 7D       		.byte	0x7d
 6028 030e 44       		.sleb128 -60
 6029 030f 9E010000 		.4byte	.LVL72
 6030 0313 A4010000 		.4byte	.LVL73
 6031 0317 0200     		.2byte	0x2
 6032 0319 91       		.byte	0x91
 6033 031a 44       		.sleb128 -60
 6034 031b A4010000 		.4byte	.LVL73
 6035 031f B0010000 		.4byte	.LFE73
 6036 0323 0200     		.2byte	0x2
 6037 0325 7D       		.byte	0x7d
 6038 0326 44       		.sleb128 -60
 6039 0327 00000000 		.4byte	0
 6040 032b 00000000 		.4byte	0
 6041              	.LLST17:
 6042 032f 00000000 		.4byte	.LVL40
 6043 0333 0A000000 		.4byte	.LVL41
 6044 0337 0100     		.2byte	0x1
 6045 0339 53       		.byte	0x53
 6046 033a 0A000000 		.4byte	.LVL41
 6047 033e 9A010000 		.4byte	.LVL71
 6048 0342 0200     		.2byte	0x2
 6049 0344 91       		.byte	0x91
 6050 0345 48       		.sleb128 -56
 6051 0346 9A010000 		.4byte	.LVL71
 6052 034a 9E010000 		.4byte	.LVL72
 6053 034e 0200     		.2byte	0x2
 6054 0350 7D       		.byte	0x7d
 6055 0351 48       		.sleb128 -56
 6056 0352 9E010000 		.4byte	.LVL72
 6057 0356 A4010000 		.4byte	.LVL73
 6058 035a 0200     		.2byte	0x2
 6059 035c 91       		.byte	0x91
 6060 035d 48       		.sleb128 -56
 6061 035e A4010000 		.4byte	.LVL73
 6062 0362 B0010000 		.4byte	.LFE73
 6063 0366 0200     		.2byte	0x2
 6064 0368 7D       		.byte	0x7d
 6065 0369 48       		.sleb128 -56
 6066 036a 00000000 		.4byte	0
 6067 036e 00000000 		.4byte	0
 6068              	.LLST18:
 6069 0372 00000000 		.4byte	.LVL40
ARM GAS  C:\Users\chemi\AppData\Local\Temp\ccr4fFHe.s 			page 121


 6070 0376 9A010000 		.4byte	.LVL71
 6071 037a 0200     		.2byte	0x2
 6072 037c 91       		.byte	0x91
 6073 037d 00       		.sleb128 0
 6074 037e 9A010000 		.4byte	.LVL71
 6075 0382 9E010000 		.4byte	.LVL72
 6076 0386 0200     		.2byte	0x2
 6077 0388 7D       		.byte	0x7d
 6078 0389 00       		.sleb128 0
 6079 038a 9E010000 		.4byte	.LVL72
 6080 038e A4010000 		.4byte	.LVL73
 6081 0392 0200     		.2byte	0x2
 6082 0394 91       		.byte	0x91
 6083 0395 00       		.sleb128 0
 6084 0396 A4010000 		.4byte	.LVL73
 6085 039a B0010000 		.4byte	.LFE73
 6086 039e 0200     		.2byte	0x2
 6087 03a0 7D       		.byte	0x7d
 6088 03a1 00       		.sleb128 0
 6089 03a2 00000000 		.4byte	0
 6090 03a6 00000000 		.4byte	0
 6091              	.LLST19:
 6092 03aa 00000000 		.4byte	.LVL40
 6093 03ae 9A010000 		.4byte	.LVL71
 6094 03b2 0200     		.2byte	0x2
 6095 03b4 91       		.byte	0x91
 6096 03b5 04       		.sleb128 4
 6097 03b6 9A010000 		.4byte	.LVL71
 6098 03ba 9E010000 		.4byte	.LVL72
 6099 03be 0200     		.2byte	0x2
 6100 03c0 7D       		.byte	0x7d
 6101 03c1 04       		.sleb128 4
 6102 03c2 9E010000 		.4byte	.LVL72
 6103 03c6 A4010000 		.4byte	.LVL73
 6104 03ca 0200     		.2byte	0x2
 6105 03cc 91       		.byte	0x91
 6106 03cd 04       		.sleb128 4
 6107 03ce A4010000 		.4byte	.LVL73
 6108 03d2 B0010000 		.4byte	.LFE73
 6109 03d6 0200     		.2byte	0x2
 6110 03d8 7D       		.byte	0x7d
 6111 03d9 04       		.sleb128 4
 6112 03da 00000000 		.4byte	0
 6113 03de 00000000 		.4byte	0
 6114              	.LLST20:
 6115 03e2 00000000 		.4byte	.LVL40
 6116 03e6 9A010000 		.4byte	.LVL71
 6117 03ea 0200     		.2byte	0x2
 6118 03ec 91       		.byte	0x91
 6119 03ed 08       		.sleb128 8
 6120 03ee 9A010000 		.4byte	.LVL71
 6121 03f2 9E010000 		.4byte	.LVL72
 6122 03f6 0200     		.2byte	0x2
 6123 03f8 7D       		.byte	0x7d
 6124 03f9 08       		.sleb128 8
 6125 03fa 9E010000 		.4byte	.LVL72
 6126 03fe A4010000 		.4byte	.LVL73
ARM GAS  C:\Users\chemi\AppData\Local\Temp\ccr4fFHe.s 			page 122


 6127 0402 0200     		.2byte	0x2
 6128 0404 91       		.byte	0x91
 6129 0405 08       		.sleb128 8
 6130 0406 A4010000 		.4byte	.LVL73
 6131 040a B0010000 		.4byte	.LFE73
 6132 040e 0200     		.2byte	0x2
 6133 0410 7D       		.byte	0x7d
 6134 0411 08       		.sleb128 8
 6135 0412 00000000 		.4byte	0
 6136 0416 00000000 		.4byte	0
 6137              	.LLST21:
 6138 041a 00000000 		.4byte	.LVL40
 6139 041e 40000000 		.4byte	.LVL43
 6140 0422 0200     		.2byte	0x2
 6141 0424 91       		.byte	0x91
 6142 0425 0C       		.sleb128 12
 6143 0426 40000000 		.4byte	.LVL43
 6144 042a 9A010000 		.4byte	.LVL71
 6145 042e 0300     		.2byte	0x3
 6146 0430 91       		.byte	0x91
 6147 0431 BC7F     		.sleb128 -68
 6148 0433 9A010000 		.4byte	.LVL71
 6149 0437 9E010000 		.4byte	.LVL72
 6150 043b 0300     		.2byte	0x3
 6151 043d 7D       		.byte	0x7d
 6152 043e BC7F     		.sleb128 -68
 6153 0440 9E010000 		.4byte	.LVL72
 6154 0444 A4010000 		.4byte	.LVL73
 6155 0448 0200     		.2byte	0x2
 6156 044a 91       		.byte	0x91
 6157 044b 0C       		.sleb128 12
 6158 044c A4010000 		.4byte	.LVL73
 6159 0450 B0010000 		.4byte	.LFE73
 6160 0454 0200     		.2byte	0x2
 6161 0456 7D       		.byte	0x7d
 6162 0457 0C       		.sleb128 12
 6163 0458 00000000 		.4byte	0
 6164 045c 00000000 		.4byte	0
 6165              	.LLST22:
 6166 0460 00000000 		.4byte	.LVL40
 6167 0464 9A010000 		.4byte	.LVL71
 6168 0468 0200     		.2byte	0x2
 6169 046a 91       		.byte	0x91
 6170 046b 10       		.sleb128 16
 6171 046c 9A010000 		.4byte	.LVL71
 6172 0470 9E010000 		.4byte	.LVL72
 6173 0474 0200     		.2byte	0x2
 6174 0476 7D       		.byte	0x7d
 6175 0477 10       		.sleb128 16
 6176 0478 9E010000 		.4byte	.LVL72
 6177 047c A4010000 		.4byte	.LVL73
 6178 0480 0200     		.2byte	0x2
 6179 0482 91       		.byte	0x91
 6180 0483 10       		.sleb128 16
 6181 0484 A4010000 		.4byte	.LVL73
 6182 0488 B0010000 		.4byte	.LFE73
 6183 048c 0200     		.2byte	0x2
ARM GAS  C:\Users\chemi\AppData\Local\Temp\ccr4fFHe.s 			page 123


 6184 048e 7D       		.byte	0x7d
 6185 048f 10       		.sleb128 16
 6186 0490 00000000 		.4byte	0
 6187 0494 00000000 		.4byte	0
 6188              	.LLST23:
 6189 0498 00000000 		.4byte	.LVL40
 6190 049c 9A010000 		.4byte	.LVL71
 6191 04a0 0200     		.2byte	0x2
 6192 04a2 91       		.byte	0x91
 6193 04a3 14       		.sleb128 20
 6194 04a4 9A010000 		.4byte	.LVL71
 6195 04a8 9E010000 		.4byte	.LVL72
 6196 04ac 0200     		.2byte	0x2
 6197 04ae 7D       		.byte	0x7d
 6198 04af 14       		.sleb128 20
 6199 04b0 9E010000 		.4byte	.LVL72
 6200 04b4 A4010000 		.4byte	.LVL73
 6201 04b8 0200     		.2byte	0x2
 6202 04ba 91       		.byte	0x91
 6203 04bb 14       		.sleb128 20
 6204 04bc A4010000 		.4byte	.LVL73
 6205 04c0 B0010000 		.4byte	.LFE73
 6206 04c4 0200     		.2byte	0x2
 6207 04c6 7D       		.byte	0x7d
 6208 04c7 14       		.sleb128 20
 6209 04c8 00000000 		.4byte	0
 6210 04cc 00000000 		.4byte	0
 6211              	.LLST24:
 6212 04d0 A4000000 		.4byte	.LVL53
 6213 04d4 9A010000 		.4byte	.LVL71
 6214 04d8 0100     		.2byte	0x1
 6215 04da 54       		.byte	0x54
 6216 04db 00000000 		.4byte	0
 6217 04df 00000000 		.4byte	0
 6218              	.LLST25:
 6219 04e3 DA000000 		.4byte	.LVL58
 6220 04e7 DD000000 		.4byte	.LVL59-1
 6221 04eb 0100     		.2byte	0x1
 6222 04ed 53       		.byte	0x53
 6223 04ee DD000000 		.4byte	.LVL59-1
 6224 04f2 9A010000 		.4byte	.LVL71
 6225 04f6 0200     		.2byte	0x2
 6226 04f8 91       		.byte	0x91
 6227 04f9 54       		.sleb128 -44
 6228 04fa 9A010000 		.4byte	.LVL71
 6229 04fe 9E010000 		.4byte	.LVL72
 6230 0502 0200     		.2byte	0x2
 6231 0504 7D       		.byte	0x7d
 6232 0505 54       		.sleb128 -44
 6233 0506 00000000 		.4byte	0
 6234 050a 00000000 		.4byte	0
 6235              	.LLST26:
 6236 050e EC000000 		.4byte	.LVL60
 6237 0512 EE000000 		.4byte	.LVL61
 6238 0516 0500     		.2byte	0x5
 6239 0518 73       		.byte	0x73
 6240 0519 00       		.sleb128 0
ARM GAS  C:\Users\chemi\AppData\Local\Temp\ccr4fFHe.s 			page 124


 6241 051a 79       		.byte	0x79
 6242 051b 00       		.sleb128 0
 6243 051c 22       		.byte	0x22
 6244 051d EE000000 		.4byte	.LVL61
 6245 0521 F2000000 		.4byte	.LVL62
 6246 0525 0700     		.2byte	0x7
 6247 0527 91       		.byte	0x91
 6248 0528 B87F     		.sleb128 -72
 6249 052a 06       		.byte	0x6
 6250 052b 79       		.byte	0x79
 6251 052c 00       		.sleb128 0
 6252 052d 22       		.byte	0x22
 6253 052e F2000000 		.4byte	.LVL62
 6254 0532 9A010000 		.4byte	.LVL71
 6255 0536 0100     		.2byte	0x1
 6256 0538 57       		.byte	0x57
 6257 0539 00000000 		.4byte	0
 6258 053d 00000000 		.4byte	0
 6259              	.LLST27:
 6260 0541 40000000 		.4byte	.LVL43
 6261 0545 9A010000 		.4byte	.LVL71
 6262 0549 0200     		.2byte	0x2
 6263 054b 91       		.byte	0x91
 6264 054c 44       		.sleb128 -60
 6265 054d 9A010000 		.4byte	.LVL71
 6266 0551 9E010000 		.4byte	.LVL72
 6267 0555 0200     		.2byte	0x2
 6268 0557 7D       		.byte	0x7d
 6269 0558 44       		.sleb128 -60
 6270 0559 00000000 		.4byte	0
 6271 055d 00000000 		.4byte	0
 6272              	.LLST28:
 6273 0561 40000000 		.4byte	.LVL43
 6274 0565 9A010000 		.4byte	.LVL71
 6275 0569 0200     		.2byte	0x2
 6276 056b 91       		.byte	0x91
 6277 056c 48       		.sleb128 -56
 6278 056d 9A010000 		.4byte	.LVL71
 6279 0571 9E010000 		.4byte	.LVL72
 6280 0575 0200     		.2byte	0x2
 6281 0577 7D       		.byte	0x7d
 6282 0578 48       		.sleb128 -56
 6283 0579 00000000 		.4byte	0
 6284 057d 00000000 		.4byte	0
 6285              	.LLST29:
 6286 0581 40000000 		.4byte	.LVL43
 6287 0585 8A000000 		.4byte	.LVL52
 6288 0589 0100     		.2byte	0x1
 6289 058b 58       		.byte	0x58
 6290 058c 00000000 		.4byte	0
 6291 0590 00000000 		.4byte	0
 6292              	.LLST30:
 6293 0594 64000000 		.4byte	.LVL47
 6294 0598 8A000000 		.4byte	.LVL52
 6295 059c 0100     		.2byte	0x1
 6296 059e 56       		.byte	0x56
 6297 059f 00000000 		.4byte	0
ARM GAS  C:\Users\chemi\AppData\Local\Temp\ccr4fFHe.s 			page 125


 6298 05a3 00000000 		.4byte	0
 6299              	.LLST31:
 6300 05a7 40000000 		.4byte	.LVL43
 6301 05ab 4C000000 		.4byte	.LVL45
 6302 05af 0100     		.2byte	0x1
 6303 05b1 54       		.byte	0x54
 6304 05b2 4C000000 		.4byte	.LVL45
 6305 05b6 4E000000 		.4byte	.LVL46
 6306 05ba 0300     		.2byte	0x3
 6307 05bc 74       		.byte	0x74
 6308 05bd 01       		.sleb128 1
 6309 05be 9F       		.byte	0x9f
 6310 05bf 00000000 		.4byte	0
 6311 05c3 00000000 		.4byte	0
 6312              	.LLST32:
 6313 05c7 64000000 		.4byte	.LVL47
 6314 05cb 82000000 		.4byte	.LVL50
 6315 05cf 0100     		.2byte	0x1
 6316 05d1 54       		.byte	0x54
 6317 05d2 00000000 		.4byte	0
 6318 05d6 00000000 		.4byte	0
 6319              	.LLST33:
 6320 05da 78000000 		.4byte	.LVL49
 6321 05de 8A000000 		.4byte	.LVL52
 6322 05e2 0100     		.2byte	0x1
 6323 05e4 50       		.byte	0x50
 6324 05e5 00000000 		.4byte	0
 6325 05e9 00000000 		.4byte	0
 6326              	.LLST34:
 6327 05ed 00000000 		.4byte	.LVL74
 6328 05f1 06000000 		.4byte	.LVL75
 6329 05f5 0100     		.2byte	0x1
 6330 05f7 50       		.byte	0x50
 6331 05f8 06000000 		.4byte	.LVL75
 6332 05fc 48010000 		.4byte	.LFE79
 6333 0600 0400     		.2byte	0x4
 6334 0602 F3       		.byte	0xf3
 6335 0603 01       		.uleb128 0x1
 6336 0604 50       		.byte	0x50
 6337 0605 9F       		.byte	0x9f
 6338 0606 00000000 		.4byte	0
 6339 060a 00000000 		.4byte	0
 6340              	.LLST35:
 6341 060e 00000000 		.4byte	.LVL74
 6342 0612 08000000 		.4byte	.LVL76
 6343 0616 0100     		.2byte	0x1
 6344 0618 51       		.byte	0x51
 6345 0619 08000000 		.4byte	.LVL76
 6346 061d 40000000 		.4byte	.LVL77
 6347 0621 0100     		.2byte	0x1
 6348 0623 50       		.byte	0x50
 6349 0624 40000000 		.4byte	.LVL77
 6350 0628 42000000 		.4byte	.LVL78
 6351 062c 0400     		.2byte	0x4
 6352 062e F3       		.byte	0xf3
 6353 062f 01       		.uleb128 0x1
 6354 0630 51       		.byte	0x51
ARM GAS  C:\Users\chemi\AppData\Local\Temp\ccr4fFHe.s 			page 126


 6355 0631 9F       		.byte	0x9f
 6356 0632 42000000 		.4byte	.LVL78
 6357 0636 52000000 		.4byte	.LVL81
 6358 063a 0100     		.2byte	0x1
 6359 063c 50       		.byte	0x50
 6360 063d 52000000 		.4byte	.LVL81
 6361 0641 54000000 		.4byte	.LVL82
 6362 0645 0400     		.2byte	0x4
 6363 0647 F3       		.byte	0xf3
 6364 0648 01       		.uleb128 0x1
 6365 0649 51       		.byte	0x51
 6366 064a 9F       		.byte	0x9f
 6367 064b 54000000 		.4byte	.LVL82
 6368 064f 64000000 		.4byte	.LVL84
 6369 0653 0100     		.2byte	0x1
 6370 0655 50       		.byte	0x50
 6371 0656 64000000 		.4byte	.LVL84
 6372 065a 66000000 		.4byte	.LVL85
 6373 065e 0400     		.2byte	0x4
 6374 0660 F3       		.byte	0xf3
 6375 0661 01       		.uleb128 0x1
 6376 0662 51       		.byte	0x51
 6377 0663 9F       		.byte	0x9f
 6378 0664 66000000 		.4byte	.LVL85
 6379 0668 76000000 		.4byte	.LVL87
 6380 066c 0100     		.2byte	0x1
 6381 066e 50       		.byte	0x50
 6382 066f 76000000 		.4byte	.LVL87
 6383 0673 78000000 		.4byte	.LVL88
 6384 0677 0400     		.2byte	0x4
 6385 0679 F3       		.byte	0xf3
 6386 067a 01       		.uleb128 0x1
 6387 067b 51       		.byte	0x51
 6388 067c 9F       		.byte	0x9f
 6389 067d 78000000 		.4byte	.LVL88
 6390 0681 88000000 		.4byte	.LVL90
 6391 0685 0100     		.2byte	0x1
 6392 0687 50       		.byte	0x50
 6393 0688 88000000 		.4byte	.LVL90
 6394 068c 8A000000 		.4byte	.LVL91
 6395 0690 0400     		.2byte	0x4
 6396 0692 F3       		.byte	0xf3
 6397 0693 01       		.uleb128 0x1
 6398 0694 51       		.byte	0x51
 6399 0695 9F       		.byte	0x9f
 6400 0696 8A000000 		.4byte	.LVL91
 6401 069a 9A000000 		.4byte	.LVL93
 6402 069e 0100     		.2byte	0x1
 6403 06a0 50       		.byte	0x50
 6404 06a1 9A000000 		.4byte	.LVL93
 6405 06a5 9C000000 		.4byte	.LVL94
 6406 06a9 0400     		.2byte	0x4
 6407 06ab F3       		.byte	0xf3
 6408 06ac 01       		.uleb128 0x1
 6409 06ad 51       		.byte	0x51
 6410 06ae 9F       		.byte	0x9f
 6411 06af 9C000000 		.4byte	.LVL94
ARM GAS  C:\Users\chemi\AppData\Local\Temp\ccr4fFHe.s 			page 127


 6412 06b3 AC000000 		.4byte	.LVL96
 6413 06b7 0100     		.2byte	0x1
 6414 06b9 50       		.byte	0x50
 6415 06ba AC000000 		.4byte	.LVL96
 6416 06be AE000000 		.4byte	.LVL97
 6417 06c2 0400     		.2byte	0x4
 6418 06c4 F3       		.byte	0xf3
 6419 06c5 01       		.uleb128 0x1
 6420 06c6 51       		.byte	0x51
 6421 06c7 9F       		.byte	0x9f
 6422 06c8 AE000000 		.4byte	.LVL97
 6423 06cc BE000000 		.4byte	.LVL99
 6424 06d0 0100     		.2byte	0x1
 6425 06d2 50       		.byte	0x50
 6426 06d3 BE000000 		.4byte	.LVL99
 6427 06d7 C0000000 		.4byte	.LVL100
 6428 06db 0400     		.2byte	0x4
 6429 06dd F3       		.byte	0xf3
 6430 06de 01       		.uleb128 0x1
 6431 06df 51       		.byte	0x51
 6432 06e0 9F       		.byte	0x9f
 6433 06e1 C0000000 		.4byte	.LVL100
 6434 06e5 CE000000 		.4byte	.LVL102
 6435 06e9 0100     		.2byte	0x1
 6436 06eb 50       		.byte	0x50
 6437 06ec CE000000 		.4byte	.LVL102
 6438 06f0 D0000000 		.4byte	.LVL103
 6439 06f4 0400     		.2byte	0x4
 6440 06f6 F3       		.byte	0xf3
 6441 06f7 01       		.uleb128 0x1
 6442 06f8 51       		.byte	0x51
 6443 06f9 9F       		.byte	0x9f
 6444 06fa D0000000 		.4byte	.LVL103
 6445 06fe E0000000 		.4byte	.LVL105
 6446 0702 0100     		.2byte	0x1
 6447 0704 50       		.byte	0x50
 6448 0705 E0000000 		.4byte	.LVL105
 6449 0709 E2000000 		.4byte	.LVL106
 6450 070d 0400     		.2byte	0x4
 6451 070f F3       		.byte	0xf3
 6452 0710 01       		.uleb128 0x1
 6453 0711 51       		.byte	0x51
 6454 0712 9F       		.byte	0x9f
 6455 0713 E2000000 		.4byte	.LVL106
 6456 0717 06010000 		.4byte	.LVL110
 6457 071b 0100     		.2byte	0x1
 6458 071d 50       		.byte	0x50
 6459 071e 06010000 		.4byte	.LVL110
 6460 0722 08010000 		.4byte	.LVL111
 6461 0726 0400     		.2byte	0x4
 6462 0728 F3       		.byte	0xf3
 6463 0729 01       		.uleb128 0x1
 6464 072a 51       		.byte	0x51
 6465 072b 9F       		.byte	0x9f
 6466 072c 08010000 		.4byte	.LVL111
 6467 0730 18010000 		.4byte	.LVL113
 6468 0734 0100     		.2byte	0x1
ARM GAS  C:\Users\chemi\AppData\Local\Temp\ccr4fFHe.s 			page 128


 6469 0736 50       		.byte	0x50
 6470 0737 18010000 		.4byte	.LVL113
 6471 073b 1A010000 		.4byte	.LVL114
 6472 073f 0400     		.2byte	0x4
 6473 0741 F3       		.byte	0xf3
 6474 0742 01       		.uleb128 0x1
 6475 0743 51       		.byte	0x51
 6476 0744 9F       		.byte	0x9f
 6477 0745 1A010000 		.4byte	.LVL114
 6478 0749 2A010000 		.4byte	.LVL116
 6479 074d 0100     		.2byte	0x1
 6480 074f 50       		.byte	0x50
 6481 0750 2A010000 		.4byte	.LVL116
 6482 0754 2C010000 		.4byte	.LVL117
 6483 0758 0400     		.2byte	0x4
 6484 075a F3       		.byte	0xf3
 6485 075b 01       		.uleb128 0x1
 6486 075c 51       		.byte	0x51
 6487 075d 9F       		.byte	0x9f
 6488 075e 2C010000 		.4byte	.LVL117
 6489 0762 2F010000 		.4byte	.LVL118-1
 6490 0766 0100     		.2byte	0x1
 6491 0768 50       		.byte	0x50
 6492 0769 2F010000 		.4byte	.LVL118-1
 6493 076d 3C010000 		.4byte	.LVL119
 6494 0771 0400     		.2byte	0x4
 6495 0773 F3       		.byte	0xf3
 6496 0774 01       		.uleb128 0x1
 6497 0775 51       		.byte	0x51
 6498 0776 9F       		.byte	0x9f
 6499 0777 3C010000 		.4byte	.LVL119
 6500 077b 3E010000 		.4byte	.LVL120
 6501 077f 0100     		.2byte	0x1
 6502 0781 50       		.byte	0x50
 6503 0782 3E010000 		.4byte	.LVL120
 6504 0786 48010000 		.4byte	.LFE79
 6505 078a 0400     		.2byte	0x4
 6506 078c F3       		.byte	0xf3
 6507 078d 01       		.uleb128 0x1
 6508 078e 51       		.byte	0x51
 6509 078f 9F       		.byte	0x9f
 6510 0790 00000000 		.4byte	0
 6511 0794 00000000 		.4byte	0
 6512              	.LLST36:
 6513 0798 00000000 		.4byte	.LVL74
 6514 079c 4A000000 		.4byte	.LVL79
 6515 07a0 0100     		.2byte	0x1
 6516 07a2 52       		.byte	0x52
 6517 07a3 4A000000 		.4byte	.LVL79
 6518 07a7 50000000 		.4byte	.LVL80
 6519 07ab 0100     		.2byte	0x1
 6520 07ad 51       		.byte	0x51
 6521 07ae 50000000 		.4byte	.LVL80
 6522 07b2 54000000 		.4byte	.LVL82
 6523 07b6 0400     		.2byte	0x4
 6524 07b8 F3       		.byte	0xf3
 6525 07b9 01       		.uleb128 0x1
ARM GAS  C:\Users\chemi\AppData\Local\Temp\ccr4fFHe.s 			page 129


 6526 07ba 52       		.byte	0x52
 6527 07bb 9F       		.byte	0x9f
 6528 07bc 54000000 		.4byte	.LVL82
 6529 07c0 62000000 		.4byte	.LVL83
 6530 07c4 0100     		.2byte	0x1
 6531 07c6 51       		.byte	0x51
 6532 07c7 62000000 		.4byte	.LVL83
 6533 07cb 66000000 		.4byte	.LVL85
 6534 07cf 0400     		.2byte	0x4
 6535 07d1 F3       		.byte	0xf3
 6536 07d2 01       		.uleb128 0x1
 6537 07d3 52       		.byte	0x52
 6538 07d4 9F       		.byte	0x9f
 6539 07d5 66000000 		.4byte	.LVL85
 6540 07d9 74000000 		.4byte	.LVL86
 6541 07dd 0100     		.2byte	0x1
 6542 07df 51       		.byte	0x51
 6543 07e0 74000000 		.4byte	.LVL86
 6544 07e4 78000000 		.4byte	.LVL88
 6545 07e8 0400     		.2byte	0x4
 6546 07ea F3       		.byte	0xf3
 6547 07eb 01       		.uleb128 0x1
 6548 07ec 52       		.byte	0x52
 6549 07ed 9F       		.byte	0x9f
 6550 07ee 78000000 		.4byte	.LVL88
 6551 07f2 86000000 		.4byte	.LVL89
 6552 07f6 0100     		.2byte	0x1
 6553 07f8 51       		.byte	0x51
 6554 07f9 86000000 		.4byte	.LVL89
 6555 07fd 8A000000 		.4byte	.LVL91
 6556 0801 0400     		.2byte	0x4
 6557 0803 F3       		.byte	0xf3
 6558 0804 01       		.uleb128 0x1
 6559 0805 52       		.byte	0x52
 6560 0806 9F       		.byte	0x9f
 6561 0807 8A000000 		.4byte	.LVL91
 6562 080b 98000000 		.4byte	.LVL92
 6563 080f 0100     		.2byte	0x1
 6564 0811 51       		.byte	0x51
 6565 0812 98000000 		.4byte	.LVL92
 6566 0816 9C000000 		.4byte	.LVL94
 6567 081a 0400     		.2byte	0x4
 6568 081c F3       		.byte	0xf3
 6569 081d 01       		.uleb128 0x1
 6570 081e 52       		.byte	0x52
 6571 081f 9F       		.byte	0x9f
 6572 0820 9C000000 		.4byte	.LVL94
 6573 0824 AA000000 		.4byte	.LVL95
 6574 0828 0100     		.2byte	0x1
 6575 082a 51       		.byte	0x51
 6576 082b AA000000 		.4byte	.LVL95
 6577 082f AE000000 		.4byte	.LVL97
 6578 0833 0400     		.2byte	0x4
 6579 0835 F3       		.byte	0xf3
 6580 0836 01       		.uleb128 0x1
 6581 0837 52       		.byte	0x52
 6582 0838 9F       		.byte	0x9f
ARM GAS  C:\Users\chemi\AppData\Local\Temp\ccr4fFHe.s 			page 130


 6583 0839 AE000000 		.4byte	.LVL97
 6584 083d BC000000 		.4byte	.LVL98
 6585 0841 0100     		.2byte	0x1
 6586 0843 51       		.byte	0x51
 6587 0844 BC000000 		.4byte	.LVL98
 6588 0848 C0000000 		.4byte	.LVL100
 6589 084c 0400     		.2byte	0x4
 6590 084e F3       		.byte	0xf3
 6591 084f 01       		.uleb128 0x1
 6592 0850 52       		.byte	0x52
 6593 0851 9F       		.byte	0x9f
 6594 0852 C0000000 		.4byte	.LVL100
 6595 0856 C8000000 		.4byte	.LVL101
 6596 085a 0100     		.2byte	0x1
 6597 085c 51       		.byte	0x51
 6598 085d C8000000 		.4byte	.LVL101
 6599 0861 D0000000 		.4byte	.LVL103
 6600 0865 0400     		.2byte	0x4
 6601 0867 F3       		.byte	0xf3
 6602 0868 01       		.uleb128 0x1
 6603 0869 52       		.byte	0x52
 6604 086a 9F       		.byte	0x9f
 6605 086b D0000000 		.4byte	.LVL103
 6606 086f DE000000 		.4byte	.LVL104
 6607 0873 0100     		.2byte	0x1
 6608 0875 51       		.byte	0x51
 6609 0876 DE000000 		.4byte	.LVL104
 6610 087a E2000000 		.4byte	.LVL106
 6611 087e 0400     		.2byte	0x4
 6612 0880 F3       		.byte	0xf3
 6613 0881 01       		.uleb128 0x1
 6614 0882 52       		.byte	0x52
 6615 0883 9F       		.byte	0x9f
 6616 0884 E2000000 		.4byte	.LVL106
 6617 0888 F0000000 		.4byte	.LVL107
 6618 088c 0100     		.2byte	0x1
 6619 088e 51       		.byte	0x51
 6620 088f F0000000 		.4byte	.LVL107
 6621 0893 F6000000 		.4byte	.LVL108
 6622 0897 0400     		.2byte	0x4
 6623 0899 F3       		.byte	0xf3
 6624 089a 01       		.uleb128 0x1
 6625 089b 52       		.byte	0x52
 6626 089c 9F       		.byte	0x9f
 6627 089d F6000000 		.4byte	.LVL108
 6628 08a1 04010000 		.4byte	.LVL109
 6629 08a5 0100     		.2byte	0x1
 6630 08a7 51       		.byte	0x51
 6631 08a8 04010000 		.4byte	.LVL109
 6632 08ac 08010000 		.4byte	.LVL111
 6633 08b0 0400     		.2byte	0x4
 6634 08b2 F3       		.byte	0xf3
 6635 08b3 01       		.uleb128 0x1
 6636 08b4 52       		.byte	0x52
 6637 08b5 9F       		.byte	0x9f
 6638 08b6 08010000 		.4byte	.LVL111
 6639 08ba 16010000 		.4byte	.LVL112
ARM GAS  C:\Users\chemi\AppData\Local\Temp\ccr4fFHe.s 			page 131


 6640 08be 0100     		.2byte	0x1
 6641 08c0 51       		.byte	0x51
 6642 08c1 16010000 		.4byte	.LVL112
 6643 08c5 1A010000 		.4byte	.LVL114
 6644 08c9 0400     		.2byte	0x4
 6645 08cb F3       		.byte	0xf3
 6646 08cc 01       		.uleb128 0x1
 6647 08cd 52       		.byte	0x52
 6648 08ce 9F       		.byte	0x9f
 6649 08cf 1A010000 		.4byte	.LVL114
 6650 08d3 28010000 		.4byte	.LVL115
 6651 08d7 0100     		.2byte	0x1
 6652 08d9 51       		.byte	0x51
 6653 08da 28010000 		.4byte	.LVL115
 6654 08de 2C010000 		.4byte	.LVL117
 6655 08e2 0400     		.2byte	0x4
 6656 08e4 F3       		.byte	0xf3
 6657 08e5 01       		.uleb128 0x1
 6658 08e6 52       		.byte	0x52
 6659 08e7 9F       		.byte	0x9f
 6660 08e8 2C010000 		.4byte	.LVL117
 6661 08ec 2F010000 		.4byte	.LVL118-1
 6662 08f0 0100     		.2byte	0x1
 6663 08f2 51       		.byte	0x51
 6664 08f3 2F010000 		.4byte	.LVL118-1
 6665 08f7 3C010000 		.4byte	.LVL119
 6666 08fb 0400     		.2byte	0x4
 6667 08fd F3       		.byte	0xf3
 6668 08fe 01       		.uleb128 0x1
 6669 08ff 52       		.byte	0x52
 6670 0900 9F       		.byte	0x9f
 6671 0901 3C010000 		.4byte	.LVL119
 6672 0905 48010000 		.4byte	.LFE79
 6673 0909 0100     		.2byte	0x1
 6674 090b 51       		.byte	0x51
 6675 090c 00000000 		.4byte	0
 6676 0910 00000000 		.4byte	0
 6677              	.LLST37:
 6678 0914 00000000 		.4byte	.LVL121
 6679 0918 B4000000 		.4byte	.LVL129
 6680 091c 0100     		.2byte	0x1
 6681 091e 50       		.byte	0x50
 6682 091f B4000000 		.4byte	.LVL129
 6683 0923 DC000000 		.4byte	.LVL131
 6684 0927 0400     		.2byte	0x4
 6685 0929 F3       		.byte	0xf3
 6686 092a 01       		.uleb128 0x1
 6687 092b 50       		.byte	0x50
 6688 092c 9F       		.byte	0x9f
 6689 092d DC000000 		.4byte	.LVL131
 6690 0931 E4000000 		.4byte	.LVL133
 6691 0935 0100     		.2byte	0x1
 6692 0937 50       		.byte	0x50
 6693 0938 E4000000 		.4byte	.LVL133
 6694 093c 42010000 		.4byte	.LVL137
 6695 0940 0400     		.2byte	0x4
 6696 0942 F3       		.byte	0xf3
ARM GAS  C:\Users\chemi\AppData\Local\Temp\ccr4fFHe.s 			page 132


 6697 0943 01       		.uleb128 0x1
 6698 0944 50       		.byte	0x50
 6699 0945 9F       		.byte	0x9f
 6700 0946 42010000 		.4byte	.LVL137
 6701 094a 56010000 		.4byte	.LVL139
 6702 094e 0100     		.2byte	0x1
 6703 0950 50       		.byte	0x50
 6704 0951 56010000 		.4byte	.LVL139
 6705 0955 AC010000 		.4byte	.LVL152
 6706 0959 0400     		.2byte	0x4
 6707 095b F3       		.byte	0xf3
 6708 095c 01       		.uleb128 0x1
 6709 095d 50       		.byte	0x50
 6710 095e 9F       		.byte	0x9f
 6711 095f AC010000 		.4byte	.LVL152
 6712 0963 B0010000 		.4byte	.LVL153
 6713 0967 0100     		.2byte	0x1
 6714 0969 50       		.byte	0x50
 6715 096a B0010000 		.4byte	.LVL153
 6716 096e B4010000 		.4byte	.LVL154
 6717 0972 0400     		.2byte	0x4
 6718 0974 F3       		.byte	0xf3
 6719 0975 01       		.uleb128 0x1
 6720 0976 50       		.byte	0x50
 6721 0977 9F       		.byte	0x9f
 6722 0978 B4010000 		.4byte	.LVL154
 6723 097c D4010000 		.4byte	.LVL158
 6724 0980 0100     		.2byte	0x1
 6725 0982 50       		.byte	0x50
 6726 0983 D4010000 		.4byte	.LVL158
 6727 0987 E0010000 		.4byte	.LVL160
 6728 098b 0400     		.2byte	0x4
 6729 098d F3       		.byte	0xf3
 6730 098e 01       		.uleb128 0x1
 6731 098f 50       		.byte	0x50
 6732 0990 9F       		.byte	0x9f
 6733 0991 E0010000 		.4byte	.LVL160
 6734 0995 EC010000 		.4byte	.LVL163
 6735 0999 0100     		.2byte	0x1
 6736 099b 50       		.byte	0x50
 6737 099c EC010000 		.4byte	.LVL163
 6738 09a0 0C020000 		.4byte	.LFE80
 6739 09a4 0400     		.2byte	0x4
 6740 09a6 F3       		.byte	0xf3
 6741 09a7 01       		.uleb128 0x1
 6742 09a8 50       		.byte	0x50
 6743 09a9 9F       		.byte	0x9f
 6744 09aa 00000000 		.4byte	0
 6745 09ae 00000000 		.4byte	0
 6746              	.LLST38:
 6747 09b2 00000000 		.4byte	.LVL121
 6748 09b6 7A000000 		.4byte	.LVL125
 6749 09ba 0100     		.2byte	0x1
 6750 09bc 51       		.byte	0x51
 6751 09bd 7A000000 		.4byte	.LVL125
 6752 09c1 86000000 		.4byte	.LVL126
 6753 09c5 0100     		.2byte	0x1
ARM GAS  C:\Users\chemi\AppData\Local\Temp\ccr4fFHe.s 			page 133


 6754 09c7 55       		.byte	0x55
 6755 09c8 86000000 		.4byte	.LVL126
 6756 09cc AE000000 		.4byte	.LVL128
 6757 09d0 0100     		.2byte	0x1
 6758 09d2 51       		.byte	0x51
 6759 09d3 AE000000 		.4byte	.LVL128
 6760 09d7 DC000000 		.4byte	.LVL131
 6761 09db 0100     		.2byte	0x1
 6762 09dd 55       		.byte	0x55
 6763 09de DC000000 		.4byte	.LVL131
 6764 09e2 08010000 		.4byte	.LVL134
 6765 09e6 0100     		.2byte	0x1
 6766 09e8 51       		.byte	0x51
 6767 09e9 08010000 		.4byte	.LVL134
 6768 09ed 2C010000 		.4byte	.LVL135
 6769 09f1 0200     		.2byte	0x2
 6770 09f3 74       		.byte	0x74
 6771 09f4 24       		.sleb128 36
 6772 09f5 2C010000 		.4byte	.LVL135
 6773 09f9 42010000 		.4byte	.LVL137
 6774 09fd 0400     		.2byte	0x4
 6775 09ff F3       		.byte	0xf3
 6776 0a00 01       		.uleb128 0x1
 6777 0a01 51       		.byte	0x51
 6778 0a02 9F       		.byte	0x9f
 6779 0a03 42010000 		.4byte	.LVL137
 6780 0a07 59010000 		.4byte	.LVL140-1
 6781 0a0b 0100     		.2byte	0x1
 6782 0a0d 51       		.byte	0x51
 6783 0a0e 59010000 		.4byte	.LVL140-1
 6784 0a12 84010000 		.4byte	.LVL147
 6785 0a16 0100     		.2byte	0x1
 6786 0a18 55       		.byte	0x55
 6787 0a19 84010000 		.4byte	.LVL147
 6788 0a1d AC010000 		.4byte	.LVL152
 6789 0a21 0400     		.2byte	0x4
 6790 0a23 F3       		.byte	0xf3
 6791 0a24 01       		.uleb128 0x1
 6792 0a25 51       		.byte	0x51
 6793 0a26 9F       		.byte	0x9f
 6794 0a27 AC010000 		.4byte	.LVL152
 6795 0a2b B8010000 		.4byte	.LVL155
 6796 0a2f 0100     		.2byte	0x1
 6797 0a31 51       		.byte	0x51
 6798 0a32 B8010000 		.4byte	.LVL155
 6799 0a36 C0010000 		.4byte	.LVL156
 6800 0a3a 0100     		.2byte	0x1
 6801 0a3c 55       		.byte	0x55
 6802 0a3d C0010000 		.4byte	.LVL156
 6803 0a41 DA010000 		.4byte	.LVL159
 6804 0a45 0200     		.2byte	0x2
 6805 0a47 74       		.byte	0x74
 6806 0a48 38       		.sleb128 56
 6807 0a49 DA010000 		.4byte	.LVL159
 6808 0a4d E0010000 		.4byte	.LVL160
 6809 0a51 0400     		.2byte	0x4
 6810 0a53 F3       		.byte	0xf3
ARM GAS  C:\Users\chemi\AppData\Local\Temp\ccr4fFHe.s 			page 134


 6811 0a54 01       		.uleb128 0x1
 6812 0a55 51       		.byte	0x51
 6813 0a56 9F       		.byte	0x9f
 6814 0a57 E0010000 		.4byte	.LVL160
 6815 0a5b E6010000 		.4byte	.LVL161
 6816 0a5f 0100     		.2byte	0x1
 6817 0a61 51       		.byte	0x51
 6818 0a62 E6010000 		.4byte	.LVL161
 6819 0a66 EA010000 		.4byte	.LVL162
 6820 0a6a 0100     		.2byte	0x1
 6821 0a6c 55       		.byte	0x55
 6822 0a6d EA010000 		.4byte	.LVL162
 6823 0a71 EE010000 		.4byte	.LVL164
 6824 0a75 0300     		.2byte	0x3
 6825 0a77 74       		.byte	0x74
 6826 0a78 C000     		.sleb128 64
 6827 0a7a EE010000 		.4byte	.LVL164
 6828 0a7e 0C020000 		.4byte	.LFE80
 6829 0a82 0400     		.2byte	0x4
 6830 0a84 F3       		.byte	0xf3
 6831 0a85 01       		.uleb128 0x1
 6832 0a86 51       		.byte	0x51
 6833 0a87 9F       		.byte	0x9f
 6834 0a88 00000000 		.4byte	0
 6835 0a8c 00000000 		.4byte	0
 6836              	.LLST39:
 6837 0a90 00000000 		.4byte	.LVL121
 6838 0a94 70000000 		.4byte	.LVL124
 6839 0a98 0100     		.2byte	0x1
 6840 0a9a 52       		.byte	0x52
 6841 0a9b 70000000 		.4byte	.LVL124
 6842 0a9f 86000000 		.4byte	.LVL126
 6843 0aa3 0400     		.2byte	0x4
 6844 0aa5 F3       		.byte	0xf3
 6845 0aa6 01       		.uleb128 0x1
 6846 0aa7 52       		.byte	0x52
 6847 0aa8 9F       		.byte	0x9f
 6848 0aa9 86000000 		.4byte	.LVL126
 6849 0aad 96000000 		.4byte	.LVL127
 6850 0ab1 0100     		.2byte	0x1
 6851 0ab3 52       		.byte	0x52
 6852 0ab4 96000000 		.4byte	.LVL127
 6853 0ab8 DC000000 		.4byte	.LVL131
 6854 0abc 0400     		.2byte	0x4
 6855 0abe F3       		.byte	0xf3
 6856 0abf 01       		.uleb128 0x1
 6857 0ac0 52       		.byte	0x52
 6858 0ac1 9F       		.byte	0x9f
 6859 0ac2 DC000000 		.4byte	.LVL131
 6860 0ac6 E0000000 		.4byte	.LVL132
 6861 0aca 0100     		.2byte	0x1
 6862 0acc 52       		.byte	0x52
 6863 0acd E0000000 		.4byte	.LVL132
 6864 0ad1 42010000 		.4byte	.LVL137
 6865 0ad5 0400     		.2byte	0x4
 6866 0ad7 F3       		.byte	0xf3
 6867 0ad8 01       		.uleb128 0x1
ARM GAS  C:\Users\chemi\AppData\Local\Temp\ccr4fFHe.s 			page 135


 6868 0ad9 52       		.byte	0x52
 6869 0ada 9F       		.byte	0x9f
 6870 0adb 42010000 		.4byte	.LVL137
 6871 0adf 59010000 		.4byte	.LVL140-1
 6872 0ae3 0100     		.2byte	0x1
 6873 0ae5 52       		.byte	0x52
 6874 0ae6 59010000 		.4byte	.LVL140-1
 6875 0aea AC010000 		.4byte	.LVL152
 6876 0aee 0400     		.2byte	0x4
 6877 0af0 F3       		.byte	0xf3
 6878 0af1 01       		.uleb128 0x1
 6879 0af2 52       		.byte	0x52
 6880 0af3 9F       		.byte	0x9f
 6881 0af4 AC010000 		.4byte	.LVL152
 6882 0af8 CE010000 		.4byte	.LVL157
 6883 0afc 0100     		.2byte	0x1
 6884 0afe 52       		.byte	0x52
 6885 0aff CE010000 		.4byte	.LVL157
 6886 0b03 E0010000 		.4byte	.LVL160
 6887 0b07 0400     		.2byte	0x4
 6888 0b09 F3       		.byte	0xf3
 6889 0b0a 01       		.uleb128 0x1
 6890 0b0b 52       		.byte	0x52
 6891 0b0c 9F       		.byte	0x9f
 6892 0b0d E0010000 		.4byte	.LVL160
 6893 0b11 F2010000 		.4byte	.LVL165
 6894 0b15 0100     		.2byte	0x1
 6895 0b17 52       		.byte	0x52
 6896 0b18 F2010000 		.4byte	.LVL165
 6897 0b1c 0C020000 		.4byte	.LFE80
 6898 0b20 0400     		.2byte	0x4
 6899 0b22 F3       		.byte	0xf3
 6900 0b23 01       		.uleb128 0x1
 6901 0b24 52       		.byte	0x52
 6902 0b25 9F       		.byte	0x9f
 6903 0b26 00000000 		.4byte	0
 6904 0b2a 00000000 		.4byte	0
 6905              	.LLST40:
 6906 0b2e 00000000 		.4byte	.LVL121
 6907 0b32 08000000 		.4byte	.LVL122
 6908 0b36 0100     		.2byte	0x1
 6909 0b38 53       		.byte	0x53
 6910 0b39 08000000 		.4byte	.LVL122
 6911 0b3d 04020000 		.4byte	.LVL167
 6912 0b41 0100     		.2byte	0x1
 6913 0b43 57       		.byte	0x57
 6914 0b44 04020000 		.4byte	.LVL167
 6915 0b48 0C020000 		.4byte	.LFE80
 6916 0b4c 0400     		.2byte	0x4
 6917 0b4e F3       		.byte	0xf3
 6918 0b4f 01       		.uleb128 0x1
 6919 0b50 53       		.byte	0x53
 6920 0b51 9F       		.byte	0x9f
 6921 0b52 00000000 		.4byte	0
 6922 0b56 00000000 		.4byte	0
 6923              	.LLST41:
 6924 0b5a 20000000 		.4byte	.LVL123
ARM GAS  C:\Users\chemi\AppData\Local\Temp\ccr4fFHe.s 			page 136


 6925 0b5e 04020000 		.4byte	.LVL167
 6926 0b62 0100     		.2byte	0x1
 6927 0b64 54       		.byte	0x54
 6928 0b65 00000000 		.4byte	0
 6929 0b69 00000000 		.4byte	0
 6930              	.LLST42:
 6931 0b6d 50010000 		.4byte	.LVL138
 6932 0b71 86010000 		.4byte	.LVL148
 6933 0b75 0100     		.2byte	0x1
 6934 0b77 56       		.byte	0x56
 6935 0b78 8A010000 		.4byte	.LVL149
 6936 0b7c 9A010000 		.4byte	.LVL150
 6937 0b80 0100     		.2byte	0x1
 6938 0b82 56       		.byte	0x56
 6939 0b83 00000000 		.4byte	0
 6940 0b87 00000000 		.4byte	0
 6941              	.LLST43:
 6942 0b8b 62010000 		.4byte	.LVL142
 6943 0b8f 6C010000 		.4byte	.LVL143
 6944 0b93 0B00     		.2byte	0xb
 6945 0b95 74       		.byte	0x74
 6946 0b96 0C       		.sleb128 12
 6947 0b97 06       		.byte	0x6
 6948 0b98 79       		.byte	0x79
 6949 0b99 00       		.sleb128 0
 6950 0b9a 78       		.byte	0x78
 6951 0b9b 00       		.sleb128 0
 6952 0b9c 22       		.byte	0x22
 6953 0b9d 06       		.byte	0x6
 6954 0b9e 1C       		.byte	0x1c
 6955 0b9f 9F       		.byte	0x9f
 6956 0ba0 6C010000 		.4byte	.LVL143
 6957 0ba4 6E010000 		.4byte	.LVL144
 6958 0ba8 0100     		.2byte	0x1
 6959 0baa 52       		.byte	0x52
 6960 0bab 6E010000 		.4byte	.LVL144
 6961 0baf 76010000 		.4byte	.LVL145
 6962 0bb3 0700     		.2byte	0x7
 6963 0bb5 73       		.byte	0x73
 6964 0bb6 00       		.sleb128 0
 6965 0bb7 0A       		.byte	0xa
 6966 0bb8 093D     		.2byte	0x3d09
 6967 0bba 1B       		.byte	0x1b
 6968 0bbb 9F       		.byte	0x9f
 6969 0bbc 76010000 		.4byte	.LVL145
 6970 0bc0 78010000 		.4byte	.LVL146
 6971 0bc4 0100     		.2byte	0x1
 6972 0bc6 53       		.byte	0x53
 6973 0bc7 00000000 		.4byte	0
 6974 0bcb 00000000 		.4byte	0
 6975              	.LLST44:
 6976 0bcf 00000000 		.4byte	.LVL168
 6977 0bd3 24000000 		.4byte	.LVL171
 6978 0bd7 0100     		.2byte	0x1
 6979 0bd9 50       		.byte	0x50
 6980 0bda 24000000 		.4byte	.LVL171
 6981 0bde 26000000 		.4byte	.LVL172
ARM GAS  C:\Users\chemi\AppData\Local\Temp\ccr4fFHe.s 			page 137


 6982 0be2 0400     		.2byte	0x4
 6983 0be4 F3       		.byte	0xf3
 6984 0be5 01       		.uleb128 0x1
 6985 0be6 50       		.byte	0x50
 6986 0be7 9F       		.byte	0x9f
 6987 0be8 26000000 		.4byte	.LVL172
 6988 0bec 40000000 		.4byte	.LVL175
 6989 0bf0 0100     		.2byte	0x1
 6990 0bf2 50       		.byte	0x50
 6991 0bf3 40000000 		.4byte	.LVL175
 6992 0bf7 42000000 		.4byte	.LVL176
 6993 0bfb 0400     		.2byte	0x4
 6994 0bfd F3       		.byte	0xf3
 6995 0bfe 01       		.uleb128 0x1
 6996 0bff 50       		.byte	0x50
 6997 0c00 9F       		.byte	0x9f
 6998 0c01 42000000 		.4byte	.LVL176
 6999 0c05 5A000000 		.4byte	.LVL179
 7000 0c09 0100     		.2byte	0x1
 7001 0c0b 50       		.byte	0x50
 7002 0c0c 5A000000 		.4byte	.LVL179
 7003 0c10 5C000000 		.4byte	.LVL180
 7004 0c14 0400     		.2byte	0x4
 7005 0c16 F3       		.byte	0xf3
 7006 0c17 01       		.uleb128 0x1
 7007 0c18 50       		.byte	0x50
 7008 0c19 9F       		.byte	0x9f
 7009 0c1a 5C000000 		.4byte	.LVL180
 7010 0c1e 6C000000 		.4byte	.LVL183
 7011 0c22 0100     		.2byte	0x1
 7012 0c24 50       		.byte	0x50
 7013 0c25 6C000000 		.4byte	.LVL183
 7014 0c29 6E000000 		.4byte	.LVL184
 7015 0c2d 0400     		.2byte	0x4
 7016 0c2f F3       		.byte	0xf3
 7017 0c30 01       		.uleb128 0x1
 7018 0c31 50       		.byte	0x50
 7019 0c32 9F       		.byte	0x9f
 7020 0c33 6E000000 		.4byte	.LVL184
 7021 0c37 7E000000 		.4byte	.LVL187
 7022 0c3b 0100     		.2byte	0x1
 7023 0c3d 50       		.byte	0x50
 7024 0c3e 7E000000 		.4byte	.LVL187
 7025 0c42 80000000 		.4byte	.LVL188
 7026 0c46 0400     		.2byte	0x4
 7027 0c48 F3       		.byte	0xf3
 7028 0c49 01       		.uleb128 0x1
 7029 0c4a 50       		.byte	0x50
 7030 0c4b 9F       		.byte	0x9f
 7031 0c4c 80000000 		.4byte	.LVL188
 7032 0c50 92000000 		.4byte	.LVL191
 7033 0c54 0100     		.2byte	0x1
 7034 0c56 50       		.byte	0x50
 7035 0c57 92000000 		.4byte	.LVL191
 7036 0c5b 96000000 		.4byte	.LVL192
 7037 0c5f 0400     		.2byte	0x4
 7038 0c61 F3       		.byte	0xf3
ARM GAS  C:\Users\chemi\AppData\Local\Temp\ccr4fFHe.s 			page 138


 7039 0c62 01       		.uleb128 0x1
 7040 0c63 50       		.byte	0x50
 7041 0c64 9F       		.byte	0x9f
 7042 0c65 96000000 		.4byte	.LVL192
 7043 0c69 A6000000 		.4byte	.LVL195
 7044 0c6d 0100     		.2byte	0x1
 7045 0c6f 50       		.byte	0x50
 7046 0c70 A6000000 		.4byte	.LVL195
 7047 0c74 A8000000 		.4byte	.LVL196
 7048 0c78 0400     		.2byte	0x4
 7049 0c7a F3       		.byte	0xf3
 7050 0c7b 01       		.uleb128 0x1
 7051 0c7c 50       		.byte	0x50
 7052 0c7d 9F       		.byte	0x9f
 7053 0c7e A8000000 		.4byte	.LVL196
 7054 0c82 B8000000 		.4byte	.LVL199
 7055 0c86 0100     		.2byte	0x1
 7056 0c88 50       		.byte	0x50
 7057 0c89 B8000000 		.4byte	.LVL199
 7058 0c8d BA000000 		.4byte	.LVL200
 7059 0c91 0400     		.2byte	0x4
 7060 0c93 F3       		.byte	0xf3
 7061 0c94 01       		.uleb128 0x1
 7062 0c95 50       		.byte	0x50
 7063 0c96 9F       		.byte	0x9f
 7064 0c97 BA000000 		.4byte	.LVL200
 7065 0c9b BC000000 		.4byte	.LVL201
 7066 0c9f 0100     		.2byte	0x1
 7067 0ca1 50       		.byte	0x50
 7068 0ca2 BC000000 		.4byte	.LVL201
 7069 0ca6 C4000000 		.4byte	.LFE81
 7070 0caa 0400     		.2byte	0x4
 7071 0cac F3       		.byte	0xf3
 7072 0cad 01       		.uleb128 0x1
 7073 0cae 50       		.byte	0x50
 7074 0caf 9F       		.byte	0x9f
 7075 0cb0 00000000 		.4byte	0
 7076 0cb4 00000000 		.4byte	0
 7077              	.LLST45:
 7078 0cb8 00000000 		.4byte	.LVL168
 7079 0cbc 1C000000 		.4byte	.LVL169
 7080 0cc0 0100     		.2byte	0x1
 7081 0cc2 51       		.byte	0x51
 7082 0cc3 1C000000 		.4byte	.LVL169
 7083 0cc7 26000000 		.4byte	.LVL172
 7084 0ccb 0400     		.2byte	0x4
 7085 0ccd F3       		.byte	0xf3
 7086 0cce 01       		.uleb128 0x1
 7087 0ccf 51       		.byte	0x51
 7088 0cd0 9F       		.byte	0x9f
 7089 0cd1 26000000 		.4byte	.LVL172
 7090 0cd5 38000000 		.4byte	.LVL173
 7091 0cd9 0100     		.2byte	0x1
 7092 0cdb 51       		.byte	0x51
 7093 0cdc 38000000 		.4byte	.LVL173
 7094 0ce0 42000000 		.4byte	.LVL176
 7095 0ce4 0400     		.2byte	0x4
ARM GAS  C:\Users\chemi\AppData\Local\Temp\ccr4fFHe.s 			page 139


 7096 0ce6 F3       		.byte	0xf3
 7097 0ce7 01       		.uleb128 0x1
 7098 0ce8 51       		.byte	0x51
 7099 0ce9 9F       		.byte	0x9f
 7100 0cea 42000000 		.4byte	.LVL176
 7101 0cee 52000000 		.4byte	.LVL177
 7102 0cf2 0100     		.2byte	0x1
 7103 0cf4 51       		.byte	0x51
 7104 0cf5 52000000 		.4byte	.LVL177
 7105 0cf9 5C000000 		.4byte	.LVL180
 7106 0cfd 0400     		.2byte	0x4
 7107 0cff F3       		.byte	0xf3
 7108 0d00 01       		.uleb128 0x1
 7109 0d01 51       		.byte	0x51
 7110 0d02 9F       		.byte	0x9f
 7111 0d03 5C000000 		.4byte	.LVL180
 7112 0d07 64000000 		.4byte	.LVL181
 7113 0d0b 0100     		.2byte	0x1
 7114 0d0d 51       		.byte	0x51
 7115 0d0e 64000000 		.4byte	.LVL181
 7116 0d12 6E000000 		.4byte	.LVL184
 7117 0d16 0400     		.2byte	0x4
 7118 0d18 F3       		.byte	0xf3
 7119 0d19 01       		.uleb128 0x1
 7120 0d1a 51       		.byte	0x51
 7121 0d1b 9F       		.byte	0x9f
 7122 0d1c 6E000000 		.4byte	.LVL184
 7123 0d20 76000000 		.4byte	.LVL185
 7124 0d24 0100     		.2byte	0x1
 7125 0d26 51       		.byte	0x51
 7126 0d27 76000000 		.4byte	.LVL185
 7127 0d2b 80000000 		.4byte	.LVL188
 7128 0d2f 0400     		.2byte	0x4
 7129 0d31 F3       		.byte	0xf3
 7130 0d32 01       		.uleb128 0x1
 7131 0d33 51       		.byte	0x51
 7132 0d34 9F       		.byte	0x9f
 7133 0d35 80000000 		.4byte	.LVL188
 7134 0d39 88000000 		.4byte	.LVL189
 7135 0d3d 0100     		.2byte	0x1
 7136 0d3f 51       		.byte	0x51
 7137 0d40 88000000 		.4byte	.LVL189
 7138 0d44 96000000 		.4byte	.LVL192
 7139 0d48 0400     		.2byte	0x4
 7140 0d4a F3       		.byte	0xf3
 7141 0d4b 01       		.uleb128 0x1
 7142 0d4c 51       		.byte	0x51
 7143 0d4d 9F       		.byte	0x9f
 7144 0d4e 96000000 		.4byte	.LVL192
 7145 0d52 9E000000 		.4byte	.LVL193
 7146 0d56 0100     		.2byte	0x1
 7147 0d58 51       		.byte	0x51
 7148 0d59 9E000000 		.4byte	.LVL193
 7149 0d5d A8000000 		.4byte	.LVL196
 7150 0d61 0400     		.2byte	0x4
 7151 0d63 F3       		.byte	0xf3
 7152 0d64 01       		.uleb128 0x1
ARM GAS  C:\Users\chemi\AppData\Local\Temp\ccr4fFHe.s 			page 140


 7153 0d65 51       		.byte	0x51
 7154 0d66 9F       		.byte	0x9f
 7155 0d67 A8000000 		.4byte	.LVL196
 7156 0d6b B2000000 		.4byte	.LVL197
 7157 0d6f 0100     		.2byte	0x1
 7158 0d71 51       		.byte	0x51
 7159 0d72 B2000000 		.4byte	.LVL197
 7160 0d76 BA000000 		.4byte	.LVL200
 7161 0d7a 0400     		.2byte	0x4
 7162 0d7c F3       		.byte	0xf3
 7163 0d7d 01       		.uleb128 0x1
 7164 0d7e 51       		.byte	0x51
 7165 0d7f 9F       		.byte	0x9f
 7166 0d80 BA000000 		.4byte	.LVL200
 7167 0d84 C4000000 		.4byte	.LFE81
 7168 0d88 0100     		.2byte	0x1
 7169 0d8a 51       		.byte	0x51
 7170 0d8b 00000000 		.4byte	0
 7171 0d8f 00000000 		.4byte	0
 7172              	.LLST46:
 7173 0d93 00000000 		.4byte	.LVL168
 7174 0d97 22000000 		.4byte	.LVL170
 7175 0d9b 0100     		.2byte	0x1
 7176 0d9d 52       		.byte	0x52
 7177 0d9e 22000000 		.4byte	.LVL170
 7178 0da2 26000000 		.4byte	.LVL172
 7179 0da6 0400     		.2byte	0x4
 7180 0da8 F3       		.byte	0xf3
 7181 0da9 01       		.uleb128 0x1
 7182 0daa 52       		.byte	0x52
 7183 0dab 9F       		.byte	0x9f
 7184 0dac 26000000 		.4byte	.LVL172
 7185 0db0 3E000000 		.4byte	.LVL174
 7186 0db4 0100     		.2byte	0x1
 7187 0db6 52       		.byte	0x52
 7188 0db7 3E000000 		.4byte	.LVL174
 7189 0dbb 42000000 		.4byte	.LVL176
 7190 0dbf 0400     		.2byte	0x4
 7191 0dc1 F3       		.byte	0xf3
 7192 0dc2 01       		.uleb128 0x1
 7193 0dc3 52       		.byte	0x52
 7194 0dc4 9F       		.byte	0x9f
 7195 0dc5 42000000 		.4byte	.LVL176
 7196 0dc9 58000000 		.4byte	.LVL178
 7197 0dcd 0100     		.2byte	0x1
 7198 0dcf 52       		.byte	0x52
 7199 0dd0 58000000 		.4byte	.LVL178
 7200 0dd4 5C000000 		.4byte	.LVL180
 7201 0dd8 0400     		.2byte	0x4
 7202 0dda F3       		.byte	0xf3
 7203 0ddb 01       		.uleb128 0x1
 7204 0ddc 52       		.byte	0x52
 7205 0ddd 9F       		.byte	0x9f
 7206 0dde 5C000000 		.4byte	.LVL180
 7207 0de2 6A000000 		.4byte	.LVL182
 7208 0de6 0100     		.2byte	0x1
 7209 0de8 52       		.byte	0x52
ARM GAS  C:\Users\chemi\AppData\Local\Temp\ccr4fFHe.s 			page 141


 7210 0de9 6A000000 		.4byte	.LVL182
 7211 0ded 6E000000 		.4byte	.LVL184
 7212 0df1 0400     		.2byte	0x4
 7213 0df3 F3       		.byte	0xf3
 7214 0df4 01       		.uleb128 0x1
 7215 0df5 52       		.byte	0x52
 7216 0df6 9F       		.byte	0x9f
 7217 0df7 6E000000 		.4byte	.LVL184
 7218 0dfb 7C000000 		.4byte	.LVL186
 7219 0dff 0100     		.2byte	0x1
 7220 0e01 52       		.byte	0x52
 7221 0e02 7C000000 		.4byte	.LVL186
 7222 0e06 80000000 		.4byte	.LVL188
 7223 0e0a 0400     		.2byte	0x4
 7224 0e0c F3       		.byte	0xf3
 7225 0e0d 01       		.uleb128 0x1
 7226 0e0e 52       		.byte	0x52
 7227 0e0f 9F       		.byte	0x9f
 7228 0e10 80000000 		.4byte	.LVL188
 7229 0e14 8E000000 		.4byte	.LVL190
 7230 0e18 0100     		.2byte	0x1
 7231 0e1a 52       		.byte	0x52
 7232 0e1b 8E000000 		.4byte	.LVL190
 7233 0e1f 96000000 		.4byte	.LVL192
 7234 0e23 0400     		.2byte	0x4
 7235 0e25 F3       		.byte	0xf3
 7236 0e26 01       		.uleb128 0x1
 7237 0e27 52       		.byte	0x52
 7238 0e28 9F       		.byte	0x9f
 7239 0e29 96000000 		.4byte	.LVL192
 7240 0e2d A4000000 		.4byte	.LVL194
 7241 0e31 0100     		.2byte	0x1
 7242 0e33 52       		.byte	0x52
 7243 0e34 A4000000 		.4byte	.LVL194
 7244 0e38 A8000000 		.4byte	.LVL196
 7245 0e3c 0400     		.2byte	0x4
 7246 0e3e F3       		.byte	0xf3
 7247 0e3f 01       		.uleb128 0x1
 7248 0e40 52       		.byte	0x52
 7249 0e41 9F       		.byte	0x9f
 7250 0e42 A8000000 		.4byte	.LVL196
 7251 0e46 B6000000 		.4byte	.LVL198
 7252 0e4a 0100     		.2byte	0x1
 7253 0e4c 52       		.byte	0x52
 7254 0e4d B6000000 		.4byte	.LVL198
 7255 0e51 BA000000 		.4byte	.LVL200
 7256 0e55 0400     		.2byte	0x4
 7257 0e57 F3       		.byte	0xf3
 7258 0e58 01       		.uleb128 0x1
 7259 0e59 52       		.byte	0x52
 7260 0e5a 9F       		.byte	0x9f
 7261 0e5b BA000000 		.4byte	.LVL200
 7262 0e5f C4000000 		.4byte	.LFE81
 7263 0e63 0100     		.2byte	0x1
 7264 0e65 52       		.byte	0x52
 7265 0e66 00000000 		.4byte	0
 7266 0e6a 00000000 		.4byte	0
ARM GAS  C:\Users\chemi\AppData\Local\Temp\ccr4fFHe.s 			page 142


 7267              	.LLST47:
 7268 0e6e 0A000000 		.4byte	.LVL203
 7269 0e72 24000000 		.4byte	.LVL205
 7270 0e76 0200     		.2byte	0x2
 7271 0e78 30       		.byte	0x30
 7272 0e79 9F       		.byte	0x9f
 7273 0e7a 24000000 		.4byte	.LVL205
 7274 0e7e 30000000 		.4byte	.LFE83
 7275 0e82 0200     		.2byte	0x2
 7276 0e84 31       		.byte	0x31
 7277 0e85 9F       		.byte	0x9f
 7278 0e86 00000000 		.4byte	0
 7279 0e8a 00000000 		.4byte	0
 7280              	.LLST48:
 7281 0e8e 0A000000 		.4byte	.LVL203
 7282 0e92 16000000 		.4byte	.LVL204
 7283 0e96 0200     		.2byte	0x2
 7284 0e98 30       		.byte	0x30
 7285 0e99 9F       		.byte	0x9f
 7286 0e9a 00000000 		.4byte	0
 7287 0e9e 00000000 		.4byte	0
 7288              	.LLST49:
 7289 0ea2 00000000 		.4byte	.LVL207
 7290 0ea6 07000000 		.4byte	.LVL208-1
 7291 0eaa 0100     		.2byte	0x1
 7292 0eac 50       		.byte	0x50
 7293 0ead 07000000 		.4byte	.LVL208-1
 7294 0eb1 3E000000 		.4byte	.LVL215
 7295 0eb5 0100     		.2byte	0x1
 7296 0eb7 55       		.byte	0x55
 7297 0eb8 3E000000 		.4byte	.LVL215
 7298 0ebc 48000000 		.4byte	.LFE84
 7299 0ec0 0400     		.2byte	0x4
 7300 0ec2 F3       		.byte	0xf3
 7301 0ec3 01       		.uleb128 0x1
 7302 0ec4 50       		.byte	0x50
 7303 0ec5 9F       		.byte	0x9f
 7304 0ec6 00000000 		.4byte	0
 7305 0eca 00000000 		.4byte	0
 7306              	.LLST50:
 7307 0ece 08000000 		.4byte	.LVL208
 7308 0ed2 3A000000 		.4byte	.LVL214
 7309 0ed6 0200     		.2byte	0x2
 7310 0ed8 30       		.byte	0x30
 7311 0ed9 9F       		.byte	0x9f
 7312 0eda 3A000000 		.4byte	.LVL214
 7313 0ede 48000000 		.4byte	.LFE84
 7314 0ee2 0200     		.2byte	0x2
 7315 0ee4 31       		.byte	0x31
 7316 0ee5 9F       		.byte	0x9f
 7317 0ee6 00000000 		.4byte	0
 7318 0eea 00000000 		.4byte	0
 7319              	.LLST51:
 7320 0eee 08000000 		.4byte	.LVL208
 7321 0ef2 0E000000 		.4byte	.LVL209
 7322 0ef6 0200     		.2byte	0x2
 7323 0ef8 30       		.byte	0x30
ARM GAS  C:\Users\chemi\AppData\Local\Temp\ccr4fFHe.s 			page 143


 7324 0ef9 9F       		.byte	0x9f
 7325 0efa 0E000000 		.4byte	.LVL209
 7326 0efe 34000000 		.4byte	.LVL212
 7327 0f02 0100     		.2byte	0x1
 7328 0f04 54       		.byte	0x54
 7329 0f05 34000000 		.4byte	.LVL212
 7330 0f09 36000000 		.4byte	.LVL213
 7331 0f0d 0300     		.2byte	0x3
 7332 0f0f 74       		.byte	0x74
 7333 0f10 01       		.sleb128 1
 7334 0f11 9F       		.byte	0x9f
 7335 0f12 00000000 		.4byte	0
 7336 0f16 00000000 		.4byte	0
 7337              	.LLST52:
 7338 0f1a 16000000 		.4byte	.LVL210
 7339 0f1e 2E000000 		.4byte	.LVL211
 7340 0f22 0100     		.2byte	0x1
 7341 0f24 51       		.byte	0x51
 7342 0f25 2E000000 		.4byte	.LVL211
 7343 0f29 33000000 		.4byte	.LVL212-1
 7344 0f2d 0E00     		.2byte	0xe
 7345 0f2f 77       		.byte	0x77
 7346 0f30 00       		.sleb128 0
 7347 0f31 73       		.byte	0x73
 7348 0f32 00       		.sleb128 0
 7349 0f33 1E       		.byte	0x1e
 7350 0f34 03       		.byte	0x3
 7351 0f35 00000000 		.4byte	voiceData
 7352 0f39 06       		.byte	0x6
 7353 0f3a 06       		.byte	0x6
 7354 0f3b 22       		.byte	0x22
 7355 0f3c 9F       		.byte	0x9f
 7356 0f3d 00000000 		.4byte	0
 7357 0f41 00000000 		.4byte	0
 7358              	.LLST53:
 7359 0f45 00000000 		.4byte	.LVL217
 7360 0f49 09000000 		.4byte	.LVL218-1
 7361 0f4d 0100     		.2byte	0x1
 7362 0f4f 50       		.byte	0x50
 7363 0f50 09000000 		.4byte	.LVL218-1
 7364 0f54 9C000000 		.4byte	.LVL227
 7365 0f58 0100     		.2byte	0x1
 7366 0f5a 56       		.byte	0x56
 7367 0f5b 9C000000 		.4byte	.LVL227
 7368 0f5f A0000000 		.4byte	.LFE85
 7369 0f63 0400     		.2byte	0x4
 7370 0f65 F3       		.byte	0xf3
 7371 0f66 01       		.uleb128 0x1
 7372 0f67 50       		.byte	0x50
 7373 0f68 9F       		.byte	0x9f
 7374 0f69 00000000 		.4byte	0
 7375 0f6d 00000000 		.4byte	0
 7376              	.LLST54:
 7377 0f71 0A000000 		.4byte	.LVL218
 7378 0f75 92000000 		.4byte	.LVL225
 7379 0f79 0200     		.2byte	0x2
 7380 0f7b 30       		.byte	0x30
ARM GAS  C:\Users\chemi\AppData\Local\Temp\ccr4fFHe.s 			page 144


 7381 0f7c 9F       		.byte	0x9f
 7382 0f7d 92000000 		.4byte	.LVL225
 7383 0f81 A0000000 		.4byte	.LFE85
 7384 0f85 0200     		.2byte	0x2
 7385 0f87 31       		.byte	0x31
 7386 0f88 9F       		.byte	0x9f
 7387 0f89 00000000 		.4byte	0
 7388 0f8d 00000000 		.4byte	0
 7389              	.LLST55:
 7390 0f91 0A000000 		.4byte	.LVL218
 7391 0f95 12000000 		.4byte	.LVL219
 7392 0f99 0200     		.2byte	0x2
 7393 0f9b 30       		.byte	0x30
 7394 0f9c 9F       		.byte	0x9f
 7395 0f9d 12000000 		.4byte	.LVL219
 7396 0fa1 8C000000 		.4byte	.LVL223
 7397 0fa5 0100     		.2byte	0x1
 7398 0fa7 55       		.byte	0x55
 7399 0fa8 8C000000 		.4byte	.LVL223
 7400 0fac 8E000000 		.4byte	.LVL224
 7401 0fb0 0300     		.2byte	0x3
 7402 0fb2 75       		.byte	0x75
 7403 0fb3 01       		.sleb128 1
 7404 0fb4 9F       		.byte	0x9f
 7405 0fb5 00000000 		.4byte	0
 7406 0fb9 00000000 		.4byte	0
 7407              	.LLST56:
 7408 0fbd 1A000000 		.4byte	.LVL220
 7409 0fc1 9C000000 		.4byte	.LVL227
 7410 0fc5 0100     		.2byte	0x1
 7411 0fc7 54       		.byte	0x54
 7412 0fc8 00000000 		.4byte	0
 7413 0fcc 00000000 		.4byte	0
 7414              	.LLST57:
 7415 0fd0 06000000 		.4byte	.LVL228
 7416 0fd4 3C000000 		.4byte	.LVL234
 7417 0fd8 0200     		.2byte	0x2
 7418 0fda 30       		.byte	0x30
 7419 0fdb 9F       		.byte	0x9f
 7420 0fdc 3C000000 		.4byte	.LVL234
 7421 0fe0 4C000000 		.4byte	.LFE86
 7422 0fe4 0200     		.2byte	0x2
 7423 0fe6 31       		.byte	0x31
 7424 0fe7 9F       		.byte	0x9f
 7425 0fe8 00000000 		.4byte	0
 7426 0fec 00000000 		.4byte	0
 7427              	.LLST58:
 7428 0ff0 06000000 		.4byte	.LVL228
 7429 0ff4 0E000000 		.4byte	.LVL229
 7430 0ff8 0200     		.2byte	0x2
 7431 0ffa 30       		.byte	0x30
 7432 0ffb 9F       		.byte	0x9f
 7433 0ffc 0E000000 		.4byte	.LVL229
 7434 1000 36000000 		.4byte	.LVL232
 7435 1004 0100     		.2byte	0x1
 7436 1006 54       		.byte	0x54
 7437 1007 36000000 		.4byte	.LVL232
ARM GAS  C:\Users\chemi\AppData\Local\Temp\ccr4fFHe.s 			page 145


 7438 100b 38000000 		.4byte	.LVL233
 7439 100f 0300     		.2byte	0x3
 7440 1011 74       		.byte	0x74
 7441 1012 01       		.sleb128 1
 7442 1013 9F       		.byte	0x9f
 7443 1014 00000000 		.4byte	0
 7444 1018 00000000 		.4byte	0
 7445              	.LLST59:
 7446 101c 16000000 		.4byte	.LVL230
 7447 1020 32000000 		.4byte	.LVL231
 7448 1024 0100     		.2byte	0x1
 7449 1026 51       		.byte	0x51
 7450 1027 32000000 		.4byte	.LVL231
 7451 102b 35000000 		.4byte	.LVL232-1
 7452 102f 0E00     		.2byte	0xe
 7453 1031 76       		.byte	0x76
 7454 1032 00       		.sleb128 0
 7455 1033 73       		.byte	0x73
 7456 1034 00       		.sleb128 0
 7457 1035 1E       		.byte	0x1e
 7458 1036 03       		.byte	0x3
 7459 1037 00000000 		.4byte	voiceData
 7460 103b 06       		.byte	0x6
 7461 103c 06       		.byte	0x6
 7462 103d 22       		.byte	0x22
 7463 103e 9F       		.byte	0x9f
 7464 103f 00000000 		.4byte	0
 7465 1043 00000000 		.4byte	0
 7466              		.section	.debug_aranges,"",%progbits
 7467 0000 A4000000 		.4byte	0xa4
 7468 0004 0200     		.2byte	0x2
 7469 0006 00000000 		.4byte	.Ldebug_info0
 7470 000a 04       		.byte	0x4
 7471 000b 00       		.byte	0
 7472 000c 0000     		.2byte	0
 7473 000e 0000     		.2byte	0
 7474 0010 00000000 		.4byte	.LFB71
 7475 0014 24000000 		.4byte	.LFE71-.LFB71
 7476 0018 00000000 		.4byte	.LFB68
 7477 001c 06000000 		.4byte	.LFE68-.LFB68
 7478 0020 00000000 		.4byte	.LFB69
 7479 0024 0C000000 		.4byte	.LFE69-.LFB69
 7480 0028 00000000 		.4byte	.LFB70
 7481 002c 50000000 		.4byte	.LFE70-.LFB70
 7482 0030 00000000 		.4byte	.LFB72
 7483 0034 48000000 		.4byte	.LFE72-.LFB72
 7484 0038 00000000 		.4byte	.LFB74
 7485 003c 18000000 		.4byte	.LFE74-.LFB74
 7486 0040 00000000 		.4byte	.LFB75
 7487 0044 18000000 		.4byte	.LFE75-.LFB75
 7488 0048 00000000 		.4byte	.LFB76
 7489 004c 24000000 		.4byte	.LFE76-.LFB76
 7490 0050 00000000 		.4byte	.LFB77
 7491 0054 20000000 		.4byte	.LFE77-.LFB77
 7492 0058 00000000 		.4byte	.LFB78
 7493 005c 5C000000 		.4byte	.LFE78-.LFB78
 7494 0060 00000000 		.4byte	.LFB73
ARM GAS  C:\Users\chemi\AppData\Local\Temp\ccr4fFHe.s 			page 146


 7495 0064 B0010000 		.4byte	.LFE73-.LFB73
 7496 0068 00000000 		.4byte	.LFB79
 7497 006c 48010000 		.4byte	.LFE79-.LFB79
 7498 0070 00000000 		.4byte	.LFB80
 7499 0074 0C020000 		.4byte	.LFE80-.LFB80
 7500 0078 00000000 		.4byte	.LFB81
 7501 007c C4000000 		.4byte	.LFE81-.LFB81
 7502 0080 00000000 		.4byte	.LFB83
 7503 0084 30000000 		.4byte	.LFE83-.LFB83
 7504 0088 00000000 		.4byte	.LFB84
 7505 008c 48000000 		.4byte	.LFE84-.LFB84
 7506 0090 00000000 		.4byte	.LFB85
 7507 0094 A0000000 		.4byte	.LFE85-.LFB85
 7508 0098 00000000 		.4byte	.LFB86
 7509 009c 4C000000 		.4byte	.LFE86-.LFB86
 7510 00a0 00000000 		.4byte	0
 7511 00a4 00000000 		.4byte	0
 7512              		.section	.debug_ranges,"",%progbits
 7513              	.Ldebug_ranges0:
 7514 0000 42000000 		.4byte	.LBB23
 7515 0004 5E000000 		.4byte	.LBE23
 7516 0008 6C000000 		.4byte	.LBB25
 7517 000c 86000000 		.4byte	.LBE25
 7518 0010 92000000 		.4byte	.LBB26
 7519 0014 FE010000 		.4byte	.LBE26
 7520 0018 00000000 		.4byte	0
 7521 001c 00000000 		.4byte	0
 7522 0020 08000000 		.4byte	.LBB29
 7523 0024 0A000000 		.4byte	.LBE29
 7524 0028 0C000000 		.4byte	.LBB34
 7525 002c 3A000000 		.4byte	.LBE34
 7526 0030 00000000 		.4byte	0
 7527 0034 00000000 		.4byte	0
 7528 0038 08000000 		.4byte	.LBB31
 7529 003c 0A000000 		.4byte	.LBE31
 7530 0040 0C000000 		.4byte	.LBB32
 7531 0044 36000000 		.4byte	.LBE32
 7532 0048 00000000 		.4byte	0
 7533 004c 00000000 		.4byte	0
 7534 0050 0A000000 		.4byte	.LBB35
 7535 0054 0C000000 		.4byte	.LBE35
 7536 0058 0E000000 		.4byte	.LBB41
 7537 005c 92000000 		.4byte	.LBE41
 7538 0060 00000000 		.4byte	0
 7539 0064 00000000 		.4byte	0
 7540 0068 0A000000 		.4byte	.LBB37
 7541 006c 0C000000 		.4byte	.LBE37
 7542 0070 0E000000 		.4byte	.LBB39
 7543 0074 8E000000 		.4byte	.LBE39
 7544 0078 00000000 		.4byte	0
 7545 007c 00000000 		.4byte	0
 7546 0080 06000000 		.4byte	.LBB42
 7547 0084 0A000000 		.4byte	.LBE42
 7548 0088 0C000000 		.4byte	.LBB47
 7549 008c 3C000000 		.4byte	.LBE47
 7550 0090 00000000 		.4byte	0
 7551 0094 00000000 		.4byte	0
ARM GAS  C:\Users\chemi\AppData\Local\Temp\ccr4fFHe.s 			page 147


 7552 0098 06000000 		.4byte	.LBB44
 7553 009c 0A000000 		.4byte	.LBE44
 7554 00a0 0C000000 		.4byte	.LBB45
 7555 00a4 38000000 		.4byte	.LBE45
 7556 00a8 00000000 		.4byte	0
 7557 00ac 00000000 		.4byte	0
 7558 00b0 00000000 		.4byte	.LFB71
 7559 00b4 24000000 		.4byte	.LFE71
 7560 00b8 00000000 		.4byte	.LFB68
 7561 00bc 06000000 		.4byte	.LFE68
 7562 00c0 00000000 		.4byte	.LFB69
 7563 00c4 0C000000 		.4byte	.LFE69
 7564 00c8 00000000 		.4byte	.LFB70
 7565 00cc 50000000 		.4byte	.LFE70
 7566 00d0 00000000 		.4byte	.LFB72
 7567 00d4 48000000 		.4byte	.LFE72
 7568 00d8 00000000 		.4byte	.LFB74
 7569 00dc 18000000 		.4byte	.LFE74
 7570 00e0 00000000 		.4byte	.LFB75
 7571 00e4 18000000 		.4byte	.LFE75
 7572 00e8 00000000 		.4byte	.LFB76
 7573 00ec 24000000 		.4byte	.LFE76
 7574 00f0 00000000 		.4byte	.LFB77
 7575 00f4 20000000 		.4byte	.LFE77
 7576 00f8 00000000 		.4byte	.LFB78
 7577 00fc 5C000000 		.4byte	.LFE78
 7578 0100 00000000 		.4byte	.LFB73
 7579 0104 B0010000 		.4byte	.LFE73
 7580 0108 00000000 		.4byte	.LFB79
 7581 010c 48010000 		.4byte	.LFE79
 7582 0110 00000000 		.4byte	.LFB80
 7583 0114 0C020000 		.4byte	.LFE80
 7584 0118 00000000 		.4byte	.LFB81
 7585 011c C4000000 		.4byte	.LFE81
 7586 0120 00000000 		.4byte	.LFB83
 7587 0124 30000000 		.4byte	.LFE83
 7588 0128 00000000 		.4byte	.LFB84
 7589 012c 48000000 		.4byte	.LFE84
 7590 0130 00000000 		.4byte	.LFB85
 7591 0134 A0000000 		.4byte	.LFE85
 7592 0138 00000000 		.4byte	.LFB86
 7593 013c 4C000000 		.4byte	.LFE86
 7594 0140 00000000 		.4byte	0
 7595 0144 00000000 		.4byte	0
 7596              		.section	.debug_line,"",%progbits
 7597              	.Ldebug_line0:
 7598 0000 6E050000 		.section	.debug_str,"MS",%progbits,1
 7598      02005802 
 7598      00000201 
 7598      FB0E0D00 
 7598      01010101 
 7599              	.LASF128:
 7600 0000 696E7465 		.ascii	"interrupter_burst\000"
 7600      72727570 
 7600      7465725F 
 7600      62757273 
 7600      7400
ARM GAS  C:\Users\chemi\AppData\Local\Temp\ccr4fFHe.s 			page 148


 7601              	.LASF73:
 7602 0012 564D535F 		.ascii	"VMS_EXP_INV\000"
 7602      4558505F 
 7602      494E5600 
 7603              	.LASF20:
 7604 001e 73697A65 		.ascii	"sizetype\000"
 7604      74797065 
 7604      00
 7605              	.LASF281:
 7606 0027 474E5520 		.ascii	"GNU C99 5.4.1 20160609 (release) [ARM/embedded-5-br"
 7606      43393920 
 7606      352E342E 
 7606      31203230 
 7606      31363036 
 7607 005a 616E6368 		.ascii	"anch revision 237715] -mcpu=cortex-m3 -mthumb -g -O"
 7607      20726576 
 7607      6973696F 
 7607      6E203233 
 7607      37373135 
 7608 008d 73202D73 		.ascii	"s -std=gnu99 -ffunction-sections -ffat-lto-objects\000"
 7608      74643D67 
 7608      6E753939 
 7608      202D6666 
 7608      756E6374 
 7609              	.LASF68:
 7610 00c0 63697263 		.ascii	"circ\000"
 7610      00
 7611              	.LASF129:
 7612 00c5 42555253 		.ascii	"BURST_ON\000"
 7612      545F4F4E 
 7612      00
 7613              	.LASF55:
 7614 00ce 6E6F6973 		.ascii	"noiseCurrent\000"
 7614      65437572 
 7614      72656E74 
 7614      00
 7615              	.LASF130:
 7616 00db 42555253 		.ascii	"BURST_OFF\000"
 7616      545F4F46 
 7616      4600
 7617              	.LASF239:
 7618 00e5 6E657746 		.ascii	"newFrequency\000"
 7618      72657175 
 7618      656E6379 
 7618      00
 7619              	.LASF15:
 7620 00f2 696E7433 		.ascii	"int32_t\000"
 7620      325F7400 
 7621              	.LASF208:
 7622 00fa 7163775F 		.ascii	"qcw_freq\000"
 7622      66726571 
 7622      00
 7623              	.LASF161:
 7624 0103 7069645F 		.ascii	"pid_temp_set\000"
 7624      74656D70 
 7624      5F736574 
 7624      00
ARM GAS  C:\Users\chemi\AppData\Local\Temp\ccr4fFHe.s 			page 149


 7625              	.LASF245:
 7626 0110 564D5357 		.ascii	"VMSW_getCurrentFactor\000"
 7626      5F676574 
 7626      43757272 
 7626      656E7446 
 7626      6163746F 
 7627              	.LASF234:
 7628 0126 74617267 		.ascii	"targetOnTime\000"
 7628      65744F6E 
 7628      54696D65 
 7628      00
 7629              	.LASF44:
 7630 0133 66726571 		.ascii	"freqTarget\000"
 7630      54617267 
 7630      657400
 7631              	.LASF270:
 7632 013e 564D535F 		.ascii	"VMS_isBlockValid\000"
 7632      6973426C 
 7632      6F636B56 
 7632      616C6964 
 7632      00
 7633              	.LASF285:
 7634 014f 564D5357 		.ascii	"VMSW_getNextVoice\000"
 7634      5F676574 
 7634      4E657874 
 7634      566F6963 
 7634      6500
 7635              	.LASF249:
 7636 0161 564D5357 		.ascii	"VMSW_bendHandler\000"
 7636      5F62656E 
 7636      6448616E 
 7636      646C6572 
 7636      00
 7637              	.LASF214:
 7638 0172 636C695F 		.ascii	"cli_parameter\000"
 7638      70617261 
 7638      6D657465 
 7638      7200
 7639              	.LASF63:
 7640 0180 62617365 		.ascii	"baseVolume\000"
 7640      566F6C75 
 7640      6D6500
 7641              	.LASF29:
 7642 018b 564D535F 		.ascii	"VMS_Block_t\000"
 7642      426C6F63 
 7642      6B5F7400 
 7643              	.LASF278:
 7644 0197 564D535F 		.ascii	"VMS_killBlocks\000"
 7644      6B696C6C 
 7644      426C6F63 
 7644      6B7300
 7645              	.LASF269:
 7646 01a6 564D535F 		.ascii	"VMS_returnSemaphore\000"
 7646      72657475 
 7646      726E5365 
 7646      6D617068 
 7646      6F726500 
ARM GAS  C:\Users\chemi\AppData\Local\Temp\ccr4fFHe.s 			page 150


 7647              	.LASF33:
 7648 01ba 74797065 		.ascii	"type\000"
 7648      00
 7649              	.LASF27:
 7650 01bf 53594E54 		.ascii	"SYNTH_MIDI_QCW\000"
 7650      485F4D49 
 7650      44495F51 
 7650      435700
 7651              	.LASF277:
 7652 01ce 4D696469 		.ascii	"MidiProcessor_getCCValue\000"
 7652      50726F63 
 7652      6573736F 
 7652      725F6765 
 7652      74434356 
 7653              	.LASF205:
 7654 01e7 7163775F 		.ascii	"qcw_offset\000"
 7654      6F666673 
 7654      657400
 7655              	.LASF179:
 7656 01f2 70636139 		.ascii	"pca9685\000"
 7656      36383500 
 7657              	.LASF190:
 7658 01fa 53696747 		.ascii	"SigGen_minOtOffset\000"
 7658      656E5F6D 
 7658      696E4F74 
 7658      4F666673 
 7658      657400
 7659              	.LASF64:
 7660 020d 62617365 		.ascii	"baseVelocity\000"
 7660      56656C6F 
 7660      63697479 
 7660      00
 7661              	.LASF133:
 7662 021a 494E5452 		.ascii	"INTR_MOD_CUR\000"
 7662      5F4D4F44 
 7662      5F435552 
 7662      00
 7663              	.LASF233:
 7664 0227 73746172 		.ascii	"startBlockID\000"
 7664      74426C6F 
 7664      636B4944 
 7664      00
 7665              	.LASF52:
 7666 0234 766F6C75 		.ascii	"volumeCurrent\000"
 7666      6D654375 
 7666      7272656E 
 7666      7400
 7667              	.LASF273:
 7668 0242 53696747 		.ascii	"SigGen_setVoiceVMS\000"
 7668      656E5F73 
 7668      6574566F 
 7668      69636556 
 7668      4D5300
 7669              	.LASF3:
 7670 0255 5F5F7569 		.ascii	"__uint8_t\000"
 7670      6E74385F 
 7670      7400
ARM GAS  C:\Users\chemi\AppData\Local\Temp\ccr4fFHe.s 			page 151


 7671              	.LASF241:
 7672 025f 766F6963 		.ascii	"voiceId\000"
 7672      65496400 
 7673              	.LASF124:
 7674 0267 696E7465 		.ascii	"interrupter_mode\000"
 7674      72727570 
 7674      7465725F 
 7674      6D6F6465 
 7674      00
 7675              	.LASF166:
 7676 0278 70735F73 		.ascii	"ps_scheme\000"
 7676      6368656D 
 7676      6500
 7677              	.LASF210:
 7678 0282 62757273 		.ascii	"burst_on\000"
 7678      745F6F6E 
 7678      00
 7679              	.LASF226:
 7680 028b 766F6963 		.ascii	"voice\000"
 7680      6500
 7681              	.LASF75:
 7682 0291 564D535F 		.ascii	"VMS_SIN\000"
 7682      53494E00 
 7683              	.LASF7:
 7684 0299 6C6F6E67 		.ascii	"long int\000"
 7684      20696E74 
 7684      00
 7685              	.LASF257:
 7686 02a2 564D535F 		.ascii	"VMS_DEFAULT_SUSTAIN\000"
 7686      44454641 
 7686      554C545F 
 7686      53555354 
 7686      41494E00 
 7687              	.LASF219:
 7688 02b6 6F6C6465 		.ascii	"oldestVoice\000"
 7688      7374566F 
 7688      69636500 
 7689              	.LASF61:
 7690 02c2 706F7274 		.ascii	"portamentoTarget\000"
 7690      616D656E 
 7690      746F5461 
 7690      72676574 
 7690      00
 7691              	.LASF125:
 7692 02d3 494E5452 		.ascii	"INTR_MODE_OFF\000"
 7692      5F4D4F44 
 7692      455F4F46 
 7692      4600
 7693              	.LASF271:
 7694 02e1 78546173 		.ascii	"xTaskGetTickCount\000"
 7694      6B476574 
 7694      5469636B 
 7694      436F756E 
 7694      7400
 7695              	.LASF120:
 7696 02f3 53594E54 		.ascii	"SYNTH\000"
 7696      4800
ARM GAS  C:\Users\chemi\AppData\Local\Temp\ccr4fFHe.s 			page 152


 7697              	.LASF113:
 7698 02f9 4B4E4F57 		.ascii	"KNOWNVAL_MAX\000"
 7698      4E56414C 
 7698      5F4D4158 
 7698      00
 7699              	.LASF196:
 7700 0306 636C695F 		.ascii	"cli_config\000"
 7700      636F6E66 
 7700      696700
 7701              	.LASF198:
 7702 0311 74756E65 		.ascii	"tune_start\000"
 7702      5F737461 
 7702      727400
 7703              	.LASF199:
 7704 031c 74756E65 		.ascii	"tune_end\000"
 7704      5F656E64 
 7704      00
 7705              	.LASF204:
 7706 0325 7163775F 		.ascii	"qcw_holdoff\000"
 7706      686F6C64 
 7706      6F666600 
 7707              	.LASF46:
 7708 0331 66726571 		.ascii	"freqFactor\000"
 7708      46616374 
 7708      6F7200
 7709              	.LASF158:
 7710 033c 6D61785F 		.ascii	"max_qcw_duty\000"
 7710      7163775F 
 7710      64757479 
 7710      00
 7711              	.LASF259:
 7712 0349 696E7465 		.ascii	"interrupter\000"
 7712      72727570 
 7712      74657200 
 7713              	.LASF265:
 7714 0355 7076506F 		.ascii	"pvPortMalloc\000"
 7714      72744D61 
 7714      6C6C6F63 
 7714      00
 7715              	.LASF0:
 7716 0362 7369676E 		.ascii	"signed char\000"
 7716      65642063 
 7716      68617200 
 7717              	.LASF13:
 7718 036e 75696E74 		.ascii	"uint8_t\000"
 7718      385F7400 
 7719              	.LASF134:
 7720 0376 6D6F6465 		.ascii	"mode\000"
 7720      00
 7721              	.LASF78:
 7722 037b 6D61784F 		.ascii	"maxOnTime\000"
 7722      6E54696D 
 7722      6500
 7723              	.LASF170:
 7724 0385 6374325F 		.ascii	"ct2_type\000"
 7724      74797065 
 7724      00
ARM GAS  C:\Users\chemi\AppData\Local\Temp\ccr4fFHe.s 			page 153


 7725              	.LASF220:
 7726 038e 63757272 		.ascii	"currVoice\000"
 7726      566F6963 
 7726      6500
 7727              	.LASF123:
 7728 0398 494E5452 		.ascii	"INTR_DMA_DDS\000"
 7728      5F444D41 
 7728      5F444453 
 7728      00
 7729              	.LASF173:
 7730 03a5 6374325F 		.ascii	"ct2_offset\000"
 7730      6F666673 
 7730      657400
 7731              	.LASF212:
 7732 03b0 73796E74 		.ascii	"synth\000"
 7732      6800
 7733              	.LASF1:
 7734 03b6 756E7369 		.ascii	"unsigned char\000"
 7734      676E6564 
 7734      20636861 
 7734      7200
 7735              	.LASF146:
 7736 03c4 6D696E5F 		.ascii	"min_tr_current\000"
 7736      74725F63 
 7736      75727265 
 7736      6E7400
 7737              	.LASF191:
 7738 03d3 636F6D70 		.ascii	"compressor_attac\000"
 7738      72657373 
 7738      6F725F61 
 7738      74746163 
 7738      00
 7739              	.LASF247:
 7740 03e4 564D5357 		.ascii	"VMSW_panicHandler\000"
 7740      5F70616E 
 7740      69634861 
 7740      6E646C65 
 7740      7200
 7741              	.LASF181:
 7742 03f6 6E74635F 		.ascii	"ntc_b\000"
 7742      6200
 7743              	.LASF41:
 7744 03fc 564D535F 		.ascii	"VMS_VoiceData_t\000"
 7744      566F6963 
 7744      65446174 
 7744      615F7400 
 7745              	.LASF228:
 7746 040c 564D5357 		.ascii	"VMSW_isVoiceOn\000"
 7746      5F697356 
 7746      6F696365 
 7746      4F6E00
 7747              	.LASF178:
 7748 041b 69735F71 		.ascii	"is_qcw\000"
 7748      637700
 7749              	.LASF58:
 7750 0422 68797065 		.ascii	"hypervoiceVolumeFactor\000"
 7750      72766F69 
ARM GAS  C:\Users\chemi\AppData\Local\Temp\ccr4fFHe.s 			page 154


 7750      6365566F 
 7750      6C756D65 
 7750      46616374 
 7751              	.LASF160:
 7752 0439 74656D70 		.ascii	"temp2_setpoint\000"
 7752      325F7365 
 7752      74706F69 
 7752      6E7400
 7753              	.LASF185:
 7754 0448 75766C6F 		.ascii	"uvlo_analog\000"
 7754      5F616E61 
 7754      6C6F6700 
 7755              	.LASF115:
 7756 0454 4B4E4F57 		.ascii	"KNOWN_VALUE\000"
 7756      4E5F5641 
 7756      4C554500 
 7757              	.LASF224:
 7758 0460 564D5357 		.ascii	"VMSW_getVoiceData\000"
 7758      5F676574 
 7758      566F6963 
 7758      65446174 
 7758      6100
 7759              	.LASF28:
 7760 0472 53594E54 		.ascii	"SYNTH_SID_QCW\000"
 7760      485F5349 
 7760      445F5143 
 7760      5700
 7761              	.LASF243:
 7762 0480 76616C75 		.ascii	"value\000"
 7762      6500
 7763              	.LASF242:
 7764 0486 564D5357 		.ascii	"VMSW_setKnownValue\000"
 7764      5F736574 
 7764      4B6E6F77 
 7764      6E56616C 
 7764      756500
 7765              	.LASF19:
 7766 0499 63686172 		.ascii	"char\000"
 7766      00
 7767              	.LASF229:
 7768 049e 564D5357 		.ascii	"VMSW_isVoiceActive\000"
 7768      5F697356 
 7768      6F696365 
 7768      41637469 
 7768      766500
 7769              	.LASF280:
 7770 04b1 4D696469 		.ascii	"MidiProcessor_getVolume\000"
 7770      50726F63 
 7770      6573736F 
 7770      725F6765 
 7770      74566F6C 
 7771              	.LASF288:
 7772 04c9 6D656D73 		.ascii	"memset\000"
 7772      657400
 7773              	.LASF216:
 7774 04d0 6F757470 		.ascii	"output\000"
 7774      757400
ARM GAS  C:\Users\chemi\AppData\Local\Temp\ccr4fFHe.s 			page 155


 7775              	.LASF223:
 7776 04d7 564D5357 		.ascii	"VMSW_getBlockMemSizeInBlocks\000"
 7776      5F676574 
 7776      426C6F63 
 7776      6B4D656D 
 7776      53697A65 
 7777              	.LASF187:
 7778 04f4 68775F72 		.ascii	"hw_rev\000"
 7778      657600
 7779              	.LASF109:
 7780 04fb 48797065 		.ascii	"HyperVoice_Count\000"
 7780      72566F69 
 7780      63655F43 
 7780      6F756E74 
 7780      00
 7781              	.LASF144:
 7782 050c 6D61785F 		.ascii	"max_qcw_pw\000"
 7782      7163775F 
 7782      707700
 7783              	.LASF79:
 7784 0517 6D696E4F 		.ascii	"minOnTime\000"
 7784      6E54696D 
 7784      6500
 7785              	.LASF4:
 7786 0521 5F5F7569 		.ascii	"__uint16_t\000"
 7786      6E743136 
 7786      5F7400
 7787              	.LASF174:
 7788 052c 725F746F 		.ascii	"r_top\000"
 7788      7000
 7789              	.LASF283:
 7790 0532 433A5C55 		.ascii	"C:\\Users\\chemi\\UD3_QCW\\UD3_QFN.cydsn\000"
 7790      73657273 
 7790      5C636865 
 7790      6D695C55 
 7790      44335F51 
 7791              	.LASF254:
 7792 0557 626C6F63 		.ascii	"blockMemBlockCount\000"
 7792      6B4D656D 
 7792      426C6F63 
 7792      6B436F75 
 7792      6E7400
 7793              	.LASF147:
 7794 056a 6D61785F 		.ascii	"max_qcw_current\000"
 7794      7163775F 
 7794      63757272 
 7794      656E7400 
 7795              	.LASF202:
 7796 057a 6F666674 		.ascii	"offtime\000"
 7796      696D6500 
 7797              	.LASF40:
 7798 0582 666C6167 		.ascii	"flags\000"
 7798      7300
 7799              	.LASF131:
 7800 0588 696E7465 		.ascii	"interrupter_modulation\000"
 7800      72727570 
 7800      7465725F 
ARM GAS  C:\Users\chemi\AppData\Local\Temp\ccr4fFHe.s 			page 156


 7800      6D6F6475 
 7800      6C617469 
 7801              	.LASF157:
 7802 059f 6D61785F 		.ascii	"max_tr_duty\000"
 7802      74725F64 
 7802      75747900 
 7803              	.LASF132:
 7804 05ab 494E5452 		.ascii	"INTR_MOD_PW\000"
 7804      5F4D4F44 
 7804      5F505700 
 7805              	.LASF221:
 7806 05b7 63757272 		.ascii	"currNoteAge\000"
 7806      4E6F7465 
 7806      41676500 
 7807              	.LASF48:
 7808 05c3 6F6E5469 		.ascii	"onTimeTarget\000"
 7808      6D655461 
 7808      72676574 
 7808      00
 7809              	.LASF117:
 7810 05d0 4E4F524D 		.ascii	"NORMAL\000"
 7810      414C00
 7811              	.LASF136:
 7812 05d7 646D615F 		.ascii	"dma_mode\000"
 7812      6D6F6465 
 7812      00
 7813              	.LASF237:
 7814 05e0 74617267 		.ascii	"targetVoice\000"
 7814      6574566F 
 7814      69636500 
 7815              	.LASF238:
 7816 05ec 76446174 		.ascii	"vData\000"
 7816      6100
 7817              	.LASF82:
 7818 05f2 6F745461 		.ascii	"otTarget\000"
 7818      72676574 
 7818      00
 7819              	.LASF141:
 7820 05fb 77617463 		.ascii	"watchdog_timeout\000"
 7820      68646F67 
 7820      5F74696D 
 7820      656F7574 
 7820      00
 7821              	.LASF213:
 7822 060c 74656D70 		.ascii	"temp_duty\000"
 7822      5F647574 
 7822      7900
 7823              	.LASF260:
 7824 0616 636F6E66 		.ascii	"configuration\000"
 7824      69677572 
 7824      6174696F 
 7824      6E00
 7825              	.LASF194:
 7826 0624 636F6D70 		.ascii	"compressor_maxDutyOffset\000"
 7826      72657373 
 7826      6F725F6D 
 7826      61784475 
ARM GAS  C:\Users\chemi\AppData\Local\Temp\ccr4fFHe.s 			page 157


 7826      74794F66 
 7827              	.LASF263:
 7828 063d 564D535F 		.ascii	"VMS_run\000"
 7828      72756E00 
 7829              	.LASF222:
 7830 0645 696E6465 		.ascii	"index\000"
 7830      7800
 7831              	.LASF235:
 7832 064b 74617267 		.ascii	"targetVolume\000"
 7832      6574566F 
 7832      6C756D65 
 7832      00
 7833              	.LASF197:
 7834 0658 70617261 		.ascii	"parameter_struct\000"
 7834      6D657465 
 7834      725F7374 
 7834      72756374 
 7834      00
 7835              	.LASF127:
 7836 0669 494E5452 		.ascii	"INTR_MODE_BLOCKED\000"
 7836      5F4D4F44 
 7836      455F424C 
 7836      4F434B45 
 7836      4400
 7837              	.LASF150:
 7838 067b 6374315F 		.ascii	"ct1_ratio\000"
 7838      72617469 
 7838      6F00
 7839              	.LASF206:
 7840 0685 7163775F 		.ascii	"qcw_max\000"
 7840      6D617800 
 7841              	.LASF9:
 7842 068d 6C6F6E67 		.ascii	"long unsigned int\000"
 7842      20756E73 
 7842      69676E65 
 7842      6420696E 
 7842      7400
 7843              	.LASF252:
 7844 069f 74617267 		.ascii	"targetPw\000"
 7844      65745077 
 7844      00
 7845              	.LASF35:
 7846 06a8 74617267 		.ascii	"targetFactor\000"
 7846      65744661 
 7846      63746F72 
 7846      00
 7847              	.LASF67:
 7848 06b5 736F7572 		.ascii	"sourceNote\000"
 7848      63654E6F 
 7848      746500
 7849              	.LASF34:
 7850 06c0 74617267 		.ascii	"target\000"
 7850      657400
 7851              	.LASF31:
 7852 06c7 6F666642 		.ascii	"offBlock\000"
 7852      6C6F636B 
 7852      00
ARM GAS  C:\Users\chemi\AppData\Local\Temp\ccr4fFHe.s 			page 158


 7853              	.LASF217:
 7854 06d0 6368616E 		.ascii	"channel\000"
 7854      6E656C00 
 7855              	.LASF159:
 7856 06d8 74656D70 		.ascii	"temp1_setpoint\000"
 7856      315F7365 
 7856      74706F69 
 7856      6E7400
 7857              	.LASF71:
 7858 06e7 564D535F 		.ascii	"VMS_INVALID\000"
 7858      494E5641 
 7858      4C494400 
 7859              	.LASF86:
 7860 06f3 7054696D 		.ascii	"pTime\000"
 7860      6500
 7861              	.LASF268:
 7862 06f9 564D535F 		.ascii	"VMS_getSemaphore\000"
 7862      67657453 
 7862      656D6170 
 7862      686F7265 
 7862      00
 7863              	.LASF236:
 7864 070a 74617267 		.ascii	"targetFrequency\000"
 7864      65744672 
 7864      65717565 
 7864      6E637900 
 7865              	.LASF45:
 7866 071a 66726571 		.ascii	"freqCurrent\000"
 7866      43757272 
 7866      656E7400 
 7867              	.LASF151:
 7868 0726 6374325F 		.ascii	"ct2_ratio\000"
 7868      72617469 
 7868      6F00
 7869              	.LASF262:
 7870 0730 4E564D5F 		.ascii	"NVM_blocks\000"
 7870      626C6F63 
 7870      6B7300
 7871              	.LASF119:
 7872 073b 54696D65 		.ascii	"TimerHandle_t\000"
 7872      7248616E 
 7872      646C655F 
 7872      7400
 7873              	.LASF256:
 7874 0749 564D535F 		.ascii	"VMS_DEFAULT_RELEASE\000"
 7874      44454641 
 7874      554C545F 
 7874      52454C45 
 7874      41534500 
 7875              	.LASF279:
 7876 075d 4D696469 		.ascii	"MidiProcessor_getStereoVolume\000"
 7876      50726F63 
 7876      6573736F 
 7876      725F6765 
 7876      74537465 
 7877              	.LASF272:
 7878 077b 564D535F 		.ascii	"VMS_removeBlocksWithTargetVoice\000"
ARM GAS  C:\Users\chemi\AppData\Local\Temp\ccr4fFHe.s 			page 159


 7878      72656D6F 
 7878      7665426C 
 7878      6F636B73 
 7878      57697468 
 7879              	.LASF186:
 7880 079b 76647269 		.ascii	"vdrive\000"
 7880      766500
 7881              	.LASF284:
 7882 07a2 746D7254 		.ascii	"tmrTimerControl\000"
 7882      696D6572 
 7882      436F6E74 
 7882      726F6C00 
 7883              	.LASF177:
 7884 07b2 6578745F 		.ascii	"ext_interrupter\000"
 7884      696E7465 
 7884      72727570 
 7884      74657200 
 7885              	.LASF172:
 7886 07c2 6374325F 		.ascii	"ct2_voltage\000"
 7886      766F6C74 
 7886      61676500 
 7887              	.LASF164:
 7888 07ce 7069645F 		.ascii	"pid_temp_i\000"
 7888      74656D70 
 7888      5F6900
 7889              	.LASF183:
 7890 07d9 69646163 		.ascii	"idac\000"
 7890      00
 7891              	.LASF39:
 7892 07de 70657269 		.ascii	"periodMs\000"
 7892      6F644D73 
 7892      00
 7893              	.LASF66:
 7894 07e7 736F7572 		.ascii	"sourceChannel\000"
 7894      63654368 
 7894      616E6E65 
 7894      6C00
 7895              	.LASF143:
 7896 07f5 6D61785F 		.ascii	"max_tr_prf\000"
 7896      74725F70 
 7896      726600
 7897              	.LASF54:
 7898 0800 6E6F6973 		.ascii	"noiseTarget\000"
 7898      65546172 
 7898      67657400 
 7899              	.LASF276:
 7900 080c 564D535F 		.ascii	"VMS_addBlockToList\000"
 7900      61646442 
 7900      6C6F636B 
 7900      546F4C69 
 7900      737400
 7901              	.LASF8:
 7902 081f 5F5F7569 		.ascii	"__uint32_t\000"
 7902      6E743332 
 7902      5F7400
 7903              	.LASF10:
 7904 082a 6C6F6E67 		.ascii	"long long int\000"
ARM GAS  C:\Users\chemi\AppData\Local\Temp\ccr4fFHe.s 			page 160


 7904      206C6F6E 
 7904      6720696E 
 7904      7400
 7905              	.LASF60:
 7906 0838 68797065 		.ascii	"hypervoicePhase\000"
 7906      72766F69 
 7906      63655068 
 7906      61736500 
 7907              	.LASF49:
 7908 0848 6F6E5469 		.ascii	"onTimeCurrent\000"
 7908      6D654375 
 7908      7272656E 
 7908      7400
 7909              	.LASF211:
 7910 0856 62757273 		.ascii	"burst_off\000"
 7910      745F6F66 
 7910      6600
 7911              	.LASF80:
 7912 0860 6F6E5469 		.ascii	"onTime\000"
 7912      6D6500
 7913              	.LASF18:
 7914 0867 646F7562 		.ascii	"double\000"
 7914      6C6500
 7915              	.LASF25:
 7916 086e 53594E54 		.ascii	"SYNTH_SID\000"
 7916      485F5349 
 7916      4400
 7917              	.LASF87:
 7918 0878 63697263 		.ascii	"circ1\000"
 7918      3100
 7919              	.LASF88:
 7920 087e 63697263 		.ascii	"circ2\000"
 7920      3200
 7921              	.LASF89:
 7922 0884 63697263 		.ascii	"circ3\000"
 7922      3300
 7923              	.LASF90:
 7924 088a 63697263 		.ascii	"circ4\000"
 7924      3400
 7925              	.LASF192:
 7926 0890 636F6D70 		.ascii	"compressor_sustain\000"
 7926      72657373 
 7926      6F725F73 
 7926      75737461 
 7926      696E00
 7927              	.LASF207:
 7928 08a3 7163775F 		.ascii	"qcw_repeat\000"
 7928      72657065 
 7928      617400
 7929              	.LASF118:
 7930 08ae 4E4F5445 		.ascii	"NOTEOFF_BEHAVIOR\000"
 7930      4F46465F 
 7930      42454841 
 7930      56494F52 
 7930      00
 7931              	.LASF255:
 7932 08bf 49544D5F 		.ascii	"ITM_RxBuffer\000"
ARM GAS  C:\Users\chemi\AppData\Local\Temp\ccr4fFHe.s 			page 161


 7932      52784275 
 7932      66666572 
 7932      00
 7933              	.LASF84:
 7934 08cc 66726571 		.ascii	"frequency\000"
 7934      75656E63 
 7934      7900
 7935              	.LASF17:
 7936 08d6 666C6F61 		.ascii	"float\000"
 7936      7400
 7937              	.LASF282:
 7938 08dc 2E2E5C63 		.ascii	"..\\common\\vms\\VMSWrapper.c\000"
 7938      6F6D6D6F 
 7938      6E5C766D 
 7938      735C564D 
 7938      53577261 
 7939              	.LASF138:
 7940 08f7 696E7465 		.ascii	"interrupter_params\000"
 7940      72727570 
 7940      7465725F 
 7940      70617261 
 7940      6D7300
 7941              	.LASF121:
 7942 090a 696E7465 		.ascii	"interrupter_DMA\000"
 7942      72727570 
 7942      7465725F 
 7942      444D4100 
 7943              	.LASF165:
 7944 091a 74656D70 		.ascii	"temp2_mode\000"
 7944      325F6D6F 
 7944      646500
 7945              	.LASF12:
 7946 0925 756E7369 		.ascii	"unsigned int\000"
 7946      676E6564 
 7946      20696E74 
 7946      00
 7947              	.LASF69:
 7948 0932 72656665 		.ascii	"referencingBlocksCount\000"
 7948      72656E63 
 7948      696E6742 
 7948      6C6F636B 
 7948      73436F75 
 7949              	.LASF286:
 7950 0949 564D5357 		.ascii	"VMSW_getBlockPtr\000"
 7950      5F676574 
 7950      426C6F63 
 7950      6B507472 
 7950      00
 7951              	.LASF85:
 7952 095a 6E6F6973 		.ascii	"noise\000"
 7952      6500
 7953              	.LASF62:
 7954 0960 706F7274 		.ascii	"portamentoCurrent\000"
 7954      616D656E 
 7954      746F4375 
 7954      7272656E 
 7954      7400
ARM GAS  C:\Users\chemi\AppData\Local\Temp\ccr4fFHe.s 			page 162


 7955              	.LASF195:
 7956 0972 64726976 		.ascii	"drive_factor\000"
 7956      655F6661 
 7956      63746F72 
 7956      00
 7957              	.LASF149:
 7958 097f 74656D70 		.ascii	"temp2_max\000"
 7958      325F6D61 
 7958      7800
 7959              	.LASF180:
 7960 0989 6D61785F 		.ascii	"max_fb_errors\000"
 7960      66625F65 
 7960      72726F72 
 7960      7300
 7961              	.LASF201:
 7962 0997 74756E65 		.ascii	"tune_delay\000"
 7962      5F64656C 
 7962      617900
 7963              	.LASF126:
 7964 09a2 494E5452 		.ascii	"INTR_MODE_TR\000"
 7964      5F4D4F44 
 7964      455F5452 
 7964      00
 7965              	.LASF240:
 7966 09af 564D5357 		.ascii	"VMSW_getKnownValue\000"
 7966      5F676574 
 7966      4B6E6F77 
 7966      6E56616C 
 7966      756500
 7967              	.LASF218:
 7968 09c2 6F6C6465 		.ascii	"oldestAge\000"
 7968      73744167 
 7968      6500
 7969              	.LASF230:
 7970 09cc 564D5357 		.ascii	"VMSW_stopNote\000"
 7970      5F73746F 
 7970      704E6F74 
 7970      6500
 7971              	.LASF135:
 7972 09da 62757273 		.ascii	"burst_state\000"
 7972      745F7374 
 7972      61746500 
 7973              	.LASF267:
 7974 09e6 78546173 		.ascii	"xTaskCreate\000"
 7974      6B437265 
 7974      61746500 
 7975              	.LASF251:
 7976 09f2 564D5357 		.ascii	"VMSW_pulseWidthChangeHandler\000"
 7976      5F70756C 
 7976      73655769 
 7976      64746843 
 7976      68616E67 
 7977              	.LASF23:
 7978 0a0f 53594E54 		.ascii	"SYNTH_OFF\000"
 7978      485F4F46 
 7978      4600
 7979              	.LASF227:
ARM GAS  C:\Users\chemi\AppData\Local\Temp\ccr4fFHe.s 			page 163


 7980 0a19 564D5357 		.ascii	"VMSW_getSrcChannel\000"
 7980      5F676574 
 7980      53726343 
 7980      68616E6E 
 7980      656C00
 7981              	.LASF153:
 7982 0a2c 6374325F 		.ascii	"ct2_burden\000"
 7982      62757264 
 7982      656E00
 7983              	.LASF274:
 7984 0a37 4D696469 		.ascii	"MidiProcessor_getBendFactor\000"
 7984      50726F63 
 7984      6573736F 
 7984      725F6765 
 7984      7442656E 
 7985              	.LASF163:
 7986 0a53 7069645F 		.ascii	"pid_temp_p\000"
 7986      74656D70 
 7986      5F7000
 7987              	.LASF246:
 7988 0a5e 564D5357 		.ascii	"VMSW_init\000"
 7988      5F696E69 
 7988      7400
 7989              	.LASF139:
 7990 0a68 636F6E66 		.ascii	"config_struct\000"
 7990      69675F73 
 7990      74727563 
 7990      7400
 7991              	.LASF36:
 7992 0a76 70617261 		.ascii	"param1\000"
 7992      6D3100
 7993              	.LASF37:
 7994 0a7d 70617261 		.ascii	"param2\000"
 7994      6D3200
 7995              	.LASF38:
 7996 0a84 70617261 		.ascii	"param3\000"
 7996      6D3300
 7997              	.LASF231:
 7998 0a8b 564D5357 		.ascii	"VMSW_isAnyVoiceOn\000"
 7998      5F697341 
 7998      6E79566F 
 7998      6963654F 
 7998      6E00
 7999              	.LASF209:
 8000 0a9d 7163775F 		.ascii	"qcw_vol\000"
 8000      766F6C00 
 8001              	.LASF24:
 8002 0aa5 53594E54 		.ascii	"SYNTH_MIDI\000"
 8002      485F4D49 
 8002      444900
 8003              	.LASF200:
 8004 0ab0 74756E65 		.ascii	"tune_pw\000"
 8004      5F707700 
 8005              	.LASF264:
 8006 0ab8 76546173 		.ascii	"vTaskDelay\000"
 8006      6B44656C 
 8006      617900
ARM GAS  C:\Users\chemi\AppData\Local\Temp\ccr4fFHe.s 			page 164


 8007              	.LASF11:
 8008 0ac3 6C6F6E67 		.ascii	"long long unsigned int\000"
 8008      206C6F6E 
 8008      6720756E 
 8008      7369676E 
 8008      65642069 
 8009              	.LASF171:
 8010 0ada 6374325F 		.ascii	"ct2_current\000"
 8010      63757272 
 8010      656E7400 
 8011              	.LASF225:
 8012 0ae6 70617261 		.ascii	"params\000"
 8012      6D7300
 8013              	.LASF14:
 8014 0aed 75696E74 		.ascii	"uint16_t\000"
 8014      31365F74 
 8014      00
 8015              	.LASF32:
 8016 0af6 62656861 		.ascii	"behavior\000"
 8016      76696F72 
 8016      00
 8017              	.LASF21:
 8018 0aff 55426173 		.ascii	"UBaseType_t\000"
 8018      65547970 
 8018      655F7400 
 8019              	.LASF232:
 8020 0b0b 564D5357 		.ascii	"VMSW_startNote\000"
 8020      5F737461 
 8020      72744E6F 
 8020      746500
 8021              	.LASF74:
 8022 0b1a 564D535F 		.ascii	"VMS_LIN\000"
 8022      4C494E00 
 8023              	.LASF22:
 8024 0b22 5469636B 		.ascii	"TickType_t\000"
 8024      54797065 
 8024      5F7400
 8025              	.LASF122:
 8026 0b2d 494E5452 		.ascii	"INTR_DMA_TR\000"
 8026      5F444D41 
 8026      5F545200 
 8027              	.LASF244:
 8028 0b39 64696666 		.ascii	"difference\000"
 8028      6572656E 
 8028      636500
 8029              	.LASF250:
 8030 0b44 564D5357 		.ascii	"VMSW_volumeChangeHandler\000"
 8030      5F766F6C 
 8030      756D6543 
 8030      68616E67 
 8030      6548616E 
 8031              	.LASF148:
 8032 0b5d 74656D70 		.ascii	"temp1_max\000"
 8032      315F6D61 
 8032      7800
 8033              	.LASF154:
 8034 0b67 6C656164 		.ascii	"lead_time\000"
ARM GAS  C:\Users\chemi\AppData\Local\Temp\ccr4fFHe.s 			page 165


 8034      5F74696D 
 8034      6500
 8035              	.LASF248:
 8036 0b71 63757272 		.ascii	"currOutput\000"
 8036      4F757470 
 8036      757400
 8037              	.LASF30:
 8038 0b7c 6E657874 		.ascii	"nextBlocks\000"
 8038      426C6F63 
 8038      6B7300
 8039              	.LASF51:
 8040 0b87 766F6C75 		.ascii	"volumeTarget\000"
 8040      6D655461 
 8040      72676574 
 8040      00
 8041              	.LASF156:
 8042 0b94 73746172 		.ascii	"start_cycles\000"
 8042      745F6379 
 8042      636C6573 
 8042      00
 8043              	.LASF50:
 8044 0ba1 6F6E5469 		.ascii	"onTimeFactor\000"
 8044      6D654661 
 8044      63746F72 
 8044      00
 8045              	.LASF59:
 8046 0bae 68797065 		.ascii	"hypervoiceVolumeCurrent\000"
 8046      72766F69 
 8046      6365566F 
 8046      6C756D65 
 8046      43757272 
 8047              	.LASF91:
 8048 0bc6 43435F31 		.ascii	"CC_102\000"
 8048      303200
 8049              	.LASF92:
 8050 0bcd 43435F31 		.ascii	"CC_103\000"
 8050      303300
 8051              	.LASF93:
 8052 0bd4 43435F31 		.ascii	"CC_104\000"
 8052      303400
 8053              	.LASF94:
 8054 0bdb 43435F31 		.ascii	"CC_105\000"
 8054      303500
 8055              	.LASF95:
 8056 0be2 43435F31 		.ascii	"CC_106\000"
 8056      303600
 8057              	.LASF96:
 8058 0be9 43435F31 		.ascii	"CC_107\000"
 8058      303700
 8059              	.LASF97:
 8060 0bf0 43435F31 		.ascii	"CC_108\000"
 8060      303800
 8061              	.LASF98:
 8062 0bf7 43435F31 		.ascii	"CC_109\000"
 8062      303900
 8063              	.LASF140:
 8064 0bfe 77617463 		.ascii	"watchdog\000"
ARM GAS  C:\Users\chemi\AppData\Local\Temp\ccr4fFHe.s 			page 166


 8064      68646F67 
 8064      00
 8065              	.LASF77:
 8066 0c07 564D535F 		.ascii	"VMS_MODTYPE\000"
 8066      4D4F4454 
 8066      59504500 
 8067              	.LASF72:
 8068 0c13 564D535F 		.ascii	"VMS_EXP\000"
 8068      45585000 
 8069              	.LASF266:
 8070 0c1b 564D535F 		.ascii	"VMS_init\000"
 8070      696E6974 
 8070      00
 8071              	.LASF184:
 8072 0c24 69766F5F 		.ascii	"ivo_led\000"
 8072      6C656400 
 8073              	.LASF168:
 8074 0c2c 75645F6E 		.ascii	"ud_name\000"
 8074      616D6500 
 8075              	.LASF53:
 8076 0c34 766F6C75 		.ascii	"volumeFactor\000"
 8076      6D654661 
 8076      63746F72 
 8076      00
 8077              	.LASF2:
 8078 0c41 73686F72 		.ascii	"short int\000"
 8078      7420696E 
 8078      7400
 8079              	.LASF83:
 8080 0c4b 6F744661 		.ascii	"otFactor\000"
 8080      63746F72 
 8080      00
 8081              	.LASF155:
 8082 0c54 73746172 		.ascii	"start_freq\000"
 8082      745F6672 
 8082      657100
 8083              	.LASF43:
 8084 0c5f 5F564D53 		.ascii	"_VMS_VoiceData_t_\000"
 8084      5F566F69 
 8084      63654461 
 8084      74615F74 
 8084      5F00
 8085              	.LASF81:
 8086 0c71 6F744375 		.ascii	"otCurrent\000"
 8086      7272656E 
 8086      7400
 8087              	.LASF99:
 8088 0c7b 43435F31 		.ascii	"CC_110\000"
 8088      313000
 8089              	.LASF100:
 8090 0c82 43435F31 		.ascii	"CC_111\000"
 8090      313100
 8091              	.LASF101:
 8092 0c89 43435F31 		.ascii	"CC_112\000"
 8092      313200
 8093              	.LASF102:
 8094 0c90 43435F31 		.ascii	"CC_113\000"
ARM GAS  C:\Users\chemi\AppData\Local\Temp\ccr4fFHe.s 			page 167


 8094      313300
 8095              	.LASF103:
 8096 0c97 43435F31 		.ascii	"CC_114\000"
 8096      313400
 8097              	.LASF104:
 8098 0c9e 43435F31 		.ascii	"CC_115\000"
 8098      313500
 8099              	.LASF105:
 8100 0ca5 43435F31 		.ascii	"CC_116\000"
 8100      313600
 8101              	.LASF106:
 8102 0cac 43435F31 		.ascii	"CC_117\000"
 8102      313700
 8103              	.LASF107:
 8104 0cb3 43435F31 		.ascii	"CC_118\000"
 8104      313800
 8105              	.LASF108:
 8106 0cba 43435F31 		.ascii	"CC_119\000"
 8106      313900
 8107              	.LASF275:
 8108 0cc1 53696747 		.ascii	"SigGen_setHyperVoiceVMS\000"
 8108      656E5F73 
 8108      65744879 
 8108      70657256 
 8108      6F696365 
 8109              	.LASF193:
 8110 0cd9 636F6D70 		.ascii	"compressor_release\000"
 8110      72657373 
 8110      6F725F72 
 8110      656C6561 
 8110      736500
 8111              	.LASF116:
 8112 0cec 494E5645 		.ascii	"INVERTED\000"
 8112      52544544 
 8112      00
 8113              	.LASF162:
 8114 0cf5 7069645F 		.ascii	"pid_temp_mode\000"
 8114      74656D70 
 8114      5F6D6F64 
 8114      6500
 8115              	.LASF26:
 8116 0d03 53594E54 		.ascii	"SYNTH_TR\000"
 8116      485F5452 
 8116      00
 8117              	.LASF110:
 8118 0d0c 48797065 		.ascii	"HyperVoice_Phase\000"
 8118      72566F69 
 8118      63655F50 
 8118      68617365 
 8118      00
 8119              	.LASF215:
 8120 0d1d 6E6F7465 		.ascii	"note\000"
 8120      00
 8121              	.LASF112:
 8122 0d22 766F6C75 		.ascii	"volume\000"
 8122      6D6500
 8123              	.LASF189:
ARM GAS  C:\Users\chemi\AppData\Local\Temp\ccr4fFHe.s 			page 168


 8124 0d29 6D696E5F 		.ascii	"min_fb_current\000"
 8124      66625F63 
 8124      75727265 
 8124      6E7400
 8125              	.LASF169:
 8126 0d38 62617564 		.ascii	"baudrate\000"
 8126      72617465 
 8126      00
 8127              	.LASF253:
 8128 0d41 766F6963 		.ascii	"voiceData\000"
 8128      65446174 
 8128      6100
 8129              	.LASF47:
 8130 0d4b 66726571 		.ascii	"freqLast\000"
 8130      4C617374 
 8130      00
 8131              	.LASF182:
 8132 0d54 6E74635F 		.ascii	"ntc_r25\000"
 8132      72323500 
 8133              	.LASF70:
 8134 0d5c 766F6963 		.ascii	"voiceIndex\000"
 8134      65496E64 
 8134      657800
 8135              	.LASF111:
 8136 0d67 48797065 		.ascii	"HyperVoice_Volume\000"
 8136      72566F69 
 8136      63655F56 
 8136      6F6C756D 
 8136      6500
 8137              	.LASF176:
 8138 0d79 69766F5F 		.ascii	"ivo_uart\000"
 8138      75617274 
 8138      00
 8139              	.LASF16:
 8140 0d82 75696E74 		.ascii	"uint32_t\000"
 8140      33325F74 
 8140      00
 8141              	.LASF258:
 8142 0d8b 564D535F 		.ascii	"VMS_DEFAULT_ATTAC\000"
 8142      44454641 
 8142      554C545F 
 8142      41545441 
 8142      4300
 8143              	.LASF287:
 8144 0d9d 564D5357 		.ascii	"VMSW_task\000"
 8144      5F746173 
 8144      6B00
 8145              	.LASF145:
 8146 0da7 6D61785F 		.ascii	"max_tr_current\000"
 8146      74725F63 
 8146      75727265 
 8146      6E7400
 8147              	.LASF57:
 8148 0db6 68797065 		.ascii	"hypervoiceCount\000"
 8148      72766F69 
 8148      6365436F 
 8148      756E7400 
ARM GAS  C:\Users\chemi\AppData\Local\Temp\ccr4fFHe.s 			page 169


 8149              	.LASF167:
 8150 0dc6 6175746F 		.ascii	"autotune_s\000"
 8150      74756E65 
 8150      5F7300
 8151              	.LASF5:
 8152 0dd1 73686F72 		.ascii	"short unsigned int\000"
 8152      7420756E 
 8152      7369676E 
 8152      65642069 
 8152      6E7400
 8153              	.LASF42:
 8154 0de4 5F564D53 		.ascii	"_VMS_BLOCK_\000"
 8154      5F424C4F 
 8154      434B5F00 
 8155              	.LASF203:
 8156 0df0 7163775F 		.ascii	"qcw_ramp\000"
 8156      72616D70 
 8156      00
 8157              	.LASF188:
 8158 0df9 6175746F 		.ascii	"autostart\000"
 8158      73746172 
 8158      7400
 8159              	.LASF56:
 8160 0e03 6E6F6973 		.ascii	"noiseFactor\000"
 8160      65466163 
 8160      746F7200 
 8161              	.LASF76:
 8162 0e0f 564D535F 		.ascii	"VMS_JUMP\000"
 8162      4A554D50 
 8162      00
 8163              	.LASF175:
 8164 0e18 63686172 		.ascii	"chargedelay\000"
 8164      67656465 
 8164      6C617900 
 8165              	.LASF6:
 8166 0e24 5F5F696E 		.ascii	"__int32_t\000"
 8166      7433325F 
 8166      7400
 8167              	.LASF137:
 8168 0e2e 78427572 		.ascii	"xBurst_Timer\000"
 8168      73745F54 
 8168      696D6572 
 8168      00
 8169              	.LASF261:
 8170 0e3b 70617261 		.ascii	"param\000"
 8170      6D00
 8171              	.LASF65:
 8172 0e41 73746172 		.ascii	"startTime\000"
 8172      7454696D 
 8172      6500
 8173              	.LASF114:
 8174 0e4b 414E4E4F 		.ascii	"ANNOYINGPAD\000"
 8174      59494E47 
 8174      50414400 
 8175              	.LASF152:
 8176 0e57 6374315F 		.ascii	"ct1_burden\000"
 8176      62757264 
ARM GAS  C:\Users\chemi\AppData\Local\Temp\ccr4fFHe.s 			page 170


 8176      656E00
 8177              	.LASF142:
 8178 0e62 6D61785F 		.ascii	"max_tr_pw\000"
 8178      74725F70 
 8178      7700
 8179              		.ident	"GCC: (GNU Tools for ARM Embedded Processors) 5.4.1 20160609 (release) [ARM/embedded-5-bran
