ARM GAS  C:\Users\chemi\AppData\Local\Temp\ccr4fFHe.s 			page 1


   1              		.syntax unified
   2              		.cpu cortex-m3
   3              		.fpu softvfp
   4              		.eabi_attribute 20, 1
   5              		.eabi_attribute 21, 1
   6              		.eabi_attribute 23, 3
   7              		.eabi_attribute 24, 1
   8              		.eabi_attribute 25, 1
   9              		.eabi_attribute 26, 1
  10              		.eabi_attribute 30, 4
  11              		.eabi_attribute 34, 1
  12              		.eabi_attribute 18, 4
  13              		.thumb
  14              		.syntax unified
  15              		.file	"VMSWrapper.c"
  16              		.text
  17              	.Ltext0:
  18              		.cfi_sections	.debug_frame
  19              		.section	.text.VMSW_task,"ax",%progbits
  20              		.align	1
  21              		.thumb
  22              		.thumb_func
  23              		.type	VMSW_task, %function
  24              	VMSW_task:
  25              	.LFB71:
  26              		.file 1 "..\\common\\vms\\VMSWrapper.c"
   1:..\common\vms/VMSWrapper.c **** /*
   2:..\common\vms/VMSWrapper.c ****  * File:   VMSWrapper.c
   3:..\common\vms/VMSWrapper.c ****  * Author: Thorb
   4:..\common\vms/VMSWrapper.c ****  *
   5:..\common\vms/VMSWrapper.c ****  * Created on 17 January 2023, 20:25
   6:..\common\vms/VMSWrapper.c ****  */
   7:..\common\vms/VMSWrapper.c **** 
   8:..\common\vms/VMSWrapper.c **** #include "SignalGenerator.h"
   9:..\common\vms/VMSWrapper.c **** #include "VMS.h"
  10:..\common\vms/VMSWrapper.c **** #include "FreeRTOS.h"
  11:..\common\vms/VMSWrapper.c **** #include "task.h"
  12:..\common\vms/VMSWrapper.c **** #include "VMSWrapper.h"
  13:..\common\vms/VMSWrapper.c **** #include "MidiProcessor.h"
  14:..\common\vms/VMSWrapper.c **** #include "VMSDefaults.h"
  15:..\common\vms/VMSWrapper.c **** #include "NoteMapper.h"
  16:..\common\vms/VMSWrapper.c **** #include "interrupter.h"
  17:..\common\vms/VMSWrapper.c **** #include "cli_common.h"
  18:..\common\vms/VMSWrapper.c **** #include "helper/nvm.h"
  19:..\common\vms/VMSWrapper.c **** #include "TTerm.h"
  20:..\common\vms/VMSWrapper.c **** #include "tasks/tsk_cli.h"
  21:..\common\vms/VMSWrapper.c **** 
  22:..\common\vms/VMSWrapper.c **** static VMS_VoiceData_t ** voiceData;
  23:..\common\vms/VMSWrapper.c **** 
  24:..\common\vms/VMSWrapper.c **** static uint32_t VMSW_getNextVoice(uint32_t note, uint32_t output, uint32_t channel);
  25:..\common\vms/VMSWrapper.c **** static void VMSW_task(void * params);
  26:..\common\vms/VMSWrapper.c **** 
  27:..\common\vms/VMSWrapper.c **** //static uint32_t blockMemSize = VMS_DEFAULT_BLOCKMEM_SIZE;
  28:..\common\vms/VMSWrapper.c **** static uint32_t blockMemBlockCount = VMS_DEFAULT_BLOCKMEM_SIZE/sizeof(VMS_Block_t);
  29:..\common\vms/VMSWrapper.c **** 
  30:..\common\vms/VMSWrapper.c **** uint32_t VMSW_getBlockMemSizeInBlocks(){
  31:..\common\vms/VMSWrapper.c ****     return blockMemBlockCount;
ARM GAS  C:\Users\chemi\AppData\Local\Temp\ccr4fFHe.s 			page 2


  32:..\common\vms/VMSWrapper.c **** }
  33:..\common\vms/VMSWrapper.c **** 
  34:..\common\vms/VMSWrapper.c **** VMS_VoiceData_t * VMSW_getVoiceData(){
  35:..\common\vms/VMSWrapper.c ****     return voiceData[0];
  36:..\common\vms/VMSWrapper.c **** }
  37:..\common\vms/VMSWrapper.c **** 
  38:..\common\vms/VMSWrapper.c **** void VMSW_init(){
  39:..\common\vms/VMSWrapper.c ****     //add vms memory to conman
  40:..\common\vms/VMSWrapper.c ****     
  41:..\common\vms/VMSWrapper.c ****     voiceData = pvPortMalloc(sizeof(VMS_VoiceData_t *) * SIGGEN_OUTPUTCOUNT);
  42:..\common\vms/VMSWrapper.c ****     for(uint32_t i = 0; i < SIGGEN_OUTPUTCOUNT; i++){
  43:..\common\vms/VMSWrapper.c ****         voiceData[i] = pvPortMalloc(sizeof(VMS_VoiceData_t) * SIGGEN_VOICECOUNT);
  44:..\common\vms/VMSWrapper.c ****         
  45:..\common\vms/VMSWrapper.c ****         //clear memory
  46:..\common\vms/VMSWrapper.c ****         memset(voiceData[i], 0, sizeof(VMS_VoiceData_t) * SIGGEN_VOICECOUNT);
  47:..\common\vms/VMSWrapper.c ****     }
  48:..\common\vms/VMSWrapper.c ****     
  49:..\common\vms/VMSWrapper.c ****     VMS_init();
  50:..\common\vms/VMSWrapper.c ****     
  51:..\common\vms/VMSWrapper.c ****     xTaskCreate(VMSW_task, "VMS Task", configMINIMAL_STACK_SIZE+256, NULL, tskIDLE_PRIORITY + 3, NU
  52:..\common\vms/VMSWrapper.c **** }
  53:..\common\vms/VMSWrapper.c **** 
  54:..\common\vms/VMSWrapper.c **** static void VMSW_task(void * params){
  27              		.loc 1 54 0
  28              		.cfi_startproc
  29              		@ Volatile: function does not return.
  30              		@ args = 0, pretend = 0, frame = 0
  31              		@ frame_needed = 0, uses_anonymous_args = 0
  32              	.LVL0:
  33 0000 08B5     		push	{r3, lr}
  34              		.cfi_def_cfa_offset 8
  35              		.cfi_offset 3, -8
  36              		.cfi_offset 14, -4
  55:..\common\vms/VMSWrapper.c ****     while(1){
  56:..\common\vms/VMSWrapper.c ****         //run VMS service
  57:..\common\vms/VMSWrapper.c ****         
  58:..\common\vms/VMSWrapper.c ****         //does the synth mode require vms?
  59:..\common\vms/VMSWrapper.c ****         if(param.synth == SYNTH_MIDI){
  37              		.loc 1 59 0
  38 0002 074C     		ldr	r4, .L6
  39              	.LVL1:
  40              	.L4:
  41 0004 94F82030 		ldrb	r3, [r4, #32]	@ zero_extendqisi2
  42 0008 012B     		cmp	r3, #1
  43 000a 02D1     		bne	.L2
  60:..\common\vms/VMSWrapper.c ****             //yes => run it
  61:..\common\vms/VMSWrapper.c ****             VMS_run();
  44              		.loc 1 61 0
  45 000c FFF7FEFF 		bl	VMS_run
  46              	.LVL2:
  47 0010 02E0     		b	.L3
  48              	.L2:
  62:..\common\vms/VMSWrapper.c ****         }else{
  63:..\common\vms/VMSWrapper.c ****             //no => save some cpu cycles
  64:..\common\vms/VMSWrapper.c ****             vTaskDelay(pdMS_TO_TICKS(100));
  49              		.loc 1 64 0
  50 0012 6420     		movs	r0, #100
ARM GAS  C:\Users\chemi\AppData\Local\Temp\ccr4fFHe.s 			page 3


  51 0014 FFF7FEFF 		bl	vTaskDelay
  52              	.LVL3:
  53              	.L3:
  65:..\common\vms/VMSWrapper.c ****         }
  66:..\common\vms/VMSWrapper.c ****         vTaskDelay(1);
  54              		.loc 1 66 0
  55 0018 0120     		movs	r0, #1
  56 001a FFF7FEFF 		bl	vTaskDelay
  57              	.LVL4:
  67:..\common\vms/VMSWrapper.c ****     }
  58              		.loc 1 67 0
  59 001e F1E7     		b	.L4
  60              	.L7:
  61              		.align	2
  62              	.L6:
  63 0020 00000000 		.word	param
  64              		.cfi_endproc
  65              	.LFE71:
  66              		.size	VMSW_task, .-VMSW_task
  67              		.section	.text.VMSW_getBlockMemSizeInBlocks,"ax",%progbits
  68              		.align	1
  69              		.global	VMSW_getBlockMemSizeInBlocks
  70              		.thumb
  71              		.thumb_func
  72              		.type	VMSW_getBlockMemSizeInBlocks, %function
  73              	VMSW_getBlockMemSizeInBlocks:
  74              	.LFB68:
  30:..\common\vms/VMSWrapper.c ****     return blockMemBlockCount;
  75              		.loc 1 30 0
  76              		.cfi_startproc
  77              		@ args = 0, pretend = 0, frame = 0
  78              		@ frame_needed = 0, uses_anonymous_args = 0
  79              		@ link register save eliminated.
  32:..\common\vms/VMSWrapper.c **** 
  80              		.loc 1 32 0
  81 0000 40F2B910 		movw	r0, #441
  82 0004 7047     		bx	lr
  83              		.cfi_endproc
  84              	.LFE68:
  85              		.size	VMSW_getBlockMemSizeInBlocks, .-VMSW_getBlockMemSizeInBlocks
  86              		.section	.text.VMSW_getVoiceData,"ax",%progbits
  87              		.align	1
  88              		.global	VMSW_getVoiceData
  89              		.thumb
  90              		.thumb_func
  91              		.type	VMSW_getVoiceData, %function
  92              	VMSW_getVoiceData:
  93              	.LFB69:
  34:..\common\vms/VMSWrapper.c ****     return voiceData[0];
  94              		.loc 1 34 0
  95              		.cfi_startproc
  96              		@ args = 0, pretend = 0, frame = 0
  97              		@ frame_needed = 0, uses_anonymous_args = 0
  98              		@ link register save eliminated.
  35:..\common\vms/VMSWrapper.c **** }
  99              		.loc 1 35 0
 100 0000 014B     		ldr	r3, .L10
ARM GAS  C:\Users\chemi\AppData\Local\Temp\ccr4fFHe.s 			page 4


 101 0002 1B68     		ldr	r3, [r3]
  36:..\common\vms/VMSWrapper.c **** 
 102              		.loc 1 36 0
 103 0004 1868     		ldr	r0, [r3]
 104 0006 7047     		bx	lr
 105              	.L11:
 106              		.align	2
 107              	.L10:
 108 0008 00000000 		.word	.LANCHOR0
 109              		.cfi_endproc
 110              	.LFE69:
 111              		.size	VMSW_getVoiceData, .-VMSW_getVoiceData
 112              		.section	.text.VMSW_init,"ax",%progbits
 113              		.align	1
 114              		.global	VMSW_init
 115              		.thumb
 116              		.thumb_func
 117              		.type	VMSW_init, %function
 118              	VMSW_init:
 119              	.LFB70:
  38:..\common\vms/VMSWrapper.c ****     //add vms memory to conman
 120              		.loc 1 38 0
 121              		.cfi_startproc
 122              		@ args = 0, pretend = 0, frame = 0
 123              		@ frame_needed = 0, uses_anonymous_args = 0
 124 0000 37B5     		push	{r0, r1, r2, r4, r5, lr}
 125              		.cfi_def_cfa_offset 24
 126              		.cfi_offset 4, -12
 127              		.cfi_offset 5, -8
 128              		.cfi_offset 14, -4
  41:..\common\vms/VMSWrapper.c ****     for(uint32_t i = 0; i < SIGGEN_OUTPUTCOUNT; i++){
 129              		.loc 1 41 0
 130 0002 0420     		movs	r0, #4
 131 0004 FFF7FEFF 		bl	pvPortMalloc
 132              	.LVL5:
 133 0008 0E4C     		ldr	r4, .L13
 134 000a 0546     		mov	r5, r0
 135 000c 2060     		str	r0, [r4]
 136              	.LVL6:
 137              	.LBB5:
  43:..\common\vms/VMSWrapper.c ****         
 138              		.loc 1 43 0
 139 000e 4FF43A70 		mov	r0, #744
 140 0012 FFF7FEFF 		bl	pvPortMalloc
 141              	.LVL7:
  46:..\common\vms/VMSWrapper.c ****     }
 142              		.loc 1 46 0
 143 0016 2368     		ldr	r3, [r4]
  43:..\common\vms/VMSWrapper.c ****         
 144              		.loc 1 43 0
 145 0018 2860     		str	r0, [r5]
  46:..\common\vms/VMSWrapper.c ****     }
 146              		.loc 1 46 0
 147 001a 4FF43A72 		mov	r2, #744
 148 001e 0021     		movs	r1, #0
 149 0020 1868     		ldr	r0, [r3]
 150 0022 FFF7FEFF 		bl	memset
ARM GAS  C:\Users\chemi\AppData\Local\Temp\ccr4fFHe.s 			page 5


 151              	.LVL8:
 152              	.LBE5:
  49:..\common\vms/VMSWrapper.c ****     
 153              		.loc 1 49 0
 154 0026 FFF7FEFF 		bl	VMS_init
 155              	.LVL9:
  51:..\common\vms/VMSWrapper.c **** }
 156              		.loc 1 51 0
 157 002a 0023     		movs	r3, #0
 158 002c 0322     		movs	r2, #3
 159 002e 8DE80C00 		stmia	sp, {r2, r3}
 160 0032 0549     		ldr	r1, .L13+4
 161 0034 4FF4B272 		mov	r2, #356
 162 0038 0448     		ldr	r0, .L13+8
 163 003a FFF7FEFF 		bl	xTaskCreate
 164              	.LVL10:
  52:..\common\vms/VMSWrapper.c **** 
 165              		.loc 1 52 0
 166 003e 03B0     		add	sp, sp, #12
 167              		.cfi_def_cfa_offset 12
 168              		@ sp needed
 169 0040 30BD     		pop	{r4, r5, pc}
 170              	.L14:
 171 0042 00BF     		.align	2
 172              	.L13:
 173 0044 00000000 		.word	.LANCHOR0
 174 0048 00000000 		.word	.LC0
 175 004c 00000000 		.word	VMSW_task
 176              		.cfi_endproc
 177              	.LFE70:
 178              		.size	VMSW_init, .-VMSW_init
 179              		.section	.text.VMSW_stopNote,"ax",%progbits
 180              		.align	1
 181              		.global	VMSW_stopNote
 182              		.thumb
 183              		.thumb_func
 184              		.type	VMSW_stopNote, %function
 185              	VMSW_stopNote:
 186              	.LFB72:
  68:..\common\vms/VMSWrapper.c **** }
  69:..\common\vms/VMSWrapper.c **** 
  70:..\common\vms/VMSWrapper.c **** void VMSW_stopNote(uint32_t output, uint32_t note, uint32_t channel){
 187              		.loc 1 70 0
 188              		.cfi_startproc
 189              		@ args = 0, pretend = 0, frame = 0
 190              		@ frame_needed = 0, uses_anonymous_args = 0
 191              	.LVL11:
 192 0000 70B5     		push	{r4, r5, r6, lr}
 193              		.cfi_def_cfa_offset 16
 194              		.cfi_offset 4, -16
 195              		.cfi_offset 5, -12
 196              		.cfi_offset 6, -8
 197              		.cfi_offset 14, -4
 198              		.loc 1 70 0
 199 0002 0D46     		mov	r5, r1
 200 0004 1646     		mov	r6, r2
  71:..\common\vms/VMSWrapper.c ****     if(output >= SIGGEN_OUTPUTCOUNT) return;
ARM GAS  C:\Users\chemi\AppData\Local\Temp\ccr4fFHe.s 			page 6


 201              		.loc 1 71 0
 202 0006 0446     		mov	r4, r0
 203 0008 D0B9     		cbnz	r0, .L15
  72:..\common\vms/VMSWrapper.c ****     
  73:..\common\vms/VMSWrapper.c ****     VMS_getSemaphore();
 204              		.loc 1 73 0
 205 000a FFF7FEFF 		bl	VMS_getSemaphore
 206              	.LVL12:
 207              	.LBB6:
  74:..\common\vms/VMSWrapper.c ****     //find which voice is playing the note (if one is even doing that...)
  75:..\common\vms/VMSWrapper.c ****     for(uint32_t currVoice = 0; currVoice < SIGGEN_VOICECOUNT; currVoice++){
  76:..\common\vms/VMSWrapper.c ****         //does the channel and the note match? If so => clear the note on bit, VMS should to the re
  77:..\common\vms/VMSWrapper.c ****         if(voiceData[output][currVoice].on && voiceData[output][currVoice].sourceChannel == channel
 208              		.loc 1 77 0
 209 000e 0D4B     		ldr	r3, .L23
 210 0010 1B68     		ldr	r3, [r3]
 211 0012 1B68     		ldr	r3, [r3]
 212 0014 03F53A70 		add	r0, r3, #744
 213              	.LVL13:
 214              	.L18:
 215 0018 DA6C     		ldr	r2, [r3, #76]
 216 001a 52B1     		cbz	r2, .L17
 217              		.loc 1 77 0 is_stmt 0 discriminator 1
 218 001c 93F86020 		ldrb	r2, [r3, #96]	@ zero_extendqisi2
 219 0020 B242     		cmp	r2, r6
 220 0022 06D1     		bne	.L17
 221              		.loc 1 77 0 discriminator 2
 222 0024 93F86120 		ldrb	r2, [r3, #97]	@ zero_extendqisi2
 223 0028 AA42     		cmp	r2, r5
  78:..\common\vms/VMSWrapper.c ****             voiceData[output][currVoice].on = 0;
  79:..\common\vms/VMSWrapper.c ****             
  80:..\common\vms/VMSWrapper.c ****             //TODO could this mess up portamento?
  81:..\common\vms/VMSWrapper.c ****             voiceData[output][currVoice].freqLast = voiceData[output][currVoice].freqCurrent;
 224              		.loc 1 81 0 is_stmt 1 discriminator 2
 225 002a 02BF     		ittt	eq
 226 002c 5A68     		ldreq	r2, [r3, #4]
  78:..\common\vms/VMSWrapper.c ****             voiceData[output][currVoice].on = 0;
 227              		.loc 1 78 0 discriminator 2
 228 002e DC64     		streq	r4, [r3, #76]
 229              		.loc 1 81 0 discriminator 2
 230 0030 DA60     		streq	r2, [r3, #12]
 231              	.L17:
 232 0032 7C33     		adds	r3, r3, #124
  75:..\common\vms/VMSWrapper.c ****         //does the channel and the note match? If so => clear the note on bit, VMS should to the re
 233              		.loc 1 75 0 discriminator 2
 234 0034 8342     		cmp	r3, r0
 235 0036 EFD1     		bne	.L18
 236              	.LBE6:
  82:..\common\vms/VMSWrapper.c ****         }
  83:..\common\vms/VMSWrapper.c ****     }
  84:..\common\vms/VMSWrapper.c ****     VMS_returnSemaphore();
  85:..\common\vms/VMSWrapper.c **** }
 237              		.loc 1 85 0
 238 0038 BDE87040 		pop	{r4, r5, r6, lr}
 239              		.cfi_remember_state
 240              		.cfi_restore 14
 241              		.cfi_restore 6
ARM GAS  C:\Users\chemi\AppData\Local\Temp\ccr4fFHe.s 			page 7


 242              		.cfi_restore 5
 243              		.cfi_restore 4
 244              		.cfi_def_cfa_offset 0
 245              	.LVL14:
  84:..\common\vms/VMSWrapper.c **** }
 246              		.loc 1 84 0
 247 003c FFF7FEBF 		b	VMS_returnSemaphore
 248              	.LVL15:
 249              	.L15:
 250              		.cfi_restore_state
 251 0040 70BD     		pop	{r4, r5, r6, pc}
 252              	.L24:
 253 0042 00BF     		.align	2
 254              	.L23:
 255 0044 00000000 		.word	.LANCHOR0
 256              		.cfi_endproc
 257              	.LFE72:
 258              		.size	VMSW_stopNote, .-VMSW_stopNote
 259              		.section	.text.VMSW_getSrcChannel,"ax",%progbits
 260              		.align	1
 261              		.global	VMSW_getSrcChannel
 262              		.thumb
 263              		.thumb_func
 264              		.type	VMSW_getSrcChannel, %function
 265              	VMSW_getSrcChannel:
 266              	.LFB74:
  86:..\common\vms/VMSWrapper.c **** 
  87:..\common\vms/VMSWrapper.c **** void VMSW_startNote(uint32_t output, uint32_t startBlockID, uint32_t sourceNote, uint32_t sourceCha
  88:..\common\vms/VMSWrapper.c ****     //would the note even be on after this? If not just go back without doing anything
  89:..\common\vms/VMSWrapper.c ****     if(targetFrequency == 0 || targetVolume == 0) return;
  90:..\common\vms/VMSWrapper.c ****     
  91:..\common\vms/VMSWrapper.c ****     //we also need to make sure the target frequency is not too high. VMS can only scale frequencie
  92:..\common\vms/VMSWrapper.c ****     if(targetFrequency > 100000) return;
  93:..\common\vms/VMSWrapper.c ****     
  94:..\common\vms/VMSWrapper.c ****     //TODO remove this hack once portamento works...
  95:..\common\vms/VMSWrapper.c ****     flags &= ~MAP_ENA_PORTAMENTO;
  96:..\common\vms/VMSWrapper.c ****     
  97:..\common\vms/VMSWrapper.c ****     //find voice to play the sound
  98:..\common\vms/VMSWrapper.c ****     uint32_t targetVoice = VMSW_getNextVoice(sourceNote, output, sourceChannel);
  99:..\common\vms/VMSWrapper.c ****     
 100:..\common\vms/VMSWrapper.c ****     VMS_VoiceData_t * vData = &(voiceData[output][targetVoice]);
 101:..\common\vms/VMSWrapper.c ****     
 102:..\common\vms/VMSWrapper.c ****     //yes, first remove all VMS blocks, then disable the siggen output
 103:..\common\vms/VMSWrapper.c ****     VMS_getSemaphore();
 104:..\common\vms/VMSWrapper.c ****     VMS_removeBlocksWithTargetVoice(targetVoice);
 105:..\common\vms/VMSWrapper.c ****     SigGen_setVoiceVMS(targetVoice, 0, 0, 0, 0, 0, 0, 0);
 106:..\common\vms/VMSWrapper.c ****     VMS_returnSemaphore();
 107:..\common\vms/VMSWrapper.c ****     
 108:..\common\vms/VMSWrapper.c ****     //reset voice data
 109:..\common\vms/VMSWrapper.c ****     uint32_t freqLast = vData->freqLast;
 110:..\common\vms/VMSWrapper.c ****     memset(&voiceData[output][targetVoice], 0, sizeof(VMS_VoiceData_t));
 111:..\common\vms/VMSWrapper.c ****     
 112:..\common\vms/VMSWrapper.c ****     //this is already a factor, no factor value needed. Current value <=> currentFactor
 113:..\common\vms/VMSWrapper.c ****     vData->freqLast = freqLast;
 114:..\common\vms/VMSWrapper.c ****     vData->portamentoTarget = 0;
 115:..\common\vms/VMSWrapper.c ****     vData->portamentoCurrent = (flags & MAP_ENA_PORTAMENTO) ? VMS_UNITY_FACTOR : 0;
 116:..\common\vms/VMSWrapper.c ****     
ARM GAS  C:\Users\chemi\AppData\Local\Temp\ccr4fFHe.s 			page 8


 117:..\common\vms/VMSWrapper.c ****     vData->freqTarget = targetFrequency;
 118:..\common\vms/VMSWrapper.c ****     
 119:..\common\vms/VMSWrapper.c ****     //apply frequency effects
 120:..\common\vms/VMSWrapper.c ****     uint32_t newFrequency = targetFrequency;
 121:..\common\vms/VMSWrapper.c ****     
 122:..\common\vms/VMSWrapper.c ****     //pitchbend
 123:..\common\vms/VMSWrapper.c ****     if(flags & MAP_ENA_PITCHBEND) newFrequency = MIDIPROC_SCALE_PITCHBEND(newFrequency, vData->sour
 124:..\common\vms/VMSWrapper.c ****     
 125:..\common\vms/VMSWrapper.c ****     //portamento, check if we need to apply it first though
 126:..\common\vms/VMSWrapper.c ****     if(flags & MAP_ENA_PORTAMENTO){ 
 127:..\common\vms/VMSWrapper.c ****         int32_t difference = (int32_t) freqLast - (int32_t) vData->freqTarget;
 128:..\common\vms/VMSWrapper.c ****         difference = (difference * (vData->portamentoCurrent>>6)) / 15625; 
 129:..\common\vms/VMSWrapper.c ****         newFrequency += difference;
 130:..\common\vms/VMSWrapper.c ****     }
 131:..\common\vms/VMSWrapper.c ****     
 132:..\common\vms/VMSWrapper.c ****     //and finally apply that frequency
 133:..\common\vms/VMSWrapper.c ****     vData->freqCurrent = newFrequency;
 134:..\common\vms/VMSWrapper.c ****     vData->freqFactor = 1000000;
 135:..\common\vms/VMSWrapper.c ****     
 136:..\common\vms/VMSWrapper.c ****     vData->volumeTarget = targetVolume;
 137:..\common\vms/VMSWrapper.c ****     
 138:..\common\vms/VMSWrapper.c ****     //TODO should we perhaps start this off at 0?
 139:..\common\vms/VMSWrapper.c ****     vData->onTimeTarget = targetOnTime;
 140:..\common\vms/VMSWrapper.c ****     vData->onTimeCurrent = targetOnTime;
 141:..\common\vms/VMSWrapper.c ****     vData->onTimeFactor = 1000000;
 142:..\common\vms/VMSWrapper.c ****     
 143:..\common\vms/VMSWrapper.c ****     vData->noiseTarget = 35000; //TODO make this better? idk a fixed value here might be bad especi
 144:..\common\vms/VMSWrapper.c ****     
 145:..\common\vms/VMSWrapper.c ****     vData->startTime = xTaskGetTickCount();
 146:..\common\vms/VMSWrapper.c ****     vData->sourceChannel = sourceChannel;
 147:..\common\vms/VMSWrapper.c ****     vData->sourceNote = sourceNote;
 148:..\common\vms/VMSWrapper.c ****     
 149:..\common\vms/VMSWrapper.c ****     vData->hypervoiceVolumeFactor = VMS_UNITY_FACTOR;
 150:..\common\vms/VMSWrapper.c ****     
 151:..\common\vms/VMSWrapper.c ****     //get the current volume from the factor. We need to scale this to prevent overflow :/
 152:..\common\vms/VMSWrapper.c ****     if(vData->volumeTarget == MAX_VOL){
 153:..\common\vms/VMSWrapper.c ****         //volume is max, no need to scale the volume, just write a scaled down version of the facto
 154:..\common\vms/VMSWrapper.c ****         vData->hypervoiceVolumeCurrent = vData->hypervoiceVolumeFactor >> 4; //LOSSY the axual divi
 155:..\common\vms/VMSWrapper.c ****     }else{
 156:..\common\vms/VMSWrapper.c ****         vData->hypervoiceVolumeCurrent = (((uint32_t)vData->hypervoiceVolumeFactor>>4) *  vData->vo
 157:..\common\vms/VMSWrapper.c ****     }
 158:..\common\vms/VMSWrapper.c ****     
 159:..\common\vms/VMSWrapper.c ****     vData->hypervoiceCount = 0;
 160:..\common\vms/VMSWrapper.c ****     vData->hypervoicePhase = 0;
 161:..\common\vms/VMSWrapper.c ****     
 162:..\common\vms/VMSWrapper.c ****     vData->voiceIndex = targetVoice;
 163:..\common\vms/VMSWrapper.c ****     
 164:..\common\vms/VMSWrapper.c ****     vData->flags = flags;
 165:..\common\vms/VMSWrapper.c ****     vData->baseVelocity = baseVelocity;
 166:..\common\vms/VMSWrapper.c ****     vData->baseVolume = baseVolume;
 167:..\common\vms/VMSWrapper.c ****     
 168:..\common\vms/VMSWrapper.c ****     vData->on = 1;
 169:..\common\vms/VMSWrapper.c ****     
 170:..\common\vms/VMSWrapper.c ****     VMS_getSemaphore();
 171:..\common\vms/VMSWrapper.c ****     
 172:..\common\vms/VMSWrapper.c ****     SigGen_setVoiceVMS(targetVoice, 0, 0, 0, 0, 0, 0, 0);
 173:..\common\vms/VMSWrapper.c ****     SigGen_setHyperVoiceVMS(targetVoice, 0, 0, 0, 0);
ARM GAS  C:\Users\chemi\AppData\Local\Temp\ccr4fFHe.s 			page 9


 174:..\common\vms/VMSWrapper.c ****     
 175:..\common\vms/VMSWrapper.c ****     VMS_addBlockToList(VMSW_getBlockPtr(startBlockID), output, targetVoice);
 176:..\common\vms/VMSWrapper.c ****     VMS_returnSemaphore();
 177:..\common\vms/VMSWrapper.c **** }
 178:..\common\vms/VMSWrapper.c **** 
 179:..\common\vms/VMSWrapper.c **** inline uint32_t VMSW_getSrcChannel(uint32_t output, uint32_t voice){
 267              		.loc 1 179 0
 268              		.cfi_startproc
 269              		@ args = 0, pretend = 0, frame = 0
 270              		@ frame_needed = 0, uses_anonymous_args = 0
 271              		@ link register save eliminated.
 272              	.LVL16:
 180:..\common\vms/VMSWrapper.c ****     return voiceData[output][voice].sourceChannel;
 273              		.loc 1 180 0
 274 0000 044B     		ldr	r3, .L26
 275 0002 1B68     		ldr	r3, [r3]
 276 0004 53F82020 		ldr	r2, [r3, r0, lsl #2]
 277 0008 7C23     		movs	r3, #124
 278 000a 03FB0121 		mla	r1, r3, r1, r2
 279              	.LVL17:
 181:..\common\vms/VMSWrapper.c **** }
 280              		.loc 1 181 0
 281 000e 91F86000 		ldrb	r0, [r1, #96]	@ zero_extendqisi2
 282              	.LVL18:
 283 0012 7047     		bx	lr
 284              	.L27:
 285              		.align	2
 286              	.L26:
 287 0014 00000000 		.word	.LANCHOR0
 288              		.cfi_endproc
 289              	.LFE74:
 290              		.size	VMSW_getSrcChannel, .-VMSW_getSrcChannel
 291              		.section	.text.VMSW_isVoiceOn,"ax",%progbits
 292              		.align	1
 293              		.global	VMSW_isVoiceOn
 294              		.thumb
 295              		.thumb_func
 296              		.type	VMSW_isVoiceOn, %function
 297              	VMSW_isVoiceOn:
 298              	.LFB75:
 182:..\common\vms/VMSWrapper.c **** 
 183:..\common\vms/VMSWrapper.c **** inline uint32_t VMSW_isVoiceOn(uint32_t output, uint32_t voice){
 299              		.loc 1 183 0
 300              		.cfi_startproc
 301              		@ args = 0, pretend = 0, frame = 0
 302              		@ frame_needed = 0, uses_anonymous_args = 0
 303              		@ link register save eliminated.
 304              	.LVL19:
 184:..\common\vms/VMSWrapper.c ****     return voiceData[output][voice].on;
 305              		.loc 1 184 0
 306 0000 044B     		ldr	r3, .L29
 307 0002 1B68     		ldr	r3, [r3]
 308 0004 53F82020 		ldr	r2, [r3, r0, lsl #2]
 309 0008 7C23     		movs	r3, #124
 310 000a 03FB0121 		mla	r1, r3, r1, r2
 311              	.LVL20:
 185:..\common\vms/VMSWrapper.c **** }
ARM GAS  C:\Users\chemi\AppData\Local\Temp\ccr4fFHe.s 			page 10


 312              		.loc 1 185 0
 313 000e C86C     		ldr	r0, [r1, #76]
 314              	.LVL21:
 315 0010 7047     		bx	lr
 316              	.L30:
 317 0012 00BF     		.align	2
 318              	.L29:
 319 0014 00000000 		.word	.LANCHOR0
 320              		.cfi_endproc
 321              	.LFE75:
 322              		.size	VMSW_isVoiceOn, .-VMSW_isVoiceOn
 323              		.section	.text.VMSW_isVoiceActive,"ax",%progbits
 324              		.align	1
 325              		.global	VMSW_isVoiceActive
 326              		.thumb
 327              		.thumb_func
 328              		.type	VMSW_isVoiceActive, %function
 329              	VMSW_isVoiceActive:
 330              	.LFB76:
 186:..\common\vms/VMSWrapper.c **** 
 187:..\common\vms/VMSWrapper.c **** inline uint32_t VMSW_isVoiceActive(uint32_t output, uint32_t voice){
 331              		.loc 1 187 0
 332              		.cfi_startproc
 333              		@ args = 0, pretend = 0, frame = 0
 334              		@ frame_needed = 0, uses_anonymous_args = 0
 335              		@ link register save eliminated.
 336              	.LVL22:
 188:..\common\vms/VMSWrapper.c ****     return voiceData[output][voice].volumeCurrent > 0 || voiceData[output][voice].on;
 337              		.loc 1 188 0
 338 0000 074B     		ldr	r3, .L34
 339 0002 1B68     		ldr	r3, [r3]
 340 0004 53F82020 		ldr	r2, [r3, r0, lsl #2]
 341 0008 7C23     		movs	r3, #124
 342 000a 03FB0121 		mla	r1, r3, r1, r2
 343              	.LVL23:
 344 000e 0B6A     		ldr	r3, [r1, #32]
 345 0010 23B9     		cbnz	r3, .L33
 346              		.loc 1 188 0 is_stmt 0 discriminator 2
 347 0012 C86C     		ldr	r0, [r1, #76]
 348              	.LVL24:
 349 0014 0030     		adds	r0, r0, #0
 350 0016 18BF     		it	ne
 351 0018 0120     		movne	r0, #1
 352 001a 7047     		bx	lr
 353              	.LVL25:
 354              	.L33:
 355              		.loc 1 188 0
 356 001c 0120     		movs	r0, #1
 357              	.LVL26:
 189:..\common\vms/VMSWrapper.c **** }
 358              		.loc 1 189 0 is_stmt 1
 359 001e 7047     		bx	lr
 360              	.L35:
 361              		.align	2
 362              	.L34:
 363 0020 00000000 		.word	.LANCHOR0
 364              		.cfi_endproc
ARM GAS  C:\Users\chemi\AppData\Local\Temp\ccr4fFHe.s 			page 11


 365              	.LFE76:
 366              		.size	VMSW_isVoiceActive, .-VMSW_isVoiceActive
 367              		.section	.text.VMSW_isAnyVoiceOn,"ax",%progbits
 368              		.align	1
 369              		.global	VMSW_isAnyVoiceOn
 370              		.thumb
 371              		.thumb_func
 372              		.type	VMSW_isAnyVoiceOn, %function
 373              	VMSW_isAnyVoiceOn:
 374              	.LFB77:
 190:..\common\vms/VMSWrapper.c **** 
 191:..\common\vms/VMSWrapper.c **** uint32_t VMSW_isAnyVoiceOn(){
 375              		.loc 1 191 0
 376              		.cfi_startproc
 377              		@ args = 0, pretend = 0, frame = 0
 378              		@ frame_needed = 0, uses_anonymous_args = 0
 379              		@ link register save eliminated.
 380              	.LVL27:
 381              	.LBB7:
 382              	.LBB8:
 192:..\common\vms/VMSWrapper.c ****     for(uint32_t j = 0; j < SIGGEN_OUTPUTCOUNT; j++){
 193:..\common\vms/VMSWrapper.c ****         for(uint32_t i = 0; i < SIGGEN_VOICECOUNT; i++){
 194:..\common\vms/VMSWrapper.c ****             if(voiceData[j][i].on > 0) return 1;
 383              		.loc 1 194 0
 384 0000 064B     		ldr	r3, .L41
 385 0002 1B68     		ldr	r3, [r3]
 386 0004 1B68     		ldr	r3, [r3]
 387 0006 03F53A72 		add	r2, r3, #744
 388              	.L38:
 389 000a D86C     		ldr	r0, [r3, #76]
 390 000c 18B9     		cbnz	r0, .L39
 391              	.LVL28:
 392 000e 7C33     		adds	r3, r3, #124
 193:..\common\vms/VMSWrapper.c ****             if(voiceData[j][i].on > 0) return 1;
 393              		.loc 1 193 0 discriminator 2
 394 0010 9342     		cmp	r3, r2
 395 0012 FAD1     		bne	.L38
 396 0014 7047     		bx	lr
 397              	.L39:
 398              		.loc 1 194 0
 399 0016 0120     		movs	r0, #1
 400              	.LBE8:
 401              	.LBE7:
 195:..\common\vms/VMSWrapper.c ****         }
 196:..\common\vms/VMSWrapper.c ****     }
 197:..\common\vms/VMSWrapper.c ****     return 0;
 198:..\common\vms/VMSWrapper.c **** }
 402              		.loc 1 198 0
 403 0018 7047     		bx	lr
 404              	.L42:
 405 001a 00BF     		.align	2
 406              	.L41:
 407 001c 00000000 		.word	.LANCHOR0
 408              		.cfi_endproc
 409              	.LFE77:
 410              		.size	VMSW_isAnyVoiceOn, .-VMSW_isAnyVoiceOn
 411              		.section	.text.VMSW_getBlockPtr,"ax",%progbits
ARM GAS  C:\Users\chemi\AppData\Local\Temp\ccr4fFHe.s 			page 12


 412              		.align	1
 413              		.global	VMSW_getBlockPtr
 414              		.thumb
 415              		.thumb_func
 416              		.type	VMSW_getBlockPtr, %function
 417              	VMSW_getBlockPtr:
 418              	.LFB78:
 199:..\common\vms/VMSWrapper.c **** 
 200:..\common\vms/VMSWrapper.c **** inline const VMS_Block_t * VMSW_getBlockPtr(uint32_t index){
 419              		.loc 1 200 0
 420              		.cfi_startproc
 421              		@ args = 0, pretend = 0, frame = 0
 422              		@ frame_needed = 0, uses_anonymous_args = 0
 423              	.LVL29:
 424 0000 38B5     		push	{r3, r4, r5, lr}
 425              		.cfi_def_cfa_offset 16
 426              		.cfi_offset 3, -16
 427              		.cfi_offset 4, -12
 428              		.cfi_offset 5, -8
 429              		.cfi_offset 14, -4
 201:..\common\vms/VMSWrapper.c ****     if(index == VMS_BLOCKID_DEFATTACK) return &VMS_DEFAULT_ATTAC;
 430              		.loc 1 201 0
 431 0002 4FF6F073 		movw	r3, #65520
 432 0006 9842     		cmp	r0, r3
 433 0008 19D0     		beq	.L47
 202:..\common\vms/VMSWrapper.c ****     if(index == VMS_BLOCKID_DEFSUSTAIN) return &VMS_DEFAULT_SUSTAIN;
 434              		.loc 1 202 0
 435 000a 4FF6F173 		movw	r3, #65521
 436 000e 9842     		cmp	r0, r3
 437 0010 17D0     		beq	.L48
 203:..\common\vms/VMSWrapper.c ****     if(index == VMS_BLOCKID_DEFRELEASE) return &VMS_DEFAULT_RELEASE;
 438              		.loc 1 203 0
 439 0012 4FF6F273 		movw	r3, #65522
 440 0016 9842     		cmp	r0, r3
 441 0018 15D0     		beq	.L49
 204:..\common\vms/VMSWrapper.c ****     
 205:..\common\vms/VMSWrapper.c ****     if(index >= blockMemBlockCount) return NULL;
 442              		.loc 1 205 0
 443 001a B0F5DC7F 		cmp	r0, #440
 444 001e 01D9     		bls	.L45
 445              	.LVL30:
 446              	.L46:
 447 0020 0020     		movs	r0, #0
 448 0022 38BD     		pop	{r3, r4, r5, pc}
 449              	.LVL31:
 450              	.L45:
 451              	.LBB11:
 452              	.LBB12:
 206:..\common\vms/VMSWrapper.c ****     
 207:..\common\vms/VMSWrapper.c ****     if(!VMS_isBlockValid(&NVM_blocks[index])) return NULL;
 453              		.loc 1 207 0
 454 0024 2623     		movs	r3, #38
 455 0026 03FB00F4 		mul	r4, r3, r0
 456 002a 084D     		ldr	r5, .L53
 457 002c 2868     		ldr	r0, [r5]
 458              	.LVL32:
 459 002e 2044     		add	r0, r0, r4
ARM GAS  C:\Users\chemi\AppData\Local\Temp\ccr4fFHe.s 			page 13


 460 0030 FFF7FEFF 		bl	VMS_isBlockValid
 461              	.LVL33:
 462 0034 0028     		cmp	r0, #0
 463 0036 F3D0     		beq	.L46
 208:..\common\vms/VMSWrapper.c ****     
 209:..\common\vms/VMSWrapper.c ****     //TODO readd block list pointer to nvm... it just makes things easier :3
 210:..\common\vms/VMSWrapper.c ****     return &NVM_blocks[index];
 464              		.loc 1 210 0
 465 0038 2868     		ldr	r0, [r5]
 466 003a 2044     		add	r0, r0, r4
 467 003c 38BD     		pop	{r3, r4, r5, pc}
 468              	.LVL34:
 469              	.L47:
 470              	.LBE12:
 471              	.LBE11:
 201:..\common\vms/VMSWrapper.c ****     if(index == VMS_BLOCKID_DEFSUSTAIN) return &VMS_DEFAULT_SUSTAIN;
 472              		.loc 1 201 0
 473 003e 0448     		ldr	r0, .L53+4
 474              	.LVL35:
 475 0040 38BD     		pop	{r3, r4, r5, pc}
 476              	.LVL36:
 477              	.L48:
 202:..\common\vms/VMSWrapper.c ****     if(index == VMS_BLOCKID_DEFRELEASE) return &VMS_DEFAULT_RELEASE;
 478              		.loc 1 202 0
 479 0042 0448     		ldr	r0, .L53+8
 480              	.LVL37:
 481 0044 38BD     		pop	{r3, r4, r5, pc}
 482              	.LVL38:
 483              	.L49:
 203:..\common\vms/VMSWrapper.c ****     
 484              		.loc 1 203 0
 485 0046 0448     		ldr	r0, .L53+12
 486              	.LVL39:
 211:..\common\vms/VMSWrapper.c **** }
 487              		.loc 1 211 0
 488 0048 38BD     		pop	{r3, r4, r5, pc}
 489              	.L54:
 490 004a 00BF     		.align	2
 491              	.L53:
 492 004c 00000000 		.word	NVM_blocks
 493 0050 00000000 		.word	VMS_DEFAULT_ATTAC
 494 0054 00000000 		.word	VMS_DEFAULT_SUSTAIN
 495 0058 00000000 		.word	VMS_DEFAULT_RELEASE
 496              		.cfi_endproc
 497              	.LFE78:
 498              		.size	VMSW_getBlockPtr, .-VMSW_getBlockPtr
 499              		.section	.text.VMSW_startNote,"ax",%progbits
 500              		.align	1
 501              		.global	VMSW_startNote
 502              		.thumb
 503              		.thumb_func
 504              		.type	VMSW_startNote, %function
 505              	VMSW_startNote:
 506              	.LFB73:
  87:..\common\vms/VMSWrapper.c ****     //would the note even be on after this? If not just go back without doing anything
 507              		.loc 1 87 0
 508              		.cfi_startproc
ARM GAS  C:\Users\chemi\AppData\Local\Temp\ccr4fFHe.s 			page 14


 509              		@ args = 24, pretend = 0, frame = 48
 510              		@ frame_needed = 0, uses_anonymous_args = 0
 511              	.LVL40:
 512 0000 2DE9F04F 		push	{r4, r5, r6, r7, r8, r9, r10, fp, lr}
 513              		.cfi_def_cfa_offset 36
 514              		.cfi_offset 4, -36
 515              		.cfi_offset 5, -32
 516              		.cfi_offset 6, -28
 517              		.cfi_offset 7, -24
 518              		.cfi_offset 8, -20
 519              		.cfi_offset 9, -16
 520              		.cfi_offset 10, -12
 521              		.cfi_offset 11, -8
 522              		.cfi_offset 14, -4
 523 0004 91B0     		sub	sp, sp, #68
 524              		.cfi_def_cfa_offset 104
  87:..\common\vms/VMSWrapper.c ****     //would the note even be on after this? If not just go back without doing anything
 525              		.loc 1 87 0
 526 0006 0C93     		str	r3, [sp, #48]
 527 0008 1A9B     		ldr	r3, [sp, #104]
 528              	.LVL41:
 529 000a 1C9F     		ldr	r7, [sp, #112]
 530 000c 0593     		str	r3, [sp, #20]
 531 000e 1B9B     		ldr	r3, [sp, #108]
 532 0010 0B92     		str	r2, [sp, #44]
 533 0012 0693     		str	r3, [sp, #24]
 534 0014 1D9B     		ldr	r3, [sp, #116]
  89:..\common\vms/VMSWrapper.c ****     
 535              		.loc 1 89 0
 536 0016 7A1E     		subs	r2, r7, #1
 537              	.LVL42:
  87:..\common\vms/VMSWrapper.c ****     //would the note even be on after this? If not just go back without doing anything
 538              		.loc 1 87 0
 539 0018 0793     		str	r3, [sp, #28]
 540 001a 1E9B     		ldr	r3, [sp, #120]
 541 001c 8046     		mov	r8, r0
 542 001e 0D93     		str	r3, [sp, #52]
 543 0020 1F9B     		ldr	r3, [sp, #124]
 544 0022 0A91     		str	r1, [sp, #40]
 545 0024 0E93     		str	r3, [sp, #56]
  89:..\common\vms/VMSWrapper.c ****     
 546              		.loc 1 89 0
 547 0026 5F4B     		ldr	r3, .L75
 548 0028 9A42     		cmp	r2, r3
 549 002a 00F2B880 		bhi	.L55
  89:..\common\vms/VMSWrapper.c ****     
 550              		.loc 1 89 0 is_stmt 0 discriminator 1
 551 002e 069B     		ldr	r3, [sp, #24]
 552 0030 002B     		cmp	r3, #0
 553 0032 00F0B480 		beq	.L55
  95:..\common\vms/VMSWrapper.c ****     
 554              		.loc 1 95 0 is_stmt 1
 555 0036 079B     		ldr	r3, [sp, #28]
 556 0038 0024     		movs	r4, #0
 557 003a 23F00803 		bic	r3, r3, #8
 558 003e 0993     		str	r3, [sp, #36]
 559              	.LVL43:
ARM GAS  C:\Users\chemi\AppData\Local\Temp\ccr4fFHe.s 			page 15


 560              	.L58:
 561              	.LBB18:
 562              	.LBB19:
 563              	.LBB20:
 212:..\common\vms/VMSWrapper.c **** 
 213:..\common\vms/VMSWrapper.c **** int32_t VMSW_getKnownValue(KNOWN_VALUE ID, uint32_t output, uint32_t voiceId){
 214:..\common\vms/VMSWrapper.c ****     //UART_print("get %d\r\n", ID);
 215:..\common\vms/VMSWrapper.c ****     switch(ID){
 216:..\common\vms/VMSWrapper.c ****         case maxOnTime:
 217:..\common\vms/VMSWrapper.c ****             return configuration.max_tr_pw;
 218:..\common\vms/VMSWrapper.c ****         case minOnTime:
 219:..\common\vms/VMSWrapper.c ****             return 0;
 220:..\common\vms/VMSWrapper.c ****         
 221:..\common\vms/VMSWrapper.c ****         case otCurrent:
 222:..\common\vms/VMSWrapper.c ****             return voiceData[output][voiceId].onTimeCurrent;
 223:..\common\vms/VMSWrapper.c ****         case otTarget:
 224:..\common\vms/VMSWrapper.c ****             return voiceData[output][voiceId].onTimeTarget;
 225:..\common\vms/VMSWrapper.c ****         case otFactor:
 226:..\common\vms/VMSWrapper.c ****             return voiceData[output][voiceId].onTimeFactor;
 227:..\common\vms/VMSWrapper.c ****             
 228:..\common\vms/VMSWrapper.c ****         case volumeCurrent:
 229:..\common\vms/VMSWrapper.c ****             return voiceData[output][voiceId].volumeCurrent;
 230:..\common\vms/VMSWrapper.c ****         case volumeTarget:
 231:..\common\vms/VMSWrapper.c ****             return voiceData[output][voiceId].volumeTarget;
 232:..\common\vms/VMSWrapper.c ****         case volumeFactor:
 233:..\common\vms/VMSWrapper.c ****             return voiceData[output][voiceId].volumeFactor;
 234:..\common\vms/VMSWrapper.c ****             
 235:..\common\vms/VMSWrapper.c ****         case freqCurrent:
 236:..\common\vms/VMSWrapper.c ****             return voiceData[output][voiceId].freqCurrent;
 237:..\common\vms/VMSWrapper.c ****         case freqTarget:
 238:..\common\vms/VMSWrapper.c ****             return voiceData[output][voiceId].freqTarget;
 239:..\common\vms/VMSWrapper.c ****         case freqFactor:
 240:..\common\vms/VMSWrapper.c ****             return voiceData[output][voiceId].freqFactor;
 241:..\common\vms/VMSWrapper.c ****         case pTime:
 242:..\common\vms/VMSWrapper.c ****             //TODO!
 243:..\common\vms/VMSWrapper.c ****             return 0;
 244:..\common\vms/VMSWrapper.c ****             
 245:..\common\vms/VMSWrapper.c ****         case circ1 ... circ4:
 246:..\common\vms/VMSWrapper.c ****             return voiceData[output][voiceId].circ[ID - circ1];
 247:..\common\vms/VMSWrapper.c ****             
 248:..\common\vms/VMSWrapper.c ****         case HyperVoice_Volume:
 249:..\common\vms/VMSWrapper.c ****             return voiceData[output][voiceId].hypervoiceVolumeFactor;
 250:..\common\vms/VMSWrapper.c ****             
 251:..\common\vms/VMSWrapper.c ****         case HyperVoice_Count:
 252:..\common\vms/VMSWrapper.c ****             return voiceData[output][voiceId].hypervoiceCount;
 253:..\common\vms/VMSWrapper.c ****             
 254:..\common\vms/VMSWrapper.c ****         case HyperVoice_Phase:
 255:..\common\vms/VMSWrapper.c ****             return voiceData[output][voiceId].hypervoicePhase;  //TODO? map to 0 - 0xff
 256:..\common\vms/VMSWrapper.c ****             
 257:..\common\vms/VMSWrapper.c ****         case CC_102 ... CC_119:
 258:..\common\vms/VMSWrapper.c ****             return MidiProcessor_getCCValue(VMSW_getSrcChannel(output, voiceId), ID - CC_102);
 259:..\common\vms/VMSWrapper.c ****         default:
 260:..\common\vms/VMSWrapper.c ****             return 0;
 261:..\common\vms/VMSWrapper.c ****     }
 262:..\common\vms/VMSWrapper.c ****     return 0;
 263:..\common\vms/VMSWrapper.c **** }
 264:..\common\vms/VMSWrapper.c **** 
ARM GAS  C:\Users\chemi\AppData\Local\Temp\ccr4fFHe.s 			page 16


 265:..\common\vms/VMSWrapper.c **** void VMSW_setKnownValue(KNOWN_VALUE ID, int32_t value, uint32_t output, uint32_t voiceId){
 266:..\common\vms/VMSWrapper.c ****     //precalculate voice data pointer, as this might be repeated multiple times in the following co
 267:..\common\vms/VMSWrapper.c ****     VMS_VoiceData_t * vData = &(voiceData[output][voiceId]);
 268:..\common\vms/VMSWrapper.c ****     
 269:..\common\vms/VMSWrapper.c ****     switch(ID){
 270:..\common\vms/VMSWrapper.c ****         //all other values can't be written by VMS
 271:..\common\vms/VMSWrapper.c ****         default:
 272:..\common\vms/VMSWrapper.c ****             return;
 273:..\common\vms/VMSWrapper.c ****             
 274:..\common\vms/VMSWrapper.c ****         case onTime:
 275:..\common\vms/VMSWrapper.c ****             //update volume. ontime is no longer used up until the very last stage
 276:..\common\vms/VMSWrapper.c ****             vData->onTimeFactor = value;
 277:..\common\vms/VMSWrapper.c ****             
 278:..\common\vms/VMSWrapper.c ****             vData->onTimeCurrent = (((uint32_t)value>>4) *  vData->onTimeTarget) / 62500; //62500 =
 279:..\common\vms/VMSWrapper.c ****             
 280:..\common\vms/VMSWrapper.c ****             //update siggen values
 281:..\common\vms/VMSWrapper.c ****             //TODO implement burst into VMS?
 282:..\common\vms/VMSWrapper.c ****             //TODO add custom hypervoice pulsewidth?
 283:..\common\vms/VMSWrapper.c ****             SigGen_setVoiceVMS(voiceId, 1, vData->onTimeCurrent, vData->volumeCurrent, vData->freqC
 284:..\common\vms/VMSWrapper.c ****             if(vData->hypervoiceCount > 0) SigGen_setHyperVoiceVMS(voiceId, vData->hypervoiceCount 
 285:..\common\vms/VMSWrapper.c ****             break;
 286:..\common\vms/VMSWrapper.c ****             
 287:..\common\vms/VMSWrapper.c ****             break;
 288:..\common\vms/VMSWrapper.c ****         
 289:..\common\vms/VMSWrapper.c ****         case volume:
 290:..\common\vms/VMSWrapper.c ****             //update volume. ontime is no longer used up until the very last stage
 291:..\common\vms/VMSWrapper.c ****             vData->volumeFactor = value;
 292:..\common\vms/VMSWrapper.c ****             
 293:..\common\vms/VMSWrapper.c ****             //get the current volume from the factor. We need to scale this to prevent overflow :/
 294:..\common\vms/VMSWrapper.c ****             if(vData->volumeTarget == MAX_VOL){
 295:..\common\vms/VMSWrapper.c ****                 //volume is max, no need to scale the volume, just write a scaled down version of t
 296:..\common\vms/VMSWrapper.c ****                 vData->volumeCurrent = value >> 4; //LOSSY the axual divisor should be 15.258...
 297:..\common\vms/VMSWrapper.c ****             }else{
 298:..\common\vms/VMSWrapper.c ****             }
 299:..\common\vms/VMSWrapper.c ****             
 300:..\common\vms/VMSWrapper.c ****             if(vData->volumeFactor == 1000000){
 301:..\common\vms/VMSWrapper.c ****                 vData->volumeCurrent = vData->volumeTarget; //62500 = 1000000 >> 4
 302:..\common\vms/VMSWrapper.c ****             }else{
 303:..\common\vms/VMSWrapper.c ****                 vData->volumeCurrent = (((uint32_t)value>>4) *  vData->volumeTarget) / 62500; //625
 304:..\common\vms/VMSWrapper.c ****             }
 305:..\common\vms/VMSWrapper.c ****             
 306:..\common\vms/VMSWrapper.c ****             //is hypervoice enabled? If so also update its volume
 307:..\common\vms/VMSWrapper.c ****             if(vData->hypervoiceCount > 0){
 308:..\common\vms/VMSWrapper.c ****                 //get the current volume from the factor. We need to scale this to prevent overflow
 309:..\common\vms/VMSWrapper.c ****                 
 310:..\common\vms/VMSWrapper.c ****                 if(vData->hypervoiceVolumeFactor == 1000000){
 311:..\common\vms/VMSWrapper.c ****                     //volume is max, no need to scale the volume, just write a scaled down version 
 312:..\common\vms/VMSWrapper.c ****                     vData->hypervoiceVolumeCurrent = vData->volumeCurrent; //LOSSY the axual diviso
 313:..\common\vms/VMSWrapper.c ****                 }else{
 314:..\common\vms/VMSWrapper.c ****                     vData->hypervoiceVolumeCurrent = (((uint32_t)vData->hypervoiceVolumeFactor>>4) 
 315:..\common\vms/VMSWrapper.c ****                 }
 316:..\common\vms/VMSWrapper.c ****                 
 317:..\common\vms/VMSWrapper.c ****                 SigGen_setHyperVoiceVMS(voiceId, vData->hypervoiceCount / 1000000, vData->onTimeCur
 318:..\common\vms/VMSWrapper.c ****             }
 319:..\common\vms/VMSWrapper.c ****             
 320:..\common\vms/VMSWrapper.c ****             //update siggen values
 321:..\common\vms/VMSWrapper.c ****             SigGen_setVoiceVMS(voiceId, 1, vData->onTimeCurrent, vData->volumeCurrent, vData->freqC
ARM GAS  C:\Users\chemi\AppData\Local\Temp\ccr4fFHe.s 			page 17


 322:..\common\vms/VMSWrapper.c ****             break;
 323:..\common\vms/VMSWrapper.c ****             
 324:..\common\vms/VMSWrapper.c ****         case freqCurrent:
 325:..\common\vms/VMSWrapper.c ****             vData->freqCurrent = value;
 326:..\common\vms/VMSWrapper.c ****             break;
 327:..\common\vms/VMSWrapper.c ****             
 328:..\common\vms/VMSWrapper.c ****         case frequency:
 329:..\common\vms/VMSWrapper.c ****             vData->freqFactor = value;
 330:..\common\vms/VMSWrapper.c ****             
 331:..\common\vms/VMSWrapper.c ****             //calculate current frequency
 332:..\common\vms/VMSWrapper.c ****             uint32_t newFrequency = vData->freqTarget;
 333:..\common\vms/VMSWrapper.c ****             
 334:..\common\vms/VMSWrapper.c ****             //apply frequency effects
 335:..\common\vms/VMSWrapper.c ****             
 336:..\common\vms/VMSWrapper.c ****             //pitchbend
 337:..\common\vms/VMSWrapper.c ****             
 338:..\common\vms/VMSWrapper.c ****             if(vData->flags & MAP_ENA_PITCHBEND) newFrequency = MIDIPROC_SCALE_PITCHBEND(newFrequen
 339:..\common\vms/VMSWrapper.c ****             
 340:..\common\vms/VMSWrapper.c ****             //portamento, check if we need to apply it first though
 341:..\common\vms/VMSWrapper.c ****             if(vData->portamentoCurrent != 0){ 
 342:..\common\vms/VMSWrapper.c ****                 int32_t difference = (int32_t) vData->freqLast - (int32_t) vData->freqTarget;
 343:..\common\vms/VMSWrapper.c ****                 difference = (difference * (vData->portamentoCurrent>>6)) / 15625; 
 344:..\common\vms/VMSWrapper.c ****                 newFrequency += difference;
 345:..\common\vms/VMSWrapper.c ****             }
 346:..\common\vms/VMSWrapper.c ****             
 347:..\common\vms/VMSWrapper.c ****             //and finally, the currentfreqFactor
 348:..\common\vms/VMSWrapper.c ****             if(value != 1000000) newFrequency = (newFrequency * (value>>6)) / 15625;
 349:..\common\vms/VMSWrapper.c ****             
 350:..\common\vms/VMSWrapper.c ****             vData->freqCurrent = newFrequency;
 351:..\common\vms/VMSWrapper.c ****             
 352:..\common\vms/VMSWrapper.c ****             SigGen_setVoiceVMS(voiceId, 1, vData->onTimeCurrent, vData->volumeCurrent, vData->freqC
 353:..\common\vms/VMSWrapper.c ****             break;
 354:..\common\vms/VMSWrapper.c ****             
 355:..\common\vms/VMSWrapper.c ****         case noise:
 356:..\common\vms/VMSWrapper.c ****             vData->noiseFactor = value;
 357:..\common\vms/VMSWrapper.c ****             vData->noiseCurrent = (((uint32_t)value>>4) *  vData->noiseTarget) / 62500; //62500 = 1
 358:..\common\vms/VMSWrapper.c ****             
 359:..\common\vms/VMSWrapper.c ****             SigGen_setVoiceVMS(voiceId, 1, vData->onTimeCurrent, vData->volumeCurrent, vData->freqC
 360:..\common\vms/VMSWrapper.c ****             break;
 361:..\common\vms/VMSWrapper.c ****             
 362:..\common\vms/VMSWrapper.c ****         case circ1 ... circ4:
 363:..\common\vms/VMSWrapper.c ****             vData->circ[ID - circ1] = value;
 364:..\common\vms/VMSWrapper.c ****             break;
 365:..\common\vms/VMSWrapper.c **** 
 366:..\common\vms/VMSWrapper.c ****         case HyperVoice_Count:
 367:..\common\vms/VMSWrapper.c ****             vData->hypervoiceCount = value;
 368:..\common\vms/VMSWrapper.c ****             
 369:..\common\vms/VMSWrapper.c ****             SigGen_setHyperVoiceVMS(voiceId, vData->hypervoiceCount / 1000000, vData->onTimeCurrent
 370:..\common\vms/VMSWrapper.c ****             break;
 371:..\common\vms/VMSWrapper.c **** 
 372:..\common\vms/VMSWrapper.c ****         case HyperVoice_Volume:
 373:..\common\vms/VMSWrapper.c ****             vData->hypervoiceVolumeFactor = value;
 374:..\common\vms/VMSWrapper.c ****             
 375:..\common\vms/VMSWrapper.c ****             //get the current volume from the factor. We need to scale this to prevent overflow :/
 376:..\common\vms/VMSWrapper.c ****             if(vData->hypervoiceVolumeFactor == 1000000){
 377:..\common\vms/VMSWrapper.c ****                 //volume is max, no need to scale the volume, just write a scaled down version of t
 378:..\common\vms/VMSWrapper.c ****                 vData->hypervoiceVolumeCurrent = vData->volumeCurrent; //LOSSY the axual divisor sh
ARM GAS  C:\Users\chemi\AppData\Local\Temp\ccr4fFHe.s 			page 18


 379:..\common\vms/VMSWrapper.c ****             }else{
 380:..\common\vms/VMSWrapper.c ****                 vData->hypervoiceVolumeCurrent = (((uint32_t)value>>4) *  vData->volumeCurrent) / 6
 381:..\common\vms/VMSWrapper.c ****             }
 382:..\common\vms/VMSWrapper.c ****             
 383:..\common\vms/VMSWrapper.c ****             SigGen_setHyperVoiceVMS(voiceId, vData->hypervoiceCount / 1000000, vData->onTimeCurrent
 384:..\common\vms/VMSWrapper.c ****             break;
 385:..\common\vms/VMSWrapper.c ****             
 386:..\common\vms/VMSWrapper.c ****         case HyperVoice_Phase:
 387:..\common\vms/VMSWrapper.c ****             vData->hypervoicePhase = value;  //map to 0 - 0xff
 388:..\common\vms/VMSWrapper.c ****             
 389:..\common\vms/VMSWrapper.c ****             SigGen_setHyperVoiceVMS(voiceId, vData->hypervoiceCount / 1000000, vData->onTimeCurrent
 390:..\common\vms/VMSWrapper.c ****             break;
 391:..\common\vms/VMSWrapper.c ****     }
 392:..\common\vms/VMSWrapper.c **** }
 393:..\common\vms/VMSWrapper.c **** 
 394:..\common\vms/VMSWrapper.c **** int32_t VMSW_getCurrentFactor(KNOWN_VALUE ID, uint32_t output, uint32_t voiceId){
 395:..\common\vms/VMSWrapper.c ****     switch(ID){
 396:..\common\vms/VMSWrapper.c ****         default:
 397:..\common\vms/VMSWrapper.c ****             return 0;
 398:..\common\vms/VMSWrapper.c ****         case onTime:
 399:..\common\vms/VMSWrapper.c ****             return voiceData[output][voiceId].onTimeFactor;
 400:..\common\vms/VMSWrapper.c ****         case volume:
 401:..\common\vms/VMSWrapper.c ****             return voiceData[output][voiceId].volumeFactor;
 402:..\common\vms/VMSWrapper.c ****         case frequency:
 403:..\common\vms/VMSWrapper.c ****             return voiceData[output][voiceId].freqFactor;
 404:..\common\vms/VMSWrapper.c ****         case noise:
 405:..\common\vms/VMSWrapper.c ****             return voiceData[output][voiceId].noiseFactor;
 406:..\common\vms/VMSWrapper.c ****             
 407:..\common\vms/VMSWrapper.c ****         case circ1 ... circ4:
 408:..\common\vms/VMSWrapper.c ****             return voiceData[output][voiceId].circ[ID - circ1];
 409:..\common\vms/VMSWrapper.c ****             
 410:..\common\vms/VMSWrapper.c ****         case HyperVoice_Count:
 411:..\common\vms/VMSWrapper.c ****             return voiceData[output][voiceId].hypervoiceCount;
 412:..\common\vms/VMSWrapper.c ****         case HyperVoice_Volume:
 413:..\common\vms/VMSWrapper.c ****             return voiceData[output][voiceId].hypervoiceVolumeFactor;
 414:..\common\vms/VMSWrapper.c ****         case HyperVoice_Phase:
 415:..\common\vms/VMSWrapper.c ****             return voiceData[output][voiceId].hypervoicePhase;
 416:..\common\vms/VMSWrapper.c ****     }
 417:..\common\vms/VMSWrapper.c ****     return 0;
 418:..\common\vms/VMSWrapper.c **** }
 419:..\common\vms/VMSWrapper.c **** 
 420:..\common\vms/VMSWrapper.c **** static uint32_t VMSW_getNextVoice(uint32_t note, uint32_t output, uint32_t channel){
 421:..\common\vms/VMSWrapper.c ****     //find the best matching voice to play the next note. Going through criteriums best to worst
 422:..\common\vms/VMSWrapper.c ****     
 423:..\common\vms/VMSWrapper.c ****     /*//is any note decaying that already was already playing this note before?
 424:..\common\vms/VMSWrapper.c ****     for(uint8_t currVoice = 0; currVoice < SIGGEN_VOICECOUNT; currVoice++){
 425:..\common\vms/VMSWrapper.c ****         if(!voiceData[currVoice].on && voiceData[currVoice].sourceNote == note){
 426:..\common\vms/VMSWrapper.c ****             return currVoice;
 427:..\common\vms/VMSWrapper.c ****         }
 428:..\common\vms/VMSWrapper.c ****     }*/
 429:..\common\vms/VMSWrapper.c ****     
 430:..\common\vms/VMSWrapper.c ****     //is any voice completely off at the moment?
 431:..\common\vms/VMSWrapper.c ****     for(uint8_t currVoice = 0; currVoice < SIGGEN_VOICECOUNT; currVoice++){
 432:..\common\vms/VMSWrapper.c ****         if(!VMSW_isVoiceActive(output, currVoice)){
 564              		.loc 1 432 0
 565 0040 2146     		mov	r1, r4
 566 0042 4046     		mov	r0, r8
ARM GAS  C:\Users\chemi\AppData\Local\Temp\ccr4fFHe.s 			page 19


 567 0044 2546     		mov	r5, r4
 568 0046 FFF7FEFF 		bl	VMSW_isVoiceActive
 569              	.LVL44:
 570 004a F0B1     		cbz	r0, .L57
 571              	.LVL45:
 572 004c 0134     		adds	r4, r4, #1
 573              	.LVL46:
 431:..\common\vms/VMSWrapper.c ****         if(!VMSW_isVoiceActive(output, currVoice)){
 574              		.loc 1 431 0
 575 004e 062C     		cmp	r4, #6
 576 0050 F6D1     		bne	.L58
 577              	.LBE20:
 578              	.LBB21:
 579              	.LBB22:
 433:..\common\vms/VMSWrapper.c ****             return currVoice;
 434:..\common\vms/VMSWrapper.c ****         }
 435:..\common\vms/VMSWrapper.c ****     }
 436:..\common\vms/VMSWrapper.c ****     
 437:..\common\vms/VMSWrapper.c ****     //Find the oldest voice to kill
 438:..\common\vms/VMSWrapper.c ****     uint32_t oldestAge = 0;
 439:..\common\vms/VMSWrapper.c ****     uint32_t oldestVoice = 0;
 440:..\common\vms/VMSWrapper.c ****     for(uint8_t currVoice = 0; currVoice < SIGGEN_VOICECOUNT; currVoice++){
 441:..\common\vms/VMSWrapper.c ****         uint32_t currNoteAge = xTaskGetTickCount() - voiceData[output][currVoice].startTime;
 580              		.loc 1 441 0
 581 0052 0024     		movs	r4, #0
 582 0054 2546     		mov	r5, r4
 583 0056 2646     		mov	r6, r4
 584 0058 DFF850A1 		ldr	r10, .L75+8
 585 005c 4FEA8809 		lsl	r9, r8, #2
 586 0060 4FF07C0B 		mov	fp, #124
 587              	.L60:
 588              	.LVL47:
 589 0064 FFF7FEFF 		bl	xTaskGetTickCount
 590              	.LVL48:
 591 0068 DAF80030 		ldr	r3, [r10]
 592 006c 53F80930 		ldr	r3, [r3, r9]
 593 0070 0BFB0433 		mla	r3, fp, r4, r3
 594 0074 DB6D     		ldr	r3, [r3, #92]
 595 0076 C01A     		subs	r0, r0, r3
 596              	.LVL49:
 442:..\common\vms/VMSWrapper.c ****         if(currNoteAge > oldestAge){ 
 597              		.loc 1 442 0
 598 0078 B042     		cmp	r0, r6
 443:..\common\vms/VMSWrapper.c ****             oldestAge = currNoteAge;
 444:..\common\vms/VMSWrapper.c ****             oldestVoice = currVoice;
 599              		.loc 1 444 0
 600 007a 88BF     		it	hi
 601 007c 2546     		movhi	r5, r4
 602 007e 04F10104 		add	r4, r4, #1
 603              	.LVL50:
 442:..\common\vms/VMSWrapper.c ****         if(currNoteAge > oldestAge){ 
 604              		.loc 1 442 0
 605 0082 88BF     		it	hi
 606 0084 0646     		movhi	r6, r0
 607              	.LVL51:
 608              	.LBE22:
 440:..\common\vms/VMSWrapper.c ****         uint32_t currNoteAge = xTaskGetTickCount() - voiceData[output][currVoice].startTime;
ARM GAS  C:\Users\chemi\AppData\Local\Temp\ccr4fFHe.s 			page 20


 609              		.loc 1 440 0
 610 0086 062C     		cmp	r4, #6
 611 0088 ECD1     		bne	.L60
 612              	.LVL52:
 613              	.L57:
 614              	.LBE21:
 615              	.LBE19:
 616              	.LBE18:
 100:..\common\vms/VMSWrapper.c ****     
 617              		.loc 1 100 0
 618 008a DFF820B1 		ldr	fp, .L75+8
 619 008e 4FF07C0A 		mov	r10, #124
 620 0092 0AFB05F9 		mul	r9, r10, r5
 621 0096 DBF80030 		ldr	r3, [fp]
 105:..\common\vms/VMSWrapper.c ****     VMS_returnSemaphore();
 622              		.loc 1 105 0
 623 009a 0026     		movs	r6, #0
 100:..\common\vms/VMSWrapper.c ****     
 624              		.loc 1 100 0
 625 009c 53F82830 		ldr	r3, [r3, r8, lsl #2]
 626 00a0 03EB0904 		add	r4, r3, r9
 627              	.LVL53:
 628 00a4 0893     		str	r3, [sp, #32]
 103:..\common\vms/VMSWrapper.c ****     VMS_removeBlocksWithTargetVoice(targetVoice);
 629              		.loc 1 103 0
 630 00a6 FFF7FEFF 		bl	VMS_getSemaphore
 631              	.LVL54:
 104:..\common\vms/VMSWrapper.c ****     SigGen_setVoiceVMS(targetVoice, 0, 0, 0, 0, 0, 0, 0);
 632              		.loc 1 104 0
 633 00aa 2846     		mov	r0, r5
 634 00ac FFF7FEFF 		bl	VMS_removeBlocksWithTargetVoice
 635              	.LVL55:
 105:..\common\vms/VMSWrapper.c ****     VMS_returnSemaphore();
 636              		.loc 1 105 0
 637 00b0 3346     		mov	r3, r6
 638 00b2 3246     		mov	r2, r6
 639 00b4 3146     		mov	r1, r6
 640 00b6 2846     		mov	r0, r5
 641 00b8 0396     		str	r6, [sp, #12]
 642 00ba 0296     		str	r6, [sp, #8]
 643 00bc 0196     		str	r6, [sp, #4]
 644 00be 0096     		str	r6, [sp]
 645 00c0 FFF7FEFF 		bl	SigGen_setVoiceVMS
 646              	.LVL56:
 106:..\common\vms/VMSWrapper.c ****     
 647              		.loc 1 106 0
 648 00c4 FFF7FEFF 		bl	VMS_returnSemaphore
 649              	.LVL57:
 110:..\common\vms/VMSWrapper.c ****     
 650              		.loc 1 110 0
 651 00c8 DBF80020 		ldr	r2, [fp]
 109:..\common\vms/VMSWrapper.c ****     memset(&voiceData[output][targetVoice], 0, sizeof(VMS_VoiceData_t));
 652              		.loc 1 109 0
 653 00cc E368     		ldr	r3, [r4, #12]
 110:..\common\vms/VMSWrapper.c ****     
 654              		.loc 1 110 0
 655 00ce 52F82800 		ldr	r0, [r2, r8, lsl #2]
ARM GAS  C:\Users\chemi\AppData\Local\Temp\ccr4fFHe.s 			page 21


 656 00d2 3146     		mov	r1, r6
 657 00d4 5246     		mov	r2, r10
 658 00d6 4844     		add	r0, r0, r9
 109:..\common\vms/VMSWrapper.c ****     memset(&voiceData[output][targetVoice], 0, sizeof(VMS_VoiceData_t));
 659              		.loc 1 109 0
 660 00d8 0F93     		str	r3, [sp, #60]
 661              	.LVL58:
 110:..\common\vms/VMSWrapper.c ****     
 662              		.loc 1 110 0
 663 00da FFF7FEFF 		bl	memset
 664              	.LVL59:
 113:..\common\vms/VMSWrapper.c ****     vData->portamentoTarget = 0;
 665              		.loc 1 113 0
 666 00de 0F9B     		ldr	r3, [sp, #60]
 114:..\common\vms/VMSWrapper.c ****     vData->portamentoCurrent = (flags & MAP_ENA_PORTAMENTO) ? VMS_UNITY_FACTOR : 0;
 667              		.loc 1 114 0
 668 00e0 6664     		str	r6, [r4, #68]
 113:..\common\vms/VMSWrapper.c ****     vData->portamentoTarget = 0;
 669              		.loc 1 113 0
 670 00e2 E360     		str	r3, [r4, #12]
 117:..\common\vms/VMSWrapper.c ****     
 671              		.loc 1 117 0
 672 00e4 089B     		ldr	r3, [sp, #32]
 115:..\common\vms/VMSWrapper.c ****     
 673              		.loc 1 115 0
 674 00e6 A664     		str	r6, [r4, #72]
 117:..\common\vms/VMSWrapper.c ****     
 675              		.loc 1 117 0
 676 00e8 43F80970 		str	r7, [r3, r9]
 677              	.LVL60:
 123:..\common\vms/VMSWrapper.c ****     
 678              		.loc 1 123 0
 679 00ec 079B     		ldr	r3, [sp, #28]
 680              	.LVL61:
 681 00ee 1B06     		lsls	r3, r3, #24
 682 00f0 05D5     		bpl	.L61
 683              	.LVL62:
 123:..\common\vms/VMSWrapper.c ****     
 684              		.loc 1 123 0 is_stmt 0 discriminator 1
 685 00f2 94F86000 		ldrb	r0, [r4, #96]	@ zero_extendqisi2
 686 00f6 FFF7FEFF 		bl	MidiProcessor_getBendFactor
 687              	.LVL63:
 688 00fa 7843     		muls	r0, r7, r0
 689 00fc 470B     		lsrs	r7, r0, #13
 690              	.LVL64:
 691              	.L61:
 136:..\common\vms/VMSWrapper.c ****     
 692              		.loc 1 136 0 is_stmt 1
 693 00fe 069B     		ldr	r3, [sp, #24]
 134:..\common\vms/VMSWrapper.c ****     
 694              		.loc 1 134 0
 695 0100 294E     		ldr	r6, .L75+4
 136:..\common\vms/VMSWrapper.c ****     
 696              		.loc 1 136 0
 697 0102 E361     		str	r3, [r4, #28]
 139:..\common\vms/VMSWrapper.c ****     vData->onTimeCurrent = targetOnTime;
 698              		.loc 1 139 0
ARM GAS  C:\Users\chemi\AppData\Local\Temp\ccr4fFHe.s 			page 22


 699 0104 059B     		ldr	r3, [sp, #20]
 134:..\common\vms/VMSWrapper.c ****     
 700              		.loc 1 134 0
 701 0106 A660     		str	r6, [r4, #8]
 139:..\common\vms/VMSWrapper.c ****     vData->onTimeCurrent = targetOnTime;
 702              		.loc 1 139 0
 703 0108 2361     		str	r3, [r4, #16]
 140:..\common\vms/VMSWrapper.c ****     vData->onTimeFactor = 1000000;
 704              		.loc 1 140 0
 705 010a 6361     		str	r3, [r4, #20]
 143:..\common\vms/VMSWrapper.c ****     
 706              		.loc 1 143 0
 707 010c 48F6B803 		movw	r3, #35000
 141:..\common\vms/VMSWrapper.c ****     
 708              		.loc 1 141 0
 709 0110 A661     		str	r6, [r4, #24]
 143:..\common\vms/VMSWrapper.c ****     
 710              		.loc 1 143 0
 711 0112 A362     		str	r3, [r4, #40]
 133:..\common\vms/VMSWrapper.c ****     vData->freqFactor = 1000000;
 712              		.loc 1 133 0
 713 0114 6760     		str	r7, [r4, #4]
 145:..\common\vms/VMSWrapper.c ****     vData->sourceChannel = sourceChannel;
 714              		.loc 1 145 0
 715 0116 FFF7FEFF 		bl	xTaskGetTickCount
 716              	.LVL65:
 152:..\common\vms/VMSWrapper.c ****         //volume is max, no need to scale the volume, just write a scaled down version of the facto
 717              		.loc 1 152 0
 718 011a 47F6FF72 		movw	r2, #32767
 146:..\common\vms/VMSWrapper.c ****     vData->sourceNote = sourceNote;
 719              		.loc 1 146 0
 720 011e 9DF83030 		ldrb	r3, [sp, #48]	@ zero_extendqisi2
 149:..\common\vms/VMSWrapper.c ****     
 721              		.loc 1 149 0
 722 0122 A663     		str	r6, [r4, #56]
 146:..\common\vms/VMSWrapper.c ****     vData->sourceNote = sourceNote;
 723              		.loc 1 146 0
 724 0124 84F86030 		strb	r3, [r4, #96]
 147:..\common\vms/VMSWrapper.c ****     
 725              		.loc 1 147 0
 726 0128 9DF82C30 		ldrb	r3, [sp, #44]	@ zero_extendqisi2
 159:..\common\vms/VMSWrapper.c ****     vData->hypervoicePhase = 0;
 727              		.loc 1 159 0
 728 012c 0026     		movs	r6, #0
 147:..\common\vms/VMSWrapper.c ****     
 729              		.loc 1 147 0
 730 012e 84F86130 		strb	r3, [r4, #97]
 152:..\common\vms/VMSWrapper.c ****         //volume is max, no need to scale the volume, just write a scaled down version of the facto
 731              		.loc 1 152 0
 732 0132 E369     		ldr	r3, [r4, #28]
 145:..\common\vms/VMSWrapper.c ****     vData->sourceChannel = sourceChannel;
 733              		.loc 1 145 0
 734 0134 E065     		str	r0, [r4, #92]
 152:..\common\vms/VMSWrapper.c ****         //volume is max, no need to scale the volume, just write a scaled down version of the facto
 735              		.loc 1 152 0
 736 0136 9342     		cmp	r3, r2
 737 0138 4FF22442 		movw	r2, #62500
ARM GAS  C:\Users\chemi\AppData\Local\Temp\ccr4fFHe.s 			page 23


 156:..\common\vms/VMSWrapper.c ****     }
 738              		.loc 1 156 0
 739 013c 1EBF     		ittt	ne
 740 013e 5343     		mulne	r3, r2, r3
 741 0140 B3FBF2F3 		udivne	r3, r3, r2
 742 0144 E363     		strne	r3, [r4, #60]
 164:..\common\vms/VMSWrapper.c ****     vData->baseVelocity = baseVelocity;
 743              		.loc 1 164 0
 744 0146 099B     		ldr	r3, [sp, #36]
 154:..\common\vms/VMSWrapper.c ****     }else{
 745              		.loc 1 154 0
 746 0148 08BF     		it	eq
 747 014a E263     		streq	r2, [r4, #60]
 164:..\common\vms/VMSWrapper.c ****     vData->baseVelocity = baseVelocity;
 748              		.loc 1 164 0
 749 014c 2365     		str	r3, [r4, #80]
 165:..\common\vms/VMSWrapper.c ****     vData->baseVolume = baseVolume;
 750              		.loc 1 165 0
 751 014e 0E9B     		ldr	r3, [sp, #56]
 159:..\common\vms/VMSWrapper.c ****     vData->hypervoicePhase = 0;
 752              		.loc 1 159 0
 753 0150 6663     		str	r6, [r4, #52]
 165:..\common\vms/VMSWrapper.c ****     vData->baseVolume = baseVolume;
 754              		.loc 1 165 0
 755 0152 A365     		str	r3, [r4, #88]
 166:..\common\vms/VMSWrapper.c ****     
 756              		.loc 1 166 0
 757 0154 0D9B     		ldr	r3, [sp, #52]
 160:..\common\vms/VMSWrapper.c ****     
 758              		.loc 1 160 0
 759 0156 2664     		str	r6, [r4, #64]
 166:..\common\vms/VMSWrapper.c ****     
 760              		.loc 1 166 0
 761 0158 6365     		str	r3, [r4, #84]
 168:..\common\vms/VMSWrapper.c ****     
 762              		.loc 1 168 0
 763 015a 0123     		movs	r3, #1
 764 015c E364     		str	r3, [r4, #76]
 162:..\common\vms/VMSWrapper.c ****     
 765              		.loc 1 162 0
 766 015e A567     		str	r5, [r4, #120]
 170:..\common\vms/VMSWrapper.c ****     
 767              		.loc 1 170 0
 768 0160 FFF7FEFF 		bl	VMS_getSemaphore
 769              	.LVL66:
 172:..\common\vms/VMSWrapper.c ****     SigGen_setHyperVoiceVMS(targetVoice, 0, 0, 0, 0);
 770              		.loc 1 172 0
 771 0164 3346     		mov	r3, r6
 772 0166 3246     		mov	r2, r6
 773 0168 3146     		mov	r1, r6
 774 016a 2846     		mov	r0, r5
 775 016c 0396     		str	r6, [sp, #12]
 776 016e 0296     		str	r6, [sp, #8]
 777 0170 0196     		str	r6, [sp, #4]
 778 0172 0096     		str	r6, [sp]
 779 0174 FFF7FEFF 		bl	SigGen_setVoiceVMS
 780              	.LVL67:
ARM GAS  C:\Users\chemi\AppData\Local\Temp\ccr4fFHe.s 			page 24


 173:..\common\vms/VMSWrapper.c ****     
 781              		.loc 1 173 0
 782 0178 3346     		mov	r3, r6
 783 017a 3246     		mov	r2, r6
 784 017c 3146     		mov	r1, r6
 785 017e 2846     		mov	r0, r5
 786 0180 0096     		str	r6, [sp]
 787 0182 FFF7FEFF 		bl	SigGen_setHyperVoiceVMS
 788              	.LVL68:
 175:..\common\vms/VMSWrapper.c ****     VMS_returnSemaphore();
 789              		.loc 1 175 0
 790 0186 0A98     		ldr	r0, [sp, #40]
 791 0188 FFF7FEFF 		bl	VMSW_getBlockPtr
 792              	.LVL69:
 793 018c 2A46     		mov	r2, r5
 794 018e 4146     		mov	r1, r8
 795 0190 FFF7FEFF 		bl	VMS_addBlockToList
 796              	.LVL70:
 177:..\common\vms/VMSWrapper.c **** 
 797              		.loc 1 177 0
 798 0194 11B0     		add	sp, sp, #68
 799              		.cfi_remember_state
 800              		.cfi_def_cfa_offset 36
 801              		@ sp needed
 802 0196 BDE8F04F 		pop	{r4, r5, r6, r7, r8, r9, r10, fp, lr}
 803              		.cfi_restore 14
 804              		.cfi_restore 11
 805              		.cfi_restore 10
 806              		.cfi_restore 9
 807              		.cfi_restore 8
 808              		.cfi_restore 7
 809              		.cfi_restore 6
 810              		.cfi_restore 5
 811              		.cfi_restore 4
 812              		.cfi_def_cfa_offset 0
 813              	.LVL71:
 176:..\common\vms/VMSWrapper.c **** }
 814              		.loc 1 176 0
 815 019a FFF7FEBF 		b	VMS_returnSemaphore
 816              	.LVL72:
 817              	.L55:
 818              		.cfi_restore_state
 177:..\common\vms/VMSWrapper.c **** 
 819              		.loc 1 177 0
 820 019e 11B0     		add	sp, sp, #68
 821              		.cfi_def_cfa_offset 36
 822              		@ sp needed
 823 01a0 BDE8F08F 		pop	{r4, r5, r6, r7, r8, r9, r10, fp, pc}
 824              	.LVL73:
 825              	.L76:
 826              		.align	2
 827              	.L75:
 828 01a4 9F860100 		.word	99999
 829 01a8 40420F00 		.word	1000000
 830 01ac 00000000 		.word	.LANCHOR0
 831              		.cfi_endproc
 832              	.LFE73:
ARM GAS  C:\Users\chemi\AppData\Local\Temp\ccr4fFHe.s 			page 25


 833              		.size	VMSW_startNote, .-VMSW_startNote
 834              		.section	.text.VMSW_getKnownValue,"ax",%progbits
 835              		.align	1
 836              		.global	VMSW_getKnownValue
 837              		.thumb
 838              		.thumb_func
 839              		.type	VMSW_getKnownValue, %function
 840              	VMSW_getKnownValue:
 841              	.LFB79:
 213:..\common\vms/VMSWrapper.c ****     //UART_print("get %d\r\n", ID);
 842              		.loc 1 213 0
 843              		.cfi_startproc
 844              		@ args = 0, pretend = 0, frame = 0
 845              		@ frame_needed = 0, uses_anonymous_args = 0
 846              	.LVL74:
 847 0000 10B5     		push	{r4, lr}
 848              		.cfi_def_cfa_offset 8
 849              		.cfi_offset 4, -8
 850              		.cfi_offset 14, -4
 213:..\common\vms/VMSWrapper.c ****     //UART_print("get %d\r\n", ID);
 851              		.loc 1 213 0
 852 0002 0446     		mov	r4, r0
 853 0004 0846     		mov	r0, r1
 854              	.LVL75:
 855 0006 1146     		mov	r1, r2
 856              	.LVL76:
 215:..\common\vms/VMSWrapper.c ****         case maxOnTime:
 857              		.loc 1 215 0
 858 0008 282C     		cmp	r4, #40
 859 000a 00F29780 		bhi	.L95
 860 000e DFE804F0 		tbb	[pc, r4]
 861              	.L80:
 862 0012 15       		.byte	(.L79-.L80)/2
 863 0013 95       		.byte	(.L95-.L80)/2
 864 0014 95       		.byte	(.L95-.L80)/2
 865 0015 18       		.byte	(.L81-.L80)/2
 866 0016 21       		.byte	(.L82-.L80)/2
 867 0017 2A       		.byte	(.L83-.L80)/2
 868 0018 95       		.byte	(.L95-.L80)/2
 869 0019 4E       		.byte	(.L84-.L80)/2
 870 001a 57       		.byte	(.L85-.L80)/2
 871 001b 5F       		.byte	(.L86-.L80)/2
 872 001c 95       		.byte	(.L95-.L80)/2
 873 001d 95       		.byte	(.L95-.L80)/2
 874 001e 68       		.byte	(.L87-.L80)/2
 875 001f 68       		.byte	(.L87-.L80)/2
 876 0020 68       		.byte	(.L87-.L80)/2
 877 0021 68       		.byte	(.L87-.L80)/2
 878 0022 8D       		.byte	(.L88-.L80)/2
 879 0023 8D       		.byte	(.L88-.L80)/2
 880 0024 8D       		.byte	(.L88-.L80)/2
 881 0025 8D       		.byte	(.L88-.L80)/2
 882 0026 8D       		.byte	(.L88-.L80)/2
 883 0027 8D       		.byte	(.L88-.L80)/2
 884 0028 8D       		.byte	(.L88-.L80)/2
 885 0029 8D       		.byte	(.L88-.L80)/2
 886 002a 8D       		.byte	(.L88-.L80)/2
ARM GAS  C:\Users\chemi\AppData\Local\Temp\ccr4fFHe.s 			page 26


 887 002b 8D       		.byte	(.L88-.L80)/2
 888 002c 8D       		.byte	(.L88-.L80)/2
 889 002d 8D       		.byte	(.L88-.L80)/2
 890 002e 8D       		.byte	(.L88-.L80)/2
 891 002f 8D       		.byte	(.L88-.L80)/2
 892 0030 8D       		.byte	(.L88-.L80)/2
 893 0031 8D       		.byte	(.L88-.L80)/2
 894 0032 8D       		.byte	(.L88-.L80)/2
 895 0033 8D       		.byte	(.L88-.L80)/2
 896 0034 7B       		.byte	(.L89-.L80)/2
 897 0035 84       		.byte	(.L90-.L80)/2
 898 0036 72       		.byte	(.L91-.L80)/2
 899 0037 95       		.byte	(.L95-.L80)/2
 900 0038 33       		.byte	(.L92-.L80)/2
 901 0039 3C       		.byte	(.L93-.L80)/2
 902 003a 45       		.byte	(.L94-.L80)/2
 903 003b 00       		.p2align 1
 904              	.L79:
 217:..\common\vms/VMSWrapper.c ****         case minOnTime:
 905              		.loc 1 217 0
 906 003c 404B     		ldr	r3, .L97
 907 003e 9888     		ldrh	r0, [r3, #4]
 908              	.LVL77:
 909 0040 10BD     		pop	{r4, pc}
 910              	.LVL78:
 911              	.L81:
 222:..\common\vms/VMSWrapper.c ****         case otTarget:
 912              		.loc 1 222 0
 913 0042 404B     		ldr	r3, .L97+4
 914 0044 1B68     		ldr	r3, [r3]
 915 0046 53F82020 		ldr	r2, [r3, r0, lsl #2]
 916              	.LVL79:
 917 004a 7C23     		movs	r3, #124
 918 004c 03FB0121 		mla	r1, r3, r1, r2
 919              	.LVL80:
 920 0050 4869     		ldr	r0, [r1, #20]
 921              	.LVL81:
 922 0052 10BD     		pop	{r4, pc}
 923              	.LVL82:
 924              	.L82:
 224:..\common\vms/VMSWrapper.c ****         case otFactor:
 925              		.loc 1 224 0
 926 0054 3B4B     		ldr	r3, .L97+4
 927 0056 1B68     		ldr	r3, [r3]
 928 0058 53F82020 		ldr	r2, [r3, r0, lsl #2]
 929 005c 7C23     		movs	r3, #124
 930 005e 03FB0121 		mla	r1, r3, r1, r2
 931              	.LVL83:
 932 0062 0869     		ldr	r0, [r1, #16]
 933              	.LVL84:
 934 0064 10BD     		pop	{r4, pc}
 935              	.LVL85:
 936              	.L83:
 226:..\common\vms/VMSWrapper.c ****             
 937              		.loc 1 226 0
 938 0066 374B     		ldr	r3, .L97+4
 939 0068 1B68     		ldr	r3, [r3]
ARM GAS  C:\Users\chemi\AppData\Local\Temp\ccr4fFHe.s 			page 27


 940 006a 53F82020 		ldr	r2, [r3, r0, lsl #2]
 941 006e 7C23     		movs	r3, #124
 942 0070 03FB0121 		mla	r1, r3, r1, r2
 943              	.LVL86:
 944 0074 8869     		ldr	r0, [r1, #24]
 945              	.LVL87:
 946 0076 10BD     		pop	{r4, pc}
 947              	.LVL88:
 948              	.L92:
 229:..\common\vms/VMSWrapper.c ****         case volumeTarget:
 949              		.loc 1 229 0
 950 0078 324B     		ldr	r3, .L97+4
 951 007a 1B68     		ldr	r3, [r3]
 952 007c 53F82020 		ldr	r2, [r3, r0, lsl #2]
 953 0080 7C23     		movs	r3, #124
 954 0082 03FB0121 		mla	r1, r3, r1, r2
 955              	.LVL89:
 956 0086 086A     		ldr	r0, [r1, #32]
 957              	.LVL90:
 958 0088 10BD     		pop	{r4, pc}
 959              	.LVL91:
 960              	.L93:
 231:..\common\vms/VMSWrapper.c ****         case volumeFactor:
 961              		.loc 1 231 0
 962 008a 2E4B     		ldr	r3, .L97+4
 963 008c 1B68     		ldr	r3, [r3]
 964 008e 53F82020 		ldr	r2, [r3, r0, lsl #2]
 965 0092 7C23     		movs	r3, #124
 966 0094 03FB0121 		mla	r1, r3, r1, r2
 967              	.LVL92:
 968 0098 C869     		ldr	r0, [r1, #28]
 969              	.LVL93:
 970 009a 10BD     		pop	{r4, pc}
 971              	.LVL94:
 972              	.L94:
 233:..\common\vms/VMSWrapper.c ****             
 973              		.loc 1 233 0
 974 009c 294B     		ldr	r3, .L97+4
 975 009e 1B68     		ldr	r3, [r3]
 976 00a0 53F82020 		ldr	r2, [r3, r0, lsl #2]
 977 00a4 7C23     		movs	r3, #124
 978 00a6 03FB0121 		mla	r1, r3, r1, r2
 979              	.LVL95:
 980 00aa 486A     		ldr	r0, [r1, #36]
 981              	.LVL96:
 982 00ac 10BD     		pop	{r4, pc}
 983              	.LVL97:
 984              	.L84:
 236:..\common\vms/VMSWrapper.c ****         case freqTarget:
 985              		.loc 1 236 0
 986 00ae 254B     		ldr	r3, .L97+4
 987 00b0 1B68     		ldr	r3, [r3]
 988 00b2 53F82020 		ldr	r2, [r3, r0, lsl #2]
 989 00b6 7C23     		movs	r3, #124
 990 00b8 03FB0121 		mla	r1, r3, r1, r2
 991              	.LVL98:
 992 00bc 4868     		ldr	r0, [r1, #4]
ARM GAS  C:\Users\chemi\AppData\Local\Temp\ccr4fFHe.s 			page 28


 993              	.LVL99:
 994 00be 10BD     		pop	{r4, pc}
 995              	.LVL100:
 996              	.L85:
 238:..\common\vms/VMSWrapper.c ****         case freqFactor:
 997              		.loc 1 238 0
 998 00c0 204B     		ldr	r3, .L97+4
 999 00c2 7C22     		movs	r2, #124
 1000 00c4 1B68     		ldr	r3, [r3]
 1001 00c6 5143     		muls	r1, r2, r1
 1002              	.LVL101:
 1003 00c8 53F82030 		ldr	r3, [r3, r0, lsl #2]
 1004 00cc 5858     		ldr	r0, [r3, r1]
 1005              	.LVL102:
 1006 00ce 10BD     		pop	{r4, pc}
 1007              	.LVL103:
 1008              	.L86:
 240:..\common\vms/VMSWrapper.c ****         case pTime:
 1009              		.loc 1 240 0
 1010 00d0 1C4B     		ldr	r3, .L97+4
 1011 00d2 1B68     		ldr	r3, [r3]
 1012 00d4 53F82020 		ldr	r2, [r3, r0, lsl #2]
 1013 00d8 7C23     		movs	r3, #124
 1014 00da 03FB0121 		mla	r1, r3, r1, r2
 1015              	.LVL104:
 1016 00de 8868     		ldr	r0, [r1, #8]
 1017              	.LVL105:
 1018 00e0 10BD     		pop	{r4, pc}
 1019              	.LVL106:
 1020              	.L87:
 246:..\common\vms/VMSWrapper.c ****             
 1021              		.loc 1 246 0
 1022 00e2 184B     		ldr	r3, .L97+4
 1023 00e4 1B68     		ldr	r3, [r3]
 1024 00e6 53F82020 		ldr	r2, [r3, r0, lsl #2]
 1025 00ea 7C23     		movs	r3, #124
 1026 00ec 03FB0121 		mla	r1, r3, r1, r2
 1027              	.LVL107:
 1028 00f0 01EB8401 		add	r1, r1, r4, lsl #2
 1029 00f4 0FE0     		b	.L96
 1030              	.LVL108:
 1031              	.L91:
 249:..\common\vms/VMSWrapper.c ****             
 1032              		.loc 1 249 0
 1033 00f6 134B     		ldr	r3, .L97+4
 1034 00f8 1B68     		ldr	r3, [r3]
 1035 00fa 53F82020 		ldr	r2, [r3, r0, lsl #2]
 1036 00fe 7C23     		movs	r3, #124
 1037 0100 03FB0121 		mla	r1, r3, r1, r2
 1038              	.LVL109:
 1039 0104 886B     		ldr	r0, [r1, #56]
 1040              	.LVL110:
 1041 0106 10BD     		pop	{r4, pc}
 1042              	.LVL111:
 1043              	.L89:
 252:..\common\vms/VMSWrapper.c ****             
 1044              		.loc 1 252 0
ARM GAS  C:\Users\chemi\AppData\Local\Temp\ccr4fFHe.s 			page 29


 1045 0108 0E4B     		ldr	r3, .L97+4
 1046 010a 1B68     		ldr	r3, [r3]
 1047 010c 53F82020 		ldr	r2, [r3, r0, lsl #2]
 1048 0110 7C23     		movs	r3, #124
 1049 0112 03FB0121 		mla	r1, r3, r1, r2
 1050              	.LVL112:
 1051              	.L96:
 1052 0116 486B     		ldr	r0, [r1, #52]
 1053              	.LVL113:
 1054 0118 10BD     		pop	{r4, pc}
 1055              	.LVL114:
 1056              	.L90:
 255:..\common\vms/VMSWrapper.c ****             
 1057              		.loc 1 255 0
 1058 011a 0A4B     		ldr	r3, .L97+4
 1059 011c 1B68     		ldr	r3, [r3]
 1060 011e 53F82020 		ldr	r2, [r3, r0, lsl #2]
 1061 0122 7C23     		movs	r3, #124
 1062 0124 03FB0121 		mla	r1, r3, r1, r2
 1063              	.LVL115:
 1064 0128 086C     		ldr	r0, [r1, #64]
 1065              	.LVL116:
 1066 012a 10BD     		pop	{r4, pc}
 1067              	.LVL117:
 1068              	.L88:
 258:..\common\vms/VMSWrapper.c ****         default:
 1069              		.loc 1 258 0
 1070 012c FFF7FEFF 		bl	VMSW_getSrcChannel
 1071              	.LVL118:
 1072 0130 A4F11001 		sub	r1, r4, #16
 263:..\common\vms/VMSWrapper.c **** 
 1073              		.loc 1 263 0
 1074 0134 BDE81040 		pop	{r4, lr}
 1075              		.cfi_remember_state
 1076              		.cfi_restore 14
 1077              		.cfi_restore 4
 1078              		.cfi_def_cfa_offset 0
 258:..\common\vms/VMSWrapper.c ****         default:
 1079              		.loc 1 258 0
 1080 0138 FFF7FEBF 		b	MidiProcessor_getCCValue
 1081              	.LVL119:
 1082              	.L95:
 1083              		.cfi_restore_state
 219:..\common\vms/VMSWrapper.c ****         
 1084              		.loc 1 219 0
 1085 013c 0020     		movs	r0, #0
 1086              	.LVL120:
 263:..\common\vms/VMSWrapper.c **** 
 1087              		.loc 1 263 0
 1088 013e 10BD     		pop	{r4, pc}
 1089              	.L98:
 1090              		.align	2
 1091              	.L97:
 1092 0140 00000000 		.word	configuration
 1093 0144 00000000 		.word	.LANCHOR0
 1094              		.cfi_endproc
 1095              	.LFE79:
ARM GAS  C:\Users\chemi\AppData\Local\Temp\ccr4fFHe.s 			page 30


 1096              		.size	VMSW_getKnownValue, .-VMSW_getKnownValue
 1097              		.section	.text.VMSW_setKnownValue,"ax",%progbits
 1098              		.align	1
 1099              		.global	VMSW_setKnownValue
 1100              		.thumb
 1101              		.thumb_func
 1102              		.type	VMSW_setKnownValue, %function
 1103              	VMSW_setKnownValue:
 1104              	.LFB80:
 265:..\common\vms/VMSWrapper.c ****     //precalculate voice data pointer, as this might be repeated multiple times in the following co
 1105              		.loc 1 265 0
 1106              		.cfi_startproc
 1107              		@ args = 0, pretend = 0, frame = 0
 1108              		@ frame_needed = 0, uses_anonymous_args = 0
 1109              	.LVL121:
 1110 0000 2DE9F043 		push	{r4, r5, r6, r7, r8, r9, lr}
 1111              		.cfi_def_cfa_offset 28
 1112              		.cfi_offset 4, -28
 1113              		.cfi_offset 5, -24
 1114              		.cfi_offset 6, -20
 1115              		.cfi_offset 7, -16
 1116              		.cfi_offset 8, -12
 1117              		.cfi_offset 9, -8
 1118              		.cfi_offset 14, -4
 1119 0004 1F46     		mov	r7, r3
 267:..\common\vms/VMSWrapper.c ****     
 1120              		.loc 1 267 0
 1121 0006 7F4B     		ldr	r3, .L143
 1122              	.LVL122:
 1123 0008 4FF07C08 		mov	r8, #124
 1124 000c 1B68     		ldr	r3, [r3]
 1125 000e 08FB07F8 		mul	r8, r8, r7
 1126 0012 53F82290 		ldr	r9, [r3, r2, lsl #2]
 269:..\common\vms/VMSWrapper.c ****         //all other values can't be written by VMS
 1127              		.loc 1 269 0
 1128 0016 0F28     		cmp	r0, #15
 265:..\common\vms/VMSWrapper.c ****     //precalculate voice data pointer, as this might be repeated multiple times in the following co
 1129              		.loc 1 265 0
 1130 0018 85B0     		sub	sp, sp, #20
 1131              		.cfi_def_cfa_offset 48
 265:..\common\vms/VMSWrapper.c ****     //precalculate voice data pointer, as this might be repeated multiple times in the following co
 1132              		.loc 1 265 0
 1133 001a 0D46     		mov	r5, r1
 267:..\common\vms/VMSWrapper.c ****     
 1134              		.loc 1 267 0
 1135 001c 09EB0804 		add	r4, r9, r8
 1136              	.LVL123:
 269:..\common\vms/VMSWrapper.c ****         //all other values can't be written by VMS
 1137              		.loc 1 269 0
 1138 0020 1DD8     		bhi	.L101
 1139 0022 0C28     		cmp	r0, #12
 1140 0024 80F0C280 		bcs	.L102
 1141 0028 0628     		cmp	r0, #6
 1142 002a 00F08C80 		beq	.L103
 1143 002e 02D8     		bhi	.L104
 1144 0030 0228     		cmp	r0, #2
 1145 0032 2ED0     		beq	.L105
ARM GAS  C:\Users\chemi\AppData\Local\Temp\ccr4fFHe.s 			page 31


 1146 0034 E3E0     		b	.L99
 1147              	.L104:
 1148 0036 0728     		cmp	r0, #7
 1149 0038 00F08380 		beq	.L106
 1150 003c 0A28     		cmp	r0, #10
 1151 003e 40F0DE80 		bne	.L99
 1152              	.LBB23:
 357:..\common\vms/VMSWrapper.c ****             
 1153              		.loc 1 357 0
 1154 0042 A36A     		ldr	r3, [r4, #40]
 1155 0044 0D09     		lsrs	r5, r1, #4
 1156 0046 6B43     		muls	r3, r5, r3
 1157 0048 4FF22445 		movw	r5, #62500
 1158 004c B3FBF5F5 		udiv	r5, r3, r5
 359:..\common\vms/VMSWrapper.c ****             break;
 1159              		.loc 1 359 0
 1160 0050 0023     		movs	r3, #0
 356:..\common\vms/VMSWrapper.c ****             vData->noiseCurrent = (((uint32_t)value>>4) *  vData->noiseTarget) / 62500; //62500 = 1
 1161              		.loc 1 356 0
 1162 0052 2163     		str	r1, [r4, #48]
 357:..\common\vms/VMSWrapper.c ****             
 1163              		.loc 1 357 0
 1164 0054 E562     		str	r5, [r4, #44]
 359:..\common\vms/VMSWrapper.c ****             break;
 1165              		.loc 1 359 0
 1166 0056 0393     		str	r3, [sp, #12]
 1167 0058 0293     		str	r3, [sp, #8]
 1168 005a 0195     		str	r5, [sp, #4]
 1169 005c 9DE0     		b	.L141
 1170              	.L101:
 1171              	.LBE23:
 269:..\common\vms/VMSWrapper.c ****         //all other values can't be written by VMS
 1172              		.loc 1 269 0
 1173 005e 2328     		cmp	r0, #35
 1174 0060 00F0BE80 		beq	.L108
 1175 0064 0FD8     		bhi	.L109
 1176 0066 2228     		cmp	r0, #34
 1177 0068 40F0C980 		bne	.L99
 1178              	.LBB25:
 369:..\common\vms/VMSWrapper.c ****             break;
 1179              		.loc 1 369 0
 1180 006c 40F2D132 		movw	r2, #977
 1181              	.LVL124:
 1182 0070 236C     		ldr	r3, [r4, #64]
 367:..\common\vms/VMSWrapper.c ****             
 1183              		.loc 1 367 0
 1184 0072 6163     		str	r1, [r4, #52]
 369:..\common\vms/VMSWrapper.c ****             break;
 1185              		.loc 1 369 0
 1186 0074 B3FBF2F3 		udiv	r3, r3, r2
 1187 0078 6349     		ldr	r1, .L143+4
 1188              	.LVL125:
 1189 007a 0093     		str	r3, [sp]
 1190 007c E36B     		ldr	r3, [r4, #60]
 1191 007e 6269     		ldr	r2, [r4, #20]
 1192 0080 B5FBF1F1 		udiv	r1, r5, r1
 1193 0084 B8E0     		b	.L139
ARM GAS  C:\Users\chemi\AppData\Local\Temp\ccr4fFHe.s 			page 32


 1194              	.LVL126:
 1195              	.L109:
 1196              	.LBE25:
 269:..\common\vms/VMSWrapper.c ****         //all other values can't be written by VMS
 1197              		.loc 1 269 0
 1198 0086 2428     		cmp	r0, #36
 1199 0088 00F09480 		beq	.L111
 1200 008c 2528     		cmp	r0, #37
 1201 008e 25D0     		beq	.L112
 1202 0090 B5E0     		b	.L99
 1203              	.L105:
 1204              	.LBB26:
 278:..\common\vms/VMSWrapper.c ****             
 1205              		.loc 1 278 0
 1206 0092 2369     		ldr	r3, [r4, #16]
 1207 0094 0A09     		lsrs	r2, r1, #4
 1208              	.LVL127:
 1209 0096 5343     		muls	r3, r2, r3
 1210 0098 4FF22442 		movw	r2, #62500
 1211 009c B3FBF2F2 		udiv	r2, r3, r2
 283:..\common\vms/VMSWrapper.c ****             if(vData->hypervoiceCount > 0) SigGen_setHyperVoiceVMS(voiceId, vData->hypervoiceCount 
 1212              		.loc 1 283 0
 1213 00a0 0023     		movs	r3, #0
 276:..\common\vms/VMSWrapper.c ****             
 1214              		.loc 1 276 0
 1215 00a2 A161     		str	r1, [r4, #24]
 278:..\common\vms/VMSWrapper.c ****             
 1216              		.loc 1 278 0
 1217 00a4 6261     		str	r2, [r4, #20]
 283:..\common\vms/VMSWrapper.c ****             if(vData->hypervoiceCount > 0) SigGen_setHyperVoiceVMS(voiceId, vData->hypervoiceCount 
 1218              		.loc 1 283 0
 1219 00a6 0393     		str	r3, [sp, #12]
 1220 00a8 0293     		str	r3, [sp, #8]
 1221 00aa E36A     		ldr	r3, [r4, #44]
 1222 00ac 0121     		movs	r1, #1
 1223              	.LVL128:
 1224 00ae 0193     		str	r3, [sp, #4]
 1225 00b0 6368     		ldr	r3, [r4, #4]
 1226 00b2 3846     		mov	r0, r7
 1227              	.LVL129:
 1228 00b4 0093     		str	r3, [sp]
 1229 00b6 236A     		ldr	r3, [r4, #32]
 1230 00b8 FFF7FEFF 		bl	SigGen_setVoiceVMS
 1231              	.LVL130:
 284:..\common\vms/VMSWrapper.c ****             break;
 1232              		.loc 1 284 0
 1233 00bc 616B     		ldr	r1, [r4, #52]
 1234 00be 0029     		cmp	r1, #0
 1235 00c0 00F09D80 		beq	.L99
 284:..\common\vms/VMSWrapper.c ****             break;
 1236              		.loc 1 284 0 is_stmt 0 discriminator 1
 1237 00c4 40F2D132 		movw	r2, #977
 1238 00c8 236C     		ldr	r3, [r4, #64]
 1239 00ca 4F48     		ldr	r0, .L143+4
 1240 00cc B3FBF2F3 		udiv	r3, r3, r2
 1241 00d0 0093     		str	r3, [sp]
 1242 00d2 E36B     		ldr	r3, [r4, #60]
ARM GAS  C:\Users\chemi\AppData\Local\Temp\ccr4fFHe.s 			page 33


 1243 00d4 6269     		ldr	r2, [r4, #20]
 1244 00d6 B1FBF0F1 		udiv	r1, r1, r0
 1245 00da 8DE0     		b	.L139
 1246              	.LVL131:
 1247              	.L112:
 294:..\common\vms/VMSWrapper.c ****                 //volume is max, no need to scale the volume, just write a scaled down version of t
 1248              		.loc 1 294 0 is_stmt 1
 1249 00dc 47F6FF72 		movw	r2, #32767
 1250              	.LVL132:
 1251 00e0 E369     		ldr	r3, [r4, #28]
 307:..\common\vms/VMSWrapper.c ****                 //get the current volume from the factor. We need to scale this to prevent overflow
 1252              		.loc 1 307 0
 1253 00e2 606B     		ldr	r0, [r4, #52]
 1254              	.LVL133:
 294:..\common\vms/VMSWrapper.c ****                 //volume is max, no need to scale the volume, just write a scaled down version of t
 1255              		.loc 1 294 0
 1256 00e4 9342     		cmp	r3, r2
 296:..\common\vms/VMSWrapper.c ****             }else{
 1257              		.loc 1 296 0
 1258 00e6 04BF     		itt	eq
 1259 00e8 0A11     		asreq	r2, r1, #4
 1260 00ea 2262     		streq	r2, [r4, #32]
 300:..\common\vms/VMSWrapper.c ****                 vData->volumeCurrent = vData->volumeTarget; //62500 = 1000000 >> 4
 1261              		.loc 1 300 0
 1262 00ec 464A     		ldr	r2, .L143+4
 291:..\common\vms/VMSWrapper.c ****             
 1263              		.loc 1 291 0
 1264 00ee 6162     		str	r1, [r4, #36]
 300:..\common\vms/VMSWrapper.c ****                 vData->volumeCurrent = vData->volumeTarget; //62500 = 1000000 >> 4
 1265              		.loc 1 300 0
 1266 00f0 9142     		cmp	r1, r2
 303:..\common\vms/VMSWrapper.c ****             }
 1267              		.loc 1 303 0
 1268 00f2 1FBF     		itttt	ne
 1269 00f4 0D09     		lsrne	r5, r1, #4
 1270 00f6 6B43     		mulne	r3, r3, r5
 1271 00f8 4FF22445 		movwne	r5, #62500
 1272 00fc B3FBF5F3 		udivne	r3, r3, r5
 1273 0100 2362     		str	r3, [r4, #32]
 307:..\common\vms/VMSWrapper.c ****                 //get the current volume from the factor. We need to scale this to prevent overflow
 1274              		.loc 1 307 0
 1275 0102 C0B1     		cbz	r0, .L116
 310:..\common\vms/VMSWrapper.c ****                     //volume is max, no need to scale the volume, just write a scaled down version 
 1276              		.loc 1 310 0
 1277 0104 A26B     		ldr	r2, [r4, #56]
 1278 0106 4049     		ldr	r1, .L143+4
 1279              	.LVL134:
 1280 0108 236A     		ldr	r3, [r4, #32]
 1281 010a 8A42     		cmp	r2, r1
 314:..\common\vms/VMSWrapper.c ****                 }
 1282              		.loc 1 314 0
 1283 010c 1FBF     		itttt	ne
 1284 010e 1209     		lsrne	r2, r2, #4
 1285 0110 5343     		mulne	r3, r3, r2
 1286 0112 4FF22442 		movwne	r2, #62500
 1287 0116 B3FBF2F3 		udivne	r3, r3, r2
 317:..\common\vms/VMSWrapper.c ****             }
ARM GAS  C:\Users\chemi\AppData\Local\Temp\ccr4fFHe.s 			page 34


 1288              		.loc 1 317 0
 1289 011a 40F2D132 		movw	r2, #977
 314:..\common\vms/VMSWrapper.c ****                 }
 1290              		.loc 1 314 0
 1291 011e E363     		str	r3, [r4, #60]
 317:..\common\vms/VMSWrapper.c ****             }
 1292              		.loc 1 317 0
 1293 0120 236C     		ldr	r3, [r4, #64]
 1294 0122 B0FBF1F1 		udiv	r1, r0, r1
 1295 0126 B3FBF2F3 		udiv	r3, r3, r2
 1296 012a 0093     		str	r3, [sp]
 1297              	.LVL135:
 1298 012c E36B     		ldr	r3, [r4, #60]
 1299 012e 6269     		ldr	r2, [r4, #20]
 1300 0130 3846     		mov	r0, r7
 1301 0132 FFF7FEFF 		bl	SigGen_setHyperVoiceVMS
 1302              	.LVL136:
 1303              	.L116:
 321:..\common\vms/VMSWrapper.c ****             break;
 1304              		.loc 1 321 0
 1305 0136 0023     		movs	r3, #0
 1306 0138 0393     		str	r3, [sp, #12]
 1307 013a 0293     		str	r3, [sp, #8]
 1308 013c E36A     		ldr	r3, [r4, #44]
 1309 013e 0193     		str	r3, [sp, #4]
 1310 0140 2BE0     		b	.L141
 1311              	.LVL137:
 1312              	.L106:
 325:..\common\vms/VMSWrapper.c ****             break;
 1313              		.loc 1 325 0
 1314 0142 6160     		str	r1, [r4, #4]
 326:..\common\vms/VMSWrapper.c ****             
 1315              		.loc 1 326 0
 1316 0144 5BE0     		b	.L99
 1317              	.L103:
 338:..\common\vms/VMSWrapper.c ****             
 1318              		.loc 1 338 0
 1319 0146 236D     		ldr	r3, [r4, #80]
 329:..\common\vms/VMSWrapper.c ****             
 1320              		.loc 1 329 0
 1321 0148 A160     		str	r1, [r4, #8]
 338:..\common\vms/VMSWrapper.c ****             
 1322              		.loc 1 338 0
 1323 014a 1B06     		lsls	r3, r3, #24
 332:..\common\vms/VMSWrapper.c ****             
 1324              		.loc 1 332 0
 1325 014c 59F80860 		ldr	r6, [r9, r8]
 1326              	.LVL138:
 338:..\common\vms/VMSWrapper.c ****             
 1327              		.loc 1 338 0
 1328 0150 05D5     		bpl	.L119
 338:..\common\vms/VMSWrapper.c ****             
 1329              		.loc 1 338 0 is_stmt 0 discriminator 1
 1330 0152 94F86000 		ldrb	r0, [r4, #96]	@ zero_extendqisi2
 1331              	.LVL139:
 1332 0156 FFF7FEFF 		bl	MidiProcessor_getBendFactor
 1333              	.LVL140:
ARM GAS  C:\Users\chemi\AppData\Local\Temp\ccr4fFHe.s 			page 35


 1334 015a 7043     		muls	r0, r6, r0
 1335 015c 460B     		lsrs	r6, r0, #13
 1336              	.LVL141:
 1337              	.L119:
 341:..\common\vms/VMSWrapper.c ****                 int32_t difference = (int32_t) vData->freqLast - (int32_t) vData->freqTarget;
 1338              		.loc 1 341 0 is_stmt 1
 1339 015e A36C     		ldr	r3, [r4, #72]
 1340 0160 53B1     		cbz	r3, .L120
 1341              	.LVL142:
 1342              	.LBB24:
 343:..\common\vms/VMSWrapper.c ****                 newFrequency += difference;
 1343              		.loc 1 343 0
 1344 0162 E268     		ldr	r2, [r4, #12]
 1345 0164 59F80810 		ldr	r1, [r9, r8]
 1346 0168 9B11     		asrs	r3, r3, #6
 1347 016a 521A     		subs	r2, r2, r1
 1348              	.LVL143:
 1349 016c 5343     		muls	r3, r2, r3
 1350              	.LVL144:
 344:..\common\vms/VMSWrapper.c ****             }
 1351              		.loc 1 344 0
 1352 016e 43F60952 		movw	r2, #15625
 1353 0172 93FBF2F3 		sdiv	r3, r3, r2
 1354              	.LVL145:
 1355 0176 1E44     		add	r6, r6, r3
 1356              	.LVL146:
 1357              	.L120:
 1358              	.LBE24:
 348:..\common\vms/VMSWrapper.c ****             
 1359              		.loc 1 348 0
 1360 0178 234B     		ldr	r3, .L143+4
 1361 017a 9D42     		cmp	r5, r3
 1362 017c 1FBF     		itttt	ne
 1363 017e 43F60950 		movwne	r0, #15625
 1364 0182 AD11     		asrne	r5, r5, #6
 1365              	.LVL147:
 1366 0184 6E43     		mulne	r6, r6, r5
 1367              	.LVL148:
 1368 0186 B6FBF0F6 		udivne	r6, r6, r0
 1369              	.LVL149:
 352:..\common\vms/VMSWrapper.c ****             break;
 1370              		.loc 1 352 0
 1371 018a 0023     		movs	r3, #0
 350:..\common\vms/VMSWrapper.c ****             
 1372              		.loc 1 350 0
 1373 018c 6660     		str	r6, [r4, #4]
 352:..\common\vms/VMSWrapper.c ****             break;
 1374              		.loc 1 352 0
 1375 018e 0393     		str	r3, [sp, #12]
 1376 0190 0293     		str	r3, [sp, #8]
 1377 0192 E36A     		ldr	r3, [r4, #44]
 1378 0194 0096     		str	r6, [sp]
 1379 0196 0193     		str	r3, [sp, #4]
 1380 0198 01E0     		b	.L142
 1381              	.LVL150:
 1382              	.L141:
 359:..\common\vms/VMSWrapper.c ****             break;
ARM GAS  C:\Users\chemi\AppData\Local\Temp\ccr4fFHe.s 			page 36


 1383              		.loc 1 359 0
 1384 019a 6368     		ldr	r3, [r4, #4]
 1385 019c 0093     		str	r3, [sp]
 1386              	.L142:
 1387 019e 236A     		ldr	r3, [r4, #32]
 1388 01a0 6269     		ldr	r2, [r4, #20]
 1389 01a2 0121     		movs	r1, #1
 1390 01a4 3846     		mov	r0, r7
 1391 01a6 FFF7FEFF 		bl	SigGen_setVoiceVMS
 1392              	.LVL151:
 360:..\common\vms/VMSWrapper.c ****             
 1393              		.loc 1 360 0
 1394 01aa 28E0     		b	.L99
 1395              	.LVL152:
 1396              	.L102:
 363:..\common\vms/VMSWrapper.c ****             break;
 1397              		.loc 1 363 0
 1398 01ac 04EB8000 		add	r0, r4, r0, lsl #2
 1399              	.LVL153:
 1400 01b0 4163     		str	r1, [r0, #52]
 364:..\common\vms/VMSWrapper.c **** 
 1401              		.loc 1 364 0
 1402 01b2 24E0     		b	.L99
 1403              	.LVL154:
 1404              	.L111:
 373:..\common\vms/VMSWrapper.c ****             
 1405              		.loc 1 373 0
 1406 01b4 A163     		str	r1, [r4, #56]
 376:..\common\vms/VMSWrapper.c ****                 //volume is max, no need to scale the volume, just write a scaled down version of t
 1407              		.loc 1 376 0
 1408 01b6 1449     		ldr	r1, .L143+4
 1409              	.LVL155:
 1410 01b8 236A     		ldr	r3, [r4, #32]
 1411 01ba 8D42     		cmp	r5, r1
 380:..\common\vms/VMSWrapper.c ****             }
 1412              		.loc 1 380 0
 1413 01bc 1FBF     		itttt	ne
 1414 01be 2D09     		lsrne	r5, r5, #4
 1415              	.LVL156:
 1416 01c0 6B43     		mulne	r3, r3, r5
 1417 01c2 4FF22445 		movwne	r5, #62500
 1418 01c6 B3FBF5F3 		udivne	r3, r3, r5
 383:..\common\vms/VMSWrapper.c ****             break;
 1419              		.loc 1 383 0
 1420 01ca 40F2D132 		movw	r2, #977
 1421              	.LVL157:
 380:..\common\vms/VMSWrapper.c ****             }
 1422              		.loc 1 380 0
 1423 01ce E363     		str	r3, [r4, #60]
 383:..\common\vms/VMSWrapper.c ****             break;
 1424              		.loc 1 383 0
 1425 01d0 236C     		ldr	r3, [r4, #64]
 1426 01d2 606B     		ldr	r0, [r4, #52]
 1427              	.LVL158:
 1428 01d4 B3FBF2F3 		udiv	r3, r3, r2
 1429 01d8 0093     		str	r3, [sp]
 1430              	.LVL159:
ARM GAS  C:\Users\chemi\AppData\Local\Temp\ccr4fFHe.s 			page 37


 1431 01da E36B     		ldr	r3, [r4, #60]
 1432 01dc 6269     		ldr	r2, [r4, #20]
 1433 01de 09E0     		b	.L140
 1434              	.LVL160:
 1435              	.L108:
 387:..\common\vms/VMSWrapper.c ****             
 1436              		.loc 1 387 0
 1437 01e0 2164     		str	r1, [r4, #64]
 389:..\common\vms/VMSWrapper.c ****             break;
 1438              		.loc 1 389 0
 1439 01e2 40F2D131 		movw	r1, #977
 1440              	.LVL161:
 1441 01e6 B5FBF1F5 		udiv	r5, r5, r1
 1442              	.LVL162:
 1443 01ea 606B     		ldr	r0, [r4, #52]
 1444              	.LVL163:
 1445 01ec 0095     		str	r5, [sp]
 1446              	.LVL164:
 1447 01ee E36B     		ldr	r3, [r4, #60]
 1448 01f0 6269     		ldr	r2, [r4, #20]
 1449              	.LVL165:
 1450 01f2 0549     		ldr	r1, .L143+4
 1451              	.L140:
 1452 01f4 B0FBF1F1 		udiv	r1, r0, r1
 1453              	.L139:
 1454 01f8 3846     		mov	r0, r7
 1455 01fa FFF7FEFF 		bl	SigGen_setHyperVoiceVMS
 1456              	.LVL166:
 1457              	.L99:
 1458              	.LBE26:
 392:..\common\vms/VMSWrapper.c **** 
 1459              		.loc 1 392 0
 1460 01fe 05B0     		add	sp, sp, #20
 1461              		.cfi_def_cfa_offset 28
 1462              		@ sp needed
 1463 0200 BDE8F083 		pop	{r4, r5, r6, r7, r8, r9, pc}
 1464              	.LVL167:
 1465              	.L144:
 1466              		.align	2
 1467              	.L143:
 1468 0204 00000000 		.word	.LANCHOR0
 1469 0208 40420F00 		.word	1000000
 1470              		.cfi_endproc
 1471              	.LFE80:
 1472              		.size	VMSW_setKnownValue, .-VMSW_setKnownValue
 1473              		.section	.text.VMSW_getCurrentFactor,"ax",%progbits
 1474              		.align	1
 1475              		.global	VMSW_getCurrentFactor
 1476              		.thumb
 1477              		.thumb_func
 1478              		.type	VMSW_getCurrentFactor, %function
 1479              	VMSW_getCurrentFactor:
 1480              	.LFB81:
 394:..\common\vms/VMSWrapper.c ****     switch(ID){
 1481              		.loc 1 394 0
 1482              		.cfi_startproc
 1483              		@ args = 0, pretend = 0, frame = 0
ARM GAS  C:\Users\chemi\AppData\Local\Temp\ccr4fFHe.s 			page 38


 1484              		@ frame_needed = 0, uses_anonymous_args = 0
 1485              		@ link register save eliminated.
 1486              	.LVL168:
 395:..\common\vms/VMSWrapper.c ****         default:
 1487              		.loc 1 395 0
 1488 0000 0F28     		cmp	r0, #15
 1489 0002 10D8     		bhi	.L147
 1490 0004 0C28     		cmp	r0, #12
 1491 0006 3BD2     		bcs	.L148
 1492 0008 0628     		cmp	r0, #6
 1493 000a 27D0     		beq	.L149
 1494 000c 0A28     		cmp	r0, #10
 1495 000e 2ED0     		beq	.L150
 1496 0010 0228     		cmp	r0, #2
 1497 0012 52D1     		bne	.L157
 399:..\common\vms/VMSWrapper.c ****         case volume:
 1498              		.loc 1 399 0
 1499 0014 2A4B     		ldr	r3, .L158
 1500 0016 1B68     		ldr	r3, [r3]
 1501 0018 53F82110 		ldr	r1, [r3, r1, lsl #2]
 1502              	.LVL169:
 1503 001c 7C23     		movs	r3, #124
 1504 001e 03FB0212 		mla	r2, r3, r2, r1
 1505              	.LVL170:
 1506 0022 9069     		ldr	r0, [r2, #24]
 1507              	.LVL171:
 1508 0024 7047     		bx	lr
 1509              	.LVL172:
 1510              	.L147:
 395:..\common\vms/VMSWrapper.c ****         default:
 1511              		.loc 1 395 0
 1512 0026 2328     		cmp	r0, #35
 1513 0028 3ED0     		beq	.L152
 1514 002a 0AD8     		bhi	.L153
 1515 002c 2228     		cmp	r0, #34
 1516 002e 44D1     		bne	.L157
 411:..\common\vms/VMSWrapper.c ****         case HyperVoice_Volume:
 1517              		.loc 1 411 0
 1518 0030 234B     		ldr	r3, .L158
 1519 0032 1B68     		ldr	r3, [r3]
 1520 0034 53F82110 		ldr	r1, [r3, r1, lsl #2]
 1521              	.LVL173:
 1522 0038 7C23     		movs	r3, #124
 1523 003a 03FB0212 		mla	r2, r3, r2, r1
 1524              	.LVL174:
 1525 003e 506B     		ldr	r0, [r2, #52]
 1526              	.LVL175:
 1527 0040 7047     		bx	lr
 1528              	.LVL176:
 1529              	.L153:
 395:..\common\vms/VMSWrapper.c ****         default:
 1530              		.loc 1 395 0
 1531 0042 2428     		cmp	r0, #36
 1532 0044 27D0     		beq	.L155
 1533 0046 2528     		cmp	r0, #37
 1534 0048 37D1     		bne	.L157
 401:..\common\vms/VMSWrapper.c ****         case frequency:
ARM GAS  C:\Users\chemi\AppData\Local\Temp\ccr4fFHe.s 			page 39


 1535              		.loc 1 401 0
 1536 004a 1D4B     		ldr	r3, .L158
 1537 004c 1B68     		ldr	r3, [r3]
 1538 004e 53F82110 		ldr	r1, [r3, r1, lsl #2]
 1539              	.LVL177:
 1540 0052 7C23     		movs	r3, #124
 1541 0054 03FB0212 		mla	r2, r3, r2, r1
 1542              	.LVL178:
 1543 0058 506A     		ldr	r0, [r2, #36]
 1544              	.LVL179:
 1545 005a 7047     		bx	lr
 1546              	.LVL180:
 1547              	.L149:
 403:..\common\vms/VMSWrapper.c ****         case noise:
 1548              		.loc 1 403 0
 1549 005c 184B     		ldr	r3, .L158
 1550 005e 1B68     		ldr	r3, [r3]
 1551 0060 53F82110 		ldr	r1, [r3, r1, lsl #2]
 1552              	.LVL181:
 1553 0064 7C23     		movs	r3, #124
 1554 0066 03FB0212 		mla	r2, r3, r2, r1
 1555              	.LVL182:
 1556 006a 9068     		ldr	r0, [r2, #8]
 1557              	.LVL183:
 1558 006c 7047     		bx	lr
 1559              	.LVL184:
 1560              	.L150:
 405:..\common\vms/VMSWrapper.c ****             
 1561              		.loc 1 405 0
 1562 006e 144B     		ldr	r3, .L158
 1563 0070 1B68     		ldr	r3, [r3]
 1564 0072 53F82110 		ldr	r1, [r3, r1, lsl #2]
 1565              	.LVL185:
 1566 0076 7C23     		movs	r3, #124
 1567 0078 03FB0212 		mla	r2, r3, r2, r1
 1568              	.LVL186:
 1569 007c 106B     		ldr	r0, [r2, #48]
 1570              	.LVL187:
 1571 007e 7047     		bx	lr
 1572              	.LVL188:
 1573              	.L148:
 408:..\common\vms/VMSWrapper.c ****             
 1574              		.loc 1 408 0
 1575 0080 0F4B     		ldr	r3, .L158
 1576 0082 1B68     		ldr	r3, [r3]
 1577 0084 53F82110 		ldr	r1, [r3, r1, lsl #2]
 1578              	.LVL189:
 1579 0088 7C23     		movs	r3, #124
 1580 008a 03FB0212 		mla	r2, r3, r2, r1
 1581              	.LVL190:
 1582 008e 02EB8000 		add	r0, r2, r0, lsl #2
 1583              	.LVL191:
 1584 0092 406B     		ldr	r0, [r0, #52]
 1585 0094 7047     		bx	lr
 1586              	.LVL192:
 1587              	.L155:
 413:..\common\vms/VMSWrapper.c ****         case HyperVoice_Phase:
ARM GAS  C:\Users\chemi\AppData\Local\Temp\ccr4fFHe.s 			page 40


 1588              		.loc 1 413 0
 1589 0096 0A4B     		ldr	r3, .L158
 1590 0098 1B68     		ldr	r3, [r3]
 1591 009a 53F82110 		ldr	r1, [r3, r1, lsl #2]
 1592              	.LVL193:
 1593 009e 7C23     		movs	r3, #124
 1594 00a0 03FB0212 		mla	r2, r3, r2, r1
 1595              	.LVL194:
 1596 00a4 906B     		ldr	r0, [r2, #56]
 1597              	.LVL195:
 1598 00a6 7047     		bx	lr
 1599              	.LVL196:
 1600              	.L152:
 415:..\common\vms/VMSWrapper.c ****     }
 1601              		.loc 1 415 0
 1602 00a8 054B     		ldr	r3, .L158
 1603 00aa 1B68     		ldr	r3, [r3]
 1604 00ac 53F82130 		ldr	r3, [r3, r1, lsl #2]
 1605 00b0 7C21     		movs	r1, #124
 1606              	.LVL197:
 1607 00b2 01FB0232 		mla	r2, r1, r2, r3
 1608              	.LVL198:
 1609 00b6 106C     		ldr	r0, [r2, #64]
 1610              	.LVL199:
 1611 00b8 7047     		bx	lr
 1612              	.LVL200:
 1613              	.L157:
 397:..\common\vms/VMSWrapper.c ****         case onTime:
 1614              		.loc 1 397 0
 1615 00ba 0020     		movs	r0, #0
 1616              	.LVL201:
 418:..\common\vms/VMSWrapper.c **** 
 1617              		.loc 1 418 0
 1618 00bc 7047     		bx	lr
 1619              	.L159:
 1620 00be 00BF     		.align	2
 1621              	.L158:
 1622 00c0 00000000 		.word	.LANCHOR0
 1623              		.cfi_endproc
 1624              	.LFE81:
 1625              		.size	VMSW_getCurrentFactor, .-VMSW_getCurrentFactor
 1626              		.section	.text.VMSW_panicHandler,"ax",%progbits
 1627              		.align	1
 1628              		.global	VMSW_panicHandler
 1629              		.thumb
 1630              		.thumb_func
 1631              		.type	VMSW_panicHandler, %function
 1632              	VMSW_panicHandler:
 1633              	.LFB83:
 445:..\common\vms/VMSWrapper.c ****         }
 446:..\common\vms/VMSWrapper.c ****     }
 447:..\common\vms/VMSWrapper.c ****     
 448:..\common\vms/VMSWrapper.c ****     return oldestVoice;
 449:..\common\vms/VMSWrapper.c **** }
 450:..\common\vms/VMSWrapper.c **** 
 451:..\common\vms/VMSWrapper.c **** void VMSW_panicHandler(){
 1634              		.loc 1 451 0
ARM GAS  C:\Users\chemi\AppData\Local\Temp\ccr4fFHe.s 			page 41


 1635              		.cfi_startproc
 1636              		@ args = 0, pretend = 0, frame = 0
 1637              		@ frame_needed = 0, uses_anonymous_args = 0
 1638 0000 08B5     		push	{r3, lr}
 1639              		.cfi_def_cfa_offset 8
 1640              		.cfi_offset 3, -8
 1641              		.cfi_offset 14, -4
 452:..\common\vms/VMSWrapper.c ****     VMS_getSemaphore();
 1642              		.loc 1 452 0
 1643 0002 FFF7FEFF 		bl	VMS_getSemaphore
 1644              	.LVL202:
 453:..\common\vms/VMSWrapper.c ****     VMS_killBlocks();
 1645              		.loc 1 453 0
 1646 0006 FFF7FEFF 		bl	VMS_killBlocks
 1647              	.LVL203:
 1648              	.LBB27:
 1649              	.LBB28:
 454:..\common\vms/VMSWrapper.c ****     
 455:..\common\vms/VMSWrapper.c ****     //also kill all voices
 456:..\common\vms/VMSWrapper.c ****     for(uint32_t currOutput = 0; currOutput < SIGGEN_OUTPUTCOUNT; currOutput++){
 457:..\common\vms/VMSWrapper.c ****         for(uint8_t currVoice = 0; currVoice < SIGGEN_VOICECOUNT; currVoice++){
 458:..\common\vms/VMSWrapper.c ****             voiceData[currOutput][currVoice].on = 0;
 1650              		.loc 1 458 0
 1651 000a 084B     		ldr	r3, .L163
 1652 000c 0022     		movs	r2, #0
 1653 000e 1B68     		ldr	r3, [r3]
 1654 0010 1B68     		ldr	r3, [r3]
 1655 0012 03F53A71 		add	r1, r3, #744
 1656              	.LVL204:
 1657              	.L161:
 1658              		.loc 1 458 0 is_stmt 0 discriminator 3
 1659 0016 DA64     		str	r2, [r3, #76]
 459:..\common\vms/VMSWrapper.c ****             voiceData[currOutput][currVoice].volumeCurrent = 0;
 1660              		.loc 1 459 0 is_stmt 1 discriminator 3
 1661 0018 1A62     		str	r2, [r3, #32]
 460:..\common\vms/VMSWrapper.c ****             voiceData[currOutput][currVoice].freqCurrent = 0;
 1662              		.loc 1 460 0 discriminator 3
 1663 001a 5A60     		str	r2, [r3, #4]
 461:..\common\vms/VMSWrapper.c ****             voiceData[currOutput][currVoice].freqLast = 0; //TODO: make sure this won't make portam
 1664              		.loc 1 461 0 discriminator 3
 1665 001c DA60     		str	r2, [r3, #12]
 1666 001e 7C33     		adds	r3, r3, #124
 457:..\common\vms/VMSWrapper.c ****             voiceData[currOutput][currVoice].on = 0;
 1667              		.loc 1 457 0 discriminator 3
 1668 0020 9942     		cmp	r1, r3
 1669 0022 F8D1     		bne	.L161
 1670              	.LVL205:
 1671              	.LBE28:
 1672              	.LBE27:
 462:..\common\vms/VMSWrapper.c ****         }
 463:..\common\vms/VMSWrapper.c ****     }
 464:..\common\vms/VMSWrapper.c ****     VMS_returnSemaphore();
 465:..\common\vms/VMSWrapper.c **** }
 1673              		.loc 1 465 0
 1674 0024 BDE80840 		pop	{r3, lr}
 1675              		.cfi_restore 14
 1676              		.cfi_restore 3
ARM GAS  C:\Users\chemi\AppData\Local\Temp\ccr4fFHe.s 			page 42


 1677              		.cfi_def_cfa_offset 0
 464:..\common\vms/VMSWrapper.c **** }
 1678              		.loc 1 464 0
 1679 0028 FFF7FEBF 		b	VMS_returnSemaphore
 1680              	.LVL206:
 1681              	.L164:
 1682              		.align	2
 1683              	.L163:
 1684 002c 00000000 		.word	.LANCHOR0
 1685              		.cfi_endproc
 1686              	.LFE83:
 1687              		.size	VMSW_panicHandler, .-VMSW_panicHandler
 1688              		.section	.text.VMSW_bendHandler,"ax",%progbits
 1689              		.align	1
 1690              		.global	VMSW_bendHandler
 1691              		.thumb
 1692              		.thumb_func
 1693              		.type	VMSW_bendHandler, %function
 1694              	VMSW_bendHandler:
 1695              	.LFB84:
 466:..\common\vms/VMSWrapper.c **** 
 467:..\common\vms/VMSWrapper.c **** void VMSW_bendHandler(uint32_t channel){
 1696              		.loc 1 467 0
 1697              		.cfi_startproc
 1698              		@ args = 0, pretend = 0, frame = 0
 1699              		@ frame_needed = 0, uses_anonymous_args = 0
 1700              	.LVL207:
 1701 0000 F8B5     		push	{r3, r4, r5, r6, r7, lr}
 1702              		.cfi_def_cfa_offset 24
 1703              		.cfi_offset 3, -24
 1704              		.cfi_offset 4, -20
 1705              		.cfi_offset 5, -16
 1706              		.cfi_offset 6, -12
 1707              		.cfi_offset 7, -8
 1708              		.cfi_offset 14, -4
 1709              		.loc 1 467 0
 1710 0002 0546     		mov	r5, r0
 468:..\common\vms/VMSWrapper.c ****     VMS_getSemaphore();
 1711              		.loc 1 468 0
 1712 0004 FFF7FEFF 		bl	VMS_getSemaphore
 1713              	.LVL208:
 1714              	.LBB29:
 1715              	.LBB30:
 1716              	.LBB31:
 469:..\common\vms/VMSWrapper.c ****     //check all notes. Find which ones need to be updated
 470:..\common\vms/VMSWrapper.c ****     for(uint32_t currOutput = 0; currOutput < SIGGEN_OUTPUTCOUNT; currOutput++){
 471:..\common\vms/VMSWrapper.c ****         for(uint8_t currVoice = 0; currVoice < SIGGEN_VOICECOUNT; currVoice++){
 472:..\common\vms/VMSWrapper.c ****             //precalculate voice data pointer, as this might be repeated multiple times in the foll
 473:..\common\vms/VMSWrapper.c ****             VMS_VoiceData_t * vData = &(voiceData[currOutput][currVoice]);
 1717              		.loc 1 473 0
 1718 0008 0E4E     		ldr	r6, .L175
 1719              	.LBE31:
 1720              	.LBE30:
 1721              	.LBE29:
 468:..\common\vms/VMSWrapper.c ****     VMS_getSemaphore();
 1722              		.loc 1 468 0
 1723 000a 0024     		movs	r4, #0
ARM GAS  C:\Users\chemi\AppData\Local\Temp\ccr4fFHe.s 			page 43


 1724              	.LBB34:
 1725              	.LBB33:
 1726              	.LBB32:
 1727              		.loc 1 473 0
 1728 000c 7C27     		movs	r7, #124
 1729              	.LVL209:
 1730              	.L167:
 1731 000e 3368     		ldr	r3, [r6]
 1732 0010 1968     		ldr	r1, [r3]
 1733 0012 07FB0411 		mla	r1, r7, r4, r1
 1734              	.LVL210:
 474:..\common\vms/VMSWrapper.c ****             
 475:..\common\vms/VMSWrapper.c ****             if(vData->sourceChannel == channel && (vData->on > 0)){
 1735              		.loc 1 475 0
 1736 0016 91F86030 		ldrb	r3, [r1, #96]	@ zero_extendqisi2
 1737 001a AB42     		cmp	r3, r5
 1738 001c 0AD1     		bne	.L166
 1739              		.loc 1 475 0 is_stmt 0 discriminator 1
 1740 001e CB6C     		ldr	r3, [r1, #76]
 1741 0020 43B1     		cbz	r3, .L166
 476:..\common\vms/VMSWrapper.c ****                 //call VMSW_setKnownValue to trigger a value recalculation
 477:..\common\vms/VMSWrapper.c **** 
 478:..\common\vms/VMSWrapper.c ****                 //is pitchbend enabled on the current voice? If not just skip calculations
 479:..\common\vms/VMSWrapper.c ****                 if(!(vData->flags & MAP_ENA_PITCHBEND)) continue;
 1742              		.loc 1 479 0 is_stmt 1
 1743 0022 0B6D     		ldr	r3, [r1, #80]
 1744 0024 1B06     		lsls	r3, r3, #24
 1745 0026 05D5     		bpl	.L166
 480:..\common\vms/VMSWrapper.c ****                 
 481:..\common\vms/VMSWrapper.c ****                 VMSW_setKnownValue(frequency, vData->freqFactor, currOutput, currVoice);
 1746              		.loc 1 481 0
 1747 0028 2346     		mov	r3, r4
 1748 002a 0022     		movs	r2, #0
 1749 002c 8968     		ldr	r1, [r1, #8]
 1750              	.LVL211:
 1751 002e 0620     		movs	r0, #6
 1752 0030 FFF7FEFF 		bl	VMSW_setKnownValue
 1753              	.LVL212:
 1754              	.L166:
 1755 0034 0134     		adds	r4, r4, #1
 1756              	.LVL213:
 1757              	.LBE32:
 471:..\common\vms/VMSWrapper.c ****             //precalculate voice data pointer, as this might be repeated multiple times in the foll
 1758              		.loc 1 471 0 discriminator 2
 1759 0036 062C     		cmp	r4, #6
 1760 0038 E9D1     		bne	.L167
 1761              	.LVL214:
 1762              	.LBE33:
 1763              	.LBE34:
 482:..\common\vms/VMSWrapper.c ****             }
 483:..\common\vms/VMSWrapper.c ****         }
 484:..\common\vms/VMSWrapper.c ****     }
 485:..\common\vms/VMSWrapper.c ****     VMS_returnSemaphore();
 486:..\common\vms/VMSWrapper.c **** }
 1764              		.loc 1 486 0
 1765 003a BDE8F840 		pop	{r3, r4, r5, r6, r7, lr}
 1766              		.cfi_restore 14
ARM GAS  C:\Users\chemi\AppData\Local\Temp\ccr4fFHe.s 			page 44


 1767              		.cfi_restore 7
 1768              		.cfi_restore 6
 1769              		.cfi_restore 5
 1770              		.cfi_restore 4
 1771              		.cfi_restore 3
 1772              		.cfi_def_cfa_offset 0
 1773              	.LVL215:
 485:..\common\vms/VMSWrapper.c **** }
 1774              		.loc 1 485 0
 1775 003e FFF7FEBF 		b	VMS_returnSemaphore
 1776              	.LVL216:
 1777              	.L176:
 1778 0042 00BF     		.align	2
 1779              	.L175:
 1780 0044 00000000 		.word	.LANCHOR0
 1781              		.cfi_endproc
 1782              	.LFE84:
 1783              		.size	VMSW_bendHandler, .-VMSW_bendHandler
 1784              		.section	.text.VMSW_volumeChangeHandler,"ax",%progbits
 1785              		.align	1
 1786              		.global	VMSW_volumeChangeHandler
 1787              		.thumb
 1788              		.thumb_func
 1789              		.type	VMSW_volumeChangeHandler, %function
 1790              	VMSW_volumeChangeHandler:
 1791              	.LFB85:
 487:..\common\vms/VMSWrapper.c **** 
 488:..\common\vms/VMSWrapper.c **** void VMSW_volumeChangeHandler(uint32_t channel){
 1792              		.loc 1 488 0
 1793              		.cfi_startproc
 1794              		@ args = 0, pretend = 0, frame = 8
 1795              		@ frame_needed = 0, uses_anonymous_args = 0
 1796              	.LVL217:
 1797 0000 2DE9F341 		push	{r0, r1, r4, r5, r6, r7, r8, lr}
 1798              		.cfi_def_cfa_offset 32
 1799              		.cfi_offset 4, -24
 1800              		.cfi_offset 5, -20
 1801              		.cfi_offset 6, -16
 1802              		.cfi_offset 7, -12
 1803              		.cfi_offset 8, -8
 1804              		.cfi_offset 14, -4
 1805              		.loc 1 488 0
 1806 0004 0646     		mov	r6, r0
 489:..\common\vms/VMSWrapper.c ****     VMS_getSemaphore();
 1807              		.loc 1 489 0
 1808 0006 FFF7FEFF 		bl	VMS_getSemaphore
 1809              	.LVL218:
 1810              	.LBB35:
 1811              	.LBB36:
 1812              	.LBB37:
 490:..\common\vms/VMSWrapper.c ****     
 491:..\common\vms/VMSWrapper.c ****     for(uint32_t currOutput = 0; currOutput < SIGGEN_OUTPUTCOUNT; currOutput++){
 492:..\common\vms/VMSWrapper.c ****         for(uint8_t currVoice = 0; currVoice < SIGGEN_VOICECOUNT; currVoice++){
 493:..\common\vms/VMSWrapper.c ****             //precalculate voice data pointer, as this might be repeated multiple times in the foll
 494:..\common\vms/VMSWrapper.c ****             VMS_VoiceData_t * vData = &(voiceData[currOutput][currVoice]);
 1813              		.loc 1 494 0
 1814 000a 244F     		ldr	r7, .L194
ARM GAS  C:\Users\chemi\AppData\Local\Temp\ccr4fFHe.s 			page 45


 1815              	.LBE37:
 1816              	.LBE36:
 1817              	.LBE35:
 489:..\common\vms/VMSWrapper.c ****     VMS_getSemaphore();
 1818              		.loc 1 489 0
 1819 000c 0025     		movs	r5, #0
 1820              	.LBB41:
 1821              	.LBB40:
 1822              	.LBB39:
 1823              		.loc 1 494 0
 1824 000e 4FF07C08 		mov	r8, #124
 1825              	.LVL219:
 1826              	.L183:
 1827 0012 3B68     		ldr	r3, [r7]
 1828 0014 1C68     		ldr	r4, [r3]
 1829 0016 08FB0544 		mla	r4, r8, r5, r4
 1830              	.LVL220:
 495:..\common\vms/VMSWrapper.c ****             
 496:..\common\vms/VMSWrapper.c ****             //is the current block originating from this channel
 497:..\common\vms/VMSWrapper.c ****             if(vData->sourceChannel == channel && (vData->on > 0)){
 1831              		.loc 1 497 0
 1832 001a 94F86030 		ldrb	r3, [r4, #96]	@ zero_extendqisi2
 1833 001e B342     		cmp	r3, r6
 1834 0020 34D1     		bne	.L179
 1835              		.loc 1 497 0 is_stmt 0 discriminator 1
 1836 0022 E36C     		ldr	r3, [r4, #76]
 1837 0024 002B     		cmp	r3, #0
 1838 0026 31D0     		beq	.L179
 1839              	.LBB38:
 498:..\common\vms/VMSWrapper.c ****                 volatile uint32_t targetVolume = vData->baseVolume;
 1840              		.loc 1 498 0 is_stmt 1
 1841 0028 636D     		ldr	r3, [r4, #84]
 1842 002a 0193     		str	r3, [sp, #4]
 499:..\common\vms/VMSWrapper.c **** 
 500:..\common\vms/VMSWrapper.c ****                 if(vData->flags & MAP_ENA_STEREO){
 1843              		.loc 1 500 0
 1844 002c 236D     		ldr	r3, [r4, #80]
 1845 002e 5A06     		lsls	r2, r3, #25
 1846 0030 0AD5     		bpl	.L181
 501:..\common\vms/VMSWrapper.c ****                     targetVolume *= MidiProcessor_getStereoVolume(channel);
 1847              		.loc 1 501 0
 1848 0032 3046     		mov	r0, r6
 1849 0034 FFF7FEFF 		bl	MidiProcessor_getStereoVolume
 1850              	.LVL221:
 1851 0038 019B     		ldr	r3, [sp, #4]
 502:..\common\vms/VMSWrapper.c ****                     targetVolume /= MIDI_VOLUME_MAX;
 1852              		.loc 1 502 0
 1853 003a 7F22     		movs	r2, #127
 501:..\common\vms/VMSWrapper.c ****                     targetVolume *= MidiProcessor_getStereoVolume(channel);
 1854              		.loc 1 501 0
 1855 003c 5843     		muls	r0, r3, r0
 1856 003e 0190     		str	r0, [sp, #4]
 1857              		.loc 1 502 0
 1858 0040 019B     		ldr	r3, [sp, #4]
 1859 0042 B3FBF2F3 		udiv	r3, r3, r2
 1860 0046 0193     		str	r3, [sp, #4]
 1861              	.L181:
ARM GAS  C:\Users\chemi\AppData\Local\Temp\ccr4fFHe.s 			page 46


 503:..\common\vms/VMSWrapper.c ****                 }
 504:..\common\vms/VMSWrapper.c **** 
 505:..\common\vms/VMSWrapper.c ****                 if(vData->flags & MAP_ENA_VOLUME){
 1862              		.loc 1 505 0
 1863 0048 236D     		ldr	r3, [r4, #80]
 1864 004a 9B06     		lsls	r3, r3, #26
 1865 004c 12D5     		bpl	.L182
 506:..\common\vms/VMSWrapper.c ****                     targetVolume *= MidiProcessor_getVolume(channel);
 1866              		.loc 1 506 0
 1867 004e 3046     		mov	r0, r6
 1868 0050 FFF7FEFF 		bl	MidiProcessor_getVolume
 1869              	.LVL222:
 1870 0054 019B     		ldr	r3, [sp, #4]
 507:..\common\vms/VMSWrapper.c ****                     targetVolume /= MIDI_VOLUME_MAX;
 1871              		.loc 1 507 0
 1872 0056 7F21     		movs	r1, #127
 506:..\common\vms/VMSWrapper.c ****                     targetVolume *= MidiProcessor_getVolume(channel);
 1873              		.loc 1 506 0
 1874 0058 5843     		muls	r0, r3, r0
 1875 005a 0190     		str	r0, [sp, #4]
 1876              		.loc 1 507 0
 1877 005c 019A     		ldr	r2, [sp, #4]
 1878 005e B2FBF1F2 		udiv	r2, r2, r1
 1879 0062 0192     		str	r2, [sp, #4]
 508:..\common\vms/VMSWrapper.c **** 
 509:..\common\vms/VMSWrapper.c ****                     targetVolume *= vData->baseVelocity;
 1880              		.loc 1 509 0
 1881 0064 019B     		ldr	r3, [sp, #4]
 1882 0066 A26D     		ldr	r2, [r4, #88]
 1883 0068 5A43     		muls	r2, r3, r2
 1884 006a 0192     		str	r2, [sp, #4]
 510:..\common\vms/VMSWrapper.c ****                     targetVolume /= MIDI_VOLUME_MAX;
 1885              		.loc 1 510 0
 1886 006c 019B     		ldr	r3, [sp, #4]
 1887 006e B3FBF1F3 		udiv	r3, r3, r1
 1888 0072 0193     		str	r3, [sp, #4]
 1889              	.L182:
 511:..\common\vms/VMSWrapper.c ****                 }
 512:..\common\vms/VMSWrapper.c ****                 
 513:..\common\vms/VMSWrapper.c ****                 //TODO we actually need to figure out if the map scaled this volume...
 514:..\common\vms/VMSWrapper.c ****                 
 515:..\common\vms/VMSWrapper.c ****                 //did we actually change something?
 516:..\common\vms/VMSWrapper.c ****                 if(vData->volumeTarget != targetVolume){
 1890              		.loc 1 516 0
 1891 0074 019B     		ldr	r3, [sp, #4]
 1892 0076 E269     		ldr	r2, [r4, #28]
 1893 0078 9A42     		cmp	r2, r3
 1894 007a 07D0     		beq	.L179
 517:..\common\vms/VMSWrapper.c ****                     //yes! update parameters
 518:..\common\vms/VMSWrapper.c ****                     vData->volumeTarget = targetVolume;
 1895              		.loc 1 518 0
 1896 007c 019B     		ldr	r3, [sp, #4]
 519:..\common\vms/VMSWrapper.c ****                     
 520:..\common\vms/VMSWrapper.c ****                     //call VMSW_setKnownValue to trigger a value recalculation
 521:..\common\vms/VMSWrapper.c ****                     VMSW_setKnownValue(volumeCurrent, vData->volumeFactor, currOutput, currVoice);
 1897              		.loc 1 521 0
 1898 007e 0022     		movs	r2, #0
ARM GAS  C:\Users\chemi\AppData\Local\Temp\ccr4fFHe.s 			page 47


 518:..\common\vms/VMSWrapper.c ****                     
 1899              		.loc 1 518 0
 1900 0080 E361     		str	r3, [r4, #28]
 1901              		.loc 1 521 0
 1902 0082 616A     		ldr	r1, [r4, #36]
 1903 0084 2B46     		mov	r3, r5
 1904 0086 2620     		movs	r0, #38
 1905 0088 FFF7FEFF 		bl	VMSW_setKnownValue
 1906              	.LVL223:
 1907              	.L179:
 1908 008c 0135     		adds	r5, r5, #1
 1909              	.LVL224:
 1910              	.LBE38:
 1911              	.LBE39:
 492:..\common\vms/VMSWrapper.c ****             //precalculate voice data pointer, as this might be repeated multiple times in the foll
 1912              		.loc 1 492 0 discriminator 2
 1913 008e 062D     		cmp	r5, #6
 1914 0090 BFD1     		bne	.L183
 1915              	.LVL225:
 1916              	.LBE40:
 1917              	.LBE41:
 522:..\common\vms/VMSWrapper.c ****                 }
 523:..\common\vms/VMSWrapper.c **** 
 524:..\common\vms/VMSWrapper.c ****             }
 525:..\common\vms/VMSWrapper.c ****         }
 526:..\common\vms/VMSWrapper.c ****     }
 527:..\common\vms/VMSWrapper.c ****     
 528:..\common\vms/VMSWrapper.c ****     VMS_returnSemaphore();
 1918              		.loc 1 528 0
 1919 0092 FFF7FEFF 		bl	VMS_returnSemaphore
 1920              	.LVL226:
 529:..\common\vms/VMSWrapper.c **** }
 1921              		.loc 1 529 0
 1922 0096 02B0     		add	sp, sp, #8
 1923              		.cfi_def_cfa_offset 24
 1924              		@ sp needed
 1925 0098 BDE8F081 		pop	{r4, r5, r6, r7, r8, pc}
 1926              	.LVL227:
 1927              	.L195:
 1928              		.align	2
 1929              	.L194:
 1930 009c 00000000 		.word	.LANCHOR0
 1931              		.cfi_endproc
 1932              	.LFE85:
 1933              		.size	VMSW_volumeChangeHandler, .-VMSW_volumeChangeHandler
 1934              		.section	.text.VMSW_pulseWidthChangeHandler,"ax",%progbits
 1935              		.align	1
 1936              		.global	VMSW_pulseWidthChangeHandler
 1937              		.thumb
 1938              		.thumb_func
 1939              		.type	VMSW_pulseWidthChangeHandler, %function
 1940              	VMSW_pulseWidthChangeHandler:
 1941              	.LFB86:
 530:..\common\vms/VMSWrapper.c **** 
 531:..\common\vms/VMSWrapper.c **** void VMSW_pulseWidthChangeHandler(){
 1942              		.loc 1 531 0
 1943              		.cfi_startproc
ARM GAS  C:\Users\chemi\AppData\Local\Temp\ccr4fFHe.s 			page 48


 1944              		@ args = 0, pretend = 0, frame = 8
 1945              		@ frame_needed = 0, uses_anonymous_args = 0
 1946 0000 F7B5     		push	{r0, r1, r2, r4, r5, r6, r7, lr}
 1947              		.cfi_def_cfa_offset 32
 1948              		.cfi_offset 4, -20
 1949              		.cfi_offset 5, -16
 1950              		.cfi_offset 6, -12
 1951              		.cfi_offset 7, -8
 1952              		.cfi_offset 14, -4
 532:..\common\vms/VMSWrapper.c ****     VMS_getSemaphore();
 1953              		.loc 1 532 0
 1954 0002 FFF7FEFF 		bl	VMS_getSemaphore
 1955              	.LVL228:
 1956              	.LBB42:
 1957              	.LBB43:
 1958              	.LBB44:
 533:..\common\vms/VMSWrapper.c ****     
 534:..\common\vms/VMSWrapper.c ****     for(uint32_t currOutput = 0; currOutput < SIGGEN_OUTPUTCOUNT; currOutput++){
 535:..\common\vms/VMSWrapper.c ****         for(uint8_t currVoice = 0; currVoice < SIGGEN_VOICECOUNT; currVoice++){
 536:..\common\vms/VMSWrapper.c ****             //precalculate voice data pointer, as this might be repeated multiple times in the foll
 537:..\common\vms/VMSWrapper.c ****             VMS_VoiceData_t * vData = &(voiceData[currOutput][currVoice]);
 1959              		.loc 1 537 0
 1960 0006 0F4D     		ldr	r5, .L202
 538:..\common\vms/VMSWrapper.c ****             
 539:..\common\vms/VMSWrapper.c ****             
 540:..\common\vms/VMSWrapper.c ****             //if the voice is off then we won't touch it. 
 541:..\common\vms/VMSWrapper.c ****             //TODO perhaps we should? This means decaying notes won't be affected by pw changes
 542:..\common\vms/VMSWrapper.c ****             if(!vData->on) continue;
 543:..\common\vms/VMSWrapper.c ****             
 544:..\common\vms/VMSWrapper.c ****             volatile uint32_t targetPw = param.pw;
 1961              		.loc 1 544 0
 1962 0008 0F4F     		ldr	r7, .L202+4
 1963              	.LBE44:
 1964              	.LBE43:
 1965              	.LBE42:
 532:..\common\vms/VMSWrapper.c ****     
 1966              		.loc 1 532 0
 1967 000a 0024     		movs	r4, #0
 1968              	.LBB47:
 1969              	.LBB46:
 1970              	.LBB45:
 537:..\common\vms/VMSWrapper.c ****             
 1971              		.loc 1 537 0
 1972 000c 7C26     		movs	r6, #124
 1973              	.LVL229:
 1974              	.L200:
 1975 000e 2B68     		ldr	r3, [r5]
 1976 0010 1968     		ldr	r1, [r3]
 1977 0012 06FB0411 		mla	r1, r6, r4, r1
 1978              	.LVL230:
 542:..\common\vms/VMSWrapper.c ****             
 1979              		.loc 1 542 0
 1980 0016 CB6C     		ldr	r3, [r1, #76]
 1981 0018 6BB1     		cbz	r3, .L198
 1982              		.loc 1 544 0
 1983 001a 3B88     		ldrh	r3, [r7]
 545:..\common\vms/VMSWrapper.c **** 
ARM GAS  C:\Users\chemi\AppData\Local\Temp\ccr4fFHe.s 			page 49


 546:..\common\vms/VMSWrapper.c ****             //did we actually change something?
 547:..\common\vms/VMSWrapper.c ****             if(vData->onTimeTarget != targetPw){
 1984              		.loc 1 547 0
 1985 001c 0A69     		ldr	r2, [r1, #16]
 544:..\common\vms/VMSWrapper.c **** 
 1986              		.loc 1 544 0
 1987 001e 0193     		str	r3, [sp, #4]
 1988              		.loc 1 547 0
 1989 0020 019B     		ldr	r3, [sp, #4]
 1990 0022 9A42     		cmp	r2, r3
 1991 0024 07D0     		beq	.L198
 548:..\common\vms/VMSWrapper.c ****                 //yes! update parameters
 549:..\common\vms/VMSWrapper.c ****                 vData->onTimeTarget = targetPw;
 1992              		.loc 1 549 0
 1993 0026 019B     		ldr	r3, [sp, #4]
 550:..\common\vms/VMSWrapper.c ****                 
 551:..\common\vms/VMSWrapper.c ****                 //call VMSW_setKnownValue to trigger a value recalculation
 552:..\common\vms/VMSWrapper.c ****                 VMSW_setKnownValue(onTime, vData->onTimeFactor, currOutput, currVoice);
 1994              		.loc 1 552 0
 1995 0028 0022     		movs	r2, #0
 549:..\common\vms/VMSWrapper.c ****                 
 1996              		.loc 1 549 0
 1997 002a 0B61     		str	r3, [r1, #16]
 1998              		.loc 1 552 0
 1999 002c 0220     		movs	r0, #2
 2000 002e 2346     		mov	r3, r4
 2001 0030 8969     		ldr	r1, [r1, #24]
 2002              	.LVL231:
 2003 0032 FFF7FEFF 		bl	VMSW_setKnownValue
 2004              	.LVL232:
 2005              	.L198:
 2006 0036 0134     		adds	r4, r4, #1
 2007              	.LVL233:
 2008              	.LBE45:
 535:..\common\vms/VMSWrapper.c ****             //precalculate voice data pointer, as this might be repeated multiple times in the foll
 2009              		.loc 1 535 0 discriminator 2
 2010 0038 062C     		cmp	r4, #6
 2011 003a E8D1     		bne	.L200
 2012              	.LVL234:
 2013              	.LBE46:
 2014              	.LBE47:
 553:..\common\vms/VMSWrapper.c ****             }
 554:..\common\vms/VMSWrapper.c ****         }
 555:..\common\vms/VMSWrapper.c ****     }
 556:..\common\vms/VMSWrapper.c ****     
 557:..\common\vms/VMSWrapper.c ****     VMS_returnSemaphore();
 2015              		.loc 1 557 0
 2016 003c FFF7FEFF 		bl	VMS_returnSemaphore
 2017              	.LVL235:
 558:..\common\vms/VMSWrapper.c **** }...
 2018              		.loc 1 558 0
 2019 0040 03B0     		add	sp, sp, #12
 2020              		.cfi_def_cfa_offset 20
 2021              		@ sp needed
 2022 0042 F0BD     		pop	{r4, r5, r6, r7, pc}
 2023              	.L203:
 2024              		.align	2
ARM GAS  C:\Users\chemi\AppData\Local\Temp\ccr4fFHe.s 			page 50


 2025              	.L202:
 2026 0044 00000000 		.word	.LANCHOR0
 2027 0048 00000000 		.word	param
 2028              		.cfi_endproc
 2029              	.LFE86:
 2030              		.size	VMSW_pulseWidthChangeHandler, .-VMSW_pulseWidthChangeHandler
 2031              		.comm	interrupter,12,4
 2032              		.section	.rodata.str1.1,"aMS",%progbits,1
 2033              	.LC0:
 2034 0000 564D5320 		.ascii	"VMS Task\000"
 2034      5461736B 
 2034      00
 2035              		.bss
 2036              		.align	2
 2037              		.set	.LANCHOR0,. + 0
 2038              		.type	voiceData, %object
 2039              		.size	voiceData, 4
 2040              	voiceData:
 2041 0000 00000000 		.space	4
 2042              		.text
 2043              	.Letext0:
 2044              		.file 2 "c:\\program files (x86)\\cypress\\psoc creator\\4.4\\psoc creator\\import\\gnu\\arm\\5.4.
 2045              		.file 3 "c:\\program files (x86)\\cypress\\psoc creator\\4.4\\psoc creator\\import\\gnu\\arm\\5.4.
 2046              		.file 4 "..\\common\\rtos\\portable\\GCC\\ARM_CM3/portmacro.h"
 2047              		.file 5 "..\\common\\vms\\VMS.h"
 2048              		.file 6 "..\\common\\rtos\\include/timers.h"
 2049              		.file 7 "..\\common\\ud3core/SignalGenerator.h"
 2050              		.file 8 "..\\common\\ud3core/interrupter.h"
 2051              		.file 9 "..\\common\\ud3core/cli_common.h"
 2052              		.file 10 "Generated_Source\\PSoC5/core_cm3.h"
 2053              		.file 11 "..\\common\\vms\\VMSDefaults.h"
 2054              		.file 12 "..\\common\\ud3core/helper/nvm.h"
 2055              		.file 13 "..\\common\\rtos\\include/task.h"
 2056              		.file 14 "..\\common\\rtos\\include/portable.h"
 2057              		.file 15 "..\\common\\vms\\MidiProcessor.h"