ARM GAS  C:\Users\chemi\AppData\Local\Temp\ccFeB4tK.s 			page 1


   1              		.syntax unified
   2              		.cpu cortex-m3
   3              		.fpu softvfp
   4              		.eabi_attribute 20, 1
   5              		.eabi_attribute 21, 1
   6              		.eabi_attribute 23, 3
   7              		.eabi_attribute 24, 1
   8              		.eabi_attribute 25, 1
   9              		.eabi_attribute 26, 1
  10              		.eabi_attribute 30, 4
  11              		.eabi_attribute 34, 1
  12              		.eabi_attribute 18, 4
  13              		.thumb
  14              		.syntax unified
  15              		.file	"ZCD_compA.c"
  16              		.text
  17              	.Ltext0:
  18              		.cfi_sections	.debug_frame
  19              		.section	.text.ZCD_compA_trimAdjust,"ax",%progbits
  20              		.align	1
  21              		.thumb
  22              		.thumb_func
  23              		.type	ZCD_compA_trimAdjust, %function
  24              	ZCD_compA_trimAdjust:
  25              	.LFB6:
  26              		.file 1 "Generated_Source\\PSoC5\\ZCD_compA.c"
   1:Generated_Source\PSoC5/ZCD_compA.c **** /*******************************************************************************
   2:Generated_Source\PSoC5/ZCD_compA.c **** * File Name: ZCD_compA.c
   3:Generated_Source\PSoC5/ZCD_compA.c **** * Version 2.0
   4:Generated_Source\PSoC5/ZCD_compA.c **** *
   5:Generated_Source\PSoC5/ZCD_compA.c **** * Description:
   6:Generated_Source\PSoC5/ZCD_compA.c **** *  This file provides the source code to the API for the Comparator component
   7:Generated_Source\PSoC5/ZCD_compA.c **** *
   8:Generated_Source\PSoC5/ZCD_compA.c **** * Note:
   9:Generated_Source\PSoC5/ZCD_compA.c **** *  None
  10:Generated_Source\PSoC5/ZCD_compA.c **** *
  11:Generated_Source\PSoC5/ZCD_compA.c **** ********************************************************************************
  12:Generated_Source\PSoC5/ZCD_compA.c **** * Copyright 2008-2012, Cypress Semiconductor Corporation.  All rights reserved.
  13:Generated_Source\PSoC5/ZCD_compA.c **** * You may use this file only in accordance with the license, terms, conditions, 
  14:Generated_Source\PSoC5/ZCD_compA.c **** * disclaimers, and limitations in the end user license agreement accompanying 
  15:Generated_Source\PSoC5/ZCD_compA.c **** * the software package with which this file was provided.
  16:Generated_Source\PSoC5/ZCD_compA.c **** *******************************************************************************/
  17:Generated_Source\PSoC5/ZCD_compA.c **** 
  18:Generated_Source\PSoC5/ZCD_compA.c **** #include "ZCD_compA.h"
  19:Generated_Source\PSoC5/ZCD_compA.c **** 
  20:Generated_Source\PSoC5/ZCD_compA.c **** uint8 ZCD_compA_initVar = 0u;
  21:Generated_Source\PSoC5/ZCD_compA.c **** 
  22:Generated_Source\PSoC5/ZCD_compA.c **** /* Internal functions definitoin */
  23:Generated_Source\PSoC5/ZCD_compA.c **** static void ZCD_compA_trimAdjust(uint8 nibble) ;
  24:Generated_Source\PSoC5/ZCD_compA.c **** 
  25:Generated_Source\PSoC5/ZCD_compA.c **** /* static ZCD_compA_backupStruct  ZCD_compA_backup; */
  26:Generated_Source\PSoC5/ZCD_compA.c **** #if (CY_PSOC5A)
  27:Generated_Source\PSoC5/ZCD_compA.c ****     static ZCD_compA_LOWPOWER_BACKUP_STRUCT  ZCD_compA_lowPowerBackup;
  28:Generated_Source\PSoC5/ZCD_compA.c **** #endif /* CY_PSOC5A */
  29:Generated_Source\PSoC5/ZCD_compA.c **** 
  30:Generated_Source\PSoC5/ZCD_compA.c **** /* variable to decide whether or not to restore the control register in 
  31:Generated_Source\PSoC5/ZCD_compA.c ****    Enable() API for PSoC5A only */
ARM GAS  C:\Users\chemi\AppData\Local\Temp\ccFeB4tK.s 			page 2


  32:Generated_Source\PSoC5/ZCD_compA.c **** #if (CY_PSOC5A)
  33:Generated_Source\PSoC5/ZCD_compA.c ****     static uint8 ZCD_compA_restoreReg = 0u;
  34:Generated_Source\PSoC5/ZCD_compA.c **** #endif /* CY_PSOC5A */
  35:Generated_Source\PSoC5/ZCD_compA.c **** 
  36:Generated_Source\PSoC5/ZCD_compA.c **** 
  37:Generated_Source\PSoC5/ZCD_compA.c **** /*******************************************************************************
  38:Generated_Source\PSoC5/ZCD_compA.c **** * Function Name: ZCD_compA_Init
  39:Generated_Source\PSoC5/ZCD_compA.c **** ********************************************************************************
  40:Generated_Source\PSoC5/ZCD_compA.c **** *
  41:Generated_Source\PSoC5/ZCD_compA.c **** * Summary:
  42:Generated_Source\PSoC5/ZCD_compA.c **** *  Initialize to the schematic state
  43:Generated_Source\PSoC5/ZCD_compA.c **** * 
  44:Generated_Source\PSoC5/ZCD_compA.c **** * Parameters:
  45:Generated_Source\PSoC5/ZCD_compA.c **** *  void
  46:Generated_Source\PSoC5/ZCD_compA.c **** *
  47:Generated_Source\PSoC5/ZCD_compA.c **** * Return:
  48:Generated_Source\PSoC5/ZCD_compA.c **** *  void
  49:Generated_Source\PSoC5/ZCD_compA.c **** *
  50:Generated_Source\PSoC5/ZCD_compA.c **** *******************************************************************************/
  51:Generated_Source\PSoC5/ZCD_compA.c **** void ZCD_compA_Init(void) 
  52:Generated_Source\PSoC5/ZCD_compA.c **** {
  53:Generated_Source\PSoC5/ZCD_compA.c ****     /* Set default speed/power */
  54:Generated_Source\PSoC5/ZCD_compA.c ****     ZCD_compA_SetSpeed(ZCD_compA_DEFAULT_SPEED);
  55:Generated_Source\PSoC5/ZCD_compA.c **** 
  56:Generated_Source\PSoC5/ZCD_compA.c ****     /* Set default Hysteresis */
  57:Generated_Source\PSoC5/ZCD_compA.c ****     #if ( ZCD_compA_DEFAULT_HYSTERESIS == 0u )
  58:Generated_Source\PSoC5/ZCD_compA.c ****         ZCD_compA_CR |= ZCD_compA_HYST_OFF;
  59:Generated_Source\PSoC5/ZCD_compA.c ****     #else
  60:Generated_Source\PSoC5/ZCD_compA.c ****         ZCD_compA_CR &= (uint8)(~ZCD_compA_HYST_OFF);
  61:Generated_Source\PSoC5/ZCD_compA.c ****     #endif /* ZCD_compA_DEFAULT_HYSTERESIS == 0u */
  62:Generated_Source\PSoC5/ZCD_compA.c ****     /* Power down override feature is not supported for PSoC5A. */
  63:Generated_Source\PSoC5/ZCD_compA.c ****     #if (CY_PSOC3 || CY_PSOC5LP)
  64:Generated_Source\PSoC5/ZCD_compA.c ****         /* Set default Power Down Override */
  65:Generated_Source\PSoC5/ZCD_compA.c ****         #if ( ZCD_compA_DEFAULT_PWRDWN_OVRD == 0u )
  66:Generated_Source\PSoC5/ZCD_compA.c ****             ZCD_compA_CR &= (uint8)(~ZCD_compA_PWRDWN_OVRD);
  67:Generated_Source\PSoC5/ZCD_compA.c ****         #else 
  68:Generated_Source\PSoC5/ZCD_compA.c ****             ZCD_compA_CR |= ZCD_compA_PWRDWN_OVRD;
  69:Generated_Source\PSoC5/ZCD_compA.c ****         #endif /* ZCD_compA_DEFAULT_PWRDWN_OVRD == 0u */
  70:Generated_Source\PSoC5/ZCD_compA.c ****     #endif /* CY_PSOC3 || CY_PSOC5LP */
  71:Generated_Source\PSoC5/ZCD_compA.c ****     
  72:Generated_Source\PSoC5/ZCD_compA.c ****     /* Set mux always on logic */
  73:Generated_Source\PSoC5/ZCD_compA.c ****     ZCD_compA_CR |= ZCD_compA_MX_AO;
  74:Generated_Source\PSoC5/ZCD_compA.c **** 
  75:Generated_Source\PSoC5/ZCD_compA.c ****     /* Set default sync */
  76:Generated_Source\PSoC5/ZCD_compA.c ****     ZCD_compA_CLK &= (uint8)(~ZCD_compA_SYNCCLK_MASK);
  77:Generated_Source\PSoC5/ZCD_compA.c ****     #if ( ZCD_compA_DEFAULT_BYPASS_SYNC == 0u )
  78:Generated_Source\PSoC5/ZCD_compA.c ****         ZCD_compA_CLK |= ZCD_compA_SYNC_CLK_EN;
  79:Generated_Source\PSoC5/ZCD_compA.c ****     #else
  80:Generated_Source\PSoC5/ZCD_compA.c ****         ZCD_compA_CLK |= ZCD_compA_BYPASS_SYNC;
  81:Generated_Source\PSoC5/ZCD_compA.c ****     #endif /* ZCD_compA_DEFAULT_BYPASS_SYNC == 0u */
  82:Generated_Source\PSoC5/ZCD_compA.c **** }
  83:Generated_Source\PSoC5/ZCD_compA.c **** 
  84:Generated_Source\PSoC5/ZCD_compA.c **** 
  85:Generated_Source\PSoC5/ZCD_compA.c **** /*******************************************************************************
  86:Generated_Source\PSoC5/ZCD_compA.c **** * Function Name: ZCD_compA_Enable
  87:Generated_Source\PSoC5/ZCD_compA.c **** ********************************************************************************
  88:Generated_Source\PSoC5/ZCD_compA.c **** *
ARM GAS  C:\Users\chemi\AppData\Local\Temp\ccFeB4tK.s 			page 3


  89:Generated_Source\PSoC5/ZCD_compA.c **** * Summary:
  90:Generated_Source\PSoC5/ZCD_compA.c **** *  Enable the Comparator
  91:Generated_Source\PSoC5/ZCD_compA.c **** * 
  92:Generated_Source\PSoC5/ZCD_compA.c **** * Parameters:
  93:Generated_Source\PSoC5/ZCD_compA.c **** *  void
  94:Generated_Source\PSoC5/ZCD_compA.c **** *
  95:Generated_Source\PSoC5/ZCD_compA.c **** * Return:
  96:Generated_Source\PSoC5/ZCD_compA.c **** *  void
  97:Generated_Source\PSoC5/ZCD_compA.c **** *
  98:Generated_Source\PSoC5/ZCD_compA.c **** *******************************************************************************/
  99:Generated_Source\PSoC5/ZCD_compA.c **** void ZCD_compA_Enable(void) 
 100:Generated_Source\PSoC5/ZCD_compA.c **** {
 101:Generated_Source\PSoC5/ZCD_compA.c ****     ZCD_compA_PWRMGR |= ZCD_compA_ACT_PWR_EN;
 102:Generated_Source\PSoC5/ZCD_compA.c ****     ZCD_compA_STBY_PWRMGR |= ZCD_compA_STBY_PWR_EN;
 103:Generated_Source\PSoC5/ZCD_compA.c ****      
 104:Generated_Source\PSoC5/ZCD_compA.c ****      /* This is to restore the value of register CR which is saved 
 105:Generated_Source\PSoC5/ZCD_compA.c ****     in prior to the modification in stop() API */
 106:Generated_Source\PSoC5/ZCD_compA.c ****     #if (CY_PSOC5A)
 107:Generated_Source\PSoC5/ZCD_compA.c ****         if(ZCD_compA_restoreReg == 1u)
 108:Generated_Source\PSoC5/ZCD_compA.c ****         {
 109:Generated_Source\PSoC5/ZCD_compA.c ****             ZCD_compA_CR = ZCD_compA_lowPowerBackup.compCRReg;
 110:Generated_Source\PSoC5/ZCD_compA.c **** 
 111:Generated_Source\PSoC5/ZCD_compA.c ****             /* Clear the flag */
 112:Generated_Source\PSoC5/ZCD_compA.c ****             ZCD_compA_restoreReg = 0u;
 113:Generated_Source\PSoC5/ZCD_compA.c ****         }
 114:Generated_Source\PSoC5/ZCD_compA.c ****     #endif /* CY_PSOC5A */
 115:Generated_Source\PSoC5/ZCD_compA.c **** }
 116:Generated_Source\PSoC5/ZCD_compA.c **** 
 117:Generated_Source\PSoC5/ZCD_compA.c **** 
 118:Generated_Source\PSoC5/ZCD_compA.c **** /*******************************************************************************
 119:Generated_Source\PSoC5/ZCD_compA.c **** * Function Name: ZCD_compA_Start
 120:Generated_Source\PSoC5/ZCD_compA.c **** ********************************************************************************
 121:Generated_Source\PSoC5/ZCD_compA.c **** *
 122:Generated_Source\PSoC5/ZCD_compA.c **** * Summary:
 123:Generated_Source\PSoC5/ZCD_compA.c **** *  The start function initializes the Analog Comparator with the default values.
 124:Generated_Source\PSoC5/ZCD_compA.c **** *
 125:Generated_Source\PSoC5/ZCD_compA.c **** * Parameters:
 126:Generated_Source\PSoC5/ZCD_compA.c **** *  void
 127:Generated_Source\PSoC5/ZCD_compA.c **** *
 128:Generated_Source\PSoC5/ZCD_compA.c **** * Return:
 129:Generated_Source\PSoC5/ZCD_compA.c **** *  void 
 130:Generated_Source\PSoC5/ZCD_compA.c **** *
 131:Generated_Source\PSoC5/ZCD_compA.c **** * Global variables:
 132:Generated_Source\PSoC5/ZCD_compA.c **** *  ZCD_compA_initVar: Is modified when this function is called for the 
 133:Generated_Source\PSoC5/ZCD_compA.c **** *   first time. Is used to ensure that initialization happens only once.
 134:Generated_Source\PSoC5/ZCD_compA.c **** *  
 135:Generated_Source\PSoC5/ZCD_compA.c **** *******************************************************************************/
 136:Generated_Source\PSoC5/ZCD_compA.c **** void ZCD_compA_Start(void) 
 137:Generated_Source\PSoC5/ZCD_compA.c **** {
 138:Generated_Source\PSoC5/ZCD_compA.c **** 
 139:Generated_Source\PSoC5/ZCD_compA.c ****     if ( ZCD_compA_initVar == 0u )
 140:Generated_Source\PSoC5/ZCD_compA.c ****     {
 141:Generated_Source\PSoC5/ZCD_compA.c ****         ZCD_compA_Init();
 142:Generated_Source\PSoC5/ZCD_compA.c ****         
 143:Generated_Source\PSoC5/ZCD_compA.c ****         ZCD_compA_initVar = 1u;
 144:Generated_Source\PSoC5/ZCD_compA.c ****     }   
 145:Generated_Source\PSoC5/ZCD_compA.c **** 
ARM GAS  C:\Users\chemi\AppData\Local\Temp\ccFeB4tK.s 			page 4


 146:Generated_Source\PSoC5/ZCD_compA.c ****     /* Enable power to comparator */
 147:Generated_Source\PSoC5/ZCD_compA.c ****     ZCD_compA_Enable();    
 148:Generated_Source\PSoC5/ZCD_compA.c **** }
 149:Generated_Source\PSoC5/ZCD_compA.c **** 
 150:Generated_Source\PSoC5/ZCD_compA.c **** 
 151:Generated_Source\PSoC5/ZCD_compA.c **** /*******************************************************************************
 152:Generated_Source\PSoC5/ZCD_compA.c **** * Function Name: ZCD_compA_Stop
 153:Generated_Source\PSoC5/ZCD_compA.c **** ********************************************************************************
 154:Generated_Source\PSoC5/ZCD_compA.c **** *
 155:Generated_Source\PSoC5/ZCD_compA.c **** * Summary:
 156:Generated_Source\PSoC5/ZCD_compA.c **** *  Powers down amplifier to lowest power state.
 157:Generated_Source\PSoC5/ZCD_compA.c **** *
 158:Generated_Source\PSoC5/ZCD_compA.c **** * Parameters:
 159:Generated_Source\PSoC5/ZCD_compA.c **** *  void
 160:Generated_Source\PSoC5/ZCD_compA.c **** *
 161:Generated_Source\PSoC5/ZCD_compA.c **** * Return:
 162:Generated_Source\PSoC5/ZCD_compA.c **** *  void
 163:Generated_Source\PSoC5/ZCD_compA.c **** *
 164:Generated_Source\PSoC5/ZCD_compA.c **** *******************************************************************************/
 165:Generated_Source\PSoC5/ZCD_compA.c **** void ZCD_compA_Stop(void) 
 166:Generated_Source\PSoC5/ZCD_compA.c **** {
 167:Generated_Source\PSoC5/ZCD_compA.c ****     /* Disable power to comparator */
 168:Generated_Source\PSoC5/ZCD_compA.c ****     ZCD_compA_PWRMGR &= (uint8)(~ZCD_compA_ACT_PWR_EN);
 169:Generated_Source\PSoC5/ZCD_compA.c ****     ZCD_compA_STBY_PWRMGR &= (uint8)(~ZCD_compA_STBY_PWR_EN);
 170:Generated_Source\PSoC5/ZCD_compA.c ****     
 171:Generated_Source\PSoC5/ZCD_compA.c ****     #if (CY_PSOC5A)
 172:Generated_Source\PSoC5/ZCD_compA.c ****         /* Enable the variable */
 173:Generated_Source\PSoC5/ZCD_compA.c ****         ZCD_compA_restoreReg = 1u;
 174:Generated_Source\PSoC5/ZCD_compA.c **** 
 175:Generated_Source\PSoC5/ZCD_compA.c ****         /* Save the control register before clearing it */
 176:Generated_Source\PSoC5/ZCD_compA.c ****         ZCD_compA_lowPowerBackup.compCRReg = ZCD_compA_CR;
 177:Generated_Source\PSoC5/ZCD_compA.c ****         ZCD_compA_CR = ZCD_compA_COMP_REG_CLR;
 178:Generated_Source\PSoC5/ZCD_compA.c ****     #endif /* CY_PSOC5A */
 179:Generated_Source\PSoC5/ZCD_compA.c **** }
 180:Generated_Source\PSoC5/ZCD_compA.c **** 
 181:Generated_Source\PSoC5/ZCD_compA.c **** 
 182:Generated_Source\PSoC5/ZCD_compA.c **** /*******************************************************************************
 183:Generated_Source\PSoC5/ZCD_compA.c **** * Function Name: ZCD_compA_SetSpeed
 184:Generated_Source\PSoC5/ZCD_compA.c **** ********************************************************************************
 185:Generated_Source\PSoC5/ZCD_compA.c **** *
 186:Generated_Source\PSoC5/ZCD_compA.c **** * Summary:
 187:Generated_Source\PSoC5/ZCD_compA.c **** *  This function sets the speed of the Analog Comparator. The faster the speed
 188:Generated_Source\PSoC5/ZCD_compA.c **** *  the more power that is used.
 189:Generated_Source\PSoC5/ZCD_compA.c **** *
 190:Generated_Source\PSoC5/ZCD_compA.c **** * Parameters:
 191:Generated_Source\PSoC5/ZCD_compA.c **** *  speed: (uint8) Sets operation mode of Comparator
 192:Generated_Source\PSoC5/ZCD_compA.c **** *
 193:Generated_Source\PSoC5/ZCD_compA.c **** * Return:
 194:Generated_Source\PSoC5/ZCD_compA.c **** *  void
 195:Generated_Source\PSoC5/ZCD_compA.c **** *
 196:Generated_Source\PSoC5/ZCD_compA.c **** *******************************************************************************/
 197:Generated_Source\PSoC5/ZCD_compA.c **** void ZCD_compA_SetSpeed(uint8 speed) 
 198:Generated_Source\PSoC5/ZCD_compA.c **** {
 199:Generated_Source\PSoC5/ZCD_compA.c ****     /* Clear and Set power level */    
 200:Generated_Source\PSoC5/ZCD_compA.c ****     ZCD_compA_CR = (ZCD_compA_CR & (uint8)(~ZCD_compA_PWR_MODE_MASK)) |
 201:Generated_Source\PSoC5/ZCD_compA.c ****                            (speed & ZCD_compA_PWR_MODE_MASK);
 202:Generated_Source\PSoC5/ZCD_compA.c **** 
ARM GAS  C:\Users\chemi\AppData\Local\Temp\ccFeB4tK.s 			page 5


 203:Generated_Source\PSoC5/ZCD_compA.c ****     /* Set trim value for high speed comparator */
 204:Generated_Source\PSoC5/ZCD_compA.c ****     if(speed == ZCD_compA_HIGHSPEED)
 205:Generated_Source\PSoC5/ZCD_compA.c ****     {
 206:Generated_Source\PSoC5/ZCD_compA.c ****         /* PSoC5A */
 207:Generated_Source\PSoC5/ZCD_compA.c ****         #if (CY_PSOC5A)
 208:Generated_Source\PSoC5/ZCD_compA.c ****             ZCD_compA_TR = ZCD_compA_HS_TRIM_TR0;
 209:Generated_Source\PSoC5/ZCD_compA.c ****         #endif /* CY_PSOC5A */
 210:Generated_Source\PSoC5/ZCD_compA.c ****         
 211:Generated_Source\PSoC5/ZCD_compA.c ****         /* PSoC3, PSoC5LP or later */
 212:Generated_Source\PSoC5/ZCD_compA.c ****         #if (CY_PSOC3 || CY_PSOC5LP) 
 213:Generated_Source\PSoC5/ZCD_compA.c ****             ZCD_compA_TR0 = ZCD_compA_HS_TRIM_TR0;
 214:Generated_Source\PSoC5/ZCD_compA.c ****             ZCD_compA_TR1 = ZCD_compA_HS_TRIM_TR1;
 215:Generated_Source\PSoC5/ZCD_compA.c ****         #endif /* CY_PSOC3 || CY_PSOC5LP */
 216:Generated_Source\PSoC5/ZCD_compA.c ****     }
 217:Generated_Source\PSoC5/ZCD_compA.c ****     else
 218:Generated_Source\PSoC5/ZCD_compA.c ****     {
 219:Generated_Source\PSoC5/ZCD_compA.c ****     /* PSoC5A */
 220:Generated_Source\PSoC5/ZCD_compA.c ****         #if (CY_PSOC5A)
 221:Generated_Source\PSoC5/ZCD_compA.c ****             ZCD_compA_TR = ZCD_compA_LS_TRIM_TR0;
 222:Generated_Source\PSoC5/ZCD_compA.c ****         #endif /* CY_PSOC5A */
 223:Generated_Source\PSoC5/ZCD_compA.c ****         
 224:Generated_Source\PSoC5/ZCD_compA.c ****         /* PSoC3, PSoC5LP or later */
 225:Generated_Source\PSoC5/ZCD_compA.c ****         #if (CY_PSOC3 || CY_PSOC5LP) 
 226:Generated_Source\PSoC5/ZCD_compA.c ****             ZCD_compA_TR0 = ZCD_compA_LS_TRIM_TR0;
 227:Generated_Source\PSoC5/ZCD_compA.c ****             ZCD_compA_TR1 = ZCD_compA_LS_TRIM_TR1;
 228:Generated_Source\PSoC5/ZCD_compA.c ****         #endif /* CY_PSOC3 || CY_PSOC5LP */
 229:Generated_Source\PSoC5/ZCD_compA.c ****     }
 230:Generated_Source\PSoC5/ZCD_compA.c **** 
 231:Generated_Source\PSoC5/ZCD_compA.c **** }
 232:Generated_Source\PSoC5/ZCD_compA.c **** 
 233:Generated_Source\PSoC5/ZCD_compA.c **** 
 234:Generated_Source\PSoC5/ZCD_compA.c **** /*******************************************************************************
 235:Generated_Source\PSoC5/ZCD_compA.c **** * Function Name: ZCD_compA_GetCompare
 236:Generated_Source\PSoC5/ZCD_compA.c **** ********************************************************************************
 237:Generated_Source\PSoC5/ZCD_compA.c **** *
 238:Generated_Source\PSoC5/ZCD_compA.c **** * Summary:
 239:Generated_Source\PSoC5/ZCD_compA.c **** *  This function returns the comparator output value.
 240:Generated_Source\PSoC5/ZCD_compA.c **** *  This value is not affected by the Polarity parameter.
 241:Generated_Source\PSoC5/ZCD_compA.c **** *  This valuea lways reflects a noninverted state.
 242:Generated_Source\PSoC5/ZCD_compA.c **** *
 243:Generated_Source\PSoC5/ZCD_compA.c **** * Parameters:
 244:Generated_Source\PSoC5/ZCD_compA.c **** *   None
 245:Generated_Source\PSoC5/ZCD_compA.c **** *
 246:Generated_Source\PSoC5/ZCD_compA.c **** * Return:
 247:Generated_Source\PSoC5/ZCD_compA.c **** *  (uint8)  0     - if Pos_Input less than Neg_input
 248:Generated_Source\PSoC5/ZCD_compA.c **** *           non 0 - if Pos_Input greater than Neg_input.
 249:Generated_Source\PSoC5/ZCD_compA.c **** *
 250:Generated_Source\PSoC5/ZCD_compA.c **** *******************************************************************************/
 251:Generated_Source\PSoC5/ZCD_compA.c **** uint8 ZCD_compA_GetCompare(void) 
 252:Generated_Source\PSoC5/ZCD_compA.c **** {
 253:Generated_Source\PSoC5/ZCD_compA.c ****     return( ZCD_compA_WRK & ZCD_compA_CMP_OUT_MASK);
 254:Generated_Source\PSoC5/ZCD_compA.c **** }
 255:Generated_Source\PSoC5/ZCD_compA.c **** 
 256:Generated_Source\PSoC5/ZCD_compA.c **** 
 257:Generated_Source\PSoC5/ZCD_compA.c **** /*******************************************************************************
 258:Generated_Source\PSoC5/ZCD_compA.c **** * Function Name: ZCD_compA_trimAdjust
 259:Generated_Source\PSoC5/ZCD_compA.c **** ********************************************************************************
ARM GAS  C:\Users\chemi\AppData\Local\Temp\ccFeB4tK.s 			page 6


 260:Generated_Source\PSoC5/ZCD_compA.c **** *
 261:Generated_Source\PSoC5/ZCD_compA.c **** * Summary:
 262:Generated_Source\PSoC5/ZCD_compA.c **** *  This function adjusts the value in the low nibble/high nibble of the Analog 
 263:Generated_Source\PSoC5/ZCD_compA.c **** *  Comparator trim register
 264:Generated_Source\PSoC5/ZCD_compA.c **** *
 265:Generated_Source\PSoC5/ZCD_compA.c **** * Parameters:  
 266:Generated_Source\PSoC5/ZCD_compA.c **** *  nibble:
 267:Generated_Source\PSoC5/ZCD_compA.c **** *      0 -- adjusts the value in the low nibble
 268:Generated_Source\PSoC5/ZCD_compA.c **** *      1 -- adjusts the value in the high nibble
 269:Generated_Source\PSoC5/ZCD_compA.c **** *
 270:Generated_Source\PSoC5/ZCD_compA.c **** * Return:
 271:Generated_Source\PSoC5/ZCD_compA.c **** *  None
 272:Generated_Source\PSoC5/ZCD_compA.c **** *
 273:Generated_Source\PSoC5/ZCD_compA.c **** * Theory: 
 274:Generated_Source\PSoC5/ZCD_compA.c **** *  Function assumes comparator block is setup for trim adjust.
 275:Generated_Source\PSoC5/ZCD_compA.c **** *  Intended to be called from Comp_ZeroCal()
 276:Generated_Source\PSoC5/ZCD_compA.c **** * 
 277:Generated_Source\PSoC5/ZCD_compA.c **** * Side Effects:
 278:Generated_Source\PSoC5/ZCD_compA.c **** *  Routine uses a course 1ms delay following each trim adjustment to allow 
 279:Generated_Source\PSoC5/ZCD_compA.c **** *  the comparator output to respond.
 280:Generated_Source\PSoC5/ZCD_compA.c **** *
 281:Generated_Source\PSoC5/ZCD_compA.c **** *******************************************************************************/
 282:Generated_Source\PSoC5/ZCD_compA.c **** static void ZCD_compA_trimAdjust(uint8 nibble) 
 283:Generated_Source\PSoC5/ZCD_compA.c **** {
  27              		.loc 1 283 0
  28              		.cfi_startproc
  29              		@ args = 0, pretend = 0, frame = 0
  30              		@ frame_needed = 0, uses_anonymous_args = 0
  31              	.LVL0:
  32 0000 2DE9F047 		push	{r4, r5, r6, r7, r8, r9, r10, lr}
  33              		.cfi_def_cfa_offset 32
  34              		.cfi_offset 4, -32
  35              		.cfi_offset 5, -28
  36              		.cfi_offset 6, -24
  37              		.cfi_offset 7, -20
  38              		.cfi_offset 8, -16
  39              		.cfi_offset 9, -12
  40              		.cfi_offset 10, -8
  41              		.cfi_offset 14, -4
 284:Generated_Source\PSoC5/ZCD_compA.c ****     uint8 trimCnt, trimCntMax;
 285:Generated_Source\PSoC5/ZCD_compA.c ****     uint8 cmpState;   
 286:Generated_Source\PSoC5/ZCD_compA.c **** 
 287:Generated_Source\PSoC5/ZCD_compA.c ****     /* get current state of comparator output */
 288:Generated_Source\PSoC5/ZCD_compA.c ****     cmpState = ZCD_compA_WRK & ZCD_compA_CMP_OUT_MASK;
  42              		.loc 1 288 0
  43 0004 1D4D     		ldr	r5, .L15
 289:Generated_Source\PSoC5/ZCD_compA.c ****     
 290:Generated_Source\PSoC5/ZCD_compA.c ****     if (nibble == 0u)
  44              		.loc 1 290 0
  45 0006 8046     		mov	r8, r0
 288:Generated_Source\PSoC5/ZCD_compA.c ****     
  46              		.loc 1 288 0
  47 0008 2C78     		ldrb	r4, [r5]	@ zero_extendqisi2
  48 000a 04F00104 		and	r4, r4, #1
  49              	.LVL1:
  50              		.loc 1 290 0
  51 000e 30B9     		cbnz	r0, .L2
ARM GAS  C:\Users\chemi\AppData\Local\Temp\ccFeB4tK.s 			page 7


 291:Generated_Source\PSoC5/ZCD_compA.c ****     {    
 292:Generated_Source\PSoC5/ZCD_compA.c ****         /* if comparator output is high, negative offset adjust is required */
 293:Generated_Source\PSoC5/ZCD_compA.c ****         if ( cmpState != 0u )
  52              		.loc 1 293 0
  53 0010 7CB3     		cbz	r4, .L3
 294:Generated_Source\PSoC5/ZCD_compA.c ****         {
 295:Generated_Source\PSoC5/ZCD_compA.c ****             /* PSoC5A */
 296:Generated_Source\PSoC5/ZCD_compA.c ****             #if (CY_PSOC5A)
 297:Generated_Source\PSoC5/ZCD_compA.c ****                 ZCD_compA_TR |= ZCD_compA_CMP_TRIM1_DIR;
 298:Generated_Source\PSoC5/ZCD_compA.c ****             #endif /* CY_PSOC5A */
 299:Generated_Source\PSoC5/ZCD_compA.c ****             
 300:Generated_Source\PSoC5/ZCD_compA.c ****             /* PSoC3, PSoC5LP or later */
 301:Generated_Source\PSoC5/ZCD_compA.c ****             #if (CY_PSOC3 || CY_PSOC5LP)
 302:Generated_Source\PSoC5/ZCD_compA.c ****                 ZCD_compA_TR0 |= ZCD_compA_CMP_TR0_DIR;
  54              		.loc 1 302 0
  55 0012 1B4A     		ldr	r2, .L15+4
  56 0014 1378     		ldrb	r3, [r2]	@ zero_extendqisi2
  57 0016 43F01003 		orr	r3, r3, #16
  58 001a 1370     		strb	r3, [r2]
  59 001c 29E0     		b	.L3
  60              	.L2:
 303:Generated_Source\PSoC5/ZCD_compA.c ****             #endif /* CY_PSOC3 || CY_PSOC5LP */
 304:Generated_Source\PSoC5/ZCD_compA.c ****         }
 305:Generated_Source\PSoC5/ZCD_compA.c ****     }
 306:Generated_Source\PSoC5/ZCD_compA.c ****     else
 307:Generated_Source\PSoC5/ZCD_compA.c ****     {
 308:Generated_Source\PSoC5/ZCD_compA.c ****         /* if comparator output is low, positive offset adjust is required */
 309:Generated_Source\PSoC5/ZCD_compA.c ****         if ( cmpState == 0u )
  61              		.loc 1 309 0
  62 001e 24B9     		cbnz	r4, .L4
 310:Generated_Source\PSoC5/ZCD_compA.c ****         {
 311:Generated_Source\PSoC5/ZCD_compA.c ****             /* PSoC5A */
 312:Generated_Source\PSoC5/ZCD_compA.c ****             #if (CY_PSOC5A)
 313:Generated_Source\PSoC5/ZCD_compA.c ****                 ZCD_compA_TR |= ZCD_compA_CMP_TRIM2_DIR; 
 314:Generated_Source\PSoC5/ZCD_compA.c ****             #endif /* CY_PSOC5A */
 315:Generated_Source\PSoC5/ZCD_compA.c ****             
 316:Generated_Source\PSoC5/ZCD_compA.c ****             /* PSoC3, PSoC5LP or later */
 317:Generated_Source\PSoC5/ZCD_compA.c ****             #if (CY_PSOC3 || CY_PSOC5LP)
 318:Generated_Source\PSoC5/ZCD_compA.c ****                 ZCD_compA_TR1 |= ZCD_compA_CMP_TR1_DIR;
  63              		.loc 1 318 0
  64 0020 184A     		ldr	r2, .L15+8
  65 0022 1378     		ldrb	r3, [r2]	@ zero_extendqisi2
  66 0024 43F01003 		orr	r3, r3, #16
  67 0028 1370     		strb	r3, [r2]
  68              	.L4:
 319:Generated_Source\PSoC5/ZCD_compA.c ****             #endif /* CY_PSOC3 || CY_PSOC5LP */
 320:Generated_Source\PSoC5/ZCD_compA.c ****         }
 321:Generated_Source\PSoC5/ZCD_compA.c ****     }
 322:Generated_Source\PSoC5/ZCD_compA.c **** 
 323:Generated_Source\PSoC5/ZCD_compA.c ****     /* Increment trim value until compare output changes state */
 324:Generated_Source\PSoC5/ZCD_compA.c **** 	
 325:Generated_Source\PSoC5/ZCD_compA.c ****     /* PSoC5A */
 326:Generated_Source\PSoC5/ZCD_compA.c **** 	#if (CY_PSOC5A)
 327:Generated_Source\PSoC5/ZCD_compA.c **** 	    trimCntMax = 7u;
 328:Generated_Source\PSoC5/ZCD_compA.c ****     #endif
 329:Generated_Source\PSoC5/ZCD_compA.c **** 	
 330:Generated_Source\PSoC5/ZCD_compA.c **** 	/* PSoC3, PSoC5LP or later */
ARM GAS  C:\Users\chemi\AppData\Local\Temp\ccFeB4tK.s 			page 8


 331:Generated_Source\PSoC5/ZCD_compA.c **** 	#if (CY_PSOC3 || CY_PSOC5LP)
 332:Generated_Source\PSoC5/ZCD_compA.c ****     	if(nibble == 0u)
 333:Generated_Source\PSoC5/ZCD_compA.c ****     	{
 334:Generated_Source\PSoC5/ZCD_compA.c ****     		trimCntMax = 15u;
 335:Generated_Source\PSoC5/ZCD_compA.c ****     	}
 336:Generated_Source\PSoC5/ZCD_compA.c ****     	else
 337:Generated_Source\PSoC5/ZCD_compA.c ****     	{
 338:Generated_Source\PSoC5/ZCD_compA.c ****     		trimCntMax = 7u;
  69              		.loc 1 338 0
  70 002a 0727     		movs	r7, #7
  71              	.L9:
  72              	.LVL2:
 339:Generated_Source\PSoC5/ZCD_compA.c ****     	}
 340:Generated_Source\PSoC5/ZCD_compA.c **** 	#endif
 341:Generated_Source\PSoC5/ZCD_compA.c **** 	
 342:Generated_Source\PSoC5/ZCD_compA.c ****     for ( trimCnt = 0u; trimCnt < trimCntMax; trimCnt++ )
 343:Generated_Source\PSoC5/ZCD_compA.c **** 	{
 344:Generated_Source\PSoC5/ZCD_compA.c ****         if (nibble == 0u)
 345:Generated_Source\PSoC5/ZCD_compA.c ****         {
 346:Generated_Source\PSoC5/ZCD_compA.c ****             /* PSoC5A */
 347:Generated_Source\PSoC5/ZCD_compA.c ****             #if (CY_PSOC5A)
 348:Generated_Source\PSoC5/ZCD_compA.c ****                 ZCD_compA_TR += 1u;
 349:Generated_Source\PSoC5/ZCD_compA.c ****             #endif /* CY_PSOC5A */
 350:Generated_Source\PSoC5/ZCD_compA.c ****             
 351:Generated_Source\PSoC5/ZCD_compA.c ****             /* PSoC3, PSoC5LP or later */
 352:Generated_Source\PSoC5/ZCD_compA.c ****             #if (CY_PSOC3 || CY_PSOC5LP)
 353:Generated_Source\PSoC5/ZCD_compA.c ****                 ZCD_compA_TR0 += 1u;
 354:Generated_Source\PSoC5/ZCD_compA.c ****             #endif /* CY_PSOC3 || CY_PSOC5LP */
 355:Generated_Source\PSoC5/ZCD_compA.c ****         }
 356:Generated_Source\PSoC5/ZCD_compA.c ****         else
 357:Generated_Source\PSoC5/ZCD_compA.c ****         {
 358:Generated_Source\PSoC5/ZCD_compA.c ****             /* PSoC5A */
 359:Generated_Source\PSoC5/ZCD_compA.c ****             #if (CY_PSOC5A)
 360:Generated_Source\PSoC5/ZCD_compA.c ****                 ZCD_compA_TR += 0x10u;
 361:Generated_Source\PSoC5/ZCD_compA.c ****             #endif /* CY_PSOC5A */
 362:Generated_Source\PSoC5/ZCD_compA.c ****             
 363:Generated_Source\PSoC5/ZCD_compA.c ****             /* PSoC3, PSoC5LP or later */
 364:Generated_Source\PSoC5/ZCD_compA.c ****             #if (CY_PSOC3 || CY_PSOC5LP)
 365:Generated_Source\PSoC5/ZCD_compA.c ****                 ZCD_compA_TR1 += 1u;
  73              		.loc 1 365 0
  74 002c DFF85490 		ldr	r9, .L15+8
 353:Generated_Source\PSoC5/ZCD_compA.c ****             #endif /* CY_PSOC3 || CY_PSOC5LP */
  75              		.loc 1 353 0
  76 0030 DFF84CA0 		ldr	r10, .L15+4
 338:Generated_Source\PSoC5/ZCD_compA.c ****     	}
  77              		.loc 1 338 0
  78 0034 0026     		movs	r6, #0
  79              	.LVL3:
  80              	.L8:
 344:Generated_Source\PSoC5/ZCD_compA.c ****         {
  81              		.loc 1 344 0
  82 0036 B8F1000F 		cmp	r8, #0
  83 003a 06D1     		bne	.L5
 353:Generated_Source\PSoC5/ZCD_compA.c ****             #endif /* CY_PSOC3 || CY_PSOC5LP */
  84              		.loc 1 353 0
  85 003c 9AF80030 		ldrb	r3, [r10]	@ zero_extendqisi2
  86 0040 0133     		adds	r3, r3, #1
ARM GAS  C:\Users\chemi\AppData\Local\Temp\ccFeB4tK.s 			page 9


  87 0042 DBB2     		uxtb	r3, r3
  88 0044 8AF80030 		strb	r3, [r10]
  89 0048 05E0     		b	.L6
  90              	.L5:
  91              		.loc 1 365 0
  92 004a 99F80030 		ldrb	r3, [r9]	@ zero_extendqisi2
  93 004e 0133     		adds	r3, r3, #1
  94 0050 DBB2     		uxtb	r3, r3
  95 0052 89F80030 		strb	r3, [r9]
  96              	.L6:
 366:Generated_Source\PSoC5/ZCD_compA.c ****             #endif /* CY_PSOC3 || CY_PSOC5LP */
 367:Generated_Source\PSoC5/ZCD_compA.c ****         }
 368:Generated_Source\PSoC5/ZCD_compA.c ****         
 369:Generated_Source\PSoC5/ZCD_compA.c ****         CyDelayUs(10u);
  97              		.loc 1 369 0
  98 0056 0A20     		movs	r0, #10
  99 0058 FFF7FEFF 		bl	CyDelayUs
 100              	.LVL4:
 370:Generated_Source\PSoC5/ZCD_compA.c ****         
 371:Generated_Source\PSoC5/ZCD_compA.c ****         /* Check for change in comparator output */
 372:Generated_Source\PSoC5/ZCD_compA.c ****         if ((ZCD_compA_WRK & ZCD_compA_CMP_OUT_MASK) != cmpState)
 101              		.loc 1 372 0
 102 005c 2B78     		ldrb	r3, [r5]	@ zero_extendqisi2
 103 005e 03F00103 		and	r3, r3, #1
 104 0062 A342     		cmp	r3, r4
 105 0064 07D1     		bne	.L1
 106              	.LVL5:
 107 0066 0136     		adds	r6, r6, #1
 108              	.LVL6:
 342:Generated_Source\PSoC5/ZCD_compA.c **** 	{
 109              		.loc 1 342 0 discriminator 2
 110 0068 F3B2     		uxtb	r3, r6
 111 006a 9F42     		cmp	r7, r3
 112 006c E3D8     		bhi	.L8
 113 006e BDE8F087 		pop	{r4, r5, r6, r7, r8, r9, r10, pc}
 114              	.LVL7:
 115              	.L3:
 334:Generated_Source\PSoC5/ZCD_compA.c ****     	}
 116              		.loc 1 334 0
 117 0072 0F27     		movs	r7, #15
 118 0074 DAE7     		b	.L9
 119              	.LVL8:
 120              	.L1:
 121 0076 BDE8F087 		pop	{r4, r5, r6, r7, r8, r9, r10, pc}
 122              	.LVL9:
 123              	.L16:
 124 007a 00BF     		.align	2
 125              	.L15:
 126 007c 965B0040 		.word	1073765270
 127 0080 30460040 		.word	1073759792
 128 0084 31460040 		.word	1073759793
 129              		.cfi_endproc
 130              	.LFE6:
 131              		.size	ZCD_compA_trimAdjust, .-ZCD_compA_trimAdjust
 132              		.section	.text.ZCD_compA_Enable,"ax",%progbits
 133              		.align	1
 134              		.global	ZCD_compA_Enable
ARM GAS  C:\Users\chemi\AppData\Local\Temp\ccFeB4tK.s 			page 10


 135              		.thumb
 136              		.thumb_func
 137              		.type	ZCD_compA_Enable, %function
 138              	ZCD_compA_Enable:
 139              	.LFB1:
 100:Generated_Source\PSoC5/ZCD_compA.c ****     ZCD_compA_PWRMGR |= ZCD_compA_ACT_PWR_EN;
 140              		.loc 1 100 0
 141              		.cfi_startproc
 142              		@ args = 0, pretend = 0, frame = 0
 143              		@ frame_needed = 0, uses_anonymous_args = 0
 144              		@ link register save eliminated.
 101:Generated_Source\PSoC5/ZCD_compA.c ****     ZCD_compA_STBY_PWRMGR |= ZCD_compA_STBY_PWR_EN;
 145              		.loc 1 101 0
 146 0000 044A     		ldr	r2, .L18
 147 0002 1378     		ldrb	r3, [r2]	@ zero_extendqisi2
 148 0004 43F00103 		orr	r3, r3, #1
 149 0008 1370     		strb	r3, [r2]
 102:Generated_Source\PSoC5/ZCD_compA.c ****      
 150              		.loc 1 102 0
 151 000a 137C     		ldrb	r3, [r2, #16]	@ zero_extendqisi2
 152 000c 43F00103 		orr	r3, r3, #1
 153 0010 1374     		strb	r3, [r2, #16]
 154 0012 7047     		bx	lr
 155              	.L19:
 156              		.align	2
 157              	.L18:
 158 0014 A7430040 		.word	1073759143
 159              		.cfi_endproc
 160              	.LFE1:
 161              		.size	ZCD_compA_Enable, .-ZCD_compA_Enable
 162              		.section	.text.ZCD_compA_Stop,"ax",%progbits
 163              		.align	1
 164              		.global	ZCD_compA_Stop
 165              		.thumb
 166              		.thumb_func
 167              		.type	ZCD_compA_Stop, %function
 168              	ZCD_compA_Stop:
 169              	.LFB3:
 166:Generated_Source\PSoC5/ZCD_compA.c ****     /* Disable power to comparator */
 170              		.loc 1 166 0
 171              		.cfi_startproc
 172              		@ args = 0, pretend = 0, frame = 0
 173              		@ frame_needed = 0, uses_anonymous_args = 0
 174              		@ link register save eliminated.
 168:Generated_Source\PSoC5/ZCD_compA.c ****     ZCD_compA_STBY_PWRMGR &= (uint8)(~ZCD_compA_STBY_PWR_EN);
 175              		.loc 1 168 0
 176 0000 044A     		ldr	r2, .L21
 177 0002 1378     		ldrb	r3, [r2]	@ zero_extendqisi2
 178 0004 03F0FE03 		and	r3, r3, #254
 179 0008 1370     		strb	r3, [r2]
 169:Generated_Source\PSoC5/ZCD_compA.c ****     
 180              		.loc 1 169 0
 181 000a 137C     		ldrb	r3, [r2, #16]	@ zero_extendqisi2
 182 000c 03F0FE03 		and	r3, r3, #254
 183 0010 1374     		strb	r3, [r2, #16]
 184 0012 7047     		bx	lr
 185              	.L22:
ARM GAS  C:\Users\chemi\AppData\Local\Temp\ccFeB4tK.s 			page 11


 186              		.align	2
 187              	.L21:
 188 0014 A7430040 		.word	1073759143
 189              		.cfi_endproc
 190              	.LFE3:
 191              		.size	ZCD_compA_Stop, .-ZCD_compA_Stop
 192              		.section	.text.ZCD_compA_SetSpeed,"ax",%progbits
 193              		.align	1
 194              		.global	ZCD_compA_SetSpeed
 195              		.thumb
 196              		.thumb_func
 197              		.type	ZCD_compA_SetSpeed, %function
 198              	ZCD_compA_SetSpeed:
 199              	.LFB4:
 198:Generated_Source\PSoC5/ZCD_compA.c ****     /* Clear and Set power level */    
 200              		.loc 1 198 0
 201              		.cfi_startproc
 202              		@ args = 0, pretend = 0, frame = 0
 203              		@ frame_needed = 0, uses_anonymous_args = 0
 204              		@ link register save eliminated.
 205              	.LVL10:
 200:Generated_Source\PSoC5/ZCD_compA.c ****                            (speed & ZCD_compA_PWR_MODE_MASK);
 206              		.loc 1 200 0
 207 0000 0F49     		ldr	r1, .L27
 204:Generated_Source\PSoC5/ZCD_compA.c ****     {
 208              		.loc 1 204 0
 209 0002 0128     		cmp	r0, #1
 200:Generated_Source\PSoC5/ZCD_compA.c ****                            (speed & ZCD_compA_PWR_MODE_MASK);
 210              		.loc 1 200 0
 211 0004 0B78     		ldrb	r3, [r1]	@ zero_extendqisi2
 212 0006 03F0FC02 		and	r2, r3, #252
 213 000a 00F00303 		and	r3, r0, #3
 214 000e 43EA0203 		orr	r3, r3, r2
 215 0012 0B70     		strb	r3, [r1]
 216 0014 A1F59051 		sub	r1, r1, #4608
 217 0018 A1F11001 		sub	r1, r1, #16
 218 001c 094A     		ldr	r2, .L27+4
 204:Generated_Source\PSoC5/ZCD_compA.c ****     {
 219              		.loc 1 204 0
 220 001e 05D1     		bne	.L24
 221              	.LVL11:
 222              	.LBB4:
 223              	.LBB5:
 213:Generated_Source\PSoC5/ZCD_compA.c ****             ZCD_compA_TR1 = ZCD_compA_HS_TRIM_TR1;
 224              		.loc 1 213 0
 225 0020 094B     		ldr	r3, .L27+8
 226 0022 1B78     		ldrb	r3, [r3]	@ zero_extendqisi2
 227 0024 DBB2     		uxtb	r3, r3
 228 0026 0B70     		strb	r3, [r1]
 214:Generated_Source\PSoC5/ZCD_compA.c ****         #endif /* CY_PSOC3 || CY_PSOC5LP */
 229              		.loc 1 214 0
 230 0028 084B     		ldr	r3, .L27+12
 231 002a 04E0     		b	.L26
 232              	.LVL12:
 233              	.L24:
 234              	.LBE5:
 235              	.LBE4:
ARM GAS  C:\Users\chemi\AppData\Local\Temp\ccFeB4tK.s 			page 12


 226:Generated_Source\PSoC5/ZCD_compA.c ****             ZCD_compA_TR1 = ZCD_compA_LS_TRIM_TR1;
 236              		.loc 1 226 0
 237 002c 084B     		ldr	r3, .L27+16
 238 002e 1B78     		ldrb	r3, [r3]	@ zero_extendqisi2
 239 0030 DBB2     		uxtb	r3, r3
 240 0032 0B70     		strb	r3, [r1]
 227:Generated_Source\PSoC5/ZCD_compA.c ****         #endif /* CY_PSOC3 || CY_PSOC5LP */
 241              		.loc 1 227 0
 242 0034 074B     		ldr	r3, .L27+20
 243              	.L26:
 244 0036 1B78     		ldrb	r3, [r3]	@ zero_extendqisi2
 245 0038 DBB2     		uxtb	r3, r3
 246 003a 1370     		strb	r3, [r2]
 247 003c 7047     		bx	lr
 248              	.L28:
 249 003e 00BF     		.align	2
 250              	.L27:
 251 0040 40580040 		.word	1073764416
 252 0044 31460040 		.word	1073759793
 253 0048 10010049 		.word	1224737040
 254 004c 14010049 		.word	1224737044
 255 0050 AD010049 		.word	1224737197
 256 0054 B5010049 		.word	1224737205
 257              		.cfi_endproc
 258              	.LFE4:
 259              		.size	ZCD_compA_SetSpeed, .-ZCD_compA_SetSpeed
 260              		.section	.text.ZCD_compA_Init,"ax",%progbits
 261              		.align	1
 262              		.global	ZCD_compA_Init
 263              		.thumb
 264              		.thumb_func
 265              		.type	ZCD_compA_Init, %function
 266              	ZCD_compA_Init:
 267              	.LFB0:
  52:Generated_Source\PSoC5/ZCD_compA.c ****     /* Set default speed/power */
 268              		.loc 1 52 0
 269              		.cfi_startproc
 270              		@ args = 0, pretend = 0, frame = 0
 271              		@ frame_needed = 0, uses_anonymous_args = 0
 272 0000 08B5     		push	{r3, lr}
 273              		.cfi_def_cfa_offset 8
 274              		.cfi_offset 3, -8
 275              		.cfi_offset 14, -4
  54:Generated_Source\PSoC5/ZCD_compA.c **** 
 276              		.loc 1 54 0
 277 0002 0120     		movs	r0, #1
 278 0004 FFF7FEFF 		bl	ZCD_compA_SetSpeed
 279              	.LVL13:
  60:Generated_Source\PSoC5/ZCD_compA.c ****     #endif /* ZCD_compA_DEFAULT_HYSTERESIS == 0u */
 280              		.loc 1 60 0
 281 0008 0C4B     		ldr	r3, .L30
 282 000a 1A78     		ldrb	r2, [r3]	@ zero_extendqisi2
 283 000c 02F0DF02 		and	r2, r2, #223
 284 0010 1A70     		strb	r2, [r3]
  66:Generated_Source\PSoC5/ZCD_compA.c ****         #else 
 285              		.loc 1 66 0
 286 0012 1A78     		ldrb	r2, [r3]	@ zero_extendqisi2
ARM GAS  C:\Users\chemi\AppData\Local\Temp\ccFeB4tK.s 			page 13


 287 0014 02F0FB02 		and	r2, r2, #251
 288 0018 1A70     		strb	r2, [r3]
  73:Generated_Source\PSoC5/ZCD_compA.c **** 
 289              		.loc 1 73 0
 290 001a 1A78     		ldrb	r2, [r3]	@ zero_extendqisi2
 291 001c 42F00802 		orr	r2, r2, #8
 292 0020 1A70     		strb	r2, [r3]
  76:Generated_Source\PSoC5/ZCD_compA.c ****     #if ( ZCD_compA_DEFAULT_BYPASS_SYNC == 0u )
 293              		.loc 1 76 0
 294 0022 93F88722 		ldrb	r2, [r3, #647]	@ zero_extendqisi2
 295 0026 02F0E702 		and	r2, r2, #231
 296 002a 83F88722 		strb	r2, [r3, #647]
  78:Generated_Source\PSoC5/ZCD_compA.c ****     #else
 297              		.loc 1 78 0
 298 002e 93F88722 		ldrb	r2, [r3, #647]	@ zero_extendqisi2
 299 0032 42F00802 		orr	r2, r2, #8
 300 0036 83F88722 		strb	r2, [r3, #647]
  76:Generated_Source\PSoC5/ZCD_compA.c ****     #if ( ZCD_compA_DEFAULT_BYPASS_SYNC == 0u )
 301              		.loc 1 76 0
 302 003a 08BD     		pop	{r3, pc}
 303              	.L31:
 304              		.align	2
 305              	.L30:
 306 003c 40580040 		.word	1073764416
 307              		.cfi_endproc
 308              	.LFE0:
 309              		.size	ZCD_compA_Init, .-ZCD_compA_Init
 310              		.section	.text.ZCD_compA_Start,"ax",%progbits
 311              		.align	1
 312              		.global	ZCD_compA_Start
 313              		.thumb
 314              		.thumb_func
 315              		.type	ZCD_compA_Start, %function
 316              	ZCD_compA_Start:
 317              	.LFB2:
 137:Generated_Source\PSoC5/ZCD_compA.c **** 
 318              		.loc 1 137 0
 319              		.cfi_startproc
 320              		@ args = 0, pretend = 0, frame = 0
 321              		@ frame_needed = 0, uses_anonymous_args = 0
 322 0000 10B5     		push	{r4, lr}
 323              		.cfi_def_cfa_offset 8
 324              		.cfi_offset 4, -8
 325              		.cfi_offset 14, -4
 139:Generated_Source\PSoC5/ZCD_compA.c ****     {
 326              		.loc 1 139 0
 327 0002 054C     		ldr	r4, .L34
 328 0004 2378     		ldrb	r3, [r4]	@ zero_extendqisi2
 329 0006 1BB9     		cbnz	r3, .L33
 141:Generated_Source\PSoC5/ZCD_compA.c ****         
 330              		.loc 1 141 0
 331 0008 FFF7FEFF 		bl	ZCD_compA_Init
 332              	.LVL14:
 143:Generated_Source\PSoC5/ZCD_compA.c ****     }   
 333              		.loc 1 143 0
 334 000c 0123     		movs	r3, #1
 335 000e 2370     		strb	r3, [r4]
ARM GAS  C:\Users\chemi\AppData\Local\Temp\ccFeB4tK.s 			page 14


 336              	.L33:
 148:Generated_Source\PSoC5/ZCD_compA.c **** 
 337              		.loc 1 148 0
 338 0010 BDE81040 		pop	{r4, lr}
 339              		.cfi_restore 14
 340              		.cfi_restore 4
 341              		.cfi_def_cfa_offset 0
 147:Generated_Source\PSoC5/ZCD_compA.c **** }
 342              		.loc 1 147 0
 343 0014 FFF7FEBF 		b	ZCD_compA_Enable
 344              	.LVL15:
 345              	.L35:
 346              		.align	2
 347              	.L34:
 348 0018 00000000 		.word	.LANCHOR0
 349              		.cfi_endproc
 350              	.LFE2:
 351              		.size	ZCD_compA_Start, .-ZCD_compA_Start
 352              		.section	.text.ZCD_compA_GetCompare,"ax",%progbits
 353              		.align	1
 354              		.global	ZCD_compA_GetCompare
 355              		.thumb
 356              		.thumb_func
 357              		.type	ZCD_compA_GetCompare, %function
 358              	ZCD_compA_GetCompare:
 359              	.LFB5:
 252:Generated_Source\PSoC5/ZCD_compA.c ****     return( ZCD_compA_WRK & ZCD_compA_CMP_OUT_MASK);
 360              		.loc 1 252 0
 361              		.cfi_startproc
 362              		@ args = 0, pretend = 0, frame = 0
 363              		@ frame_needed = 0, uses_anonymous_args = 0
 364              		@ link register save eliminated.
 253:Generated_Source\PSoC5/ZCD_compA.c **** }
 365              		.loc 1 253 0
 366 0000 024B     		ldr	r3, .L37
 367 0002 1878     		ldrb	r0, [r3]	@ zero_extendqisi2
 254:Generated_Source\PSoC5/ZCD_compA.c **** 
 368              		.loc 1 254 0
 369 0004 00F00100 		and	r0, r0, #1
 370 0008 7047     		bx	lr
 371              	.L38:
 372 000a 00BF     		.align	2
 373              	.L37:
 374 000c 965B0040 		.word	1073765270
 375              		.cfi_endproc
 376              	.LFE5:
 377              		.size	ZCD_compA_GetCompare, .-ZCD_compA_GetCompare
 378              		.section	.text.ZCD_compA_ZeroCal,"ax",%progbits
 379              		.align	1
 380              		.global	ZCD_compA_ZeroCal
 381              		.thumb
 382              		.thumb_func
 383              		.type	ZCD_compA_ZeroCal, %function
 384              	ZCD_compA_ZeroCal:
 385              	.LFB7:
 373:Generated_Source\PSoC5/ZCD_compA.c ****         {
 374:Generated_Source\PSoC5/ZCD_compA.c ****             break;      /* output changed state, trim phase is complete */
ARM GAS  C:\Users\chemi\AppData\Local\Temp\ccFeB4tK.s 			page 15


 375:Generated_Source\PSoC5/ZCD_compA.c ****         }        
 376:Generated_Source\PSoC5/ZCD_compA.c ****     }    
 377:Generated_Source\PSoC5/ZCD_compA.c **** }
 378:Generated_Source\PSoC5/ZCD_compA.c **** 
 379:Generated_Source\PSoC5/ZCD_compA.c **** 
 380:Generated_Source\PSoC5/ZCD_compA.c **** /*******************************************************************************
 381:Generated_Source\PSoC5/ZCD_compA.c **** * Function Name: ZCD_compA_ZeroCal
 382:Generated_Source\PSoC5/ZCD_compA.c **** ********************************************************************************
 383:Generated_Source\PSoC5/ZCD_compA.c **** *
 384:Generated_Source\PSoC5/ZCD_compA.c **** * Summary:
 385:Generated_Source\PSoC5/ZCD_compA.c **** *  This function calibrates the offset of the Analog Comparator.
 386:Generated_Source\PSoC5/ZCD_compA.c **** *
 387:Generated_Source\PSoC5/ZCD_compA.c **** * Parameters:
 388:Generated_Source\PSoC5/ZCD_compA.c **** *  None
 389:Generated_Source\PSoC5/ZCD_compA.c **** *
 390:Generated_Source\PSoC5/ZCD_compA.c **** * Return:
 391:Generated_Source\PSoC5/ZCD_compA.c **** *  (uint16)  value written in trim register when calibration complete.
 392:Generated_Source\PSoC5/ZCD_compA.c **** *
 393:Generated_Source\PSoC5/ZCD_compA.c **** * Theory: 
 394:Generated_Source\PSoC5/ZCD_compA.c **** *  This function is used to optimize the calibration for user specific voltage
 395:Generated_Source\PSoC5/ZCD_compA.c **** *  range.  The comparator trim is adjusted to counter transistor offsets
 396:Generated_Source\PSoC5/ZCD_compA.c **** *   - offset is defined as positive if the output transitions to high before inP
 397:Generated_Source\PSoC5/ZCD_compA.c **** *     is greater than inN
 398:Generated_Source\PSoC5/ZCD_compA.c **** *   - offset is defined as negative if the output transitions to high after inP
 399:Generated_Source\PSoC5/ZCD_compA.c **** *     is greater than inP
 400:Generated_Source\PSoC5/ZCD_compA.c **** *
 401:Generated_Source\PSoC5/ZCD_compA.c **** *  PSoC5A
 402:Generated_Source\PSoC5/ZCD_compA.c **** *  The Analog Comparator provides 1 byte for offset trim.  The byte contains two
 403:Generated_Source\PSoC5/ZCD_compA.c **** *  4 bit trim fields - one is a course trim and the other allows smaller
 404:Generated_Source\PSoC5/ZCD_compA.c **** *  offset adjustments only for slow modes.
 405:Generated_Source\PSoC5/ZCD_compA.c **** *  - low nibble - fine trim
 406:Generated_Source\PSoC5/ZCD_compA.c **** *  - high nibble - course trim
 407:Generated_Source\PSoC5/ZCD_compA.c **** *  PSoC3, PSoC5LP or later
 408:Generated_Source\PSoC5/ZCD_compA.c **** *  The Analog Comparator provides 2 bytes for offset trim.  The bytes contain two
 409:Generated_Source\PSoC5/ZCD_compA.c **** *  5 bit trim fields - one is a course trim and the other allows smaller
 410:Generated_Source\PSoC5/ZCD_compA.c **** *  offset adjustments only for slow modes.
 411:Generated_Source\PSoC5/ZCD_compA.c **** *  - TR0 - fine trim
 412:Generated_Source\PSoC5/ZCD_compA.c **** *  - TR1 - course trim
 413:Generated_Source\PSoC5/ZCD_compA.c **** *
 414:Generated_Source\PSoC5/ZCD_compA.c **** *  Trim algorithm is a two phase process
 415:Generated_Source\PSoC5/ZCD_compA.c **** *  The first phase performs course offset adjustment
 416:Generated_Source\PSoC5/ZCD_compA.c **** *  The second phase serves one of two purposes depending on the outcome of the
 417:Generated_Source\PSoC5/ZCD_compA.c **** *  first phase
 418:Generated_Source\PSoC5/ZCD_compA.c **** *  - if the first trim value was maxed out without a comparator output 
 419:Generated_Source\PSoC5/ZCD_compA.c **** *    transition, more offset will be added by adjusting the second trim value.
 420:Generated_Source\PSoC5/ZCD_compA.c **** *  - if the first trim phase resulted in a comparator output transition, the
 421:Generated_Source\PSoC5/ZCD_compA.c **** *    second trim value will serve as fine trim (in the opposite direction)to
 422:Generated_Source\PSoC5/ZCD_compA.c **** *    ensure the offset is < 1 mV.
 423:Generated_Source\PSoC5/ZCD_compA.c **** *
 424:Generated_Source\PSoC5/ZCD_compA.c **** * Trim Process:   
 425:Generated_Source\PSoC5/ZCD_compA.c **** *  1) User applies a voltage to the negative input.  Voltage should be in the
 426:Generated_Source\PSoC5/ZCD_compA.c **** *     comparator operating range or an average of the operating voltage range.
 427:Generated_Source\PSoC5/ZCD_compA.c **** *  2) Clear registers associated with analog routing to the positive input.
 428:Generated_Source\PSoC5/ZCD_compA.c **** *  3) Disable Hysteresis
 429:Generated_Source\PSoC5/ZCD_compA.c **** *  4) Set the calibration bit to short the negative and positive inputs to
 430:Generated_Source\PSoC5/ZCD_compA.c **** *     the users calibration voltage.
 431:Generated_Source\PSoC5/ZCD_compA.c **** *  5) Clear the TR register  ( TR = 0x00 )
ARM GAS  C:\Users\chemi\AppData\Local\Temp\ccFeB4tK.s 			page 16


 432:Generated_Source\PSoC5/ZCD_compA.c **** *  ** LOW MODES
 433:Generated_Source\PSoC5/ZCD_compA.c **** *  6) Check if compare output is high, if so, set the MSb of course trim field 
 434:Generated_Source\PSoC5/ZCD_compA.c **** *     to a 1.
 435:Generated_Source\PSoC5/ZCD_compA.c **** *  7) Increment the course trim field until the compare output changes
 436:Generated_Source\PSoC5/ZCD_compA.c **** *  8) Check if compare output is low, if so, set the MSb of fine trim field
 437:Generated_Source\PSoC5/ZCD_compA.c **** *     to a 1.
 438:Generated_Source\PSoC5/ZCD_compA.c **** *  9) Increment the fine trim field until the compare output changes
 439:Generated_Source\PSoC5/ZCD_compA.c **** *  ** FAST MODE - skip the steps 8,9
 440:Generated_Source\PSoC5/ZCD_compA.c **** *
 441:Generated_Source\PSoC5/ZCD_compA.c **** * Side Effects:
 442:Generated_Source\PSoC5/ZCD_compA.c **** *  Routine clears analog routing associated with the comparator positive input.  
 443:Generated_Source\PSoC5/ZCD_compA.c **** *  This may affect routing of signals from other components that are connected
 444:Generated_Source\PSoC5/ZCD_compA.c **** *  to the positive input of the comparator.
 445:Generated_Source\PSoC5/ZCD_compA.c **** *
 446:Generated_Source\PSoC5/ZCD_compA.c **** *******************************************************************************/
 447:Generated_Source\PSoC5/ZCD_compA.c **** uint16 ZCD_compA_ZeroCal(void) 
 448:Generated_Source\PSoC5/ZCD_compA.c **** {
 386              		.loc 1 448 0
 387              		.cfi_startproc
 388              		@ args = 0, pretend = 0, frame = 16
 389              		@ frame_needed = 0, uses_anonymous_args = 0
 390 0000 2DE9F04F 		push	{r4, r5, r6, r7, r8, r9, r10, fp, lr}
 391              		.cfi_def_cfa_offset 36
 392              		.cfi_offset 4, -36
 393              		.cfi_offset 5, -32
 394              		.cfi_offset 6, -28
 395              		.cfi_offset 7, -24
 396              		.cfi_offset 8, -20
 397              		.cfi_offset 9, -16
 398              		.cfi_offset 10, -12
 399              		.cfi_offset 11, -8
 400              		.cfi_offset 14, -4
 449:Generated_Source\PSoC5/ZCD_compA.c ****     uint8 tmpSW0;
 450:Generated_Source\PSoC5/ZCD_compA.c ****     uint8 tmpSW2;
 451:Generated_Source\PSoC5/ZCD_compA.c ****     uint8 tmpSW3;
 452:Generated_Source\PSoC5/ZCD_compA.c ****     uint8 tmpCR;
 453:Generated_Source\PSoC5/ZCD_compA.c **** 
 454:Generated_Source\PSoC5/ZCD_compA.c ****     /* Save a copy of routing registers associated with inP */
 455:Generated_Source\PSoC5/ZCD_compA.c ****     tmpSW0 = ZCD_compA_SW0;
 456:Generated_Source\PSoC5/ZCD_compA.c ****     tmpSW2 = ZCD_compA_SW2;
 457:Generated_Source\PSoC5/ZCD_compA.c ****     tmpSW3 = ZCD_compA_SW3;
 401              		.loc 1 457 0
 402 0004 214A     		ldr	r2, .L43
 455:Generated_Source\PSoC5/ZCD_compA.c ****     tmpSW2 = ZCD_compA_SW2;
 403              		.loc 1 455 0
 404 0006 224E     		ldr	r6, .L43+4
 456:Generated_Source\PSoC5/ZCD_compA.c ****     tmpSW3 = ZCD_compA_SW3;
 405              		.loc 1 456 0
 406 0008 224D     		ldr	r5, .L43+8
 455:Generated_Source\PSoC5/ZCD_compA.c ****     tmpSW2 = ZCD_compA_SW2;
 407              		.loc 1 455 0
 408 000a 96F800A0 		ldrb	r10, [r6]	@ zero_extendqisi2
 456:Generated_Source\PSoC5/ZCD_compA.c ****     tmpSW3 = ZCD_compA_SW3;
 409              		.loc 1 456 0
 410 000e 95F80090 		ldrb	r9, [r5]	@ zero_extendqisi2
 411              		.loc 1 457 0
 412 0012 92F80080 		ldrb	r8, [r2]	@ zero_extendqisi2
ARM GAS  C:\Users\chemi\AppData\Local\Temp\ccFeB4tK.s 			page 17


 458:Generated_Source\PSoC5/ZCD_compA.c **** 
 459:Generated_Source\PSoC5/ZCD_compA.c ****      /* Clear routing for inP, retain routing for inN */
 460:Generated_Source\PSoC5/ZCD_compA.c ****     ZCD_compA_SW0 = 0x00u;
 413              		.loc 1 460 0
 414 0016 0023     		movs	r3, #0
 457:Generated_Source\PSoC5/ZCD_compA.c **** 
 415              		.loc 1 457 0
 416 0018 5FFA88F8 		uxtb	r8, r8
 461:Generated_Source\PSoC5/ZCD_compA.c ****     ZCD_compA_SW2 = 0x00u;
 462:Generated_Source\PSoC5/ZCD_compA.c ****     ZCD_compA_SW3 = tmpSW3 & (uint8)(~ZCD_compA_CMP_SW3_INPCTL_MASK);
 463:Generated_Source\PSoC5/ZCD_compA.c **** 
 464:Generated_Source\PSoC5/ZCD_compA.c ****     /* Preserve original configuration
 465:Generated_Source\PSoC5/ZCD_compA.c ****      * - turn off Hysteresis
 466:Generated_Source\PSoC5/ZCD_compA.c ****      * - set calibration bit - shorts inN to inP
 467:Generated_Source\PSoC5/ZCD_compA.c ****     */
 468:Generated_Source\PSoC5/ZCD_compA.c ****     tmpCR = ZCD_compA_CR;
 417              		.loc 1 468 0
 418 001c 1E4C     		ldr	r4, .L43+12
 462:Generated_Source\PSoC5/ZCD_compA.c **** 
 419              		.loc 1 462 0
 420 001e 08F0F601 		and	r1, r8, #246
 460:Generated_Source\PSoC5/ZCD_compA.c ****     ZCD_compA_SW2 = 0x00u;
 421              		.loc 1 460 0
 422 0022 3370     		strb	r3, [r6]
 461:Generated_Source\PSoC5/ZCD_compA.c ****     ZCD_compA_SW2 = 0x00u;
 423              		.loc 1 461 0
 424 0024 2B70     		strb	r3, [r5]
 462:Generated_Source\PSoC5/ZCD_compA.c **** 
 425              		.loc 1 462 0
 426 0026 1170     		strb	r1, [r2]
 427              		.loc 1 468 0
 428 0028 94F800B0 		ldrb	fp, [r4]	@ zero_extendqisi2
 469:Generated_Source\PSoC5/ZCD_compA.c ****     ZCD_compA_CR |= (ZCD_compA_CAL_ON | ZCD_compA_HYST_OFF);
 429              		.loc 1 469 0
 430 002c 2178     		ldrb	r1, [r4]	@ zero_extendqisi2
 470:Generated_Source\PSoC5/ZCD_compA.c ****     
 471:Generated_Source\PSoC5/ZCD_compA.c ****     /* Write default low values to trim register - no offset adjust */
 472:Generated_Source\PSoC5/ZCD_compA.c ****     /* PSoC5A */
 473:Generated_Source\PSoC5/ZCD_compA.c ****     #if (CY_PSOC5A)
 474:Generated_Source\PSoC5/ZCD_compA.c ****         ZCD_compA_TR = ZCD_compA_DEFAULT_CMP_TRIM;
 475:Generated_Source\PSoC5/ZCD_compA.c ****     #endif /* CY_PSOC5A */
 476:Generated_Source\PSoC5/ZCD_compA.c ****     
 477:Generated_Source\PSoC5/ZCD_compA.c ****     /* PSoC3, PSoC5LP or later */
 478:Generated_Source\PSoC5/ZCD_compA.c ****     #if (CY_PSOC3 || CY_PSOC5LP)
 479:Generated_Source\PSoC5/ZCD_compA.c ****         ZCD_compA_TR0 = ZCD_compA_DEFAULT_CMP_TRIM;
 480:Generated_Source\PSoC5/ZCD_compA.c ****         ZCD_compA_TR1 = ZCD_compA_DEFAULT_CMP_TRIM;
 431              		.loc 1 480 0
 432 002e 1B4F     		ldr	r7, .L43+16
 469:Generated_Source\PSoC5/ZCD_compA.c ****     ZCD_compA_CR |= (ZCD_compA_CAL_ON | ZCD_compA_HYST_OFF);
 433              		.loc 1 469 0
 434 0030 41F03001 		orr	r1, r1, #48
 435 0034 2170     		strb	r1, [r4]
 479:Generated_Source\PSoC5/ZCD_compA.c ****         ZCD_compA_TR1 = ZCD_compA_DEFAULT_CMP_TRIM;
 436              		.loc 1 479 0
 437 0036 1A49     		ldr	r1, .L43+20
 448:Generated_Source\PSoC5/ZCD_compA.c ****     uint8 tmpSW0;
 438              		.loc 1 448 0
ARM GAS  C:\Users\chemi\AppData\Local\Temp\ccFeB4tK.s 			page 18


 439 0038 85B0     		sub	sp, sp, #20
 440              		.cfi_def_cfa_offset 56
 479:Generated_Source\PSoC5/ZCD_compA.c ****         ZCD_compA_TR1 = ZCD_compA_DEFAULT_CMP_TRIM;
 441              		.loc 1 479 0
 442 003a 0B70     		strb	r3, [r1]
 443              		.loc 1 480 0
 444 003c 3B70     		strb	r3, [r7]
 481:Generated_Source\PSoC5/ZCD_compA.c ****     #endif /* CY_PSOC3 || CY_PSOC5LP */
 482:Generated_Source\PSoC5/ZCD_compA.c **** 	
 483:Generated_Source\PSoC5/ZCD_compA.c **** 	/* Two phase trim - slow modes, one phase trim - for fast */ 
 484:Generated_Source\PSoC5/ZCD_compA.c ****     if ( (ZCD_compA_CR & ZCD_compA_PWR_MODE_MASK) == ZCD_compA_PWR_MODE_FAST)
 445              		.loc 1 484 0
 446 003e 2078     		ldrb	r0, [r4]	@ zero_extendqisi2
 455:Generated_Source\PSoC5/ZCD_compA.c ****     tmpSW2 = ZCD_compA_SW2;
 447              		.loc 1 455 0
 448 0040 5FFA8AFA 		uxtb	r10, r10
 449              	.LVL16:
 450              		.loc 1 484 0
 451 0044 00F00300 		and	r0, r0, #3
 452 0048 0128     		cmp	r0, #1
 456:Generated_Source\PSoC5/ZCD_compA.c ****     tmpSW3 = ZCD_compA_SW3;
 453              		.loc 1 456 0
 454 004a 5FFA89F9 		uxtb	r9, r9
 455              	.LVL17:
 468:Generated_Source\PSoC5/ZCD_compA.c ****     ZCD_compA_CR |= (ZCD_compA_CAL_ON | ZCD_compA_HYST_OFF);
 456              		.loc 1 468 0
 457 004e 5FFA8BFB 		uxtb	fp, fp
 458              	.LVL18:
 459 0052 0192     		str	r2, [sp, #4]
 460 0054 0291     		str	r1, [sp, #8]
 461              		.loc 1 484 0
 462 0056 04D0     		beq	.L42
 485:Generated_Source\PSoC5/ZCD_compA.c ****     {
 486:Generated_Source\PSoC5/ZCD_compA.c ****         ZCD_compA_trimAdjust(0u);
 487:Generated_Source\PSoC5/ZCD_compA.c ****     }
 488:Generated_Source\PSoC5/ZCD_compA.c ****     else /* default to trim for fast modes */
 489:Generated_Source\PSoC5/ZCD_compA.c ****     {
 490:Generated_Source\PSoC5/ZCD_compA.c ****         ZCD_compA_trimAdjust(1u);
 463              		.loc 1 490 0
 464 0058 0120     		movs	r0, #1
 465 005a 0393     		str	r3, [sp, #12]
 466 005c FFF7FEFF 		bl	ZCD_compA_trimAdjust
 467              	.LVL19:
 491:Generated_Source\PSoC5/ZCD_compA.c **** 		ZCD_compA_trimAdjust(0u);
 468              		.loc 1 491 0
 469 0060 039B     		ldr	r3, [sp, #12]
 470              	.L42:
 471 0062 1846     		mov	r0, r3
 472 0064 FFF7FEFF 		bl	ZCD_compA_trimAdjust
 473              	.LVL20:
 492:Generated_Source\PSoC5/ZCD_compA.c ****     }
 493:Generated_Source\PSoC5/ZCD_compA.c ****    
 494:Generated_Source\PSoC5/ZCD_compA.c ****     /* Restore Config Register */
 495:Generated_Source\PSoC5/ZCD_compA.c ****     ZCD_compA_CR = tmpCR;
 474              		.loc 1 495 0
 475 0068 84F800B0 		strb	fp, [r4]
 496:Generated_Source\PSoC5/ZCD_compA.c ****     
ARM GAS  C:\Users\chemi\AppData\Local\Temp\ccFeB4tK.s 			page 19


 497:Generated_Source\PSoC5/ZCD_compA.c ****     /* Restore routing registers for inP */
 498:Generated_Source\PSoC5/ZCD_compA.c ****     ZCD_compA_SW0 = tmpSW0;
 476              		.loc 1 498 0
 477 006c 86F800A0 		strb	r10, [r6]
 499:Generated_Source\PSoC5/ZCD_compA.c ****     ZCD_compA_SW2 = tmpSW2;
 478              		.loc 1 499 0
 479 0070 85F80090 		strb	r9, [r5]
 500:Generated_Source\PSoC5/ZCD_compA.c ****     ZCD_compA_SW3 = tmpSW3;
 480              		.loc 1 500 0
 481 0074 019B     		ldr	r3, [sp, #4]
 482 0076 83F80080 		strb	r8, [r3]
 501:Generated_Source\PSoC5/ZCD_compA.c ****     
 502:Generated_Source\PSoC5/ZCD_compA.c ****     /* PSoC5A */
 503:Generated_Source\PSoC5/ZCD_compA.c ****     #if (CY_PSOC5A)
 504:Generated_Source\PSoC5/ZCD_compA.c ****         return (uint16) ZCD_compA_TR;
 505:Generated_Source\PSoC5/ZCD_compA.c ****     #endif /* CY_PSOC5A */
 506:Generated_Source\PSoC5/ZCD_compA.c ****     
 507:Generated_Source\PSoC5/ZCD_compA.c ****     /* PSoC3, PSoC5LP or later */
 508:Generated_Source\PSoC5/ZCD_compA.c ****     #if (CY_PSOC3 || CY_PSOC5LP)
 509:Generated_Source\PSoC5/ZCD_compA.c ****         return ((uint16)((uint16)ZCD_compA_TR1 << 8u) | (ZCD_compA_TR0));        
 483              		.loc 1 509 0
 484 007a 029B     		ldr	r3, [sp, #8]
 485 007c 3878     		ldrb	r0, [r7]	@ zero_extendqisi2
 486 007e 1B78     		ldrb	r3, [r3]	@ zero_extendqisi2
 510:Generated_Source\PSoC5/ZCD_compA.c ****     #endif /* CY_PSOC3 || CY_PSOC5LP */
 511:Generated_Source\PSoC5/ZCD_compA.c **** }
 487              		.loc 1 511 0
 488 0080 43EA0020 		orr	r0, r3, r0, lsl #8
 489 0084 05B0     		add	sp, sp, #20
 490              		.cfi_def_cfa_offset 36
 491              		@ sp needed
 492 0086 BDE8F08F 		pop	{r4, r5, r6, r7, r8, r9, r10, fp, pc}
 493              	.LVL21:
 494              	.L44:
 495 008a 00BF     		.align	2
 496              	.L43:
 497 008c C35A0040 		.word	1073765059
 498 0090 C05A0040 		.word	1073765056
 499 0094 C25A0040 		.word	1073765058
 500 0098 40580040 		.word	1073764416
 501 009c 31460040 		.word	1073759793
 502 00a0 30460040 		.word	1073759792
 503              		.cfi_endproc
 504              	.LFE7:
 505              		.size	ZCD_compA_ZeroCal, .-ZCD_compA_ZeroCal
 506              		.section	.text.ZCD_compA_LoadTrim,"ax",%progbits
 507              		.align	1
 508              		.global	ZCD_compA_LoadTrim
 509              		.thumb
 510              		.thumb_func
 511              		.type	ZCD_compA_LoadTrim, %function
 512              	ZCD_compA_LoadTrim:
 513              	.LFB8:
 512:Generated_Source\PSoC5/ZCD_compA.c **** 
 513:Generated_Source\PSoC5/ZCD_compA.c **** 
 514:Generated_Source\PSoC5/ZCD_compA.c **** /*******************************************************************************
 515:Generated_Source\PSoC5/ZCD_compA.c **** * Function Name: ZCD_compA_LoadTrim
ARM GAS  C:\Users\chemi\AppData\Local\Temp\ccFeB4tK.s 			page 20


 516:Generated_Source\PSoC5/ZCD_compA.c **** ********************************************************************************
 517:Generated_Source\PSoC5/ZCD_compA.c **** *
 518:Generated_Source\PSoC5/ZCD_compA.c **** * Summary:
 519:Generated_Source\PSoC5/ZCD_compA.c **** *  This function stores a value in the Analog Comparator trim register.
 520:Generated_Source\PSoC5/ZCD_compA.c **** *
 521:Generated_Source\PSoC5/ZCD_compA.c **** * Parameters:  
 522:Generated_Source\PSoC5/ZCD_compA.c **** *  uint8 trimVal - trim value.  This value is the same format as the value 
 523:Generated_Source\PSoC5/ZCD_compA.c **** *  returned by the _ZeroCal routine.
 524:Generated_Source\PSoC5/ZCD_compA.c **** *
 525:Generated_Source\PSoC5/ZCD_compA.c **** * Return:
 526:Generated_Source\PSoC5/ZCD_compA.c **** *  None
 527:Generated_Source\PSoC5/ZCD_compA.c **** *
 528:Generated_Source\PSoC5/ZCD_compA.c **** *******************************************************************************/
 529:Generated_Source\PSoC5/ZCD_compA.c **** void ZCD_compA_LoadTrim(uint16 trimVal) 
 530:Generated_Source\PSoC5/ZCD_compA.c **** {
 514              		.loc 1 530 0
 515              		.cfi_startproc
 516              		@ args = 0, pretend = 0, frame = 0
 517              		@ frame_needed = 0, uses_anonymous_args = 0
 518              		@ link register save eliminated.
 519              	.LVL22:
 531:Generated_Source\PSoC5/ZCD_compA.c ****     /* Stores value in the Analog Comparator trim register */
 532:Generated_Source\PSoC5/ZCD_compA.c ****     /* PSoC5A */
 533:Generated_Source\PSoC5/ZCD_compA.c ****     #if (CY_PSOC5A)
 534:Generated_Source\PSoC5/ZCD_compA.c ****         ZCD_compA_TR = (uint8) trimVal;
 535:Generated_Source\PSoC5/ZCD_compA.c ****     #endif /* CY_PSOC5A */
 536:Generated_Source\PSoC5/ZCD_compA.c ****     
 537:Generated_Source\PSoC5/ZCD_compA.c ****     /* PSoC3, PSoC5LP or later */
 538:Generated_Source\PSoC5/ZCD_compA.c ****     #if (CY_PSOC3 || CY_PSOC5LP)
 539:Generated_Source\PSoC5/ZCD_compA.c ****         /* Stores value in the Analog Comparator trim register for P-type load */
 540:Generated_Source\PSoC5/ZCD_compA.c ****         ZCD_compA_TR0 = (uint8) trimVal;
 520              		.loc 1 540 0
 521 0000 024B     		ldr	r3, .L46
 522 0002 C2B2     		uxtb	r2, r0
 541:Generated_Source\PSoC5/ZCD_compA.c ****         
 542:Generated_Source\PSoC5/ZCD_compA.c ****         /* Stores value in the Analog Comparator trim register for N-type load */
 543:Generated_Source\PSoC5/ZCD_compA.c ****         ZCD_compA_TR1 = (uint8) (trimVal >> 8); 
 523              		.loc 1 543 0
 524 0004 000A     		lsrs	r0, r0, #8
 525              	.LVL23:
 540:Generated_Source\PSoC5/ZCD_compA.c ****         
 526              		.loc 1 540 0
 527 0006 1A70     		strb	r2, [r3]
 528              		.loc 1 543 0
 529 0008 5870     		strb	r0, [r3, #1]
 530 000a 7047     		bx	lr
 531              	.L47:
 532              		.align	2
 533              	.L46:
 534 000c 30460040 		.word	1073759792
 535              		.cfi_endproc
 536              	.LFE8:
 537              		.size	ZCD_compA_LoadTrim, .-ZCD_compA_LoadTrim
 538              		.section	.text.ZCD_compA_PwrDwnOverrideEnable,"ax",%progbits
 539              		.align	1
 540              		.global	ZCD_compA_PwrDwnOverrideEnable
 541              		.thumb
ARM GAS  C:\Users\chemi\AppData\Local\Temp\ccFeB4tK.s 			page 21


 542              		.thumb_func
 543              		.type	ZCD_compA_PwrDwnOverrideEnable, %function
 544              	ZCD_compA_PwrDwnOverrideEnable:
 545              	.LFB9:
 544:Generated_Source\PSoC5/ZCD_compA.c ****     #endif /* CY_PSOC3 || CY_PSOC5LP */
 545:Generated_Source\PSoC5/ZCD_compA.c **** }
 546:Generated_Source\PSoC5/ZCD_compA.c **** 
 547:Generated_Source\PSoC5/ZCD_compA.c **** 
 548:Generated_Source\PSoC5/ZCD_compA.c **** #if (CY_PSOC3 || CY_PSOC5LP)
 549:Generated_Source\PSoC5/ZCD_compA.c **** 
 550:Generated_Source\PSoC5/ZCD_compA.c ****     /*******************************************************************************
 551:Generated_Source\PSoC5/ZCD_compA.c ****     * Function Name: ZCD_compA_PwrDwnOverrideEnable
 552:Generated_Source\PSoC5/ZCD_compA.c ****     ********************************************************************************
 553:Generated_Source\PSoC5/ZCD_compA.c ****     *
 554:Generated_Source\PSoC5/ZCD_compA.c ****     * Summary:
 555:Generated_Source\PSoC5/ZCD_compA.c ****     *  This is the power down over-ride feature. This function ignores sleep 
 556:Generated_Source\PSoC5/ZCD_compA.c ****     *  parameter and allows the component to stay active during sleep mode.
 557:Generated_Source\PSoC5/ZCD_compA.c ****     *
 558:Generated_Source\PSoC5/ZCD_compA.c ****     * Parameters:
 559:Generated_Source\PSoC5/ZCD_compA.c ****     *  None
 560:Generated_Source\PSoC5/ZCD_compA.c ****     *
 561:Generated_Source\PSoC5/ZCD_compA.c ****     * Return:
 562:Generated_Source\PSoC5/ZCD_compA.c ****     *  None
 563:Generated_Source\PSoC5/ZCD_compA.c ****     *
 564:Generated_Source\PSoC5/ZCD_compA.c ****     *******************************************************************************/
 565:Generated_Source\PSoC5/ZCD_compA.c ****     void ZCD_compA_PwrDwnOverrideEnable(void) 
 566:Generated_Source\PSoC5/ZCD_compA.c ****     {
 546              		.loc 1 566 0
 547              		.cfi_startproc
 548              		@ args = 0, pretend = 0, frame = 0
 549              		@ frame_needed = 0, uses_anonymous_args = 0
 550              		@ link register save eliminated.
 567:Generated_Source\PSoC5/ZCD_compA.c ****         /* Set the pd_override bit in CMP_CR register */
 568:Generated_Source\PSoC5/ZCD_compA.c ****         ZCD_compA_CR |= ZCD_compA_PWRDWN_OVRD;
 551              		.loc 1 568 0
 552 0000 024A     		ldr	r2, .L49
 553 0002 1378     		ldrb	r3, [r2]	@ zero_extendqisi2
 554 0004 43F00403 		orr	r3, r3, #4
 555 0008 1370     		strb	r3, [r2]
 556 000a 7047     		bx	lr
 557              	.L50:
 558              		.align	2
 559              	.L49:
 560 000c 40580040 		.word	1073764416
 561              		.cfi_endproc
 562              	.LFE9:
 563              		.size	ZCD_compA_PwrDwnOverrideEnable, .-ZCD_compA_PwrDwnOverrideEnable
 564              		.section	.text.ZCD_compA_PwrDwnOverrideDisable,"ax",%progbits
 565              		.align	1
 566              		.global	ZCD_compA_PwrDwnOverrideDisable
 567              		.thumb
 568              		.thumb_func
 569              		.type	ZCD_compA_PwrDwnOverrideDisable, %function
 570              	ZCD_compA_PwrDwnOverrideDisable:
 571              	.LFB10:
 569:Generated_Source\PSoC5/ZCD_compA.c ****     }
 570:Generated_Source\PSoC5/ZCD_compA.c **** 
ARM GAS  C:\Users\chemi\AppData\Local\Temp\ccFeB4tK.s 			page 22


 571:Generated_Source\PSoC5/ZCD_compA.c **** 
 572:Generated_Source\PSoC5/ZCD_compA.c ****     /*******************************************************************************
 573:Generated_Source\PSoC5/ZCD_compA.c ****     * Function Name: ZCD_compA_PwrDwnOverrideDisable
 574:Generated_Source\PSoC5/ZCD_compA.c ****     ********************************************************************************
 575:Generated_Source\PSoC5/ZCD_compA.c ****     *
 576:Generated_Source\PSoC5/ZCD_compA.c ****     * Summary:
 577:Generated_Source\PSoC5/ZCD_compA.c ****     *  This is the power down over-ride feature. This allows the component to stay
 578:Generated_Source\PSoC5/ZCD_compA.c ****     *  inactive during sleep.
 579:Generated_Source\PSoC5/ZCD_compA.c ****     *
 580:Generated_Source\PSoC5/ZCD_compA.c ****     * Parameters:
 581:Generated_Source\PSoC5/ZCD_compA.c ****     *  None
 582:Generated_Source\PSoC5/ZCD_compA.c ****     *
 583:Generated_Source\PSoC5/ZCD_compA.c ****     * Return:
 584:Generated_Source\PSoC5/ZCD_compA.c ****     *  None
 585:Generated_Source\PSoC5/ZCD_compA.c ****     *
 586:Generated_Source\PSoC5/ZCD_compA.c ****     *******************************************************************************/
 587:Generated_Source\PSoC5/ZCD_compA.c ****     void ZCD_compA_PwrDwnOverrideDisable(void) 
 588:Generated_Source\PSoC5/ZCD_compA.c ****     {
 572              		.loc 1 588 0
 573              		.cfi_startproc
 574              		@ args = 0, pretend = 0, frame = 0
 575              		@ frame_needed = 0, uses_anonymous_args = 0
 576              		@ link register save eliminated.
 589:Generated_Source\PSoC5/ZCD_compA.c ****         /* Reset the pd_override bit in CMP_CR register */
 590:Generated_Source\PSoC5/ZCD_compA.c ****         ZCD_compA_CR &= (uint8)(~ZCD_compA_PWRDWN_OVRD);
 577              		.loc 1 590 0
 578 0000 024A     		ldr	r2, .L52
 579 0002 1378     		ldrb	r3, [r2]	@ zero_extendqisi2
 580 0004 03F0FB03 		and	r3, r3, #251
 581 0008 1370     		strb	r3, [r2]
 582 000a 7047     		bx	lr
 583              	.L53:
 584              		.align	2
 585              	.L52:
 586 000c 40580040 		.word	1073764416
 587              		.cfi_endproc
 588              	.LFE10:
 589              		.size	ZCD_compA_PwrDwnOverrideDisable, .-ZCD_compA_PwrDwnOverrideDisable
 590              		.global	ZCD_compA_initVar
 591              		.bss
 592              		.set	.LANCHOR0,. + 0
 593              		.type	ZCD_compA_initVar, %object
 594              		.size	ZCD_compA_initVar, 1
 595              	ZCD_compA_initVar:
 596 0000 00       		.space	1
 597              		.text
 598              	.Letext0:
 599              		.file 2 "Generated_Source\\PSoC5\\cytypes.h"
 600              		.file 3 "Generated_Source\\PSoC5\\CyLib.h"