ARM GAS  C:\Users\chemi\AppData\Local\Temp\ccYgzjWZ.s 			page 1


   1              		.syntax unified
   2              		.cpu cortex-m3
   3              		.fpu softvfp
   4              		.eabi_attribute 20, 1
   5              		.eabi_attribute 21, 1
   6              		.eabi_attribute 23, 3
   7              		.eabi_attribute 24, 1
   8              		.eabi_attribute 25, 1
   9              		.eabi_attribute 26, 1
  10              		.eabi_attribute 30, 4
  11              		.eabi_attribute 34, 1
  12              		.eabi_attribute 18, 4
  13              		.thumb
  14              		.syntax unified
  15              		.file	"ZCDtoPWM.c"
  16              		.text
  17              	.Ltext0:
  18              		.cfi_sections	.debug_frame
  19              		.global	__aeabi_ui2f
  20              		.global	__aeabi_i2f
  21              		.global	__aeabi_fdiv
  22              		.global	__aeabi_fmul
  23              		.global	__aeabi_f2d
  24              		.global	__aeabi_ddiv
  25              		.global	__aeabi_d2f
  26              		.global	__aeabi_fcmpgt
  27              		.global	__aeabi_d2uiz
  28              		.section	.text.configure_CT1,"ax",%progbits
  29              		.align	1
  30              		.global	configure_CT1
  31              		.thumb
  32              		.thumb_func
  33              		.type	configure_CT1, %function
  34              	configure_CT1:
  35              	.LFB69:
  36              		.file 1 "..\\common\\ud3core\\ZCDtoPWM.c"
   1:..\common\ud3core/ZCDtoPWM.c **** /*
   2:..\common\ud3core/ZCDtoPWM.c ****  * UD3
   3:..\common\ud3core/ZCDtoPWM.c ****  *
   4:..\common\ud3core/ZCDtoPWM.c ****  * Copyright (c) 2018 Jens Kerrinnes
   5:..\common\ud3core/ZCDtoPWM.c ****  * Copyright (c) 2015 Steve Ward
   6:..\common\ud3core/ZCDtoPWM.c ****  *
   7:..\common\ud3core/ZCDtoPWM.c ****  * Permission is hereby granted, free of charge, to any person obtaining a copy of
   8:..\common\ud3core/ZCDtoPWM.c ****  * this software and associated documentation files (the "Software"), to deal in
   9:..\common\ud3core/ZCDtoPWM.c ****  * the Software without restriction, including without limitation the rights to
  10:..\common\ud3core/ZCDtoPWM.c ****  * use, copy, modify, merge, publish, distribute, sublicense, and/or sell copies of
  11:..\common\ud3core/ZCDtoPWM.c ****  * the Software, and to permit persons to whom the Software is furnished to do so,
  12:..\common\ud3core/ZCDtoPWM.c ****  * subject to the following conditions:
  13:..\common\ud3core/ZCDtoPWM.c ****  *
  14:..\common\ud3core/ZCDtoPWM.c ****  * The above copyright notice and this permission notice shall be included in all
  15:..\common\ud3core/ZCDtoPWM.c ****  * copies or substantial portions of the Software.
  16:..\common\ud3core/ZCDtoPWM.c ****  *
  17:..\common\ud3core/ZCDtoPWM.c ****  * THE SOFTWARE IS PROVIDED "AS IS", WITHOUT WARRANTY OF ANY KIND, EXPRESS OR
  18:..\common\ud3core/ZCDtoPWM.c ****  * IMPLIED, INCLUDING BUT NOT LIMITED TO THE WARRANTIES OF MERCHANTABILITY, FITNESS
  19:..\common\ud3core/ZCDtoPWM.c ****  * FOR A PARTICULAR PURPOSE AND NONINFRINGEMENT. IN NO EVENT SHALL THE AUTHORS OR
  20:..\common\ud3core/ZCDtoPWM.c ****  * COPYRIGHT HOLDERS BE LIABLE FOR ANY CLAIM, DAMAGES OR OTHER LIABILITY, WHETHER
  21:..\common\ud3core/ZCDtoPWM.c ****  * IN AN ACTION OF CONTRACT, TORT OR OTHERWISE, ARISING FROM, OUT OF OR IN
ARM GAS  C:\Users\chemi\AppData\Local\Temp\ccYgzjWZ.s 			page 2


  22:..\common\ud3core/ZCDtoPWM.c ****  * CONNECTION WITH THE SOFTWARE OR THE USE OR OTHER DEALINGS IN THE SOFTWARE.
  23:..\common\ud3core/ZCDtoPWM.c **** */
  24:..\common\ud3core/ZCDtoPWM.c **** 
  25:..\common\ud3core/ZCDtoPWM.c **** #include "ZCDtoPWM.h"
  26:..\common\ud3core/ZCDtoPWM.c **** #include "cli_common.h"
  27:..\common\ud3core/ZCDtoPWM.c **** #include "interrupter.h"
  28:..\common\ud3core/ZCDtoPWM.c **** #include "tasks/tsk_fault.h"
  29:..\common\ud3core/ZCDtoPWM.c **** #include <device.h>
  30:..\common\ud3core/ZCDtoPWM.c **** #include <math.h>
  31:..\common\ud3core/ZCDtoPWM.c **** 
  32:..\common\ud3core/ZCDtoPWM.c **** uint16_t fb_filter_in=1;
  33:..\common\ud3core/ZCDtoPWM.c **** uint16_t fb_filter_out=1;
  34:..\common\ud3core/ZCDtoPWM.c **** 
  35:..\common\ud3core/ZCDtoPWM.c **** void initialize_ZCD_to_PWM(void) {
  36:..\common\ud3core/ZCDtoPWM.c **** 	//initialize all the timers/counters/PWMs
  37:..\common\ud3core/ZCDtoPWM.c **** 	PWMA_Start();
  38:..\common\ud3core/ZCDtoPWM.c **** 	PWMB_Start();
  39:..\common\ud3core/ZCDtoPWM.c **** 	FB_capture_Start();
  40:..\common\ud3core/ZCDtoPWM.c **** 	ZCD_counter_Start();
  41:..\common\ud3core/ZCDtoPWM.c **** 	FB_glitch_detect_Start();
  42:..\common\ud3core/ZCDtoPWM.c **** 
  43:..\common\ud3core/ZCDtoPWM.c **** 	//initialize all comparators
  44:..\common\ud3core/ZCDtoPWM.c **** 	ZCD_compA_Start();
  45:..\common\ud3core/ZCDtoPWM.c **** 	ZCD_compB_Start();
  46:..\common\ud3core/ZCDtoPWM.c **** 	CT1_comp_Start();
  47:..\common\ud3core/ZCDtoPWM.c **** 
  48:..\common\ud3core/ZCDtoPWM.c **** 	//initialize the DACs
  49:..\common\ud3core/ZCDtoPWM.c **** 	CT1_dac_Start();
  50:..\common\ud3core/ZCDtoPWM.c **** 	ZCDref_Start();
  51:..\common\ud3core/ZCDtoPWM.c **** 	FB_THRSH_DAC_Start();
  52:..\common\ud3core/ZCDtoPWM.c ****     Opamp_1_Start();
  53:..\common\ud3core/ZCDtoPWM.c **** 
  54:..\common\ud3core/ZCDtoPWM.c **** 	//start the feedback filter block
  55:..\common\ud3core/ZCDtoPWM.c **** 	FB_Filter_Start();
  56:..\common\ud3core/ZCDtoPWM.c **** 	FB_Filter_SetCoherency(FB_Filter_CHANNEL_A, FB_Filter_KEY_MID);
  57:..\common\ud3core/ZCDtoPWM.c **** 
  58:..\common\ud3core/ZCDtoPWM.c **** 	configure_ZCD_to_PWM();
  59:..\common\ud3core/ZCDtoPWM.c **** }
  60:..\common\ud3core/ZCDtoPWM.c **** 
  61:..\common\ud3core/ZCDtoPWM.c **** void configure_CT1(void) {
  37              		.loc 1 61 0
  38              		.cfi_startproc
  39              		@ args = 0, pretend = 0, frame = 0
  40              		@ frame_needed = 0, uses_anonymous_args = 0
  41 0000 2DE9F041 		push	{r4, r5, r6, r7, r8, lr}
  42              		.cfi_def_cfa_offset 24
  43              		.cfi_offset 4, -24
  44              		.cfi_offset 5, -20
  45              		.cfi_offset 6, -16
  46              		.cfi_offset 7, -12
  47              		.cfi_offset 8, -8
  48              		.cfi_offset 14, -4
  62:..\common\ud3core/ZCDtoPWM.c **** 
  63:..\common\ud3core/ZCDtoPWM.c **** 	float max_tr_cl_dac_val_temp;
  64:..\common\ud3core/ZCDtoPWM.c **** 	float max_qcw_cl_dac_val_temp;
  65:..\common\ud3core/ZCDtoPWM.c **** 	float min_tr_cl_dac_val_temp;
  66:..\common\ud3core/ZCDtoPWM.c **** 
ARM GAS  C:\Users\chemi\AppData\Local\Temp\ccYgzjWZ.s 			page 3


  67:..\common\ud3core/ZCDtoPWM.c **** 	//figure out the CT setups
  68:..\common\ud3core/ZCDtoPWM.c **** 	max_tr_cl_dac_val_temp = (((float)configuration.max_tr_current / (float)configuration.ct1_ratio) *
  49              		.loc 1 68 0
  50 0004 404C     		ldr	r4, .L12+8
  51 0006 608A     		ldrh	r0, [r4, #18]
  52 0008 FFF7FEFF 		bl	__aeabi_ui2f
  53              	.LVL0:
  54 000c 0746     		mov	r7, r0
  55 000e E08A     		ldrh	r0, [r4, #22]
  56 0010 FFF7FEFF 		bl	__aeabi_i2f
  57              	.LVL1:
  58 0014 0646     		mov	r6, r0
  59 0016 6089     		ldrh	r0, [r4, #10]
  60 0018 FFF7FEFF 		bl	__aeabi_ui2f
  61              	.LVL2:
  62 001c 3946     		mov	r1, r7
  63 001e FFF7FEFF 		bl	__aeabi_fdiv
  64              	.LVL3:
  65 0022 3146     		mov	r1, r6
  66 0024 FFF7FEFF 		bl	__aeabi_fmul
  67              	.LVL4:
  68 0028 FFF7FEFF 		bl	__aeabi_f2d
  69              	.LVL5:
  70 002c 34A3     		adr	r3, .L12
  71 002e D3E90023 		ldrd	r2, [r3]
  72 0032 FFF7FEFF 		bl	__aeabi_ddiv
  73              	.LVL6:
  74 0036 FFF7FEFF 		bl	__aeabi_d2f
  75              	.LVL7:
  69:..\common\ud3core/ZCDtoPWM.c **** 	if (max_tr_cl_dac_val_temp > 255) {
  76              		.loc 1 69 0
  77 003a 3449     		ldr	r1, .L12+12
  68:..\common\ud3core/ZCDtoPWM.c **** 	if (max_tr_cl_dac_val_temp > 255) {
  78              		.loc 1 68 0
  79 003c 8046     		mov	r8, r0
  80              	.LVL8:
  81              		.loc 1 69 0
  82 003e FFF7FEFF 		bl	__aeabi_fcmpgt
  83              	.LVL9:
  84 0042 2546     		mov	r5, r4
  85 0044 08B1     		cbz	r0, .L2
  70:..\common\ud3core/ZCDtoPWM.c **** 		max_tr_cl_dac_val_temp = 255;
  86              		.loc 1 70 0
  87 0046 DFF8C480 		ldr	r8, .L12+12
  88              	.LVL10:
  89              	.L2:
  71:..\common\ud3core/ZCDtoPWM.c **** 	}
  72:..\common\ud3core/ZCDtoPWM.c ****     
  73:..\common\ud3core/ZCDtoPWM.c ****     params.max_tr_cl_dac_val = round(max_tr_cl_dac_val_temp);
  90              		.loc 1 73 0
  91 004a 4046     		mov	r0, r8
  92 004c FFF7FEFF 		bl	__aeabi_f2d
  93              	.LVL11:
  94 0050 FFF7FEFF 		bl	round
  95              	.LVL12:
  96 0054 FFF7FEFF 		bl	__aeabi_d2uiz
  97              	.LVL13:
ARM GAS  C:\Users\chemi\AppData\Local\Temp\ccYgzjWZ.s 			page 4


  98 0058 2D4C     		ldr	r4, .L12+16
  99 005a C0B2     		uxtb	r0, r0
 100 005c 2070     		strb	r0, [r4]
  74:..\common\ud3core/ZCDtoPWM.c **** 
  75:..\common\ud3core/ZCDtoPWM.c **** 	max_qcw_cl_dac_val_temp = (((float)configuration.max_qcw_current / (float)configuration.ct1_ratio)
 101              		.loc 1 75 0
 102 005e E889     		ldrh	r0, [r5, #14]
 103 0060 FFF7FEFF 		bl	__aeabi_ui2f
 104              	.LVL14:
 105 0064 3946     		mov	r1, r7
 106 0066 FFF7FEFF 		bl	__aeabi_fdiv
 107              	.LVL15:
 108 006a 3146     		mov	r1, r6
 109 006c FFF7FEFF 		bl	__aeabi_fmul
 110              	.LVL16:
 111 0070 FFF7FEFF 		bl	__aeabi_f2d
 112              	.LVL17:
 113 0074 22A3     		adr	r3, .L12
 114 0076 D3E90023 		ldrd	r2, [r3]
 115 007a FFF7FEFF 		bl	__aeabi_ddiv
 116              	.LVL18:
 117 007e FFF7FEFF 		bl	__aeabi_d2f
 118              	.LVL19:
  76:..\common\ud3core/ZCDtoPWM.c **** 	if (max_qcw_cl_dac_val_temp > 255) {
 119              		.loc 1 76 0
 120 0082 2249     		ldr	r1, .L12+12
  75:..\common\ud3core/ZCDtoPWM.c **** 	if (max_qcw_cl_dac_val_temp > 255) {
 121              		.loc 1 75 0
 122 0084 8046     		mov	r8, r0
 123              	.LVL20:
 124              		.loc 1 76 0
 125 0086 FFF7FEFF 		bl	__aeabi_fcmpgt
 126              	.LVL21:
 127 008a 08B1     		cbz	r0, .L4
  77:..\common\ud3core/ZCDtoPWM.c **** 		max_qcw_cl_dac_val_temp = 255;
 128              		.loc 1 77 0
 129 008c DFF87C80 		ldr	r8, .L12+12
 130              	.LVL22:
 131              	.L4:
  78:..\common\ud3core/ZCDtoPWM.c **** 	}
  79:..\common\ud3core/ZCDtoPWM.c **** 
  80:..\common\ud3core/ZCDtoPWM.c **** 	min_tr_cl_dac_val_temp = (((float)configuration.min_tr_current / (float)configuration.ct1_ratio) *
 132              		.loc 1 80 0
 133 0090 A889     		ldrh	r0, [r5, #12]
 134 0092 FFF7FEFF 		bl	__aeabi_ui2f
 135              	.LVL23:
 136 0096 3946     		mov	r1, r7
 137 0098 FFF7FEFF 		bl	__aeabi_fdiv
 138              	.LVL24:
 139 009c 3146     		mov	r1, r6
 140 009e FFF7FEFF 		bl	__aeabi_fmul
 141              	.LVL25:
 142 00a2 FFF7FEFF 		bl	__aeabi_f2d
 143              	.LVL26:
 144 00a6 16A3     		adr	r3, .L12
 145 00a8 D3E90023 		ldrd	r2, [r3]
 146 00ac FFF7FEFF 		bl	__aeabi_ddiv
ARM GAS  C:\Users\chemi\AppData\Local\Temp\ccYgzjWZ.s 			page 5


 147              	.LVL27:
 148 00b0 FFF7FEFF 		bl	__aeabi_d2f
 149              	.LVL28:
  81:..\common\ud3core/ZCDtoPWM.c **** 	if (min_tr_cl_dac_val_temp > 255) {
 150              		.loc 1 81 0
 151 00b4 1549     		ldr	r1, .L12+12
  80:..\common\ud3core/ZCDtoPWM.c **** 	if (min_tr_cl_dac_val_temp > 255) {
 152              		.loc 1 80 0
 153 00b6 0546     		mov	r5, r0
 154              	.LVL29:
 155              		.loc 1 81 0
 156 00b8 FFF7FEFF 		bl	__aeabi_fcmpgt
 157              	.LVL30:
 158 00bc 00B1     		cbz	r0, .L6
  82:..\common\ud3core/ZCDtoPWM.c **** 		min_tr_cl_dac_val_temp = 255;
 159              		.loc 1 82 0
 160 00be 134D     		ldr	r5, .L12+12
 161              	.LVL31:
 162              	.L6:
  83:..\common\ud3core/ZCDtoPWM.c **** 	}
  84:..\common\ud3core/ZCDtoPWM.c **** 	params.min_tr_cl_dac_val = round(min_tr_cl_dac_val_temp);
 163              		.loc 1 84 0
 164 00c0 2846     		mov	r0, r5
 165 00c2 FFF7FEFF 		bl	__aeabi_f2d
 166              	.LVL32:
 167 00c6 FFF7FEFF 		bl	round
 168              	.LVL33:
 169 00ca FFF7FEFF 		bl	__aeabi_d2uiz
 170              	.LVL34:
 171 00ce C0B2     		uxtb	r0, r0
 172 00d0 2075     		strb	r0, [r4, #20]
  85:..\common\ud3core/ZCDtoPWM.c **** 
  86:..\common\ud3core/ZCDtoPWM.c **** 	ct1_dac_val[0] = params.max_tr_cl_dac_val;
 173              		.loc 1 86 0
 174 00d2 2378     		ldrb	r3, [r4]	@ zero_extendqisi2
 175 00d4 0F4D     		ldr	r5, .L12+20
 176              	.LVL35:
  87:..\common\ud3core/ZCDtoPWM.c **** 	ct1_dac_val[1] = params.max_tr_cl_dac_val;
  88:..\common\ud3core/ZCDtoPWM.c **** 	ct1_dac_val[2] = round(max_qcw_cl_dac_val_temp);
 177              		.loc 1 88 0
 178 00d6 4046     		mov	r0, r8
  86:..\common\ud3core/ZCDtoPWM.c **** 	ct1_dac_val[1] = params.max_tr_cl_dac_val;
 179              		.loc 1 86 0
 180 00d8 2B70     		strb	r3, [r5]
  87:..\common\ud3core/ZCDtoPWM.c **** 	ct1_dac_val[1] = params.max_tr_cl_dac_val;
 181              		.loc 1 87 0
 182 00da 2378     		ldrb	r3, [r4]	@ zero_extendqisi2
 183 00dc 6B70     		strb	r3, [r5, #1]
 184              		.loc 1 88 0
 185 00de FFF7FEFF 		bl	__aeabi_f2d
 186              	.LVL36:
 187 00e2 FFF7FEFF 		bl	round
 188              	.LVL37:
 189 00e6 FFF7FEFF 		bl	__aeabi_d2uiz
 190              	.LVL38:
  89:..\common\ud3core/ZCDtoPWM.c **** 
  90:..\common\ud3core/ZCDtoPWM.c **** 	params.diff_tr_cl_dac_val = params.max_tr_cl_dac_val - params.min_tr_cl_dac_val;
ARM GAS  C:\Users\chemi\AppData\Local\Temp\ccYgzjWZ.s 			page 6


 191              		.loc 1 90 0
 192 00ea 2378     		ldrb	r3, [r4]	@ zero_extendqisi2
 193 00ec 227D     		ldrb	r2, [r4, #20]	@ zero_extendqisi2
  88:..\common\ud3core/ZCDtoPWM.c **** 
 194              		.loc 1 88 0
 195 00ee A870     		strb	r0, [r5, #2]
 196              		.loc 1 90 0
 197 00f0 9B1A     		subs	r3, r3, r2
 198 00f2 DBB2     		uxtb	r3, r3
 199 00f4 6375     		strb	r3, [r4, #21]
 200 00f6 BDE8F081 		pop	{r4, r5, r6, r7, r8, pc}
 201              	.LVL39:
 202              	.L13:
 203 00fa 00BFAFF3 		.align	3
 203      0080
 204              	.L12:
 205 0100 7B14AE47 		.word	1202590843
 206 0104 E17AC43F 		.word	1069841121
 207 0108 00000000 		.word	configuration
 208 010c 00007F43 		.word	1132396544
 209 0110 00000000 		.word	params
 210 0114 00000000 		.word	ct1_dac_val
 211              		.cfi_endproc
 212              	.LFE69:
 213              		.size	configure_CT1, .-configure_CT1
 214              		.section	.text.configure_CT2,"ax",%progbits
 215              		.align	1
 216              		.global	configure_CT2
 217              		.thumb
 218              		.thumb_func
 219              		.type	configure_CT2, %function
 220              	configure_CT2:
 221              	.LFB70:
  91:..\common\ud3core/ZCDtoPWM.c **** }
  92:..\common\ud3core/ZCDtoPWM.c **** 
  93:..\common\ud3core/ZCDtoPWM.c **** void configure_CT2(void) {
 222              		.loc 1 93 0
 223              		.cfi_startproc
 224              		@ args = 0, pretend = 0, frame = 0
 225              		@ frame_needed = 0, uses_anonymous_args = 0
 226 0000 30B5     		push	{r4, r5, lr}
 227              		.cfi_def_cfa_offset 12
 228              		.cfi_offset 4, -12
 229              		.cfi_offset 5, -8
 230              		.cfi_offset 14, -4
  94:..\common\ud3core/ZCDtoPWM.c ****     if(configuration.ct2_type==CT2_TYPE_CURRENT){
 231              		.loc 1 94 0
 232 0002 1449     		ldr	r1, .L18
 233 0004 1448     		ldr	r0, .L18+4
 234 0006 91F84C30 		ldrb	r3, [r1, #76]	@ zero_extendqisi2
 235 000a 4BB9     		cbnz	r3, .L15
 236              	.LBB7:
 237              	.LBB8:
  95:..\common\ud3core/ZCDtoPWM.c ****         //DC CT mA_Count
  96:..\common\ud3core/ZCDtoPWM.c ****         params.idc_ma_count = (uint32_t)((configuration.ct2_ratio * 50 * 1000) / configuration.ct2_
 238              		.loc 1 96 0
 239 000c 4CF25033 		movw	r3, #50000
ARM GAS  C:\Users\chemi\AppData\Local\Temp\ccYgzjWZ.s 			page 7


 240 0010 8A8A     		ldrh	r2, [r1, #20]
 241 0012 5343     		muls	r3, r2, r3
 242 0014 0A8B     		ldrh	r2, [r1, #24]
 243 0016 93FBF2F3 		sdiv	r3, r3, r2
 244 001a C3F30F33 		ubfx	r3, r3, #12, #16
 245 001e 17E0     		b	.L17
 246              	.L15:
 247              	.LBE8:
 248              	.LBE7:
 249              	.LBB9:
  97:..\common\ud3core/ZCDtoPWM.c ****     }else{
  98:..\common\ud3core/ZCDtoPWM.c ****         params.ct2_offset_cnt = (uint32_t)(4096ul*(uint32_t)configuration.ct2_offset)/5000ul;
 250              		.loc 1 98 0
 251 0020 41F28833 		movw	r3, #5000
 252 0024 B1F85220 		ldrh	r2, [r1, #82]
  99:..\common\ud3core/ZCDtoPWM.c ****         uint32_t cnt_fs = ((4096ul*(uint32_t)configuration.ct2_voltage)/5000ul)-params.ct2_offset_c
 100:..\common\ud3core/ZCDtoPWM.c ****         params.idc_ma_count = (((uint32_t)configuration.ct2_current*100ul) / cnt_fs);   
 253              		.loc 1 100 0
 254 0028 B1F84E50 		ldrh	r5, [r1, #78]
  98:..\common\ud3core/ZCDtoPWM.c ****         uint32_t cnt_fs = ((4096ul*(uint32_t)configuration.ct2_voltage)/5000ul)-params.ct2_offset_c
 255              		.loc 1 98 0
 256 002c 1203     		lsls	r2, r2, #12
 257 002e B2FBF3F2 		udiv	r2, r2, r3
 258              		.loc 1 100 0
 259 0032 B1F85010 		ldrh	r1, [r1, #80]
  98:..\common\ud3core/ZCDtoPWM.c ****         uint32_t cnt_fs = ((4096ul*(uint32_t)configuration.ct2_voltage)/5000ul)-params.ct2_offset_c
 260              		.loc 1 98 0
 261 0036 92B2     		uxth	r2, r2
 262              		.loc 1 100 0
 263 0038 0903     		lsls	r1, r1, #12
 264 003a B1FBF3F3 		udiv	r3, r1, r3
  98:..\common\ud3core/ZCDtoPWM.c ****         uint32_t cnt_fs = ((4096ul*(uint32_t)configuration.ct2_voltage)/5000ul)-params.ct2_offset_c
 265              		.loc 1 98 0
 266 003e 0283     		strh	r2, [r0, #24]	@ movhi
 267              		.loc 1 100 0
 268 0040 6422     		movs	r2, #100
  99:..\common\ud3core/ZCDtoPWM.c ****         uint32_t cnt_fs = ((4096ul*(uint32_t)configuration.ct2_voltage)/5000ul)-params.ct2_offset_c
 269              		.loc 1 99 0
 270 0042 048B     		ldrh	r4, [r0, #24]
 271              		.loc 1 100 0
 272 0044 6A43     		muls	r2, r5, r2
  99:..\common\ud3core/ZCDtoPWM.c ****         uint32_t cnt_fs = ((4096ul*(uint32_t)configuration.ct2_voltage)/5000ul)-params.ct2_offset_c
 273              		.loc 1 99 0
 274 0046 A4B2     		uxth	r4, r4
 275              	.LVL40:
 276              		.loc 1 100 0
 277 0048 1B1B     		subs	r3, r3, r4
 278 004a B2FBF3F3 		udiv	r3, r2, r3
 279 004e 9BB2     		uxth	r3, r3
 280              	.LVL41:
 281              	.L17:
 282 0050 C382     		strh	r3, [r0, #22]	@ movhi
 283 0052 30BD     		pop	{r4, r5, pc}
 284              	.L19:
 285              		.align	2
 286              	.L18:
 287 0054 00000000 		.word	configuration
ARM GAS  C:\Users\chemi\AppData\Local\Temp\ccYgzjWZ.s 			page 8


 288 0058 00000000 		.word	params
 289              	.LBE9:
 290              		.cfi_endproc
 291              	.LFE70:
 292              		.size	configure_CT2, .-configure_CT2
 293              		.global	__aeabi_fadd
 294              		.global	__aeabi_fsub
 295              		.global	__aeabi_f2uiz
 296              		.global	__aeabi_i2d
 297              		.global	__aeabi_dsub
 298              		.section	.text.configure_ZCD_to_PWM,"ax",%progbits
 299              		.align	1
 300              		.global	configure_ZCD_to_PWM
 301              		.thumb
 302              		.thumb_func
 303              		.type	configure_ZCD_to_PWM, %function
 304              	configure_ZCD_to_PWM:
 305              	.LFB71:
 101:..\common\ud3core/ZCDtoPWM.c ****     }
 102:..\common\ud3core/ZCDtoPWM.c **** }
 103:..\common\ud3core/ZCDtoPWM.c **** 
 104:..\common\ud3core/ZCDtoPWM.c **** void configure_ZCD_to_PWM(void) {
 306              		.loc 1 104 0
 307              		.cfi_startproc
 308              		@ args = 0, pretend = 0, frame = 0
 309              		@ frame_needed = 0, uses_anonymous_args = 0
 310 0000 2DE9F041 		push	{r4, r5, r6, r7, r8, lr}
 311              		.cfi_def_cfa_offset 24
 312              		.cfi_offset 4, -24
 313              		.cfi_offset 5, -20
 314              		.cfi_offset 6, -16
 315              		.cfi_offset 7, -12
 316              		.cfi_offset 8, -8
 317              		.cfi_offset 14, -4
 105:..\common\ud3core/ZCDtoPWM.c **** 	//this function calculates the variables used at run-time for the ZCD to PWM hardware
 106:..\common\ud3core/ZCDtoPWM.c **** 	//it also initializes that hardware so its ready for interrupter control
 107:..\common\ud3core/ZCDtoPWM.c **** 
 108:..\common\ud3core/ZCDtoPWM.c **** 	
 109:..\common\ud3core/ZCDtoPWM.c **** 	float pwm_start_prd_temp;
 110:..\common\ud3core/ZCDtoPWM.c ****     uint16 fb_glitch_cmp;
 111:..\common\ud3core/ZCDtoPWM.c **** 
 112:..\common\ud3core/ZCDtoPWM.c **** 	configure_CT1();
 113:..\common\ud3core/ZCDtoPWM.c **** 	configure_CT2();
 114:..\common\ud3core/ZCDtoPWM.c **** 
 115:..\common\ud3core/ZCDtoPWM.c **** 	//initialize the ZCD counter
 116:..\common\ud3core/ZCDtoPWM.c **** 	if (configuration.start_cycles == 0) {
 318              		.loc 1 116 0
 319 0004 684D     		ldr	r5, .L29+8
 112:..\common\ud3core/ZCDtoPWM.c **** 	configure_CT2();
 320              		.loc 1 112 0
 321 0006 FFF7FEFF 		bl	configure_CT1
 322              	.LVL42:
 113:..\common\ud3core/ZCDtoPWM.c **** 
 323              		.loc 1 113 0
 324 000a FFF7FEFF 		bl	configure_CT2
 325              	.LVL43:
 326              		.loc 1 116 0
ARM GAS  C:\Users\chemi\AppData\Local\Temp\ccYgzjWZ.s 			page 9


 327 000e A87F     		ldrb	r0, [r5, #30]	@ zero_extendqisi2
 328 0010 38B9     		cbnz	r0, .L21
 117:..\common\ud3core/ZCDtoPWM.c **** 		ZCD_counter_WritePeriod(1);
 329              		.loc 1 117 0
 330 0012 0120     		movs	r0, #1
 331 0014 FFF7FEFF 		bl	ZCD_counter_WritePeriod
 332              	.LVL44:
 118:..\common\ud3core/ZCDtoPWM.c **** 		ZCD_counter_WriteCompare(1);
 333              		.loc 1 118 0
 334 0018 0120     		movs	r0, #1
 335 001a FFF7FEFF 		bl	ZCD_counter_WriteCompare
 336              	.LVL45:
 119:..\common\ud3core/ZCDtoPWM.c ****         set_switch_without_fb(pdTRUE);
 337              		.loc 1 119 0
 338 001e 0120     		movs	r0, #1
 339 0020 08E0     		b	.L28
 340              	.L21:
 120:..\common\ud3core/ZCDtoPWM.c **** 	} else {
 121:..\common\ud3core/ZCDtoPWM.c **** 		ZCD_counter_WritePeriod(configuration.start_cycles * 2);
 341              		.loc 1 121 0
 342 0022 4000     		lsls	r0, r0, #1
 343 0024 00F0FE00 		and	r0, r0, #254
 344 0028 FFF7FEFF 		bl	ZCD_counter_WritePeriod
 345              	.LVL46:
 122:..\common\ud3core/ZCDtoPWM.c **** 		ZCD_counter_WriteCompare(4);
 346              		.loc 1 122 0
 347 002c 0420     		movs	r0, #4
 348 002e FFF7FEFF 		bl	ZCD_counter_WriteCompare
 349              	.LVL47:
 123:..\common\ud3core/ZCDtoPWM.c ****         set_switch_without_fb(pdFALSE);
 350              		.loc 1 123 0
 351 0032 0020     		movs	r0, #0
 352              	.L28:
 353 0034 FFF7FEFF 		bl	set_switch_without_fb
 354              	.LVL48:
 124:..\common\ud3core/ZCDtoPWM.c **** 	}
 125:..\common\ud3core/ZCDtoPWM.c ****     
 126:..\common\ud3core/ZCDtoPWM.c ****     uint32_t lead_time_temp;
 127:..\common\ud3core/ZCDtoPWM.c **** 	//calculate lead time in cycles
 128:..\common\ud3core/ZCDtoPWM.c **** 	lead_time_temp = (configuration.lead_time*1000) / (1000000/BCLK__BUS_CLK__MHZ);
 355              		.loc 1 128 0
 356 0038 6E8B     		ldrh	r6, [r5, #26]
 357 003a 4FF47A73 		mov	r3, #1000
 358 003e 7343     		muls	r3, r6, r3
 359 0040 43F60956 		movw	r6, #15625
 129:..\common\ud3core/ZCDtoPWM.c **** 
 130:..\common\ud3core/ZCDtoPWM.c **** 	//calculate starting period
 131:..\common\ud3core/ZCDtoPWM.c **** 	pwm_start_prd_temp = BCLK__BUS_CLK__HZ / (configuration.start_freq * 200); //why 200? well 2 becau
 360              		.loc 1 131 0
 361 0044 A88B     		ldrh	r0, [r5, #28]
 128:..\common\ud3core/ZCDtoPWM.c **** 
 362              		.loc 1 128 0
 363 0046 B3FBF6F6 		udiv	r6, r3, r6
 364              	.LVL49:
 365              		.loc 1 131 0
 366 004a C823     		movs	r3, #200
 367 004c 4343     		muls	r3, r0, r3
ARM GAS  C:\Users\chemi\AppData\Local\Temp\ccYgzjWZ.s 			page 10


 368 004e 5748     		ldr	r0, .L29+12
 132:..\common\ud3core/ZCDtoPWM.c **** 	params.pwm_top = round(pwm_start_prd_temp * 2);								  //top value for FB capture and pwm genera
 369              		.loc 1 132 0
 370 0050 574C     		ldr	r4, .L29+16
 131:..\common\ud3core/ZCDtoPWM.c **** 	params.pwm_top = round(pwm_start_prd_temp * 2);								  //top value for FB capture and pwm genera
 371              		.loc 1 131 0
 372 0052 B0FBF3F0 		udiv	r0, r0, r3
 373 0056 FFF7FEFF 		bl	__aeabi_ui2f
 374              	.LVL50:
 375              		.loc 1 132 0
 376 005a 0146     		mov	r1, r0
 131:..\common\ud3core/ZCDtoPWM.c **** 	params.pwm_top = round(pwm_start_prd_temp * 2);								  //top value for FB capture and pwm genera
 377              		.loc 1 131 0
 378 005c 8046     		mov	r8, r0
 379              	.LVL51:
 380              		.loc 1 132 0
 381 005e FFF7FEFF 		bl	__aeabi_fadd
 382              	.LVL52:
 383 0062 FFF7FEFF 		bl	__aeabi_f2d
 384              	.LVL53:
 385 0066 FFF7FEFF 		bl	round
 386              	.LVL54:
 387 006a FFF7FEFF 		bl	__aeabi_d2uiz
 388              	.LVL55:
 389 006e 80B2     		uxth	r0, r0
 390 0070 6081     		strh	r0, [r4, #10]	@ movhi
 133:..\common\ud3core/ZCDtoPWM.c **** 	params.pwma_start_prd = params.pwm_top - lead_time_temp;
 391              		.loc 1 133 0
 392 0072 6289     		ldrh	r2, [r4, #10]
 393 0074 931B     		subs	r3, r2, r6
 394 0076 9BB2     		uxth	r3, r3
 395 0078 6380     		strh	r3, [r4, #2]	@ movhi
 134:..\common\ud3core/ZCDtoPWM.c **** 	params.pwma_start_cmp = params.pwm_top - pwm_start_prd_temp + 4; //untested, was just 4;
 396              		.loc 1 134 0
 397 007a 6089     		ldrh	r0, [r4, #10]
 398 007c 80B2     		uxth	r0, r0
 399 007e FFF7FEFF 		bl	__aeabi_i2f
 400              	.LVL56:
 401 0082 4146     		mov	r1, r8
 402 0084 FFF7FEFF 		bl	__aeabi_fsub
 403              	.LVL57:
 404 0088 4FF08141 		mov	r1, #1082130432
 405 008c FFF7FEFF 		bl	__aeabi_fadd
 406              	.LVL58:
 407 0090 FFF7FEFF 		bl	__aeabi_f2uiz
 408              	.LVL59:
 409 0094 80B2     		uxth	r0, r0
 410 0096 A080     		strh	r0, [r4, #4]	@ movhi
 135:..\common\ud3core/ZCDtoPWM.c ****     
 136:..\common\ud3core/ZCDtoPWM.c **** 	params.pwmb_start_prd = round(pwm_start_prd_temp); //experimental start up mode, 2 cycles of high 
 411              		.loc 1 136 0
 412 0098 4046     		mov	r0, r8
 413 009a FFF7FEFF 		bl	__aeabi_f2d
 414              	.LVL60:
 415 009e FFF7FEFF 		bl	round
 416              	.LVL61:
 417 00a2 0F46     		mov	r7, r1
ARM GAS  C:\Users\chemi\AppData\Local\Temp\ccYgzjWZ.s 			page 11


 418 00a4 0646     		mov	r6, r0
 419              	.LVL62:
 420 00a6 FFF7FEFF 		bl	__aeabi_d2uiz
 421              	.LVL63:
 137:..\common\ud3core/ZCDtoPWM.c **** 	params.pwmb_start_cmp = 4;
 422              		.loc 1 137 0
 423 00aa 0423     		movs	r3, #4
 136:..\common\ud3core/ZCDtoPWM.c **** 	params.pwmb_start_cmp = 4;
 424              		.loc 1 136 0
 425 00ac 80B2     		uxth	r0, r0
 426 00ae E080     		strh	r0, [r4, #6]	@ movhi
 427              		.loc 1 137 0
 428 00b0 2381     		strh	r3, [r4, #8]	@ movhi
 138:..\common\ud3core/ZCDtoPWM.c **** 	params.pwmb_start_psb_val = 15;				   //config.psb_start_val;// params.pwmb_start_prd>>3;
 429              		.loc 1 138 0
 430 00b2 0F23     		movs	r3, #15
 431 00b4 2382     		strh	r3, [r4, #16]	@ movhi
 139:..\common\ud3core/ZCDtoPWM.c **** 												   //Set up FB_GLITCH PWM
 140:..\common\ud3core/ZCDtoPWM.c **** 	fb_glitch_cmp = pwm_start_prd_temp / 4; //set the lock out period to be 1/4 of a cycle long
 432              		.loc 1 140 0
 433 00b6 4FF07A51 		mov	r1, #1048576000
 434 00ba 4046     		mov	r0, r8
 435 00bc FFF7FEFF 		bl	__aeabi_fmul
 436              	.LVL64:
 437 00c0 FFF7FEFF 		bl	__aeabi_f2uiz
 438              	.LVL65:
 439 00c4 1FFA80F8 		uxth	r8, r0
 440              	.LVL66:
 141:..\common\ud3core/ZCDtoPWM.c **** 	if (fb_glitch_cmp > 255) {
 142:..\common\ud3core/ZCDtoPWM.c **** 		fb_glitch_cmp = 255;
 143:..\common\ud3core/ZCDtoPWM.c **** 	}
 144:..\common\ud3core/ZCDtoPWM.c **** 	FB_glitch_detect_WritePeriod(255);
 441              		.loc 1 144 0
 442 00c8 FF20     		movs	r0, #255
 443 00ca FFF7FEFF 		bl	FB_glitch_detect_WritePeriod
 444              	.LVL67:
 145:..\common\ud3core/ZCDtoPWM.c **** 	FB_glitch_detect_WriteCompare1(255 - fb_glitch_cmp);
 445              		.loc 1 145 0
 446 00ce B8F1FF0F 		cmp	r8, #255
 447 00d2 28BF     		it	cs
 448 00d4 4FF0FF08 		movcs	r8, #255
 449              	.LVL68:
 450 00d8 6FEA0800 		mvn	r0, r8
 451 00dc C0B2     		uxtb	r0, r0
 452 00de FFF7FEFF 		bl	FB_glitch_detect_WriteCompare1
 453              	.LVL69:
 146:..\common\ud3core/ZCDtoPWM.c **** 	FB_glitch_detect_WriteCompare2(255);
 454              		.loc 1 146 0
 455 00e2 FF20     		movs	r0, #255
 456 00e4 FFF7FEFF 		bl	FB_glitch_detect_WriteCompare2
 457              	.LVL70:
 147:..\common\ud3core/ZCDtoPWM.c **** 
 148:..\common\ud3core/ZCDtoPWM.c **** 	//initialize PWM generator
 149:..\common\ud3core/ZCDtoPWM.c **** 	PWMA_WritePeriod(params.pwma_start_prd);
 458              		.loc 1 149 0
 459 00e8 6088     		ldrh	r0, [r4, #2]
 150:..\common\ud3core/ZCDtoPWM.c **** 	PWMA_WriteCompare(params.pwma_start_cmp);
ARM GAS  C:\Users\chemi\AppData\Local\Temp\ccYgzjWZ.s 			page 12


 151:..\common\ud3core/ZCDtoPWM.c **** 
 152:..\common\ud3core/ZCDtoPWM.c **** 	//start up oscillator
 153:..\common\ud3core/ZCDtoPWM.c **** 	PWMB_WritePeriod(params.pwmb_start_prd);
 154:..\common\ud3core/ZCDtoPWM.c **** 	PWMB_WriteCompare(params.pwmb_start_cmp);
 155:..\common\ud3core/ZCDtoPWM.c **** 	//initialize FB Capture period to account for 10 count offset in timing due to reset delay.
 156:..\common\ud3core/ZCDtoPWM.c **** 	FB_capture_WritePeriod(params.pwm_top - 10);
 460              		.loc 1 156 0
 461 00ea 4FF00508 		mov	r8, #5
 149:..\common\ud3core/ZCDtoPWM.c **** 	PWMA_WriteCompare(params.pwma_start_cmp);
 462              		.loc 1 149 0
 463 00ee 80B2     		uxth	r0, r0
 464 00f0 FFF7FEFF 		bl	PWMA_WritePeriod
 465              	.LVL71:
 150:..\common\ud3core/ZCDtoPWM.c **** 	PWMA_WriteCompare(params.pwma_start_cmp);
 466              		.loc 1 150 0
 467 00f4 A088     		ldrh	r0, [r4, #4]
 468 00f6 80B2     		uxth	r0, r0
 469 00f8 FFF7FEFF 		bl	PWMA_WriteCompare
 470              	.LVL72:
 153:..\common\ud3core/ZCDtoPWM.c **** 	PWMB_WriteCompare(params.pwmb_start_cmp);
 471              		.loc 1 153 0
 472 00fc E088     		ldrh	r0, [r4, #6]
 473 00fe 80B2     		uxth	r0, r0
 474 0100 FFF7FEFF 		bl	PWMB_WritePeriod
 475              	.LVL73:
 154:..\common\ud3core/ZCDtoPWM.c **** 	//initialize FB Capture period to account for 10 count offset in timing due to reset delay.
 476              		.loc 1 154 0
 477 0104 2089     		ldrh	r0, [r4, #8]
 478 0106 80B2     		uxth	r0, r0
 479 0108 FFF7FEFF 		bl	PWMB_WriteCompare
 480              	.LVL74:
 481              		.loc 1 156 0
 482 010c 6089     		ldrh	r0, [r4, #10]
 483 010e 0A38     		subs	r0, r0, #10
 484 0110 80B2     		uxth	r0, r0
 485 0112 FFF7FEFF 		bl	FB_capture_WritePeriod
 486              	.LVL75:
 487              	.L23:
 488              	.LBB10:
 157:..\common\ud3core/ZCDtoPWM.c **** 
 158:..\common\ud3core/ZCDtoPWM.c **** 	//prime the feedback filter with fake values so that the first time we use it, its not absolutely 
 159:..\common\ud3core/ZCDtoPWM.c **** 	for (uint8_t z = 0; z < 5; z++) {
 160:..\common\ud3core/ZCDtoPWM.c **** 		FB_Filter_Write24(FB_Filter_CHANNEL_A, params.pwm_top - round(pwm_start_prd_temp));
 489              		.loc 1 160 0 discriminator 3
 490 0116 6089     		ldrh	r0, [r4, #10]
 491 0118 08F1FF38 		add	r8, r8, #-1
 492              	.LVL76:
 493 011c 80B2     		uxth	r0, r0
 494 011e FFF7FEFF 		bl	__aeabi_i2d
 495              	.LVL77:
 496 0122 3246     		mov	r2, r6
 497 0124 3B46     		mov	r3, r7
 498 0126 FFF7FEFF 		bl	__aeabi_dsub
 499              	.LVL78:
 500 012a FFF7FEFF 		bl	__aeabi_d2uiz
 501              	.LVL79:
 502 012e 0146     		mov	r1, r0
ARM GAS  C:\Users\chemi\AppData\Local\Temp\ccYgzjWZ.s 			page 13


 503 0130 0020     		movs	r0, #0
 504 0132 FFF7FEFF 		bl	FB_Filter_Write24
 505              	.LVL80:
 161:..\common\ud3core/ZCDtoPWM.c ****         CyDelayUs(4);
 506              		.loc 1 161 0 discriminator 3
 507 0136 0420     		movs	r0, #4
 508 0138 FFF7FEFF 		bl	CyDelayUs
 509              	.LVL81:
 159:..\common\ud3core/ZCDtoPWM.c **** 		FB_Filter_Write24(FB_Filter_CHANNEL_A, params.pwm_top - round(pwm_start_prd_temp));
 510              		.loc 1 159 0 discriminator 3
 511 013c 18F0FF08 		ands	r8, r8, #255
 512 0140 E9D1     		bne	.L23
 513              	.LBE10:
 162:..\common\ud3core/ZCDtoPWM.c **** 	}
 163:..\common\ud3core/ZCDtoPWM.c **** 
 164:..\common\ud3core/ZCDtoPWM.c **** 	//set reference voltage for zero current detector comparators
 165:..\common\ud3core/ZCDtoPWM.c **** 	ZCDref_Data = 25;
 514              		.loc 1 165 0
 515 0142 1C4B     		ldr	r3, .L29+20
 516 0144 1922     		movs	r2, #25
 517 0146 1A70     		strb	r2, [r3]
 166:..\common\ud3core/ZCDtoPWM.c ****     
 167:..\common\ud3core/ZCDtoPWM.c ****     //write value for minimum feedback current
 168:..\common\ud3core/ZCDtoPWM.c **** 	float FB_THRSH_DAC_value = ((((float)configuration.min_fb_current / (float)configuration.ct1_ratio
 518              		.loc 1 168 0
 519 0148 95F87200 		ldrb	r0, [r5, #114]	@ zero_extendqisi2
 520 014c FFF7FEFF 		bl	__aeabi_ui2f
 521              	.LVL82:
 522 0150 0446     		mov	r4, r0
 523 0152 688A     		ldrh	r0, [r5, #18]
 524 0154 FFF7FEFF 		bl	__aeabi_ui2f
 525              	.LVL83:
 526 0158 0146     		mov	r1, r0
 527 015a 2046     		mov	r0, r4
 528 015c FFF7FEFF 		bl	__aeabi_fdiv
 529              	.LVL84:
 530 0160 0446     		mov	r4, r0
 531 0162 E88A     		ldrh	r0, [r5, #22]
 532 0164 FFF7FEFF 		bl	__aeabi_i2f
 533              	.LVL85:
 534 0168 0146     		mov	r1, r0
 535 016a 2046     		mov	r0, r4
 536 016c FFF7FEFF 		bl	__aeabi_fmul
 537              	.LVL86:
 538 0170 FFF7FEFF 		bl	__aeabi_f2d
 539              	.LVL87:
 540 0174 0AA3     		adr	r3, .L29
 541 0176 D3E90023 		ldrd	r2, [r3]
 542 017a FFF7FEFF 		bl	__aeabi_ddiv
 543              	.LVL88:
 544 017e FFF7FEFF 		bl	__aeabi_d2f
 545              	.LVL89:
 169:..\common\ud3core/ZCDtoPWM.c **** 	if (FB_THRSH_DAC_value > 255) {
 546              		.loc 1 169 0
 547 0182 0D49     		ldr	r1, .L29+24
 168:..\common\ud3core/ZCDtoPWM.c **** 	if (FB_THRSH_DAC_value > 255) {
 548              		.loc 1 168 0
ARM GAS  C:\Users\chemi\AppData\Local\Temp\ccYgzjWZ.s 			page 14


 549 0184 0446     		mov	r4, r0
 550              	.LVL90:
 551              		.loc 1 169 0
 552 0186 FFF7FEFF 		bl	__aeabi_fcmpgt
 553              	.LVL91:
 554 018a 00B1     		cbz	r0, .L24
 170:..\common\ud3core/ZCDtoPWM.c **** 		FB_THRSH_DAC_value = 255;
 555              		.loc 1 170 0
 556 018c 0A4C     		ldr	r4, .L29+24
 557              	.LVL92:
 558              	.L24:
 171:..\common\ud3core/ZCDtoPWM.c **** 	}
 172:..\common\ud3core/ZCDtoPWM.c ****     
 173:..\common\ud3core/ZCDtoPWM.c ****     FB_THRSH_DAC_Data = (uint8_t) FB_THRSH_DAC_value;
 559              		.loc 1 173 0
 560 018e 2046     		mov	r0, r4
 561 0190 FFF7FEFF 		bl	__aeabi_f2uiz
 562              	.LVL93:
 563 0194 094B     		ldr	r3, .L29+28
 564 0196 C0B2     		uxtb	r0, r0
 565 0198 1870     		strb	r0, [r3]
 566 019a BDE8F081 		pop	{r4, r5, r6, r7, r8, pc}
 567              	.LVL94:
 568              	.L30:
 569 019e 00BF     		.align	3
 570              	.L29:
 571 01a0 7B14AE47 		.word	1202590843
 572 01a4 E17AC43F 		.word	1069841121
 573 01a8 00000000 		.word	configuration
 574 01ac 0090D003 		.word	64000000
 575 01b0 00000000 		.word	params
 576 01b4 815B0040 		.word	1073765249
 577 01b8 00007F43 		.word	1132396544
 578 01bc 835B0040 		.word	1073765251
 579              		.cfi_endproc
 580              	.LFE71:
 581              		.size	configure_ZCD_to_PWM, .-configure_ZCD_to_PWM
 582              		.section	.text.initialize_ZCD_to_PWM,"ax",%progbits
 583              		.align	1
 584              		.global	initialize_ZCD_to_PWM
 585              		.thumb
 586              		.thumb_func
 587              		.type	initialize_ZCD_to_PWM, %function
 588              	initialize_ZCD_to_PWM:
 589              	.LFB68:
  35:..\common\ud3core/ZCDtoPWM.c **** 	//initialize all the timers/counters/PWMs
 590              		.loc 1 35 0
 591              		.cfi_startproc
 592              		@ args = 0, pretend = 0, frame = 0
 593              		@ frame_needed = 0, uses_anonymous_args = 0
 594 0000 08B5     		push	{r3, lr}
 595              		.cfi_def_cfa_offset 8
 596              		.cfi_offset 3, -8
 597              		.cfi_offset 14, -4
  37:..\common\ud3core/ZCDtoPWM.c **** 	PWMB_Start();
 598              		.loc 1 37 0
 599 0002 FFF7FEFF 		bl	PWMA_Start
ARM GAS  C:\Users\chemi\AppData\Local\Temp\ccYgzjWZ.s 			page 15


 600              	.LVL95:
  38:..\common\ud3core/ZCDtoPWM.c **** 	FB_capture_Start();
 601              		.loc 1 38 0
 602 0006 FFF7FEFF 		bl	PWMB_Start
 603              	.LVL96:
  39:..\common\ud3core/ZCDtoPWM.c **** 	ZCD_counter_Start();
 604              		.loc 1 39 0
 605 000a FFF7FEFF 		bl	FB_capture_Start
 606              	.LVL97:
  40:..\common\ud3core/ZCDtoPWM.c **** 	FB_glitch_detect_Start();
 607              		.loc 1 40 0
 608 000e FFF7FEFF 		bl	ZCD_counter_Start
 609              	.LVL98:
  41:..\common\ud3core/ZCDtoPWM.c **** 
 610              		.loc 1 41 0
 611 0012 FFF7FEFF 		bl	FB_glitch_detect_Start
 612              	.LVL99:
  44:..\common\ud3core/ZCDtoPWM.c **** 	ZCD_compB_Start();
 613              		.loc 1 44 0
 614 0016 FFF7FEFF 		bl	ZCD_compA_Start
 615              	.LVL100:
  45:..\common\ud3core/ZCDtoPWM.c **** 	CT1_comp_Start();
 616              		.loc 1 45 0
 617 001a FFF7FEFF 		bl	ZCD_compB_Start
 618              	.LVL101:
  46:..\common\ud3core/ZCDtoPWM.c **** 
 619              		.loc 1 46 0
 620 001e FFF7FEFF 		bl	CT1_comp_Start
 621              	.LVL102:
  49:..\common\ud3core/ZCDtoPWM.c **** 	ZCDref_Start();
 622              		.loc 1 49 0
 623 0022 FFF7FEFF 		bl	CT1_dac_Start
 624              	.LVL103:
  50:..\common\ud3core/ZCDtoPWM.c **** 	FB_THRSH_DAC_Start();
 625              		.loc 1 50 0
 626 0026 FFF7FEFF 		bl	ZCDref_Start
 627              	.LVL104:
  51:..\common\ud3core/ZCDtoPWM.c ****     Opamp_1_Start();
 628              		.loc 1 51 0
 629 002a FFF7FEFF 		bl	FB_THRSH_DAC_Start
 630              	.LVL105:
  52:..\common\ud3core/ZCDtoPWM.c **** 
 631              		.loc 1 52 0
 632 002e FFF7FEFF 		bl	Opamp_1_Start
 633              	.LVL106:
  55:..\common\ud3core/ZCDtoPWM.c **** 	FB_Filter_SetCoherency(FB_Filter_CHANNEL_A, FB_Filter_KEY_MID);
 634              		.loc 1 55 0
 635 0032 FFF7FEFF 		bl	FB_Filter_Start
 636              	.LVL107:
  56:..\common\ud3core/ZCDtoPWM.c **** 
 637              		.loc 1 56 0
 638 0036 0121     		movs	r1, #1
 639 0038 0020     		movs	r0, #0
 640 003a FFF7FEFF 		bl	FB_Filter_SetCoherency
 641              	.LVL108:
  59:..\common\ud3core/ZCDtoPWM.c **** 
 642              		.loc 1 59 0
ARM GAS  C:\Users\chemi\AppData\Local\Temp\ccYgzjWZ.s 			page 16


 643 003e BDE80840 		pop	{r3, lr}
 644              		.cfi_restore 14
 645              		.cfi_restore 3
 646              		.cfi_def_cfa_offset 0
  58:..\common\ud3core/ZCDtoPWM.c **** }
 647              		.loc 1 58 0
 648 0042 FFF7FEBF 		b	configure_ZCD_to_PWM
 649              	.LVL109:
 650              		.cfi_endproc
 651              	.LFE68:
 652              		.size	initialize_ZCD_to_PWM, .-initialize_ZCD_to_PWM
 653              		.global	fb_filter_out
 654              		.global	fb_filter_in
 655              		.comm	interrupter,12,4
 656              		.comm	ct1_dac_val,3,1
 657              		.comm	params,26,2
 658              		.data
 659              		.align	1
 660              		.type	fb_filter_out, %object
 661              		.size	fb_filter_out, 2
 662              	fb_filter_out:
 663 0000 0100     		.short	1
 664              		.type	fb_filter_in, %object
 665              		.size	fb_filter_in, 2
 666              	fb_filter_in:
 667 0002 0100     		.short	1
 668              		.text
 669              	.Letext0:
 670              		.file 2 "c:\\program files (x86)\\cypress\\psoc creator\\4.4\\psoc creator\\import\\gnu\\arm\\5.4.
 671              		.file 3 "c:\\program files (x86)\\cypress\\psoc creator\\4.4\\psoc creator\\import\\gnu\\arm\\5.4.
 672              		.file 4 "Generated_Source\\PSoC5/cytypes.h"
 673              		.file 5 "..\\common\\ud3core\\ZCDtoPWM.h"
 674              		.file 6 "..\\common\\rtos\\portable\\GCC\\ARM_CM3/portmacro.h"
 675              		.file 7 "..\\common\\rtos\\include/timers.h"
 676              		.file 8 "..\\common\\ud3core\\cli_common.h"
 677              		.file 9 "..\\common\\ud3core\\interrupter.h"
 678              		.file 10 "Generated_Source\\PSoC5/core_cm3.h"
 679              		.file 11 "c:\\program files (x86)\\cypress\\psoc creator\\4.4\\psoc creator\\import\\gnu\\arm\\5.4
 680              		.file 12 "Generated_Source\\PSoC5/FB_Filter.h"
 681              		.file 13 "Generated_Source\\PSoC5/CyLib.h"
 682              		.file 14 "Generated_Source\\PSoC5/ZCD_counter.h"
 683              		.file 15 "..\\common\\ud3core\\tasks/tsk_fault.h"
 684              		.file 16 "Generated_Source\\PSoC5/FB_glitch_detect.h"
 685              		.file 17 "Generated_Source\\PSoC5/PWMA.h"
 686              		.file 18 "Generated_Source\\PSoC5/PWMB.h"
 687              		.file 19 "Generated_Source\\PSoC5/FB_capture.h"
 688              		.file 20 "Generated_Source\\PSoC5/ZCD_compA.h"
 689              		.file 21 "Generated_Source\\PSoC5/ZCD_compB.h"
 690              		.file 22 "Generated_Source\\PSoC5/CT1_comp.h"
 691              		.file 23 "Generated_Source\\PSoC5/CT1_dac.h"
 692              		.file 24 "Generated_Source\\PSoC5/ZCDref.h"
 693              		.file 25 "Generated_Source\\PSoC5/FB_THRSH_DAC.h"
 694              		.file 26 "Generated_Source\\PSoC5/Opamp_1.h"