ARM GAS  C:\Users\chemi\AppData\Local\Temp\ccwkHjiA.s 			page 1


   1              		.syntax unified
   2              		.cpu cortex-m3
   3              		.fpu softvfp
   4              		.eabi_attribute 20, 1
   5              		.eabi_attribute 21, 1
   6              		.eabi_attribute 23, 3
   7              		.eabi_attribute 24, 1
   8              		.eabi_attribute 25, 1
   9              		.eabi_attribute 26, 1
  10              		.eabi_attribute 30, 4
  11              		.eabi_attribute 34, 1
  12              		.eabi_attribute 18, 4
  13              		.thumb
  14              		.syntax unified
  15              		.file	"cli_basic.c"
  16              		.text
  17              	.Ltext0:
  18              		.cfi_sections	.debug_frame
  19              		.section	.text.djb_hash,"ax",%progbits
  20              		.align	1
  21              		.global	djb_hash
  22              		.thumb
  23              		.thumb_func
  24              		.type	djb_hash, %function
  25              	djb_hash:
  26              	.LFB63:
  27              		.file 1 "..\\common\\uart_ldr\\cli_basic.c"
   1:..\common\uart_ldr/cli_basic.c **** #include "cli_basic.h"
   2:..\common\uart_ldr/cli_basic.c **** 
   3:..\common\uart_ldr/cli_basic.c **** #include <project.h>
   4:..\common\uart_ldr/cli_basic.c **** 
   5:..\common\uart_ldr/cli_basic.c **** uint16_t byte_cnt;
   6:..\common\uart_ldr/cli_basic.c **** 
   7:..\common\uart_ldr/cli_basic.c **** 
   8:..\common\uart_ldr/cli_basic.c **** #define EEPROM_READ_BYTE(x) EEPROM_1_ReadByte(x)
   9:..\common\uart_ldr/cli_basic.c **** #define EEPROM_WRITE_ROW(x,y) EEPROM_1_Write(y,x)
  10:..\common\uart_ldr/cli_basic.c **** 
  11:..\common\uart_ldr/cli_basic.c **** uint32_t djb_hash(const char* cp)
  12:..\common\uart_ldr/cli_basic.c **** {
  28              		.loc 1 12 0
  29              		.cfi_startproc
  30              		@ args = 0, pretend = 0, frame = 0
  31              		@ frame_needed = 0, uses_anonymous_args = 0
  32              		@ link register save eliminated.
  33              	.LVL0:
  34 0000 421E     		subs	r2, r0, #1
  13:..\common\uart_ldr/cli_basic.c ****     uint32_t hash = 5381;
  35              		.loc 1 13 0
  36 0002 41F20550 		movw	r0, #5381
  37              	.LVL1:
  38              	.L2:
  14:..\common\uart_ldr/cli_basic.c ****     while (*cp)
  39              		.loc 1 14 0
  40 0006 12F8013F 		ldrb	r3, [r2, #1]!	@ zero_extendqisi2
  41              	.LVL2:
  42 000a 1BB1     		cbz	r3, .L5
  15:..\common\uart_ldr/cli_basic.c ****         hash = 33 * hash ^ (unsigned char) *cp++;
ARM GAS  C:\Users\chemi\AppData\Local\Temp\ccwkHjiA.s 			page 2


  43              		.loc 1 15 0
  44 000c 00EB4010 		add	r0, r0, r0, lsl #5
  45              	.LVL3:
  46 0010 5840     		eors	r0, r0, r3
  47              	.LVL4:
  48 0012 F8E7     		b	.L2
  49              	.LVL5:
  50              	.L5:
  16:..\common\uart_ldr/cli_basic.c ****     return hash;
  17:..\common\uart_ldr/cli_basic.c **** }
  51              		.loc 1 17 0
  52 0014 7047     		bx	lr
  53              		.cfi_endproc
  54              	.LFE63:
  55              		.size	djb_hash, .-djb_hash
  56              		.section	.text.EEPROM_read_conf,"ax",%progbits
  57              		.align	1
  58              		.global	EEPROM_read_conf
  59              		.thumb
  60              		.thumb_func
  61              		.type	EEPROM_read_conf, %function
  62              	EEPROM_read_conf:
  63              	.LFB64:
  18:..\common\uart_ldr/cli_basic.c **** 
  19:..\common\uart_ldr/cli_basic.c **** void EEPROM_read_conf(parameter_entry * params, uint8_t param_size, uint16_t eeprom_offset ,uint8_t
  64              		.loc 1 19 0
  65              		.cfi_startproc
  66              		@ args = 0, pretend = 0, frame = 8
  67              		@ frame_needed = 0, uses_anonymous_args = 0
  68              	.LVL6:
  69 0000 2DE9F347 		push	{r0, r1, r4, r5, r6, r7, r8, r9, r10, lr}
  70              		.cfi_def_cfa_offset 40
  71              		.cfi_offset 4, -32
  72              		.cfi_offset 5, -28
  73              		.cfi_offset 6, -24
  74              		.cfi_offset 7, -20
  75              		.cfi_offset 8, -16
  76              		.cfi_offset 9, -12
  77              		.cfi_offset 10, -8
  78              		.cfi_offset 14, -4
  79              		.loc 1 19 0
  80 0004 0746     		mov	r7, r0
  81 0006 0E46     		mov	r6, r1
  82 0008 1446     		mov	r4, r2
  83              	.LVL7:
  84              	.LBB2:
  20:..\common\uart_ldr/cli_basic.c ****     uint16_t addr=eeprom_offset;
  21:..\common\uart_ldr/cli_basic.c ****     uint32_t temp_hash=0;
  22:..\common\uart_ldr/cli_basic.c ****     uint8_t data[DATASET_BYTES];
  23:..\common\uart_ldr/cli_basic.c ****     uint16_t change_count=0;
  24:..\common\uart_ldr/cli_basic.c ****     uint8_t change_flag=0;
  25:..\common\uart_ldr/cli_basic.c ****         for(int i=0;i<DATASET_BYTES;i++){
  85              		.loc 1 25 0
  86 000a 0025     		movs	r5, #0
  87              	.LVL8:
  88              	.L7:
  26:..\common\uart_ldr/cli_basic.c ****             data[i] = EEPROM_READ_BYTE(addr);
ARM GAS  C:\Users\chemi\AppData\Local\Temp\ccwkHjiA.s 			page 3


  89              		.loc 1 26 0 discriminator 3
  90 000c 6019     		adds	r0, r4, r5
  91 000e 80B2     		uxth	r0, r0
  92 0010 FFF7FEFF 		bl	EEPROM_1_ReadByte
  93              	.LVL9:
  94 0014 0DF80500 		strb	r0, [sp, r5]
  95              	.LVL10:
  25:..\common\uart_ldr/cli_basic.c ****             data[i] = EEPROM_READ_BYTE(addr);
  96              		.loc 1 25 0 discriminator 3
  97 0018 0135     		adds	r5, r5, #1
  98              	.LVL11:
  99 001a 052D     		cmp	r5, #5
 100 001c F6D1     		bne	.L7
 101              	.LBE2:
  27:..\common\uart_ldr/cli_basic.c ****             addr++;
  28:..\common\uart_ldr/cli_basic.c ****         }
  29:..\common\uart_ldr/cli_basic.c ****         if(!(data[0]== 0x00 && data[1] == 0xC0 && data[2] == 0xFF && data[3] == 0xEE)) {
 102              		.loc 1 29 0
 103 001e 9DF80030 		ldrb	r3, [sp]	@ zero_extendqisi2
 104 0022 0534     		adds	r4, r4, #5
 105 0024 A4B2     		uxth	r4, r4
 106 0026 002B     		cmp	r3, #0
 107 0028 65D1     		bne	.L6
 108              		.loc 1 29 0 is_stmt 0 discriminator 1
 109 002a 9DF80130 		ldrb	r3, [sp, #1]	@ zero_extendqisi2
 110 002e C02B     		cmp	r3, #192
 111 0030 61D1     		bne	.L6
 112              		.loc 1 29 0 discriminator 2
 113 0032 9DF80230 		ldrb	r3, [sp, #2]	@ zero_extendqisi2
 114 0036 FF2B     		cmp	r3, #255
 115 0038 5DD1     		bne	.L6
 116              		.loc 1 29 0 discriminator 3
 117 003a 9DF80330 		ldrb	r3, [sp, #3]	@ zero_extendqisi2
 118 003e EE2B     		cmp	r3, #238
 119 0040 59D1     		bne	.L6
 120 0042 07EB0616 		add	r6, r7, r6, lsl #4
 121              	.LVL12:
 122              	.L9:
  30:..\common\uart_ldr/cli_basic.c ****             return;
  31:..\common\uart_ldr/cli_basic.c ****         }
  32:..\common\uart_ldr/cli_basic.c **** 
  33:..\common\uart_ldr/cli_basic.c ****     while(addr<CY_EEPROM_SIZE){
 123              		.loc 1 33 0 is_stmt 1
 124 0046 B4F5006F 		cmp	r4, #2048
 125 004a 54D2     		bcs	.L6
 126 004c 0025     		movs	r5, #0
 127              	.LVL13:
 128              	.L10:
 129              	.LBB3:
 130              	.LBB4:
  34:..\common\uart_ldr/cli_basic.c ****         change_flag=0;
  35:..\common\uart_ldr/cli_basic.c ****         for(int i=0;i<DATASET_BYTES;i++){
  36:..\common\uart_ldr/cli_basic.c ****             data[i] = EEPROM_READ_BYTE(addr);
 131              		.loc 1 36 0 discriminator 3
 132 004e 6019     		adds	r0, r4, r5
 133 0050 80B2     		uxth	r0, r0
 134 0052 FFF7FEFF 		bl	EEPROM_1_ReadByte
ARM GAS  C:\Users\chemi\AppData\Local\Temp\ccwkHjiA.s 			page 4


 135              	.LVL14:
 136 0056 0DF80500 		strb	r0, [sp, r5]
 137              	.LVL15:
  35:..\common\uart_ldr/cli_basic.c ****             data[i] = EEPROM_READ_BYTE(addr);
 138              		.loc 1 35 0 discriminator 3
 139 005a 0135     		adds	r5, r5, #1
 140              	.LVL16:
 141 005c 052D     		cmp	r5, #5
 142 005e F6D1     		bne	.L10
 143              	.LBE4:
  37:..\common\uart_ldr/cli_basic.c ****             addr++;
  38:..\common\uart_ldr/cli_basic.c ****         }
  39:..\common\uart_ldr/cli_basic.c ****         if(data[0]== 0xDE && data[1] == 0xAD && data[2] == 0xBE && data[3] == 0xEF) break;
 144              		.loc 1 39 0
 145 0060 9DF80010 		ldrb	r1, [sp]	@ zero_extendqisi2
 146 0064 9DF80150 		ldrb	r5, [sp, #1]	@ zero_extendqisi2
 147              	.LVL17:
 148 0068 DE29     		cmp	r1, #222
 149 006a 9DF80290 		ldrb	r9, [sp, #2]	@ zero_extendqisi2
 150 006e 9DF803A0 		ldrb	r10, [sp, #3]	@ zero_extendqisi2
 151 0072 01D1     		bne	.L11
 152              		.loc 1 39 0 is_stmt 0 discriminator 1
 153 0074 AD2D     		cmp	r5, #173
 154 0076 01D0     		beq	.L12
 155              	.L11:
 156 0078 B846     		mov	r8, r7
 157 007a 0CE0     		b	.L13
 158              	.L12:
 159              		.loc 1 39 0 discriminator 2
 160 007c B9F1BE0F 		cmp	r9, #190
 161 0080 FAD1     		bne	.L11
 162              		.loc 1 39 0 discriminator 3
 163 0082 BAF1EF0F 		cmp	r10, #239
 164 0086 F7D1     		bne	.L11
 165 0088 35E0     		b	.L6
 166              	.L19:
  40:..\common\uart_ldr/cli_basic.c ****         uint8_t current_parameter=0;
  41:..\common\uart_ldr/cli_basic.c ****         for ( current_parameter = 0; current_parameter < param_size; current_parameter++) {
  42:..\common\uart_ldr/cli_basic.c ****             if(params[current_parameter].parameter_type==PARAM_CONFIG){
 167              		.loc 1 42 0 is_stmt 1
 168 008a 98F80030 		ldrb	r3, [r8]	@ zero_extendqisi2
 169 008e 012B     		cmp	r3, #1
 170 0090 04D0     		beq	.L26
 171              	.L15:
 172 0092 08F11008 		add	r8, r8, #16
 173              	.L13:
  41:..\common\uart_ldr/cli_basic.c ****             if(params[current_parameter].parameter_type==PARAM_CONFIG){
 174              		.loc 1 41 0 discriminator 1
 175 0096 B045     		cmp	r8, r6
 176 0098 F7D1     		bne	.L19
 177 009a 25E0     		b	.L27
 178              	.L26:
  43:..\common\uart_ldr/cli_basic.c ****                 temp_hash=djb_hash(params[current_parameter].name);
 179              		.loc 1 43 0
 180 009c D8F80400 		ldr	r0, [r8, #4]
 181 00a0 FFF7FEFF 		bl	djb_hash
 182              	.LVL18:
ARM GAS  C:\Users\chemi\AppData\Local\Temp\ccwkHjiA.s 			page 5


  44:..\common\uart_ldr/cli_basic.c ****                 if((uint8_t)temp_hash == data[0] && (uint8_t)(temp_hash>>8) == data[1]&& (uint8_t)(
 183              		.loc 1 44 0
 184 00a4 C3B2     		uxtb	r3, r0
 185 00a6 8B42     		cmp	r3, r1
 186 00a8 F3D1     		bne	.L15
 187              		.loc 1 44 0 is_stmt 0 discriminator 1
 188 00aa C0F30723 		ubfx	r3, r0, #8, #8
 189 00ae AB42     		cmp	r3, r5
 190 00b0 EFD1     		bne	.L15
 191              		.loc 1 44 0 discriminator 2
 192 00b2 C0F30743 		ubfx	r3, r0, #16, #8
 193 00b6 4B45     		cmp	r3, r9
 194 00b8 EBD1     		bne	.L15
 195              		.loc 1 44 0 discriminator 3
 196 00ba BAEB106F 		cmp	r10, r0, lsr #24
 197 00be E8D1     		bne	.L15
 198 00c0 0534     		adds	r4, r4, #5
 199 00c2 0023     		movs	r3, #0
 200 00c4 A4B2     		uxth	r4, r4
 201              	.LVL19:
 202              	.L16:
 203              	.LBB5:
  45:..\common\uart_ldr/cli_basic.c ****                     for(uint8_t i=0;i<data[4];i++){
 204              		.loc 1 45 0 is_stmt 1 discriminator 1
 205 00c6 9DF80420 		ldrb	r2, [sp, #4]	@ zero_extendqisi2
 206 00ca DDB2     		uxtb	r5, r3
 207 00cc E018     		adds	r0, r4, r3
 208 00ce AA42     		cmp	r2, r5
 209 00d0 80B2     		uxth	r0, r0
 210              	.LVL20:
 211 00d2 03F10109 		add	r9, r3, #1
 212 00d6 0CD9     		bls	.L18
  46:..\common\uart_ldr/cli_basic.c ****                         *(i+(uint8_t * )params[current_parameter].value) = EEPROM_READ_BYTE(addr);
 213              		.loc 1 46 0 discriminator 3
 214 00d8 D8F808A0 		ldr	r10, [r8, #8]
 215 00dc FFF7FEFF 		bl	EEPROM_1_ReadByte
 216              	.LVL21:
 217 00e0 4B46     		mov	r3, r9
 218 00e2 0AF80500 		strb	r0, [r10, r5]
 219              	.LVL22:
 220 00e6 EEE7     		b	.L16
 221              	.LVL23:
 222              	.L27:
 223              	.LBE5:
  47:..\common\uart_ldr/cli_basic.c ****                         addr++;
  48:..\common\uart_ldr/cli_basic.c ****                     }
  49:..\common\uart_ldr/cli_basic.c ****                     change_count++;
  50:..\common\uart_ldr/cli_basic.c ****                     change_flag=1;
  51:..\common\uart_ldr/cli_basic.c ****                     break;
  52:..\common\uart_ldr/cli_basic.c ****                 }
  53:..\common\uart_ldr/cli_basic.c ****             }
  54:..\common\uart_ldr/cli_basic.c ****         }
  55:..\common\uart_ldr/cli_basic.c ****         if(!change_flag) addr+=data[4];
 224              		.loc 1 55 0
 225 00e8 9DF80400 		ldrb	r0, [sp, #4]	@ zero_extendqisi2
 226 00ec 0530     		adds	r0, r0, #5
 227 00ee 0444     		add	r4, r4, r0
ARM GAS  C:\Users\chemi\AppData\Local\Temp\ccwkHjiA.s 			page 6


 228              	.LVL24:
 229 00f0 A0B2     		uxth	r0, r4
 230              	.LVL25:
 231              	.L18:
 232              	.LBB6:
  46:..\common\uart_ldr/cli_basic.c ****                         *(i+(uint8_t * )params[current_parameter].value) = EEPROM_READ_BYTE(addr);
 233              		.loc 1 46 0
 234 00f2 0446     		mov	r4, r0
 235 00f4 A7E7     		b	.L9
 236              	.LVL26:
 237              	.L6:
 238              	.LBE6:
 239              	.LBE3:
  56:..\common\uart_ldr/cli_basic.c ****        
  57:..\common\uart_ldr/cli_basic.c **** 
  58:..\common\uart_ldr/cli_basic.c ****     }
  59:..\common\uart_ldr/cli_basic.c ****  }
 240              		.loc 1 59 0
 241 00f6 02B0     		add	sp, sp, #8
 242              		.cfi_def_cfa_offset 32
 243              		@ sp needed
 244 00f8 BDE8F087 		pop	{r4, r5, r6, r7, r8, r9, r10, pc}
 245              		.cfi_endproc
 246              	.LFE64:
 247              		.size	EEPROM_read_conf, .-EEPROM_read_conf
 248              		.comm	byte_cnt,2,2
 249              		.text
 250              	.Letext0:
 251              		.file 2 "c:\\program files (x86)\\cypress\\psoc creator\\4.4\\psoc creator\\import\\gnu\\arm\\5.4.
 252              		.file 3 "c:\\program files (x86)\\cypress\\psoc creator\\4.4\\psoc creator\\import\\gnu\\arm\\5.4.
 253              		.file 4 "..\\common\\uart_ldr\\cli_basic.h"
 254              		.file 5 "Generated_Source\\PSoC5/core_cm3.h"
 255              		.file 6 "Generated_Source\\PSoC5/EEPROM_1.h"