ARM GAS  C:\Users\chemi\AppData\Local\Temp\ccEevlXJ.s 			page 1


   1              		.syntax unified
   2              		.cpu cortex-m3
   3              		.fpu softvfp
   4              		.eabi_attribute 20, 1
   5              		.eabi_attribute 21, 1
   6              		.eabi_attribute 23, 3
   7              		.eabi_attribute 24, 1
   8              		.eabi_attribute 25, 1
   9              		.eabi_attribute 26, 1
  10              		.eabi_attribute 30, 4
  11              		.eabi_attribute 34, 1
  12              		.eabi_attribute 18, 4
  13              		.thumb
  14              		.syntax unified
  15              		.file	"cyfitter_cfg.c"
  16              		.text
  17              	.Ltext0:
  18              		.cfi_sections	.debug_frame
  19              		.section	.text.SetAnalogRoutingPumps,"ax",%progbits
  20              		.align	1
  21              		.global	SetAnalogRoutingPumps
  22              		.thumb
  23              		.thumb_func
  24              		.type	SetAnalogRoutingPumps, %function
  25              	SetAnalogRoutingPumps:
  26              	.LFB7:
  27              		.file 1 "Generated_Source\\PSoC5\\cyfitter_cfg.c"
   1:Generated_Source\PSoC5/cyfitter_cfg.c **** 
   2:Generated_Source\PSoC5/cyfitter_cfg.c **** /*******************************************************************************
   3:Generated_Source\PSoC5/cyfitter_cfg.c **** * File Name: cyfitter_cfg.c
   4:Generated_Source\PSoC5/cyfitter_cfg.c **** * 
   5:Generated_Source\PSoC5/cyfitter_cfg.c **** * PSoC Creator  4.4
   6:Generated_Source\PSoC5/cyfitter_cfg.c **** *
   7:Generated_Source\PSoC5/cyfitter_cfg.c **** * Description:
   8:Generated_Source\PSoC5/cyfitter_cfg.c **** * This file contains device initialization code.
   9:Generated_Source\PSoC5/cyfitter_cfg.c **** * Except for the user defined sections in CyClockStartupError(), this file should not be modified.
  10:Generated_Source\PSoC5/cyfitter_cfg.c **** * This file is automatically generated by PSoC Creator.
  11:Generated_Source\PSoC5/cyfitter_cfg.c **** *
  12:Generated_Source\PSoC5/cyfitter_cfg.c **** ********************************************************************************
  13:Generated_Source\PSoC5/cyfitter_cfg.c **** * Copyright (c) 2007-2020 Cypress Semiconductor.  All rights reserved.
  14:Generated_Source\PSoC5/cyfitter_cfg.c **** * You may use this file only in accordance with the license, terms, conditions, 
  15:Generated_Source\PSoC5/cyfitter_cfg.c **** * disclaimers, and limitations in the end user license agreement accompanying 
  16:Generated_Source\PSoC5/cyfitter_cfg.c **** * the software package with which this file was provided.
  17:Generated_Source\PSoC5/cyfitter_cfg.c **** ********************************************************************************/
  18:Generated_Source\PSoC5/cyfitter_cfg.c **** 
  19:Generated_Source\PSoC5/cyfitter_cfg.c **** #include <string.h>
  20:Generated_Source\PSoC5/cyfitter_cfg.c **** #include "cytypes.h"
  21:Generated_Source\PSoC5/cyfitter_cfg.c **** #include "cydevice_trm.h"
  22:Generated_Source\PSoC5/cyfitter_cfg.c **** #include "cyfitter.h"
  23:Generated_Source\PSoC5/cyfitter_cfg.c **** #include "CyLib.h"
  24:Generated_Source\PSoC5/cyfitter_cfg.c **** #include "cyfitter_cfg.h"
  25:Generated_Source\PSoC5/cyfitter_cfg.c **** 
  26:Generated_Source\PSoC5/cyfitter_cfg.c **** #define CY_NEED_CYCLOCKSTARTUPERROR 1
  27:Generated_Source\PSoC5/cyfitter_cfg.c **** 
  28:Generated_Source\PSoC5/cyfitter_cfg.c **** 
  29:Generated_Source\PSoC5/cyfitter_cfg.c **** #if defined(__GNUC__) || defined(__ARMCC_VERSION)
  30:Generated_Source\PSoC5/cyfitter_cfg.c ****     #define CYPACKED 
ARM GAS  C:\Users\chemi\AppData\Local\Temp\ccEevlXJ.s 			page 2


  31:Generated_Source\PSoC5/cyfitter_cfg.c ****     #define CYPACKED_ATTR __attribute__ ((packed))
  32:Generated_Source\PSoC5/cyfitter_cfg.c ****     #define CYALIGNED __attribute__ ((aligned))
  33:Generated_Source\PSoC5/cyfitter_cfg.c ****     #define CY_CFG_UNUSED __attribute__ ((unused))
  34:Generated_Source\PSoC5/cyfitter_cfg.c ****     #ifndef CY_CFG_SECTION
  35:Generated_Source\PSoC5/cyfitter_cfg.c ****         #define CY_CFG_SECTION __attribute__ ((section(".psocinit")))
  36:Generated_Source\PSoC5/cyfitter_cfg.c ****     #endif
  37:Generated_Source\PSoC5/cyfitter_cfg.c ****     
  38:Generated_Source\PSoC5/cyfitter_cfg.c ****     #if defined(__ARMCC_VERSION)
  39:Generated_Source\PSoC5/cyfitter_cfg.c ****         #define CY_CFG_MEMORY_BARRIER() __memory_changed()
  40:Generated_Source\PSoC5/cyfitter_cfg.c ****     #else
  41:Generated_Source\PSoC5/cyfitter_cfg.c ****         #define CY_CFG_MEMORY_BARRIER() __sync_synchronize()
  42:Generated_Source\PSoC5/cyfitter_cfg.c ****     #endif
  43:Generated_Source\PSoC5/cyfitter_cfg.c ****     
  44:Generated_Source\PSoC5/cyfitter_cfg.c **** #elif defined(__ICCARM__)
  45:Generated_Source\PSoC5/cyfitter_cfg.c ****     #include <intrinsics.h>
  46:Generated_Source\PSoC5/cyfitter_cfg.c **** 
  47:Generated_Source\PSoC5/cyfitter_cfg.c ****     #define CYPACKED __packed
  48:Generated_Source\PSoC5/cyfitter_cfg.c ****     #define CYPACKED_ATTR 
  49:Generated_Source\PSoC5/cyfitter_cfg.c ****     #define CYALIGNED _Pragma("data_alignment=4")
  50:Generated_Source\PSoC5/cyfitter_cfg.c ****     #define CY_CFG_UNUSED _Pragma("diag_suppress=Pe177")
  51:Generated_Source\PSoC5/cyfitter_cfg.c ****     #define CY_CFG_SECTION _Pragma("location=\".psocinit\"")
  52:Generated_Source\PSoC5/cyfitter_cfg.c ****     
  53:Generated_Source\PSoC5/cyfitter_cfg.c ****     #define CY_CFG_MEMORY_BARRIER() __DMB()
  54:Generated_Source\PSoC5/cyfitter_cfg.c ****     
  55:Generated_Source\PSoC5/cyfitter_cfg.c **** #else
  56:Generated_Source\PSoC5/cyfitter_cfg.c ****     #error Unsupported toolchain
  57:Generated_Source\PSoC5/cyfitter_cfg.c **** #endif
  58:Generated_Source\PSoC5/cyfitter_cfg.c **** 
  59:Generated_Source\PSoC5/cyfitter_cfg.c **** #ifndef CYCODE
  60:Generated_Source\PSoC5/cyfitter_cfg.c ****     #define CYCODE
  61:Generated_Source\PSoC5/cyfitter_cfg.c **** #endif
  62:Generated_Source\PSoC5/cyfitter_cfg.c **** #ifndef CYDATA
  63:Generated_Source\PSoC5/cyfitter_cfg.c ****     #define CYDATA
  64:Generated_Source\PSoC5/cyfitter_cfg.c **** #endif
  65:Generated_Source\PSoC5/cyfitter_cfg.c **** #ifndef CYFAR
  66:Generated_Source\PSoC5/cyfitter_cfg.c ****     #define CYFAR
  67:Generated_Source\PSoC5/cyfitter_cfg.c **** #endif
  68:Generated_Source\PSoC5/cyfitter_cfg.c **** #ifndef CYXDATA
  69:Generated_Source\PSoC5/cyfitter_cfg.c ****     #define CYXDATA
  70:Generated_Source\PSoC5/cyfitter_cfg.c **** #endif
  71:Generated_Source\PSoC5/cyfitter_cfg.c **** 
  72:Generated_Source\PSoC5/cyfitter_cfg.c **** 
  73:Generated_Source\PSoC5/cyfitter_cfg.c **** CY_CFG_UNUSED
  74:Generated_Source\PSoC5/cyfitter_cfg.c **** static void CYMEMZERO(void *s, size_t n);
  75:Generated_Source\PSoC5/cyfitter_cfg.c **** CY_CFG_UNUSED
  76:Generated_Source\PSoC5/cyfitter_cfg.c **** static void CYMEMZERO(void *s, size_t n)
  77:Generated_Source\PSoC5/cyfitter_cfg.c **** {
  78:Generated_Source\PSoC5/cyfitter_cfg.c **** 	(void)memset(s, 0, n);
  79:Generated_Source\PSoC5/cyfitter_cfg.c **** }
  80:Generated_Source\PSoC5/cyfitter_cfg.c **** CY_CFG_UNUSED
  81:Generated_Source\PSoC5/cyfitter_cfg.c **** static void CYCONFIGCPY(void *dest, const void *src, size_t n);
  82:Generated_Source\PSoC5/cyfitter_cfg.c **** CY_CFG_UNUSED
  83:Generated_Source\PSoC5/cyfitter_cfg.c **** static void CYCONFIGCPY(void *dest, const void *src, size_t n)
  84:Generated_Source\PSoC5/cyfitter_cfg.c **** {
  85:Generated_Source\PSoC5/cyfitter_cfg.c **** 	(void)memcpy(dest, src, n);
  86:Generated_Source\PSoC5/cyfitter_cfg.c **** }
  87:Generated_Source\PSoC5/cyfitter_cfg.c **** CY_CFG_UNUSED
ARM GAS  C:\Users\chemi\AppData\Local\Temp\ccEevlXJ.s 			page 3


  88:Generated_Source\PSoC5/cyfitter_cfg.c **** static void CYCONFIGCPYCODE(void *dest, const void *src, size_t n);
  89:Generated_Source\PSoC5/cyfitter_cfg.c **** CY_CFG_UNUSED
  90:Generated_Source\PSoC5/cyfitter_cfg.c **** static void CYCONFIGCPYCODE(void *dest, const void *src, size_t n)
  91:Generated_Source\PSoC5/cyfitter_cfg.c **** {
  92:Generated_Source\PSoC5/cyfitter_cfg.c **** 	(void)memcpy(dest, src, n);
  93:Generated_Source\PSoC5/cyfitter_cfg.c **** }
  94:Generated_Source\PSoC5/cyfitter_cfg.c **** 
  95:Generated_Source\PSoC5/cyfitter_cfg.c **** 
  96:Generated_Source\PSoC5/cyfitter_cfg.c **** 
  97:Generated_Source\PSoC5/cyfitter_cfg.c **** 
  98:Generated_Source\PSoC5/cyfitter_cfg.c **** /* Clock startup error codes                                                   */
  99:Generated_Source\PSoC5/cyfitter_cfg.c **** #define CYCLOCKSTART_NO_ERROR    0u
 100:Generated_Source\PSoC5/cyfitter_cfg.c **** #define CYCLOCKSTART_XTAL_ERROR  1u
 101:Generated_Source\PSoC5/cyfitter_cfg.c **** #define CYCLOCKSTART_32KHZ_ERROR 2u
 102:Generated_Source\PSoC5/cyfitter_cfg.c **** #define CYCLOCKSTART_PLL_ERROR   3u
 103:Generated_Source\PSoC5/cyfitter_cfg.c **** #define CYCLOCKSTART_FLL_ERROR   4u
 104:Generated_Source\PSoC5/cyfitter_cfg.c **** #define CYCLOCKSTART_WCO_ERROR   5u
 105:Generated_Source\PSoC5/cyfitter_cfg.c **** 
 106:Generated_Source\PSoC5/cyfitter_cfg.c **** 
 107:Generated_Source\PSoC5/cyfitter_cfg.c **** #ifdef CY_NEED_CYCLOCKSTARTUPERROR
 108:Generated_Source\PSoC5/cyfitter_cfg.c **** /*******************************************************************************
 109:Generated_Source\PSoC5/cyfitter_cfg.c **** * Function Name: CyClockStartupError
 110:Generated_Source\PSoC5/cyfitter_cfg.c **** ********************************************************************************
 111:Generated_Source\PSoC5/cyfitter_cfg.c **** * Summary:
 112:Generated_Source\PSoC5/cyfitter_cfg.c **** *  If an error is encountered during clock configuration (crystal startup error,
 113:Generated_Source\PSoC5/cyfitter_cfg.c **** *  PLL lock error, etc.), the system will end up here.  Unless reimplemented by
 114:Generated_Source\PSoC5/cyfitter_cfg.c **** *  the customer, this function will stop in an infinite loop.
 115:Generated_Source\PSoC5/cyfitter_cfg.c **** *
 116:Generated_Source\PSoC5/cyfitter_cfg.c **** * Parameters:
 117:Generated_Source\PSoC5/cyfitter_cfg.c **** *   void
 118:Generated_Source\PSoC5/cyfitter_cfg.c **** *
 119:Generated_Source\PSoC5/cyfitter_cfg.c **** * Return:
 120:Generated_Source\PSoC5/cyfitter_cfg.c **** *   void
 121:Generated_Source\PSoC5/cyfitter_cfg.c **** *
 122:Generated_Source\PSoC5/cyfitter_cfg.c **** *******************************************************************************/
 123:Generated_Source\PSoC5/cyfitter_cfg.c **** CY_CFG_UNUSED
 124:Generated_Source\PSoC5/cyfitter_cfg.c **** static void CyClockStartupError(uint8 errorCode);
 125:Generated_Source\PSoC5/cyfitter_cfg.c **** CY_CFG_UNUSED
 126:Generated_Source\PSoC5/cyfitter_cfg.c **** static void CyClockStartupError(uint8 errorCode)
 127:Generated_Source\PSoC5/cyfitter_cfg.c **** {
 128:Generated_Source\PSoC5/cyfitter_cfg.c ****     /* To remove the compiler warning if errorCode not used.                */
 129:Generated_Source\PSoC5/cyfitter_cfg.c ****     errorCode = errorCode;
 130:Generated_Source\PSoC5/cyfitter_cfg.c **** 
 131:Generated_Source\PSoC5/cyfitter_cfg.c ****     /* If we have a clock startup error (bad MHz crystal, PLL lock, etc.),  */
 132:Generated_Source\PSoC5/cyfitter_cfg.c ****     /* we will end up here to allow the customer to implement something to  */
 133:Generated_Source\PSoC5/cyfitter_cfg.c ****     /* deal with the clock condition.                                       */
 134:Generated_Source\PSoC5/cyfitter_cfg.c **** 
 135:Generated_Source\PSoC5/cyfitter_cfg.c **** #ifdef CY_CFG_CLOCK_STARTUP_ERROR_CALLBACK
 136:Generated_Source\PSoC5/cyfitter_cfg.c ****     CY_CFG_Clock_Startup_ErrorCallback();
 137:Generated_Source\PSoC5/cyfitter_cfg.c **** #else
 138:Generated_Source\PSoC5/cyfitter_cfg.c ****     /*  If not using CY_CFG_CLOCK_STARTUP_ERROR_CALLBACK, place your clock startup code here. */
 139:Generated_Source\PSoC5/cyfitter_cfg.c ****     /* `#START CyClockStartupError` */
 140:Generated_Source\PSoC5/cyfitter_cfg.c **** 
 141:Generated_Source\PSoC5/cyfitter_cfg.c **** 
 142:Generated_Source\PSoC5/cyfitter_cfg.c **** 
 143:Generated_Source\PSoC5/cyfitter_cfg.c ****     /* `#END` */
 144:Generated_Source\PSoC5/cyfitter_cfg.c **** 
ARM GAS  C:\Users\chemi\AppData\Local\Temp\ccEevlXJ.s 			page 4


 145:Generated_Source\PSoC5/cyfitter_cfg.c ****     while(1) {}
 146:Generated_Source\PSoC5/cyfitter_cfg.c **** #endif /* CY_CFG_CLOCK_STARTUP_ERROR_CALLBACK */
 147:Generated_Source\PSoC5/cyfitter_cfg.c **** }
 148:Generated_Source\PSoC5/cyfitter_cfg.c **** #endif
 149:Generated_Source\PSoC5/cyfitter_cfg.c **** 
 150:Generated_Source\PSoC5/cyfitter_cfg.c **** #define CY_CFG_BASE_ADDR_COUNT 28u
 151:Generated_Source\PSoC5/cyfitter_cfg.c **** CYPACKED typedef struct
 152:Generated_Source\PSoC5/cyfitter_cfg.c **** {
 153:Generated_Source\PSoC5/cyfitter_cfg.c **** 	uint8 offset;
 154:Generated_Source\PSoC5/cyfitter_cfg.c **** 	uint8 value;
 155:Generated_Source\PSoC5/cyfitter_cfg.c **** } CYPACKED_ATTR cy_cfg_addrvalue_t;
 156:Generated_Source\PSoC5/cyfitter_cfg.c **** 
 157:Generated_Source\PSoC5/cyfitter_cfg.c **** 
 158:Generated_Source\PSoC5/cyfitter_cfg.c **** 
 159:Generated_Source\PSoC5/cyfitter_cfg.c **** /*******************************************************************************
 160:Generated_Source\PSoC5/cyfitter_cfg.c **** * Function Name: cfg_write_bytes32
 161:Generated_Source\PSoC5/cyfitter_cfg.c **** ********************************************************************************
 162:Generated_Source\PSoC5/cyfitter_cfg.c **** * Summary:
 163:Generated_Source\PSoC5/cyfitter_cfg.c **** *  This function is used for setting up the chip configuration areas that
 164:Generated_Source\PSoC5/cyfitter_cfg.c **** *  contain relatively sparse data.
 165:Generated_Source\PSoC5/cyfitter_cfg.c **** *
 166:Generated_Source\PSoC5/cyfitter_cfg.c **** * Parameters:
 167:Generated_Source\PSoC5/cyfitter_cfg.c **** *   void
 168:Generated_Source\PSoC5/cyfitter_cfg.c **** *
 169:Generated_Source\PSoC5/cyfitter_cfg.c **** * Return:
 170:Generated_Source\PSoC5/cyfitter_cfg.c **** *   void
 171:Generated_Source\PSoC5/cyfitter_cfg.c **** *
 172:Generated_Source\PSoC5/cyfitter_cfg.c **** *******************************************************************************/
 173:Generated_Source\PSoC5/cyfitter_cfg.c **** static void cfg_write_bytes32(const uint32 addr_table[], const cy_cfg_addrvalue_t data_table[]);
 174:Generated_Source\PSoC5/cyfitter_cfg.c **** static void cfg_write_bytes32(const uint32 addr_table[], const cy_cfg_addrvalue_t data_table[])
 175:Generated_Source\PSoC5/cyfitter_cfg.c **** {
 176:Generated_Source\PSoC5/cyfitter_cfg.c **** 	/* For 32-bit little-endian architectures */
 177:Generated_Source\PSoC5/cyfitter_cfg.c **** 	uint32 i, j = 0u;
 178:Generated_Source\PSoC5/cyfitter_cfg.c **** 	for (i = 0u; i < CY_CFG_BASE_ADDR_COUNT; i++)
 179:Generated_Source\PSoC5/cyfitter_cfg.c **** 	{
 180:Generated_Source\PSoC5/cyfitter_cfg.c **** 		uint32 baseAddr = addr_table[i];
 181:Generated_Source\PSoC5/cyfitter_cfg.c **** 		uint8 count = (uint8)baseAddr;
 182:Generated_Source\PSoC5/cyfitter_cfg.c **** 		baseAddr &= 0xFFFFFF00u;
 183:Generated_Source\PSoC5/cyfitter_cfg.c **** 		while (count != 0u)
 184:Generated_Source\PSoC5/cyfitter_cfg.c **** 		{
 185:Generated_Source\PSoC5/cyfitter_cfg.c **** 			CY_SET_REG8((void *)(baseAddr + data_table[j].offset), data_table[j].value);
 186:Generated_Source\PSoC5/cyfitter_cfg.c **** 			j++;
 187:Generated_Source\PSoC5/cyfitter_cfg.c **** 			count--;
 188:Generated_Source\PSoC5/cyfitter_cfg.c **** 		}
 189:Generated_Source\PSoC5/cyfitter_cfg.c **** 	}
 190:Generated_Source\PSoC5/cyfitter_cfg.c **** }
 191:Generated_Source\PSoC5/cyfitter_cfg.c **** 
 192:Generated_Source\PSoC5/cyfitter_cfg.c **** /*******************************************************************************
 193:Generated_Source\PSoC5/cyfitter_cfg.c **** * Function Name: ClockSetup
 194:Generated_Source\PSoC5/cyfitter_cfg.c **** ********************************************************************************
 195:Generated_Source\PSoC5/cyfitter_cfg.c **** *
 196:Generated_Source\PSoC5/cyfitter_cfg.c **** * Summary:
 197:Generated_Source\PSoC5/cyfitter_cfg.c **** *  Performs the initialization of all of the clocks in the device based on the
 198:Generated_Source\PSoC5/cyfitter_cfg.c **** *  settings in the Clock tab of the DWR.  This includes enabling the requested
 199:Generated_Source\PSoC5/cyfitter_cfg.c **** *  clocks and setting the necessary dividers to produce the desired frequency. 
 200:Generated_Source\PSoC5/cyfitter_cfg.c **** *
 201:Generated_Source\PSoC5/cyfitter_cfg.c **** * Parameters:
ARM GAS  C:\Users\chemi\AppData\Local\Temp\ccEevlXJ.s 			page 5


 202:Generated_Source\PSoC5/cyfitter_cfg.c **** *  void
 203:Generated_Source\PSoC5/cyfitter_cfg.c **** *
 204:Generated_Source\PSoC5/cyfitter_cfg.c **** * Return:
 205:Generated_Source\PSoC5/cyfitter_cfg.c **** *  void
 206:Generated_Source\PSoC5/cyfitter_cfg.c **** *
 207:Generated_Source\PSoC5/cyfitter_cfg.c **** *******************************************************************************/
 208:Generated_Source\PSoC5/cyfitter_cfg.c **** static void ClockSetup(void);
 209:Generated_Source\PSoC5/cyfitter_cfg.c **** static void ClockSetup(void)
 210:Generated_Source\PSoC5/cyfitter_cfg.c **** {
 211:Generated_Source\PSoC5/cyfitter_cfg.c **** 	uint32 timeout;
 212:Generated_Source\PSoC5/cyfitter_cfg.c **** 	uint8 pllLock;
 213:Generated_Source\PSoC5/cyfitter_cfg.c **** 
 214:Generated_Source\PSoC5/cyfitter_cfg.c **** 
 215:Generated_Source\PSoC5/cyfitter_cfg.c **** 	/* Configure Digital Clocks based on settings from Clock DWR */
 216:Generated_Source\PSoC5/cyfitter_cfg.c **** 	CY_SET_XTND_REG16((void CYFAR *)(CYREG_CLKDIST_DCFG0_CFG0), 0x0001u);
 217:Generated_Source\PSoC5/cyfitter_cfg.c **** 	CY_SET_XTND_REG8((void CYFAR *)(CYREG_CLKDIST_DCFG0_CFG0 + 0x2u), 0x18u);
 218:Generated_Source\PSoC5/cyfitter_cfg.c **** 	CY_SET_XTND_REG16((void CYFAR *)(CYREG_CLKDIST_DCFG1_CFG0), 0x001Fu);
 219:Generated_Source\PSoC5/cyfitter_cfg.c **** 	CY_SET_XTND_REG8((void CYFAR *)(CYREG_CLKDIST_DCFG1_CFG0 + 0x2u), 0x18u);
 220:Generated_Source\PSoC5/cyfitter_cfg.c **** 	CY_SET_XTND_REG16((void CYFAR *)(CYREG_CLKDIST_DCFG2_CFG0), 0x61A7u);
 221:Generated_Source\PSoC5/cyfitter_cfg.c **** 	CY_SET_XTND_REG8((void CYFAR *)(CYREG_CLKDIST_DCFG2_CFG0 + 0x2u), 0x1Bu);
 222:Generated_Source\PSoC5/cyfitter_cfg.c **** 
 223:Generated_Source\PSoC5/cyfitter_cfg.c **** 	/* Configure ILO based on settings from Clock DWR */
 224:Generated_Source\PSoC5/cyfitter_cfg.c **** 	CY_SET_XTND_REG8((void CYFAR *)(CYREG_SLOWCLK_ILO_CR0), 0x06u);
 225:Generated_Source\PSoC5/cyfitter_cfg.c **** 
 226:Generated_Source\PSoC5/cyfitter_cfg.c **** 	/* Configure IMO based on settings from Clock DWR */
 227:Generated_Source\PSoC5/cyfitter_cfg.c **** 	CY_SET_XTND_REG8((void CYFAR *)(CYREG_FASTCLK_IMO_CR), 0x52u);
 228:Generated_Source\PSoC5/cyfitter_cfg.c **** 	CY_SET_XTND_REG8((void CYFAR *)(CYREG_IMO_TR1), (CY_GET_XTND_REG8((void CYFAR *)CYREG_FLSHID_CUST_
 229:Generated_Source\PSoC5/cyfitter_cfg.c **** 
 230:Generated_Source\PSoC5/cyfitter_cfg.c **** 	/* Configure PLL based on settings from Clock DWR */
 231:Generated_Source\PSoC5/cyfitter_cfg.c **** 	CY_SET_XTND_REG16((void CYFAR *)(CYREG_FASTCLK_PLL_P), 0x0818u);
 232:Generated_Source\PSoC5/cyfitter_cfg.c **** 	CY_SET_XTND_REG16((void CYFAR *)(CYREG_FASTCLK_PLL_CFG0), 0x1251u);
 233:Generated_Source\PSoC5/cyfitter_cfg.c **** 	/* Wait up to 250us for the PLL to lock */
 234:Generated_Source\PSoC5/cyfitter_cfg.c **** 	pllLock = 0u;
 235:Generated_Source\PSoC5/cyfitter_cfg.c **** 	for (timeout = 250u / 10u; (timeout > 0u) && (pllLock != 0x03u); timeout--)
 236:Generated_Source\PSoC5/cyfitter_cfg.c **** 	{ 
 237:Generated_Source\PSoC5/cyfitter_cfg.c **** 		pllLock = 0x03u & ((uint8)((uint8)pllLock << 1) | ((CY_GET_XTND_REG8((void CYFAR *)CYREG_FASTCLK_
 238:Generated_Source\PSoC5/cyfitter_cfg.c **** 		CyDelayCycles(10u * 48u); /* Delay 10us based on 48MHz clock */
 239:Generated_Source\PSoC5/cyfitter_cfg.c **** 	}
 240:Generated_Source\PSoC5/cyfitter_cfg.c **** 	/* If we ran out of time the PLL didn't lock so go to the error function */
 241:Generated_Source\PSoC5/cyfitter_cfg.c **** 	if (timeout == 0u)
 242:Generated_Source\PSoC5/cyfitter_cfg.c **** 	{
 243:Generated_Source\PSoC5/cyfitter_cfg.c **** 		CyClockStartupError(CYCLOCKSTART_PLL_ERROR);
 244:Generated_Source\PSoC5/cyfitter_cfg.c **** 	}
 245:Generated_Source\PSoC5/cyfitter_cfg.c **** 
 246:Generated_Source\PSoC5/cyfitter_cfg.c **** 	/* Configure Bus/Master Clock based on settings from Clock DWR */
 247:Generated_Source\PSoC5/cyfitter_cfg.c **** 	CY_SET_XTND_REG16((void CYFAR *)(CYREG_CLKDIST_MSTR0), 0x0100u);
 248:Generated_Source\PSoC5/cyfitter_cfg.c **** 	CY_SET_XTND_REG8((void CYFAR *)(CYREG_CLKDIST_MSTR0), 0x07u);
 249:Generated_Source\PSoC5/cyfitter_cfg.c **** 	CY_SET_XTND_REG8((void CYFAR *)(CYREG_CLKDIST_BCFG0), 0x00u);
 250:Generated_Source\PSoC5/cyfitter_cfg.c **** 	CY_SET_XTND_REG8((void CYFAR *)(CYREG_CLKDIST_BCFG2), 0x48u);
 251:Generated_Source\PSoC5/cyfitter_cfg.c **** 	CY_SET_XTND_REG8((void CYFAR *)(CYREG_CLKDIST_MSTR0), 0x00u);
 252:Generated_Source\PSoC5/cyfitter_cfg.c **** 
 253:Generated_Source\PSoC5/cyfitter_cfg.c **** 	/* Configure USB Clock based on settings from Clock DWR */
 254:Generated_Source\PSoC5/cyfitter_cfg.c **** 	CY_SET_XTND_REG8((void CYFAR *)(CYREG_CLKDIST_UCFG), 0x00u);
 255:Generated_Source\PSoC5/cyfitter_cfg.c **** 	CY_SET_XTND_REG8((void CYFAR *)(CYREG_CLKDIST_LD), 0x02u);
 256:Generated_Source\PSoC5/cyfitter_cfg.c **** 
 257:Generated_Source\PSoC5/cyfitter_cfg.c **** 	CY_SET_XTND_REG8((void CYFAR *)(CYREG_PM_ACT_CFG2), ((CY_GET_XTND_REG8((void CYFAR *)CYREG_PM_ACT_
 258:Generated_Source\PSoC5/cyfitter_cfg.c **** }
ARM GAS  C:\Users\chemi\AppData\Local\Temp\ccEevlXJ.s 			page 6


 259:Generated_Source\PSoC5/cyfitter_cfg.c **** 
 260:Generated_Source\PSoC5/cyfitter_cfg.c **** 
 261:Generated_Source\PSoC5/cyfitter_cfg.c **** /* Analog API Functions */
 262:Generated_Source\PSoC5/cyfitter_cfg.c **** 
 263:Generated_Source\PSoC5/cyfitter_cfg.c **** 
 264:Generated_Source\PSoC5/cyfitter_cfg.c **** /*******************************************************************************
 265:Generated_Source\PSoC5/cyfitter_cfg.c **** * Function Name: AnalogSetDefault
 266:Generated_Source\PSoC5/cyfitter_cfg.c **** ********************************************************************************
 267:Generated_Source\PSoC5/cyfitter_cfg.c **** *
 268:Generated_Source\PSoC5/cyfitter_cfg.c **** * Summary:
 269:Generated_Source\PSoC5/cyfitter_cfg.c **** *  Sets up the analog portions of the chip to default values based on chip
 270:Generated_Source\PSoC5/cyfitter_cfg.c **** *  configuration options from the project.
 271:Generated_Source\PSoC5/cyfitter_cfg.c **** *
 272:Generated_Source\PSoC5/cyfitter_cfg.c **** * Parameters:
 273:Generated_Source\PSoC5/cyfitter_cfg.c **** *  void
 274:Generated_Source\PSoC5/cyfitter_cfg.c **** *
 275:Generated_Source\PSoC5/cyfitter_cfg.c **** * Return:
 276:Generated_Source\PSoC5/cyfitter_cfg.c **** *  void
 277:Generated_Source\PSoC5/cyfitter_cfg.c **** *
 278:Generated_Source\PSoC5/cyfitter_cfg.c **** *******************************************************************************/
 279:Generated_Source\PSoC5/cyfitter_cfg.c **** static void AnalogSetDefault(void);
 280:Generated_Source\PSoC5/cyfitter_cfg.c **** static void AnalogSetDefault(void)
 281:Generated_Source\PSoC5/cyfitter_cfg.c **** {
 282:Generated_Source\PSoC5/cyfitter_cfg.c **** 	uint8 bg_xover_inl_trim = CY_GET_XTND_REG8((void CYFAR *)(CYREG_FLSHID_MFG_CFG_BG_XOVER_INL_TRIM +
 283:Generated_Source\PSoC5/cyfitter_cfg.c **** 	CY_SET_XTND_REG8((void CYFAR *)(CYREG_BG_DFT0), (bg_xover_inl_trim & 0x07u));
 284:Generated_Source\PSoC5/cyfitter_cfg.c **** 	CY_SET_XTND_REG8((void CYFAR *)(CYREG_BG_DFT1), ((bg_xover_inl_trim >> 4) & 0x0Fu));
 285:Generated_Source\PSoC5/cyfitter_cfg.c **** 	CY_SET_XTND_REG8((void CYFAR *)CYREG_PUMP_CR0, 0x44u);
 286:Generated_Source\PSoC5/cyfitter_cfg.c **** }
 287:Generated_Source\PSoC5/cyfitter_cfg.c **** 
 288:Generated_Source\PSoC5/cyfitter_cfg.c **** 
 289:Generated_Source\PSoC5/cyfitter_cfg.c **** /*******************************************************************************
 290:Generated_Source\PSoC5/cyfitter_cfg.c **** * Function Name: SetAnalogRoutingPumps
 291:Generated_Source\PSoC5/cyfitter_cfg.c **** ********************************************************************************
 292:Generated_Source\PSoC5/cyfitter_cfg.c **** *
 293:Generated_Source\PSoC5/cyfitter_cfg.c **** * Summary:
 294:Generated_Source\PSoC5/cyfitter_cfg.c **** * Enables or disables the analog pumps feeding analog routing switches.
 295:Generated_Source\PSoC5/cyfitter_cfg.c **** * Intended to be called at startup, based on the Vdda system configuration;
 296:Generated_Source\PSoC5/cyfitter_cfg.c **** * may be called during operation when the user informs us that the Vdda voltage
 297:Generated_Source\PSoC5/cyfitter_cfg.c **** * crossed the pump threshold.
 298:Generated_Source\PSoC5/cyfitter_cfg.c **** *
 299:Generated_Source\PSoC5/cyfitter_cfg.c **** * Parameters:
 300:Generated_Source\PSoC5/cyfitter_cfg.c **** *  enabled - 1 to enable the pumps, 0 to disable the pumps
 301:Generated_Source\PSoC5/cyfitter_cfg.c **** *
 302:Generated_Source\PSoC5/cyfitter_cfg.c **** * Return:
 303:Generated_Source\PSoC5/cyfitter_cfg.c **** *  void
 304:Generated_Source\PSoC5/cyfitter_cfg.c **** *
 305:Generated_Source\PSoC5/cyfitter_cfg.c **** *******************************************************************************/
 306:Generated_Source\PSoC5/cyfitter_cfg.c **** void SetAnalogRoutingPumps(uint8 enabled)
 307:Generated_Source\PSoC5/cyfitter_cfg.c **** {
  28              		.loc 1 307 0
  29              		.cfi_startproc
  30              		@ args = 0, pretend = 0, frame = 0
  31              		@ frame_needed = 0, uses_anonymous_args = 0
  32              		@ link register save eliminated.
  33              	.LVL0:
 308:Generated_Source\PSoC5/cyfitter_cfg.c **** 	uint8 regValue = CY_GET_XTND_REG8((void CYFAR *)CYREG_PUMP_CR0);
  34              		.loc 1 308 0
ARM GAS  C:\Users\chemi\AppData\Local\Temp\ccEevlXJ.s 			page 7


  35 0000 024A     		ldr	r2, .L2
  36 0002 1378     		ldrb	r3, [r2]	@ zero_extendqisi2
  37 0004 DBB2     		uxtb	r3, r3
  38              	.LVL1:
 309:Generated_Source\PSoC5/cyfitter_cfg.c **** 	if (enabled != 0u)
 310:Generated_Source\PSoC5/cyfitter_cfg.c **** 	{
 311:Generated_Source\PSoC5/cyfitter_cfg.c **** 		regValue |= 0x00u;
 312:Generated_Source\PSoC5/cyfitter_cfg.c **** 	}
 313:Generated_Source\PSoC5/cyfitter_cfg.c **** 	else
 314:Generated_Source\PSoC5/cyfitter_cfg.c **** 	{
 315:Generated_Source\PSoC5/cyfitter_cfg.c **** 		regValue &= (uint8)~0x00u;
 316:Generated_Source\PSoC5/cyfitter_cfg.c **** 	}
 317:Generated_Source\PSoC5/cyfitter_cfg.c **** 	CY_SET_XTND_REG8((void CYFAR *)CYREG_PUMP_CR0, regValue);
  39              		.loc 1 317 0
  40 0006 1370     		strb	r3, [r2]
  41 0008 7047     		bx	lr
  42              	.L3:
  43 000a 00BF     		.align	2
  44              	.L2:
  45 000c 76580040 		.word	1073764470
  46              		.cfi_endproc
  47              	.LFE7:
  48              		.size	SetAnalogRoutingPumps, .-SetAnalogRoutingPumps
  49              		.section	.text.cyfitter_cfg,"ax",%progbits
  50              		.align	1
  51              		.global	cyfitter_cfg
  52              		.thumb
  53              		.thumb_func
  54              		.type	cyfitter_cfg, %function
  55              	cyfitter_cfg:
  56              	.LFB8:
 318:Generated_Source\PSoC5/cyfitter_cfg.c **** }
 319:Generated_Source\PSoC5/cyfitter_cfg.c **** 
 320:Generated_Source\PSoC5/cyfitter_cfg.c **** 
 321:Generated_Source\PSoC5/cyfitter_cfg.c **** 
 322:Generated_Source\PSoC5/cyfitter_cfg.c **** 
 323:Generated_Source\PSoC5/cyfitter_cfg.c **** /*******************************************************************************
 324:Generated_Source\PSoC5/cyfitter_cfg.c **** * Function Name: cyfitter_cfg
 325:Generated_Source\PSoC5/cyfitter_cfg.c **** ********************************************************************************
 326:Generated_Source\PSoC5/cyfitter_cfg.c **** * Summary:
 327:Generated_Source\PSoC5/cyfitter_cfg.c **** *  This function is called by the start-up code for the selected device. It
 328:Generated_Source\PSoC5/cyfitter_cfg.c **** *  performs all of the necessary device configuration based on the design
 329:Generated_Source\PSoC5/cyfitter_cfg.c **** *  settings.  This includes settings from the Design Wide Resources (DWR) such
 330:Generated_Source\PSoC5/cyfitter_cfg.c **** *  as Clocks and Pins as well as any component configuration that is necessary.
 331:Generated_Source\PSoC5/cyfitter_cfg.c **** *
 332:Generated_Source\PSoC5/cyfitter_cfg.c **** * Parameters:
 333:Generated_Source\PSoC5/cyfitter_cfg.c **** *   void
 334:Generated_Source\PSoC5/cyfitter_cfg.c **** *
 335:Generated_Source\PSoC5/cyfitter_cfg.c **** * Return:
 336:Generated_Source\PSoC5/cyfitter_cfg.c **** *   void
 337:Generated_Source\PSoC5/cyfitter_cfg.c **** *
 338:Generated_Source\PSoC5/cyfitter_cfg.c **** *******************************************************************************/
 339:Generated_Source\PSoC5/cyfitter_cfg.c **** 
 340:Generated_Source\PSoC5/cyfitter_cfg.c **** void cyfitter_cfg(void)
 341:Generated_Source\PSoC5/cyfitter_cfg.c **** {
  57              		.loc 1 341 0
  58              		.cfi_startproc
ARM GAS  C:\Users\chemi\AppData\Local\Temp\ccEevlXJ.s 			page 8


  59              		@ args = 0, pretend = 0, frame = 0
  60              		@ frame_needed = 0, uses_anonymous_args = 0
  61 0000 F8B5     		push	{r3, r4, r5, r6, r7, lr}
  62              		.cfi_def_cfa_offset 24
  63              		.cfi_offset 3, -24
  64              		.cfi_offset 4, -20
  65              		.cfi_offset 5, -16
  66              		.cfi_offset 6, -12
  67              		.cfi_offset 7, -8
  68              		.cfi_offset 14, -4
 342:Generated_Source\PSoC5/cyfitter_cfg.c **** 	/* IOPINS0_8 Address: CYREG_PRT15_DR Size (bytes): 10 */
 343:Generated_Source\PSoC5/cyfitter_cfg.c **** 	static const uint8 CYCODE BS_IOPINS0_8_VAL[] = {
 344:Generated_Source\PSoC5/cyfitter_cfg.c **** 		0x41u, 0x00u, 0x00u, 0x01u, 0x00u, 0x00u, 0x00u, 0x00u, 0xC0u, 0x00u};
 345:Generated_Source\PSoC5/cyfitter_cfg.c **** 
 346:Generated_Source\PSoC5/cyfitter_cfg.c **** 	/* IOPINS0_1 Address: CYREG_PRT1_DM0 Size (bytes): 8 */
 347:Generated_Source\PSoC5/cyfitter_cfg.c **** 	static const uint8 CYCODE BS_IOPINS0_1_VAL[] = {
 348:Generated_Source\PSoC5/cyfitter_cfg.c **** 		0x00u, 0x0Bu, 0x0Bu, 0x00u, 0x00u, 0x00u, 0x00u, 0x00u};
 349:Generated_Source\PSoC5/cyfitter_cfg.c **** 
 350:Generated_Source\PSoC5/cyfitter_cfg.c **** 	/* IOPINS0_2 Address: CYREG_PRT2_DM0 Size (bytes): 8 */
 351:Generated_Source\PSoC5/cyfitter_cfg.c **** 	static const uint8 CYCODE BS_IOPINS0_2_VAL[] = {
 352:Generated_Source\PSoC5/cyfitter_cfg.c **** 		0x00u, 0x1Bu, 0x1Bu, 0x00u, 0x1Bu, 0x00u, 0x00u, 0x00u};
 353:Generated_Source\PSoC5/cyfitter_cfg.c **** 
 354:Generated_Source\PSoC5/cyfitter_cfg.c **** 	/* IOPINS0_3 Address: CYREG_PRT3_DR Size (bytes): 10 */
 355:Generated_Source\PSoC5/cyfitter_cfg.c **** 	static const uint8 CYCODE BS_IOPINS0_3_VAL[] = {
 356:Generated_Source\PSoC5/cyfitter_cfg.c **** 		0x01u, 0x00u, 0x10u, 0x01u, 0x01u, 0x00u, 0x01u, 0x00u, 0x00u, 0x00u};
 357:Generated_Source\PSoC5/cyfitter_cfg.c **** 
 358:Generated_Source\PSoC5/cyfitter_cfg.c **** #ifdef CYGlobalIntDisable
 359:Generated_Source\PSoC5/cyfitter_cfg.c **** 	/* Disable interrupts by default. Let user enable if/when they want. */
 360:Generated_Source\PSoC5/cyfitter_cfg.c **** 	CYGlobalIntDisable
  69              		.loc 1 360 0
  70              		.syntax unified
  71              	@ 360 "Generated_Source\PSoC5\cyfitter_cfg.c" 1
  72 0002 72B6     		CPSID   i
  73              	@ 0 "" 2
 361:Generated_Source\PSoC5/cyfitter_cfg.c **** #endif
 362:Generated_Source\PSoC5/cyfitter_cfg.c **** 
 363:Generated_Source\PSoC5/cyfitter_cfg.c **** 
 364:Generated_Source\PSoC5/cyfitter_cfg.c **** 	/* Set Flash Cycles based on max possible frequency in case a glitch occurs during ClockSetup(). *
 365:Generated_Source\PSoC5/cyfitter_cfg.c **** 	CY_SET_XTND_REG8((void CYFAR *)(CYREG_CACHE_CC_CTL), (((CYDEV_INSTRUCT_CACHE_ENABLED) != 0) ? 0x61
  74              		.loc 1 365 0
  75              		.thumb
  76              		.syntax unified
  77 0004 694B     		ldr	r3, .L20
  78 0006 6122     		movs	r2, #97
  79 0008 1A70     		strb	r2, [r3]
  80              	.LBB44:
  81              	.LBB45:
 216:Generated_Source\PSoC5/cyfitter_cfg.c **** 	CY_SET_XTND_REG8((void CYFAR *)(CYREG_CLKDIST_DCFG0_CFG0 + 0x2u), 0x18u);
  82              		.loc 1 216 0
  83 000a 0122     		movs	r2, #1
  84 000c A3F5F063 		sub	r3, r3, #1920
  85 0010 1A80     		strh	r2, [r3]	@ movhi
 217:Generated_Source\PSoC5/cyfitter_cfg.c **** 	CY_SET_XTND_REG16((void CYFAR *)(CYREG_CLKDIST_DCFG1_CFG0), 0x001Fu);
  86              		.loc 1 217 0
  87 0012 674A     		ldr	r2, .L20+4
  88 0014 1823     		movs	r3, #24
 218:Generated_Source\PSoC5/cyfitter_cfg.c **** 	CY_SET_XTND_REG8((void CYFAR *)(CYREG_CLKDIST_DCFG1_CFG0 + 0x2u), 0x18u);
ARM GAS  C:\Users\chemi\AppData\Local\Temp\ccEevlXJ.s 			page 9


  89              		.loc 1 218 0
  90 0016 1F21     		movs	r1, #31
 217:Generated_Source\PSoC5/cyfitter_cfg.c **** 	CY_SET_XTND_REG16((void CYFAR *)(CYREG_CLKDIST_DCFG1_CFG0), 0x001Fu);
  91              		.loc 1 217 0
  92 0018 1370     		strb	r3, [r2]
 218:Generated_Source\PSoC5/cyfitter_cfg.c **** 	CY_SET_XTND_REG8((void CYFAR *)(CYREG_CLKDIST_DCFG1_CFG0 + 0x2u), 0x18u);
  93              		.loc 1 218 0
  94 001a 5180     		strh	r1, [r2, #2]	@ movhi
 219:Generated_Source\PSoC5/cyfitter_cfg.c **** 	CY_SET_XTND_REG16((void CYFAR *)(CYREG_CLKDIST_DCFG2_CFG0), 0x61A7u);
  95              		.loc 1 219 0
  96 001c 1371     		strb	r3, [r2, #4]
 220:Generated_Source\PSoC5/cyfitter_cfg.c **** 	CY_SET_XTND_REG8((void CYFAR *)(CYREG_CLKDIST_DCFG2_CFG0 + 0x2u), 0x1Bu);
  97              		.loc 1 220 0
  98 001e 46F2A712 		movw	r2, #24999
  99 0022 644B     		ldr	r3, .L20+8
 237:Generated_Source\PSoC5/cyfitter_cfg.c **** 		CyDelayCycles(10u * 48u); /* Delay 10us based on 48MHz clock */
 100              		.loc 1 237 0
 101 0024 644E     		ldr	r6, .L20+12
 220:Generated_Source\PSoC5/cyfitter_cfg.c **** 	CY_SET_XTND_REG8((void CYFAR *)(CYREG_CLKDIST_DCFG2_CFG0 + 0x2u), 0x1Bu);
 102              		.loc 1 220 0
 103 0026 1A80     		strh	r2, [r3]	@ movhi
 221:Generated_Source\PSoC5/cyfitter_cfg.c **** 
 104              		.loc 1 221 0
 105 0028 1B22     		movs	r2, #27
 106 002a 9A70     		strb	r2, [r3, #2]
 224:Generated_Source\PSoC5/cyfitter_cfg.c **** 
 107              		.loc 1 224 0
 108 002c 0622     		movs	r2, #6
 109 002e 83F87822 		strb	r2, [r3, #632]
 227:Generated_Source\PSoC5/cyfitter_cfg.c **** 	CY_SET_XTND_REG8((void CYFAR *)(CYREG_IMO_TR1), (CY_GET_XTND_REG8((void CYFAR *)CYREG_FLSHID_CUST_
 110              		.loc 1 227 0
 111 0032 5222     		movs	r2, #82
 112 0034 03F5BC73 		add	r3, r3, #376
 113 0038 1A70     		strb	r2, [r3]
 228:Generated_Source\PSoC5/cyfitter_cfg.c **** 
 114              		.loc 1 228 0
 115 003a 604B     		ldr	r3, .L20+16
 116 003c 604A     		ldr	r2, .L20+20
 117 003e 1B78     		ldrb	r3, [r3]	@ zero_extendqisi2
 232:Generated_Source\PSoC5/cyfitter_cfg.c **** 	/* Wait up to 250us for the PLL to lock */
 118              		.loc 1 232 0
 119 0040 1925     		movs	r5, #25
 228:Generated_Source\PSoC5/cyfitter_cfg.c **** 
 120              		.loc 1 228 0
 121 0042 DBB2     		uxtb	r3, r3
 122 0044 1370     		strb	r3, [r2]
 231:Generated_Source\PSoC5/cyfitter_cfg.c **** 	CY_SET_XTND_REG16((void CYFAR *)(CYREG_FASTCLK_PLL_CFG0), 0x1251u);
 123              		.loc 1 231 0
 124 0046 40F61802 		movw	r2, #2072
 125 004a 5E4B     		ldr	r3, .L20+24
 234:Generated_Source\PSoC5/cyfitter_cfg.c **** 	for (timeout = 250u / 10u; (timeout > 0u) && (pllLock != 0x03u); timeout--)
 126              		.loc 1 234 0
 127 004c 0024     		movs	r4, #0
 231:Generated_Source\PSoC5/cyfitter_cfg.c **** 	CY_SET_XTND_REG16((void CYFAR *)(CYREG_FASTCLK_PLL_CFG0), 0x1251u);
 128              		.loc 1 231 0
 129 004e 1A80     		strh	r2, [r3]	@ movhi
 232:Generated_Source\PSoC5/cyfitter_cfg.c **** 	/* Wait up to 250us for the PLL to lock */
ARM GAS  C:\Users\chemi\AppData\Local\Temp\ccEevlXJ.s 			page 10


 130              		.loc 1 232 0
 131 0050 41F25122 		movw	r2, #4689
 132 0054 23F8022C 		strh	r2, [r3, #-2]	@ movhi
 133              	.LVL2:
 134              	.L6:
 237:Generated_Source\PSoC5/cyfitter_cfg.c **** 		CyDelayCycles(10u * 48u); /* Delay 10us based on 48MHz clock */
 135              		.loc 1 237 0
 136 0058 3378     		ldrb	r3, [r6]	@ zero_extendqisi2
 238:Generated_Source\PSoC5/cyfitter_cfg.c **** 	}
 137              		.loc 1 238 0
 138 005a 4FF4F070 		mov	r0, #480
 237:Generated_Source\PSoC5/cyfitter_cfg.c **** 		CyDelayCycles(10u * 48u); /* Delay 10us based on 48MHz clock */
 139              		.loc 1 237 0
 140 005e 03F00103 		and	r3, r3, #1
 141 0062 43EA4404 		orr	r4, r3, r4, lsl #1
 142              	.LVL3:
 238:Generated_Source\PSoC5/cyfitter_cfg.c **** 	}
 143              		.loc 1 238 0
 144 0066 FFF7FEFF 		bl	CyDelayCycles
 145              	.LVL4:
 235:Generated_Source\PSoC5/cyfitter_cfg.c **** 	{ 
 146              		.loc 1 235 0
 147 006a 013D     		subs	r5, r5, #1
 148              	.LVL5:
 237:Generated_Source\PSoC5/cyfitter_cfg.c **** 		CyDelayCycles(10u * 48u); /* Delay 10us based on 48MHz clock */
 149              		.loc 1 237 0
 150 006c 04F00304 		and	r4, r4, #3
 151              	.LVL6:
 235:Generated_Source\PSoC5/cyfitter_cfg.c **** 	{ 
 152              		.loc 1 235 0
 153 0070 21D0     		beq	.L5
 154              	.LVL7:
 155 0072 032C     		cmp	r4, #3
 156 0074 F0D1     		bne	.L6
 247:Generated_Source\PSoC5/cyfitter_cfg.c **** 	CY_SET_XTND_REG8((void CYFAR *)(CYREG_CLKDIST_MSTR0), 0x07u);
 157              		.loc 1 247 0
 158 0076 544B     		ldr	r3, .L20+28
 159 0078 4FF48072 		mov	r2, #256
 160 007c 1A80     		strh	r2, [r3]	@ movhi
 248:Generated_Source\PSoC5/cyfitter_cfg.c **** 	CY_SET_XTND_REG8((void CYFAR *)(CYREG_CLKDIST_BCFG0), 0x00u);
 161              		.loc 1 248 0
 162 007e 0722     		movs	r2, #7
 163 0080 1A70     		strb	r2, [r3]
 249:Generated_Source\PSoC5/cyfitter_cfg.c **** 	CY_SET_XTND_REG8((void CYFAR *)(CYREG_CLKDIST_BCFG2), 0x48u);
 164              		.loc 1 249 0
 165 0082 524A     		ldr	r2, .L20+32
 166 0084 0024     		movs	r4, #0
 167              	.LVL8:
 250:Generated_Source\PSoC5/cyfitter_cfg.c **** 	CY_SET_XTND_REG8((void CYFAR *)(CYREG_CLKDIST_MSTR0), 0x00u);
 168              		.loc 1 250 0
 169 0086 4821     		movs	r1, #72
 249:Generated_Source\PSoC5/cyfitter_cfg.c **** 	CY_SET_XTND_REG8((void CYFAR *)(CYREG_CLKDIST_BCFG2), 0x48u);
 170              		.loc 1 249 0
 171 0088 1470     		strb	r4, [r2]
 250:Generated_Source\PSoC5/cyfitter_cfg.c **** 	CY_SET_XTND_REG8((void CYFAR *)(CYREG_CLKDIST_MSTR0), 0x00u);
 172              		.loc 1 250 0
 173 008a 9170     		strb	r1, [r2, #2]
ARM GAS  C:\Users\chemi\AppData\Local\Temp\ccEevlXJ.s 			page 11


 255:Generated_Source\PSoC5/cyfitter_cfg.c **** 
 174              		.loc 1 255 0
 175 008c 0222     		movs	r2, #2
 251:Generated_Source\PSoC5/cyfitter_cfg.c **** 
 176              		.loc 1 251 0
 177 008e 1C70     		strb	r4, [r3]
 254:Generated_Source\PSoC5/cyfitter_cfg.c **** 	CY_SET_XTND_REG8((void CYFAR *)(CYREG_CLKDIST_LD), 0x02u);
 178              		.loc 1 254 0
 179 0090 5C71     		strb	r4, [r3, #5]
 255:Generated_Source\PSoC5/cyfitter_cfg.c **** 
 180              		.loc 1 255 0
 181 0092 03F8032C 		strb	r2, [r3, #-3]
 257:Generated_Source\PSoC5/cyfitter_cfg.c **** }
 182              		.loc 1 257 0
 183 0096 4E4A     		ldr	r2, .L20+36
 184              	.LBE45:
 185              	.LBE44:
 186              	.LBB48:
 187              	.LBB49:
 366:Generated_Source\PSoC5/cyfitter_cfg.c **** 	/* Setup clocks based on selections from Clock DWR */
 367:Generated_Source\PSoC5/cyfitter_cfg.c **** 	ClockSetup();
 368:Generated_Source\PSoC5/cyfitter_cfg.c **** 	/* Set Flash Cycles based on newly configured 64.00MHz Bus Clock. */
 369:Generated_Source\PSoC5/cyfitter_cfg.c **** 	CY_SET_XTND_REG8((void CYFAR *)(CYREG_CACHE_CC_CTL), (((CYDEV_INSTRUCT_CACHE_ENABLED) != 0) ? 0x01
 370:Generated_Source\PSoC5/cyfitter_cfg.c **** 	/* Enable/Disable Debug functionality based on settings from System DWR */
 371:Generated_Source\PSoC5/cyfitter_cfg.c **** 	CY_SET_XTND_REG8((void CYFAR *)CYREG_MLOGIC_DEBUG, (CY_GET_XTND_REG8((void CYFAR *)CYREG_MLOGIC_DE
 372:Generated_Source\PSoC5/cyfitter_cfg.c **** 
 373:Generated_Source\PSoC5/cyfitter_cfg.c **** 	{
 374:Generated_Source\PSoC5/cyfitter_cfg.c **** 		static const uint32 CYCODE cy_cfg_addr_table[] = {
 375:Generated_Source\PSoC5/cyfitter_cfg.c **** 			0x40004501u, /* Base address: 0x40004500 Count: 1 */
 376:Generated_Source\PSoC5/cyfitter_cfg.c **** 			0x40005204u, /* Base address: 0x40005200 Count: 4 */
 377:Generated_Source\PSoC5/cyfitter_cfg.c **** 			0x40006402u, /* Base address: 0x40006400 Count: 2 */
 378:Generated_Source\PSoC5/cyfitter_cfg.c **** 			0x40006502u, /* Base address: 0x40006500 Count: 2 */
 379:Generated_Source\PSoC5/cyfitter_cfg.c **** 			0x40010302u, /* Base address: 0x40010300 Count: 2 */
 380:Generated_Source\PSoC5/cyfitter_cfg.c **** 			0x40010701u, /* Base address: 0x40010700 Count: 1 */
 381:Generated_Source\PSoC5/cyfitter_cfg.c **** 			0x4001086Au, /* Base address: 0x40010800 Count: 106 */
 382:Generated_Source\PSoC5/cyfitter_cfg.c **** 			0x4001093Au, /* Base address: 0x40010900 Count: 58 */
 383:Generated_Source\PSoC5/cyfitter_cfg.c **** 			0x40010B04u, /* Base address: 0x40010B00 Count: 4 */
 384:Generated_Source\PSoC5/cyfitter_cfg.c **** 			0x40010D02u, /* Base address: 0x40010D00 Count: 2 */
 385:Generated_Source\PSoC5/cyfitter_cfg.c **** 			0x40011504u, /* Base address: 0x40011500 Count: 4 */
 386:Generated_Source\PSoC5/cyfitter_cfg.c **** 			0x40011701u, /* Base address: 0x40011700 Count: 1 */
 387:Generated_Source\PSoC5/cyfitter_cfg.c **** 			0x40011821u, /* Base address: 0x40011800 Count: 33 */
 388:Generated_Source\PSoC5/cyfitter_cfg.c **** 			0x4001194Bu, /* Base address: 0x40011900 Count: 75 */
 389:Generated_Source\PSoC5/cyfitter_cfg.c **** 			0x40011A5Du, /* Base address: 0x40011A00 Count: 93 */
 390:Generated_Source\PSoC5/cyfitter_cfg.c **** 			0x40011B52u, /* Base address: 0x40011B00 Count: 82 */
 391:Generated_Source\PSoC5/cyfitter_cfg.c **** 			0x40014006u, /* Base address: 0x40014000 Count: 6 */
 392:Generated_Source\PSoC5/cyfitter_cfg.c **** 			0x40014107u, /* Base address: 0x40014100 Count: 7 */
 393:Generated_Source\PSoC5/cyfitter_cfg.c **** 			0x40014202u, /* Base address: 0x40014200 Count: 2 */
 394:Generated_Source\PSoC5/cyfitter_cfg.c **** 			0x40014304u, /* Base address: 0x40014300 Count: 4 */
 395:Generated_Source\PSoC5/cyfitter_cfg.c **** 			0x40014508u, /* Base address: 0x40014500 Count: 8 */
 396:Generated_Source\PSoC5/cyfitter_cfg.c **** 			0x4001460Au, /* Base address: 0x40014600 Count: 10 */
 397:Generated_Source\PSoC5/cyfitter_cfg.c **** 			0x40014709u, /* Base address: 0x40014700 Count: 9 */
 398:Generated_Source\PSoC5/cyfitter_cfg.c **** 			0x40014807u, /* Base address: 0x40014800 Count: 7 */
 399:Generated_Source\PSoC5/cyfitter_cfg.c **** 			0x4001490Cu, /* Base address: 0x40014900 Count: 12 */
 400:Generated_Source\PSoC5/cyfitter_cfg.c **** 			0x40014C01u, /* Base address: 0x40014C00 Count: 1 */
 401:Generated_Source\PSoC5/cyfitter_cfg.c **** 			0x40015008u, /* Base address: 0x40015000 Count: 8 */
 402:Generated_Source\PSoC5/cyfitter_cfg.c **** 			0x40015102u, /* Base address: 0x40015100 Count: 2 */
 403:Generated_Source\PSoC5/cyfitter_cfg.c **** 		};
ARM GAS  C:\Users\chemi\AppData\Local\Temp\ccEevlXJ.s 			page 12


 404:Generated_Source\PSoC5/cyfitter_cfg.c **** 
 405:Generated_Source\PSoC5/cyfitter_cfg.c **** 		static const cy_cfg_addrvalue_t CYCODE cy_cfg_data_table[] = {
 406:Generated_Source\PSoC5/cyfitter_cfg.c **** 			{0x7Eu, 0x02u},
 407:Generated_Source\PSoC5/cyfitter_cfg.c **** 			{0x10u, 0x19u},
 408:Generated_Source\PSoC5/cyfitter_cfg.c **** 			{0x11u, 0x13u},
 409:Generated_Source\PSoC5/cyfitter_cfg.c **** 			{0x19u, 0x01u},
 410:Generated_Source\PSoC5/cyfitter_cfg.c **** 			{0x7Cu, 0x40u},
 411:Generated_Source\PSoC5/cyfitter_cfg.c **** 			{0x88u, 0x0Du},
 412:Generated_Source\PSoC5/cyfitter_cfg.c **** 			{0x89u, 0x0Fu},
 413:Generated_Source\PSoC5/cyfitter_cfg.c **** 			{0x88u, 0x72u},
 414:Generated_Source\PSoC5/cyfitter_cfg.c **** 			{0x8Bu, 0x38u},
 415:Generated_Source\PSoC5/cyfitter_cfg.c **** 			{0xE2u, 0x08u},
 416:Generated_Source\PSoC5/cyfitter_cfg.c **** 			{0xE6u, 0x02u},
 417:Generated_Source\PSoC5/cyfitter_cfg.c **** 			{0xE6u, 0x02u},
 418:Generated_Source\PSoC5/cyfitter_cfg.c **** 			{0x03u, 0x07u},
 419:Generated_Source\PSoC5/cyfitter_cfg.c **** 			{0x06u, 0x04u},
 420:Generated_Source\PSoC5/cyfitter_cfg.c **** 			{0x0Du, 0x04u},
 421:Generated_Source\PSoC5/cyfitter_cfg.c **** 			{0x0Fu, 0x08u},
 422:Generated_Source\PSoC5/cyfitter_cfg.c **** 			{0x11u, 0x03u},
 423:Generated_Source\PSoC5/cyfitter_cfg.c **** 			{0x16u, 0x04u},
 424:Generated_Source\PSoC5/cyfitter_cfg.c **** 			{0x17u, 0x0Cu},
 425:Generated_Source\PSoC5/cyfitter_cfg.c **** 			{0x1Au, 0x03u},
 426:Generated_Source\PSoC5/cyfitter_cfg.c **** 			{0x1Cu, 0x01u},
 427:Generated_Source\PSoC5/cyfitter_cfg.c **** 			{0x21u, 0x22u},
 428:Generated_Source\PSoC5/cyfitter_cfg.c **** 			{0x23u, 0x11u},
 429:Generated_Source\PSoC5/cyfitter_cfg.c **** 			{0x2Cu, 0x08u},
 430:Generated_Source\PSoC5/cyfitter_cfg.c **** 			{0x2Du, 0x11u},
 431:Generated_Source\PSoC5/cyfitter_cfg.c **** 			{0x2Fu, 0x22u},
 432:Generated_Source\PSoC5/cyfitter_cfg.c **** 			{0x30u, 0x01u},
 433:Generated_Source\PSoC5/cyfitter_cfg.c **** 			{0x31u, 0x30u},
 434:Generated_Source\PSoC5/cyfitter_cfg.c **** 			{0x32u, 0x04u},
 435:Generated_Source\PSoC5/cyfitter_cfg.c **** 			{0x33u, 0x07u},
 436:Generated_Source\PSoC5/cyfitter_cfg.c **** 			{0x34u, 0x08u},
 437:Generated_Source\PSoC5/cyfitter_cfg.c **** 			{0x35u, 0x08u},
 438:Generated_Source\PSoC5/cyfitter_cfg.c **** 			{0x36u, 0x02u},
 439:Generated_Source\PSoC5/cyfitter_cfg.c **** 			{0x37u, 0x08u},
 440:Generated_Source\PSoC5/cyfitter_cfg.c **** 			{0x3Eu, 0x14u},
 441:Generated_Source\PSoC5/cyfitter_cfg.c **** 			{0x3Fu, 0x10u},
 442:Generated_Source\PSoC5/cyfitter_cfg.c **** 			{0x40u, 0x60u},
 443:Generated_Source\PSoC5/cyfitter_cfg.c **** 			{0x41u, 0x05u},
 444:Generated_Source\PSoC5/cyfitter_cfg.c **** 			{0x45u, 0xD0u},
 445:Generated_Source\PSoC5/cyfitter_cfg.c **** 			{0x46u, 0x02u},
 446:Generated_Source\PSoC5/cyfitter_cfg.c **** 			{0x48u, 0x07u},
 447:Generated_Source\PSoC5/cyfitter_cfg.c **** 			{0x49u, 0xFFu},
 448:Generated_Source\PSoC5/cyfitter_cfg.c **** 			{0x4Au, 0xFFu},
 449:Generated_Source\PSoC5/cyfitter_cfg.c **** 			{0x4Bu, 0xFFu},
 450:Generated_Source\PSoC5/cyfitter_cfg.c **** 			{0x4Du, 0xA0u},
 451:Generated_Source\PSoC5/cyfitter_cfg.c **** 			{0x4Fu, 0x04u},
 452:Generated_Source\PSoC5/cyfitter_cfg.c **** 			{0x50u, 0x18u},
 453:Generated_Source\PSoC5/cyfitter_cfg.c **** 			{0x52u, 0x80u},
 454:Generated_Source\PSoC5/cyfitter_cfg.c **** 			{0x54u, 0x05u},
 455:Generated_Source\PSoC5/cyfitter_cfg.c **** 			{0x58u, 0x04u},
 456:Generated_Source\PSoC5/cyfitter_cfg.c **** 			{0x59u, 0x04u},
 457:Generated_Source\PSoC5/cyfitter_cfg.c **** 			{0x5Au, 0x04u},
 458:Generated_Source\PSoC5/cyfitter_cfg.c **** 			{0x5Bu, 0x04u},
 459:Generated_Source\PSoC5/cyfitter_cfg.c **** 			{0x5Cu, 0x99u},
 460:Generated_Source\PSoC5/cyfitter_cfg.c **** 			{0x5Du, 0x99u},
ARM GAS  C:\Users\chemi\AppData\Local\Temp\ccEevlXJ.s 			page 13


 461:Generated_Source\PSoC5/cyfitter_cfg.c **** 			{0x5Fu, 0x01u},
 462:Generated_Source\PSoC5/cyfitter_cfg.c **** 			{0x60u, 0x40u},
 463:Generated_Source\PSoC5/cyfitter_cfg.c **** 			{0x62u, 0xC0u},
 464:Generated_Source\PSoC5/cyfitter_cfg.c **** 			{0x64u, 0x40u},
 465:Generated_Source\PSoC5/cyfitter_cfg.c **** 			{0x65u, 0x40u},
 466:Generated_Source\PSoC5/cyfitter_cfg.c **** 			{0x66u, 0xC0u},
 467:Generated_Source\PSoC5/cyfitter_cfg.c **** 			{0x68u, 0xC0u},
 468:Generated_Source\PSoC5/cyfitter_cfg.c **** 			{0x6Au, 0xC0u},
 469:Generated_Source\PSoC5/cyfitter_cfg.c **** 			{0x6Cu, 0xC0u},
 470:Generated_Source\PSoC5/cyfitter_cfg.c **** 			{0x6Eu, 0xC0u},
 471:Generated_Source\PSoC5/cyfitter_cfg.c **** 			{0x80u, 0x50u},
 472:Generated_Source\PSoC5/cyfitter_cfg.c **** 			{0x81u, 0x11u},
 473:Generated_Source\PSoC5/cyfitter_cfg.c **** 			{0x83u, 0x0Au},
 474:Generated_Source\PSoC5/cyfitter_cfg.c **** 			{0x88u, 0x03u},
 475:Generated_Source\PSoC5/cyfitter_cfg.c **** 			{0x8Au, 0x0Cu},
 476:Generated_Source\PSoC5/cyfitter_cfg.c **** 			{0x8Cu, 0x50u},
 477:Generated_Source\PSoC5/cyfitter_cfg.c **** 			{0x8Eu, 0xA0u},
 478:Generated_Source\PSoC5/cyfitter_cfg.c **** 			{0x8Fu, 0x09u},
 479:Generated_Source\PSoC5/cyfitter_cfg.c **** 			{0x90u, 0x60u},
 480:Generated_Source\PSoC5/cyfitter_cfg.c **** 			{0x92u, 0x90u},
 481:Generated_Source\PSoC5/cyfitter_cfg.c **** 			{0xA0u, 0x04u},
 482:Generated_Source\PSoC5/cyfitter_cfg.c **** 			{0xA1u, 0x09u},
 483:Generated_Source\PSoC5/cyfitter_cfg.c **** 			{0xA2u, 0x01u},
 484:Generated_Source\PSoC5/cyfitter_cfg.c **** 			{0xA3u, 0x16u},
 485:Generated_Source\PSoC5/cyfitter_cfg.c **** 			{0xA4u, 0x05u},
 486:Generated_Source\PSoC5/cyfitter_cfg.c **** 			{0xA6u, 0x0Au},
 487:Generated_Source\PSoC5/cyfitter_cfg.c **** 			{0xACu, 0x08u},
 488:Generated_Source\PSoC5/cyfitter_cfg.c **** 			{0xAEu, 0x02u},
 489:Generated_Source\PSoC5/cyfitter_cfg.c **** 			{0xB0u, 0x30u},
 490:Generated_Source\PSoC5/cyfitter_cfg.c **** 			{0xB1u, 0x04u},
 491:Generated_Source\PSoC5/cyfitter_cfg.c **** 			{0xB2u, 0x0Fu},
 492:Generated_Source\PSoC5/cyfitter_cfg.c **** 			{0xB3u, 0x03u},
 493:Generated_Source\PSoC5/cyfitter_cfg.c **** 			{0xB4u, 0xC0u},
 494:Generated_Source\PSoC5/cyfitter_cfg.c **** 			{0xB5u, 0x18u},
 495:Generated_Source\PSoC5/cyfitter_cfg.c **** 			{0xB8u, 0x22u},
 496:Generated_Source\PSoC5/cyfitter_cfg.c **** 			{0xB9u, 0x28u},
 497:Generated_Source\PSoC5/cyfitter_cfg.c **** 			{0xBBu, 0x02u},
 498:Generated_Source\PSoC5/cyfitter_cfg.c **** 			{0xBEu, 0x11u},
 499:Generated_Source\PSoC5/cyfitter_cfg.c **** 			{0xBFu, 0x14u},
 500:Generated_Source\PSoC5/cyfitter_cfg.c **** 			{0xC0u, 0x42u},
 501:Generated_Source\PSoC5/cyfitter_cfg.c **** 			{0xC1u, 0x03u},
 502:Generated_Source\PSoC5/cyfitter_cfg.c **** 			{0xC5u, 0xE0u},
 503:Generated_Source\PSoC5/cyfitter_cfg.c **** 			{0xC6u, 0xCEu},
 504:Generated_Source\PSoC5/cyfitter_cfg.c **** 			{0xC7u, 0x0Bu},
 505:Generated_Source\PSoC5/cyfitter_cfg.c **** 			{0xC8u, 0x1Eu},
 506:Generated_Source\PSoC5/cyfitter_cfg.c **** 			{0xC9u, 0xFFu},
 507:Generated_Source\PSoC5/cyfitter_cfg.c **** 			{0xCAu, 0xFFu},
 508:Generated_Source\PSoC5/cyfitter_cfg.c **** 			{0xCBu, 0xFFu},
 509:Generated_Source\PSoC5/cyfitter_cfg.c **** 			{0xCEu, 0xF0u},
 510:Generated_Source\PSoC5/cyfitter_cfg.c **** 			{0xCFu, 0x44u},
 511:Generated_Source\PSoC5/cyfitter_cfg.c **** 			{0xD0u, 0x0Cu},
 512:Generated_Source\PSoC5/cyfitter_cfg.c **** 			{0xD4u, 0x01u},
 513:Generated_Source\PSoC5/cyfitter_cfg.c **** 			{0xD6u, 0x04u},
 514:Generated_Source\PSoC5/cyfitter_cfg.c **** 			{0xD8u, 0x04u},
 515:Generated_Source\PSoC5/cyfitter_cfg.c **** 			{0xD9u, 0x04u},
 516:Generated_Source\PSoC5/cyfitter_cfg.c **** 			{0xDAu, 0x04u},
 517:Generated_Source\PSoC5/cyfitter_cfg.c **** 			{0xDBu, 0x04u},
ARM GAS  C:\Users\chemi\AppData\Local\Temp\ccEevlXJ.s 			page 14


 518:Generated_Source\PSoC5/cyfitter_cfg.c **** 			{0xDCu, 0x21u},
 519:Generated_Source\PSoC5/cyfitter_cfg.c **** 			{0xDDu, 0x11u},
 520:Generated_Source\PSoC5/cyfitter_cfg.c **** 			{0xDFu, 0x01u},
 521:Generated_Source\PSoC5/cyfitter_cfg.c **** 			{0xE6u, 0xC0u},
 522:Generated_Source\PSoC5/cyfitter_cfg.c **** 			{0xEAu, 0x40u},
 523:Generated_Source\PSoC5/cyfitter_cfg.c **** 			{0xEBu, 0x02u},
 524:Generated_Source\PSoC5/cyfitter_cfg.c **** 			{0x01u, 0x42u},
 525:Generated_Source\PSoC5/cyfitter_cfg.c **** 			{0x03u, 0x08u},
 526:Generated_Source\PSoC5/cyfitter_cfg.c **** 			{0x04u, 0x20u},
 527:Generated_Source\PSoC5/cyfitter_cfg.c **** 			{0x05u, 0x24u},
 528:Generated_Source\PSoC5/cyfitter_cfg.c **** 			{0x09u, 0x02u},
 529:Generated_Source\PSoC5/cyfitter_cfg.c **** 			{0x0Eu, 0x02u},
 530:Generated_Source\PSoC5/cyfitter_cfg.c **** 			{0x0Fu, 0x28u},
 531:Generated_Source\PSoC5/cyfitter_cfg.c **** 			{0x10u, 0x21u},
 532:Generated_Source\PSoC5/cyfitter_cfg.c **** 			{0x11u, 0x01u},
 533:Generated_Source\PSoC5/cyfitter_cfg.c **** 			{0x15u, 0x80u},
 534:Generated_Source\PSoC5/cyfitter_cfg.c **** 			{0x19u, 0x08u},
 535:Generated_Source\PSoC5/cyfitter_cfg.c **** 			{0x1Bu, 0x21u},
 536:Generated_Source\PSoC5/cyfitter_cfg.c **** 			{0x1Eu, 0x46u},
 537:Generated_Source\PSoC5/cyfitter_cfg.c **** 			{0x1Fu, 0x04u},
 538:Generated_Source\PSoC5/cyfitter_cfg.c **** 			{0x21u, 0x03u},
 539:Generated_Source\PSoC5/cyfitter_cfg.c **** 			{0x22u, 0x10u},
 540:Generated_Source\PSoC5/cyfitter_cfg.c **** 			{0x23u, 0x20u},
 541:Generated_Source\PSoC5/cyfitter_cfg.c **** 			{0x25u, 0x40u},
 542:Generated_Source\PSoC5/cyfitter_cfg.c **** 			{0x26u, 0x0Au},
 543:Generated_Source\PSoC5/cyfitter_cfg.c **** 			{0x27u, 0x08u},
 544:Generated_Source\PSoC5/cyfitter_cfg.c **** 			{0x29u, 0x02u},
 545:Generated_Source\PSoC5/cyfitter_cfg.c **** 			{0x2Cu, 0x01u},
 546:Generated_Source\PSoC5/cyfitter_cfg.c **** 			{0x2Du, 0x01u},
 547:Generated_Source\PSoC5/cyfitter_cfg.c **** 			{0x36u, 0x0Au},
 548:Generated_Source\PSoC5/cyfitter_cfg.c **** 			{0x39u, 0x42u},
 549:Generated_Source\PSoC5/cyfitter_cfg.c **** 			{0x3Cu, 0x02u},
 550:Generated_Source\PSoC5/cyfitter_cfg.c **** 			{0x3Fu, 0x80u},
 551:Generated_Source\PSoC5/cyfitter_cfg.c **** 			{0x40u, 0x44u},
 552:Generated_Source\PSoC5/cyfitter_cfg.c **** 			{0x41u, 0x08u},
 553:Generated_Source\PSoC5/cyfitter_cfg.c **** 			{0x49u, 0x01u},
 554:Generated_Source\PSoC5/cyfitter_cfg.c **** 			{0x4Eu, 0x08u},
 555:Generated_Source\PSoC5/cyfitter_cfg.c **** 			{0x4Fu, 0x89u},
 556:Generated_Source\PSoC5/cyfitter_cfg.c **** 			{0x50u, 0x18u},
 557:Generated_Source\PSoC5/cyfitter_cfg.c **** 			{0x51u, 0x40u},
 558:Generated_Source\PSoC5/cyfitter_cfg.c **** 			{0x57u, 0x40u},
 559:Generated_Source\PSoC5/cyfitter_cfg.c **** 			{0x58u, 0x80u},
 560:Generated_Source\PSoC5/cyfitter_cfg.c **** 			{0x59u, 0x21u},
 561:Generated_Source\PSoC5/cyfitter_cfg.c **** 			{0x5Au, 0x04u},
 562:Generated_Source\PSoC5/cyfitter_cfg.c **** 			{0x5Eu, 0x40u},
 563:Generated_Source\PSoC5/cyfitter_cfg.c **** 			{0x5Fu, 0x09u},
 564:Generated_Source\PSoC5/cyfitter_cfg.c **** 			{0x63u, 0x40u},
 565:Generated_Source\PSoC5/cyfitter_cfg.c **** 			{0x69u, 0x40u},
 566:Generated_Source\PSoC5/cyfitter_cfg.c **** 			{0x74u, 0x01u},
 567:Generated_Source\PSoC5/cyfitter_cfg.c **** 			{0x87u, 0x40u},
 568:Generated_Source\PSoC5/cyfitter_cfg.c **** 			{0x88u, 0x84u},
 569:Generated_Source\PSoC5/cyfitter_cfg.c **** 			{0x8Fu, 0x20u},
 570:Generated_Source\PSoC5/cyfitter_cfg.c **** 			{0x96u, 0x20u},
 571:Generated_Source\PSoC5/cyfitter_cfg.c **** 			{0xA7u, 0x21u},
 572:Generated_Source\PSoC5/cyfitter_cfg.c **** 			{0xC0u, 0x2Bu},
 573:Generated_Source\PSoC5/cyfitter_cfg.c **** 			{0xC2u, 0xE8u},
 574:Generated_Source\PSoC5/cyfitter_cfg.c **** 			{0xC4u, 0x8Du},
ARM GAS  C:\Users\chemi\AppData\Local\Temp\ccEevlXJ.s 			page 15


 575:Generated_Source\PSoC5/cyfitter_cfg.c **** 			{0xCAu, 0x91u},
 576:Generated_Source\PSoC5/cyfitter_cfg.c **** 			{0xCCu, 0xC0u},
 577:Generated_Source\PSoC5/cyfitter_cfg.c **** 			{0xCEu, 0x99u},
 578:Generated_Source\PSoC5/cyfitter_cfg.c **** 			{0xD0u, 0x07u},
 579:Generated_Source\PSoC5/cyfitter_cfg.c **** 			{0xD2u, 0x30u},
 580:Generated_Source\PSoC5/cyfitter_cfg.c **** 			{0xD6u, 0xDFu},
 581:Generated_Source\PSoC5/cyfitter_cfg.c **** 			{0xD8u, 0x01u},
 582:Generated_Source\PSoC5/cyfitter_cfg.c **** 			{0x82u, 0x10u},
 583:Generated_Source\PSoC5/cyfitter_cfg.c **** 			{0x8Bu, 0x01u},
 584:Generated_Source\PSoC5/cyfitter_cfg.c **** 			{0x8Fu, 0x20u},
 585:Generated_Source\PSoC5/cyfitter_cfg.c **** 			{0xE4u, 0x04u},
 586:Generated_Source\PSoC5/cyfitter_cfg.c **** 			{0xE2u, 0x08u},
 587:Generated_Source\PSoC5/cyfitter_cfg.c **** 			{0xE6u, 0x02u},
 588:Generated_Source\PSoC5/cyfitter_cfg.c **** 			{0xE0u, 0x20u},
 589:Generated_Source\PSoC5/cyfitter_cfg.c **** 			{0xE6u, 0x0Cu},
 590:Generated_Source\PSoC5/cyfitter_cfg.c **** 			{0xE8u, 0x20u},
 591:Generated_Source\PSoC5/cyfitter_cfg.c **** 			{0xECu, 0x08u},
 592:Generated_Source\PSoC5/cyfitter_cfg.c **** 			{0xEAu, 0x02u},
 593:Generated_Source\PSoC5/cyfitter_cfg.c **** 			{0x83u, 0x08u},
 594:Generated_Source\PSoC5/cyfitter_cfg.c **** 			{0x84u, 0x10u},
 595:Generated_Source\PSoC5/cyfitter_cfg.c **** 			{0x87u, 0x35u},
 596:Generated_Source\PSoC5/cyfitter_cfg.c **** 			{0x89u, 0x03u},
 597:Generated_Source\PSoC5/cyfitter_cfg.c **** 			{0x8Au, 0x03u},
 598:Generated_Source\PSoC5/cyfitter_cfg.c **** 			{0x8Bu, 0x14u},
 599:Generated_Source\PSoC5/cyfitter_cfg.c **** 			{0x8Cu, 0x10u},
 600:Generated_Source\PSoC5/cyfitter_cfg.c **** 			{0x8Du, 0x73u},
 601:Generated_Source\PSoC5/cyfitter_cfg.c **** 			{0x8Eu, 0x0Cu},
 602:Generated_Source\PSoC5/cyfitter_cfg.c **** 			{0x8Fu, 0x0Cu},
 603:Generated_Source\PSoC5/cyfitter_cfg.c **** 			{0x94u, 0x0Cu},
 604:Generated_Source\PSoC5/cyfitter_cfg.c **** 			{0x95u, 0x73u},
 605:Generated_Source\PSoC5/cyfitter_cfg.c **** 			{0x96u, 0x11u},
 606:Generated_Source\PSoC5/cyfitter_cfg.c **** 			{0x97u, 0x04u},
 607:Generated_Source\PSoC5/cyfitter_cfg.c **** 			{0x99u, 0x4Au},
 608:Generated_Source\PSoC5/cyfitter_cfg.c **** 			{0x9Bu, 0x14u},
 609:Generated_Source\PSoC5/cyfitter_cfg.c **** 			{0xA4u, 0x1Cu},
 610:Generated_Source\PSoC5/cyfitter_cfg.c **** 			{0xA6u, 0x02u},
 611:Generated_Source\PSoC5/cyfitter_cfg.c **** 			{0xA8u, 0x14u},
 612:Generated_Source\PSoC5/cyfitter_cfg.c **** 			{0xACu, 0x09u},
 613:Generated_Source\PSoC5/cyfitter_cfg.c **** 			{0xAEu, 0x10u},
 614:Generated_Source\PSoC5/cyfitter_cfg.c **** 			{0xB1u, 0x0Fu},
 615:Generated_Source\PSoC5/cyfitter_cfg.c **** 			{0xB2u, 0x1Fu},
 616:Generated_Source\PSoC5/cyfitter_cfg.c **** 			{0xB3u, 0x60u},
 617:Generated_Source\PSoC5/cyfitter_cfg.c **** 			{0xB5u, 0x10u},
 618:Generated_Source\PSoC5/cyfitter_cfg.c **** 			{0xB9u, 0x08u},
 619:Generated_Source\PSoC5/cyfitter_cfg.c **** 			{0xBBu, 0x02u},
 620:Generated_Source\PSoC5/cyfitter_cfg.c **** 			{0xBFu, 0x14u},
 621:Generated_Source\PSoC5/cyfitter_cfg.c **** 			{0xD8u, 0x04u},
 622:Generated_Source\PSoC5/cyfitter_cfg.c **** 			{0xD9u, 0x04u},
 623:Generated_Source\PSoC5/cyfitter_cfg.c **** 			{0xDBu, 0x04u},
 624:Generated_Source\PSoC5/cyfitter_cfg.c **** 			{0xDCu, 0x11u},
 625:Generated_Source\PSoC5/cyfitter_cfg.c **** 			{0xDFu, 0x01u},
 626:Generated_Source\PSoC5/cyfitter_cfg.c **** 			{0x00u, 0x50u},
 627:Generated_Source\PSoC5/cyfitter_cfg.c **** 			{0x02u, 0x10u},
 628:Generated_Source\PSoC5/cyfitter_cfg.c **** 			{0x06u, 0x80u},
 629:Generated_Source\PSoC5/cyfitter_cfg.c **** 			{0x07u, 0x28u},
 630:Generated_Source\PSoC5/cyfitter_cfg.c **** 			{0x09u, 0x08u},
 631:Generated_Source\PSoC5/cyfitter_cfg.c **** 			{0x0Eu, 0x8Au},
ARM GAS  C:\Users\chemi\AppData\Local\Temp\ccEevlXJ.s 			page 16


 632:Generated_Source\PSoC5/cyfitter_cfg.c **** 			{0x0Fu, 0x10u},
 633:Generated_Source\PSoC5/cyfitter_cfg.c **** 			{0x10u, 0x18u},
 634:Generated_Source\PSoC5/cyfitter_cfg.c **** 			{0x12u, 0x01u},
 635:Generated_Source\PSoC5/cyfitter_cfg.c **** 			{0x14u, 0x40u},
 636:Generated_Source\PSoC5/cyfitter_cfg.c **** 			{0x16u, 0x0Au},
 637:Generated_Source\PSoC5/cyfitter_cfg.c **** 			{0x18u, 0x10u},
 638:Generated_Source\PSoC5/cyfitter_cfg.c **** 			{0x1Du, 0x16u},
 639:Generated_Source\PSoC5/cyfitter_cfg.c **** 			{0x1Eu, 0x80u},
 640:Generated_Source\PSoC5/cyfitter_cfg.c **** 			{0x20u, 0x48u},
 641:Generated_Source\PSoC5/cyfitter_cfg.c **** 			{0x22u, 0x08u},
 642:Generated_Source\PSoC5/cyfitter_cfg.c **** 			{0x23u, 0x40u},
 643:Generated_Source\PSoC5/cyfitter_cfg.c **** 			{0x26u, 0x10u},
 644:Generated_Source\PSoC5/cyfitter_cfg.c **** 			{0x27u, 0x92u},
 645:Generated_Source\PSoC5/cyfitter_cfg.c **** 			{0x2Cu, 0x40u},
 646:Generated_Source\PSoC5/cyfitter_cfg.c **** 			{0x2Eu, 0x80u},
 647:Generated_Source\PSoC5/cyfitter_cfg.c **** 			{0x2Fu, 0x6Au},
 648:Generated_Source\PSoC5/cyfitter_cfg.c **** 			{0x30u, 0x10u},
 649:Generated_Source\PSoC5/cyfitter_cfg.c **** 			{0x31u, 0x08u},
 650:Generated_Source\PSoC5/cyfitter_cfg.c **** 			{0x32u, 0x10u},
 651:Generated_Source\PSoC5/cyfitter_cfg.c **** 			{0x34u, 0x01u},
 652:Generated_Source\PSoC5/cyfitter_cfg.c **** 			{0x36u, 0x24u},
 653:Generated_Source\PSoC5/cyfitter_cfg.c **** 			{0x37u, 0x82u},
 654:Generated_Source\PSoC5/cyfitter_cfg.c **** 			{0x38u, 0x6Cu},
 655:Generated_Source\PSoC5/cyfitter_cfg.c **** 			{0x39u, 0x02u},
 656:Generated_Source\PSoC5/cyfitter_cfg.c **** 			{0x3Au, 0x01u},
 657:Generated_Source\PSoC5/cyfitter_cfg.c **** 			{0x3Cu, 0x20u},
 658:Generated_Source\PSoC5/cyfitter_cfg.c **** 			{0x3Du, 0x09u},
 659:Generated_Source\PSoC5/cyfitter_cfg.c **** 			{0x3Eu, 0x20u},
 660:Generated_Source\PSoC5/cyfitter_cfg.c **** 			{0x3Fu, 0x12u},
 661:Generated_Source\PSoC5/cyfitter_cfg.c **** 			{0x45u, 0x02u},
 662:Generated_Source\PSoC5/cyfitter_cfg.c **** 			{0x46u, 0x20u},
 663:Generated_Source\PSoC5/cyfitter_cfg.c **** 			{0x47u, 0x10u},
 664:Generated_Source\PSoC5/cyfitter_cfg.c **** 			{0x4Eu, 0x06u},
 665:Generated_Source\PSoC5/cyfitter_cfg.c **** 			{0x56u, 0x08u},
 666:Generated_Source\PSoC5/cyfitter_cfg.c **** 			{0x57u, 0x10u},
 667:Generated_Source\PSoC5/cyfitter_cfg.c **** 			{0x58u, 0x80u},
 668:Generated_Source\PSoC5/cyfitter_cfg.c **** 			{0x5Eu, 0x20u},
 669:Generated_Source\PSoC5/cyfitter_cfg.c **** 			{0x6Eu, 0x14u},
 670:Generated_Source\PSoC5/cyfitter_cfg.c **** 			{0x6Fu, 0x01u},
 671:Generated_Source\PSoC5/cyfitter_cfg.c **** 			{0x76u, 0x02u},
 672:Generated_Source\PSoC5/cyfitter_cfg.c **** 			{0x77u, 0x28u},
 673:Generated_Source\PSoC5/cyfitter_cfg.c **** 			{0x7Du, 0x80u},
 674:Generated_Source\PSoC5/cyfitter_cfg.c **** 			{0x88u, 0x40u},
 675:Generated_Source\PSoC5/cyfitter_cfg.c **** 			{0x8Au, 0x04u},
 676:Generated_Source\PSoC5/cyfitter_cfg.c **** 			{0x8Du, 0x10u},
 677:Generated_Source\PSoC5/cyfitter_cfg.c **** 			{0x8Fu, 0x01u},
 678:Generated_Source\PSoC5/cyfitter_cfg.c **** 			{0x90u, 0x20u},
 679:Generated_Source\PSoC5/cyfitter_cfg.c **** 			{0x93u, 0x08u},
 680:Generated_Source\PSoC5/cyfitter_cfg.c **** 			{0x94u, 0x44u},
 681:Generated_Source\PSoC5/cyfitter_cfg.c **** 			{0x95u, 0x01u},
 682:Generated_Source\PSoC5/cyfitter_cfg.c **** 			{0x99u, 0x08u},
 683:Generated_Source\PSoC5/cyfitter_cfg.c **** 			{0x9Cu, 0x01u},
 684:Generated_Source\PSoC5/cyfitter_cfg.c **** 			{0x9Du, 0x06u},
 685:Generated_Source\PSoC5/cyfitter_cfg.c **** 			{0xA0u, 0x08u},
 686:Generated_Source\PSoC5/cyfitter_cfg.c **** 			{0xA1u, 0x40u},
 687:Generated_Source\PSoC5/cyfitter_cfg.c **** 			{0xA4u, 0x24u},
 688:Generated_Source\PSoC5/cyfitter_cfg.c **** 			{0xA5u, 0x08u},
ARM GAS  C:\Users\chemi\AppData\Local\Temp\ccEevlXJ.s 			page 17


 689:Generated_Source\PSoC5/cyfitter_cfg.c **** 			{0xA7u, 0x18u},
 690:Generated_Source\PSoC5/cyfitter_cfg.c **** 			{0xC0u, 0x77u},
 691:Generated_Source\PSoC5/cyfitter_cfg.c **** 			{0xC2u, 0xF4u},
 692:Generated_Source\PSoC5/cyfitter_cfg.c **** 			{0xC4u, 0xD7u},
 693:Generated_Source\PSoC5/cyfitter_cfg.c **** 			{0xCAu, 0xF0u},
 694:Generated_Source\PSoC5/cyfitter_cfg.c **** 			{0xCCu, 0xF6u},
 695:Generated_Source\PSoC5/cyfitter_cfg.c **** 			{0xCEu, 0xEFu},
 696:Generated_Source\PSoC5/cyfitter_cfg.c **** 			{0xD0u, 0xE0u},
 697:Generated_Source\PSoC5/cyfitter_cfg.c **** 			{0xD2u, 0x30u},
 698:Generated_Source\PSoC5/cyfitter_cfg.c **** 			{0xD6u, 0x28u},
 699:Generated_Source\PSoC5/cyfitter_cfg.c **** 			{0xDEu, 0x10u},
 700:Generated_Source\PSoC5/cyfitter_cfg.c **** 			{0xEAu, 0x02u},
 701:Generated_Source\PSoC5/cyfitter_cfg.c **** 			{0x03u, 0x1Cu},
 702:Generated_Source\PSoC5/cyfitter_cfg.c **** 			{0x05u, 0x40u},
 703:Generated_Source\PSoC5/cyfitter_cfg.c **** 			{0x07u, 0x03u},
 704:Generated_Source\PSoC5/cyfitter_cfg.c **** 			{0x08u, 0x15u},
 705:Generated_Source\PSoC5/cyfitter_cfg.c **** 			{0x0Au, 0x2Au},
 706:Generated_Source\PSoC5/cyfitter_cfg.c **** 			{0x0Bu, 0x08u},
 707:Generated_Source\PSoC5/cyfitter_cfg.c **** 			{0x0Du, 0x21u},
 708:Generated_Source\PSoC5/cyfitter_cfg.c **** 			{0x0Fu, 0x16u},
 709:Generated_Source\PSoC5/cyfitter_cfg.c **** 			{0x15u, 0x21u},
 710:Generated_Source\PSoC5/cyfitter_cfg.c **** 			{0x17u, 0x0Eu},
 711:Generated_Source\PSoC5/cyfitter_cfg.c **** 			{0x19u, 0x1Cu},
 712:Generated_Source\PSoC5/cyfitter_cfg.c **** 			{0x1Bu, 0x23u},
 713:Generated_Source\PSoC5/cyfitter_cfg.c **** 			{0x20u, 0x09u},
 714:Generated_Source\PSoC5/cyfitter_cfg.c **** 			{0x22u, 0x12u},
 715:Generated_Source\PSoC5/cyfitter_cfg.c **** 			{0x28u, 0x24u},
 716:Generated_Source\PSoC5/cyfitter_cfg.c **** 			{0x2Au, 0x12u},
 717:Generated_Source\PSoC5/cyfitter_cfg.c **** 			{0x2Cu, 0x07u},
 718:Generated_Source\PSoC5/cyfitter_cfg.c **** 			{0x2Eu, 0x38u},
 719:Generated_Source\PSoC5/cyfitter_cfg.c **** 			{0x31u, 0x60u},
 720:Generated_Source\PSoC5/cyfitter_cfg.c **** 			{0x33u, 0x1Au},
 721:Generated_Source\PSoC5/cyfitter_cfg.c **** 			{0x34u, 0x3Fu},
 722:Generated_Source\PSoC5/cyfitter_cfg.c **** 			{0x35u, 0x0Fu},
 723:Generated_Source\PSoC5/cyfitter_cfg.c **** 			{0x39u, 0x02u},
 724:Generated_Source\PSoC5/cyfitter_cfg.c **** 			{0x3Au, 0x03u},
 725:Generated_Source\PSoC5/cyfitter_cfg.c **** 			{0x3Bu, 0x28u},
 726:Generated_Source\PSoC5/cyfitter_cfg.c **** 			{0x3Eu, 0x10u},
 727:Generated_Source\PSoC5/cyfitter_cfg.c **** 			{0x40u, 0x06u},
 728:Generated_Source\PSoC5/cyfitter_cfg.c **** 			{0x46u, 0x40u},
 729:Generated_Source\PSoC5/cyfitter_cfg.c **** 			{0x49u, 0xFFu},
 730:Generated_Source\PSoC5/cyfitter_cfg.c **** 			{0x4Au, 0x07u},
 731:Generated_Source\PSoC5/cyfitter_cfg.c **** 			{0x4Bu, 0xFFu},
 732:Generated_Source\PSoC5/cyfitter_cfg.c **** 			{0x4Cu, 0x40u},
 733:Generated_Source\PSoC5/cyfitter_cfg.c **** 			{0x4Du, 0x20u},
 734:Generated_Source\PSoC5/cyfitter_cfg.c **** 			{0x4Eu, 0xF0u},
 735:Generated_Source\PSoC5/cyfitter_cfg.c **** 			{0x4Fu, 0x05u},
 736:Generated_Source\PSoC5/cyfitter_cfg.c **** 			{0x50u, 0x08u},
 737:Generated_Source\PSoC5/cyfitter_cfg.c **** 			{0x56u, 0x08u},
 738:Generated_Source\PSoC5/cyfitter_cfg.c **** 			{0x58u, 0x04u},
 739:Generated_Source\PSoC5/cyfitter_cfg.c **** 			{0x59u, 0x04u},
 740:Generated_Source\PSoC5/cyfitter_cfg.c **** 			{0x5Au, 0x04u},
 741:Generated_Source\PSoC5/cyfitter_cfg.c **** 			{0x5Bu, 0x04u},
 742:Generated_Source\PSoC5/cyfitter_cfg.c **** 			{0x5Cu, 0x12u},
 743:Generated_Source\PSoC5/cyfitter_cfg.c **** 			{0x5Du, 0x91u},
 744:Generated_Source\PSoC5/cyfitter_cfg.c **** 			{0x5Fu, 0x01u},
 745:Generated_Source\PSoC5/cyfitter_cfg.c **** 			{0x60u, 0x40u},
ARM GAS  C:\Users\chemi\AppData\Local\Temp\ccEevlXJ.s 			page 18


 746:Generated_Source\PSoC5/cyfitter_cfg.c **** 			{0x61u, 0xA8u},
 747:Generated_Source\PSoC5/cyfitter_cfg.c **** 			{0x62u, 0x40u},
 748:Generated_Source\PSoC5/cyfitter_cfg.c **** 			{0x63u, 0x20u},
 749:Generated_Source\PSoC5/cyfitter_cfg.c **** 			{0x80u, 0x11u},
 750:Generated_Source\PSoC5/cyfitter_cfg.c **** 			{0x81u, 0x03u},
 751:Generated_Source\PSoC5/cyfitter_cfg.c **** 			{0x85u, 0xFCu},
 752:Generated_Source\PSoC5/cyfitter_cfg.c **** 			{0x86u, 0x10u},
 753:Generated_Source\PSoC5/cyfitter_cfg.c **** 			{0x88u, 0x04u},
 754:Generated_Source\PSoC5/cyfitter_cfg.c **** 			{0x89u, 0xFCu},
 755:Generated_Source\PSoC5/cyfitter_cfg.c **** 			{0x8Cu, 0x08u},
 756:Generated_Source\PSoC5/cyfitter_cfg.c **** 			{0x8Fu, 0x03u},
 757:Generated_Source\PSoC5/cyfitter_cfg.c **** 			{0x91u, 0x80u},
 758:Generated_Source\PSoC5/cyfitter_cfg.c **** 			{0x92u, 0xE3u},
 759:Generated_Source\PSoC5/cyfitter_cfg.c **** 			{0x94u, 0xFFu},
 760:Generated_Source\PSoC5/cyfitter_cfg.c **** 			{0x97u, 0x03u},
 761:Generated_Source\PSoC5/cyfitter_cfg.c **** 			{0x98u, 0x1Cu},
 762:Generated_Source\PSoC5/cyfitter_cfg.c **** 			{0x99u, 0x52u},
 763:Generated_Source\PSoC5/cyfitter_cfg.c **** 			{0x9Au, 0xC3u},
 764:Generated_Source\PSoC5/cyfitter_cfg.c **** 			{0x9Bu, 0x28u},
 765:Generated_Source\PSoC5/cyfitter_cfg.c **** 			{0x9Cu, 0xF3u},
 766:Generated_Source\PSoC5/cyfitter_cfg.c **** 			{0x9Du, 0x25u},
 767:Generated_Source\PSoC5/cyfitter_cfg.c **** 			{0x9Eu, 0x0Cu},
 768:Generated_Source\PSoC5/cyfitter_cfg.c **** 			{0x9Fu, 0x48u},
 769:Generated_Source\PSoC5/cyfitter_cfg.c **** 			{0xA0u, 0x1Fu},
 770:Generated_Source\PSoC5/cyfitter_cfg.c **** 			{0xA2u, 0xA0u},
 771:Generated_Source\PSoC5/cyfitter_cfg.c **** 			{0xA4u, 0x03u},
 772:Generated_Source\PSoC5/cyfitter_cfg.c **** 			{0xA5u, 0x0Bu},
 773:Generated_Source\PSoC5/cyfitter_cfg.c **** 			{0xA7u, 0x14u},
 774:Generated_Source\PSoC5/cyfitter_cfg.c **** 			{0xA8u, 0x0Cu},
 775:Generated_Source\PSoC5/cyfitter_cfg.c **** 			{0xA9u, 0x03u},
 776:Generated_Source\PSoC5/cyfitter_cfg.c **** 			{0xACu, 0x02u},
 777:Generated_Source\PSoC5/cyfitter_cfg.c **** 			{0xAFu, 0x03u},
 778:Generated_Source\PSoC5/cyfitter_cfg.c **** 			{0xB0u, 0x8Cu},
 779:Generated_Source\PSoC5/cyfitter_cfg.c **** 			{0xB1u, 0x80u},
 780:Generated_Source\PSoC5/cyfitter_cfg.c **** 			{0xB3u, 0x1Cu},
 781:Generated_Source\PSoC5/cyfitter_cfg.c **** 			{0xB4u, 0x7Cu},
 782:Generated_Source\PSoC5/cyfitter_cfg.c **** 			{0xB5u, 0x60u},
 783:Generated_Source\PSoC5/cyfitter_cfg.c **** 			{0xB6u, 0x0Fu},
 784:Generated_Source\PSoC5/cyfitter_cfg.c **** 			{0xB7u, 0x03u},
 785:Generated_Source\PSoC5/cyfitter_cfg.c **** 			{0xBAu, 0xAAu},
 786:Generated_Source\PSoC5/cyfitter_cfg.c **** 			{0xD4u, 0x18u},
 787:Generated_Source\PSoC5/cyfitter_cfg.c **** 			{0xD6u, 0x04u},
 788:Generated_Source\PSoC5/cyfitter_cfg.c **** 			{0xD8u, 0x04u},
 789:Generated_Source\PSoC5/cyfitter_cfg.c **** 			{0xD9u, 0x04u},
 790:Generated_Source\PSoC5/cyfitter_cfg.c **** 			{0xDBu, 0x04u},
 791:Generated_Source\PSoC5/cyfitter_cfg.c **** 			{0xDCu, 0x11u},
 792:Generated_Source\PSoC5/cyfitter_cfg.c **** 			{0xDDu, 0x10u},
 793:Generated_Source\PSoC5/cyfitter_cfg.c **** 			{0xDFu, 0x01u},
 794:Generated_Source\PSoC5/cyfitter_cfg.c **** 			{0x00u, 0x10u},
 795:Generated_Source\PSoC5/cyfitter_cfg.c **** 			{0x05u, 0x08u},
 796:Generated_Source\PSoC5/cyfitter_cfg.c **** 			{0x06u, 0x02u},
 797:Generated_Source\PSoC5/cyfitter_cfg.c **** 			{0x07u, 0x88u},
 798:Generated_Source\PSoC5/cyfitter_cfg.c **** 			{0x0Eu, 0x29u},
 799:Generated_Source\PSoC5/cyfitter_cfg.c **** 			{0x0Fu, 0x80u},
 800:Generated_Source\PSoC5/cyfitter_cfg.c **** 			{0x10u, 0x80u},
 801:Generated_Source\PSoC5/cyfitter_cfg.c **** 			{0x11u, 0x5Cu},
 802:Generated_Source\PSoC5/cyfitter_cfg.c **** 			{0x15u, 0x04u},
ARM GAS  C:\Users\chemi\AppData\Local\Temp\ccEevlXJ.s 			page 19


 803:Generated_Source\PSoC5/cyfitter_cfg.c **** 			{0x16u, 0x80u},
 804:Generated_Source\PSoC5/cyfitter_cfg.c **** 			{0x17u, 0x60u},
 805:Generated_Source\PSoC5/cyfitter_cfg.c **** 			{0x19u, 0x12u},
 806:Generated_Source\PSoC5/cyfitter_cfg.c **** 			{0x1Cu, 0x20u},
 807:Generated_Source\PSoC5/cyfitter_cfg.c **** 			{0x1Eu, 0x29u},
 808:Generated_Source\PSoC5/cyfitter_cfg.c **** 			{0x1Fu, 0x42u},
 809:Generated_Source\PSoC5/cyfitter_cfg.c **** 			{0x21u, 0x09u},
 810:Generated_Source\PSoC5/cyfitter_cfg.c **** 			{0x22u, 0x10u},
 811:Generated_Source\PSoC5/cyfitter_cfg.c **** 			{0x24u, 0x40u},
 812:Generated_Source\PSoC5/cyfitter_cfg.c **** 			{0x25u, 0x04u},
 813:Generated_Source\PSoC5/cyfitter_cfg.c **** 			{0x26u, 0x23u},
 814:Generated_Source\PSoC5/cyfitter_cfg.c **** 			{0x27u, 0x02u},
 815:Generated_Source\PSoC5/cyfitter_cfg.c **** 			{0x2Du, 0x04u},
 816:Generated_Source\PSoC5/cyfitter_cfg.c **** 			{0x2Eu, 0xA0u},
 817:Generated_Source\PSoC5/cyfitter_cfg.c **** 			{0x2Fu, 0x02u},
 818:Generated_Source\PSoC5/cyfitter_cfg.c **** 			{0x31u, 0x08u},
 819:Generated_Source\PSoC5/cyfitter_cfg.c **** 			{0x32u, 0x10u},
 820:Generated_Source\PSoC5/cyfitter_cfg.c **** 			{0x36u, 0x24u},
 821:Generated_Source\PSoC5/cyfitter_cfg.c **** 			{0x37u, 0x81u},
 822:Generated_Source\PSoC5/cyfitter_cfg.c **** 			{0x38u, 0x08u},
 823:Generated_Source\PSoC5/cyfitter_cfg.c **** 			{0x39u, 0x02u},
 824:Generated_Source\PSoC5/cyfitter_cfg.c **** 			{0x3Au, 0x10u},
 825:Generated_Source\PSoC5/cyfitter_cfg.c **** 			{0x3Bu, 0x40u},
 826:Generated_Source\PSoC5/cyfitter_cfg.c **** 			{0x3Cu, 0x40u},
 827:Generated_Source\PSoC5/cyfitter_cfg.c **** 			{0x3Eu, 0x15u},
 828:Generated_Source\PSoC5/cyfitter_cfg.c **** 			{0x3Fu, 0x80u},
 829:Generated_Source\PSoC5/cyfitter_cfg.c **** 			{0x4Au, 0x08u},
 830:Generated_Source\PSoC5/cyfitter_cfg.c **** 			{0x50u, 0x04u},
 831:Generated_Source\PSoC5/cyfitter_cfg.c **** 			{0x52u, 0x10u},
 832:Generated_Source\PSoC5/cyfitter_cfg.c **** 			{0x58u, 0x80u},
 833:Generated_Source\PSoC5/cyfitter_cfg.c **** 			{0x5Fu, 0x02u},
 834:Generated_Source\PSoC5/cyfitter_cfg.c **** 			{0x63u, 0x02u},
 835:Generated_Source\PSoC5/cyfitter_cfg.c **** 			{0x64u, 0x40u},
 836:Generated_Source\PSoC5/cyfitter_cfg.c **** 			{0x67u, 0x0Au},
 837:Generated_Source\PSoC5/cyfitter_cfg.c **** 			{0x6Cu, 0xA0u},
 838:Generated_Source\PSoC5/cyfitter_cfg.c **** 			{0x6Du, 0x40u},
 839:Generated_Source\PSoC5/cyfitter_cfg.c **** 			{0x6Fu, 0x28u},
 840:Generated_Source\PSoC5/cyfitter_cfg.c **** 			{0x81u, 0x10u},
 841:Generated_Source\PSoC5/cyfitter_cfg.c **** 			{0x82u, 0x20u},
 842:Generated_Source\PSoC5/cyfitter_cfg.c **** 			{0x83u, 0x40u},
 843:Generated_Source\PSoC5/cyfitter_cfg.c **** 			{0x84u, 0x40u},
 844:Generated_Source\PSoC5/cyfitter_cfg.c **** 			{0x88u, 0x80u},
 845:Generated_Source\PSoC5/cyfitter_cfg.c **** 			{0x90u, 0x10u},
 846:Generated_Source\PSoC5/cyfitter_cfg.c **** 			{0x91u, 0x10u},
 847:Generated_Source\PSoC5/cyfitter_cfg.c **** 			{0x92u, 0x14u},
 848:Generated_Source\PSoC5/cyfitter_cfg.c **** 			{0x93u, 0x4Au},
 849:Generated_Source\PSoC5/cyfitter_cfg.c **** 			{0x94u, 0x08u},
 850:Generated_Source\PSoC5/cyfitter_cfg.c **** 			{0x95u, 0x02u},
 851:Generated_Source\PSoC5/cyfitter_cfg.c **** 			{0x96u, 0x20u},
 852:Generated_Source\PSoC5/cyfitter_cfg.c **** 			{0x97u, 0x80u},
 853:Generated_Source\PSoC5/cyfitter_cfg.c **** 			{0x99u, 0x08u},
 854:Generated_Source\PSoC5/cyfitter_cfg.c **** 			{0x9Au, 0x22u},
 855:Generated_Source\PSoC5/cyfitter_cfg.c **** 			{0x9Bu, 0xA9u},
 856:Generated_Source\PSoC5/cyfitter_cfg.c **** 			{0x9Du, 0x02u},
 857:Generated_Source\PSoC5/cyfitter_cfg.c **** 			{0x9Eu, 0x10u},
 858:Generated_Source\PSoC5/cyfitter_cfg.c **** 			{0xA2u, 0x08u},
 859:Generated_Source\PSoC5/cyfitter_cfg.c **** 			{0xA4u, 0x30u},
ARM GAS  C:\Users\chemi\AppData\Local\Temp\ccEevlXJ.s 			page 20


 860:Generated_Source\PSoC5/cyfitter_cfg.c **** 			{0xA5u, 0x0Cu},
 861:Generated_Source\PSoC5/cyfitter_cfg.c **** 			{0xA6u, 0x27u},
 862:Generated_Source\PSoC5/cyfitter_cfg.c **** 			{0xA7u, 0x2Bu},
 863:Generated_Source\PSoC5/cyfitter_cfg.c **** 			{0xADu, 0x10u},
 864:Generated_Source\PSoC5/cyfitter_cfg.c **** 			{0xB0u, 0x80u},
 865:Generated_Source\PSoC5/cyfitter_cfg.c **** 			{0xC0u, 0xF2u},
 866:Generated_Source\PSoC5/cyfitter_cfg.c **** 			{0xC2u, 0xF0u},
 867:Generated_Source\PSoC5/cyfitter_cfg.c **** 			{0xC4u, 0xFBu},
 868:Generated_Source\PSoC5/cyfitter_cfg.c **** 			{0xCAu, 0x70u},
 869:Generated_Source\PSoC5/cyfitter_cfg.c **** 			{0xCCu, 0xF6u},
 870:Generated_Source\PSoC5/cyfitter_cfg.c **** 			{0xCEu, 0xFFu},
 871:Generated_Source\PSoC5/cyfitter_cfg.c **** 			{0xD2u, 0x04u},
 872:Generated_Source\PSoC5/cyfitter_cfg.c **** 			{0xD6u, 0x88u},
 873:Generated_Source\PSoC5/cyfitter_cfg.c **** 			{0xD8u, 0xB8u},
 874:Generated_Source\PSoC5/cyfitter_cfg.c **** 			{0xE0u, 0x20u},
 875:Generated_Source\PSoC5/cyfitter_cfg.c **** 			{0xE8u, 0x20u},
 876:Generated_Source\PSoC5/cyfitter_cfg.c **** 			{0x30u, 0x40u},
 877:Generated_Source\PSoC5/cyfitter_cfg.c **** 			{0x33u, 0x01u},
 878:Generated_Source\PSoC5/cyfitter_cfg.c **** 			{0x34u, 0x12u},
 879:Generated_Source\PSoC5/cyfitter_cfg.c **** 			{0x3Bu, 0x10u},
 880:Generated_Source\PSoC5/cyfitter_cfg.c **** 			{0xCCu, 0xF0u},
 881:Generated_Source\PSoC5/cyfitter_cfg.c **** 			{0xCEu, 0x10u},
 882:Generated_Source\PSoC5/cyfitter_cfg.c **** 			{0x84u, 0x02u},
 883:Generated_Source\PSoC5/cyfitter_cfg.c **** 			{0x87u, 0x10u},
 884:Generated_Source\PSoC5/cyfitter_cfg.c **** 			{0x97u, 0x10u},
 885:Generated_Source\PSoC5/cyfitter_cfg.c **** 			{0x9Cu, 0x52u},
 886:Generated_Source\PSoC5/cyfitter_cfg.c **** 			{0x9Fu, 0x01u},
 887:Generated_Source\PSoC5/cyfitter_cfg.c **** 			{0xE2u, 0x10u},
 888:Generated_Source\PSoC5/cyfitter_cfg.c **** 			{0xE6u, 0x40u},
 889:Generated_Source\PSoC5/cyfitter_cfg.c **** 			{0x9Cu, 0x50u},
 890:Generated_Source\PSoC5/cyfitter_cfg.c **** 			{0x9Fu, 0x01u},
 891:Generated_Source\PSoC5/cyfitter_cfg.c **** 			{0x84u, 0x10u},
 892:Generated_Source\PSoC5/cyfitter_cfg.c **** 			{0x9Cu, 0x50u},
 893:Generated_Source\PSoC5/cyfitter_cfg.c **** 			{0x9Fu, 0x01u},
 894:Generated_Source\PSoC5/cyfitter_cfg.c **** 			{0xE6u, 0x40u},
 895:Generated_Source\PSoC5/cyfitter_cfg.c **** 			{0x57u, 0x20u},
 896:Generated_Source\PSoC5/cyfitter_cfg.c **** 			{0x5Bu, 0x80u},
 897:Generated_Source\PSoC5/cyfitter_cfg.c **** 			{0x5Du, 0x40u},
 898:Generated_Source\PSoC5/cyfitter_cfg.c **** 			{0x67u, 0x08u},
 899:Generated_Source\PSoC5/cyfitter_cfg.c **** 			{0x86u, 0x41u},
 900:Generated_Source\PSoC5/cyfitter_cfg.c **** 			{0xD4u, 0x03u},
 901:Generated_Source\PSoC5/cyfitter_cfg.c **** 			{0xD6u, 0x04u},
 902:Generated_Source\PSoC5/cyfitter_cfg.c **** 			{0xD8u, 0x01u},
 903:Generated_Source\PSoC5/cyfitter_cfg.c **** 			{0x83u, 0x20u},
 904:Generated_Source\PSoC5/cyfitter_cfg.c **** 			{0x8Bu, 0x04u},
 905:Generated_Source\PSoC5/cyfitter_cfg.c **** 			{0x8Du, 0x40u},
 906:Generated_Source\PSoC5/cyfitter_cfg.c **** 			{0x95u, 0x40u},
 907:Generated_Source\PSoC5/cyfitter_cfg.c **** 			{0x96u, 0x01u},
 908:Generated_Source\PSoC5/cyfitter_cfg.c **** 			{0x97u, 0x08u},
 909:Generated_Source\PSoC5/cyfitter_cfg.c **** 			{0x9Fu, 0x80u},
 910:Generated_Source\PSoC5/cyfitter_cfg.c **** 			{0xA6u, 0x40u},
 911:Generated_Source\PSoC5/cyfitter_cfg.c **** 			{0xA7u, 0x20u},
 912:Generated_Source\PSoC5/cyfitter_cfg.c **** 			{0xE0u, 0x03u},
 913:Generated_Source\PSoC5/cyfitter_cfg.c **** 			{0x09u, 0x08u},
 914:Generated_Source\PSoC5/cyfitter_cfg.c **** 			{0x0Au, 0x01u},
 915:Generated_Source\PSoC5/cyfitter_cfg.c **** 			{0x0Eu, 0x80u},
 916:Generated_Source\PSoC5/cyfitter_cfg.c **** 			{0x8Fu, 0x80u},
ARM GAS  C:\Users\chemi\AppData\Local\Temp\ccEevlXJ.s 			page 21


 917:Generated_Source\PSoC5/cyfitter_cfg.c **** 			{0x96u, 0x01u},
 918:Generated_Source\PSoC5/cyfitter_cfg.c **** 			{0x9Fu, 0x80u},
 919:Generated_Source\PSoC5/cyfitter_cfg.c **** 			{0xA6u, 0x40u},
 920:Generated_Source\PSoC5/cyfitter_cfg.c **** 			{0xC2u, 0x0Eu},
 921:Generated_Source\PSoC5/cyfitter_cfg.c **** 			{0xE4u, 0x08u},
 922:Generated_Source\PSoC5/cyfitter_cfg.c **** 			{0x00u, 0x08u},
 923:Generated_Source\PSoC5/cyfitter_cfg.c **** 			{0x22u, 0x04u},
 924:Generated_Source\PSoC5/cyfitter_cfg.c **** 			{0x9Cu, 0x40u},
 925:Generated_Source\PSoC5/cyfitter_cfg.c **** 			{0xAFu, 0x01u},
 926:Generated_Source\PSoC5/cyfitter_cfg.c **** 			{0xC0u, 0x10u},
 927:Generated_Source\PSoC5/cyfitter_cfg.c **** 			{0xC8u, 0x40u},
 928:Generated_Source\PSoC5/cyfitter_cfg.c **** 			{0xEAu, 0x40u},
 929:Generated_Source\PSoC5/cyfitter_cfg.c **** 			{0x0Bu, 0x20u},
 930:Generated_Source\PSoC5/cyfitter_cfg.c **** 			{0x53u, 0x01u},
 931:Generated_Source\PSoC5/cyfitter_cfg.c **** 			{0x83u, 0x01u},
 932:Generated_Source\PSoC5/cyfitter_cfg.c **** 			{0x84u, 0x40u},
 933:Generated_Source\PSoC5/cyfitter_cfg.c **** 			{0x8Bu, 0x10u},
 934:Generated_Source\PSoC5/cyfitter_cfg.c **** 			{0x9Cu, 0x40u},
 935:Generated_Source\PSoC5/cyfitter_cfg.c **** 			{0xAEu, 0x04u},
 936:Generated_Source\PSoC5/cyfitter_cfg.c **** 			{0xB0u, 0x04u},
 937:Generated_Source\PSoC5/cyfitter_cfg.c **** 			{0xC2u, 0x10u},
 938:Generated_Source\PSoC5/cyfitter_cfg.c **** 			{0xD4u, 0x80u},
 939:Generated_Source\PSoC5/cyfitter_cfg.c **** 			{0xE6u, 0x30u},
 940:Generated_Source\PSoC5/cyfitter_cfg.c **** 			{0xECu, 0x10u},
 941:Generated_Source\PSoC5/cyfitter_cfg.c **** 			{0xADu, 0x08u},
 942:Generated_Source\PSoC5/cyfitter_cfg.c **** 			{0x00u, 0x06u},
 943:Generated_Source\PSoC5/cyfitter_cfg.c **** 			{0x01u, 0x01u},
 944:Generated_Source\PSoC5/cyfitter_cfg.c **** 			{0x0Cu, 0x06u},
 945:Generated_Source\PSoC5/cyfitter_cfg.c **** 			{0x0Du, 0x01u},
 946:Generated_Source\PSoC5/cyfitter_cfg.c **** 			{0x10u, 0x06u},
 947:Generated_Source\PSoC5/cyfitter_cfg.c **** 			{0x11u, 0x01u},
 948:Generated_Source\PSoC5/cyfitter_cfg.c **** 			{0x1Cu, 0x06u},
 949:Generated_Source\PSoC5/cyfitter_cfg.c **** 			{0x1Du, 0x01u},
 950:Generated_Source\PSoC5/cyfitter_cfg.c **** 			{0x00u, 0xAFu},
 951:Generated_Source\PSoC5/cyfitter_cfg.c **** 			{0x01u, 0x02u},
 952:Generated_Source\PSoC5/cyfitter_cfg.c **** 		};
 953:Generated_Source\PSoC5/cyfitter_cfg.c **** 
 954:Generated_Source\PSoC5/cyfitter_cfg.c **** 
 955:Generated_Source\PSoC5/cyfitter_cfg.c **** 
 956:Generated_Source\PSoC5/cyfitter_cfg.c **** 		CYPACKED typedef struct {
 957:Generated_Source\PSoC5/cyfitter_cfg.c **** 			void CYFAR *address;
 958:Generated_Source\PSoC5/cyfitter_cfg.c **** 			uint16 size;
 959:Generated_Source\PSoC5/cyfitter_cfg.c **** 		} CYPACKED_ATTR cfg_memset_t;
 960:Generated_Source\PSoC5/cyfitter_cfg.c **** 
 961:Generated_Source\PSoC5/cyfitter_cfg.c **** 
 962:Generated_Source\PSoC5/cyfitter_cfg.c **** 		CYPACKED typedef struct {
 963:Generated_Source\PSoC5/cyfitter_cfg.c **** 			void CYFAR *dest;
 964:Generated_Source\PSoC5/cyfitter_cfg.c **** 			const void CYCODE *src;
 965:Generated_Source\PSoC5/cyfitter_cfg.c **** 			uint16 size;
 966:Generated_Source\PSoC5/cyfitter_cfg.c **** 		} CYPACKED_ATTR cfg_memcpy_t;
 967:Generated_Source\PSoC5/cyfitter_cfg.c **** 
 968:Generated_Source\PSoC5/cyfitter_cfg.c **** 		static const cfg_memset_t CYCODE cfg_memset_list[] = {
 969:Generated_Source\PSoC5/cyfitter_cfg.c **** 			/* address, size */
 970:Generated_Source\PSoC5/cyfitter_cfg.c **** 			{(void CYFAR *)(CYREG_PRT0_DR), 16u},
 971:Generated_Source\PSoC5/cyfitter_cfg.c **** 			{(void CYFAR *)(CYREG_PRT4_DR), 48u},
 972:Generated_Source\PSoC5/cyfitter_cfg.c **** 			{(void CYFAR *)(CYREG_PRT12_DR), 16u},
 973:Generated_Source\PSoC5/cyfitter_cfg.c **** 			{(void CYFAR *)(CYDEV_UCFG_B0_P0_U0_BASE), 4096u},
ARM GAS  C:\Users\chemi\AppData\Local\Temp\ccEevlXJ.s 			page 22


 974:Generated_Source\PSoC5/cyfitter_cfg.c **** 			{(void CYFAR *)(CYDEV_UCFG_B1_P2_U0_BASE), 1024u},
 975:Generated_Source\PSoC5/cyfitter_cfg.c **** 			{(void CYFAR *)(CYDEV_UCFG_B1_P4_U1_BASE), 896u},
 976:Generated_Source\PSoC5/cyfitter_cfg.c **** 			{(void CYFAR *)(CYDEV_UCFG_DSI0_BASE), 2560u},
 977:Generated_Source\PSoC5/cyfitter_cfg.c **** 			{(void CYFAR *)(CYDEV_UCFG_DSI12_BASE), 512u},
 978:Generated_Source\PSoC5/cyfitter_cfg.c **** 			{(void CYFAR *)(CYREG_BCTL0_MDCLK_EN), 32u},
 979:Generated_Source\PSoC5/cyfitter_cfg.c **** 		};
 980:Generated_Source\PSoC5/cyfitter_cfg.c **** 
 981:Generated_Source\PSoC5/cyfitter_cfg.c **** 		/* UDB_0_1_1_CONFIG Address: CYDEV_UCFG_B1_P4_U0_BASE Size (bytes): 128 */
 982:Generated_Source\PSoC5/cyfitter_cfg.c **** 		static const uint8 CYCODE BS_UDB_0_1_1_CONFIG_VAL[] = {
 983:Generated_Source\PSoC5/cyfitter_cfg.c **** 			0x06u, 0x04u, 0x11u, 0x41u, 0x06u, 0x00u, 0x00u, 0x20u, 0x02u, 0x80u, 0x00u, 0x00u, 0x00u, 0x00u
 984:Generated_Source\PSoC5/cyfitter_cfg.c **** 			0x00u, 0x08u, 0x08u, 0x02u, 0x17u, 0x80u, 0x00u, 0x00u, 0x07u, 0x00u, 0x10u, 0x10u, 0x00u, 0x00u
 985:Generated_Source\PSoC5/cyfitter_cfg.c **** 			0x11u, 0x80u, 0x06u, 0x00u, 0x00u, 0x05u, 0x00u, 0x0Au, 0x00u, 0x03u, 0x08u, 0x0Cu, 0x04u, 0x80u
 986:Generated_Source\PSoC5/cyfitter_cfg.c **** 			0x07u, 0x0Fu, 0x10u, 0x30u, 0x08u, 0x80u, 0x00u, 0x40u, 0x08u, 0x00u, 0x00u, 0x00u, 0x00u, 0x00u
 987:Generated_Source\PSoC5/cyfitter_cfg.c **** 			0x65u, 0x03u, 0x04u, 0x00u, 0x02u, 0x00u, 0xE0u, 0x0Cu, 0x18u, 0xFFu, 0xFFu, 0xFFu, 0x62u, 0xA0u
 988:Generated_Source\PSoC5/cyfitter_cfg.c **** 			0x0Cu, 0x00u, 0x00u, 0x00u, 0x00u, 0x00u, 0x02u, 0x11u, 0x04u, 0x08u, 0x04u, 0x04u, 0x91u, 0x11u
 989:Generated_Source\PSoC5/cyfitter_cfg.c **** 			0x00u, 0x00u, 0x00u, 0x00u, 0x00u, 0x00u, 0x40u, 0x02u, 0x00u, 0x10u, 0x30u, 0x10u, 0x00u, 0x10u
 990:Generated_Source\PSoC5/cyfitter_cfg.c **** 			0x00u, 0x00u, 0x00u, 0x00u, 0x00u, 0x00u, 0x00u, 0x00u, 0x00u, 0x00u, 0x00u, 0x00u, 0x00u, 0x00u
 991:Generated_Source\PSoC5/cyfitter_cfg.c **** 
 992:Generated_Source\PSoC5/cyfitter_cfg.c **** 		static const cfg_memcpy_t CYCODE cfg_memcpy_list [] = {
 993:Generated_Source\PSoC5/cyfitter_cfg.c **** 			/* dest, src, size */
 994:Generated_Source\PSoC5/cyfitter_cfg.c **** 			{(void CYFAR *)(CYDEV_UCFG_B1_P4_U0_BASE), BS_UDB_0_1_1_CONFIG_VAL, 128u},
 995:Generated_Source\PSoC5/cyfitter_cfg.c **** 		};
 996:Generated_Source\PSoC5/cyfitter_cfg.c **** 
 997:Generated_Source\PSoC5/cyfitter_cfg.c **** 		uint8 CYDATA i;
 998:Generated_Source\PSoC5/cyfitter_cfg.c **** 
 999:Generated_Source\PSoC5/cyfitter_cfg.c **** 		/* Zero out critical memory blocks before beginning configuration */
1000:Generated_Source\PSoC5/cyfitter_cfg.c **** 		for (i = 0u; i < (sizeof(cfg_memset_list)/sizeof(cfg_memset_list[0])); i++)
1001:Generated_Source\PSoC5/cyfitter_cfg.c **** 		{
1002:Generated_Source\PSoC5/cyfitter_cfg.c **** 			const cfg_memset_t CYCODE * CYDATA ms = &cfg_memset_list[i];
1003:Generated_Source\PSoC5/cyfitter_cfg.c **** 			CYMEMZERO(ms->address, (size_t)(uint32)(ms->size));
 188              		.loc 1 1003 0
 189 0098 4E4D     		ldr	r5, .L20+40
 190              	.LVL9:
 191              	.LBE49:
 192              	.LBE48:
 193              	.LBB60:
 194              	.LBB46:
 257:Generated_Source\PSoC5/cyfitter_cfg.c **** }
 195              		.loc 1 257 0
 196 009a 1378     		ldrb	r3, [r2]	@ zero_extendqisi2
 197              	.LBE46:
 198              	.LBE60:
 199              	.LBB61:
 200              	.LBB52:
 201              		.loc 1 1003 0
 202 009c 0626     		movs	r6, #6
 203              	.LBE52:
 204              	.LBE61:
 205              	.LBB62:
 206              	.LBB47:
 257:Generated_Source\PSoC5/cyfitter_cfg.c **** }
 207              		.loc 1 257 0
 208 009e 43F00703 		orr	r3, r3, #7
 209 00a2 1370     		strb	r3, [r2]
 210              	.LBE47:
 211              	.LBE62:
 369:Generated_Source\PSoC5/cyfitter_cfg.c **** 	/* Enable/Disable Debug functionality based on settings from System DWR */
ARM GAS  C:\Users\chemi\AppData\Local\Temp\ccEevlXJ.s 			page 23


 212              		.loc 1 369 0
 213 00a4 414B     		ldr	r3, .L20
 214 00a6 0122     		movs	r2, #1
 215 00a8 1A70     		strb	r2, [r3]
 371:Generated_Source\PSoC5/cyfitter_cfg.c **** 
 216              		.loc 1 371 0
 217 00aa 4B4A     		ldr	r2, .L20+44
 218 00ac 1378     		ldrb	r3, [r2]	@ zero_extendqisi2
 219 00ae 43F00403 		orr	r3, r3, #4
 220 00b2 1370     		strb	r3, [r2]
 221              	.LVL10:
 222 00b4 00E0     		b	.L8
 223              	.LVL11:
 224              	.L5:
 225 00b6 FEE7     		b	.L5
 226              	.LVL12:
 227              	.L8:
 228              	.LBB63:
 229              	.LBB53:
 230              		.loc 1 1003 0 discriminator 3
 231 00b8 06FB0453 		mla	r3, r6, r4, r5
 232              	.LBB50:
 233              	.LBB51:
  78:Generated_Source\PSoC5/cyfitter_cfg.c **** }
 234              		.loc 1 78 0 discriminator 3
 235 00bc 0021     		movs	r1, #0
 236 00be 9A88     		ldrh	r2, [r3, #4]	@ unaligned
 237 00c0 1868     		ldr	r0, [r3]	@ unaligned
 238 00c2 0134     		adds	r4, r4, #1
 239              	.LVL13:
 240 00c4 FFF7FEFF 		bl	memset
 241              	.LVL14:
 242              	.LBE51:
 243              	.LBE50:
 244              	.LBE53:
1000:Generated_Source\PSoC5/cyfitter_cfg.c **** 		{
 245              		.loc 1 1000 0 discriminator 3
 246 00c8 092C     		cmp	r4, #9
 247 00ca F5D1     		bne	.L8
 248              	.LVL15:
 249              	.LBB54:
 250              	.LBB55:
 251              	.LBB56:
  92:Generated_Source\PSoC5/cyfitter_cfg.c **** }
 252              		.loc 1 92 0 discriminator 3
 253 00cc 8022     		movs	r2, #128
 254 00ce 4349     		ldr	r1, .L20+48
 255 00d0 4348     		ldr	r0, .L20+52
 256 00d2 FFF7FEFF 		bl	memcpy
 257              	.LVL16:
 258 00d6 0022     		movs	r2, #0
 259 00d8 1146     		mov	r1, r2
 260              	.LBE56:
 261              	.LBE55:
 262              	.LBE54:
 263              	.LBB57:
 264              	.LBB58:
ARM GAS  C:\Users\chemi\AppData\Local\Temp\ccEevlXJ.s 			page 24


 265              	.LBB59:
 180:Generated_Source\PSoC5/cyfitter_cfg.c **** 		uint8 count = (uint8)baseAddr;
 266              		.loc 1 180 0 discriminator 3
 267 00da 424C     		ldr	r4, .L20+56
 268              	.LVL17:
 269 00dc 04F17005 		add	r5, r4, #112
 270              	.LVL18:
 271              	.L11:
 180:Generated_Source\PSoC5/cyfitter_cfg.c **** 		uint8 count = (uint8)baseAddr;
 272              		.loc 1 180 0 is_stmt 0
 273 00e0 54F82100 		ldr	r0, [r4, r1, lsl #2]
 274              	.LVL19:
 275 00e4 05EB4203 		add	r3, r5, r2, lsl #1
 182:Generated_Source\PSoC5/cyfitter_cfg.c **** 		while (count != 0u)
 276              		.loc 1 182 0 is_stmt 1
 277 00e8 20F0FF06 		bic	r6, r0, #255
 278              	.LVL20:
 279 00ec C0B2     		uxtb	r0, r0
 280 00ee 0244     		add	r2, r2, r0
 281              	.LVL21:
 282 00f0 05EB4200 		add	r0, r5, r2, lsl #1
 283              	.LVL22:
 284 00f4 0133     		adds	r3, r3, #1
 285 00f6 0330     		adds	r0, r0, #3
 286              	.LVL23:
 287              	.L9:
 288 00f8 0233     		adds	r3, r3, #2
 183:Generated_Source\PSoC5/cyfitter_cfg.c **** 		{
 289              		.loc 1 183 0
 290 00fa 8342     		cmp	r3, r0
 291 00fc 06D0     		beq	.L19
 185:Generated_Source\PSoC5/cyfitter_cfg.c **** 			j++;
 292              		.loc 1 185 0
 293 00fe 13F8037C 		ldrb	r7, [r3, #-3]	@ zero_extendqisi2
 294 0102 13F802EC 		ldrb	lr, [r3, #-2]	@ zero_extendqisi2
 295 0106 07F806E0 		strb	lr, [r7, r6]
 296 010a F5E7     		b	.L9
 297              	.L19:
 298              	.LBE59:
 178:Generated_Source\PSoC5/cyfitter_cfg.c **** 	{
 299              		.loc 1 178 0
 300 010c 0131     		adds	r1, r1, #1
 301              	.LVL24:
 302 010e 1C29     		cmp	r1, #28
 303 0110 E6D1     		bne	.L11
 304              	.LVL25:
 305              	.LBE58:
 306              	.LBE57:
1004:Generated_Source\PSoC5/cyfitter_cfg.c **** 		}
1005:Generated_Source\PSoC5/cyfitter_cfg.c **** 
1006:Generated_Source\PSoC5/cyfitter_cfg.c **** 		/* Copy device configuration data into registers */
1007:Generated_Source\PSoC5/cyfitter_cfg.c **** 		for (i = 0u; i < (sizeof(cfg_memcpy_list)/sizeof(cfg_memcpy_list[0])); i++)
1008:Generated_Source\PSoC5/cyfitter_cfg.c **** 		{
1009:Generated_Source\PSoC5/cyfitter_cfg.c **** 			const cfg_memcpy_t CYCODE * CYDATA mc = &cfg_memcpy_list[i];
1010:Generated_Source\PSoC5/cyfitter_cfg.c **** 			void * CYDATA destPtr = mc->dest;
1011:Generated_Source\PSoC5/cyfitter_cfg.c **** 			const void CYCODE * CYDATA srcPtr = mc->src;
1012:Generated_Source\PSoC5/cyfitter_cfg.c **** 			uint16 CYDATA numBytes = mc->size;
ARM GAS  C:\Users\chemi\AppData\Local\Temp\ccEevlXJ.s 			page 25


1013:Generated_Source\PSoC5/cyfitter_cfg.c **** 			CYCONFIGCPYCODE(destPtr, srcPtr, numBytes);
1014:Generated_Source\PSoC5/cyfitter_cfg.c **** 		}
1015:Generated_Source\PSoC5/cyfitter_cfg.c **** 
1016:Generated_Source\PSoC5/cyfitter_cfg.c **** 		cfg_write_bytes32(cy_cfg_addr_table, cy_cfg_data_table);
1017:Generated_Source\PSoC5/cyfitter_cfg.c **** 
1018:Generated_Source\PSoC5/cyfitter_cfg.c **** 		/* Enable digital routing */
1019:Generated_Source\PSoC5/cyfitter_cfg.c **** 		CY_SET_XTND_REG8((void CYFAR *)CYREG_BCTL0_BANK_CTL, CY_GET_XTND_REG8((void CYFAR *)CYREG_BCTL0_B
 307              		.loc 1 1019 0
 308 0112 354A     		ldr	r2, .L20+60
1020:Generated_Source\PSoC5/cyfitter_cfg.c **** 		CY_SET_XTND_REG8((void CYFAR *)CYREG_BCTL1_BANK_CTL, CY_GET_XTND_REG8((void CYFAR *)CYREG_BCTL1_B
1021:Generated_Source\PSoC5/cyfitter_cfg.c **** 
1022:Generated_Source\PSoC5/cyfitter_cfg.c **** 		/* Enable UDB array */
1023:Generated_Source\PSoC5/cyfitter_cfg.c **** 		CY_SET_XTND_REG8((void CYFAR *)CYREG_PM_ACT_CFG0, CY_GET_XTND_REG8((void CYFAR *)CYREG_PM_ACT_CFG
1024:Generated_Source\PSoC5/cyfitter_cfg.c **** 		CY_SET_XTND_REG8((void CYFAR *)CYREG_PM_AVAIL_CR2, CY_GET_XTND_REG8((void CYFAR *)CYREG_PM_AVAIL_
 309              		.loc 1 1024 0
 310 0114 3549     		ldr	r1, .L20+64
1019:Generated_Source\PSoC5/cyfitter_cfg.c **** 		CY_SET_XTND_REG8((void CYFAR *)CYREG_BCTL1_BANK_CTL, CY_GET_XTND_REG8((void CYFAR *)CYREG_BCTL1_B
 311              		.loc 1 1019 0
 312 0116 1378     		ldrb	r3, [r2]	@ zero_extendqisi2
 313              	.LBE63:
 314              	.LBB64:
 315              	.LBB65:
  92:Generated_Source\PSoC5/cyfitter_cfg.c **** }
 316              		.loc 1 92 0
 317 0118 354C     		ldr	r4, .L20+68
 318              	.LBE65:
 319              	.LBE64:
 320              	.LBB69:
1019:Generated_Source\PSoC5/cyfitter_cfg.c **** 		CY_SET_XTND_REG8((void CYFAR *)CYREG_BCTL1_BANK_CTL, CY_GET_XTND_REG8((void CYFAR *)CYREG_BCTL1_B
 321              		.loc 1 1019 0
 322 011a 43F00203 		orr	r3, r3, #2
 323 011e 1370     		strb	r3, [r2]
1020:Generated_Source\PSoC5/cyfitter_cfg.c **** 		CY_SET_XTND_REG8((void CYFAR *)CYREG_BCTL1_BANK_CTL, CY_GET_XTND_REG8((void CYFAR *)CYREG_BCTL1_B
 324              		.loc 1 1020 0
 325 0120 137C     		ldrb	r3, [r2, #16]	@ zero_extendqisi2
 326 0122 43F00203 		orr	r3, r3, #2
 327 0126 1374     		strb	r3, [r2, #16]
1023:Generated_Source\PSoC5/cyfitter_cfg.c **** 		CY_SET_XTND_REG8((void CYFAR *)CYREG_PM_AVAIL_CR2, CY_GET_XTND_REG8((void CYFAR *)CYREG_PM_AVAIL_
 328              		.loc 1 1023 0
 329 0128 A2F58632 		sub	r2, r2, #68608
 330 012c 633A     		subs	r2, r2, #99
 331 012e 1378     		ldrb	r3, [r2]	@ zero_extendqisi2
 332 0130 43F04003 		orr	r3, r3, #64
 333 0134 1370     		strb	r3, [r2]
 334              		.loc 1 1024 0
 335 0136 0B78     		ldrb	r3, [r1]	@ zero_extendqisi2
 336 0138 43F01003 		orr	r3, r3, #16
 337 013c 0B70     		strb	r3, [r1]
 338              	.LVL26:
 339              	.LBE69:
 340              	.LBB70:
 341              	.LBB66:
  92:Generated_Source\PSoC5/cyfitter_cfg.c **** }
 342              		.loc 1 92 0
 343 013e 2D4B     		ldr	r3, .L20+72
 344 0140 1868     		ldr	r0, [r3]	@ unaligned
 345 0142 5968     		ldr	r1, [r3, #4]	@ unaligned
ARM GAS  C:\Users\chemi\AppData\Local\Temp\ccEevlXJ.s 			page 26


 346 0144 03C4     		stmia	r4!, {r0, r1}
 347              	.LBE66:
 348              	.LBE70:
 349              	.LBB71:
 350              	.LBB72:
 351 0146 1846     		mov	r0, r3
 352              	.LBE72:
 353              	.LBE71:
 354              	.LBB75:
 355              	.LBB67:
 356 0148 1989     		ldrh	r1, [r3, #8]	@ unaligned
 357              	.LBE67:
 358              	.LBE75:
 359              	.LBB76:
 360              	.LBB77:
 361 014a C83C     		subs	r4, r4, #200
 362              	.LBE77:
 363              	.LBE76:
 364              	.LBB81:
 365              	.LBB68:
 366 014c A4F8C810 		strh	r1, [r4, #200]	@ unaligned
 367              	.LVL27:
 368              	.LBE68:
 369              	.LBE81:
 370              	.LBB82:
 371              	.LBB73:
 372 0150 50F80A1F 		ldr	r1, [r0, #10]!	@ unaligned
 373 0154 44F81E1C 		str	r1, [r4, #-30]	@ unaligned
 374 0158 4168     		ldr	r1, [r0, #4]	@ unaligned
 375              	.LBE73:
 376              	.LBE82:
 377              	.LBB83:
 378              	.LBB84:
 379 015a 1846     		mov	r0, r3
 380              	.LBE84:
 381              	.LBE83:
 382              	.LBB87:
 383              	.LBB74:
 384 015c 44F81A1C 		str	r1, [r4, #-26]	@ unaligned
 385              	.LVL28:
 386              	.LBE74:
 387              	.LBE87:
 388              	.LBB88:
 389              	.LBB85:
 390 0160 50F8121F 		ldr	r1, [r0, #18]!	@ unaligned
 391 0164 44F80E1C 		str	r1, [r4, #-14]	@ unaligned
 392 0168 4168     		ldr	r1, [r0, #4]	@ unaligned
 393              	.LBE85:
 394              	.LBE88:
 395              	.LBB89:
 396              	.LBB78:
 397 016a 53F81A0F 		ldr	r0, [r3, #26]!	@ unaligned
 398              	.LBE78:
 399              	.LBE89:
 400              	.LBB90:
 401              	.LBB86:
 402 016e 44F80A1C 		str	r1, [r4, #-10]	@ unaligned
ARM GAS  C:\Users\chemi\AppData\Local\Temp\ccEevlXJ.s 			page 27


 403              	.LVL29:
 404              	.LBE86:
 405              	.LBE90:
 406              	.LBB91:
 407              	.LBB79:
 408 0172 5968     		ldr	r1, [r3, #4]	@ unaligned
 409 0174 1B89     		ldrh	r3, [r3, #8]	@ unaligned
 410 0176 03C4     		stmia	r4!, {r0, r1}
 411              	.LBE79:
 412              	.LBE91:
1025:Generated_Source\PSoC5/cyfitter_cfg.c **** 	}
1026:Generated_Source\PSoC5/cyfitter_cfg.c **** 
1027:Generated_Source\PSoC5/cyfitter_cfg.c **** 
1028:Generated_Source\PSoC5/cyfitter_cfg.c **** 	/* Perform second pass device configuration. These items must be configured in specific order afte
1029:Generated_Source\PSoC5/cyfitter_cfg.c **** 	CYCONFIGCPYCODE((void CYFAR *)(CYREG_PRT15_DR), (const void CYCODE *)(BS_IOPINS0_8_VAL), 10u);
1030:Generated_Source\PSoC5/cyfitter_cfg.c **** 	CYCONFIGCPYCODE((void CYFAR *)(CYREG_PRT1_DM0), (const void CYCODE *)(BS_IOPINS0_1_VAL), 8u);
1031:Generated_Source\PSoC5/cyfitter_cfg.c **** 	CYCONFIGCPYCODE((void CYFAR *)(CYREG_PRT2_DM0), (const void CYCODE *)(BS_IOPINS0_2_VAL), 8u);
1032:Generated_Source\PSoC5/cyfitter_cfg.c **** 	CYCONFIGCPYCODE((void CYFAR *)(CYREG_PRT3_DR), (const void CYCODE *)(BS_IOPINS0_3_VAL), 10u);
1033:Generated_Source\PSoC5/cyfitter_cfg.c **** 	/* Switch Boost to the precision bandgap reference from its internal reference */
1034:Generated_Source\PSoC5/cyfitter_cfg.c **** 	CY_SET_REG8((void CYXDATA *)CYREG_BOOST_CR2, (CY_GET_REG8((void CYXDATA *)CYREG_BOOST_CR2) | 0x08u
 413              		.loc 1 1034 0
 414 0178 1F49     		ldr	r1, .L20+76
 415              	.LBB92:
 416              	.LBB80:
  92:Generated_Source\PSoC5/cyfitter_cfg.c **** }
 417              		.loc 1 92 0
 418 017a 2380     		strh	r3, [r4]	@ unaligned
 419              	.LVL30:
 420              	.LBE80:
 421              	.LBE92:
 422              		.loc 1 1034 0
 423 017c 0B78     		ldrb	r3, [r1]	@ zero_extendqisi2
 424              	.LBB93:
 425              	.LBB94:
  85:Generated_Source\PSoC5/cyfitter_cfg.c **** }
 426              		.loc 1 85 0
 427 017e A4F68854 		subw	r4, r4, #3464
 428              	.LBE94:
 429              	.LBE93:
 430              		.loc 1 1034 0
 431 0182 43F00803 		orr	r3, r3, #8
 432 0186 0B70     		strb	r3, [r1]
 433              	.LBB96:
 434              	.LBB97:
 282:Generated_Source\PSoC5/cyfitter_cfg.c **** 	CY_SET_XTND_REG8((void CYFAR *)(CYREG_BG_DFT0), (bg_xover_inl_trim & 0x07u));
 435              		.loc 1 282 0
 436 0188 1C4B     		ldr	r3, .L20+80
 283:Generated_Source\PSoC5/cyfitter_cfg.c **** 	CY_SET_XTND_REG8((void CYFAR *)(CYREG_BG_DFT1), ((bg_xover_inl_trim >> 4) & 0x0Fu));
 437              		.loc 1 283 0
 438 018a 01F5AA51 		add	r1, r1, #5440
 282:Generated_Source\PSoC5/cyfitter_cfg.c **** 	CY_SET_XTND_REG8((void CYFAR *)(CYREG_BG_DFT0), (bg_xover_inl_trim & 0x07u));
 439              		.loc 1 282 0
 440 018e 1B78     		ldrb	r3, [r3]	@ zero_extendqisi2
 283:Generated_Source\PSoC5/cyfitter_cfg.c **** 	CY_SET_XTND_REG8((void CYFAR *)(CYREG_BG_DFT1), ((bg_xover_inl_trim >> 4) & 0x0Fu));
 441              		.loc 1 283 0
 442 0190 0C31     		adds	r1, r1, #12
 282:Generated_Source\PSoC5/cyfitter_cfg.c **** 	CY_SET_XTND_REG8((void CYFAR *)(CYREG_BG_DFT0), (bg_xover_inl_trim & 0x07u));
ARM GAS  C:\Users\chemi\AppData\Local\Temp\ccEevlXJ.s 			page 28


 443              		.loc 1 282 0
 444 0192 DBB2     		uxtb	r3, r3
 445              	.LVL31:
 283:Generated_Source\PSoC5/cyfitter_cfg.c **** 	CY_SET_XTND_REG8((void CYFAR *)(CYREG_BG_DFT1), ((bg_xover_inl_trim >> 4) & 0x0Fu));
 446              		.loc 1 283 0
 447 0194 03F00700 		and	r0, r3, #7
 284:Generated_Source\PSoC5/cyfitter_cfg.c **** 	CY_SET_XTND_REG8((void CYFAR *)CYREG_PUMP_CR0, 0x44u);
 448              		.loc 1 284 0
 449 0198 1B09     		lsrs	r3, r3, #4
 450              	.LVL32:
 283:Generated_Source\PSoC5/cyfitter_cfg.c **** 	CY_SET_XTND_REG8((void CYFAR *)(CYREG_BG_DFT1), ((bg_xover_inl_trim >> 4) & 0x0Fu));
 451              		.loc 1 283 0
 452 019a 0870     		strb	r0, [r1]
 284:Generated_Source\PSoC5/cyfitter_cfg.c **** 	CY_SET_XTND_REG8((void CYFAR *)CYREG_PUMP_CR0, 0x44u);
 453              		.loc 1 284 0
 454 019c 4B70     		strb	r3, [r1, #1]
 285:Generated_Source\PSoC5/cyfitter_cfg.c **** }
 455              		.loc 1 285 0
 456 019e 184B     		ldr	r3, .L20+84
 457 01a0 4421     		movs	r1, #68
 458 01a2 1970     		strb	r1, [r3]
 459              	.LVL33:
 460              	.LBE97:
 461              	.LBE96:
 462              	.LBB98:
 463              	.LBB95:
  85:Generated_Source\PSoC5/cyfitter_cfg.c **** }
 464              		.loc 1 85 0
 465 01a4 0FCA     		ldmia	r2, {r0, r1, r2, r3}
 466 01a6 07C4     		stmia	r4!, {r0, r1, r2}
 467 01a8 2380     		strh	r3, [r4]	@ movhi
 468              	.LVL34:
 469 01aa F8BD     		pop	{r3, r4, r5, r6, r7, pc}
 470              	.L21:
 471              		.align	2
 472              	.L20:
 473 01ac 00480040 		.word	1073760256
 474 01b0 82400040 		.word	1073758338
 475 01b4 88400040 		.word	1073758344
 476 01b8 25420040 		.word	1073758757
 477 01bc 0F010049 		.word	1224737039
 478 01c0 A1460040 		.word	1073759905
 479 01c4 22420040 		.word	1073758754
 480 01c8 04400040 		.word	1073758212
 481 01cc 06400040 		.word	1073758214
 482 01d0 A2430040 		.word	1073759138
 483 01d4 00000000 		.word	.LANCHOR0
 484 01d8 E8460040 		.word	1073759976
 485 01dc 36000000 		.word	.LANCHOR0+54
 486 01e0 00180140 		.word	1073813504
 487 01e4 B8000000 		.word	.LANCHOR0+184
 488 01e8 03500140 		.word	1073827843
 489 01ec C2430040 		.word	1073759170
 490 01f0 F0510040 		.word	1073762800
 491 01f4 6C050000 		.word	.LANCHOR0+1388
 492 01f8 22430040 		.word	1073759010
 493 01fc CF010049 		.word	1224737231
ARM GAS  C:\Users\chemi\AppData\Local\Temp\ccEevlXJ.s 			page 29


 494 0200 76580040 		.word	1073764470
 495              	.LBE95:
 496              	.LBE98:
 497              		.cfi_endproc
 498              	.LFE8:
 499              		.size	cyfitter_cfg, .-cyfitter_cfg
 500              		.section	.rodata
 501              		.align	2
 502              		.set	.LANCHOR0,. + 0
 503              		.type	cfg_memset_list.5014, %object
 504              		.size	cfg_memset_list.5014, 54
 505              	cfg_memset_list.5014:
 506 0000 00510040 		.4byte	1073762560
 507 0004 1000     		.2byte	16
 508 0006 40510040 		.4byte	1073762624
 509 000a 3000     		.2byte	48
 510 000c C0510040 		.4byte	1073762752
 511 0010 1000     		.2byte	16
 512 0012 00000140 		.4byte	1073807360
 513 0016 0010     		.2byte	4096
 514 0018 00140140 		.4byte	1073812480
 515 001c 0004     		.2byte	1024
 516 001e 80180140 		.4byte	1073813632
 517 0022 8003     		.2byte	896
 518 0024 00400140 		.4byte	1073823744
 519 0028 000A     		.2byte	2560
 520 002a 004C0140 		.4byte	1073826816
 521 002e 0002     		.2byte	512
 522 0030 00500140 		.4byte	1073827840
 523 0034 2000     		.2byte	32
 524              		.type	BS_UDB_0_1_1_CONFIG_VAL.5015, %object
 525              		.size	BS_UDB_0_1_1_CONFIG_VAL.5015, 128
 526              	BS_UDB_0_1_1_CONFIG_VAL.5015:
 527 0036 06       		.byte	6
 528 0037 04       		.byte	4
 529 0038 11       		.byte	17
 530 0039 41       		.byte	65
 531 003a 06       		.byte	6
 532 003b 00       		.byte	0
 533 003c 00       		.byte	0
 534 003d 20       		.byte	32
 535 003e 02       		.byte	2
 536 003f 80       		.byte	-128
 537 0040 00       		.byte	0
 538 0041 00       		.byte	0
 539 0042 00       		.byte	0
 540 0043 00       		.byte	0
 541 0044 00       		.byte	0
 542 0045 00       		.byte	0
 543 0046 00       		.byte	0
 544 0047 08       		.byte	8
 545 0048 08       		.byte	8
 546 0049 02       		.byte	2
 547 004a 17       		.byte	23
 548 004b 80       		.byte	-128
 549 004c 00       		.byte	0
 550 004d 00       		.byte	0
ARM GAS  C:\Users\chemi\AppData\Local\Temp\ccEevlXJ.s 			page 30


 551 004e 07       		.byte	7
 552 004f 00       		.byte	0
 553 0050 10       		.byte	16
 554 0051 10       		.byte	16
 555 0052 00       		.byte	0
 556 0053 00       		.byte	0
 557 0054 01       		.byte	1
 558 0055 10       		.byte	16
 559 0056 11       		.byte	17
 560 0057 80       		.byte	-128
 561 0058 06       		.byte	6
 562 0059 00       		.byte	0
 563 005a 00       		.byte	0
 564 005b 05       		.byte	5
 565 005c 00       		.byte	0
 566 005d 0A       		.byte	10
 567 005e 00       		.byte	0
 568 005f 03       		.byte	3
 569 0060 08       		.byte	8
 570 0061 0C       		.byte	12
 571 0062 04       		.byte	4
 572 0063 80       		.byte	-128
 573 0064 00       		.byte	0
 574 0065 00       		.byte	0
 575 0066 07       		.byte	7
 576 0067 0F       		.byte	15
 577 0068 10       		.byte	16
 578 0069 30       		.byte	48
 579 006a 08       		.byte	8
 580 006b 80       		.byte	-128
 581 006c 00       		.byte	0
 582 006d 40       		.byte	64
 583 006e 08       		.byte	8
 584 006f 00       		.byte	0
 585 0070 00       		.byte	0
 586 0071 00       		.byte	0
 587 0072 00       		.byte	0
 588 0073 00       		.byte	0
 589 0074 10       		.byte	16
 590 0075 15       		.byte	21
 591 0076 65       		.byte	101
 592 0077 03       		.byte	3
 593 0078 04       		.byte	4
 594 0079 00       		.byte	0
 595 007a 02       		.byte	2
 596 007b 00       		.byte	0
 597 007c E0       		.byte	-32
 598 007d 0C       		.byte	12
 599 007e 18       		.byte	24
 600 007f FF       		.byte	-1
 601 0080 FF       		.byte	-1
 602 0081 FF       		.byte	-1
 603 0082 62       		.byte	98
 604 0083 A0       		.byte	-96
 605 0084 F0       		.byte	-16
 606 0085 41       		.byte	65
 607 0086 0C       		.byte	12
ARM GAS  C:\Users\chemi\AppData\Local\Temp\ccEevlXJ.s 			page 31


 608 0087 00       		.byte	0
 609 0088 00       		.byte	0
 610 0089 00       		.byte	0
 611 008a 00       		.byte	0
 612 008b 00       		.byte	0
 613 008c 02       		.byte	2
 614 008d 11       		.byte	17
 615 008e 04       		.byte	4
 616 008f 08       		.byte	8
 617 0090 04       		.byte	4
 618 0091 04       		.byte	4
 619 0092 91       		.byte	-111
 620 0093 11       		.byte	17
 621 0094 00       		.byte	0
 622 0095 01       		.byte	1
 623 0096 00       		.byte	0
 624 0097 00       		.byte	0
 625 0098 00       		.byte	0
 626 0099 00       		.byte	0
 627 009a 00       		.byte	0
 628 009b 00       		.byte	0
 629 009c 40       		.byte	64
 630 009d 02       		.byte	2
 631 009e 00       		.byte	0
 632 009f 10       		.byte	16
 633 00a0 30       		.byte	48
 634 00a1 10       		.byte	16
 635 00a2 00       		.byte	0
 636 00a3 10       		.byte	16
 637 00a4 10       		.byte	16
 638 00a5 12       		.byte	18
 639 00a6 00       		.byte	0
 640 00a7 00       		.byte	0
 641 00a8 00       		.byte	0
 642 00a9 00       		.byte	0
 643 00aa 00       		.byte	0
 644 00ab 00       		.byte	0
 645 00ac 00       		.byte	0
 646 00ad 00       		.byte	0
 647 00ae 00       		.byte	0
 648 00af 00       		.byte	0
 649 00b0 00       		.byte	0
 650 00b1 00       		.byte	0
 651 00b2 00       		.byte	0
 652 00b3 00       		.byte	0
 653 00b4 00       		.byte	0
 654 00b5 00       		.byte	0
 655 00b6 0000     		.space	2
 656              		.type	cy_cfg_addr_table.5003, %object
 657              		.size	cy_cfg_addr_table.5003, 112
 658              	cy_cfg_addr_table.5003:
 659 00b8 01450040 		.word	1073759489
 660 00bc 04520040 		.word	1073762820
 661 00c0 02640040 		.word	1073767426
 662 00c4 02650040 		.word	1073767682
 663 00c8 02030140 		.word	1073808130
 664 00cc 01070140 		.word	1073809153
ARM GAS  C:\Users\chemi\AppData\Local\Temp\ccEevlXJ.s 			page 32


 665 00d0 6A080140 		.word	1073809514
 666 00d4 3A090140 		.word	1073809722
 667 00d8 040B0140 		.word	1073810180
 668 00dc 020D0140 		.word	1073810690
 669 00e0 04150140 		.word	1073812740
 670 00e4 01170140 		.word	1073813249
 671 00e8 21180140 		.word	1073813537
 672 00ec 4B190140 		.word	1073813835
 673 00f0 5D1A0140 		.word	1073814109
 674 00f4 521B0140 		.word	1073814354
 675 00f8 06400140 		.word	1073823750
 676 00fc 07410140 		.word	1073824007
 677 0100 02420140 		.word	1073824258
 678 0104 04430140 		.word	1073824516
 679 0108 08450140 		.word	1073825032
 680 010c 0A460140 		.word	1073825290
 681 0110 09470140 		.word	1073825545
 682 0114 07480140 		.word	1073825799
 683 0118 0C490140 		.word	1073826060
 684 011c 014C0140 		.word	1073826817
 685 0120 08500140 		.word	1073827848
 686 0124 02510140 		.word	1073828098
 687              		.type	cy_cfg_data_table.5004, %object
 688              		.size	cy_cfg_data_table.5004, 1092
 689              	cy_cfg_data_table.5004:
 690 0128 7E       		.byte	126
 691 0129 02       		.byte	2
 692 012a 10       		.byte	16
 693 012b 19       		.byte	25
 694 012c 11       		.byte	17
 695 012d 13       		.byte	19
 696 012e 19       		.byte	25
 697 012f 01       		.byte	1
 698 0130 7C       		.byte	124
 699 0131 40       		.byte	64
 700 0132 88       		.byte	-120
 701 0133 0D       		.byte	13
 702 0134 89       		.byte	-119
 703 0135 0F       		.byte	15
 704 0136 88       		.byte	-120
 705 0137 72       		.byte	114
 706 0138 8B       		.byte	-117
 707 0139 38       		.byte	56
 708 013a E2       		.byte	-30
 709 013b 08       		.byte	8
 710 013c E6       		.byte	-26
 711 013d 02       		.byte	2
 712 013e E6       		.byte	-26
 713 013f 02       		.byte	2
 714 0140 03       		.byte	3
 715 0141 07       		.byte	7
 716 0142 06       		.byte	6
 717 0143 04       		.byte	4
 718 0144 0D       		.byte	13
 719 0145 04       		.byte	4
 720 0146 0F       		.byte	15
 721 0147 08       		.byte	8
ARM GAS  C:\Users\chemi\AppData\Local\Temp\ccEevlXJ.s 			page 33


 722 0148 11       		.byte	17
 723 0149 03       		.byte	3
 724 014a 16       		.byte	22
 725 014b 04       		.byte	4
 726 014c 17       		.byte	23
 727 014d 0C       		.byte	12
 728 014e 1A       		.byte	26
 729 014f 03       		.byte	3
 730 0150 1C       		.byte	28
 731 0151 01       		.byte	1
 732 0152 21       		.byte	33
 733 0153 22       		.byte	34
 734 0154 23       		.byte	35
 735 0155 11       		.byte	17
 736 0156 2C       		.byte	44
 737 0157 08       		.byte	8
 738 0158 2D       		.byte	45
 739 0159 11       		.byte	17
 740 015a 2F       		.byte	47
 741 015b 22       		.byte	34
 742 015c 30       		.byte	48
 743 015d 01       		.byte	1
 744 015e 31       		.byte	49
 745 015f 30       		.byte	48
 746 0160 32       		.byte	50
 747 0161 04       		.byte	4
 748 0162 33       		.byte	51
 749 0163 07       		.byte	7
 750 0164 34       		.byte	52
 751 0165 08       		.byte	8
 752 0166 35       		.byte	53
 753 0167 08       		.byte	8
 754 0168 36       		.byte	54
 755 0169 02       		.byte	2
 756 016a 37       		.byte	55
 757 016b 08       		.byte	8
 758 016c 3E       		.byte	62
 759 016d 14       		.byte	20
 760 016e 3F       		.byte	63
 761 016f 10       		.byte	16
 762 0170 40       		.byte	64
 763 0171 60       		.byte	96
 764 0172 41       		.byte	65
 765 0173 05       		.byte	5
 766 0174 45       		.byte	69
 767 0175 D0       		.byte	-48
 768 0176 46       		.byte	70
 769 0177 02       		.byte	2
 770 0178 48       		.byte	72
 771 0179 07       		.byte	7
 772 017a 49       		.byte	73
 773 017b FF       		.byte	-1
 774 017c 4A       		.byte	74
 775 017d FF       		.byte	-1
 776 017e 4B       		.byte	75
 777 017f FF       		.byte	-1
 778 0180 4D       		.byte	77
ARM GAS  C:\Users\chemi\AppData\Local\Temp\ccEevlXJ.s 			page 34


 779 0181 A0       		.byte	-96
 780 0182 4F       		.byte	79
 781 0183 04       		.byte	4
 782 0184 50       		.byte	80
 783 0185 18       		.byte	24
 784 0186 52       		.byte	82
 785 0187 80       		.byte	-128
 786 0188 54       		.byte	84
 787 0189 05       		.byte	5
 788 018a 58       		.byte	88
 789 018b 04       		.byte	4
 790 018c 59       		.byte	89
 791 018d 04       		.byte	4
 792 018e 5A       		.byte	90
 793 018f 04       		.byte	4
 794 0190 5B       		.byte	91
 795 0191 04       		.byte	4
 796 0192 5C       		.byte	92
 797 0193 99       		.byte	-103
 798 0194 5D       		.byte	93
 799 0195 99       		.byte	-103
 800 0196 5F       		.byte	95
 801 0197 01       		.byte	1
 802 0198 60       		.byte	96
 803 0199 40       		.byte	64
 804 019a 62       		.byte	98
 805 019b C0       		.byte	-64
 806 019c 64       		.byte	100
 807 019d 40       		.byte	64
 808 019e 65       		.byte	101
 809 019f 40       		.byte	64
 810 01a0 66       		.byte	102
 811 01a1 C0       		.byte	-64
 812 01a2 68       		.byte	104
 813 01a3 C0       		.byte	-64
 814 01a4 6A       		.byte	106
 815 01a5 C0       		.byte	-64
 816 01a6 6C       		.byte	108
 817 01a7 C0       		.byte	-64
 818 01a8 6E       		.byte	110
 819 01a9 C0       		.byte	-64
 820 01aa 80       		.byte	-128
 821 01ab 50       		.byte	80
 822 01ac 81       		.byte	-127
 823 01ad 11       		.byte	17
 824 01ae 83       		.byte	-125
 825 01af 0A       		.byte	10
 826 01b0 88       		.byte	-120
 827 01b1 03       		.byte	3
 828 01b2 8A       		.byte	-118
 829 01b3 0C       		.byte	12
 830 01b4 8C       		.byte	-116
 831 01b5 50       		.byte	80
 832 01b6 8E       		.byte	-114
 833 01b7 A0       		.byte	-96
 834 01b8 8F       		.byte	-113
 835 01b9 09       		.byte	9
ARM GAS  C:\Users\chemi\AppData\Local\Temp\ccEevlXJ.s 			page 35


 836 01ba 90       		.byte	-112
 837 01bb 60       		.byte	96
 838 01bc 92       		.byte	-110
 839 01bd 90       		.byte	-112
 840 01be A0       		.byte	-96
 841 01bf 04       		.byte	4
 842 01c0 A1       		.byte	-95
 843 01c1 09       		.byte	9
 844 01c2 A2       		.byte	-94
 845 01c3 01       		.byte	1
 846 01c4 A3       		.byte	-93
 847 01c5 16       		.byte	22
 848 01c6 A4       		.byte	-92
 849 01c7 05       		.byte	5
 850 01c8 A6       		.byte	-90
 851 01c9 0A       		.byte	10
 852 01ca AC       		.byte	-84
 853 01cb 08       		.byte	8
 854 01cc AE       		.byte	-82
 855 01cd 02       		.byte	2
 856 01ce B0       		.byte	-80
 857 01cf 30       		.byte	48
 858 01d0 B1       		.byte	-79
 859 01d1 04       		.byte	4
 860 01d2 B2       		.byte	-78
 861 01d3 0F       		.byte	15
 862 01d4 B3       		.byte	-77
 863 01d5 03       		.byte	3
 864 01d6 B4       		.byte	-76
 865 01d7 C0       		.byte	-64
 866 01d8 B5       		.byte	-75
 867 01d9 18       		.byte	24
 868 01da B8       		.byte	-72
 869 01db 22       		.byte	34
 870 01dc B9       		.byte	-71
 871 01dd 28       		.byte	40
 872 01de BB       		.byte	-69
 873 01df 02       		.byte	2
 874 01e0 BE       		.byte	-66
 875 01e1 11       		.byte	17
 876 01e2 BF       		.byte	-65
 877 01e3 14       		.byte	20
 878 01e4 C0       		.byte	-64
 879 01e5 42       		.byte	66
 880 01e6 C1       		.byte	-63
 881 01e7 03       		.byte	3
 882 01e8 C5       		.byte	-59
 883 01e9 E0       		.byte	-32
 884 01ea C6       		.byte	-58
 885 01eb CE       		.byte	-50
 886 01ec C7       		.byte	-57
 887 01ed 0B       		.byte	11
 888 01ee C8       		.byte	-56
 889 01ef 1E       		.byte	30
 890 01f0 C9       		.byte	-55
 891 01f1 FF       		.byte	-1
 892 01f2 CA       		.byte	-54
ARM GAS  C:\Users\chemi\AppData\Local\Temp\ccEevlXJ.s 			page 36


 893 01f3 FF       		.byte	-1
 894 01f4 CB       		.byte	-53
 895 01f5 FF       		.byte	-1
 896 01f6 CE       		.byte	-50
 897 01f7 F0       		.byte	-16
 898 01f8 CF       		.byte	-49
 899 01f9 44       		.byte	68
 900 01fa D0       		.byte	-48
 901 01fb 0C       		.byte	12
 902 01fc D4       		.byte	-44
 903 01fd 01       		.byte	1
 904 01fe D6       		.byte	-42
 905 01ff 04       		.byte	4
 906 0200 D8       		.byte	-40
 907 0201 04       		.byte	4
 908 0202 D9       		.byte	-39
 909 0203 04       		.byte	4
 910 0204 DA       		.byte	-38
 911 0205 04       		.byte	4
 912 0206 DB       		.byte	-37
 913 0207 04       		.byte	4
 914 0208 DC       		.byte	-36
 915 0209 21       		.byte	33
 916 020a DD       		.byte	-35
 917 020b 11       		.byte	17
 918 020c DF       		.byte	-33
 919 020d 01       		.byte	1
 920 020e E6       		.byte	-26
 921 020f C0       		.byte	-64
 922 0210 EA       		.byte	-22
 923 0211 40       		.byte	64
 924 0212 EB       		.byte	-21
 925 0213 02       		.byte	2
 926 0214 01       		.byte	1
 927 0215 42       		.byte	66
 928 0216 03       		.byte	3
 929 0217 08       		.byte	8
 930 0218 04       		.byte	4
 931 0219 20       		.byte	32
 932 021a 05       		.byte	5
 933 021b 24       		.byte	36
 934 021c 09       		.byte	9
 935 021d 02       		.byte	2
 936 021e 0E       		.byte	14
 937 021f 02       		.byte	2
 938 0220 0F       		.byte	15
 939 0221 28       		.byte	40
 940 0222 10       		.byte	16
 941 0223 21       		.byte	33
 942 0224 11       		.byte	17
 943 0225 01       		.byte	1
 944 0226 15       		.byte	21
 945 0227 80       		.byte	-128
 946 0228 19       		.byte	25
 947 0229 08       		.byte	8
 948 022a 1B       		.byte	27
 949 022b 21       		.byte	33
ARM GAS  C:\Users\chemi\AppData\Local\Temp\ccEevlXJ.s 			page 37


 950 022c 1E       		.byte	30
 951 022d 46       		.byte	70
 952 022e 1F       		.byte	31
 953 022f 04       		.byte	4
 954 0230 21       		.byte	33
 955 0231 03       		.byte	3
 956 0232 22       		.byte	34
 957 0233 10       		.byte	16
 958 0234 23       		.byte	35
 959 0235 20       		.byte	32
 960 0236 25       		.byte	37
 961 0237 40       		.byte	64
 962 0238 26       		.byte	38
 963 0239 0A       		.byte	10
 964 023a 27       		.byte	39
 965 023b 08       		.byte	8
 966 023c 29       		.byte	41
 967 023d 02       		.byte	2
 968 023e 2C       		.byte	44
 969 023f 01       		.byte	1
 970 0240 2D       		.byte	45
 971 0241 01       		.byte	1
 972 0242 36       		.byte	54
 973 0243 0A       		.byte	10
 974 0244 39       		.byte	57
 975 0245 42       		.byte	66
 976 0246 3C       		.byte	60
 977 0247 02       		.byte	2
 978 0248 3F       		.byte	63
 979 0249 80       		.byte	-128
 980 024a 40       		.byte	64
 981 024b 44       		.byte	68
 982 024c 41       		.byte	65
 983 024d 08       		.byte	8
 984 024e 49       		.byte	73
 985 024f 01       		.byte	1
 986 0250 4E       		.byte	78
 987 0251 08       		.byte	8
 988 0252 4F       		.byte	79
 989 0253 89       		.byte	-119
 990 0254 50       		.byte	80
 991 0255 18       		.byte	24
 992 0256 51       		.byte	81
 993 0257 40       		.byte	64
 994 0258 57       		.byte	87
 995 0259 40       		.byte	64
 996 025a 58       		.byte	88
 997 025b 80       		.byte	-128
 998 025c 59       		.byte	89
 999 025d 21       		.byte	33
 1000 025e 5A       		.byte	90
 1001 025f 04       		.byte	4
 1002 0260 5E       		.byte	94
 1003 0261 40       		.byte	64
 1004 0262 5F       		.byte	95
 1005 0263 09       		.byte	9
 1006 0264 63       		.byte	99
ARM GAS  C:\Users\chemi\AppData\Local\Temp\ccEevlXJ.s 			page 38


 1007 0265 40       		.byte	64
 1008 0266 69       		.byte	105
 1009 0267 40       		.byte	64
 1010 0268 74       		.byte	116
 1011 0269 01       		.byte	1
 1012 026a 87       		.byte	-121
 1013 026b 40       		.byte	64
 1014 026c 88       		.byte	-120
 1015 026d 84       		.byte	-124
 1016 026e 8F       		.byte	-113
 1017 026f 20       		.byte	32
 1018 0270 96       		.byte	-106
 1019 0271 20       		.byte	32
 1020 0272 A7       		.byte	-89
 1021 0273 21       		.byte	33
 1022 0274 C0       		.byte	-64
 1023 0275 2B       		.byte	43
 1024 0276 C2       		.byte	-62
 1025 0277 E8       		.byte	-24
 1026 0278 C4       		.byte	-60
 1027 0279 8D       		.byte	-115
 1028 027a CA       		.byte	-54
 1029 027b 91       		.byte	-111
 1030 027c CC       		.byte	-52
 1031 027d C0       		.byte	-64
 1032 027e CE       		.byte	-50
 1033 027f 99       		.byte	-103
 1034 0280 D0       		.byte	-48
 1035 0281 07       		.byte	7
 1036 0282 D2       		.byte	-46
 1037 0283 30       		.byte	48
 1038 0284 D6       		.byte	-42
 1039 0285 DF       		.byte	-33
 1040 0286 D8       		.byte	-40
 1041 0287 01       		.byte	1
 1042 0288 82       		.byte	-126
 1043 0289 10       		.byte	16
 1044 028a 8B       		.byte	-117
 1045 028b 01       		.byte	1
 1046 028c 8F       		.byte	-113
 1047 028d 20       		.byte	32
 1048 028e E4       		.byte	-28
 1049 028f 04       		.byte	4
 1050 0290 E2       		.byte	-30
 1051 0291 08       		.byte	8
 1052 0292 E6       		.byte	-26
 1053 0293 02       		.byte	2
 1054 0294 E0       		.byte	-32
 1055 0295 20       		.byte	32
 1056 0296 E6       		.byte	-26
 1057 0297 0C       		.byte	12
 1058 0298 E8       		.byte	-24
 1059 0299 20       		.byte	32
 1060 029a EC       		.byte	-20
 1061 029b 08       		.byte	8
 1062 029c EA       		.byte	-22
 1063 029d 02       		.byte	2
ARM GAS  C:\Users\chemi\AppData\Local\Temp\ccEevlXJ.s 			page 39


 1064 029e 83       		.byte	-125
 1065 029f 08       		.byte	8
 1066 02a0 84       		.byte	-124
 1067 02a1 10       		.byte	16
 1068 02a2 87       		.byte	-121
 1069 02a3 35       		.byte	53
 1070 02a4 89       		.byte	-119
 1071 02a5 03       		.byte	3
 1072 02a6 8A       		.byte	-118
 1073 02a7 03       		.byte	3
 1074 02a8 8B       		.byte	-117
 1075 02a9 14       		.byte	20
 1076 02aa 8C       		.byte	-116
 1077 02ab 10       		.byte	16
 1078 02ac 8D       		.byte	-115
 1079 02ad 73       		.byte	115
 1080 02ae 8E       		.byte	-114
 1081 02af 0C       		.byte	12
 1082 02b0 8F       		.byte	-113
 1083 02b1 0C       		.byte	12
 1084 02b2 94       		.byte	-108
 1085 02b3 0C       		.byte	12
 1086 02b4 95       		.byte	-107
 1087 02b5 73       		.byte	115
 1088 02b6 96       		.byte	-106
 1089 02b7 11       		.byte	17
 1090 02b8 97       		.byte	-105
 1091 02b9 04       		.byte	4
 1092 02ba 99       		.byte	-103
 1093 02bb 4A       		.byte	74
 1094 02bc 9B       		.byte	-101
 1095 02bd 14       		.byte	20
 1096 02be A4       		.byte	-92
 1097 02bf 1C       		.byte	28
 1098 02c0 A6       		.byte	-90
 1099 02c1 02       		.byte	2
 1100 02c2 A8       		.byte	-88
 1101 02c3 14       		.byte	20
 1102 02c4 AC       		.byte	-84
 1103 02c5 09       		.byte	9
 1104 02c6 AE       		.byte	-82
 1105 02c7 10       		.byte	16
 1106 02c8 B1       		.byte	-79
 1107 02c9 0F       		.byte	15
 1108 02ca B2       		.byte	-78
 1109 02cb 1F       		.byte	31
 1110 02cc B3       		.byte	-77
 1111 02cd 60       		.byte	96
 1112 02ce B5       		.byte	-75
 1113 02cf 10       		.byte	16
 1114 02d0 B9       		.byte	-71
 1115 02d1 08       		.byte	8
 1116 02d2 BB       		.byte	-69
 1117 02d3 02       		.byte	2
 1118 02d4 BF       		.byte	-65
 1119 02d5 14       		.byte	20
 1120 02d6 D8       		.byte	-40
ARM GAS  C:\Users\chemi\AppData\Local\Temp\ccEevlXJ.s 			page 40


 1121 02d7 04       		.byte	4
 1122 02d8 D9       		.byte	-39
 1123 02d9 04       		.byte	4
 1124 02da DB       		.byte	-37
 1125 02db 04       		.byte	4
 1126 02dc DC       		.byte	-36
 1127 02dd 11       		.byte	17
 1128 02de DF       		.byte	-33
 1129 02df 01       		.byte	1
 1130 02e0 00       		.byte	0
 1131 02e1 50       		.byte	80
 1132 02e2 02       		.byte	2
 1133 02e3 10       		.byte	16
 1134 02e4 06       		.byte	6
 1135 02e5 80       		.byte	-128
 1136 02e6 07       		.byte	7
 1137 02e7 28       		.byte	40
 1138 02e8 09       		.byte	9
 1139 02e9 08       		.byte	8
 1140 02ea 0E       		.byte	14
 1141 02eb 8A       		.byte	-118
 1142 02ec 0F       		.byte	15
 1143 02ed 10       		.byte	16
 1144 02ee 10       		.byte	16
 1145 02ef 18       		.byte	24
 1146 02f0 12       		.byte	18
 1147 02f1 01       		.byte	1
 1148 02f2 14       		.byte	20
 1149 02f3 40       		.byte	64
 1150 02f4 16       		.byte	22
 1151 02f5 0A       		.byte	10
 1152 02f6 18       		.byte	24
 1153 02f7 10       		.byte	16
 1154 02f8 1D       		.byte	29
 1155 02f9 16       		.byte	22
 1156 02fa 1E       		.byte	30
 1157 02fb 80       		.byte	-128
 1158 02fc 20       		.byte	32
 1159 02fd 48       		.byte	72
 1160 02fe 22       		.byte	34
 1161 02ff 08       		.byte	8
 1162 0300 23       		.byte	35
 1163 0301 40       		.byte	64
 1164 0302 26       		.byte	38
 1165 0303 10       		.byte	16
 1166 0304 27       		.byte	39
 1167 0305 92       		.byte	-110
 1168 0306 2C       		.byte	44
 1169 0307 40       		.byte	64
 1170 0308 2E       		.byte	46
 1171 0309 80       		.byte	-128
 1172 030a 2F       		.byte	47
 1173 030b 6A       		.byte	106
 1174 030c 30       		.byte	48
 1175 030d 10       		.byte	16
 1176 030e 31       		.byte	49
 1177 030f 08       		.byte	8
ARM GAS  C:\Users\chemi\AppData\Local\Temp\ccEevlXJ.s 			page 41


 1178 0310 32       		.byte	50
 1179 0311 10       		.byte	16
 1180 0312 34       		.byte	52
 1181 0313 01       		.byte	1
 1182 0314 36       		.byte	54
 1183 0315 24       		.byte	36
 1184 0316 37       		.byte	55
 1185 0317 82       		.byte	-126
 1186 0318 38       		.byte	56
 1187 0319 6C       		.byte	108
 1188 031a 39       		.byte	57
 1189 031b 02       		.byte	2
 1190 031c 3A       		.byte	58
 1191 031d 01       		.byte	1
 1192 031e 3C       		.byte	60
 1193 031f 20       		.byte	32
 1194 0320 3D       		.byte	61
 1195 0321 09       		.byte	9
 1196 0322 3E       		.byte	62
 1197 0323 20       		.byte	32
 1198 0324 3F       		.byte	63
 1199 0325 12       		.byte	18
 1200 0326 45       		.byte	69
 1201 0327 02       		.byte	2
 1202 0328 46       		.byte	70
 1203 0329 20       		.byte	32
 1204 032a 47       		.byte	71
 1205 032b 10       		.byte	16
 1206 032c 4E       		.byte	78
 1207 032d 06       		.byte	6
 1208 032e 56       		.byte	86
 1209 032f 08       		.byte	8
 1210 0330 57       		.byte	87
 1211 0331 10       		.byte	16
 1212 0332 58       		.byte	88
 1213 0333 80       		.byte	-128
 1214 0334 5E       		.byte	94
 1215 0335 20       		.byte	32
 1216 0336 6E       		.byte	110
 1217 0337 14       		.byte	20
 1218 0338 6F       		.byte	111
 1219 0339 01       		.byte	1
 1220 033a 76       		.byte	118
 1221 033b 02       		.byte	2
 1222 033c 77       		.byte	119
 1223 033d 28       		.byte	40
 1224 033e 7D       		.byte	125
 1225 033f 80       		.byte	-128
 1226 0340 88       		.byte	-120
 1227 0341 40       		.byte	64
 1228 0342 8A       		.byte	-118
 1229 0343 04       		.byte	4
 1230 0344 8D       		.byte	-115
 1231 0345 10       		.byte	16
 1232 0346 8F       		.byte	-113
 1233 0347 01       		.byte	1
 1234 0348 90       		.byte	-112
ARM GAS  C:\Users\chemi\AppData\Local\Temp\ccEevlXJ.s 			page 42


 1235 0349 20       		.byte	32
 1236 034a 93       		.byte	-109
 1237 034b 08       		.byte	8
 1238 034c 94       		.byte	-108
 1239 034d 44       		.byte	68
 1240 034e 95       		.byte	-107
 1241 034f 01       		.byte	1
 1242 0350 99       		.byte	-103
 1243 0351 08       		.byte	8
 1244 0352 9C       		.byte	-100
 1245 0353 01       		.byte	1
 1246 0354 9D       		.byte	-99
 1247 0355 06       		.byte	6
 1248 0356 A0       		.byte	-96
 1249 0357 08       		.byte	8
 1250 0358 A1       		.byte	-95
 1251 0359 40       		.byte	64
 1252 035a A4       		.byte	-92
 1253 035b 24       		.byte	36
 1254 035c A5       		.byte	-91
 1255 035d 08       		.byte	8
 1256 035e A7       		.byte	-89
 1257 035f 18       		.byte	24
 1258 0360 C0       		.byte	-64
 1259 0361 77       		.byte	119
 1260 0362 C2       		.byte	-62
 1261 0363 F4       		.byte	-12
 1262 0364 C4       		.byte	-60
 1263 0365 D7       		.byte	-41
 1264 0366 CA       		.byte	-54
 1265 0367 F0       		.byte	-16
 1266 0368 CC       		.byte	-52
 1267 0369 F6       		.byte	-10
 1268 036a CE       		.byte	-50
 1269 036b EF       		.byte	-17
 1270 036c D0       		.byte	-48
 1271 036d E0       		.byte	-32
 1272 036e D2       		.byte	-46
 1273 036f 30       		.byte	48
 1274 0370 D6       		.byte	-42
 1275 0371 28       		.byte	40
 1276 0372 DE       		.byte	-34
 1277 0373 10       		.byte	16
 1278 0374 EA       		.byte	-22
 1279 0375 02       		.byte	2
 1280 0376 03       		.byte	3
 1281 0377 1C       		.byte	28
 1282 0378 05       		.byte	5
 1283 0379 40       		.byte	64
 1284 037a 07       		.byte	7
 1285 037b 03       		.byte	3
 1286 037c 08       		.byte	8
 1287 037d 15       		.byte	21
 1288 037e 0A       		.byte	10
 1289 037f 2A       		.byte	42
 1290 0380 0B       		.byte	11
 1291 0381 08       		.byte	8
ARM GAS  C:\Users\chemi\AppData\Local\Temp\ccEevlXJ.s 			page 43


 1292 0382 0D       		.byte	13
 1293 0383 21       		.byte	33
 1294 0384 0F       		.byte	15
 1295 0385 16       		.byte	22
 1296 0386 15       		.byte	21
 1297 0387 21       		.byte	33
 1298 0388 17       		.byte	23
 1299 0389 0E       		.byte	14
 1300 038a 19       		.byte	25
 1301 038b 1C       		.byte	28
 1302 038c 1B       		.byte	27
 1303 038d 23       		.byte	35
 1304 038e 20       		.byte	32
 1305 038f 09       		.byte	9
 1306 0390 22       		.byte	34
 1307 0391 12       		.byte	18
 1308 0392 28       		.byte	40
 1309 0393 24       		.byte	36
 1310 0394 2A       		.byte	42
 1311 0395 12       		.byte	18
 1312 0396 2C       		.byte	44
 1313 0397 07       		.byte	7
 1314 0398 2E       		.byte	46
 1315 0399 38       		.byte	56
 1316 039a 31       		.byte	49
 1317 039b 60       		.byte	96
 1318 039c 33       		.byte	51
 1319 039d 1A       		.byte	26
 1320 039e 34       		.byte	52
 1321 039f 3F       		.byte	63
 1322 03a0 35       		.byte	53
 1323 03a1 0F       		.byte	15
 1324 03a2 39       		.byte	57
 1325 03a3 02       		.byte	2
 1326 03a4 3A       		.byte	58
 1327 03a5 03       		.byte	3
 1328 03a6 3B       		.byte	59
 1329 03a7 28       		.byte	40
 1330 03a8 3E       		.byte	62
 1331 03a9 10       		.byte	16
 1332 03aa 40       		.byte	64
 1333 03ab 06       		.byte	6
 1334 03ac 46       		.byte	70
 1335 03ad 40       		.byte	64
 1336 03ae 49       		.byte	73
 1337 03af FF       		.byte	-1
 1338 03b0 4A       		.byte	74
 1339 03b1 07       		.byte	7
 1340 03b2 4B       		.byte	75
 1341 03b3 FF       		.byte	-1
 1342 03b4 4C       		.byte	76
 1343 03b5 40       		.byte	64
 1344 03b6 4D       		.byte	77
 1345 03b7 20       		.byte	32
 1346 03b8 4E       		.byte	78
 1347 03b9 F0       		.byte	-16
 1348 03ba 4F       		.byte	79
ARM GAS  C:\Users\chemi\AppData\Local\Temp\ccEevlXJ.s 			page 44


 1349 03bb 05       		.byte	5
 1350 03bc 50       		.byte	80
 1351 03bd 08       		.byte	8
 1352 03be 56       		.byte	86
 1353 03bf 08       		.byte	8
 1354 03c0 58       		.byte	88
 1355 03c1 04       		.byte	4
 1356 03c2 59       		.byte	89
 1357 03c3 04       		.byte	4
 1358 03c4 5A       		.byte	90
 1359 03c5 04       		.byte	4
 1360 03c6 5B       		.byte	91
 1361 03c7 04       		.byte	4
 1362 03c8 5C       		.byte	92
 1363 03c9 12       		.byte	18
 1364 03ca 5D       		.byte	93
 1365 03cb 91       		.byte	-111
 1366 03cc 5F       		.byte	95
 1367 03cd 01       		.byte	1
 1368 03ce 60       		.byte	96
 1369 03cf 40       		.byte	64
 1370 03d0 61       		.byte	97
 1371 03d1 A8       		.byte	-88
 1372 03d2 62       		.byte	98
 1373 03d3 40       		.byte	64
 1374 03d4 63       		.byte	99
 1375 03d5 20       		.byte	32
 1376 03d6 80       		.byte	-128
 1377 03d7 11       		.byte	17
 1378 03d8 81       		.byte	-127
 1379 03d9 03       		.byte	3
 1380 03da 85       		.byte	-123
 1381 03db FC       		.byte	-4
 1382 03dc 86       		.byte	-122
 1383 03dd 10       		.byte	16
 1384 03de 88       		.byte	-120
 1385 03df 04       		.byte	4
 1386 03e0 89       		.byte	-119
 1387 03e1 FC       		.byte	-4
 1388 03e2 8C       		.byte	-116
 1389 03e3 08       		.byte	8
 1390 03e4 8F       		.byte	-113
 1391 03e5 03       		.byte	3
 1392 03e6 91       		.byte	-111
 1393 03e7 80       		.byte	-128
 1394 03e8 92       		.byte	-110
 1395 03e9 E3       		.byte	-29
 1396 03ea 94       		.byte	-108
 1397 03eb FF       		.byte	-1
 1398 03ec 97       		.byte	-105
 1399 03ed 03       		.byte	3
 1400 03ee 98       		.byte	-104
 1401 03ef 1C       		.byte	28
 1402 03f0 99       		.byte	-103
 1403 03f1 52       		.byte	82
 1404 03f2 9A       		.byte	-102
 1405 03f3 C3       		.byte	-61
ARM GAS  C:\Users\chemi\AppData\Local\Temp\ccEevlXJ.s 			page 45


 1406 03f4 9B       		.byte	-101
 1407 03f5 28       		.byte	40
 1408 03f6 9C       		.byte	-100
 1409 03f7 F3       		.byte	-13
 1410 03f8 9D       		.byte	-99
 1411 03f9 25       		.byte	37
 1412 03fa 9E       		.byte	-98
 1413 03fb 0C       		.byte	12
 1414 03fc 9F       		.byte	-97
 1415 03fd 48       		.byte	72
 1416 03fe A0       		.byte	-96
 1417 03ff 1F       		.byte	31
 1418 0400 A2       		.byte	-94
 1419 0401 A0       		.byte	-96
 1420 0402 A4       		.byte	-92
 1421 0403 03       		.byte	3
 1422 0404 A5       		.byte	-91
 1423 0405 0B       		.byte	11
 1424 0406 A7       		.byte	-89
 1425 0407 14       		.byte	20
 1426 0408 A8       		.byte	-88
 1427 0409 0C       		.byte	12
 1428 040a A9       		.byte	-87
 1429 040b 03       		.byte	3
 1430 040c AC       		.byte	-84
 1431 040d 02       		.byte	2
 1432 040e AF       		.byte	-81
 1433 040f 03       		.byte	3
 1434 0410 B0       		.byte	-80
 1435 0411 8C       		.byte	-116
 1436 0412 B1       		.byte	-79
 1437 0413 80       		.byte	-128
 1438 0414 B3       		.byte	-77
 1439 0415 1C       		.byte	28
 1440 0416 B4       		.byte	-76
 1441 0417 7C       		.byte	124
 1442 0418 B5       		.byte	-75
 1443 0419 60       		.byte	96
 1444 041a B6       		.byte	-74
 1445 041b 0F       		.byte	15
 1446 041c B7       		.byte	-73
 1447 041d 03       		.byte	3
 1448 041e BA       		.byte	-70
 1449 041f AA       		.byte	-86
 1450 0420 D4       		.byte	-44
 1451 0421 18       		.byte	24
 1452 0422 D6       		.byte	-42
 1453 0423 04       		.byte	4
 1454 0424 D8       		.byte	-40
 1455 0425 04       		.byte	4
 1456 0426 D9       		.byte	-39
 1457 0427 04       		.byte	4
 1458 0428 DB       		.byte	-37
 1459 0429 04       		.byte	4
 1460 042a DC       		.byte	-36
 1461 042b 11       		.byte	17
 1462 042c DD       		.byte	-35
ARM GAS  C:\Users\chemi\AppData\Local\Temp\ccEevlXJ.s 			page 46


 1463 042d 10       		.byte	16
 1464 042e DF       		.byte	-33
 1465 042f 01       		.byte	1
 1466 0430 00       		.byte	0
 1467 0431 10       		.byte	16
 1468 0432 05       		.byte	5
 1469 0433 08       		.byte	8
 1470 0434 06       		.byte	6
 1471 0435 02       		.byte	2
 1472 0436 07       		.byte	7
 1473 0437 88       		.byte	-120
 1474 0438 0E       		.byte	14
 1475 0439 29       		.byte	41
 1476 043a 0F       		.byte	15
 1477 043b 80       		.byte	-128
 1478 043c 10       		.byte	16
 1479 043d 80       		.byte	-128
 1480 043e 11       		.byte	17
 1481 043f 5C       		.byte	92
 1482 0440 15       		.byte	21
 1483 0441 04       		.byte	4
 1484 0442 16       		.byte	22
 1485 0443 80       		.byte	-128
 1486 0444 17       		.byte	23
 1487 0445 60       		.byte	96
 1488 0446 19       		.byte	25
 1489 0447 12       		.byte	18
 1490 0448 1C       		.byte	28
 1491 0449 20       		.byte	32
 1492 044a 1E       		.byte	30
 1493 044b 29       		.byte	41
 1494 044c 1F       		.byte	31
 1495 044d 42       		.byte	66
 1496 044e 21       		.byte	33
 1497 044f 09       		.byte	9
 1498 0450 22       		.byte	34
 1499 0451 10       		.byte	16
 1500 0452 24       		.byte	36
 1501 0453 40       		.byte	64
 1502 0454 25       		.byte	37
 1503 0455 04       		.byte	4
 1504 0456 26       		.byte	38
 1505 0457 23       		.byte	35
 1506 0458 27       		.byte	39
 1507 0459 02       		.byte	2
 1508 045a 2D       		.byte	45
 1509 045b 04       		.byte	4
 1510 045c 2E       		.byte	46
 1511 045d A0       		.byte	-96
 1512 045e 2F       		.byte	47
 1513 045f 02       		.byte	2
 1514 0460 31       		.byte	49
 1515 0461 08       		.byte	8
 1516 0462 32       		.byte	50
 1517 0463 10       		.byte	16
 1518 0464 36       		.byte	54
 1519 0465 24       		.byte	36
ARM GAS  C:\Users\chemi\AppData\Local\Temp\ccEevlXJ.s 			page 47


 1520 0466 37       		.byte	55
 1521 0467 81       		.byte	-127
 1522 0468 38       		.byte	56
 1523 0469 08       		.byte	8
 1524 046a 39       		.byte	57
 1525 046b 02       		.byte	2
 1526 046c 3A       		.byte	58
 1527 046d 10       		.byte	16
 1528 046e 3B       		.byte	59
 1529 046f 40       		.byte	64
 1530 0470 3C       		.byte	60
 1531 0471 40       		.byte	64
 1532 0472 3E       		.byte	62
 1533 0473 15       		.byte	21
 1534 0474 3F       		.byte	63
 1535 0475 80       		.byte	-128
 1536 0476 4A       		.byte	74
 1537 0477 08       		.byte	8
 1538 0478 50       		.byte	80
 1539 0479 04       		.byte	4
 1540 047a 52       		.byte	82
 1541 047b 10       		.byte	16
 1542 047c 58       		.byte	88
 1543 047d 80       		.byte	-128
 1544 047e 5F       		.byte	95
 1545 047f 02       		.byte	2
 1546 0480 63       		.byte	99
 1547 0481 02       		.byte	2
 1548 0482 64       		.byte	100
 1549 0483 40       		.byte	64
 1550 0484 67       		.byte	103
 1551 0485 0A       		.byte	10
 1552 0486 6C       		.byte	108
 1553 0487 A0       		.byte	-96
 1554 0488 6D       		.byte	109
 1555 0489 40       		.byte	64
 1556 048a 6F       		.byte	111
 1557 048b 28       		.byte	40
 1558 048c 81       		.byte	-127
 1559 048d 10       		.byte	16
 1560 048e 82       		.byte	-126
 1561 048f 20       		.byte	32
 1562 0490 83       		.byte	-125
 1563 0491 40       		.byte	64
 1564 0492 84       		.byte	-124
 1565 0493 40       		.byte	64
 1566 0494 88       		.byte	-120
 1567 0495 80       		.byte	-128
 1568 0496 90       		.byte	-112
 1569 0497 10       		.byte	16
 1570 0498 91       		.byte	-111
 1571 0499 10       		.byte	16
 1572 049a 92       		.byte	-110
 1573 049b 14       		.byte	20
 1574 049c 93       		.byte	-109
 1575 049d 4A       		.byte	74
 1576 049e 94       		.byte	-108
ARM GAS  C:\Users\chemi\AppData\Local\Temp\ccEevlXJ.s 			page 48


 1577 049f 08       		.byte	8
 1578 04a0 95       		.byte	-107
 1579 04a1 02       		.byte	2
 1580 04a2 96       		.byte	-106
 1581 04a3 20       		.byte	32
 1582 04a4 97       		.byte	-105
 1583 04a5 80       		.byte	-128
 1584 04a6 99       		.byte	-103
 1585 04a7 08       		.byte	8
 1586 04a8 9A       		.byte	-102
 1587 04a9 22       		.byte	34
 1588 04aa 9B       		.byte	-101
 1589 04ab A9       		.byte	-87
 1590 04ac 9D       		.byte	-99
 1591 04ad 02       		.byte	2
 1592 04ae 9E       		.byte	-98
 1593 04af 10       		.byte	16
 1594 04b0 A2       		.byte	-94
 1595 04b1 08       		.byte	8
 1596 04b2 A4       		.byte	-92
 1597 04b3 30       		.byte	48
 1598 04b4 A5       		.byte	-91
 1599 04b5 0C       		.byte	12
 1600 04b6 A6       		.byte	-90
 1601 04b7 27       		.byte	39
 1602 04b8 A7       		.byte	-89
 1603 04b9 2B       		.byte	43
 1604 04ba AD       		.byte	-83
 1605 04bb 10       		.byte	16
 1606 04bc B0       		.byte	-80
 1607 04bd 80       		.byte	-128
 1608 04be C0       		.byte	-64
 1609 04bf F2       		.byte	-14
 1610 04c0 C2       		.byte	-62
 1611 04c1 F0       		.byte	-16
 1612 04c2 C4       		.byte	-60
 1613 04c3 FB       		.byte	-5
 1614 04c4 CA       		.byte	-54
 1615 04c5 70       		.byte	112
 1616 04c6 CC       		.byte	-52
 1617 04c7 F6       		.byte	-10
 1618 04c8 CE       		.byte	-50
 1619 04c9 FF       		.byte	-1
 1620 04ca D2       		.byte	-46
 1621 04cb 04       		.byte	4
 1622 04cc D6       		.byte	-42
 1623 04cd 88       		.byte	-120
 1624 04ce D8       		.byte	-40
 1625 04cf B8       		.byte	-72
 1626 04d0 E0       		.byte	-32
 1627 04d1 20       		.byte	32
 1628 04d2 E8       		.byte	-24
 1629 04d3 20       		.byte	32
 1630 04d4 30       		.byte	48
 1631 04d5 40       		.byte	64
 1632 04d6 33       		.byte	51
 1633 04d7 01       		.byte	1
ARM GAS  C:\Users\chemi\AppData\Local\Temp\ccEevlXJ.s 			page 49


 1634 04d8 34       		.byte	52
 1635 04d9 12       		.byte	18
 1636 04da 3B       		.byte	59
 1637 04db 10       		.byte	16
 1638 04dc CC       		.byte	-52
 1639 04dd F0       		.byte	-16
 1640 04de CE       		.byte	-50
 1641 04df 10       		.byte	16
 1642 04e0 84       		.byte	-124
 1643 04e1 02       		.byte	2
 1644 04e2 87       		.byte	-121
 1645 04e3 10       		.byte	16
 1646 04e4 97       		.byte	-105
 1647 04e5 10       		.byte	16
 1648 04e6 9C       		.byte	-100
 1649 04e7 52       		.byte	82
 1650 04e8 9F       		.byte	-97
 1651 04e9 01       		.byte	1
 1652 04ea E2       		.byte	-30
 1653 04eb 10       		.byte	16
 1654 04ec E6       		.byte	-26
 1655 04ed 40       		.byte	64
 1656 04ee 9C       		.byte	-100
 1657 04ef 50       		.byte	80
 1658 04f0 9F       		.byte	-97
 1659 04f1 01       		.byte	1
 1660 04f2 84       		.byte	-124
 1661 04f3 10       		.byte	16
 1662 04f4 9C       		.byte	-100
 1663 04f5 50       		.byte	80
 1664 04f6 9F       		.byte	-97
 1665 04f7 01       		.byte	1
 1666 04f8 E6       		.byte	-26
 1667 04f9 40       		.byte	64
 1668 04fa 57       		.byte	87
 1669 04fb 20       		.byte	32
 1670 04fc 5B       		.byte	91
 1671 04fd 80       		.byte	-128
 1672 04fe 5D       		.byte	93
 1673 04ff 40       		.byte	64
 1674 0500 67       		.byte	103
 1675 0501 08       		.byte	8
 1676 0502 86       		.byte	-122
 1677 0503 41       		.byte	65
 1678 0504 D4       		.byte	-44
 1679 0505 03       		.byte	3
 1680 0506 D6       		.byte	-42
 1681 0507 04       		.byte	4
 1682 0508 D8       		.byte	-40
 1683 0509 01       		.byte	1
 1684 050a 83       		.byte	-125
 1685 050b 20       		.byte	32
 1686 050c 8B       		.byte	-117
 1687 050d 04       		.byte	4
 1688 050e 8D       		.byte	-115
 1689 050f 40       		.byte	64
 1690 0510 95       		.byte	-107
ARM GAS  C:\Users\chemi\AppData\Local\Temp\ccEevlXJ.s 			page 50


 1691 0511 40       		.byte	64
 1692 0512 96       		.byte	-106
 1693 0513 01       		.byte	1
 1694 0514 97       		.byte	-105
 1695 0515 08       		.byte	8
 1696 0516 9F       		.byte	-97
 1697 0517 80       		.byte	-128
 1698 0518 A6       		.byte	-90
 1699 0519 40       		.byte	64
 1700 051a A7       		.byte	-89
 1701 051b 20       		.byte	32
 1702 051c E0       		.byte	-32
 1703 051d 03       		.byte	3
 1704 051e 09       		.byte	9
 1705 051f 08       		.byte	8
 1706 0520 0A       		.byte	10
 1707 0521 01       		.byte	1
 1708 0522 0E       		.byte	14
 1709 0523 80       		.byte	-128
 1710 0524 8F       		.byte	-113
 1711 0525 80       		.byte	-128
 1712 0526 96       		.byte	-106
 1713 0527 01       		.byte	1
 1714 0528 9F       		.byte	-97
 1715 0529 80       		.byte	-128
 1716 052a A6       		.byte	-90
 1717 052b 40       		.byte	64
 1718 052c C2       		.byte	-62
 1719 052d 0E       		.byte	14
 1720 052e E4       		.byte	-28
 1721 052f 08       		.byte	8
 1722 0530 00       		.byte	0
 1723 0531 08       		.byte	8
 1724 0532 22       		.byte	34
 1725 0533 04       		.byte	4
 1726 0534 9C       		.byte	-100
 1727 0535 40       		.byte	64
 1728 0536 AF       		.byte	-81
 1729 0537 01       		.byte	1
 1730 0538 C0       		.byte	-64
 1731 0539 10       		.byte	16
 1732 053a C8       		.byte	-56
 1733 053b 40       		.byte	64
 1734 053c EA       		.byte	-22
 1735 053d 40       		.byte	64
 1736 053e 0B       		.byte	11
 1737 053f 20       		.byte	32
 1738 0540 53       		.byte	83
 1739 0541 01       		.byte	1
 1740 0542 83       		.byte	-125
 1741 0543 01       		.byte	1
 1742 0544 84       		.byte	-124
 1743 0545 40       		.byte	64
 1744 0546 8B       		.byte	-117
 1745 0547 10       		.byte	16
 1746 0548 9C       		.byte	-100
 1747 0549 40       		.byte	64
ARM GAS  C:\Users\chemi\AppData\Local\Temp\ccEevlXJ.s 			page 51


 1748 054a AE       		.byte	-82
 1749 054b 04       		.byte	4
 1750 054c B0       		.byte	-80
 1751 054d 04       		.byte	4
 1752 054e C2       		.byte	-62
 1753 054f 10       		.byte	16
 1754 0550 D4       		.byte	-44
 1755 0551 80       		.byte	-128
 1756 0552 E6       		.byte	-26
 1757 0553 30       		.byte	48
 1758 0554 EC       		.byte	-20
 1759 0555 10       		.byte	16
 1760 0556 AD       		.byte	-83
 1761 0557 08       		.byte	8
 1762 0558 00       		.byte	0
 1763 0559 06       		.byte	6
 1764 055a 01       		.byte	1
 1765 055b 01       		.byte	1
 1766 055c 0C       		.byte	12
 1767 055d 06       		.byte	6
 1768 055e 0D       		.byte	13
 1769 055f 01       		.byte	1
 1770 0560 10       		.byte	16
 1771 0561 06       		.byte	6
 1772 0562 11       		.byte	17
 1773 0563 01       		.byte	1
 1774 0564 1C       		.byte	28
 1775 0565 06       		.byte	6
 1776 0566 1D       		.byte	29
 1777 0567 01       		.byte	1
 1778 0568 00       		.byte	0
 1779 0569 AF       		.byte	-81
 1780 056a 01       		.byte	1
 1781 056b 02       		.byte	2
 1782              		.type	BS_IOPINS0_8_VAL.4999, %object
 1783              		.size	BS_IOPINS0_8_VAL.4999, 10
 1784              	BS_IOPINS0_8_VAL.4999:
 1785 056c 41       		.byte	65
 1786 056d 00       		.byte	0
 1787 056e 00       		.byte	0
 1788 056f 01       		.byte	1
 1789 0570 00       		.byte	0
 1790 0571 00       		.byte	0
 1791 0572 00       		.byte	0
 1792 0573 00       		.byte	0
 1793 0574 C0       		.byte	-64
 1794 0575 00       		.byte	0
 1795              		.type	BS_IOPINS0_1_VAL.5000, %object
 1796              		.size	BS_IOPINS0_1_VAL.5000, 8
 1797              	BS_IOPINS0_1_VAL.5000:
 1798 0576 00       		.byte	0
 1799 0577 0B       		.byte	11
 1800 0578 0B       		.byte	11
 1801 0579 00       		.byte	0
 1802 057a 00       		.byte	0
 1803 057b 00       		.byte	0
 1804 057c 00       		.byte	0
ARM GAS  C:\Users\chemi\AppData\Local\Temp\ccEevlXJ.s 			page 52


 1805 057d 00       		.byte	0
 1806              		.type	BS_IOPINS0_2_VAL.5001, %object
 1807              		.size	BS_IOPINS0_2_VAL.5001, 8
 1808              	BS_IOPINS0_2_VAL.5001:
 1809 057e 00       		.byte	0
 1810 057f 1B       		.byte	27
 1811 0580 1B       		.byte	27
 1812 0581 00       		.byte	0
 1813 0582 1B       		.byte	27
 1814 0583 00       		.byte	0
 1815 0584 00       		.byte	0
 1816 0585 00       		.byte	0
 1817              		.type	BS_IOPINS0_3_VAL.5002, %object
 1818              		.size	BS_IOPINS0_3_VAL.5002, 10
 1819              	BS_IOPINS0_3_VAL.5002:
 1820 0586 01       		.byte	1
 1821 0587 00       		.byte	0
 1822 0588 10       		.byte	16
 1823 0589 01       		.byte	1
 1824 058a 01       		.byte	1
 1825 058b 00       		.byte	0
 1826 058c 01       		.byte	1
 1827 058d 00       		.byte	0
 1828 058e 00       		.byte	0
 1829 058f 00       		.byte	0
 1830              		.text
 1831              	.Letext0:
 1832              		.file 2 "c:\\program files (x86)\\cypress\\psoc creator\\4.4\\psoc creator\\import\\gnu\\arm\\5.4.
 1833              		.file 3 "Generated_Source\\PSoC5\\cytypes.h"
 1834              		.file 4 "Generated_Source\\PSoC5\\CyLib.h"