ARM GAS  C:\Users\chemi\AppData\Local\Temp\ccTMm1y0.s 			page 1


   1              		.syntax unified
   2              		.cpu cortex-m3
   3              		.fpu softvfp
   4              		.eabi_attribute 20, 1
   5              		.eabi_attribute 21, 1
   6              		.eabi_attribute 23, 3
   7              		.eabi_attribute 24, 1
   8              		.eabi_attribute 25, 1
   9              		.eabi_attribute 26, 1
  10              		.eabi_attribute 30, 4
  11              		.eabi_attribute 34, 1
  12              		.eabi_attribute 18, 4
  13              		.thumb
  14              		.syntax unified
  15              		.file	"main.c"
  16              		.text
  17              	.Ltext0:
  18              		.cfi_sections	.debug_frame
  19              		.section	.text.update_ivo_uart,"ax",%progbits
  20              		.align	1
  21              		.global	update_ivo_uart
  22              		.thumb
  23              		.thumb_func
  24              		.type	update_ivo_uart, %function
  25              	update_ivo_uart:
  26              	.LFB63:
  27              		.file 1 "..\\common\\uart_ldr\\main.c"
   1:..\common\uart_ldr/main.c **** /*  --------------------------------------------------------------------------
   2:..\common\uart_ldr/main.c **** * Copyright 2015, Cypress Semiconductor Corporation.
   3:..\common\uart_ldr/main.c **** *
   4:..\common\uart_ldr/main.c **** * This software is owned by Cypress Semiconductor Corporation (Cypress)
   5:..\common\uart_ldr/main.c **** * and is protected by and subject to worldwide patent protection (United
   6:..\common\uart_ldr/main.c **** * States and foreign), United States copyright laws and international
   7:..\common\uart_ldr/main.c **** * treaty provisions. Cypress hereby grants to licensee a personal,
   8:..\common\uart_ldr/main.c **** * non-exclusive, non-transferable license to copy, use, modify, create
   9:..\common\uart_ldr/main.c **** * derivative works of, and compile the Cypress Source Code and derivative
  10:..\common\uart_ldr/main.c **** * works for the sole purpose of creating custom software in support of
  11:..\common\uart_ldr/main.c **** * licensee product to be used only in conjunction with a Cypress integrated
  12:..\common\uart_ldr/main.c **** * circuit as specified in the applicable agreement. Any reproduction,
  13:..\common\uart_ldr/main.c **** * modification, translation, compilation, or representation of this
  14:..\common\uart_ldr/main.c **** * software except as specified above is prohibited without the express
  15:..\common\uart_ldr/main.c **** * written permission of Cypress.
  16:..\common\uart_ldr/main.c **** * 
  17:..\common\uart_ldr/main.c **** * Disclaimer: CYPRESS MAKES NO WARRANTY OF ANY KIND,EXPRESS OR IMPLIED,
  18:..\common\uart_ldr/main.c **** * WITH REGARD TO THIS MATERIAL, INCLUDING, BUT NOT LIMITED TO, THE IMPLIED
  19:..\common\uart_ldr/main.c **** * WARRANTIES OF MERCHANTABILITY AND FITNESS FOR A PARTICULAR PURPOSE.
  20:..\common\uart_ldr/main.c **** * Cypress reserves the right to make changes without further notice to the
  21:..\common\uart_ldr/main.c **** * materials described herein. Cypress does not assume any liability arising
  22:..\common\uart_ldr/main.c **** * out of the application or use of any product or circuit described herein.
  23:..\common\uart_ldr/main.c **** * Cypress does not authorize its products for use as critical components in
  24:..\common\uart_ldr/main.c **** * life-support systems where a malfunction or failure may reasonably be
  25:..\common\uart_ldr/main.c **** * expected to result in significant injury to the user. The inclusion of
  26:..\common\uart_ldr/main.c **** * Cypress' product in a life-support systems application implies that the
  27:..\common\uart_ldr/main.c **** * manufacturer assumes all risk of such use and in doing so indemnifies
  28:..\common\uart_ldr/main.c **** * Cypress against all charges.
  29:..\common\uart_ldr/main.c **** * 
  30:..\common\uart_ldr/main.c **** * Use may be limited by and subject to the applicable Cypress software
ARM GAS  C:\Users\chemi\AppData\Local\Temp\ccTMm1y0.s 			page 2


  31:..\common\uart_ldr/main.c **** * license agreement.
  32:..\common\uart_ldr/main.c **** * -----------------------------------------------------------------------------
  33:..\common\uart_ldr/main.c **** * Copyright (c) Cypress Semiconductors 2000-2015. All Rights Reserved.
  34:..\common\uart_ldr/main.c **** *
  35:..\common\uart_ldr/main.c **** *****************************************************************************
  36:..\common\uart_ldr/main.c **** *  Project Name: UART_Bootloader
  37:..\common\uart_ldr/main.c **** *  Project Revision: 1.00
  38:..\common\uart_ldr/main.c **** *  Software Version: PSoC Creator 3.1 CP1
  39:..\common\uart_ldr/main.c **** *  Device Tested: CY8C3866AXI-040
  40:..\common\uart_ldr/main.c **** *  Compilers Tested: Keil
  41:..\common\uart_ldr/main.c **** *  Related Hardware: CY8CKIT-030
  42:..\common\uart_ldr/main.c **** *****************************************************************************
  43:..\common\uart_ldr/main.c **** ***************************************************************************** */
  44:..\common\uart_ldr/main.c **** 
  45:..\common\uart_ldr/main.c **** /*
  46:..\common\uart_ldr/main.c **** * Project Description:
  47:..\common\uart_ldr/main.c **** * This is a sample bootloader program demonstrating PSoC 5LP bootloading PSoC 3.
  48:..\common\uart_ldr/main.c **** * The project is tested using two DVKs - One with PSoC 3 on CY8CKIT-030 and the second one
  49:..\common\uart_ldr/main.c **** * with PSoC 5LP on CY8CKIT-050. PSoC 3 must be programmed with this Program.
  50:..\common\uart_ldr/main.c **** *
  51:..\common\uart_ldr/main.c **** * Connections Required
  52:..\common\uart_ldr/main.c **** * CY8CKIT-050 (PSoC 5LP DVK) :
  53:..\common\uart_ldr/main.c **** *  P0[0] - Rx -  connected to Tx of PSoC3
  54:..\common\uart_ldr/main.c **** *  P0[1] - Tx -  connected to Rx of PSoC3 
  55:..\common\uart_ldr/main.c **** *  P6.1 is internally connected to SW1 on DVK.
  56:..\common\uart_ldr/main.c **** *
  57:..\common\uart_ldr/main.c **** * CY8CKIT-030 (PSoC 3 DVK) : PSoC  3 intially programmed with UART_Bootloader program.
  58:..\common\uart_ldr/main.c **** *  P0[0] - Rx - Connected to Tx of PSoC 5LP
  59:..\common\uart_ldr/main.c **** *  P0[1] - Tx - Connected to Rx of PSoC 5LP
  60:..\common\uart_ldr/main.c **** *  P6.1 is internally connected to SW1 on DVK.
  61:..\common\uart_ldr/main.c **** *
  62:..\common\uart_ldr/main.c **** * Note that the GNDs of both DVKs should be connected together.
  63:..\common\uart_ldr/main.c **** *
  64:..\common\uart_ldr/main.c **** * The main()function of this program calls the CyBtldr_Start() API. This API performs the entire bo
  65:..\common\uart_ldr/main.c **** * It communicates with the host. After a successful bootload operation, this API passes control to 
  66:..\common\uart_ldr/main.c **** * via a software reset.
  67:..\common\uart_ldr/main.c **** *
  68:..\common\uart_ldr/main.c **** * There are two bootloadable projects: Bootloadable1 (displays “Hello” on char LCD) and Bootloa
  69:..\common\uart_ldr/main.c **** * With successive bootload operation, alternate bootloadables will be programmed onto the target. 
  70:..\common\uart_ldr/main.c **** *
  71:..\common\uart_ldr/main.c **** * The following events happen on each trigger of the switch P6 [1] of CY8CKIT – 050 (PSoC 5LP):
  72:..\common\uart_ldr/main.c **** *
  73:..\common\uart_ldr/main.c **** * On first switch press, Bootloadable1.cyacd file will be bootloaded onto the target PSoC 3. 
  74:..\common\uart_ldr/main.c **** * On successful bootloading the message “Bootloaded - Hello” will be displayed on CY8CKIT – 0
  75:..\common\uart_ldr/main.c **** * and the message “Hello” will be displayed on CY8CKIT – 030 LCD.
  76:..\common\uart_ldr/main.c **** *
  77:..\common\uart_ldr/main.c **** * For subsequent bootloading operation press the switch P6 [1] on CY8CKIT – 030. This makes PSoC 
  78:..\common\uart_ldr/main.c **** * and be ready to bootload a new application.
  79:..\common\uart_ldr/main.c **** *
  80:..\common\uart_ldr/main.c **** * On next switch press on CY8CKIT – 050, Bootloadable2.cyacd file will be bootloaded onto the tar
  81:..\common\uart_ldr/main.c **** * On successful bootloading the message “Bootloaded - Bye” will be displayed on CY8CKIT – 050
  82:..\common\uart_ldr/main.c **** * will be displayed on CY8CKIT – 030 LCD.
  83:..\common\uart_ldr/main.c **** ***************************************************************************** */
  84:..\common\uart_ldr/main.c **** #include <project.h>
  85:..\common\uart_ldr/main.c **** #include "Bootloader.h"
  86:..\common\uart_ldr/main.c **** #include "UART.h"
  87:..\common\uart_ldr/main.c **** #include "cli_basic.h"
ARM GAS  C:\Users\chemi\AppData\Local\Temp\ccTMm1y0.s 			page 3


  88:..\common\uart_ldr/main.c **** #include <math.h>
  89:..\common\uart_ldr/main.c **** 
  90:..\common\uart_ldr/main.c **** struct config_struct{
  91:..\common\uart_ldr/main.c ****     uint32_t baudrate;
  92:..\common\uart_ldr/main.c ****     uint8_t ivo_uart;
  93:..\common\uart_ldr/main.c ****     uint8_t line_code;
  94:..\common\uart_ldr/main.c **** };
  95:..\common\uart_ldr/main.c **** typedef struct config_struct cli_config;
  96:..\common\uart_ldr/main.c **** cli_config configuration;
  97:..\common\uart_ldr/main.c **** 
  98:..\common\uart_ldr/main.c **** /*****************************************************************************
  99:..\common\uart_ldr/main.c **** * Parameter struct
 100:..\common\uart_ldr/main.c **** ******************************************************************************/
 101:..\common\uart_ldr/main.c **** parameter_entry confparam[] = {
 102:..\common\uart_ldr/main.c ****     ADD_PARAM(PARAM_CONFIG  ,"baudrate"        , configuration.baudrate)
 103:..\common\uart_ldr/main.c ****     ADD_PARAM(PARAM_CONFIG  ,"ivo_uart"        , configuration.ivo_uart)
 104:..\common\uart_ldr/main.c ****     ADD_PARAM(PARAM_CONFIG  ,"linecode"        , configuration.line_code)
 105:..\common\uart_ldr/main.c **** };
 106:..\common\uart_ldr/main.c **** 
 107:..\common\uart_ldr/main.c **** void update_ivo_uart(){
  28              		.loc 1 107 0
  29              		.cfi_startproc
  30              		@ args = 0, pretend = 0, frame = 0
  31              		@ frame_needed = 0, uses_anonymous_args = 0
  32              		@ link register save eliminated.
 108:..\common\uart_ldr/main.c ****     IVO_UART_Control=0;
  33              		.loc 1 108 0
  34 0000 134B     		ldr	r3, .L10
  35 0002 0022     		movs	r2, #0
  36 0004 1A70     		strb	r2, [r3]
 109:..\common\uart_ldr/main.c ****     switch(configuration.ivo_uart){
  37              		.loc 1 109 0
  38 0006 134A     		ldr	r2, .L10+4
  39 0008 1179     		ldrb	r1, [r2, #4]	@ zero_extendqisi2
  40 000a 0A29     		cmp	r1, #10
  41 000c 04D0     		beq	.L3
  42 000e 0B29     		cmp	r1, #11
  43 0010 06D0     		beq	.L4
  44 0012 0129     		cmp	r1, #1
  45 0014 0CD1     		bne	.L2
  46 0016 07E0     		b	.L7
  47              	.L3:
 110:..\common\uart_ldr/main.c ****     case 0:
 111:..\common\uart_ldr/main.c ****         break;
 112:..\common\uart_ldr/main.c ****     case 1:
 113:..\common\uart_ldr/main.c ****         set_bit(IVO_UART_Control,1);
 114:..\common\uart_ldr/main.c ****         break;
 115:..\common\uart_ldr/main.c ****     case 10:
 116:..\common\uart_ldr/main.c ****         set_bit(IVO_UART_Control,0);
  48              		.loc 1 116 0
  49 0018 1978     		ldrb	r1, [r3]	@ zero_extendqisi2
  50 001a 41F00101 		orr	r1, r1, #1
  51 001e 06E0     		b	.L8
  52              	.L4:
 117:..\common\uart_ldr/main.c ****         break;
 118:..\common\uart_ldr/main.c ****     case 11:
 119:..\common\uart_ldr/main.c ****         set_bit(IVO_UART_Control,0);
ARM GAS  C:\Users\chemi\AppData\Local\Temp\ccTMm1y0.s 			page 4


  53              		.loc 1 119 0
  54 0020 1978     		ldrb	r1, [r3]	@ zero_extendqisi2
  55 0022 41F00101 		orr	r1, r1, #1
  56 0026 1970     		strb	r1, [r3]
  57              	.L7:
 120:..\common\uart_ldr/main.c ****         set_bit(IVO_UART_Control,1);
  58              		.loc 1 120 0
  59 0028 1978     		ldrb	r1, [r3]	@ zero_extendqisi2
  60 002a 41F00201 		orr	r1, r1, #2
  61              	.L8:
  62 002e 1970     		strb	r1, [r3]
  63              	.L2:
 121:..\common\uart_ldr/main.c ****         break;
 122:..\common\uart_ldr/main.c ****     }
 123:..\common\uart_ldr/main.c ****     
 124:..\common\uart_ldr/main.c ****     if(configuration.line_code==1){
  64              		.loc 1 124 0
  65 0030 5279     		ldrb	r2, [r2, #5]	@ zero_extendqisi2
  66 0032 012A     		cmp	r2, #1
  67 0034 0BD1     		bne	.L1
  68              	.LBB4:
 125:..\common\uart_ldr/main.c ****         set_bit(IVO_UART_Control,2);
  69              		.loc 1 125 0
  70 0036 1A78     		ldrb	r2, [r3]	@ zero_extendqisi2
  71 0038 42F00402 		orr	r2, r2, #4
  72 003c 1A70     		strb	r2, [r3]
 126:..\common\uart_ldr/main.c ****         set_bit(IVO_UART_Control,3);
  73              		.loc 1 126 0
  74 003e 1A78     		ldrb	r2, [r3]	@ zero_extendqisi2
  75 0040 42F00802 		orr	r2, r2, #8
  76 0044 1A70     		strb	r2, [r3]
 127:..\common\uart_ldr/main.c ****         toggle_bit(IVO_UART_Control,0);
  77              		.loc 1 127 0
  78 0046 1A78     		ldrb	r2, [r3]	@ zero_extendqisi2
  79 0048 82F00102 		eor	r2, r2, #1
  80 004c 1A70     		strb	r2, [r3]
  81              	.L1:
  82 004e 7047     		bx	lr
  83              	.L11:
  84              		.align	2
  85              	.L10:
  86 0050 7B650040 		.word	1073767803
  87 0054 00000000 		.word	configuration
  88              	.LBE4:
  89              		.cfi_endproc
  90              	.LFE63:
  91              		.size	update_ivo_uart, .-update_ivo_uart
  92              		.global	__aeabi_ui2f
  93              		.global	__aeabi_fdiv
  94              		.global	__aeabi_f2d
  95              		.global	__aeabi_ddiv
  96              		.global	__aeabi_d2uiz
  97              		.global	__aeabi_fsub
  98              		.global	__aeabi_fcmplt
  99              		.section	.text.uart_baudrate,"ax",%progbits
 100              		.align	1
 101              		.global	uart_baudrate
ARM GAS  C:\Users\chemi\AppData\Local\Temp\ccTMm1y0.s 			page 5


 102              		.thumb
 103              		.thumb_func
 104              		.type	uart_baudrate, %function
 105              	uart_baudrate:
 106              	.LFB64:
 128:..\common\uart_ldr/main.c ****     }
 129:..\common\uart_ldr/main.c **** }
 130:..\common\uart_ldr/main.c **** 
 131:..\common\uart_ldr/main.c **** /*****************************************************************************
 132:..\common\uart_ldr/main.c **** * Callback if the baudrate is changed
 133:..\common\uart_ldr/main.c **** ******************************************************************************/
 134:..\common\uart_ldr/main.c **** void uart_baudrate(uint32_t baudrate){
 107              		.loc 1 134 0
 108              		.cfi_startproc
 109              		@ args = 0, pretend = 0, frame = 0
 110              		@ frame_needed = 0, uses_anonymous_args = 0
 111              	.LVL0:
 112 0000 2DE9F843 		push	{r3, r4, r5, r6, r7, r8, r9, lr}
 113              		.cfi_def_cfa_offset 32
 114              		.cfi_offset 3, -32
 115              		.cfi_offset 4, -28
 116              		.cfi_offset 5, -24
 117              		.cfi_offset 6, -20
 118              		.cfi_offset 7, -16
 119              		.cfi_offset 8, -12
 120              		.cfi_offset 9, -8
 121              		.cfi_offset 14, -4
 135:..\common\uart_ldr/main.c ****     float divider = (float)(BCLK__BUS_CLK__HZ/8)/(float)baudrate;
 122              		.loc 1 135 0
 123 0004 FFF7FEFF 		bl	__aeabi_ui2f
 124              	.LVL1:
 125 0008 0446     		mov	r4, r0
 126              	.LVL2:
 136:..\common\uart_ldr/main.c ****     uint16_t divider_selected=1;
 137:..\common\uart_ldr/main.c ****    
 138:..\common\uart_ldr/main.c ****     uint32_t down_rate = (BCLK__BUS_CLK__HZ/8)/floor(divider);
 127              		.loc 1 138 0
 128 000a 0146     		mov	r1, r0
 129 000c 3048     		ldr	r0, .L19+8
 130              	.LVL3:
 131 000e FFF7FEFF 		bl	__aeabi_fdiv
 132              	.LVL4:
 133 0012 FFF7FEFF 		bl	__aeabi_f2d
 134              	.LVL5:
 135 0016 0646     		mov	r6, r0
 136 0018 0F46     		mov	r7, r1
 137 001a FFF7FEFF 		bl	floor
 138              	.LVL6:
 139 001e 8046     		mov	r8, r0
 140 0020 8946     		mov	r9, r1
 141              	.LVL7:
 139:..\common\uart_ldr/main.c ****     uint32_t up_rate = (BCLK__BUS_CLK__HZ/8)/ceil(divider);
 142              		.loc 1 139 0
 143 0022 3046     		mov	r0, r6
 144 0024 3946     		mov	r1, r7
 145 0026 FFF7FEFF 		bl	ceil
 146              	.LVL8:
ARM GAS  C:\Users\chemi\AppData\Local\Temp\ccTMm1y0.s 			page 6


 147 002a 0646     		mov	r6, r0
 148 002c 0F46     		mov	r7, r1
 149              	.LVL9:
 140:..\common\uart_ldr/main.c ****    
 141:..\common\uart_ldr/main.c ****     float down_rate_error = (down_rate/(float)baudrate)-1;
 142:..\common\uart_ldr/main.c ****     float up_rate_error = (up_rate/(float)baudrate)-1;
 143:..\common\uart_ldr/main.c ****     
 144:..\common\uart_ldr/main.c ****     UART_Stop();
 150              		.loc 1 144 0
 151 002e FFF7FEFF 		bl	UART_Stop
 152              	.LVL10:
 145:..\common\uart_ldr/main.c ****     if(fabs(down_rate_error) < fabs(up_rate_error)){
 153              		.loc 1 145 0
 154 0032 25A1     		adr	r1, .L19
 155 0034 D1E90001 		ldrd	r0, [r1]
 156 0038 4246     		mov	r2, r8
 157 003a 4B46     		mov	r3, r9
 158 003c FFF7FEFF 		bl	__aeabi_ddiv
 159              	.LVL11:
 160 0040 FFF7FEFF 		bl	__aeabi_d2uiz
 161              	.LVL12:
 162 0044 FFF7FEFF 		bl	__aeabi_ui2f
 163              	.LVL13:
 164 0048 2146     		mov	r1, r4
 165 004a FFF7FEFF 		bl	__aeabi_fdiv
 166              	.LVL14:
 167 004e 4FF07E51 		mov	r1, #1065353216
 168 0052 FFF7FEFF 		bl	__aeabi_fsub
 169              	.LVL15:
 170 0056 3246     		mov	r2, r6
 171 0058 3B46     		mov	r3, r7
 172 005a 20F00045 		bic	r5, r0, #-2147483648
 173 005e 1AA1     		adr	r1, .L19
 174 0060 D1E90001 		ldrd	r0, [r1]
 175 0064 FFF7FEFF 		bl	__aeabi_ddiv
 176              	.LVL16:
 177 0068 FFF7FEFF 		bl	__aeabi_d2uiz
 178              	.LVL17:
 179 006c FFF7FEFF 		bl	__aeabi_ui2f
 180              	.LVL18:
 181 0070 2146     		mov	r1, r4
 182 0072 FFF7FEFF 		bl	__aeabi_fdiv
 183              	.LVL19:
 184 0076 4FF07E51 		mov	r1, #1065353216
 185 007a FFF7FEFF 		bl	__aeabi_fsub
 186              	.LVL20:
 187 007e 20F00041 		bic	r1, r0, #-2147483648
 188 0082 2846     		mov	r0, r5
 189 0084 FFF7FEFF 		bl	__aeabi_fcmplt
 190              	.LVL21:
 191 0088 10B1     		cbz	r0, .L17
 146:..\common\uart_ldr/main.c ****         //selected round down divider
 147:..\common\uart_ldr/main.c ****         divider_selected = floor(divider);
 192              		.loc 1 147 0
 193 008a 4046     		mov	r0, r8
 194 008c 4946     		mov	r1, r9
 195 008e 01E0     		b	.L18
ARM GAS  C:\Users\chemi\AppData\Local\Temp\ccTMm1y0.s 			page 7


 196              	.L17:
 148:..\common\uart_ldr/main.c ****     }else{
 149:..\common\uart_ldr/main.c ****         //selected round up divider
 150:..\common\uart_ldr/main.c ****         divider_selected = ceil(divider);
 197              		.loc 1 150 0
 198 0090 3046     		mov	r0, r6
 199 0092 3946     		mov	r1, r7
 200              	.L18:
 201 0094 FFF7FEFF 		bl	__aeabi_d2uiz
 202              	.LVL22:
 151:..\common\uart_ldr/main.c ****     }
 152:..\common\uart_ldr/main.c ****     uint32_t uart_frequency = BCLK__BUS_CLK__HZ / divider_selected;
 153:..\common\uart_ldr/main.c ****     uint32_t delay_tmr = ((BCLK__BUS_CLK__HZ / uart_frequency)*3)/4;
 154:..\common\uart_ldr/main.c **** 
 155:..\common\uart_ldr/main.c ****     Mantmr_WritePeriod(delay_tmr-3);
 203              		.loc 1 155 0
 204 0098 0E4B     		ldr	r3, .L19+12
 150:..\common\uart_ldr/main.c ****     }
 205              		.loc 1 150 0
 206 009a 84B2     		uxth	r4, r0
 207              	.LVL23:
 208              		.loc 1 155 0
 209 009c B3FBF4F0 		udiv	r0, r3, r4
 210 00a0 B3FBF0F0 		udiv	r0, r3, r0
 211 00a4 00EB4000 		add	r0, r0, r0, lsl #1
 212 00a8 8008     		lsrs	r0, r0, #2
 213 00aa 0338     		subs	r0, r0, #3
 214 00ac C0B2     		uxtb	r0, r0
 215 00ae FFF7FEFF 		bl	Mantmr_WritePeriod
 216              	.LVL24:
 156:..\common\uart_ldr/main.c **** 
 157:..\common\uart_ldr/main.c ****     UART_CLK_SetDividerValue(divider_selected);
 217              		.loc 1 157 0
 218 00b2 601E     		subs	r0, r4, #1
 219 00b4 0121     		movs	r1, #1
 220 00b6 80B2     		uxth	r0, r0
 221 00b8 FFF7FEFF 		bl	UART_CLK_SetDividerRegister
 222              	.LVL25:
 158:..\common\uart_ldr/main.c ****     
 159:..\common\uart_ldr/main.c ****     UART_Start();    
 160:..\common\uart_ldr/main.c ****   
 161:..\common\uart_ldr/main.c **** }
 223              		.loc 1 161 0
 224 00bc BDE8F843 		pop	{r3, r4, r5, r6, r7, r8, r9, lr}
 225              		.cfi_restore 14
 226              		.cfi_restore 9
 227              		.cfi_restore 8
 228              		.cfi_restore 7
 229              		.cfi_restore 6
 230              		.cfi_restore 5
 231              		.cfi_restore 4
 232              		.cfi_restore 3
 233              		.cfi_def_cfa_offset 0
 234              	.LVL26:
 159:..\common\uart_ldr/main.c ****   
 235              		.loc 1 159 0
 236 00c0 FFF7FEBF 		b	UART_Start
ARM GAS  C:\Users\chemi\AppData\Local\Temp\ccTMm1y0.s 			page 8


 237              	.LVL27:
 238              	.L20:
 239 00c4 AFF30080 		.align	3
 240              	.L19:
 241 00c8 00000000 		.word	0
 242 00cc 80845E41 		.word	1096713344
 243 00d0 0024F44A 		.word	1257513984
 244 00d4 0090D003 		.word	64000000
 245              		.cfi_endproc
 246              	.LFE64:
 247              		.size	uart_baudrate, .-uart_baudrate
 248              		.section	.text.startup.main,"ax",%progbits
 249              		.align	1
 250              		.global	main
 251              		.thumb
 252              		.thumb_func
 253              		.type	main, %function
 254              	main:
 255              	.LFB65:
 162:..\common\uart_ldr/main.c **** 
 163:..\common\uart_ldr/main.c **** #define USBFS_DEVICE    (0u)
 164:..\common\uart_ldr/main.c **** 
 165:..\common\uart_ldr/main.c **** /* The buffer size is equal to the maximum packet size of the IN and OUT bulk
 166:..\common\uart_ldr/main.c **** * endpoints.
 167:..\common\uart_ldr/main.c **** */
 168:..\common\uart_ldr/main.c **** 
 169:..\common\uart_ldr/main.c **** int main()
 170:..\common\uart_ldr/main.c **** {
 256              		.loc 1 170 0
 257              		.cfi_startproc
 258              		@ Volatile: function does not return.
 259              		@ args = 0, pretend = 0, frame = 0
 260              		@ frame_needed = 0, uses_anonymous_args = 0
 171:..\common\uart_ldr/main.c ****     
 172:..\common\uart_ldr/main.c **** 	/* Initialize PWM */
 173:..\common\uart_ldr/main.c ****     
 174:..\common\uart_ldr/main.c ****     configuration.baudrate=115200;
 261              		.loc 1 174 0
 262 0000 104C     		ldr	r4, .L26
 170:..\common\uart_ldr/main.c ****     
 263              		.loc 1 170 0
 264 0002 08B5     		push	{r3, lr}
 265              		.cfi_def_cfa_offset 8
 266              		.cfi_offset 3, -8
 267              		.cfi_offset 14, -4
 175:..\common\uart_ldr/main.c ****     configuration.ivo_uart=0;
 268              		.loc 1 175 0
 269 0004 0025     		movs	r5, #0
 174:..\common\uart_ldr/main.c ****     configuration.ivo_uart=0;
 270              		.loc 1 174 0
 271 0006 4FF4E133 		mov	r3, #115200
 272 000a 2360     		str	r3, [r4]
 273              		.loc 1 175 0
 274 000c 2571     		strb	r5, [r4, #4]
 176:..\common\uart_ldr/main.c ****     configuration.line_code=0;
 275              		.loc 1 176 0
 276 000e 6571     		strb	r5, [r4, #5]
ARM GAS  C:\Users\chemi\AppData\Local\Temp\ccTMm1y0.s 			page 9


 177:..\common\uart_ldr/main.c ****     Mantmr_Start();
 277              		.loc 1 177 0
 278 0010 FFF7FEFF 		bl	Mantmr_Start
 279              	.LVL28:
 178:..\common\uart_ldr/main.c ****     
 179:..\common\uart_ldr/main.c ****     EEPROM_1_Start();
 280              		.loc 1 179 0
 281 0014 FFF7FEFF 		bl	EEPROM_1_Start
 282              	.LVL29:
 180:..\common\uart_ldr/main.c ****     if(safe_reg_Read()){
 283              		.loc 1 180 0
 284 0018 FFF7FEFF 		bl	safe_reg_Read
 285              	.LVL30:
 286 001c 38B1     		cbz	r0, .L22
 181:..\common\uart_ldr/main.c ****         EEPROM_read_conf(confparam, PARAM_SIZE(confparam) ,0,NONE); 
 287              		.loc 1 181 0
 288 001e 0323     		movs	r3, #3
 289 0020 0948     		ldr	r0, .L26+4
 290 0022 2A46     		mov	r2, r5
 291 0024 1946     		mov	r1, r3
 292 0026 FFF7FEFF 		bl	EEPROM_read_conf
 293              	.LVL31:
 182:..\common\uart_ldr/main.c ****         safe_state_Write(0);
 294              		.loc 1 182 0
 295 002a 2846     		mov	r0, r5
 296 002c 00E0     		b	.L25
 297              	.L22:
 183:..\common\uart_ldr/main.c ****     }else{
 184:..\common\uart_ldr/main.c ****         safe_state_Write(1);
 298              		.loc 1 184 0
 299 002e 0120     		movs	r0, #1
 300              	.L25:
 301 0030 FFF7FEFF 		bl	safe_state_Write
 302              	.LVL32:
 185:..\common\uart_ldr/main.c ****     }
 186:..\common\uart_ldr/main.c **** 
 187:..\common\uart_ldr/main.c ****     uart_baudrate(configuration.baudrate);
 303              		.loc 1 187 0
 304 0034 2068     		ldr	r0, [r4]
 305 0036 FFF7FEFF 		bl	uart_baudrate
 306              	.LVL33:
 188:..\common\uart_ldr/main.c ****     update_ivo_uart();
 307              		.loc 1 188 0
 308 003a FFF7FEFF 		bl	update_ivo_uart
 309              	.LVL34:
 189:..\common\uart_ldr/main.c **** 	
 190:..\common\uart_ldr/main.c **** 	/* This API does the entire bootload operation. After a succesful bootload operation, this API tra
 191:..\common\uart_ldr/main.c **** 	   program control to the new application via a software reset */
 192:..\common\uart_ldr/main.c **** 	CyBtldr_Start();
 310              		.loc 1 192 0
 311 003e FFF7FEFF 		bl	Bootloader_Start
 312              	.LVL35:
 313              	.L24:
 314 0042 FEE7     		b	.L24
 315              	.L27:
 316              		.align	2
 317              	.L26:
ARM GAS  C:\Users\chemi\AppData\Local\Temp\ccTMm1y0.s 			page 10


 318 0044 00000000 		.word	configuration
 319 0048 00000000 		.word	.LANCHOR0
 320              		.cfi_endproc
 321              	.LFE65:
 322              		.size	main, .-main
 323              		.global	confparam
 324              		.comm	configuration,8,4
 325              		.section	.rodata.str1.1,"aMS",%progbits,1
 326              	.LC0:
 327 0000 62617564 		.ascii	"baudrate\000"
 327      72617465 
 327      00
 328              	.LC1:
 329 0009 69766F5F 		.ascii	"ivo_uart\000"
 329      75617274 
 329      00
 330              	.LC2:
 331 0012 6C696E65 		.ascii	"linecode\000"
 331      636F6465 
 331      00
 332              		.data
 333              		.align	2
 334              		.set	.LANCHOR0,. + 0
 335              		.type	confparam, %object
 336              		.size	confparam, 48
 337              	confparam:
 338 0000 01       		.byte	1
 339 0001 000000   		.space	3
 340 0004 00000000 		.word	.LC0
 341 0008 00000000 		.word	configuration
 342 000c 04       		.byte	4
 343 000d 00       		.byte	0
 344 000e 0000     		.space	2
 345 0010 01       		.byte	1
 346 0011 000000   		.space	3
 347 0014 09000000 		.word	.LC1
 348 0018 04000000 		.word	configuration+4
 349 001c 01       		.byte	1
 350 001d 00       		.byte	0
 351 001e 0000     		.space	2
 352 0020 01       		.byte	1
 353 0021 000000   		.space	3
 354 0024 12000000 		.word	.LC2
 355 0028 05000000 		.word	configuration+5
 356 002c 01       		.byte	1
 357 002d 00       		.byte	0
 358 002e 0000     		.space	2
 359              		.text
 360              	.Letext0:
 361              		.file 2 "c:\\program files (x86)\\cypress\\psoc creator\\4.4\\psoc creator\\import\\gnu\\arm\\5.4.
 362              		.file 3 "c:\\program files (x86)\\cypress\\psoc creator\\4.4\\psoc creator\\import\\gnu\\arm\\5.4.
 363              		.file 4 "Generated_Source\\PSoC5/cytypes.h"
 364              		.file 5 "..\\common\\uart_ldr\\cli_basic.h"
 365              		.file 6 "Generated_Source\\PSoC5/core_cm3.h"
 366              		.file 7 "c:\\program files (x86)\\cypress\\psoc creator\\4.4\\psoc creator\\import\\gnu\\arm\\5.4.
 367              		.file 8 "..\\common\\uart_ldr\\UART.h"
 368              		.file 9 "Generated_Source\\PSoC5/Mantmr.h"
ARM GAS  C:\Users\chemi\AppData\Local\Temp\ccTMm1y0.s 			page 11


 369              		.file 10 "Generated_Source\\PSoC5/UART_CLK.h"
 370              		.file 11 "Generated_Source\\PSoC5/EEPROM_1.h"
 371              		.file 12 "Generated_Source\\PSoC5/safe_reg.h"
 372              		.file 13 "Generated_Source\\PSoC5/safe_state.h"
 373              		.file 14 "..\\common\\uart_ldr\\Bootloader.h"