ARM GAS  C:\Users\chemi\AppData\Local\Temp\ccTUkXtX.s 			page 1


   1              		.syntax unified
   2              		.cpu cortex-m3
   3              		.fpu softvfp
   4              		.eabi_attribute 20, 1
   5              		.eabi_attribute 21, 1
   6              		.eabi_attribute 23, 3
   7              		.eabi_attribute 24, 1
   8              		.eabi_attribute 25, 1
   9              		.eabi_attribute 26, 1
  10              		.eabi_attribute 30, 4
  11              		.eabi_attribute 34, 1
  12              		.eabi_attribute 18, 4
  13              		.thumb
  14              		.syntax unified
  15              		.file	"Mantmr.c"
  16              		.text
  17              	.Ltext0:
  18              		.cfi_sections	.debug_frame
  19              		.section	.text.Mantmr_Enable,"ax",%progbits
  20              		.align	1
  21              		.global	Mantmr_Enable
  22              		.thumb
  23              		.thumb_func
  24              		.type	Mantmr_Enable, %function
  25              	Mantmr_Enable:
  26              	.LFB2:
  27              		.file 1 "Generated_Source\\PSoC5\\Mantmr.c"
   1:Generated_Source\PSoC5/Mantmr.c **** /*******************************************************************************
   2:Generated_Source\PSoC5/Mantmr.c **** * File Name: Mantmr.c
   3:Generated_Source\PSoC5/Mantmr.c **** * Version 3.30
   4:Generated_Source\PSoC5/Mantmr.c **** *
   5:Generated_Source\PSoC5/Mantmr.c **** * Description:
   6:Generated_Source\PSoC5/Mantmr.c **** *  The PWM User Module consist of an 8 or 16-bit counter with two 8 or 16-bit
   7:Generated_Source\PSoC5/Mantmr.c **** *  comparitors. Each instance of this user module is capable of generating
   8:Generated_Source\PSoC5/Mantmr.c **** *  two PWM outputs with the same period. The pulse width is selectable between
   9:Generated_Source\PSoC5/Mantmr.c **** *  1 and 255/65535. The period is selectable between 2 and 255/65536 clocks.
  10:Generated_Source\PSoC5/Mantmr.c **** *  The compare value output may be configured to be active when the present
  11:Generated_Source\PSoC5/Mantmr.c **** *  counter is less than or less than/equal to the compare value.
  12:Generated_Source\PSoC5/Mantmr.c **** *  A terminal count output is also provided. It generates a pulse one clock
  13:Generated_Source\PSoC5/Mantmr.c **** *  width wide when the counter is equal to zero.
  14:Generated_Source\PSoC5/Mantmr.c **** *
  15:Generated_Source\PSoC5/Mantmr.c **** * Note:
  16:Generated_Source\PSoC5/Mantmr.c **** *
  17:Generated_Source\PSoC5/Mantmr.c **** *******************************************************************************
  18:Generated_Source\PSoC5/Mantmr.c **** * Copyright 2008-2014, Cypress Semiconductor Corporation.  All rights reserved.
  19:Generated_Source\PSoC5/Mantmr.c **** * You may use this file only in accordance with the license, terms, conditions,
  20:Generated_Source\PSoC5/Mantmr.c **** * disclaimers, and limitations in the end user license agreement accompanying
  21:Generated_Source\PSoC5/Mantmr.c **** * the software package with which this file was provided.
  22:Generated_Source\PSoC5/Mantmr.c **** ********************************************************************************/
  23:Generated_Source\PSoC5/Mantmr.c **** 
  24:Generated_Source\PSoC5/Mantmr.c **** #include "Mantmr.h"
  25:Generated_Source\PSoC5/Mantmr.c **** 
  26:Generated_Source\PSoC5/Mantmr.c **** /* Error message for removed <resource> through optimization */
  27:Generated_Source\PSoC5/Mantmr.c **** #ifdef Mantmr_PWMUDB_genblk1_ctrlreg__REMOVED
  28:Generated_Source\PSoC5/Mantmr.c ****     #error PWM_v3_30 detected with a constant 0 for the enable or \
  29:Generated_Source\PSoC5/Mantmr.c ****          constant 1 for reset. This will prevent the component from operating.
  30:Generated_Source\PSoC5/Mantmr.c **** #endif /* Mantmr_PWMUDB_genblk1_ctrlreg__REMOVED */
ARM GAS  C:\Users\chemi\AppData\Local\Temp\ccTUkXtX.s 			page 2


  31:Generated_Source\PSoC5/Mantmr.c **** 
  32:Generated_Source\PSoC5/Mantmr.c **** uint8 Mantmr_initVar = 0u;
  33:Generated_Source\PSoC5/Mantmr.c **** 
  34:Generated_Source\PSoC5/Mantmr.c **** 
  35:Generated_Source\PSoC5/Mantmr.c **** /*******************************************************************************
  36:Generated_Source\PSoC5/Mantmr.c **** * Function Name: Mantmr_Start
  37:Generated_Source\PSoC5/Mantmr.c **** ********************************************************************************
  38:Generated_Source\PSoC5/Mantmr.c **** *
  39:Generated_Source\PSoC5/Mantmr.c **** * Summary:
  40:Generated_Source\PSoC5/Mantmr.c **** *  The start function initializes the pwm with the default values, the
  41:Generated_Source\PSoC5/Mantmr.c **** *  enables the counter to begin counting.  It does not enable interrupts,
  42:Generated_Source\PSoC5/Mantmr.c **** *  the EnableInt command should be called if interrupt generation is required.
  43:Generated_Source\PSoC5/Mantmr.c **** *
  44:Generated_Source\PSoC5/Mantmr.c **** * Parameters:
  45:Generated_Source\PSoC5/Mantmr.c **** *  None
  46:Generated_Source\PSoC5/Mantmr.c **** *
  47:Generated_Source\PSoC5/Mantmr.c **** * Return:
  48:Generated_Source\PSoC5/Mantmr.c **** *  None
  49:Generated_Source\PSoC5/Mantmr.c **** *
  50:Generated_Source\PSoC5/Mantmr.c **** * Global variables:
  51:Generated_Source\PSoC5/Mantmr.c **** *  Mantmr_initVar: Is modified when this function is called for the
  52:Generated_Source\PSoC5/Mantmr.c **** *   first time. Is used to ensure that initialization happens only once.
  53:Generated_Source\PSoC5/Mantmr.c **** *
  54:Generated_Source\PSoC5/Mantmr.c **** *******************************************************************************/
  55:Generated_Source\PSoC5/Mantmr.c **** void Mantmr_Start(void) 
  56:Generated_Source\PSoC5/Mantmr.c **** {
  57:Generated_Source\PSoC5/Mantmr.c ****     /* If not Initialized then initialize all required hardware and software */
  58:Generated_Source\PSoC5/Mantmr.c ****     if(Mantmr_initVar == 0u)
  59:Generated_Source\PSoC5/Mantmr.c ****     {
  60:Generated_Source\PSoC5/Mantmr.c ****         Mantmr_Init();
  61:Generated_Source\PSoC5/Mantmr.c ****         Mantmr_initVar = 1u;
  62:Generated_Source\PSoC5/Mantmr.c ****     }
  63:Generated_Source\PSoC5/Mantmr.c ****     Mantmr_Enable();
  64:Generated_Source\PSoC5/Mantmr.c **** 
  65:Generated_Source\PSoC5/Mantmr.c **** }
  66:Generated_Source\PSoC5/Mantmr.c **** 
  67:Generated_Source\PSoC5/Mantmr.c **** 
  68:Generated_Source\PSoC5/Mantmr.c **** /*******************************************************************************
  69:Generated_Source\PSoC5/Mantmr.c **** * Function Name: Mantmr_Init
  70:Generated_Source\PSoC5/Mantmr.c **** ********************************************************************************
  71:Generated_Source\PSoC5/Mantmr.c **** *
  72:Generated_Source\PSoC5/Mantmr.c **** * Summary:
  73:Generated_Source\PSoC5/Mantmr.c **** *  Initialize component's parameters to the parameters set by user in the
  74:Generated_Source\PSoC5/Mantmr.c **** *  customizer of the component placed onto schematic. Usually called in
  75:Generated_Source\PSoC5/Mantmr.c **** *  Mantmr_Start().
  76:Generated_Source\PSoC5/Mantmr.c **** *
  77:Generated_Source\PSoC5/Mantmr.c **** * Parameters:
  78:Generated_Source\PSoC5/Mantmr.c **** *  None
  79:Generated_Source\PSoC5/Mantmr.c **** *
  80:Generated_Source\PSoC5/Mantmr.c **** * Return:
  81:Generated_Source\PSoC5/Mantmr.c **** *  None
  82:Generated_Source\PSoC5/Mantmr.c **** *
  83:Generated_Source\PSoC5/Mantmr.c **** *******************************************************************************/
  84:Generated_Source\PSoC5/Mantmr.c **** void Mantmr_Init(void) 
  85:Generated_Source\PSoC5/Mantmr.c **** {
  86:Generated_Source\PSoC5/Mantmr.c ****     #if (Mantmr_UsingFixedFunction || Mantmr_UseControl)
  87:Generated_Source\PSoC5/Mantmr.c ****         uint8 ctrl;
ARM GAS  C:\Users\chemi\AppData\Local\Temp\ccTUkXtX.s 			page 3


  88:Generated_Source\PSoC5/Mantmr.c ****     #endif /* (Mantmr_UsingFixedFunction || Mantmr_UseControl) */
  89:Generated_Source\PSoC5/Mantmr.c **** 
  90:Generated_Source\PSoC5/Mantmr.c ****     #if(!Mantmr_UsingFixedFunction)
  91:Generated_Source\PSoC5/Mantmr.c ****         #if(Mantmr_UseStatus)
  92:Generated_Source\PSoC5/Mantmr.c ****             /* Interrupt State Backup for Critical Region*/
  93:Generated_Source\PSoC5/Mantmr.c ****             uint8 Mantmr_interruptState;
  94:Generated_Source\PSoC5/Mantmr.c ****         #endif /* (Mantmr_UseStatus) */
  95:Generated_Source\PSoC5/Mantmr.c ****     #endif /* (!Mantmr_UsingFixedFunction) */
  96:Generated_Source\PSoC5/Mantmr.c **** 
  97:Generated_Source\PSoC5/Mantmr.c ****     #if (Mantmr_UsingFixedFunction)
  98:Generated_Source\PSoC5/Mantmr.c ****         /* You are allowed to write the compare value (FF only) */
  99:Generated_Source\PSoC5/Mantmr.c ****         Mantmr_CONTROL |= Mantmr_CFG0_MODE;
 100:Generated_Source\PSoC5/Mantmr.c ****         #if (Mantmr_DeadBand2_4)
 101:Generated_Source\PSoC5/Mantmr.c ****             Mantmr_CONTROL |= Mantmr_CFG0_DB;
 102:Generated_Source\PSoC5/Mantmr.c ****         #endif /* (Mantmr_DeadBand2_4) */
 103:Generated_Source\PSoC5/Mantmr.c **** 
 104:Generated_Source\PSoC5/Mantmr.c ****         ctrl = Mantmr_CONTROL3 & ((uint8 )(~Mantmr_CTRL_CMPMODE1_MASK));
 105:Generated_Source\PSoC5/Mantmr.c ****         Mantmr_CONTROL3 = ctrl | Mantmr_DEFAULT_COMPARE1_MODE;
 106:Generated_Source\PSoC5/Mantmr.c **** 
 107:Generated_Source\PSoC5/Mantmr.c ****          /* Clear and Set SYNCTC and SYNCCMP bits of RT1 register */
 108:Generated_Source\PSoC5/Mantmr.c ****         Mantmr_RT1 &= ((uint8)(~Mantmr_RT1_MASK));
 109:Generated_Source\PSoC5/Mantmr.c ****         Mantmr_RT1 |= Mantmr_SYNC;
 110:Generated_Source\PSoC5/Mantmr.c **** 
 111:Generated_Source\PSoC5/Mantmr.c ****         /*Enable DSI Sync all all inputs of the PWM*/
 112:Generated_Source\PSoC5/Mantmr.c ****         Mantmr_RT1 &= ((uint8)(~Mantmr_SYNCDSI_MASK));
 113:Generated_Source\PSoC5/Mantmr.c ****         Mantmr_RT1 |= Mantmr_SYNCDSI_EN;
 114:Generated_Source\PSoC5/Mantmr.c **** 
 115:Generated_Source\PSoC5/Mantmr.c ****     #elif (Mantmr_UseControl)
 116:Generated_Source\PSoC5/Mantmr.c ****         /* Set the default compare mode defined in the parameter */
 117:Generated_Source\PSoC5/Mantmr.c ****         ctrl = Mantmr_CONTROL & ((uint8)(~Mantmr_CTRL_CMPMODE2_MASK)) &
 118:Generated_Source\PSoC5/Mantmr.c ****                 ((uint8)(~Mantmr_CTRL_CMPMODE1_MASK));
 119:Generated_Source\PSoC5/Mantmr.c ****         Mantmr_CONTROL = ctrl | Mantmr_DEFAULT_COMPARE2_MODE |
 120:Generated_Source\PSoC5/Mantmr.c ****                                    Mantmr_DEFAULT_COMPARE1_MODE;
 121:Generated_Source\PSoC5/Mantmr.c ****     #endif /* (Mantmr_UsingFixedFunction) */
 122:Generated_Source\PSoC5/Mantmr.c **** 
 123:Generated_Source\PSoC5/Mantmr.c ****     #if (!Mantmr_UsingFixedFunction)
 124:Generated_Source\PSoC5/Mantmr.c ****         #if (Mantmr_Resolution == 8)
 125:Generated_Source\PSoC5/Mantmr.c ****             /* Set FIFO 0 to 1 byte register for period*/
 126:Generated_Source\PSoC5/Mantmr.c ****             Mantmr_AUX_CONTROLDP0 |= (Mantmr_AUX_CTRL_FIFO0_CLR);
 127:Generated_Source\PSoC5/Mantmr.c ****         #else /* (Mantmr_Resolution == 16)*/
 128:Generated_Source\PSoC5/Mantmr.c ****             /* Set FIFO 0 to 1 byte register for period */
 129:Generated_Source\PSoC5/Mantmr.c ****             Mantmr_AUX_CONTROLDP0 |= (Mantmr_AUX_CTRL_FIFO0_CLR);
 130:Generated_Source\PSoC5/Mantmr.c ****             Mantmr_AUX_CONTROLDP1 |= (Mantmr_AUX_CTRL_FIFO0_CLR);
 131:Generated_Source\PSoC5/Mantmr.c ****         #endif /* (Mantmr_Resolution == 8) */
 132:Generated_Source\PSoC5/Mantmr.c **** 
 133:Generated_Source\PSoC5/Mantmr.c ****         Mantmr_WriteCounter(Mantmr_INIT_PERIOD_VALUE);
 134:Generated_Source\PSoC5/Mantmr.c ****     #endif /* (!Mantmr_UsingFixedFunction) */
 135:Generated_Source\PSoC5/Mantmr.c **** 
 136:Generated_Source\PSoC5/Mantmr.c ****     Mantmr_WritePeriod(Mantmr_INIT_PERIOD_VALUE);
 137:Generated_Source\PSoC5/Mantmr.c **** 
 138:Generated_Source\PSoC5/Mantmr.c ****         #if (Mantmr_UseOneCompareMode)
 139:Generated_Source\PSoC5/Mantmr.c ****             Mantmr_WriteCompare(Mantmr_INIT_COMPARE_VALUE1);
 140:Generated_Source\PSoC5/Mantmr.c ****         #else
 141:Generated_Source\PSoC5/Mantmr.c ****             Mantmr_WriteCompare1(Mantmr_INIT_COMPARE_VALUE1);
 142:Generated_Source\PSoC5/Mantmr.c ****             Mantmr_WriteCompare2(Mantmr_INIT_COMPARE_VALUE2);
 143:Generated_Source\PSoC5/Mantmr.c ****         #endif /* (Mantmr_UseOneCompareMode) */
 144:Generated_Source\PSoC5/Mantmr.c **** 
ARM GAS  C:\Users\chemi\AppData\Local\Temp\ccTUkXtX.s 			page 4


 145:Generated_Source\PSoC5/Mantmr.c ****         #if (Mantmr_KillModeMinTime)
 146:Generated_Source\PSoC5/Mantmr.c ****             Mantmr_WriteKillTime(Mantmr_MinimumKillTime);
 147:Generated_Source\PSoC5/Mantmr.c ****         #endif /* (Mantmr_KillModeMinTime) */
 148:Generated_Source\PSoC5/Mantmr.c **** 
 149:Generated_Source\PSoC5/Mantmr.c ****         #if (Mantmr_DeadBandUsed)
 150:Generated_Source\PSoC5/Mantmr.c ****             Mantmr_WriteDeadTime(Mantmr_INIT_DEAD_TIME);
 151:Generated_Source\PSoC5/Mantmr.c ****         #endif /* (Mantmr_DeadBandUsed) */
 152:Generated_Source\PSoC5/Mantmr.c **** 
 153:Generated_Source\PSoC5/Mantmr.c ****     #if (Mantmr_UseStatus || Mantmr_UsingFixedFunction)
 154:Generated_Source\PSoC5/Mantmr.c ****         Mantmr_SetInterruptMode(Mantmr_INIT_INTERRUPTS_MODE);
 155:Generated_Source\PSoC5/Mantmr.c ****     #endif /* (Mantmr_UseStatus || Mantmr_UsingFixedFunction) */
 156:Generated_Source\PSoC5/Mantmr.c **** 
 157:Generated_Source\PSoC5/Mantmr.c ****     #if (Mantmr_UsingFixedFunction)
 158:Generated_Source\PSoC5/Mantmr.c ****         /* Globally Enable the Fixed Function Block chosen */
 159:Generated_Source\PSoC5/Mantmr.c ****         Mantmr_GLOBAL_ENABLE |= Mantmr_BLOCK_EN_MASK;
 160:Generated_Source\PSoC5/Mantmr.c ****         /* Set the Interrupt source to come from the status register */
 161:Generated_Source\PSoC5/Mantmr.c ****         Mantmr_CONTROL2 |= Mantmr_CTRL2_IRQ_SEL;
 162:Generated_Source\PSoC5/Mantmr.c ****     #else
 163:Generated_Source\PSoC5/Mantmr.c ****         #if(Mantmr_UseStatus)
 164:Generated_Source\PSoC5/Mantmr.c **** 
 165:Generated_Source\PSoC5/Mantmr.c ****             /* CyEnterCriticalRegion and CyExitCriticalRegion are used to mark following region cri
 166:Generated_Source\PSoC5/Mantmr.c ****             /* Enter Critical Region*/
 167:Generated_Source\PSoC5/Mantmr.c ****             Mantmr_interruptState = CyEnterCriticalSection();
 168:Generated_Source\PSoC5/Mantmr.c ****             /* Use the interrupt output of the status register for IRQ output */
 169:Generated_Source\PSoC5/Mantmr.c ****             Mantmr_STATUS_AUX_CTRL |= Mantmr_STATUS_ACTL_INT_EN_MASK;
 170:Generated_Source\PSoC5/Mantmr.c **** 
 171:Generated_Source\PSoC5/Mantmr.c ****              /* Exit Critical Region*/
 172:Generated_Source\PSoC5/Mantmr.c ****             CyExitCriticalSection(Mantmr_interruptState);
 173:Generated_Source\PSoC5/Mantmr.c **** 
 174:Generated_Source\PSoC5/Mantmr.c ****             /* Clear the FIFO to enable the Mantmr_STATUS_FIFOFULL
 175:Generated_Source\PSoC5/Mantmr.c ****                    bit to be set on FIFO full. */
 176:Generated_Source\PSoC5/Mantmr.c ****             Mantmr_ClearFIFO();
 177:Generated_Source\PSoC5/Mantmr.c ****         #endif /* (Mantmr_UseStatus) */
 178:Generated_Source\PSoC5/Mantmr.c ****     #endif /* (Mantmr_UsingFixedFunction) */
 179:Generated_Source\PSoC5/Mantmr.c **** }
 180:Generated_Source\PSoC5/Mantmr.c **** 
 181:Generated_Source\PSoC5/Mantmr.c **** 
 182:Generated_Source\PSoC5/Mantmr.c **** /*******************************************************************************
 183:Generated_Source\PSoC5/Mantmr.c **** * Function Name: Mantmr_Enable
 184:Generated_Source\PSoC5/Mantmr.c **** ********************************************************************************
 185:Generated_Source\PSoC5/Mantmr.c **** *
 186:Generated_Source\PSoC5/Mantmr.c **** * Summary:
 187:Generated_Source\PSoC5/Mantmr.c **** *  Enables the PWM block operation
 188:Generated_Source\PSoC5/Mantmr.c **** *
 189:Generated_Source\PSoC5/Mantmr.c **** * Parameters:
 190:Generated_Source\PSoC5/Mantmr.c **** *  None
 191:Generated_Source\PSoC5/Mantmr.c **** *
 192:Generated_Source\PSoC5/Mantmr.c **** * Return:
 193:Generated_Source\PSoC5/Mantmr.c **** *  None
 194:Generated_Source\PSoC5/Mantmr.c **** *
 195:Generated_Source\PSoC5/Mantmr.c **** * Side Effects:
 196:Generated_Source\PSoC5/Mantmr.c **** *  This works only if software enable mode is chosen
 197:Generated_Source\PSoC5/Mantmr.c **** *
 198:Generated_Source\PSoC5/Mantmr.c **** *******************************************************************************/
 199:Generated_Source\PSoC5/Mantmr.c **** void Mantmr_Enable(void) 
 200:Generated_Source\PSoC5/Mantmr.c **** {
  28              		.loc 1 200 0
ARM GAS  C:\Users\chemi\AppData\Local\Temp\ccTUkXtX.s 			page 5


  29              		.cfi_startproc
  30              		@ args = 0, pretend = 0, frame = 0
  31              		@ frame_needed = 0, uses_anonymous_args = 0
  32              		@ link register save eliminated.
 201:Generated_Source\PSoC5/Mantmr.c ****     /* Globally Enable the Fixed Function Block chosen */
 202:Generated_Source\PSoC5/Mantmr.c ****     #if (Mantmr_UsingFixedFunction)
 203:Generated_Source\PSoC5/Mantmr.c ****         Mantmr_GLOBAL_ENABLE |= Mantmr_BLOCK_EN_MASK;
 204:Generated_Source\PSoC5/Mantmr.c ****         Mantmr_GLOBAL_STBY_ENABLE |= Mantmr_BLOCK_STBY_EN_MASK;
 205:Generated_Source\PSoC5/Mantmr.c ****     #endif /* (Mantmr_UsingFixedFunction) */
 206:Generated_Source\PSoC5/Mantmr.c **** 
 207:Generated_Source\PSoC5/Mantmr.c ****     /* Enable the PWM from the control register  */
 208:Generated_Source\PSoC5/Mantmr.c ****     #if (Mantmr_UseControl || Mantmr_UsingFixedFunction)
 209:Generated_Source\PSoC5/Mantmr.c ****         Mantmr_CONTROL |= Mantmr_CTRL_ENABLE;
  33              		.loc 1 209 0
  34 0000 024A     		ldr	r2, .L2
  35 0002 1378     		ldrb	r3, [r2]	@ zero_extendqisi2
  36 0004 43F08003 		orr	r3, r3, #128
  37 0008 1370     		strb	r3, [r2]
  38 000a 7047     		bx	lr
  39              	.L3:
  40              		.align	2
  41              	.L2:
  42 000c 78640040 		.word	1073767544
  43              		.cfi_endproc
  44              	.LFE2:
  45              		.size	Mantmr_Enable, .-Mantmr_Enable
  46              		.section	.text.Mantmr_Stop,"ax",%progbits
  47              		.align	1
  48              		.global	Mantmr_Stop
  49              		.thumb
  50              		.thumb_func
  51              		.type	Mantmr_Stop, %function
  52              	Mantmr_Stop:
  53              	.LFB3:
 210:Generated_Source\PSoC5/Mantmr.c ****     #endif /* (Mantmr_UseControl || Mantmr_UsingFixedFunction) */
 211:Generated_Source\PSoC5/Mantmr.c **** }
 212:Generated_Source\PSoC5/Mantmr.c **** 
 213:Generated_Source\PSoC5/Mantmr.c **** 
 214:Generated_Source\PSoC5/Mantmr.c **** /*******************************************************************************
 215:Generated_Source\PSoC5/Mantmr.c **** * Function Name: Mantmr_Stop
 216:Generated_Source\PSoC5/Mantmr.c **** ********************************************************************************
 217:Generated_Source\PSoC5/Mantmr.c **** *
 218:Generated_Source\PSoC5/Mantmr.c **** * Summary:
 219:Generated_Source\PSoC5/Mantmr.c **** *  The stop function halts the PWM, but does not change any modes or disable
 220:Generated_Source\PSoC5/Mantmr.c **** *  interrupts.
 221:Generated_Source\PSoC5/Mantmr.c **** *
 222:Generated_Source\PSoC5/Mantmr.c **** * Parameters:
 223:Generated_Source\PSoC5/Mantmr.c **** *  None
 224:Generated_Source\PSoC5/Mantmr.c **** *
 225:Generated_Source\PSoC5/Mantmr.c **** * Return:
 226:Generated_Source\PSoC5/Mantmr.c **** *  None
 227:Generated_Source\PSoC5/Mantmr.c **** *
 228:Generated_Source\PSoC5/Mantmr.c **** * Side Effects:
 229:Generated_Source\PSoC5/Mantmr.c **** *  If the Enable mode is set to Hardware only then this function
 230:Generated_Source\PSoC5/Mantmr.c **** *  has no effect on the operation of the PWM
 231:Generated_Source\PSoC5/Mantmr.c **** *
 232:Generated_Source\PSoC5/Mantmr.c **** *******************************************************************************/
ARM GAS  C:\Users\chemi\AppData\Local\Temp\ccTUkXtX.s 			page 6


 233:Generated_Source\PSoC5/Mantmr.c **** void Mantmr_Stop(void) 
 234:Generated_Source\PSoC5/Mantmr.c **** {
  54              		.loc 1 234 0
  55              		.cfi_startproc
  56              		@ args = 0, pretend = 0, frame = 0
  57              		@ frame_needed = 0, uses_anonymous_args = 0
  58              		@ link register save eliminated.
 235:Generated_Source\PSoC5/Mantmr.c ****     #if (Mantmr_UseControl || Mantmr_UsingFixedFunction)
 236:Generated_Source\PSoC5/Mantmr.c ****         Mantmr_CONTROL &= ((uint8)(~Mantmr_CTRL_ENABLE));
  59              		.loc 1 236 0
  60 0000 024A     		ldr	r2, .L5
  61 0002 1378     		ldrb	r3, [r2]	@ zero_extendqisi2
  62 0004 03F07F03 		and	r3, r3, #127
  63 0008 1370     		strb	r3, [r2]
  64 000a 7047     		bx	lr
  65              	.L6:
  66              		.align	2
  67              	.L5:
  68 000c 78640040 		.word	1073767544
  69              		.cfi_endproc
  70              	.LFE3:
  71              		.size	Mantmr_Stop, .-Mantmr_Stop
  72              		.section	.text.Mantmr_WriteCounter,"ax",%progbits
  73              		.align	1
  74              		.global	Mantmr_WriteCounter
  75              		.thumb
  76              		.thumb_func
  77              		.type	Mantmr_WriteCounter, %function
  78              	Mantmr_WriteCounter:
  79              	.LFB4:
 237:Generated_Source\PSoC5/Mantmr.c ****     #endif /* (Mantmr_UseControl || Mantmr_UsingFixedFunction) */
 238:Generated_Source\PSoC5/Mantmr.c **** 
 239:Generated_Source\PSoC5/Mantmr.c ****     /* Globally disable the Fixed Function Block chosen */
 240:Generated_Source\PSoC5/Mantmr.c ****     #if (Mantmr_UsingFixedFunction)
 241:Generated_Source\PSoC5/Mantmr.c ****         Mantmr_GLOBAL_ENABLE &= ((uint8)(~Mantmr_BLOCK_EN_MASK));
 242:Generated_Source\PSoC5/Mantmr.c ****         Mantmr_GLOBAL_STBY_ENABLE &= ((uint8)(~Mantmr_BLOCK_STBY_EN_MASK));
 243:Generated_Source\PSoC5/Mantmr.c ****     #endif /* (Mantmr_UsingFixedFunction) */
 244:Generated_Source\PSoC5/Mantmr.c **** }
 245:Generated_Source\PSoC5/Mantmr.c **** 
 246:Generated_Source\PSoC5/Mantmr.c **** #if (Mantmr_UseOneCompareMode)
 247:Generated_Source\PSoC5/Mantmr.c ****     #if (Mantmr_CompareMode1SW)
 248:Generated_Source\PSoC5/Mantmr.c **** 
 249:Generated_Source\PSoC5/Mantmr.c **** 
 250:Generated_Source\PSoC5/Mantmr.c ****         /*******************************************************************************
 251:Generated_Source\PSoC5/Mantmr.c ****         * Function Name: Mantmr_SetCompareMode
 252:Generated_Source\PSoC5/Mantmr.c ****         ********************************************************************************
 253:Generated_Source\PSoC5/Mantmr.c ****         *
 254:Generated_Source\PSoC5/Mantmr.c ****         * Summary:
 255:Generated_Source\PSoC5/Mantmr.c ****         *  This function writes the Compare Mode for the pwm output when in Dither mode,
 256:Generated_Source\PSoC5/Mantmr.c ****         *  Center Align Mode or One Output Mode.
 257:Generated_Source\PSoC5/Mantmr.c ****         *
 258:Generated_Source\PSoC5/Mantmr.c ****         * Parameters:
 259:Generated_Source\PSoC5/Mantmr.c ****         *  comparemode:  The new compare mode for the PWM output. Use the compare types
 260:Generated_Source\PSoC5/Mantmr.c ****         *                defined in the H file as input arguments.
 261:Generated_Source\PSoC5/Mantmr.c ****         *
 262:Generated_Source\PSoC5/Mantmr.c ****         * Return:
 263:Generated_Source\PSoC5/Mantmr.c ****         *  None
ARM GAS  C:\Users\chemi\AppData\Local\Temp\ccTUkXtX.s 			page 7


 264:Generated_Source\PSoC5/Mantmr.c ****         *
 265:Generated_Source\PSoC5/Mantmr.c ****         *******************************************************************************/
 266:Generated_Source\PSoC5/Mantmr.c ****         void Mantmr_SetCompareMode(uint8 comparemode) 
 267:Generated_Source\PSoC5/Mantmr.c ****         {
 268:Generated_Source\PSoC5/Mantmr.c ****             #if(Mantmr_UsingFixedFunction)
 269:Generated_Source\PSoC5/Mantmr.c **** 
 270:Generated_Source\PSoC5/Mantmr.c ****                 #if(0 != Mantmr_CTRL_CMPMODE1_SHIFT)
 271:Generated_Source\PSoC5/Mantmr.c ****                     uint8 comparemodemasked = ((uint8)((uint8)comparemode << Mantmr_CTRL_CMPMODE1_S
 272:Generated_Source\PSoC5/Mantmr.c ****                 #else
 273:Generated_Source\PSoC5/Mantmr.c ****                     uint8 comparemodemasked = comparemode;
 274:Generated_Source\PSoC5/Mantmr.c ****                 #endif /* (0 != Mantmr_CTRL_CMPMODE1_SHIFT) */
 275:Generated_Source\PSoC5/Mantmr.c **** 
 276:Generated_Source\PSoC5/Mantmr.c ****                 Mantmr_CONTROL3 &= ((uint8)(~Mantmr_CTRL_CMPMODE1_MASK)); /*Clear Existing Data */
 277:Generated_Source\PSoC5/Mantmr.c ****                 Mantmr_CONTROL3 |= comparemodemasked;
 278:Generated_Source\PSoC5/Mantmr.c **** 
 279:Generated_Source\PSoC5/Mantmr.c ****             #elif (Mantmr_UseControl)
 280:Generated_Source\PSoC5/Mantmr.c **** 
 281:Generated_Source\PSoC5/Mantmr.c ****                 #if(0 != Mantmr_CTRL_CMPMODE1_SHIFT)
 282:Generated_Source\PSoC5/Mantmr.c ****                     uint8 comparemode1masked = ((uint8)((uint8)comparemode << Mantmr_CTRL_CMPMODE1_
 283:Generated_Source\PSoC5/Mantmr.c ****                                                 Mantmr_CTRL_CMPMODE1_MASK;
 284:Generated_Source\PSoC5/Mantmr.c ****                 #else
 285:Generated_Source\PSoC5/Mantmr.c ****                     uint8 comparemode1masked = comparemode & Mantmr_CTRL_CMPMODE1_MASK;
 286:Generated_Source\PSoC5/Mantmr.c ****                 #endif /* (0 != Mantmr_CTRL_CMPMODE1_SHIFT) */
 287:Generated_Source\PSoC5/Mantmr.c **** 
 288:Generated_Source\PSoC5/Mantmr.c ****                 #if(0 != Mantmr_CTRL_CMPMODE2_SHIFT)
 289:Generated_Source\PSoC5/Mantmr.c ****                     uint8 comparemode2masked = ((uint8)((uint8)comparemode << Mantmr_CTRL_CMPMODE2_
 290:Generated_Source\PSoC5/Mantmr.c ****                                                Mantmr_CTRL_CMPMODE2_MASK;
 291:Generated_Source\PSoC5/Mantmr.c ****                 #else
 292:Generated_Source\PSoC5/Mantmr.c ****                     uint8 comparemode2masked = comparemode & Mantmr_CTRL_CMPMODE2_MASK;
 293:Generated_Source\PSoC5/Mantmr.c ****                 #endif /* (0 != Mantmr_CTRL_CMPMODE2_SHIFT) */
 294:Generated_Source\PSoC5/Mantmr.c **** 
 295:Generated_Source\PSoC5/Mantmr.c ****                 /*Clear existing mode */
 296:Generated_Source\PSoC5/Mantmr.c ****                 Mantmr_CONTROL &= ((uint8)(~(Mantmr_CTRL_CMPMODE1_MASK |
 297:Generated_Source\PSoC5/Mantmr.c ****                                             Mantmr_CTRL_CMPMODE2_MASK)));
 298:Generated_Source\PSoC5/Mantmr.c ****                 Mantmr_CONTROL |= (comparemode1masked | comparemode2masked);
 299:Generated_Source\PSoC5/Mantmr.c **** 
 300:Generated_Source\PSoC5/Mantmr.c ****             #else
 301:Generated_Source\PSoC5/Mantmr.c ****                 uint8 temp = comparemode;
 302:Generated_Source\PSoC5/Mantmr.c ****             #endif /* (Mantmr_UsingFixedFunction) */
 303:Generated_Source\PSoC5/Mantmr.c ****         }
 304:Generated_Source\PSoC5/Mantmr.c ****     #endif /* Mantmr_CompareMode1SW */
 305:Generated_Source\PSoC5/Mantmr.c **** 
 306:Generated_Source\PSoC5/Mantmr.c **** #else /* UseOneCompareMode */
 307:Generated_Source\PSoC5/Mantmr.c **** 
 308:Generated_Source\PSoC5/Mantmr.c ****     #if (Mantmr_CompareMode1SW)
 309:Generated_Source\PSoC5/Mantmr.c **** 
 310:Generated_Source\PSoC5/Mantmr.c **** 
 311:Generated_Source\PSoC5/Mantmr.c ****         /*******************************************************************************
 312:Generated_Source\PSoC5/Mantmr.c ****         * Function Name: Mantmr_SetCompareMode1
 313:Generated_Source\PSoC5/Mantmr.c ****         ********************************************************************************
 314:Generated_Source\PSoC5/Mantmr.c ****         *
 315:Generated_Source\PSoC5/Mantmr.c ****         * Summary:
 316:Generated_Source\PSoC5/Mantmr.c ****         *  This function writes the Compare Mode for the pwm or pwm1 output
 317:Generated_Source\PSoC5/Mantmr.c ****         *
 318:Generated_Source\PSoC5/Mantmr.c ****         * Parameters:
 319:Generated_Source\PSoC5/Mantmr.c ****         *  comparemode:  The new compare mode for the PWM output. Use the compare types
 320:Generated_Source\PSoC5/Mantmr.c ****         *                defined in the H file as input arguments.
ARM GAS  C:\Users\chemi\AppData\Local\Temp\ccTUkXtX.s 			page 8


 321:Generated_Source\PSoC5/Mantmr.c ****         *
 322:Generated_Source\PSoC5/Mantmr.c ****         * Return:
 323:Generated_Source\PSoC5/Mantmr.c ****         *  None
 324:Generated_Source\PSoC5/Mantmr.c ****         *
 325:Generated_Source\PSoC5/Mantmr.c ****         *******************************************************************************/
 326:Generated_Source\PSoC5/Mantmr.c ****         void Mantmr_SetCompareMode1(uint8 comparemode) 
 327:Generated_Source\PSoC5/Mantmr.c ****         {
 328:Generated_Source\PSoC5/Mantmr.c ****             #if(0 != Mantmr_CTRL_CMPMODE1_SHIFT)
 329:Generated_Source\PSoC5/Mantmr.c ****                 uint8 comparemodemasked = ((uint8)((uint8)comparemode << Mantmr_CTRL_CMPMODE1_SHIFT
 330:Generated_Source\PSoC5/Mantmr.c ****                                            Mantmr_CTRL_CMPMODE1_MASK;
 331:Generated_Source\PSoC5/Mantmr.c ****             #else
 332:Generated_Source\PSoC5/Mantmr.c ****                 uint8 comparemodemasked = comparemode & Mantmr_CTRL_CMPMODE1_MASK;
 333:Generated_Source\PSoC5/Mantmr.c ****             #endif /* (0 != Mantmr_CTRL_CMPMODE1_SHIFT) */
 334:Generated_Source\PSoC5/Mantmr.c **** 
 335:Generated_Source\PSoC5/Mantmr.c ****             #if (Mantmr_UseControl)
 336:Generated_Source\PSoC5/Mantmr.c ****                 Mantmr_CONTROL &= ((uint8)(~Mantmr_CTRL_CMPMODE1_MASK)); /*Clear existing mode */
 337:Generated_Source\PSoC5/Mantmr.c ****                 Mantmr_CONTROL |= comparemodemasked;
 338:Generated_Source\PSoC5/Mantmr.c ****             #endif /* (Mantmr_UseControl) */
 339:Generated_Source\PSoC5/Mantmr.c ****         }
 340:Generated_Source\PSoC5/Mantmr.c ****     #endif /* Mantmr_CompareMode1SW */
 341:Generated_Source\PSoC5/Mantmr.c **** 
 342:Generated_Source\PSoC5/Mantmr.c **** #if (Mantmr_CompareMode2SW)
 343:Generated_Source\PSoC5/Mantmr.c **** 
 344:Generated_Source\PSoC5/Mantmr.c **** 
 345:Generated_Source\PSoC5/Mantmr.c ****     /*******************************************************************************
 346:Generated_Source\PSoC5/Mantmr.c ****     * Function Name: Mantmr_SetCompareMode2
 347:Generated_Source\PSoC5/Mantmr.c ****     ********************************************************************************
 348:Generated_Source\PSoC5/Mantmr.c ****     *
 349:Generated_Source\PSoC5/Mantmr.c ****     * Summary:
 350:Generated_Source\PSoC5/Mantmr.c ****     *  This function writes the Compare Mode for the pwm or pwm2 output
 351:Generated_Source\PSoC5/Mantmr.c ****     *
 352:Generated_Source\PSoC5/Mantmr.c ****     * Parameters:
 353:Generated_Source\PSoC5/Mantmr.c ****     *  comparemode:  The new compare mode for the PWM output. Use the compare types
 354:Generated_Source\PSoC5/Mantmr.c ****     *                defined in the H file as input arguments.
 355:Generated_Source\PSoC5/Mantmr.c ****     *
 356:Generated_Source\PSoC5/Mantmr.c ****     * Return:
 357:Generated_Source\PSoC5/Mantmr.c ****     *  None
 358:Generated_Source\PSoC5/Mantmr.c ****     *
 359:Generated_Source\PSoC5/Mantmr.c ****     *******************************************************************************/
 360:Generated_Source\PSoC5/Mantmr.c ****     void Mantmr_SetCompareMode2(uint8 comparemode) 
 361:Generated_Source\PSoC5/Mantmr.c ****     {
 362:Generated_Source\PSoC5/Mantmr.c **** 
 363:Generated_Source\PSoC5/Mantmr.c ****         #if(0 != Mantmr_CTRL_CMPMODE2_SHIFT)
 364:Generated_Source\PSoC5/Mantmr.c ****             uint8 comparemodemasked = ((uint8)((uint8)comparemode << Mantmr_CTRL_CMPMODE2_SHIFT)) &
 365:Generated_Source\PSoC5/Mantmr.c ****                                                  Mantmr_CTRL_CMPMODE2_MASK;
 366:Generated_Source\PSoC5/Mantmr.c ****         #else
 367:Generated_Source\PSoC5/Mantmr.c ****             uint8 comparemodemasked = comparemode & Mantmr_CTRL_CMPMODE2_MASK;
 368:Generated_Source\PSoC5/Mantmr.c ****         #endif /* (0 != Mantmr_CTRL_CMPMODE2_SHIFT) */
 369:Generated_Source\PSoC5/Mantmr.c **** 
 370:Generated_Source\PSoC5/Mantmr.c ****         #if (Mantmr_UseControl)
 371:Generated_Source\PSoC5/Mantmr.c ****             Mantmr_CONTROL &= ((uint8)(~Mantmr_CTRL_CMPMODE2_MASK)); /*Clear existing mode */
 372:Generated_Source\PSoC5/Mantmr.c ****             Mantmr_CONTROL |= comparemodemasked;
 373:Generated_Source\PSoC5/Mantmr.c ****         #endif /* (Mantmr_UseControl) */
 374:Generated_Source\PSoC5/Mantmr.c ****     }
 375:Generated_Source\PSoC5/Mantmr.c ****     #endif /*Mantmr_CompareMode2SW */
 376:Generated_Source\PSoC5/Mantmr.c **** 
 377:Generated_Source\PSoC5/Mantmr.c **** #endif /* UseOneCompareMode */
ARM GAS  C:\Users\chemi\AppData\Local\Temp\ccTUkXtX.s 			page 9


 378:Generated_Source\PSoC5/Mantmr.c **** 
 379:Generated_Source\PSoC5/Mantmr.c **** 
 380:Generated_Source\PSoC5/Mantmr.c **** #if (!Mantmr_UsingFixedFunction)
 381:Generated_Source\PSoC5/Mantmr.c **** 
 382:Generated_Source\PSoC5/Mantmr.c **** 
 383:Generated_Source\PSoC5/Mantmr.c ****     /*******************************************************************************
 384:Generated_Source\PSoC5/Mantmr.c ****     * Function Name: Mantmr_WriteCounter
 385:Generated_Source\PSoC5/Mantmr.c ****     ********************************************************************************
 386:Generated_Source\PSoC5/Mantmr.c ****     *
 387:Generated_Source\PSoC5/Mantmr.c ****     * Summary:
 388:Generated_Source\PSoC5/Mantmr.c ****     *  Writes a new counter value directly to the counter register. This will be
 389:Generated_Source\PSoC5/Mantmr.c ****     *  implemented for that currently running period and only that period. This API
 390:Generated_Source\PSoC5/Mantmr.c ****     *  is valid only for UDB implementation and not available for fixed function
 391:Generated_Source\PSoC5/Mantmr.c ****     *  PWM implementation.
 392:Generated_Source\PSoC5/Mantmr.c ****     *
 393:Generated_Source\PSoC5/Mantmr.c ****     * Parameters:
 394:Generated_Source\PSoC5/Mantmr.c ****     *  counter:  The period new period counter value.
 395:Generated_Source\PSoC5/Mantmr.c ****     *
 396:Generated_Source\PSoC5/Mantmr.c ****     * Return:
 397:Generated_Source\PSoC5/Mantmr.c ****     *  None
 398:Generated_Source\PSoC5/Mantmr.c ****     *
 399:Generated_Source\PSoC5/Mantmr.c ****     * Side Effects:
 400:Generated_Source\PSoC5/Mantmr.c ****     *  The PWM Period will be reloaded when a counter value will be a zero
 401:Generated_Source\PSoC5/Mantmr.c ****     *
 402:Generated_Source\PSoC5/Mantmr.c ****     *******************************************************************************/
 403:Generated_Source\PSoC5/Mantmr.c ****     void Mantmr_WriteCounter(uint8 counter) \
 404:Generated_Source\PSoC5/Mantmr.c ****                                        
 405:Generated_Source\PSoC5/Mantmr.c ****     {
  80              		.loc 1 405 0
  81              		.cfi_startproc
  82              		@ args = 0, pretend = 0, frame = 0
  83              		@ frame_needed = 0, uses_anonymous_args = 0
  84              		@ link register save eliminated.
  85              	.LVL0:
 406:Generated_Source\PSoC5/Mantmr.c ****         CY_SET_REG8(Mantmr_COUNTER_LSB_PTR, counter);
  86              		.loc 1 406 0
  87 0000 014B     		ldr	r3, .L8
  88 0002 1870     		strb	r0, [r3]
  89 0004 7047     		bx	lr
  90              	.L9:
  91 0006 00BF     		.align	2
  92              	.L8:
  93 0008 08640040 		.word	1073767432
  94              		.cfi_endproc
  95              	.LFE4:
  96              		.size	Mantmr_WriteCounter, .-Mantmr_WriteCounter
  97              		.section	.text.Mantmr_ReadCounter,"ax",%progbits
  98              		.align	1
  99              		.global	Mantmr_ReadCounter
 100              		.thumb
 101              		.thumb_func
 102              		.type	Mantmr_ReadCounter, %function
 103              	Mantmr_ReadCounter:
 104              	.LFB5:
 407:Generated_Source\PSoC5/Mantmr.c ****     }
 408:Generated_Source\PSoC5/Mantmr.c **** 
 409:Generated_Source\PSoC5/Mantmr.c **** 
ARM GAS  C:\Users\chemi\AppData\Local\Temp\ccTUkXtX.s 			page 10


 410:Generated_Source\PSoC5/Mantmr.c ****     /*******************************************************************************
 411:Generated_Source\PSoC5/Mantmr.c ****     * Function Name: Mantmr_ReadCounter
 412:Generated_Source\PSoC5/Mantmr.c ****     ********************************************************************************
 413:Generated_Source\PSoC5/Mantmr.c ****     *
 414:Generated_Source\PSoC5/Mantmr.c ****     * Summary:
 415:Generated_Source\PSoC5/Mantmr.c ****     *  This function returns the current value of the counter.  It doesn't matter
 416:Generated_Source\PSoC5/Mantmr.c ****     *  if the counter is enabled or running.
 417:Generated_Source\PSoC5/Mantmr.c ****     *
 418:Generated_Source\PSoC5/Mantmr.c ****     * Parameters:
 419:Generated_Source\PSoC5/Mantmr.c ****     *  None
 420:Generated_Source\PSoC5/Mantmr.c ****     *
 421:Generated_Source\PSoC5/Mantmr.c ****     * Return:
 422:Generated_Source\PSoC5/Mantmr.c ****     *  The current value of the counter.
 423:Generated_Source\PSoC5/Mantmr.c ****     *
 424:Generated_Source\PSoC5/Mantmr.c ****     *******************************************************************************/
 425:Generated_Source\PSoC5/Mantmr.c ****     uint8 Mantmr_ReadCounter(void) 
 426:Generated_Source\PSoC5/Mantmr.c ****     {
 105              		.loc 1 426 0
 106              		.cfi_startproc
 107              		@ args = 0, pretend = 0, frame = 0
 108              		@ frame_needed = 0, uses_anonymous_args = 0
 109              		@ link register save eliminated.
 427:Generated_Source\PSoC5/Mantmr.c ****         /* Force capture by reading Accumulator */
 428:Generated_Source\PSoC5/Mantmr.c ****         /* Must first do a software capture to be able to read the counter */
 429:Generated_Source\PSoC5/Mantmr.c ****         /* It is up to the user code to make sure there isn't already captured data in the FIFO */
 430:Generated_Source\PSoC5/Mantmr.c ****           (void)CY_GET_REG8(Mantmr_COUNTERCAP_LSB_PTR_8BIT);
 110              		.loc 1 430 0
 111 0000 024B     		ldr	r3, .L11
 112 0002 1B78     		ldrb	r3, [r3]	@ zero_extendqisi2
 431:Generated_Source\PSoC5/Mantmr.c **** 
 432:Generated_Source\PSoC5/Mantmr.c ****         /* Read the data from the FIFO */
 433:Generated_Source\PSoC5/Mantmr.c ****         return (CY_GET_REG8(Mantmr_CAPTURE_LSB_PTR));
 113              		.loc 1 433 0
 114 0004 024B     		ldr	r3, .L11+4
 115 0006 1878     		ldrb	r0, [r3]	@ zero_extendqisi2
 434:Generated_Source\PSoC5/Mantmr.c ****     }
 116              		.loc 1 434 0
 117 0008 7047     		bx	lr
 118              	.L12:
 119 000a 00BF     		.align	2
 120              	.L11:
 121 000c 18640040 		.word	1073767448
 122 0010 58640040 		.word	1073767512
 123              		.cfi_endproc
 124              	.LFE5:
 125              		.size	Mantmr_ReadCounter, .-Mantmr_ReadCounter
 126              		.section	.text.Mantmr_ClearFIFO,"ax",%progbits
 127              		.align	1
 128              		.global	Mantmr_ClearFIFO
 129              		.thumb
 130              		.thumb_func
 131              		.type	Mantmr_ClearFIFO, %function
 132              	Mantmr_ClearFIFO:
 133              	.LFB6:
 435:Generated_Source\PSoC5/Mantmr.c **** 
 436:Generated_Source\PSoC5/Mantmr.c ****     #if (Mantmr_UseStatus)
 437:Generated_Source\PSoC5/Mantmr.c **** 
ARM GAS  C:\Users\chemi\AppData\Local\Temp\ccTUkXtX.s 			page 11


 438:Generated_Source\PSoC5/Mantmr.c **** 
 439:Generated_Source\PSoC5/Mantmr.c ****         /*******************************************************************************
 440:Generated_Source\PSoC5/Mantmr.c ****         * Function Name: Mantmr_ClearFIFO
 441:Generated_Source\PSoC5/Mantmr.c ****         ********************************************************************************
 442:Generated_Source\PSoC5/Mantmr.c ****         *
 443:Generated_Source\PSoC5/Mantmr.c ****         * Summary:
 444:Generated_Source\PSoC5/Mantmr.c ****         *  This function clears all capture data from the capture FIFO
 445:Generated_Source\PSoC5/Mantmr.c ****         *
 446:Generated_Source\PSoC5/Mantmr.c ****         * Parameters:
 447:Generated_Source\PSoC5/Mantmr.c ****         *  None
 448:Generated_Source\PSoC5/Mantmr.c ****         *
 449:Generated_Source\PSoC5/Mantmr.c ****         * Return:
 450:Generated_Source\PSoC5/Mantmr.c ****         *  None
 451:Generated_Source\PSoC5/Mantmr.c ****         *
 452:Generated_Source\PSoC5/Mantmr.c ****         *******************************************************************************/
 453:Generated_Source\PSoC5/Mantmr.c ****         void Mantmr_ClearFIFO(void) 
 454:Generated_Source\PSoC5/Mantmr.c ****         {
 134              		.loc 1 454 0
 135              		.cfi_startproc
 136              		@ args = 0, pretend = 0, frame = 0
 137              		@ frame_needed = 0, uses_anonymous_args = 0
 138              		@ link register save eliminated.
 139              	.LBB14:
 140              	.LBB15:
 455:Generated_Source\PSoC5/Mantmr.c ****             while(0u != (Mantmr_ReadStatusRegister() & Mantmr_STATUS_FIFONEMPTY))
 456:Generated_Source\PSoC5/Mantmr.c ****             {
 457:Generated_Source\PSoC5/Mantmr.c ****                 (void)Mantmr_ReadCapture();
 458:Generated_Source\PSoC5/Mantmr.c ****             }
 459:Generated_Source\PSoC5/Mantmr.c ****         }
 460:Generated_Source\PSoC5/Mantmr.c **** 
 461:Generated_Source\PSoC5/Mantmr.c ****     #endif /* Mantmr_UseStatus */
 462:Generated_Source\PSoC5/Mantmr.c **** 
 463:Generated_Source\PSoC5/Mantmr.c **** #endif /* !Mantmr_UsingFixedFunction */
 464:Generated_Source\PSoC5/Mantmr.c **** 
 465:Generated_Source\PSoC5/Mantmr.c **** 
 466:Generated_Source\PSoC5/Mantmr.c **** /*******************************************************************************
 467:Generated_Source\PSoC5/Mantmr.c **** * Function Name: Mantmr_WritePeriod
 468:Generated_Source\PSoC5/Mantmr.c **** ********************************************************************************
 469:Generated_Source\PSoC5/Mantmr.c **** *
 470:Generated_Source\PSoC5/Mantmr.c **** * Summary:
 471:Generated_Source\PSoC5/Mantmr.c **** *  This function is used to change the period of the counter.  The new period
 472:Generated_Source\PSoC5/Mantmr.c **** *  will be loaded the next time terminal count is detected.
 473:Generated_Source\PSoC5/Mantmr.c **** *
 474:Generated_Source\PSoC5/Mantmr.c **** * Parameters:
 475:Generated_Source\PSoC5/Mantmr.c **** *  period:  Period value. May be between 1 and (2^Resolution)-1.  A value of 0
 476:Generated_Source\PSoC5/Mantmr.c **** *           will result in the counter remaining at zero.
 477:Generated_Source\PSoC5/Mantmr.c **** *
 478:Generated_Source\PSoC5/Mantmr.c **** * Return:
 479:Generated_Source\PSoC5/Mantmr.c **** *  None
 480:Generated_Source\PSoC5/Mantmr.c **** *
 481:Generated_Source\PSoC5/Mantmr.c **** *******************************************************************************/
 482:Generated_Source\PSoC5/Mantmr.c **** void Mantmr_WritePeriod(uint8 period) 
 483:Generated_Source\PSoC5/Mantmr.c **** {
 484:Generated_Source\PSoC5/Mantmr.c ****     #if(Mantmr_UsingFixedFunction)
 485:Generated_Source\PSoC5/Mantmr.c ****         CY_SET_REG16(Mantmr_PERIOD_LSB_PTR, (uint16)period);
 486:Generated_Source\PSoC5/Mantmr.c ****     #else
 487:Generated_Source\PSoC5/Mantmr.c ****         CY_SET_REG8(Mantmr_PERIOD_LSB_PTR, period);
ARM GAS  C:\Users\chemi\AppData\Local\Temp\ccTUkXtX.s 			page 12


 488:Generated_Source\PSoC5/Mantmr.c ****     #endif /* (Mantmr_UsingFixedFunction) */
 489:Generated_Source\PSoC5/Mantmr.c **** }
 490:Generated_Source\PSoC5/Mantmr.c **** 
 491:Generated_Source\PSoC5/Mantmr.c **** #if (Mantmr_UseOneCompareMode)
 492:Generated_Source\PSoC5/Mantmr.c **** 
 493:Generated_Source\PSoC5/Mantmr.c **** 
 494:Generated_Source\PSoC5/Mantmr.c ****     /*******************************************************************************
 495:Generated_Source\PSoC5/Mantmr.c ****     * Function Name: Mantmr_WriteCompare
 496:Generated_Source\PSoC5/Mantmr.c ****     ********************************************************************************
 497:Generated_Source\PSoC5/Mantmr.c ****     *
 498:Generated_Source\PSoC5/Mantmr.c ****     * Summary:
 499:Generated_Source\PSoC5/Mantmr.c ****     *  This funtion is used to change the compare1 value when the PWM is in Dither
 500:Generated_Source\PSoC5/Mantmr.c ****     *  mode. The compare output will reflect the new value on the next UDB clock.
 501:Generated_Source\PSoC5/Mantmr.c ****     *  The compare output will be driven high when the present counter value is
 502:Generated_Source\PSoC5/Mantmr.c ****     *  compared to the compare value based on the compare mode defined in
 503:Generated_Source\PSoC5/Mantmr.c ****     *  Dither Mode.
 504:Generated_Source\PSoC5/Mantmr.c ****     *
 505:Generated_Source\PSoC5/Mantmr.c ****     * Parameters:
 506:Generated_Source\PSoC5/Mantmr.c ****     *  compare:  New compare value.
 507:Generated_Source\PSoC5/Mantmr.c ****     *
 508:Generated_Source\PSoC5/Mantmr.c ****     * Return:
 509:Generated_Source\PSoC5/Mantmr.c ****     *  None
 510:Generated_Source\PSoC5/Mantmr.c ****     *
 511:Generated_Source\PSoC5/Mantmr.c ****     * Side Effects:
 512:Generated_Source\PSoC5/Mantmr.c ****     *  This function is only available if the PWM mode parameter is set to
 513:Generated_Source\PSoC5/Mantmr.c ****     *  Dither Mode, Center Aligned Mode or One Output Mode
 514:Generated_Source\PSoC5/Mantmr.c ****     *
 515:Generated_Source\PSoC5/Mantmr.c ****     *******************************************************************************/
 516:Generated_Source\PSoC5/Mantmr.c ****     void Mantmr_WriteCompare(uint8 compare) \
 517:Generated_Source\PSoC5/Mantmr.c ****                                        
 518:Generated_Source\PSoC5/Mantmr.c ****     {
 519:Generated_Source\PSoC5/Mantmr.c ****         #if(Mantmr_UsingFixedFunction)
 520:Generated_Source\PSoC5/Mantmr.c ****             CY_SET_REG16(Mantmr_COMPARE1_LSB_PTR, (uint16)compare);
 521:Generated_Source\PSoC5/Mantmr.c ****         #else
 522:Generated_Source\PSoC5/Mantmr.c ****             CY_SET_REG8(Mantmr_COMPARE1_LSB_PTR, compare);
 523:Generated_Source\PSoC5/Mantmr.c ****         #endif /* (Mantmr_UsingFixedFunction) */
 524:Generated_Source\PSoC5/Mantmr.c **** 
 525:Generated_Source\PSoC5/Mantmr.c ****         #if (Mantmr_PWMMode == Mantmr__B_PWM__DITHER)
 526:Generated_Source\PSoC5/Mantmr.c ****             #if(Mantmr_UsingFixedFunction)
 527:Generated_Source\PSoC5/Mantmr.c ****                 CY_SET_REG16(Mantmr_COMPARE2_LSB_PTR, (uint16)(compare + 1u));
 528:Generated_Source\PSoC5/Mantmr.c ****             #else
 529:Generated_Source\PSoC5/Mantmr.c ****                 CY_SET_REG8(Mantmr_COMPARE2_LSB_PTR, (compare + 1u));
 530:Generated_Source\PSoC5/Mantmr.c ****             #endif /* (Mantmr_UsingFixedFunction) */
 531:Generated_Source\PSoC5/Mantmr.c ****         #endif /* (Mantmr_PWMMode == Mantmr__B_PWM__DITHER) */
 532:Generated_Source\PSoC5/Mantmr.c ****     }
 533:Generated_Source\PSoC5/Mantmr.c **** 
 534:Generated_Source\PSoC5/Mantmr.c **** 
 535:Generated_Source\PSoC5/Mantmr.c **** #else
 536:Generated_Source\PSoC5/Mantmr.c **** 
 537:Generated_Source\PSoC5/Mantmr.c **** 
 538:Generated_Source\PSoC5/Mantmr.c ****     /*******************************************************************************
 539:Generated_Source\PSoC5/Mantmr.c ****     * Function Name: Mantmr_WriteCompare1
 540:Generated_Source\PSoC5/Mantmr.c ****     ********************************************************************************
 541:Generated_Source\PSoC5/Mantmr.c ****     *
 542:Generated_Source\PSoC5/Mantmr.c ****     * Summary:
 543:Generated_Source\PSoC5/Mantmr.c ****     *  This funtion is used to change the compare1 value.  The compare output will
 544:Generated_Source\PSoC5/Mantmr.c ****     *  reflect the new value on the next UDB clock.  The compare output will be
ARM GAS  C:\Users\chemi\AppData\Local\Temp\ccTUkXtX.s 			page 13


 545:Generated_Source\PSoC5/Mantmr.c ****     *  driven high when the present counter value is less than or less than or
 546:Generated_Source\PSoC5/Mantmr.c ****     *  equal to the compare register, depending on the mode.
 547:Generated_Source\PSoC5/Mantmr.c ****     *
 548:Generated_Source\PSoC5/Mantmr.c ****     * Parameters:
 549:Generated_Source\PSoC5/Mantmr.c ****     *  compare:  New compare value.
 550:Generated_Source\PSoC5/Mantmr.c ****     *
 551:Generated_Source\PSoC5/Mantmr.c ****     * Return:
 552:Generated_Source\PSoC5/Mantmr.c ****     *  None
 553:Generated_Source\PSoC5/Mantmr.c ****     *
 554:Generated_Source\PSoC5/Mantmr.c ****     *******************************************************************************/
 555:Generated_Source\PSoC5/Mantmr.c ****     void Mantmr_WriteCompare1(uint8 compare) \
 556:Generated_Source\PSoC5/Mantmr.c ****                                         
 557:Generated_Source\PSoC5/Mantmr.c ****     {
 558:Generated_Source\PSoC5/Mantmr.c ****         #if(Mantmr_UsingFixedFunction)
 559:Generated_Source\PSoC5/Mantmr.c ****             CY_SET_REG16(Mantmr_COMPARE1_LSB_PTR, (uint16)compare);
 560:Generated_Source\PSoC5/Mantmr.c ****         #else
 561:Generated_Source\PSoC5/Mantmr.c ****             CY_SET_REG8(Mantmr_COMPARE1_LSB_PTR, compare);
 562:Generated_Source\PSoC5/Mantmr.c ****         #endif /* (Mantmr_UsingFixedFunction) */
 563:Generated_Source\PSoC5/Mantmr.c ****     }
 564:Generated_Source\PSoC5/Mantmr.c **** 
 565:Generated_Source\PSoC5/Mantmr.c **** 
 566:Generated_Source\PSoC5/Mantmr.c ****     /*******************************************************************************
 567:Generated_Source\PSoC5/Mantmr.c ****     * Function Name: Mantmr_WriteCompare2
 568:Generated_Source\PSoC5/Mantmr.c ****     ********************************************************************************
 569:Generated_Source\PSoC5/Mantmr.c ****     *
 570:Generated_Source\PSoC5/Mantmr.c ****     * Summary:
 571:Generated_Source\PSoC5/Mantmr.c ****     *  This funtion is used to change the compare value, for compare1 output.
 572:Generated_Source\PSoC5/Mantmr.c ****     *  The compare output will reflect the new value on the next UDB clock.
 573:Generated_Source\PSoC5/Mantmr.c ****     *  The compare output will be driven high when the present counter value is
 574:Generated_Source\PSoC5/Mantmr.c ****     *  less than or less than or equal to the compare register, depending on the
 575:Generated_Source\PSoC5/Mantmr.c ****     *  mode.
 576:Generated_Source\PSoC5/Mantmr.c ****     *
 577:Generated_Source\PSoC5/Mantmr.c ****     * Parameters:
 578:Generated_Source\PSoC5/Mantmr.c ****     *  compare:  New compare value.
 579:Generated_Source\PSoC5/Mantmr.c ****     *
 580:Generated_Source\PSoC5/Mantmr.c ****     * Return:
 581:Generated_Source\PSoC5/Mantmr.c ****     *  None
 582:Generated_Source\PSoC5/Mantmr.c ****     *
 583:Generated_Source\PSoC5/Mantmr.c ****     *******************************************************************************/
 584:Generated_Source\PSoC5/Mantmr.c ****     void Mantmr_WriteCompare2(uint8 compare) \
 585:Generated_Source\PSoC5/Mantmr.c ****                                         
 586:Generated_Source\PSoC5/Mantmr.c ****     {
 587:Generated_Source\PSoC5/Mantmr.c ****         #if(Mantmr_UsingFixedFunction)
 588:Generated_Source\PSoC5/Mantmr.c ****             CY_SET_REG16(Mantmr_COMPARE2_LSB_PTR, compare);
 589:Generated_Source\PSoC5/Mantmr.c ****         #else
 590:Generated_Source\PSoC5/Mantmr.c ****             CY_SET_REG8(Mantmr_COMPARE2_LSB_PTR, compare);
 591:Generated_Source\PSoC5/Mantmr.c ****         #endif /* (Mantmr_UsingFixedFunction) */
 592:Generated_Source\PSoC5/Mantmr.c ****     }
 593:Generated_Source\PSoC5/Mantmr.c **** #endif /* UseOneCompareMode */
 594:Generated_Source\PSoC5/Mantmr.c **** 
 595:Generated_Source\PSoC5/Mantmr.c **** #if (Mantmr_DeadBandUsed)
 596:Generated_Source\PSoC5/Mantmr.c **** 
 597:Generated_Source\PSoC5/Mantmr.c **** 
 598:Generated_Source\PSoC5/Mantmr.c ****     /*******************************************************************************
 599:Generated_Source\PSoC5/Mantmr.c ****     * Function Name: Mantmr_WriteDeadTime
 600:Generated_Source\PSoC5/Mantmr.c ****     ********************************************************************************
 601:Generated_Source\PSoC5/Mantmr.c ****     *
ARM GAS  C:\Users\chemi\AppData\Local\Temp\ccTUkXtX.s 			page 14


 602:Generated_Source\PSoC5/Mantmr.c ****     * Summary:
 603:Generated_Source\PSoC5/Mantmr.c ****     *  This function writes the dead-band counts to the corresponding register
 604:Generated_Source\PSoC5/Mantmr.c ****     *
 605:Generated_Source\PSoC5/Mantmr.c ****     * Parameters:
 606:Generated_Source\PSoC5/Mantmr.c ****     *  deadtime:  Number of counts for dead time
 607:Generated_Source\PSoC5/Mantmr.c ****     *
 608:Generated_Source\PSoC5/Mantmr.c ****     * Return:
 609:Generated_Source\PSoC5/Mantmr.c ****     *  None
 610:Generated_Source\PSoC5/Mantmr.c ****     *
 611:Generated_Source\PSoC5/Mantmr.c ****     *******************************************************************************/
 612:Generated_Source\PSoC5/Mantmr.c ****     void Mantmr_WriteDeadTime(uint8 deadtime) 
 613:Generated_Source\PSoC5/Mantmr.c ****     {
 614:Generated_Source\PSoC5/Mantmr.c ****         /* If using the Dead Band 1-255 mode then just write the register */
 615:Generated_Source\PSoC5/Mantmr.c ****         #if(!Mantmr_DeadBand2_4)
 616:Generated_Source\PSoC5/Mantmr.c ****             CY_SET_REG8(Mantmr_DEADBAND_COUNT_PTR, deadtime);
 617:Generated_Source\PSoC5/Mantmr.c ****         #else
 618:Generated_Source\PSoC5/Mantmr.c ****             /* Otherwise the data has to be masked and offset */
 619:Generated_Source\PSoC5/Mantmr.c ****             /* Clear existing data */
 620:Generated_Source\PSoC5/Mantmr.c ****             Mantmr_DEADBAND_COUNT &= ((uint8)(~Mantmr_DEADBAND_COUNT_MASK));
 621:Generated_Source\PSoC5/Mantmr.c **** 
 622:Generated_Source\PSoC5/Mantmr.c ****             /* Set new dead time */
 623:Generated_Source\PSoC5/Mantmr.c ****             #if(Mantmr_DEADBAND_COUNT_SHIFT)
 624:Generated_Source\PSoC5/Mantmr.c ****                 Mantmr_DEADBAND_COUNT |= ((uint8)((uint8)deadtime << Mantmr_DEADBAND_COUNT_SHIFT)) 
 625:Generated_Source\PSoC5/Mantmr.c ****                                                     Mantmr_DEADBAND_COUNT_MASK;
 626:Generated_Source\PSoC5/Mantmr.c ****             #else
 627:Generated_Source\PSoC5/Mantmr.c ****                 Mantmr_DEADBAND_COUNT |= deadtime & Mantmr_DEADBAND_COUNT_MASK;
 628:Generated_Source\PSoC5/Mantmr.c ****             #endif /* (Mantmr_DEADBAND_COUNT_SHIFT) */
 629:Generated_Source\PSoC5/Mantmr.c **** 
 630:Generated_Source\PSoC5/Mantmr.c ****         #endif /* (!Mantmr_DeadBand2_4) */
 631:Generated_Source\PSoC5/Mantmr.c ****     }
 632:Generated_Source\PSoC5/Mantmr.c **** 
 633:Generated_Source\PSoC5/Mantmr.c **** 
 634:Generated_Source\PSoC5/Mantmr.c ****     /*******************************************************************************
 635:Generated_Source\PSoC5/Mantmr.c ****     * Function Name: Mantmr_ReadDeadTime
 636:Generated_Source\PSoC5/Mantmr.c ****     ********************************************************************************
 637:Generated_Source\PSoC5/Mantmr.c ****     *
 638:Generated_Source\PSoC5/Mantmr.c ****     * Summary:
 639:Generated_Source\PSoC5/Mantmr.c ****     *  This function reads the dead-band counts from the corresponding register
 640:Generated_Source\PSoC5/Mantmr.c ****     *
 641:Generated_Source\PSoC5/Mantmr.c ****     * Parameters:
 642:Generated_Source\PSoC5/Mantmr.c ****     *  None
 643:Generated_Source\PSoC5/Mantmr.c ****     *
 644:Generated_Source\PSoC5/Mantmr.c ****     * Return:
 645:Generated_Source\PSoC5/Mantmr.c ****     *  Dead Band Counts
 646:Generated_Source\PSoC5/Mantmr.c ****     *
 647:Generated_Source\PSoC5/Mantmr.c ****     *******************************************************************************/
 648:Generated_Source\PSoC5/Mantmr.c ****     uint8 Mantmr_ReadDeadTime(void) 
 649:Generated_Source\PSoC5/Mantmr.c ****     {
 650:Generated_Source\PSoC5/Mantmr.c ****         /* If using the Dead Band 1-255 mode then just read the register */
 651:Generated_Source\PSoC5/Mantmr.c ****         #if(!Mantmr_DeadBand2_4)
 652:Generated_Source\PSoC5/Mantmr.c ****             return (CY_GET_REG8(Mantmr_DEADBAND_COUNT_PTR));
 653:Generated_Source\PSoC5/Mantmr.c ****         #else
 654:Generated_Source\PSoC5/Mantmr.c **** 
 655:Generated_Source\PSoC5/Mantmr.c ****             /* Otherwise the data has to be masked and offset */
 656:Generated_Source\PSoC5/Mantmr.c ****             #if(Mantmr_DEADBAND_COUNT_SHIFT)
 657:Generated_Source\PSoC5/Mantmr.c ****                 return ((uint8)(((uint8)(Mantmr_DEADBAND_COUNT & Mantmr_DEADBAND_COUNT_MASK)) >>
 658:Generated_Source\PSoC5/Mantmr.c ****                                                                            Mantmr_DEADBAND_COUNT_SH
ARM GAS  C:\Users\chemi\AppData\Local\Temp\ccTUkXtX.s 			page 15


 659:Generated_Source\PSoC5/Mantmr.c ****             #else
 660:Generated_Source\PSoC5/Mantmr.c ****                 return (Mantmr_DEADBAND_COUNT & Mantmr_DEADBAND_COUNT_MASK);
 661:Generated_Source\PSoC5/Mantmr.c ****             #endif /* (Mantmr_DEADBAND_COUNT_SHIFT) */
 662:Generated_Source\PSoC5/Mantmr.c ****         #endif /* (!Mantmr_DeadBand2_4) */
 663:Generated_Source\PSoC5/Mantmr.c ****     }
 664:Generated_Source\PSoC5/Mantmr.c **** #endif /* DeadBandUsed */
 665:Generated_Source\PSoC5/Mantmr.c **** 
 666:Generated_Source\PSoC5/Mantmr.c **** #if (Mantmr_UseStatus || Mantmr_UsingFixedFunction)
 667:Generated_Source\PSoC5/Mantmr.c **** 
 668:Generated_Source\PSoC5/Mantmr.c **** 
 669:Generated_Source\PSoC5/Mantmr.c ****     /*******************************************************************************
 670:Generated_Source\PSoC5/Mantmr.c ****     * Function Name: Mantmr_SetInterruptMode
 671:Generated_Source\PSoC5/Mantmr.c ****     ********************************************************************************
 672:Generated_Source\PSoC5/Mantmr.c ****     *
 673:Generated_Source\PSoC5/Mantmr.c ****     * Summary:
 674:Generated_Source\PSoC5/Mantmr.c ****     *  This function configures the interrupts mask control of theinterrupt
 675:Generated_Source\PSoC5/Mantmr.c ****     *  source status register.
 676:Generated_Source\PSoC5/Mantmr.c ****     *
 677:Generated_Source\PSoC5/Mantmr.c ****     * Parameters:
 678:Generated_Source\PSoC5/Mantmr.c ****     *  uint8 interruptMode: Bit field containing the interrupt sources enabled
 679:Generated_Source\PSoC5/Mantmr.c ****     *
 680:Generated_Source\PSoC5/Mantmr.c ****     * Return:
 681:Generated_Source\PSoC5/Mantmr.c ****     *  None
 682:Generated_Source\PSoC5/Mantmr.c ****     *
 683:Generated_Source\PSoC5/Mantmr.c ****     *******************************************************************************/
 684:Generated_Source\PSoC5/Mantmr.c ****     void Mantmr_SetInterruptMode(uint8 interruptMode) 
 685:Generated_Source\PSoC5/Mantmr.c ****     {
 686:Generated_Source\PSoC5/Mantmr.c ****         CY_SET_REG8(Mantmr_STATUS_MASK_PTR, interruptMode);
 687:Generated_Source\PSoC5/Mantmr.c ****     }
 688:Generated_Source\PSoC5/Mantmr.c **** 
 689:Generated_Source\PSoC5/Mantmr.c **** 
 690:Generated_Source\PSoC5/Mantmr.c ****     /*******************************************************************************
 691:Generated_Source\PSoC5/Mantmr.c ****     * Function Name: Mantmr_ReadStatusRegister
 692:Generated_Source\PSoC5/Mantmr.c ****     ********************************************************************************
 693:Generated_Source\PSoC5/Mantmr.c ****     *
 694:Generated_Source\PSoC5/Mantmr.c ****     * Summary:
 695:Generated_Source\PSoC5/Mantmr.c ****     *  This function returns the current state of the status register.
 696:Generated_Source\PSoC5/Mantmr.c ****     *
 697:Generated_Source\PSoC5/Mantmr.c ****     * Parameters:
 698:Generated_Source\PSoC5/Mantmr.c ****     *  None
 699:Generated_Source\PSoC5/Mantmr.c ****     *
 700:Generated_Source\PSoC5/Mantmr.c ****     * Return:
 701:Generated_Source\PSoC5/Mantmr.c ****     *  uint8 : Current status register value. The status register bits are:
 702:Generated_Source\PSoC5/Mantmr.c ****     *  [7:6] : Unused(0)
 703:Generated_Source\PSoC5/Mantmr.c ****     *  [5]   : Kill event output
 704:Generated_Source\PSoC5/Mantmr.c ****     *  [4]   : FIFO not empty
 705:Generated_Source\PSoC5/Mantmr.c ****     *  [3]   : FIFO full
 706:Generated_Source\PSoC5/Mantmr.c ****     *  [2]   : Terminal count
 707:Generated_Source\PSoC5/Mantmr.c ****     *  [1]   : Compare output 2
 708:Generated_Source\PSoC5/Mantmr.c ****     *  [0]   : Compare output 1
 709:Generated_Source\PSoC5/Mantmr.c ****     *
 710:Generated_Source\PSoC5/Mantmr.c ****     *******************************************************************************/
 711:Generated_Source\PSoC5/Mantmr.c ****     uint8 Mantmr_ReadStatusRegister(void) 
 712:Generated_Source\PSoC5/Mantmr.c ****     {
 713:Generated_Source\PSoC5/Mantmr.c ****         return (CY_GET_REG8(Mantmr_STATUS_PTR));
 141              		.loc 1 713 0
 142 0000 034A     		ldr	r2, .L18
ARM GAS  C:\Users\chemi\AppData\Local\Temp\ccTUkXtX.s 			page 16


 143              	.LBE15:
 144              	.LBE14:
 145              	.LBB17:
 146              	.LBB18:
 714:Generated_Source\PSoC5/Mantmr.c ****     }
 715:Generated_Source\PSoC5/Mantmr.c **** 
 716:Generated_Source\PSoC5/Mantmr.c **** #endif /* (Mantmr_UseStatus || Mantmr_UsingFixedFunction) */
 717:Generated_Source\PSoC5/Mantmr.c **** 
 718:Generated_Source\PSoC5/Mantmr.c **** 
 719:Generated_Source\PSoC5/Mantmr.c **** #if (Mantmr_UseControl)
 720:Generated_Source\PSoC5/Mantmr.c **** 
 721:Generated_Source\PSoC5/Mantmr.c **** 
 722:Generated_Source\PSoC5/Mantmr.c ****     /*******************************************************************************
 723:Generated_Source\PSoC5/Mantmr.c ****     * Function Name: Mantmr_ReadControlRegister
 724:Generated_Source\PSoC5/Mantmr.c ****     ********************************************************************************
 725:Generated_Source\PSoC5/Mantmr.c ****     *
 726:Generated_Source\PSoC5/Mantmr.c ****     * Summary:
 727:Generated_Source\PSoC5/Mantmr.c ****     *  Returns the current state of the control register. This API is available
 728:Generated_Source\PSoC5/Mantmr.c ****     *  only if the control register is not removed.
 729:Generated_Source\PSoC5/Mantmr.c ****     *
 730:Generated_Source\PSoC5/Mantmr.c ****     * Parameters:
 731:Generated_Source\PSoC5/Mantmr.c ****     *  None
 732:Generated_Source\PSoC5/Mantmr.c ****     *
 733:Generated_Source\PSoC5/Mantmr.c ****     * Return:
 734:Generated_Source\PSoC5/Mantmr.c ****     *  uint8 : Current control register value
 735:Generated_Source\PSoC5/Mantmr.c ****     *
 736:Generated_Source\PSoC5/Mantmr.c ****     *******************************************************************************/
 737:Generated_Source\PSoC5/Mantmr.c ****     uint8 Mantmr_ReadControlRegister(void) 
 738:Generated_Source\PSoC5/Mantmr.c ****     {
 739:Generated_Source\PSoC5/Mantmr.c ****         uint8 result;
 740:Generated_Source\PSoC5/Mantmr.c **** 
 741:Generated_Source\PSoC5/Mantmr.c ****         result = CY_GET_REG8(Mantmr_CONTROL_PTR);
 742:Generated_Source\PSoC5/Mantmr.c ****         return (result);
 743:Generated_Source\PSoC5/Mantmr.c ****     }
 744:Generated_Source\PSoC5/Mantmr.c **** 
 745:Generated_Source\PSoC5/Mantmr.c **** 
 746:Generated_Source\PSoC5/Mantmr.c ****     /*******************************************************************************
 747:Generated_Source\PSoC5/Mantmr.c ****     * Function Name: Mantmr_WriteControlRegister
 748:Generated_Source\PSoC5/Mantmr.c ****     ********************************************************************************
 749:Generated_Source\PSoC5/Mantmr.c ****     *
 750:Generated_Source\PSoC5/Mantmr.c ****     * Summary:
 751:Generated_Source\PSoC5/Mantmr.c ****     *  Sets the bit field of the control register. This API is available only if
 752:Generated_Source\PSoC5/Mantmr.c ****     *  the control register is not removed.
 753:Generated_Source\PSoC5/Mantmr.c ****     *
 754:Generated_Source\PSoC5/Mantmr.c ****     * Parameters:
 755:Generated_Source\PSoC5/Mantmr.c ****     *  uint8 control: Control register bit field, The status register bits are:
 756:Generated_Source\PSoC5/Mantmr.c ****     *  [7]   : PWM Enable
 757:Generated_Source\PSoC5/Mantmr.c ****     *  [6]   : Reset
 758:Generated_Source\PSoC5/Mantmr.c ****     *  [5:3] : Compare Mode2
 759:Generated_Source\PSoC5/Mantmr.c ****     *  [2:0] : Compare Mode2
 760:Generated_Source\PSoC5/Mantmr.c ****     *
 761:Generated_Source\PSoC5/Mantmr.c ****     * Return:
 762:Generated_Source\PSoC5/Mantmr.c ****     *  None
 763:Generated_Source\PSoC5/Mantmr.c ****     *
 764:Generated_Source\PSoC5/Mantmr.c ****     *******************************************************************************/
 765:Generated_Source\PSoC5/Mantmr.c ****     void Mantmr_WriteControlRegister(uint8 control) 
 766:Generated_Source\PSoC5/Mantmr.c ****     {
ARM GAS  C:\Users\chemi\AppData\Local\Temp\ccTUkXtX.s 			page 17


 767:Generated_Source\PSoC5/Mantmr.c ****         CY_SET_REG8(Mantmr_CONTROL_PTR, control);
 768:Generated_Source\PSoC5/Mantmr.c ****     }
 769:Generated_Source\PSoC5/Mantmr.c **** 
 770:Generated_Source\PSoC5/Mantmr.c **** #endif /* (Mantmr_UseControl) */
 771:Generated_Source\PSoC5/Mantmr.c **** 
 772:Generated_Source\PSoC5/Mantmr.c **** 
 773:Generated_Source\PSoC5/Mantmr.c **** #if (!Mantmr_UsingFixedFunction)
 774:Generated_Source\PSoC5/Mantmr.c **** 
 775:Generated_Source\PSoC5/Mantmr.c **** 
 776:Generated_Source\PSoC5/Mantmr.c ****     /*******************************************************************************
 777:Generated_Source\PSoC5/Mantmr.c ****     * Function Name: Mantmr_ReadCapture
 778:Generated_Source\PSoC5/Mantmr.c ****     ********************************************************************************
 779:Generated_Source\PSoC5/Mantmr.c ****     *
 780:Generated_Source\PSoC5/Mantmr.c ****     * Summary:
 781:Generated_Source\PSoC5/Mantmr.c ****     *  Reads the capture value from the capture FIFO.
 782:Generated_Source\PSoC5/Mantmr.c ****     *
 783:Generated_Source\PSoC5/Mantmr.c ****     * Parameters:
 784:Generated_Source\PSoC5/Mantmr.c ****     *  None
 785:Generated_Source\PSoC5/Mantmr.c ****     *
 786:Generated_Source\PSoC5/Mantmr.c ****     * Return:
 787:Generated_Source\PSoC5/Mantmr.c ****     *  uint8/uint16: The current capture value
 788:Generated_Source\PSoC5/Mantmr.c ****     *
 789:Generated_Source\PSoC5/Mantmr.c ****     *******************************************************************************/
 790:Generated_Source\PSoC5/Mantmr.c ****     uint8 Mantmr_ReadCapture(void) 
 791:Generated_Source\PSoC5/Mantmr.c ****     {
 792:Generated_Source\PSoC5/Mantmr.c ****         return (CY_GET_REG8(Mantmr_CAPTURE_LSB_PTR));
 147              		.loc 1 792 0
 148 0002 0449     		ldr	r1, .L18+4
 149              	.L14:
 150              	.LBE18:
 151              	.LBE17:
 152              	.LBB20:
 153              	.LBB16:
 713:Generated_Source\PSoC5/Mantmr.c ****     }
 154              		.loc 1 713 0
 155 0004 1378     		ldrb	r3, [r2]	@ zero_extendqisi2
 156              	.LBE16:
 157              	.LBE20:
 455:Generated_Source\PSoC5/Mantmr.c ****             while(0u != (Mantmr_ReadStatusRegister() & Mantmr_STATUS_FIFONEMPTY))
 158              		.loc 1 455 0
 159 0006 DB06     		lsls	r3, r3, #27
 160 0008 01D5     		bpl	.L17
 161              	.LBB21:
 162              	.LBB19:
 163              		.loc 1 792 0
 164 000a 0B78     		ldrb	r3, [r1]	@ zero_extendqisi2
 165 000c FAE7     		b	.L14
 166              	.L17:
 167              	.LBE19:
 168              	.LBE21:
 459:Generated_Source\PSoC5/Mantmr.c **** 
 169              		.loc 1 459 0
 170 000e 7047     		bx	lr
 171              	.L19:
 172              		.align	2
 173              	.L18:
 174 0010 68640040 		.word	1073767528
ARM GAS  C:\Users\chemi\AppData\Local\Temp\ccTUkXtX.s 			page 18


 175 0014 58640040 		.word	1073767512
 176              		.cfi_endproc
 177              	.LFE6:
 178              		.size	Mantmr_ClearFIFO, .-Mantmr_ClearFIFO
 179              		.section	.text.Mantmr_Init,"ax",%progbits
 180              		.align	1
 181              		.global	Mantmr_Init
 182              		.thumb
 183              		.thumb_func
 184              		.type	Mantmr_Init, %function
 185              	Mantmr_Init:
 186              	.LFB1:
  85:Generated_Source\PSoC5/Mantmr.c ****     #if (Mantmr_UsingFixedFunction || Mantmr_UseControl)
 187              		.loc 1 85 0
 188              		.cfi_startproc
 189              		@ args = 0, pretend = 0, frame = 0
 190              		@ frame_needed = 0, uses_anonymous_args = 0
 191 0000 10B5     		push	{r4, lr}
 192              		.cfi_def_cfa_offset 8
 193              		.cfi_offset 4, -8
 194              		.cfi_offset 14, -4
 117:Generated_Source\PSoC5/Mantmr.c ****                 ((uint8)(~Mantmr_CTRL_CMPMODE1_MASK));
 195              		.loc 1 117 0
 196 0002 104A     		ldr	r2, .L21
 126:Generated_Source\PSoC5/Mantmr.c ****         #else /* (Mantmr_Resolution == 16)*/
 197              		.loc 1 126 0
 198 0004 104C     		ldr	r4, .L21+4
 117:Generated_Source\PSoC5/Mantmr.c ****                 ((uint8)(~Mantmr_CTRL_CMPMODE1_MASK));
 199              		.loc 1 117 0
 200 0006 1378     		ldrb	r3, [r2]	@ zero_extendqisi2
 201              	.LVL1:
 119:Generated_Source\PSoC5/Mantmr.c ****                                    Mantmr_DEFAULT_COMPARE1_MODE;
 202              		.loc 1 119 0
 203 0008 03F0C003 		and	r3, r3, #192
 204              	.LVL2:
 205 000c 43F00803 		orr	r3, r3, #8
 206 0010 1370     		strb	r3, [r2]
 126:Generated_Source\PSoC5/Mantmr.c ****         #else /* (Mantmr_Resolution == 16)*/
 207              		.loc 1 126 0
 208 0012 2378     		ldrb	r3, [r4]	@ zero_extendqisi2
 209 0014 43F00103 		orr	r3, r3, #1
 210 0018 2370     		strb	r3, [r4]
 211              	.LVL3:
 212              	.LBB22:
 213              	.LBB23:
 406:Generated_Source\PSoC5/Mantmr.c ****     }
 214              		.loc 1 406 0
 215 001a 1423     		movs	r3, #20
 216 001c 02F8703C 		strb	r3, [r2, #-112]
 217              	.LVL4:
 218              	.LBE23:
 219              	.LBE22:
 220              	.LBB24:
 221              	.LBB25:
 487:Generated_Source\PSoC5/Mantmr.c ****     #endif /* (Mantmr_UsingFixedFunction) */
 222              		.loc 1 487 0
 223 0020 02F8303C 		strb	r3, [r2, #-48]
ARM GAS  C:\Users\chemi\AppData\Local\Temp\ccTUkXtX.s 			page 19


 224              	.LVL5:
 225              	.LBE25:
 226              	.LBE24:
 227              	.LBB26:
 228              	.LBB27:
 522:Generated_Source\PSoC5/Mantmr.c ****         #endif /* (Mantmr_UsingFixedFunction) */
 229              		.loc 1 522 0
 230 0024 0023     		movs	r3, #0
 231 0026 02F8503C 		strb	r3, [r2, #-80]
 232              	.LVL6:
 233              	.LBE27:
 234              	.LBE26:
 235              	.LBB28:
 236              	.LBB29:
 686:Generated_Source\PSoC5/Mantmr.c ****     }
 237              		.loc 1 686 0
 238 002a 1374     		strb	r3, [r2, #16]
 239              	.LVL7:
 240              	.LBE29:
 241              	.LBE28:
 167:Generated_Source\PSoC5/Mantmr.c ****             /* Use the interrupt output of the status register for IRQ output */
 242              		.loc 1 167 0
 243 002c FFF7FEFF 		bl	CyEnterCriticalSection
 244              	.LVL8:
 169:Generated_Source\PSoC5/Mantmr.c **** 
 245              		.loc 1 169 0
 246 0030 2378     		ldrb	r3, [r4]	@ zero_extendqisi2
 247 0032 43F01003 		orr	r3, r3, #16
 248 0036 2370     		strb	r3, [r4]
 172:Generated_Source\PSoC5/Mantmr.c **** 
 249              		.loc 1 172 0
 250 0038 FFF7FEFF 		bl	CyExitCriticalSection
 251              	.LVL9:
 179:Generated_Source\PSoC5/Mantmr.c **** 
 252              		.loc 1 179 0
 253 003c BDE81040 		pop	{r4, lr}
 254              		.cfi_restore 14
 255              		.cfi_restore 4
 256              		.cfi_def_cfa_offset 0
 176:Generated_Source\PSoC5/Mantmr.c ****         #endif /* (Mantmr_UseStatus) */
 257              		.loc 1 176 0
 258 0040 FFF7FEBF 		b	Mantmr_ClearFIFO
 259              	.LVL10:
 260              	.L22:
 261              		.align	2
 262              	.L21:
 263 0044 78640040 		.word	1073767544
 264 0048 98640040 		.word	1073767576
 265              		.cfi_endproc
 266              	.LFE1:
 267              		.size	Mantmr_Init, .-Mantmr_Init
 268              		.section	.text.Mantmr_Start,"ax",%progbits
 269              		.align	1
 270              		.global	Mantmr_Start
 271              		.thumb
 272              		.thumb_func
 273              		.type	Mantmr_Start, %function
ARM GAS  C:\Users\chemi\AppData\Local\Temp\ccTUkXtX.s 			page 20


 274              	Mantmr_Start:
 275              	.LFB0:
  56:Generated_Source\PSoC5/Mantmr.c ****     /* If not Initialized then initialize all required hardware and software */
 276              		.loc 1 56 0
 277              		.cfi_startproc
 278              		@ args = 0, pretend = 0, frame = 0
 279              		@ frame_needed = 0, uses_anonymous_args = 0
 280 0000 10B5     		push	{r4, lr}
 281              		.cfi_def_cfa_offset 8
 282              		.cfi_offset 4, -8
 283              		.cfi_offset 14, -4
  58:Generated_Source\PSoC5/Mantmr.c ****     {
 284              		.loc 1 58 0
 285 0002 054C     		ldr	r4, .L25
 286 0004 2378     		ldrb	r3, [r4]	@ zero_extendqisi2
 287 0006 1BB9     		cbnz	r3, .L24
  60:Generated_Source\PSoC5/Mantmr.c ****         Mantmr_initVar = 1u;
 288              		.loc 1 60 0
 289 0008 FFF7FEFF 		bl	Mantmr_Init
 290              	.LVL11:
  61:Generated_Source\PSoC5/Mantmr.c ****     }
 291              		.loc 1 61 0
 292 000c 0123     		movs	r3, #1
 293 000e 2370     		strb	r3, [r4]
 294              	.L24:
  65:Generated_Source\PSoC5/Mantmr.c **** 
 295              		.loc 1 65 0
 296 0010 BDE81040 		pop	{r4, lr}
 297              		.cfi_restore 14
 298              		.cfi_restore 4
 299              		.cfi_def_cfa_offset 0
  63:Generated_Source\PSoC5/Mantmr.c **** 
 300              		.loc 1 63 0
 301 0014 FFF7FEBF 		b	Mantmr_Enable
 302              	.LVL12:
 303              	.L26:
 304              		.align	2
 305              	.L25:
 306 0018 00000000 		.word	.LANCHOR0
 307              		.cfi_endproc
 308              	.LFE0:
 309              		.size	Mantmr_Start, .-Mantmr_Start
 310              		.section	.text.Mantmr_WritePeriod,"ax",%progbits
 311              		.align	1
 312              		.global	Mantmr_WritePeriod
 313              		.thumb
 314              		.thumb_func
 315              		.type	Mantmr_WritePeriod, %function
 316              	Mantmr_WritePeriod:
 317              	.LFB7:
 483:Generated_Source\PSoC5/Mantmr.c ****     #if(Mantmr_UsingFixedFunction)
 318              		.loc 1 483 0
 319              		.cfi_startproc
 320              		@ args = 0, pretend = 0, frame = 0
 321              		@ frame_needed = 0, uses_anonymous_args = 0
 322              		@ link register save eliminated.
 323              	.LVL13:
ARM GAS  C:\Users\chemi\AppData\Local\Temp\ccTUkXtX.s 			page 21


 487:Generated_Source\PSoC5/Mantmr.c ****     #endif /* (Mantmr_UsingFixedFunction) */
 324              		.loc 1 487 0
 325 0000 014B     		ldr	r3, .L28
 326 0002 1870     		strb	r0, [r3]
 327 0004 7047     		bx	lr
 328              	.L29:
 329 0006 00BF     		.align	2
 330              	.L28:
 331 0008 48640040 		.word	1073767496
 332              		.cfi_endproc
 333              	.LFE7:
 334              		.size	Mantmr_WritePeriod, .-Mantmr_WritePeriod
 335              		.section	.text.Mantmr_WriteCompare,"ax",%progbits
 336              		.align	1
 337              		.global	Mantmr_WriteCompare
 338              		.thumb
 339              		.thumb_func
 340              		.type	Mantmr_WriteCompare, %function
 341              	Mantmr_WriteCompare:
 342              	.LFB8:
 518:Generated_Source\PSoC5/Mantmr.c ****         #if(Mantmr_UsingFixedFunction)
 343              		.loc 1 518 0
 344              		.cfi_startproc
 345              		@ args = 0, pretend = 0, frame = 0
 346              		@ frame_needed = 0, uses_anonymous_args = 0
 347              		@ link register save eliminated.
 348              	.LVL14:
 522:Generated_Source\PSoC5/Mantmr.c ****         #endif /* (Mantmr_UsingFixedFunction) */
 349              		.loc 1 522 0
 350 0000 014B     		ldr	r3, .L31
 351 0002 1870     		strb	r0, [r3]
 352 0004 7047     		bx	lr
 353              	.L32:
 354 0006 00BF     		.align	2
 355              	.L31:
 356 0008 28640040 		.word	1073767464
 357              		.cfi_endproc
 358              	.LFE8:
 359              		.size	Mantmr_WriteCompare, .-Mantmr_WriteCompare
 360              		.section	.text.Mantmr_SetInterruptMode,"ax",%progbits
 361              		.align	1
 362              		.global	Mantmr_SetInterruptMode
 363              		.thumb
 364              		.thumb_func
 365              		.type	Mantmr_SetInterruptMode, %function
 366              	Mantmr_SetInterruptMode:
 367              	.LFB9:
 685:Generated_Source\PSoC5/Mantmr.c ****         CY_SET_REG8(Mantmr_STATUS_MASK_PTR, interruptMode);
 368              		.loc 1 685 0
 369              		.cfi_startproc
 370              		@ args = 0, pretend = 0, frame = 0
 371              		@ frame_needed = 0, uses_anonymous_args = 0
 372              		@ link register save eliminated.
 373              	.LVL15:
 686:Generated_Source\PSoC5/Mantmr.c ****     }
 374              		.loc 1 686 0
 375 0000 014B     		ldr	r3, .L34
ARM GAS  C:\Users\chemi\AppData\Local\Temp\ccTUkXtX.s 			page 22


 376 0002 1870     		strb	r0, [r3]
 377 0004 7047     		bx	lr
 378              	.L35:
 379 0006 00BF     		.align	2
 380              	.L34:
 381 0008 88640040 		.word	1073767560
 382              		.cfi_endproc
 383              	.LFE9:
 384              		.size	Mantmr_SetInterruptMode, .-Mantmr_SetInterruptMode
 385              		.section	.text.Mantmr_ReadStatusRegister,"ax",%progbits
 386              		.align	1
 387              		.global	Mantmr_ReadStatusRegister
 388              		.thumb
 389              		.thumb_func
 390              		.type	Mantmr_ReadStatusRegister, %function
 391              	Mantmr_ReadStatusRegister:
 392              	.LFB10:
 712:Generated_Source\PSoC5/Mantmr.c ****         return (CY_GET_REG8(Mantmr_STATUS_PTR));
 393              		.loc 1 712 0
 394              		.cfi_startproc
 395              		@ args = 0, pretend = 0, frame = 0
 396              		@ frame_needed = 0, uses_anonymous_args = 0
 397              		@ link register save eliminated.
 713:Generated_Source\PSoC5/Mantmr.c ****     }
 398              		.loc 1 713 0
 399 0000 014B     		ldr	r3, .L37
 400 0002 1878     		ldrb	r0, [r3]	@ zero_extendqisi2
 714:Generated_Source\PSoC5/Mantmr.c **** 
 401              		.loc 1 714 0
 402 0004 7047     		bx	lr
 403              	.L38:
 404 0006 00BF     		.align	2
 405              	.L37:
 406 0008 68640040 		.word	1073767528
 407              		.cfi_endproc
 408              	.LFE10:
 409              		.size	Mantmr_ReadStatusRegister, .-Mantmr_ReadStatusRegister
 410              		.section	.text.Mantmr_ReadControlRegister,"ax",%progbits
 411              		.align	1
 412              		.global	Mantmr_ReadControlRegister
 413              		.thumb
 414              		.thumb_func
 415              		.type	Mantmr_ReadControlRegister, %function
 416              	Mantmr_ReadControlRegister:
 417              	.LFB11:
 738:Generated_Source\PSoC5/Mantmr.c ****         uint8 result;
 418              		.loc 1 738 0
 419              		.cfi_startproc
 420              		@ args = 0, pretend = 0, frame = 0
 421              		@ frame_needed = 0, uses_anonymous_args = 0
 422              		@ link register save eliminated.
 741:Generated_Source\PSoC5/Mantmr.c ****         return (result);
 423              		.loc 1 741 0
 424 0000 014B     		ldr	r3, .L40
 425 0002 1878     		ldrb	r0, [r3]	@ zero_extendqisi2
 426              	.LVL16:
 743:Generated_Source\PSoC5/Mantmr.c **** 
ARM GAS  C:\Users\chemi\AppData\Local\Temp\ccTUkXtX.s 			page 23


 427              		.loc 1 743 0
 428 0004 7047     		bx	lr
 429              	.L41:
 430 0006 00BF     		.align	2
 431              	.L40:
 432 0008 78640040 		.word	1073767544
 433              		.cfi_endproc
 434              	.LFE11:
 435              		.size	Mantmr_ReadControlRegister, .-Mantmr_ReadControlRegister
 436              		.section	.text.Mantmr_WriteControlRegister,"ax",%progbits
 437              		.align	1
 438              		.global	Mantmr_WriteControlRegister
 439              		.thumb
 440              		.thumb_func
 441              		.type	Mantmr_WriteControlRegister, %function
 442              	Mantmr_WriteControlRegister:
 443              	.LFB12:
 766:Generated_Source\PSoC5/Mantmr.c ****         CY_SET_REG8(Mantmr_CONTROL_PTR, control);
 444              		.loc 1 766 0
 445              		.cfi_startproc
 446              		@ args = 0, pretend = 0, frame = 0
 447              		@ frame_needed = 0, uses_anonymous_args = 0
 448              		@ link register save eliminated.
 449              	.LVL17:
 767:Generated_Source\PSoC5/Mantmr.c ****     }
 450              		.loc 1 767 0
 451 0000 014B     		ldr	r3, .L43
 452 0002 1870     		strb	r0, [r3]
 453 0004 7047     		bx	lr
 454              	.L44:
 455 0006 00BF     		.align	2
 456              	.L43:
 457 0008 78640040 		.word	1073767544
 458              		.cfi_endproc
 459              	.LFE12:
 460              		.size	Mantmr_WriteControlRegister, .-Mantmr_WriteControlRegister
 461              		.section	.text.Mantmr_ReadCapture,"ax",%progbits
 462              		.align	1
 463              		.global	Mantmr_ReadCapture
 464              		.thumb
 465              		.thumb_func
 466              		.type	Mantmr_ReadCapture, %function
 467              	Mantmr_ReadCapture:
 468              	.LFB13:
 791:Generated_Source\PSoC5/Mantmr.c ****         return (CY_GET_REG8(Mantmr_CAPTURE_LSB_PTR));
 469              		.loc 1 791 0
 470              		.cfi_startproc
 471              		@ args = 0, pretend = 0, frame = 0
 472              		@ frame_needed = 0, uses_anonymous_args = 0
 473              		@ link register save eliminated.
 474              		.loc 1 792 0
 475 0000 014B     		ldr	r3, .L46
 476 0002 1878     		ldrb	r0, [r3]	@ zero_extendqisi2
 793:Generated_Source\PSoC5/Mantmr.c ****     }
 477              		.loc 1 793 0
 478 0004 7047     		bx	lr
 479              	.L47:
ARM GAS  C:\Users\chemi\AppData\Local\Temp\ccTUkXtX.s 			page 24


 480 0006 00BF     		.align	2
 481              	.L46:
 482 0008 58640040 		.word	1073767512
 483              		.cfi_endproc
 484              	.LFE13:
 485              		.size	Mantmr_ReadCapture, .-Mantmr_ReadCapture
 486              		.section	.text.Mantmr_ReadCompare,"ax",%progbits
 487              		.align	1
 488              		.global	Mantmr_ReadCompare
 489              		.thumb
 490              		.thumb_func
 491              		.type	Mantmr_ReadCompare, %function
 492              	Mantmr_ReadCompare:
 493              	.LFB14:
 794:Generated_Source\PSoC5/Mantmr.c **** 
 795:Generated_Source\PSoC5/Mantmr.c **** #endif /* (!Mantmr_UsingFixedFunction) */
 796:Generated_Source\PSoC5/Mantmr.c **** 
 797:Generated_Source\PSoC5/Mantmr.c **** 
 798:Generated_Source\PSoC5/Mantmr.c **** #if (Mantmr_UseOneCompareMode)
 799:Generated_Source\PSoC5/Mantmr.c **** 
 800:Generated_Source\PSoC5/Mantmr.c **** 
 801:Generated_Source\PSoC5/Mantmr.c ****     /*******************************************************************************
 802:Generated_Source\PSoC5/Mantmr.c ****     * Function Name: Mantmr_ReadCompare
 803:Generated_Source\PSoC5/Mantmr.c ****     ********************************************************************************
 804:Generated_Source\PSoC5/Mantmr.c ****     *
 805:Generated_Source\PSoC5/Mantmr.c ****     * Summary:
 806:Generated_Source\PSoC5/Mantmr.c ****     *  Reads the compare value for the compare output when the PWM Mode parameter is
 807:Generated_Source\PSoC5/Mantmr.c ****     *  set to Dither mode, Center Aligned mode, or One Output mode.
 808:Generated_Source\PSoC5/Mantmr.c ****     *
 809:Generated_Source\PSoC5/Mantmr.c ****     * Parameters:
 810:Generated_Source\PSoC5/Mantmr.c ****     *  None
 811:Generated_Source\PSoC5/Mantmr.c ****     *
 812:Generated_Source\PSoC5/Mantmr.c ****     * Return:
 813:Generated_Source\PSoC5/Mantmr.c ****     *  uint8/uint16: Current compare value
 814:Generated_Source\PSoC5/Mantmr.c ****     *
 815:Generated_Source\PSoC5/Mantmr.c ****     *******************************************************************************/
 816:Generated_Source\PSoC5/Mantmr.c ****     uint8 Mantmr_ReadCompare(void) 
 817:Generated_Source\PSoC5/Mantmr.c ****     {
 494              		.loc 1 817 0
 495              		.cfi_startproc
 496              		@ args = 0, pretend = 0, frame = 0
 497              		@ frame_needed = 0, uses_anonymous_args = 0
 498              		@ link register save eliminated.
 818:Generated_Source\PSoC5/Mantmr.c ****         #if(Mantmr_UsingFixedFunction)
 819:Generated_Source\PSoC5/Mantmr.c ****             return ((uint8)CY_GET_REG16(Mantmr_COMPARE1_LSB_PTR));
 820:Generated_Source\PSoC5/Mantmr.c ****         #else
 821:Generated_Source\PSoC5/Mantmr.c ****             return (CY_GET_REG8(Mantmr_COMPARE1_LSB_PTR));
 499              		.loc 1 821 0
 500 0000 014B     		ldr	r3, .L49
 501 0002 1878     		ldrb	r0, [r3]	@ zero_extendqisi2
 822:Generated_Source\PSoC5/Mantmr.c ****         #endif /* (Mantmr_UsingFixedFunction) */
 823:Generated_Source\PSoC5/Mantmr.c ****     }
 502              		.loc 1 823 0
 503 0004 7047     		bx	lr
 504              	.L50:
 505 0006 00BF     		.align	2
 506              	.L49:
ARM GAS  C:\Users\chemi\AppData\Local\Temp\ccTUkXtX.s 			page 25


 507 0008 28640040 		.word	1073767464
 508              		.cfi_endproc
 509              	.LFE14:
 510              		.size	Mantmr_ReadCompare, .-Mantmr_ReadCompare
 511              		.section	.text.Mantmr_ReadPeriod,"ax",%progbits
 512              		.align	1
 513              		.global	Mantmr_ReadPeriod
 514              		.thumb
 515              		.thumb_func
 516              		.type	Mantmr_ReadPeriod, %function
 517              	Mantmr_ReadPeriod:
 518              	.LFB15:
 824:Generated_Source\PSoC5/Mantmr.c **** 
 825:Generated_Source\PSoC5/Mantmr.c **** #else
 826:Generated_Source\PSoC5/Mantmr.c **** 
 827:Generated_Source\PSoC5/Mantmr.c **** 
 828:Generated_Source\PSoC5/Mantmr.c ****     /*******************************************************************************
 829:Generated_Source\PSoC5/Mantmr.c ****     * Function Name: Mantmr_ReadCompare1
 830:Generated_Source\PSoC5/Mantmr.c ****     ********************************************************************************
 831:Generated_Source\PSoC5/Mantmr.c ****     *
 832:Generated_Source\PSoC5/Mantmr.c ****     * Summary:
 833:Generated_Source\PSoC5/Mantmr.c ****     *  Reads the compare value for the compare1 output.
 834:Generated_Source\PSoC5/Mantmr.c ****     *
 835:Generated_Source\PSoC5/Mantmr.c ****     * Parameters:
 836:Generated_Source\PSoC5/Mantmr.c ****     *  None
 837:Generated_Source\PSoC5/Mantmr.c ****     *
 838:Generated_Source\PSoC5/Mantmr.c ****     * Return:
 839:Generated_Source\PSoC5/Mantmr.c ****     *  uint8/uint16: Current compare value.
 840:Generated_Source\PSoC5/Mantmr.c ****     *
 841:Generated_Source\PSoC5/Mantmr.c ****     *******************************************************************************/
 842:Generated_Source\PSoC5/Mantmr.c ****     uint8 Mantmr_ReadCompare1(void) 
 843:Generated_Source\PSoC5/Mantmr.c ****     {
 844:Generated_Source\PSoC5/Mantmr.c ****         return (CY_GET_REG8(Mantmr_COMPARE1_LSB_PTR));
 845:Generated_Source\PSoC5/Mantmr.c ****     }
 846:Generated_Source\PSoC5/Mantmr.c **** 
 847:Generated_Source\PSoC5/Mantmr.c **** 
 848:Generated_Source\PSoC5/Mantmr.c ****     /*******************************************************************************
 849:Generated_Source\PSoC5/Mantmr.c ****     * Function Name: Mantmr_ReadCompare2
 850:Generated_Source\PSoC5/Mantmr.c ****     ********************************************************************************
 851:Generated_Source\PSoC5/Mantmr.c ****     *
 852:Generated_Source\PSoC5/Mantmr.c ****     * Summary:
 853:Generated_Source\PSoC5/Mantmr.c ****     *  Reads the compare value for the compare2 output.
 854:Generated_Source\PSoC5/Mantmr.c ****     *
 855:Generated_Source\PSoC5/Mantmr.c ****     * Parameters:
 856:Generated_Source\PSoC5/Mantmr.c ****     *  None
 857:Generated_Source\PSoC5/Mantmr.c ****     *
 858:Generated_Source\PSoC5/Mantmr.c ****     * Return:
 859:Generated_Source\PSoC5/Mantmr.c ****     *  uint8/uint16: Current compare value.
 860:Generated_Source\PSoC5/Mantmr.c ****     *
 861:Generated_Source\PSoC5/Mantmr.c ****     *******************************************************************************/
 862:Generated_Source\PSoC5/Mantmr.c ****     uint8 Mantmr_ReadCompare2(void) 
 863:Generated_Source\PSoC5/Mantmr.c ****     {
 864:Generated_Source\PSoC5/Mantmr.c ****         return (CY_GET_REG8(Mantmr_COMPARE2_LSB_PTR));
 865:Generated_Source\PSoC5/Mantmr.c ****     }
 866:Generated_Source\PSoC5/Mantmr.c **** 
 867:Generated_Source\PSoC5/Mantmr.c **** #endif /* (Mantmr_UseOneCompareMode) */
 868:Generated_Source\PSoC5/Mantmr.c **** 
ARM GAS  C:\Users\chemi\AppData\Local\Temp\ccTUkXtX.s 			page 26


 869:Generated_Source\PSoC5/Mantmr.c **** 
 870:Generated_Source\PSoC5/Mantmr.c **** /*******************************************************************************
 871:Generated_Source\PSoC5/Mantmr.c **** * Function Name: Mantmr_ReadPeriod
 872:Generated_Source\PSoC5/Mantmr.c **** ********************************************************************************
 873:Generated_Source\PSoC5/Mantmr.c **** *
 874:Generated_Source\PSoC5/Mantmr.c **** * Summary:
 875:Generated_Source\PSoC5/Mantmr.c **** *  Reads the period value used by the PWM hardware.
 876:Generated_Source\PSoC5/Mantmr.c **** *
 877:Generated_Source\PSoC5/Mantmr.c **** * Parameters:
 878:Generated_Source\PSoC5/Mantmr.c **** *  None
 879:Generated_Source\PSoC5/Mantmr.c **** *
 880:Generated_Source\PSoC5/Mantmr.c **** * Return:
 881:Generated_Source\PSoC5/Mantmr.c **** *  uint8/16: Period value
 882:Generated_Source\PSoC5/Mantmr.c **** *
 883:Generated_Source\PSoC5/Mantmr.c **** *******************************************************************************/
 884:Generated_Source\PSoC5/Mantmr.c **** uint8 Mantmr_ReadPeriod(void) 
 885:Generated_Source\PSoC5/Mantmr.c **** {
 519              		.loc 1 885 0
 520              		.cfi_startproc
 521              		@ args = 0, pretend = 0, frame = 0
 522              		@ frame_needed = 0, uses_anonymous_args = 0
 523              		@ link register save eliminated.
 886:Generated_Source\PSoC5/Mantmr.c ****     #if(Mantmr_UsingFixedFunction)
 887:Generated_Source\PSoC5/Mantmr.c ****         return ((uint8)CY_GET_REG16(Mantmr_PERIOD_LSB_PTR));
 888:Generated_Source\PSoC5/Mantmr.c ****     #else
 889:Generated_Source\PSoC5/Mantmr.c ****         return (CY_GET_REG8(Mantmr_PERIOD_LSB_PTR));
 524              		.loc 1 889 0
 525 0000 014B     		ldr	r3, .L52
 526 0002 1878     		ldrb	r0, [r3]	@ zero_extendqisi2
 890:Generated_Source\PSoC5/Mantmr.c ****     #endif /* (Mantmr_UsingFixedFunction) */
 891:Generated_Source\PSoC5/Mantmr.c **** }
 527              		.loc 1 891 0
 528 0004 7047     		bx	lr
 529              	.L53:
 530 0006 00BF     		.align	2
 531              	.L52:
 532 0008 48640040 		.word	1073767496
 533              		.cfi_endproc
 534              	.LFE15:
 535              		.size	Mantmr_ReadPeriod, .-Mantmr_ReadPeriod
 536              		.global	Mantmr_initVar
 537              		.bss
 538              		.set	.LANCHOR0,. + 0
 539              		.type	Mantmr_initVar, %object
 540              		.size	Mantmr_initVar, 1
 541              	Mantmr_initVar:
 542 0000 00       		.space	1
 543              		.text
 544              	.Letext0:
 545              		.file 2 "Generated_Source\\PSoC5\\cytypes.h"
 546              		.file 3 "Generated_Source\\PSoC5\\CyLib.h"