ARM GAS  C:\Users\chemi\AppData\Local\Temp\ccmZKEsm.s 			page 1


   1              		.syntax unified
   2              		.cpu cortex-m3
   3              		.fpu softvfp
   4              		.eabi_attribute 20, 1
   5              		.eabi_attribute 21, 1
   6              		.eabi_attribute 23, 3
   7              		.eabi_attribute 24, 1
   8              		.eabi_attribute 25, 1
   9              		.eabi_attribute 26, 1
  10              		.eabi_attribute 30, 4
  11              		.eabi_attribute 34, 1
  12              		.eabi_attribute 18, 4
  13              		.thumb
  14              		.syntax unified
  15              		.file	"UART_INT.c"
  16              		.text
  17              	.Ltext0:
  18              		.cfi_sections	.debug_frame
  19              		.section	.text.UART_RXISR,"ax",%progbits
  20              		.align	1
  21              		.global	UART_RXISR
  22              		.thumb
  23              		.thumb_func
  24              		.type	UART_RXISR, %function
  25              	UART_RXISR:
  26              	.LFB0:
  27              		.file 1 "..\\common\\uart_ldr\\UART_INT.c"
   1:..\common\uart_ldr/UART_INT.c **** /*******************************************************************************
   2:..\common\uart_ldr/UART_INT.c **** * File Name: UARTINT.c
   3:..\common\uart_ldr/UART_INT.c **** * Version 2.50
   4:..\common\uart_ldr/UART_INT.c **** *
   5:..\common\uart_ldr/UART_INT.c **** * Description:
   6:..\common\uart_ldr/UART_INT.c **** *  This file provides all Interrupt Service functionality of the UART component
   7:..\common\uart_ldr/UART_INT.c **** *
   8:..\common\uart_ldr/UART_INT.c **** ********************************************************************************
   9:..\common\uart_ldr/UART_INT.c **** * Copyright 2008-2015, Cypress Semiconductor Corporation.  All rights reserved.
  10:..\common\uart_ldr/UART_INT.c **** * You may use this file only in accordance with the license, terms, conditions,
  11:..\common\uart_ldr/UART_INT.c **** * disclaimers, and limitations in the end user license agreement accompanying
  12:..\common\uart_ldr/UART_INT.c **** * the software package with which this file was provided.
  13:..\common\uart_ldr/UART_INT.c **** *******************************************************************************/
  14:..\common\uart_ldr/UART_INT.c **** 
  15:..\common\uart_ldr/UART_INT.c **** #include "UART.h"
  16:..\common\uart_ldr/UART_INT.c **** 
  17:..\common\uart_ldr/UART_INT.c **** 
  18:..\common\uart_ldr/UART_INT.c **** 
  19:..\common\uart_ldr/UART_INT.c **** /***************************************
  20:..\common\uart_ldr/UART_INT.c **** * Custom Declarations
  21:..\common\uart_ldr/UART_INT.c **** ***************************************/
  22:..\common\uart_ldr/UART_INT.c **** /* `#START CUSTOM_DECLARATIONS` Place your declaration here */
  23:..\common\uart_ldr/UART_INT.c **** 
  24:..\common\uart_ldr/UART_INT.c **** /* `#END` */
  25:..\common\uart_ldr/UART_INT.c **** 
  26:..\common\uart_ldr/UART_INT.c **** #if (UART_RX_INTERRUPT_ENABLED && (UART_RX_ENABLED || UART_HD_ENABLED))
  27:..\common\uart_ldr/UART_INT.c ****     /*******************************************************************************
  28:..\common\uart_ldr/UART_INT.c ****     * Function Name: UART_RXISR
  29:..\common\uart_ldr/UART_INT.c ****     ********************************************************************************
  30:..\common\uart_ldr/UART_INT.c ****     *
ARM GAS  C:\Users\chemi\AppData\Local\Temp\ccmZKEsm.s 			page 2


  31:..\common\uart_ldr/UART_INT.c ****     * Summary:
  32:..\common\uart_ldr/UART_INT.c ****     *  Interrupt Service Routine for RX portion of the UART
  33:..\common\uart_ldr/UART_INT.c ****     *
  34:..\common\uart_ldr/UART_INT.c ****     * Parameters:
  35:..\common\uart_ldr/UART_INT.c ****     *  None.
  36:..\common\uart_ldr/UART_INT.c ****     *
  37:..\common\uart_ldr/UART_INT.c ****     * Return:
  38:..\common\uart_ldr/UART_INT.c ****     *  None.
  39:..\common\uart_ldr/UART_INT.c ****     *
  40:..\common\uart_ldr/UART_INT.c ****     * Global Variables:
  41:..\common\uart_ldr/UART_INT.c ****     *  UART_rxBuffer - RAM buffer pointer for save received data.
  42:..\common\uart_ldr/UART_INT.c ****     *  UART_rxBufferWrite - cyclic index for write to rxBuffer,
  43:..\common\uart_ldr/UART_INT.c ****     *     increments after each byte saved to buffer.
  44:..\common\uart_ldr/UART_INT.c ****     *  UART_rxBufferRead - cyclic index for read from rxBuffer,
  45:..\common\uart_ldr/UART_INT.c ****     *     checked to detect overflow condition.
  46:..\common\uart_ldr/UART_INT.c ****     *  UART_rxBufferOverflow - software overflow flag. Set to one
  47:..\common\uart_ldr/UART_INT.c ****     *     when UART_rxBufferWrite index overtakes
  48:..\common\uart_ldr/UART_INT.c ****     *     UART_rxBufferRead index.
  49:..\common\uart_ldr/UART_INT.c ****     *  UART_rxBufferLoopDetect - additional variable to detect overflow.
  50:..\common\uart_ldr/UART_INT.c ****     *     Set to one when UART_rxBufferWrite is equal to
  51:..\common\uart_ldr/UART_INT.c ****     *    UART_rxBufferRead
  52:..\common\uart_ldr/UART_INT.c ****     *  UART_rxAddressMode - this variable contains the Address mode,
  53:..\common\uart_ldr/UART_INT.c ****     *     selected in customizer or set by UART_SetRxAddressMode() API.
  54:..\common\uart_ldr/UART_INT.c ****     *  UART_rxAddressDetected - set to 1 when correct address received,
  55:..\common\uart_ldr/UART_INT.c ****     *     and analysed to store following addressed data bytes to the buffer.
  56:..\common\uart_ldr/UART_INT.c ****     *     When not correct address received, set to 0 to skip following data bytes.
  57:..\common\uart_ldr/UART_INT.c ****     *
  58:..\common\uart_ldr/UART_INT.c ****     *******************************************************************************/
  59:..\common\uart_ldr/UART_INT.c ****     CY_ISR(UART_RXISR)
  60:..\common\uart_ldr/UART_INT.c ****     {
  28              		.loc 1 60 0
  29              		.cfi_startproc
  30              		@ args = 0, pretend = 0, frame = 0
  31              		@ frame_needed = 0, uses_anonymous_args = 0
  32              	.LVL0:
  33 0000 2DE9F043 		push	{r4, r5, r6, r7, r8, r9, lr}
  34              		.cfi_def_cfa_offset 28
  35              		.cfi_offset 4, -28
  36              		.cfi_offset 5, -24
  37              		.cfi_offset 6, -20
  38              		.cfi_offset 7, -16
  39              		.cfi_offset 8, -12
  40              		.cfi_offset 9, -8
  41              		.cfi_offset 14, -4
  61:..\common\uart_ldr/UART_INT.c ****         uint8 readData;
  62:..\common\uart_ldr/UART_INT.c ****         uint8 readStatus;
  63:..\common\uart_ldr/UART_INT.c ****         uint8 increment_pointer = 0u;
  64:..\common\uart_ldr/UART_INT.c **** 
  65:..\common\uart_ldr/UART_INT.c ****     #if(CY_PSOC3)
  66:..\common\uart_ldr/UART_INT.c ****         uint8 int_en;
  67:..\common\uart_ldr/UART_INT.c ****     #endif /* (CY_PSOC3) */
  68:..\common\uart_ldr/UART_INT.c **** 
  69:..\common\uart_ldr/UART_INT.c ****     #ifdef UART_RXISR_ENTRY_CALLBACK
  70:..\common\uart_ldr/UART_INT.c ****         UART_RXISR_EntryCallback();
  71:..\common\uart_ldr/UART_INT.c ****     #endif /* UART_RXISR_ENTRY_CALLBACK */
  72:..\common\uart_ldr/UART_INT.c **** 
  73:..\common\uart_ldr/UART_INT.c ****         /* User code required at start of ISR */
ARM GAS  C:\Users\chemi\AppData\Local\Temp\ccmZKEsm.s 			page 3


  74:..\common\uart_ldr/UART_INT.c ****         /* `#START UART_RXISR_START` */
  75:..\common\uart_ldr/UART_INT.c **** 
  76:..\common\uart_ldr/UART_INT.c ****         /* `#END` */
  77:..\common\uart_ldr/UART_INT.c **** 
  78:..\common\uart_ldr/UART_INT.c ****     #if(CY_PSOC3)   /* Make sure nested interrupt is enabled */
  79:..\common\uart_ldr/UART_INT.c ****         int_en = EA;
  80:..\common\uart_ldr/UART_INT.c ****         CyGlobalIntEnable;
  81:..\common\uart_ldr/UART_INT.c ****     #endif /* (CY_PSOC3) */
  82:..\common\uart_ldr/UART_INT.c **** 
  83:..\common\uart_ldr/UART_INT.c ****         do
  84:..\common\uart_ldr/UART_INT.c ****         {
  85:..\common\uart_ldr/UART_INT.c ****             /* Read receiver status register */
  86:..\common\uart_ldr/UART_INT.c ****             readStatus = UART_RXSTATUS_REG;
  87:..\common\uart_ldr/UART_INT.c ****             /* Copy the same status to readData variable for backward compatibility support 
  88:..\common\uart_ldr/UART_INT.c ****             *  of the user code in UART_RXISR_ERROR` section. 
  89:..\common\uart_ldr/UART_INT.c ****             */
  90:..\common\uart_ldr/UART_INT.c ****             readData = readStatus;
  91:..\common\uart_ldr/UART_INT.c **** 
  92:..\common\uart_ldr/UART_INT.c ****             if((readStatus & (UART_RX_STS_BREAK | 
  93:..\common\uart_ldr/UART_INT.c ****                             UART_RX_STS_PAR_ERROR |
  94:..\common\uart_ldr/UART_INT.c ****                             UART_RX_STS_STOP_ERROR | 
  95:..\common\uart_ldr/UART_INT.c ****                             UART_RX_STS_OVERRUN)) != 0u)
  96:..\common\uart_ldr/UART_INT.c ****             {
  97:..\common\uart_ldr/UART_INT.c ****                 /* ERROR handling. */
  98:..\common\uart_ldr/UART_INT.c ****                 UART_errorStatus |= readStatus & ( UART_RX_STS_BREAK | 
  99:..\common\uart_ldr/UART_INT.c ****                                                             UART_RX_STS_PAR_ERROR | 
 100:..\common\uart_ldr/UART_INT.c ****                                                             UART_RX_STS_STOP_ERROR | 
 101:..\common\uart_ldr/UART_INT.c ****                                                             UART_RX_STS_OVERRUN);
 102:..\common\uart_ldr/UART_INT.c ****                 /* `#START UART_RXISR_ERROR` */
 103:..\common\uart_ldr/UART_INT.c **** 
 104:..\common\uart_ldr/UART_INT.c ****                 /* `#END` */
 105:..\common\uart_ldr/UART_INT.c ****                 
 106:..\common\uart_ldr/UART_INT.c ****             #ifdef UART_RXISR_ERROR_CALLBACK
 107:..\common\uart_ldr/UART_INT.c ****                 UART_RXISR_ERROR_Callback();
 108:..\common\uart_ldr/UART_INT.c ****             #endif /* UART_RXISR_ERROR_CALLBACK */
 109:..\common\uart_ldr/UART_INT.c ****             }
 110:..\common\uart_ldr/UART_INT.c ****             
 111:..\common\uart_ldr/UART_INT.c ****             if((readStatus & UART_RX_STS_FIFO_NOTEMPTY) != 0u)
 112:..\common\uart_ldr/UART_INT.c ****             {
 113:..\common\uart_ldr/UART_INT.c ****                 /* Read data from the RX data register */
 114:..\common\uart_ldr/UART_INT.c ****                 readData = UART_RXDATA_REG;
 115:..\common\uart_ldr/UART_INT.c ****             #if (UART_RXHW_ADDRESS_ENABLED)
 116:..\common\uart_ldr/UART_INT.c ****                 if(UART_rxAddressMode == (uint8)UART__B_UART__AM_SW_DETECT_TO_BUFFER)
 117:..\common\uart_ldr/UART_INT.c ****                 {
 118:..\common\uart_ldr/UART_INT.c ****                     if((readStatus & UART_RX_STS_MRKSPC) != 0u)
 119:..\common\uart_ldr/UART_INT.c ****                     {
 120:..\common\uart_ldr/UART_INT.c ****                         if ((readStatus & UART_RX_STS_ADDR_MATCH) != 0u)
 121:..\common\uart_ldr/UART_INT.c ****                         {
 122:..\common\uart_ldr/UART_INT.c ****                             UART_rxAddressDetected = 1u;
 123:..\common\uart_ldr/UART_INT.c ****                         }
 124:..\common\uart_ldr/UART_INT.c ****                         else
 125:..\common\uart_ldr/UART_INT.c ****                         {
 126:..\common\uart_ldr/UART_INT.c ****                             UART_rxAddressDetected = 0u;
 127:..\common\uart_ldr/UART_INT.c ****                         }
 128:..\common\uart_ldr/UART_INT.c ****                     }
 129:..\common\uart_ldr/UART_INT.c ****                     if(UART_rxAddressDetected != 0u)
 130:..\common\uart_ldr/UART_INT.c ****                     {   /* Store only addressed data */
ARM GAS  C:\Users\chemi\AppData\Local\Temp\ccmZKEsm.s 			page 4


 131:..\common\uart_ldr/UART_INT.c ****                         UART_rxBuffer[UART_rxBufferWrite] = readData;
 132:..\common\uart_ldr/UART_INT.c ****                         increment_pointer = 1u;
 133:..\common\uart_ldr/UART_INT.c ****                     }
 134:..\common\uart_ldr/UART_INT.c ****                 }
 135:..\common\uart_ldr/UART_INT.c ****                 else /* Without software addressing */
 136:..\common\uart_ldr/UART_INT.c ****                 {
 137:..\common\uart_ldr/UART_INT.c ****                     UART_rxBuffer[UART_rxBufferWrite] = readData;
 138:..\common\uart_ldr/UART_INT.c ****                     increment_pointer = 1u;
 139:..\common\uart_ldr/UART_INT.c ****                 }
 140:..\common\uart_ldr/UART_INT.c ****             #else  /* Without addressing */
 141:..\common\uart_ldr/UART_INT.c ****                 UART_rxBuffer[UART_rxBufferWrite] = readData;
  42              		.loc 1 141 0
  43 0004 1A48     		ldr	r0, .L14
 142:..\common\uart_ldr/UART_INT.c ****                 increment_pointer = 1u;
 143:..\common\uart_ldr/UART_INT.c ****             #endif /* (UART_RXHW_ADDRESS_ENABLED) */
 144:..\common\uart_ldr/UART_INT.c **** 
 145:..\common\uart_ldr/UART_INT.c ****                 /* Do not increment buffer pointer when skip not addressed data */
 146:..\common\uart_ldr/UART_INT.c ****                 if(increment_pointer != 0u)
 147:..\common\uart_ldr/UART_INT.c ****                 {
 148:..\common\uart_ldr/UART_INT.c ****                     if(UART_rxBufferLoopDetect != 0u)
  44              		.loc 1 148 0
  45 0006 1B4C     		ldr	r4, .L14+4
  46 0008 0246     		mov	r2, r0
  47 000a 2546     		mov	r5, r4
  86:..\common\uart_ldr/UART_INT.c ****             /* Copy the same status to readData variable for backward compatibility support 
  48              		.loc 1 86 0
  49 000c 1A4E     		ldr	r6, .L14+8
  98:..\common\uart_ldr/UART_INT.c ****                                                             UART_RX_STS_PAR_ERROR | 
  50              		.loc 1 98 0
  51 000e 1B49     		ldr	r1, .L14+12
 114:..\common\uart_ldr/UART_INT.c ****             #if (UART_RXHW_ADDRESS_ENABLED)
  52              		.loc 1 114 0
  53 0010 1B4F     		ldr	r7, .L14+16
 141:..\common\uart_ldr/UART_INT.c ****                 increment_pointer = 1u;
  54              		.loc 1 141 0
  55 0012 DFF874E0 		ldr	lr, .L14+24
 149:..\common\uart_ldr/UART_INT.c ****                     {   /* Set Software Buffer status Overflow */
 150:..\common\uart_ldr/UART_INT.c ****                         UART_rxBufferOverflow = 1u;
  56              		.loc 1 150 0
  57 0016 DFF874C0 		ldr	ip, .L14+28
  58              	.LVL1:
  59              	.L6:
  86:..\common\uart_ldr/UART_INT.c ****             /* Copy the same status to readData variable for backward compatibility support 
  60              		.loc 1 86 0
  61 001a 3378     		ldrb	r3, [r6]	@ zero_extendqisi2
  62 001c DBB2     		uxtb	r3, r3
  63              	.LVL2:
  92:..\common\uart_ldr/UART_INT.c ****                             UART_RX_STS_PAR_ERROR |
  64              		.loc 1 92 0
  65 001e 13F01E09 		ands	r9, r3, #30
  98:..\common\uart_ldr/UART_INT.c ****                                                             UART_RX_STS_PAR_ERROR | 
  66              		.loc 1 98 0
  67 0022 1EBF     		ittt	ne
  68 0024 91F80080 		ldrbne	r8, [r1]	@ zero_extendqisi2
  69 0028 49EA0808 		orrne	r8, r9, r8
  70 002c 81F80080 		strbne	r8, [r1]
 111:..\common\uart_ldr/UART_INT.c ****             {
ARM GAS  C:\Users\chemi\AppData\Local\Temp\ccmZKEsm.s 			page 5


  71              		.loc 1 111 0
  72 0030 9B06     		lsls	r3, r3, #26
  73              	.LVL3:
  74 0032 1AD5     		bpl	.L1
 114:..\common\uart_ldr/UART_INT.c ****             #if (UART_RXHW_ADDRESS_ENABLED)
  75              		.loc 1 114 0
  76 0034 97F80080 		ldrb	r8, [r7]	@ zero_extendqisi2
 141:..\common\uart_ldr/UART_INT.c ****                 increment_pointer = 1u;
  77              		.loc 1 141 0
  78 0038 0378     		ldrb	r3, [r0]	@ zero_extendqisi2
 114:..\common\uart_ldr/UART_INT.c ****             #if (UART_RXHW_ADDRESS_ENABLED)
  79              		.loc 1 114 0
  80 003a 5FFA88F8 		uxtb	r8, r8
  81              	.LVL4:
 141:..\common\uart_ldr/UART_INT.c ****                 increment_pointer = 1u;
  82              		.loc 1 141 0
  83 003e DBB2     		uxtb	r3, r3
  84 0040 0EF80380 		strb	r8, [lr, r3]
  85              	.LVL5:
 148:..\common\uart_ldr/UART_INT.c ****                     {   /* Set Software Buffer status Overflow */
  86              		.loc 1 148 0
  87 0044 2378     		ldrb	r3, [r4]	@ zero_extendqisi2
  88 0046 13B1     		cbz	r3, .L4
  89              		.loc 1 150 0
  90 0048 0123     		movs	r3, #1
  91 004a 8CF80030 		strb	r3, [ip]
  92              	.L4:
 151:..\common\uart_ldr/UART_INT.c ****                     }
 152:..\common\uart_ldr/UART_INT.c ****                     /* Set next pointer. */
 153:..\common\uart_ldr/UART_INT.c ****                     UART_rxBufferWrite++;
  93              		.loc 1 153 0
  94 004e 1378     		ldrb	r3, [r2]	@ zero_extendqisi2
  95 0050 0133     		adds	r3, r3, #1
  96 0052 DBB2     		uxtb	r3, r3
  97 0054 1370     		strb	r3, [r2]
 154:..\common\uart_ldr/UART_INT.c **** 
 155:..\common\uart_ldr/UART_INT.c ****                     /* Check pointer for a loop condition */
 156:..\common\uart_ldr/UART_INT.c ****                     if(UART_rxBufferWrite >= UART_RX_BUFFER_SIZE)
  98              		.loc 1 156 0
  99 0056 1378     		ldrb	r3, [r2]	@ zero_extendqisi2
 157:..\common\uart_ldr/UART_INT.c ****                     {
 158:..\common\uart_ldr/UART_INT.c ****                         UART_rxBufferWrite = 0u;
 159:..\common\uart_ldr/UART_INT.c ****                     }
 160:..\common\uart_ldr/UART_INT.c **** 
 161:..\common\uart_ldr/UART_INT.c ****                     /* Detect pre-overload condition and set flag */
 162:..\common\uart_ldr/UART_INT.c ****                     if(UART_rxBufferWrite == UART_rxBufferRead)
 100              		.loc 1 162 0
 101 0058 0A4B     		ldr	r3, .L14+20
 102 005a 92F80080 		ldrb	r8, [r2]	@ zero_extendqisi2
 103              	.LVL6:
 104 005e 1B78     		ldrb	r3, [r3]	@ zero_extendqisi2
 105 0060 9845     		cmp	r8, r3
 106 0062 DAD1     		bne	.L6
 163:..\common\uart_ldr/UART_INT.c ****                     {
 164:..\common\uart_ldr/UART_INT.c ****                         UART_rxBufferLoopDetect = 1u;
 107              		.loc 1 164 0
 108 0064 0123     		movs	r3, #1
ARM GAS  C:\Users\chemi\AppData\Local\Temp\ccmZKEsm.s 			page 6


 109 0066 2B70     		strb	r3, [r5]
 110 0068 D7E7     		b	.L6
 111              	.LVL7:
 112              	.L1:
 113 006a BDE8F083 		pop	{r4, r5, r6, r7, r8, r9, pc}
 114              	.L15:
 115 006e 00BF     		.align	2
 116              	.L14:
 117 0070 00000000 		.word	UART_rxBufferWrite
 118 0074 00000000 		.word	UART_rxBufferLoopDetect
 119 0078 6B650040 		.word	1073767787
 120 007c 00000000 		.word	UART_errorStatus
 121 0080 48650040 		.word	1073767752
 122 0084 00000000 		.word	UART_rxBufferRead
 123 0088 00000000 		.word	UART_rxBuffer
 124 008c 00000000 		.word	UART_rxBufferOverflow
 125              		.cfi_endproc
 126              	.LFE0:
 127              		.size	UART_RXISR, .-UART_RXISR
 128              		.section	.text.UART_TXISR,"ax",%progbits
 129              		.align	1
 130              		.global	UART_TXISR
 131              		.thumb
 132              		.thumb_func
 133              		.type	UART_TXISR, %function
 134              	UART_TXISR:
 135              	.LFB1:
 165:..\common\uart_ldr/UART_INT.c ****                         /* When Hardware Flow Control selected */
 166:..\common\uart_ldr/UART_INT.c ****                         #if (UART_FLOW_CONTROL != 0u)
 167:..\common\uart_ldr/UART_INT.c ****                             /* Disable RX interrupt mask, it is enabled when user read data from th
 168:..\common\uart_ldr/UART_INT.c ****                             UART_RXSTATUS_MASK_REG  &= (uint8)~UART_RX_STS_FIFO_NOTEMPTY;
 169:..\common\uart_ldr/UART_INT.c ****                             CyIntClearPending(UART_RX_VECT_NUM);
 170:..\common\uart_ldr/UART_INT.c ****                             break; /* Break the reading of the FIFO loop, leave the data there for 
 171:..\common\uart_ldr/UART_INT.c ****                         #endif /* (UART_FLOW_CONTROL != 0u) */
 172:..\common\uart_ldr/UART_INT.c ****                     }
 173:..\common\uart_ldr/UART_INT.c ****                 }
 174:..\common\uart_ldr/UART_INT.c ****             }
 175:..\common\uart_ldr/UART_INT.c ****         }while((readStatus & UART_RX_STS_FIFO_NOTEMPTY) != 0u);
 176:..\common\uart_ldr/UART_INT.c **** 
 177:..\common\uart_ldr/UART_INT.c ****         /* User code required at end of ISR (Optional) */
 178:..\common\uart_ldr/UART_INT.c ****         /* `#START UART_RXISR_END` */
 179:..\common\uart_ldr/UART_INT.c **** 
 180:..\common\uart_ldr/UART_INT.c ****         /* `#END` */
 181:..\common\uart_ldr/UART_INT.c **** 
 182:..\common\uart_ldr/UART_INT.c ****     #ifdef UART_RXISR_EXIT_CALLBACK
 183:..\common\uart_ldr/UART_INT.c ****         UART_RXISR_ExitCallback();
 184:..\common\uart_ldr/UART_INT.c ****     #endif /* UART_RXISR_EXIT_CALLBACK */
 185:..\common\uart_ldr/UART_INT.c **** 
 186:..\common\uart_ldr/UART_INT.c ****     #if(CY_PSOC3)
 187:..\common\uart_ldr/UART_INT.c ****         EA = int_en;
 188:..\common\uart_ldr/UART_INT.c ****     #endif /* (CY_PSOC3) */
 189:..\common\uart_ldr/UART_INT.c ****     }
 190:..\common\uart_ldr/UART_INT.c ****     
 191:..\common\uart_ldr/UART_INT.c **** #endif /* (UART_RX_INTERRUPT_ENABLED && (UART_RX_ENABLED || UART_HD_ENABLED)) */
 192:..\common\uart_ldr/UART_INT.c **** 
 193:..\common\uart_ldr/UART_INT.c **** 
 194:..\common\uart_ldr/UART_INT.c **** #if (UART_TX_INTERRUPT_ENABLED && UART_TX_ENABLED)
ARM GAS  C:\Users\chemi\AppData\Local\Temp\ccmZKEsm.s 			page 7


 195:..\common\uart_ldr/UART_INT.c ****     /*******************************************************************************
 196:..\common\uart_ldr/UART_INT.c ****     * Function Name: UART_TXISR
 197:..\common\uart_ldr/UART_INT.c ****     ********************************************************************************
 198:..\common\uart_ldr/UART_INT.c ****     *
 199:..\common\uart_ldr/UART_INT.c ****     * Summary:
 200:..\common\uart_ldr/UART_INT.c ****     * Interrupt Service Routine for the TX portion of the UART
 201:..\common\uart_ldr/UART_INT.c ****     *
 202:..\common\uart_ldr/UART_INT.c ****     * Parameters:
 203:..\common\uart_ldr/UART_INT.c ****     *  None.
 204:..\common\uart_ldr/UART_INT.c ****     *
 205:..\common\uart_ldr/UART_INT.c ****     * Return:
 206:..\common\uart_ldr/UART_INT.c ****     *  None.
 207:..\common\uart_ldr/UART_INT.c ****     *
 208:..\common\uart_ldr/UART_INT.c ****     * Global Variables:
 209:..\common\uart_ldr/UART_INT.c ****     *  UART_txBuffer - RAM buffer pointer for transmit data from.
 210:..\common\uart_ldr/UART_INT.c ****     *  UART_txBufferRead - cyclic index for read and transmit data
 211:..\common\uart_ldr/UART_INT.c ****     *     from txBuffer, increments after each transmitted byte.
 212:..\common\uart_ldr/UART_INT.c ****     *  UART_rxBufferWrite - cyclic index for write to txBuffer,
 213:..\common\uart_ldr/UART_INT.c ****     *     checked to detect available for transmission bytes.
 214:..\common\uart_ldr/UART_INT.c ****     *
 215:..\common\uart_ldr/UART_INT.c ****     *******************************************************************************/
 216:..\common\uart_ldr/UART_INT.c ****     CY_ISR(UART_TXISR)
 217:..\common\uart_ldr/UART_INT.c ****     {
 136              		.loc 1 217 0
 137              		.cfi_startproc
 138              		@ args = 0, pretend = 0, frame = 0
 139              		@ frame_needed = 0, uses_anonymous_args = 0
 140 0000 70B5     		push	{r4, r5, r6, lr}
 141              		.cfi_def_cfa_offset 16
 142              		.cfi_offset 4, -16
 143              		.cfi_offset 5, -12
 144              		.cfi_offset 6, -8
 145              		.cfi_offset 14, -4
 218:..\common\uart_ldr/UART_INT.c ****     #if(CY_PSOC3)
 219:..\common\uart_ldr/UART_INT.c ****         uint8 int_en;
 220:..\common\uart_ldr/UART_INT.c ****     #endif /* (CY_PSOC3) */
 221:..\common\uart_ldr/UART_INT.c **** 
 222:..\common\uart_ldr/UART_INT.c ****     #ifdef UART_TXISR_ENTRY_CALLBACK
 223:..\common\uart_ldr/UART_INT.c ****         UART_TXISR_EntryCallback();
 224:..\common\uart_ldr/UART_INT.c ****     #endif /* UART_TXISR_ENTRY_CALLBACK */
 225:..\common\uart_ldr/UART_INT.c **** 
 226:..\common\uart_ldr/UART_INT.c ****         /* User code required at start of ISR */
 227:..\common\uart_ldr/UART_INT.c ****         /* `#START UART_TXISR_START` */
 228:..\common\uart_ldr/UART_INT.c **** 
 229:..\common\uart_ldr/UART_INT.c ****         /* `#END` */
 230:..\common\uart_ldr/UART_INT.c **** 
 231:..\common\uart_ldr/UART_INT.c ****     #if(CY_PSOC3)   /* Make sure nested interrupt is enabled */
 232:..\common\uart_ldr/UART_INT.c ****         int_en = EA;
 233:..\common\uart_ldr/UART_INT.c ****         CyGlobalIntEnable;
 234:..\common\uart_ldr/UART_INT.c ****     #endif /* (CY_PSOC3) */
 235:..\common\uart_ldr/UART_INT.c **** 
 236:..\common\uart_ldr/UART_INT.c ****         while((UART_txBufferRead != UART_txBufferWrite) &&
 146              		.loc 1 236 0
 147 0002 0C4B     		ldr	r3, .L20
 148 0004 0C48     		ldr	r0, .L20+4
 237:..\common\uart_ldr/UART_INT.c ****              ((UART_TXSTATUS_REG & UART_TX_STS_FIFO_FULL) == 0u))
 149              		.loc 1 237 0
ARM GAS  C:\Users\chemi\AppData\Local\Temp\ccmZKEsm.s 			page 8


 150 0006 0D49     		ldr	r1, .L20+8
 238:..\common\uart_ldr/UART_INT.c ****         {
 239:..\common\uart_ldr/UART_INT.c ****             /* Check pointer wrap around */
 240:..\common\uart_ldr/UART_INT.c ****             if(UART_txBufferRead >= UART_TX_BUFFER_SIZE)
 241:..\common\uart_ldr/UART_INT.c ****             {
 242:..\common\uart_ldr/UART_INT.c ****                 UART_txBufferRead = 0u;
 243:..\common\uart_ldr/UART_INT.c ****             }
 244:..\common\uart_ldr/UART_INT.c **** 
 245:..\common\uart_ldr/UART_INT.c ****             UART_TXDATA_REG = UART_txBuffer[UART_txBufferRead];
 151              		.loc 1 245 0
 152 0008 0D4C     		ldr	r4, .L20+12
 153 000a 0E4D     		ldr	r5, .L20+16
 154              	.L17:
 236:..\common\uart_ldr/UART_INT.c ****              ((UART_TXSTATUS_REG & UART_TX_STS_FIFO_FULL) == 0u))
 155              		.loc 1 236 0
 156 000c 1A78     		ldrb	r2, [r3]	@ zero_extendqisi2
 157 000e 0678     		ldrb	r6, [r0]	@ zero_extendqisi2
 158 0010 9642     		cmp	r6, r2
 159 0012 0DD0     		beq	.L16
 237:..\common\uart_ldr/UART_INT.c ****              ((UART_TXSTATUS_REG & UART_TX_STS_FIFO_FULL) == 0u))
 160              		.loc 1 237 0 discriminator 1
 161 0014 0A78     		ldrb	r2, [r1]	@ zero_extendqisi2
 236:..\common\uart_ldr/UART_INT.c ****              ((UART_TXSTATUS_REG & UART_TX_STS_FIFO_FULL) == 0u))
 162              		.loc 1 236 0 discriminator 1
 163 0016 5207     		lsls	r2, r2, #29
 164 0018 0AD4     		bmi	.L16
 240:..\common\uart_ldr/UART_INT.c ****             {
 165              		.loc 1 240 0
 166 001a 1A78     		ldrb	r2, [r3]	@ zero_extendqisi2
 167              		.loc 1 245 0
 168 001c 1A78     		ldrb	r2, [r3]	@ zero_extendqisi2
 169 001e D2B2     		uxtb	r2, r2
 170 0020 A25C     		ldrb	r2, [r4, r2]	@ zero_extendqisi2
 171 0022 D2B2     		uxtb	r2, r2
 172 0024 2A70     		strb	r2, [r5]
 246:..\common\uart_ldr/UART_INT.c **** 
 247:..\common\uart_ldr/UART_INT.c ****             /* Set next pointer */
 248:..\common\uart_ldr/UART_INT.c ****             UART_txBufferRead++;
 173              		.loc 1 248 0
 174 0026 1A78     		ldrb	r2, [r3]	@ zero_extendqisi2
 175 0028 0132     		adds	r2, r2, #1
 176 002a D2B2     		uxtb	r2, r2
 177 002c 1A70     		strb	r2, [r3]
 178 002e EDE7     		b	.L17
 179              	.L16:
 180 0030 70BD     		pop	{r4, r5, r6, pc}
 181              	.L21:
 182 0032 00BF     		.align	2
 183              	.L20:
 184 0034 00000000 		.word	UART_txBufferRead
 185 0038 00000000 		.word	UART_txBufferWrite
 186 003c 69640040 		.word	1073767529
 187 0040 00000000 		.word	UART_txBuffer
 188 0044 49640040 		.word	1073767497
 189              		.cfi_endproc
 190              	.LFE1:
 191              		.size	UART_TXISR, .-UART_TXISR
ARM GAS  C:\Users\chemi\AppData\Local\Temp\ccmZKEsm.s 			page 9


 192              		.text
 193              	.Letext0:
 194              		.file 2 "Generated_Source\\PSoC5/cytypes.h"
 195              		.file 3 "..\\common\\uart_ldr\\UART.h"