ARM GAS  C:\Users\chemi\AppData\Local\Temp\ccCZgJ1d.s 			page 1


   1              		.syntax unified
   2              		.cpu cortex-m3
   3              		.fpu softvfp
   4              		.eabi_attribute 20, 1
   5              		.eabi_attribute 21, 1
   6              		.eabi_attribute 23, 3
   7              		.eabi_attribute 24, 1
   8              		.eabi_attribute 25, 1
   9              		.eabi_attribute 26, 1
  10              		.eabi_attribute 30, 4
  11              		.eabi_attribute 34, 1
  12              		.eabi_attribute 18, 4
  13              		.thumb
  14              		.syntax unified
  15              		.file	"UART_BOOT.c"
  16              		.text
  17              	.Ltext0:
  18              		.cfi_sections	.debug_frame
  19              		.section	.text.UART_CyBtldrCommStart,"ax",%progbits
  20              		.align	1
  21              		.global	UART_CyBtldrCommStart
  22              		.thumb
  23              		.thumb_func
  24              		.type	UART_CyBtldrCommStart, %function
  25              	UART_CyBtldrCommStart:
  26              	.LFB63:
  27              		.file 1 "..\\common\\uart_ldr\\UART_BOOT.c"
   1:..\common\uart_ldr/UART_BOOT.c **** /*******************************************************************************
   2:..\common\uart_ldr/UART_BOOT.c **** * File Name: UART_BOOT.c
   3:..\common\uart_ldr/UART_BOOT.c **** * Version 2.50
   4:..\common\uart_ldr/UART_BOOT.c **** *
   5:..\common\uart_ldr/UART_BOOT.c **** * Description:
   6:..\common\uart_ldr/UART_BOOT.c **** *  This file provides the source code of bootloader communication APIs for the
   7:..\common\uart_ldr/UART_BOOT.c **** *  UART component.
   8:..\common\uart_ldr/UART_BOOT.c **** *
   9:..\common\uart_ldr/UART_BOOT.c **** * Note:
  10:..\common\uart_ldr/UART_BOOT.c **** *
  11:..\common\uart_ldr/UART_BOOT.c **** ********************************************************************************
  12:..\common\uart_ldr/UART_BOOT.c **** * Copyright 2008-2015, Cypress Semiconductor Corporation.  All rights reserved.
  13:..\common\uart_ldr/UART_BOOT.c **** * You may use this file only in accordance with the license, terms, conditions,
  14:..\common\uart_ldr/UART_BOOT.c **** * disclaimers, and limitations in the end user license agreement accompanying
  15:..\common\uart_ldr/UART_BOOT.c **** * the software package with which this file was provided.
  16:..\common\uart_ldr/UART_BOOT.c **** *******************************************************************************/
  17:..\common\uart_ldr/UART_BOOT.c **** 
  18:..\common\uart_ldr/UART_BOOT.c **** #include "UART.h"
  19:..\common\uart_ldr/UART_BOOT.c **** #include <project.h>
  20:..\common\uart_ldr/UART_BOOT.c **** #include "cli_basic.h"
  21:..\common\uart_ldr/UART_BOOT.c **** #include "Bootloader.h"
  22:..\common\uart_ldr/UART_BOOT.c **** 
  23:..\common\uart_ldr/UART_BOOT.c **** #if defined(CYDEV_BOOTLOADER_IO_COMP) && (0u != ((CYDEV_BOOTLOADER_IO_COMP == CyBtldr_UART) || \
  24:..\common\uart_ldr/UART_BOOT.c ****                                           (CYDEV_BOOTLOADER_IO_COMP == CyBtldr_Custom_Interface)))
  25:..\common\uart_ldr/UART_BOOT.c ****  
  26:..\common\uart_ldr/UART_BOOT.c **** static uint8  USBUART_started = 0u;
  27:..\common\uart_ldr/UART_BOOT.c **** 
  28:..\common\uart_ldr/UART_BOOT.c **** /*******************************************************************************
  29:..\common\uart_ldr/UART_BOOT.c **** * Function Name: UART_CyBtldrCommStart
  30:..\common\uart_ldr/UART_BOOT.c **** ********************************************************************************
ARM GAS  C:\Users\chemi\AppData\Local\Temp\ccCZgJ1d.s 			page 2


  31:..\common\uart_ldr/UART_BOOT.c **** *
  32:..\common\uart_ldr/UART_BOOT.c **** * Summary:
  33:..\common\uart_ldr/UART_BOOT.c **** *  Starts the UART communication component.
  34:..\common\uart_ldr/UART_BOOT.c **** *
  35:..\common\uart_ldr/UART_BOOT.c **** * Parameters:
  36:..\common\uart_ldr/UART_BOOT.c **** *  None
  37:..\common\uart_ldr/UART_BOOT.c **** *
  38:..\common\uart_ldr/UART_BOOT.c **** * Return:
  39:..\common\uart_ldr/UART_BOOT.c **** *  None
  40:..\common\uart_ldr/UART_BOOT.c **** *
  41:..\common\uart_ldr/UART_BOOT.c **** * Side Effects:
  42:..\common\uart_ldr/UART_BOOT.c **** *  This component automatically enables global interrupt.
  43:..\common\uart_ldr/UART_BOOT.c **** *
  44:..\common\uart_ldr/UART_BOOT.c **** *******************************************************************************/
  45:..\common\uart_ldr/UART_BOOT.c **** 
  46:..\common\uart_ldr/UART_BOOT.c ****     
  47:..\common\uart_ldr/UART_BOOT.c **** void UART_CyBtldrCommStart(void) CYSMALL 
  48:..\common\uart_ldr/UART_BOOT.c **** {
  28              		.loc 1 48 0
  29              		.cfi_startproc
  30              		@ args = 0, pretend = 0, frame = 0
  31              		@ frame_needed = 0, uses_anonymous_args = 0
  32 0000 10B5     		push	{r4, lr}
  33              		.cfi_def_cfa_offset 8
  34              		.cfi_offset 4, -8
  35              		.cfi_offset 14, -4
  49:..\common\uart_ldr/UART_BOOT.c ****     
  50:..\common\uart_ldr/UART_BOOT.c ****     CyGlobalIntEnable;      /* Enable Global Interrupts */
  36              		.loc 1 50 0
  37              		.syntax unified
  38              	@ 50 "..\common\uart_ldr\UART_BOOT.c" 1
  39 0002 62B6     		CPSIE   i
  40              	@ 0 "" 2
  51:..\common\uart_ldr/UART_BOOT.c **** 
  52:..\common\uart_ldr/UART_BOOT.c ****     /*Start USB Operation/device 0 and with 5V or 3V operation depend on Voltage Configuration in D
  53:..\common\uart_ldr/UART_BOOT.c ****     USBUART_Start(0u, USBUART_DWR_VDDD_OPERATION);
  54:..\common\uart_ldr/UART_BOOT.c **** 
  55:..\common\uart_ldr/UART_BOOT.c ****     /* USB component started, the correct enumeration will be checked in first Read operation */
  56:..\common\uart_ldr/UART_BOOT.c ****     USBUART_started = 1u;
  57:..\common\uart_ldr/UART_BOOT.c ****     uint16_t timeoutMs = 2000;
  58:..\common\uart_ldr/UART_BOOT.c ****     
  59:..\common\uart_ldr/UART_BOOT.c **** 
  60:..\common\uart_ldr/UART_BOOT.c ****         /* Wait for Device to enumerate */
  61:..\common\uart_ldr/UART_BOOT.c ****         while ((0u ==USBUART_GetConfiguration()) && (0u != timeoutMs))
  41              		.loc 1 61 0
  42              		.thumb
  43              		.syntax unified
  44 0004 40F2D174 		movw	r4, #2001
  53:..\common\uart_ldr/UART_BOOT.c **** 
  45              		.loc 1 53 0
  46 0008 0221     		movs	r1, #2
  47 000a 0020     		movs	r0, #0
  48 000c FFF7FEFF 		bl	USBUART_Start
  49              	.LVL0:
  56:..\common\uart_ldr/UART_BOOT.c ****     uint16_t timeoutMs = 2000;
  50              		.loc 1 56 0
  51 0010 0A4B     		ldr	r3, .L6
ARM GAS  C:\Users\chemi\AppData\Local\Temp\ccCZgJ1d.s 			page 3


  52 0012 0122     		movs	r2, #1
  53 0014 1A70     		strb	r2, [r3]
  54              	.LVL1:
  55              	.L2:
  56              		.loc 1 61 0
  57 0016 FFF7FEFF 		bl	USBUART_GetConfiguration
  58              	.LVL2:
  59 001a 30B9     		cbnz	r0, .L3
  60 001c 013C     		subs	r4, r4, #1
  61              	.LVL3:
  62 001e A4B2     		uxth	r4, r4
  63              		.loc 1 61 0 is_stmt 0 discriminator 1
  64 0020 1CB1     		cbz	r4, .L3
  62:..\common\uart_ldr/UART_BOOT.c ****         {
  63:..\common\uart_ldr/UART_BOOT.c ****             CyDelay(1);
  65              		.loc 1 63 0 is_stmt 1
  66 0022 0120     		movs	r0, #1
  67 0024 FFF7FEFF 		bl	CyDelay
  68              	.LVL4:
  69 0028 F5E7     		b	.L2
  70              	.LVL5:
  71              	.L3:
  64:..\common\uart_ldr/UART_BOOT.c ****             timeoutMs--;
  65:..\common\uart_ldr/UART_BOOT.c ****         }
  66:..\common\uart_ldr/UART_BOOT.c ****    //if(timeoutMs>0) com_type = USB;
  67:..\common\uart_ldr/UART_BOOT.c ****     
  68:..\common\uart_ldr/UART_BOOT.c ****     /* Start UART component and clear the Tx,Rx buffers */
  69:..\common\uart_ldr/UART_BOOT.c ****     UART_Start();
  72              		.loc 1 69 0
  73 002a FFF7FEFF 		bl	UART_Start
  74              	.LVL6:
  70:..\common\uart_ldr/UART_BOOT.c ****     UART_ClearRxBuffer();
  75              		.loc 1 70 0
  76 002e FFF7FEFF 		bl	UART_ClearRxBuffer
  77              	.LVL7:
  71:..\common\uart_ldr/UART_BOOT.c ****     UART_ClearTxBuffer();
  72:..\common\uart_ldr/UART_BOOT.c **** }
  78              		.loc 1 72 0
  79 0032 BDE81040 		pop	{r4, lr}
  80              		.cfi_restore 14
  81              		.cfi_restore 4
  82              		.cfi_def_cfa_offset 0
  71:..\common\uart_ldr/UART_BOOT.c ****     UART_ClearTxBuffer();
  83              		.loc 1 71 0
  84 0036 FFF7FEBF 		b	UART_ClearTxBuffer
  85              	.LVL8:
  86              	.L7:
  87 003a 00BF     		.align	2
  88              	.L6:
  89 003c 00000000 		.word	.LANCHOR0
  90              		.cfi_endproc
  91              	.LFE63:
  92              		.size	UART_CyBtldrCommStart, .-UART_CyBtldrCommStart
  93              		.section	.text.UART_CyBtldrCommStop,"ax",%progbits
  94              		.align	1
  95              		.global	UART_CyBtldrCommStop
  96              		.thumb
ARM GAS  C:\Users\chemi\AppData\Local\Temp\ccCZgJ1d.s 			page 4


  97              		.thumb_func
  98              		.type	UART_CyBtldrCommStop, %function
  99              	UART_CyBtldrCommStop:
 100              	.LFB64:
  73:..\common\uart_ldr/UART_BOOT.c **** 
  74:..\common\uart_ldr/UART_BOOT.c **** /*******************************************************************************
  75:..\common\uart_ldr/UART_BOOT.c **** * Function Name: UART_CyBtldrCommStop
  76:..\common\uart_ldr/UART_BOOT.c **** ********************************************************************************
  77:..\common\uart_ldr/UART_BOOT.c **** *
  78:..\common\uart_ldr/UART_BOOT.c **** * Summary:
  79:..\common\uart_ldr/UART_BOOT.c **** *  Disables the communication component and disables the interrupt.
  80:..\common\uart_ldr/UART_BOOT.c **** *
  81:..\common\uart_ldr/UART_BOOT.c **** * Parameters:
  82:..\common\uart_ldr/UART_BOOT.c **** *  None
  83:..\common\uart_ldr/UART_BOOT.c **** *
  84:..\common\uart_ldr/UART_BOOT.c **** * Return:
  85:..\common\uart_ldr/UART_BOOT.c **** *  None
  86:..\common\uart_ldr/UART_BOOT.c **** *
  87:..\common\uart_ldr/UART_BOOT.c **** *******************************************************************************/
  88:..\common\uart_ldr/UART_BOOT.c **** void UART_CyBtldrCommStop(void) CYSMALL 
  89:..\common\uart_ldr/UART_BOOT.c **** {
 101              		.loc 1 89 0
 102              		.cfi_startproc
 103              		@ args = 0, pretend = 0, frame = 0
 104              		@ frame_needed = 0, uses_anonymous_args = 0
 105 0000 08B5     		push	{r3, lr}
 106              		.cfi_def_cfa_offset 8
 107              		.cfi_offset 3, -8
 108              		.cfi_offset 14, -4
  90:..\common\uart_ldr/UART_BOOT.c ****     /* Stop UART component */
  91:..\common\uart_ldr/UART_BOOT.c ****     UART_Stop();
 109              		.loc 1 91 0
 110 0002 FFF7FEFF 		bl	UART_Stop
 111              	.LVL9:
  92:..\common\uart_ldr/UART_BOOT.c ****     USBUART_Stop();
  93:..\common\uart_ldr/UART_BOOT.c **** }
 112              		.loc 1 93 0
 113 0006 BDE80840 		pop	{r3, lr}
 114              		.cfi_restore 14
 115              		.cfi_restore 3
 116              		.cfi_def_cfa_offset 0
  92:..\common\uart_ldr/UART_BOOT.c ****     USBUART_Stop();
 117              		.loc 1 92 0
 118 000a FFF7FEBF 		b	USBUART_Stop
 119              	.LVL10:
 120              		.cfi_endproc
 121              	.LFE64:
 122              		.size	UART_CyBtldrCommStop, .-UART_CyBtldrCommStop
 123              		.section	.text.UART_CyBtldrCommReset,"ax",%progbits
 124              		.align	1
 125              		.global	UART_CyBtldrCommReset
 126              		.thumb
 127              		.thumb_func
 128              		.type	UART_CyBtldrCommReset, %function
 129              	UART_CyBtldrCommReset:
 130              	.LFB65:
  94:..\common\uart_ldr/UART_BOOT.c **** 
ARM GAS  C:\Users\chemi\AppData\Local\Temp\ccCZgJ1d.s 			page 5


  95:..\common\uart_ldr/UART_BOOT.c **** 
  96:..\common\uart_ldr/UART_BOOT.c **** /*******************************************************************************
  97:..\common\uart_ldr/UART_BOOT.c **** * Function Name: UART_CyBtldrCommReset
  98:..\common\uart_ldr/UART_BOOT.c **** ********************************************************************************
  99:..\common\uart_ldr/UART_BOOT.c **** *
 100:..\common\uart_ldr/UART_BOOT.c **** * Summary:
 101:..\common\uart_ldr/UART_BOOT.c **** *  Resets the receive and transmit communication Buffers.
 102:..\common\uart_ldr/UART_BOOT.c **** *
 103:..\common\uart_ldr/UART_BOOT.c **** * Parameters:
 104:..\common\uart_ldr/UART_BOOT.c **** *  None
 105:..\common\uart_ldr/UART_BOOT.c **** *
 106:..\common\uart_ldr/UART_BOOT.c **** * Return:
 107:..\common\uart_ldr/UART_BOOT.c **** *  None
 108:..\common\uart_ldr/UART_BOOT.c **** *
 109:..\common\uart_ldr/UART_BOOT.c **** *******************************************************************************/
 110:..\common\uart_ldr/UART_BOOT.c **** void UART_CyBtldrCommReset(void) CYSMALL 
 111:..\common\uart_ldr/UART_BOOT.c **** {
 131              		.loc 1 111 0
 132              		.cfi_startproc
 133              		@ args = 0, pretend = 0, frame = 0
 134              		@ frame_needed = 0, uses_anonymous_args = 0
 135 0000 08B5     		push	{r3, lr}
 136              		.cfi_def_cfa_offset 8
 137              		.cfi_offset 3, -8
 138              		.cfi_offset 14, -4
 112:..\common\uart_ldr/UART_BOOT.c ****     /* Clear RX and TX buffers */
 113:..\common\uart_ldr/UART_BOOT.c ****     UART_ClearRxBuffer();
 139              		.loc 1 113 0
 140 0002 FFF7FEFF 		bl	UART_ClearRxBuffer
 141              	.LVL11:
 114:..\common\uart_ldr/UART_BOOT.c ****     UART_ClearTxBuffer();
 142              		.loc 1 114 0
 143 0006 FFF7FEFF 		bl	UART_ClearTxBuffer
 144              	.LVL12:
 115:..\common\uart_ldr/UART_BOOT.c ****     USBUART_CDC_Init();
 116:..\common\uart_ldr/UART_BOOT.c **** }
 145              		.loc 1 116 0
 146 000a BDE80840 		pop	{r3, lr}
 147              		.cfi_restore 14
 148              		.cfi_restore 3
 149              		.cfi_def_cfa_offset 0
 115:..\common\uart_ldr/UART_BOOT.c ****     USBUART_CDC_Init();
 150              		.loc 1 115 0
 151 000e FFF7FEBF 		b	USBUART_CDC_Init
 152              	.LVL13:
 153              		.cfi_endproc
 154              	.LFE65:
 155              		.size	UART_CyBtldrCommReset, .-UART_CyBtldrCommReset
 156              		.section	.text.UART_CyBtldrCommWrite,"ax",%progbits
 157              		.align	1
 158              		.global	UART_CyBtldrCommWrite
 159              		.thumb
 160              		.thumb_func
 161              		.type	UART_CyBtldrCommWrite, %function
 162              	UART_CyBtldrCommWrite:
 163              	.LFB66:
 117:..\common\uart_ldr/UART_BOOT.c **** 
ARM GAS  C:\Users\chemi\AppData\Local\Temp\ccCZgJ1d.s 			page 6


 118:..\common\uart_ldr/UART_BOOT.c **** 
 119:..\common\uart_ldr/UART_BOOT.c **** /*******************************************************************************
 120:..\common\uart_ldr/UART_BOOT.c **** * Function Name: UART_CyBtldrCommWrite
 121:..\common\uart_ldr/UART_BOOT.c **** ********************************************************************************
 122:..\common\uart_ldr/UART_BOOT.c **** *
 123:..\common\uart_ldr/UART_BOOT.c **** * Summary:
 124:..\common\uart_ldr/UART_BOOT.c **** *  Allows the caller to write data to the boot loader host. This function uses
 125:..\common\uart_ldr/UART_BOOT.c **** * a blocking write function for writing data using UART communication component.
 126:..\common\uart_ldr/UART_BOOT.c **** *
 127:..\common\uart_ldr/UART_BOOT.c **** * Parameters:
 128:..\common\uart_ldr/UART_BOOT.c **** *  pData:    A pointer to the block of data to send to the device
 129:..\common\uart_ldr/UART_BOOT.c **** *  size:     The number of bytes to write.
 130:..\common\uart_ldr/UART_BOOT.c **** *  count:    Pointer to an unsigned short variable to write the number of
 131:..\common\uart_ldr/UART_BOOT.c **** *             bytes actually written.
 132:..\common\uart_ldr/UART_BOOT.c **** *  timeOut:  Number of units to wait before returning because of a timeout.
 133:..\common\uart_ldr/UART_BOOT.c **** *
 134:..\common\uart_ldr/UART_BOOT.c **** * Return:
 135:..\common\uart_ldr/UART_BOOT.c **** *   cystatus: This function will return CYRET_SUCCESS if data is sent
 136:..\common\uart_ldr/UART_BOOT.c **** *             successfully.
 137:..\common\uart_ldr/UART_BOOT.c **** *
 138:..\common\uart_ldr/UART_BOOT.c **** * Side Effects:
 139:..\common\uart_ldr/UART_BOOT.c **** *  This function should be called after command was received .
 140:..\common\uart_ldr/UART_BOOT.c **** *
 141:..\common\uart_ldr/UART_BOOT.c **** *******************************************************************************/
 142:..\common\uart_ldr/UART_BOOT.c **** 
 143:..\common\uart_ldr/UART_BOOT.c **** cystatus UART_CyBtldrCommWrite(const uint8 pData[], uint16 size, uint16 * count, uint8 timeOut) CYS
 144:..\common\uart_ldr/UART_BOOT.c ****          
 145:..\common\uart_ldr/UART_BOOT.c **** {
 164              		.loc 1 145 0
 165              		.cfi_startproc
 166              		@ args = 0, pretend = 0, frame = 0
 167              		@ frame_needed = 0, uses_anonymous_args = 0
 168              	.LVL14:
 169 0000 F8B5     		push	{r3, r4, r5, r6, r7, lr}
 170              		.cfi_def_cfa_offset 24
 171              		.cfi_offset 3, -24
 172              		.cfi_offset 4, -20
 173              		.cfi_offset 5, -16
 174              		.cfi_offset 6, -12
 175              		.cfi_offset 7, -8
 176              		.cfi_offset 14, -4
 177              		.loc 1 145 0
 178 0002 0E46     		mov	r6, r1
 179 0004 0446     		mov	r4, r0
 180 0006 1746     		mov	r7, r2
 146:..\common\uart_ldr/UART_BOOT.c ****     uint16 bufIndex = 0u;
 147:..\common\uart_ldr/UART_BOOT.c **** 
 148:..\common\uart_ldr/UART_BOOT.c ****     if(0u != timeOut)
 149:..\common\uart_ldr/UART_BOOT.c ****     {
 150:..\common\uart_ldr/UART_BOOT.c ****         /* Suppress compiler warning */
 151:..\common\uart_ldr/UART_BOOT.c ****     }
 152:..\common\uart_ldr/UART_BOOT.c **** 
 153:..\common\uart_ldr/UART_BOOT.c ****     /* Clear receive buffers */
 154:..\common\uart_ldr/UART_BOOT.c ****     UART_ClearRxBuffer();
 181              		.loc 1 154 0
 182 0008 FFF7FEFF 		bl	UART_ClearRxBuffer
 183              	.LVL15:
ARM GAS  C:\Users\chemi\AppData\Local\Temp\ccCZgJ1d.s 			page 7


 184 000c 731E     		subs	r3, r6, #1
 185 000e 651E     		subs	r5, r4, #1
 186 0010 1C44     		add	r4, r4, r3
 187              	.LVL16:
 188              	.L11:
 155:..\common\uart_ldr/UART_BOOT.c **** 
 156:..\common\uart_ldr/UART_BOOT.c ****     /* Write TX data using blocking function */
 157:..\common\uart_ldr/UART_BOOT.c ****     while(bufIndex < size)
 189              		.loc 1 157 0
 190 0012 A542     		cmp	r5, r4
 191 0014 04D0     		beq	.L13
 158:..\common\uart_ldr/UART_BOOT.c ****     {
 159:..\common\uart_ldr/UART_BOOT.c ****         UART_PutChar(pData[bufIndex]);
 192              		.loc 1 159 0
 193 0016 15F8010F 		ldrb	r0, [r5, #1]!	@ zero_extendqisi2
 194              	.LVL17:
 195 001a FFF7FEFF 		bl	UART_PutChar
 196              	.LVL18:
 197 001e F8E7     		b	.L11
 198              	.L13:
 160:..\common\uart_ldr/UART_BOOT.c ****         bufIndex++;
 161:..\common\uart_ldr/UART_BOOT.c ****     }
 162:..\common\uart_ldr/UART_BOOT.c **** 
 163:..\common\uart_ldr/UART_BOOT.c ****     /* Return success code */
 164:..\common\uart_ldr/UART_BOOT.c ****     *count = size;
 199              		.loc 1 164 0
 200 0020 3E80     		strh	r6, [r7]	@ movhi
 165:..\common\uart_ldr/UART_BOOT.c **** 
 166:..\common\uart_ldr/UART_BOOT.c ****     return (CYRET_SUCCESS);
 167:..\common\uart_ldr/UART_BOOT.c **** }
 201              		.loc 1 167 0
 202 0022 0020     		movs	r0, #0
 203 0024 F8BD     		pop	{r3, r4, r5, r6, r7, pc}
 204              		.cfi_endproc
 205              	.LFE66:
 206              		.size	UART_CyBtldrCommWrite, .-UART_CyBtldrCommWrite
 207              		.section	.text.UART_CyBtldrCommRead,"ax",%progbits
 208              		.align	1
 209              		.global	UART_CyBtldrCommRead
 210              		.thumb
 211              		.thumb_func
 212              		.type	UART_CyBtldrCommRead, %function
 213              	UART_CyBtldrCommRead:
 214              	.LFB67:
 168:..\common\uart_ldr/UART_BOOT.c **** 
 169:..\common\uart_ldr/UART_BOOT.c **** 
 170:..\common\uart_ldr/UART_BOOT.c **** /*******************************************************************************
 171:..\common\uart_ldr/UART_BOOT.c **** * Function Name: UART_CyBtldrCommRead
 172:..\common\uart_ldr/UART_BOOT.c **** ********************************************************************************
 173:..\common\uart_ldr/UART_BOOT.c **** *
 174:..\common\uart_ldr/UART_BOOT.c **** * Summary:
 175:..\common\uart_ldr/UART_BOOT.c **** *  Receives the command.
 176:..\common\uart_ldr/UART_BOOT.c **** *
 177:..\common\uart_ldr/UART_BOOT.c **** * Parameters:
 178:..\common\uart_ldr/UART_BOOT.c **** *  pData:    A pointer to the area to store the block of data received
 179:..\common\uart_ldr/UART_BOOT.c **** *             from the device.
 180:..\common\uart_ldr/UART_BOOT.c **** *  size:     Maximum size of the read buffer
ARM GAS  C:\Users\chemi\AppData\Local\Temp\ccCZgJ1d.s 			page 8


 181:..\common\uart_ldr/UART_BOOT.c **** *  count:    Pointer to an unsigned short variable to write the number
 182:..\common\uart_ldr/UART_BOOT.c **** *             of bytes actually read.
 183:..\common\uart_ldr/UART_BOOT.c **** *  timeOut:  Number of units to wait before returning because of a timeOut.
 184:..\common\uart_ldr/UART_BOOT.c **** *            Time out is measured in 10s of ms.
 185:..\common\uart_ldr/UART_BOOT.c **** *
 186:..\common\uart_ldr/UART_BOOT.c **** * Return:
 187:..\common\uart_ldr/UART_BOOT.c **** *  cystatus: This function will return CYRET_SUCCESS if at least one byte is
 188:..\common\uart_ldr/UART_BOOT.c **** *            received successfully within the time out interval. If no data is
 189:..\common\uart_ldr/UART_BOOT.c **** *            received  this function will return CYRET_EMPTY.
 190:..\common\uart_ldr/UART_BOOT.c **** *
 191:..\common\uart_ldr/UART_BOOT.c **** *  BYTE2BYTE_TIME_OUT is used for detecting time out marking end of block data
 192:..\common\uart_ldr/UART_BOOT.c **** *  from host. This has to be set to a value which is greater than the expected
 193:..\common\uart_ldr/UART_BOOT.c **** *  maximum delay between two bytes during a block/packet transmission from the
 194:..\common\uart_ldr/UART_BOOT.c **** *  host. You have to account for the delay in hardware converters while
 195:..\common\uart_ldr/UART_BOOT.c **** *  calculating this value, if you are using any USB-UART bridges.
 196:..\common\uart_ldr/UART_BOOT.c **** *******************************************************************************/
 197:..\common\uart_ldr/UART_BOOT.c **** cystatus UART_CyBtldrCommRead(uint8 pData[], uint16 size, uint16 * count, uint8 timeOut) CYSMALL
 198:..\common\uart_ldr/UART_BOOT.c ****          
 199:..\common\uart_ldr/UART_BOOT.c **** {
 215              		.loc 1 199 0
 216              		.cfi_startproc
 217              		@ args = 0, pretend = 0, frame = 0
 218              		@ frame_needed = 0, uses_anonymous_args = 0
 219              	.LVL19:
 220 0000 2DE9F84F 		push	{r3, r4, r5, r6, r7, r8, r9, r10, fp, lr}
 221              		.cfi_def_cfa_offset 40
 222              		.cfi_offset 3, -40
 223              		.cfi_offset 4, -36
 224              		.cfi_offset 5, -32
 225              		.cfi_offset 6, -28
 226              		.cfi_offset 7, -24
 227              		.cfi_offset 8, -20
 228              		.cfi_offset 9, -16
 229              		.cfi_offset 10, -12
 230              		.cfi_offset 11, -8
 231              		.cfi_offset 14, -4
 232              		.loc 1 199 0
 233 0004 8046     		mov	r8, r0
 234 0006 8946     		mov	r9, r1
 235 0008 1646     		mov	r6, r2
 200:..\common\uart_ldr/UART_BOOT.c ****     uint16 iCntr;
 201:..\common\uart_ldr/UART_BOOT.c ****     uint16 dataIndexCntr;
 202:..\common\uart_ldr/UART_BOOT.c ****     uint16 tempCount;
 203:..\common\uart_ldr/UART_BOOT.c ****     uint16 oldDataCount;
 204:..\common\uart_ldr/UART_BOOT.c **** 
 205:..\common\uart_ldr/UART_BOOT.c ****     cystatus status = CYRET_EMPTY;
 206:..\common\uart_ldr/UART_BOOT.c **** 
 207:..\common\uart_ldr/UART_BOOT.c ****     /* Check whether data is received within the time out period.
 208:..\common\uart_ldr/UART_BOOT.c ****     *  Time out period is in units of 10ms.
 209:..\common\uart_ldr/UART_BOOT.c ****     *  If at least one byte is received within the time out interval, wait for more data */
 210:..\common\uart_ldr/UART_BOOT.c ****     for (iCntr = 0u; iCntr < ((uint16)10u * timeOut); iCntr++)
 236              		.loc 1 210 0
 237 000a 0A24     		movs	r4, #10
 238 000c 5C43     		muls	r4, r3, r4
 239 000e 0025     		movs	r5, #0
 240              	.LVL20:
 241              	.L15:
ARM GAS  C:\Users\chemi\AppData\Local\Temp\ccCZgJ1d.s 			page 9


 242              		.loc 1 210 0 is_stmt 0 discriminator 1
 243 0010 ABB2     		uxth	r3, r5
 244              	.LVL21:
 245 0012 A342     		cmp	r3, r4
 246 0014 13DA     		bge	.L32
 211:..\common\uart_ldr/UART_BOOT.c ****     {
 212:..\common\uart_ldr/UART_BOOT.c ****         /* If at least one byte is received within the timeout interval
 213:..\common\uart_ldr/UART_BOOT.c ****         *  enter the next loop waiting for more data reception
 214:..\common\uart_ldr/UART_BOOT.c ****         */
 215:..\common\uart_ldr/UART_BOOT.c ****         if(0u != UART_GetRxBufferSize())
 247              		.loc 1 215 0 is_stmt 1
 248 0016 FFF7FEFF 		bl	UART_GetRxBufferSize
 249              	.LVL22:
 250 001a 0135     		adds	r5, r5, #1
 251              	.LVL23:
 252 001c 58B1     		cbz	r0, .L16
 253              	.L29:
 216:..\common\uart_ldr/UART_BOOT.c ****         {
 217:..\common\uart_ldr/UART_BOOT.c ****             /* Wait for more data until 25ms byte to byte time out interval.
 218:..\common\uart_ldr/UART_BOOT.c ****             * If no data is received during the last 25 ms(BYTE2BYTE_TIME_OUT)
 219:..\common\uart_ldr/UART_BOOT.c ****             * then it is considered as end of transmitted data block(packet)
 220:..\common\uart_ldr/UART_BOOT.c ****             * from the host and the program execution will break from the
 221:..\common\uart_ldr/UART_BOOT.c ****             * data awaiting loop with status=CYRET_SUCCESS
 222:..\common\uart_ldr/UART_BOOT.c ****             */
 223:..\common\uart_ldr/UART_BOOT.c ****             do
 224:..\common\uart_ldr/UART_BOOT.c ****             {
 225:..\common\uart_ldr/UART_BOOT.c ****                 oldDataCount = UART_GetRxBufferSize();
 254              		.loc 1 225 0 discriminator 1
 255 001e FFF7FEFF 		bl	UART_GetRxBufferSize
 256              	.LVL24:
 257 0022 0446     		mov	r4, r0
 258              	.LVL25:
 226:..\common\uart_ldr/UART_BOOT.c ****                 CyDelayUs(UART_BYTE2BYTE_TIME_OUT);
 259              		.loc 1 226 0 discriminator 1
 260 0024 6420     		movs	r0, #100
 261 0026 FFF7FEFF 		bl	CyDelayUs
 262              	.LVL26:
 227:..\common\uart_ldr/UART_BOOT.c ****                 //CyDelay(UART_BYTE2BYTE_TIME_OUT);
 228:..\common\uart_ldr/UART_BOOT.c ****             }
 229:..\common\uart_ldr/UART_BOOT.c ****             while(UART_GetRxBufferSize() > oldDataCount);
 263              		.loc 1 229 0 discriminator 1
 264 002a FFF7FEFF 		bl	UART_GetRxBufferSize
 265              	.LVL27:
 266 002e 8442     		cmp	r4, r0
 267 0030 F5D3     		bcc	.L29
 230:..\common\uart_ldr/UART_BOOT.c **** 
 231:..\common\uart_ldr/UART_BOOT.c ****             status = CYRET_SUCCESS;
 268              		.loc 1 231 0
 269 0032 0027     		movs	r7, #0
 270 0034 04E0     		b	.L18
 271              	.LVL28:
 272              	.L16:
 232:..\common\uart_ldr/UART_BOOT.c ****             break;
 233:..\common\uart_ldr/UART_BOOT.c ****         }
 234:..\common\uart_ldr/UART_BOOT.c ****         /* If the data is not received, give a delay of 
 235:..\common\uart_ldr/UART_BOOT.c ****         *  UART_BL_CHK_DELAY_MS and check again until the timeOut specified.
 236:..\common\uart_ldr/UART_BOOT.c ****         */
ARM GAS  C:\Users\chemi\AppData\Local\Temp\ccCZgJ1d.s 			page 10


 237:..\common\uart_ldr/UART_BOOT.c ****         else
 238:..\common\uart_ldr/UART_BOOT.c ****         {
 239:..\common\uart_ldr/UART_BOOT.c ****             CyDelay(UART_BL_CHK_DELAY_MS);
 273              		.loc 1 239 0 discriminator 2
 274 0036 0120     		movs	r0, #1
 275 0038 FFF7FEFF 		bl	CyDelay
 276              	.LVL29:
 277 003c E8E7     		b	.L15
 278              	.LVL30:
 279              	.L32:
 205:..\common\uart_ldr/UART_BOOT.c **** 
 280              		.loc 1 205 0
 281 003e 0527     		movs	r7, #5
 282              	.LVL31:
 283              	.L18:
 240:..\common\uart_ldr/UART_BOOT.c ****         }
 241:..\common\uart_ldr/UART_BOOT.c ****     }
 242:..\common\uart_ldr/UART_BOOT.c **** 
 243:..\common\uart_ldr/UART_BOOT.c ****     /* Initialize the data read indexes and Count value */
 244:..\common\uart_ldr/UART_BOOT.c ****     *count = 0u;
 284              		.loc 1 244 0
 285 0040 0024     		movs	r4, #0
 286 0042 3480     		strh	r4, [r6]	@ movhi
 287              	.LVL32:
 288              	.L20:
 245:..\common\uart_ldr/UART_BOOT.c ****     dataIndexCntr = 0u;
 246:..\common\uart_ldr/UART_BOOT.c **** 
 247:..\common\uart_ldr/UART_BOOT.c ****     /* If GetRxBufferSize()>0 , move the received data to the pData buffer */
 248:..\common\uart_ldr/UART_BOOT.c ****     while(UART_GetRxBufferSize() > 0u)
 289              		.loc 1 248 0
 290 0044 FFF7FEFF 		bl	UART_GetRxBufferSize
 291              	.LVL33:
 292 0048 30B3     		cbz	r0, .L25
 249:..\common\uart_ldr/UART_BOOT.c ****     {
 250:..\common\uart_ldr/UART_BOOT.c ****         tempCount = UART_GetRxBufferSize();
 293              		.loc 1 250 0
 294 004a FFF7FEFF 		bl	UART_GetRxBufferSize
 295              	.LVL34:
 251:..\common\uart_ldr/UART_BOOT.c ****         *count  =(*count) + tempCount;
 296              		.loc 1 251 0
 297 004e 3288     		ldrh	r2, [r6]
 250:..\common\uart_ldr/UART_BOOT.c ****         *count  =(*count) + tempCount;
 298              		.loc 1 250 0
 299 0050 85B2     		uxth	r5, r0
 300              	.LVL35:
 301              		.loc 1 251 0
 302 0052 AB18     		adds	r3, r5, r2
 303 0054 9BB2     		uxth	r3, r3
 252:..\common\uart_ldr/UART_BOOT.c **** 
 253:..\common\uart_ldr/UART_BOOT.c ****         /* Check if buffer overflow will occur before moving the data */
 254:..\common\uart_ldr/UART_BOOT.c ****         if(*count < size)
 304              		.loc 1 254 0
 305 0056 4B45     		cmp	r3, r9
 251:..\common\uart_ldr/UART_BOOT.c **** 
 306              		.loc 1 251 0
 307 0058 3380     		strh	r3, [r6]	@ movhi
 308              		.loc 1 254 0
ARM GAS  C:\Users\chemi\AppData\Local\Temp\ccCZgJ1d.s 			page 11


 309 005a 1CD2     		bcs	.L21
 310 005c 4FF0000B 		mov	fp, #0
 311              	.LVL36:
 312              	.L22:
 313 0060 1FFA8BF3 		uxth	r3, fp
 314 0064 04EB030A 		add	r10, r4, r3
 255:..\common\uart_ldr/UART_BOOT.c ****         {
 256:..\common\uart_ldr/UART_BOOT.c ****             for (iCntr = 0u; iCntr < tempCount; iCntr++)
 315              		.loc 1 256 0 discriminator 1
 316 0068 9D42     		cmp	r5, r3
 317 006a 1FFA8AFA 		uxth	r10, r10
 318              	.LVL37:
 319 006e 06D9     		bls	.L33
 257:..\common\uart_ldr/UART_BOOT.c ****             {
 258:..\common\uart_ldr/UART_BOOT.c ****                 /* Read the data and move it to the pData buffer */
 259:..\common\uart_ldr/UART_BOOT.c ****                 pData[dataIndexCntr] = UART_ReadRxData();
 320              		.loc 1 259 0 discriminator 3
 321 0070 FFF7FEFF 		bl	UART_ReadRxData
 322              	.LVL38:
 323 0074 0BF1010B 		add	fp, fp, #1
 324              	.LVL39:
 325 0078 08F80A00 		strb	r0, [r8, r10]
 326              	.LVL40:
 327 007c F0E7     		b	.L22
 328              	.LVL41:
 329              	.L33:
 330 007e 2C44     		add	r4, r4, r5
 331 0080 A4B2     		uxth	r4, r4
 260:..\common\uart_ldr/UART_BOOT.c ****                 dataIndexCntr++;
 261:..\common\uart_ldr/UART_BOOT.c ****             }
 262:..\common\uart_ldr/UART_BOOT.c **** 
 263:..\common\uart_ldr/UART_BOOT.c ****             /* Check if the last received byte is end of packet defined by bootloader
 264:..\common\uart_ldr/UART_BOOT.c ****             *  If not wait for additional UART_WAIT_EOP_DELAY ms.
 265:..\common\uart_ldr/UART_BOOT.c ****             */
 266:..\common\uart_ldr/UART_BOOT.c ****             if(pData[dataIndexCntr - 1u] != UART_PACKET_EOP)
 332              		.loc 1 266 0
 333 0082 08EB0403 		add	r3, r8, r4
 334 0086 13F8013C 		ldrb	r3, [r3, #-1]	@ zero_extendqisi2
 335 008a 172B     		cmp	r3, #23
 336 008c DAD0     		beq	.L20
 267:..\common\uart_ldr/UART_BOOT.c ****             {
 268:..\common\uart_ldr/UART_BOOT.c ****                 CyDelay(UART_WAIT_EOP_DELAY);
 337              		.loc 1 268 0
 338 008e 0120     		movs	r0, #1
 339 0090 FFF7FEFF 		bl	CyDelay
 340              	.LVL42:
 341 0094 D6E7     		b	.L20
 342              	.LVL43:
 343              	.L21:
 269:..\common\uart_ldr/UART_BOOT.c ****             }
 270:..\common\uart_ldr/UART_BOOT.c ****         }
 271:..\common\uart_ldr/UART_BOOT.c ****         /* If there is no space to move data, break from the loop */
 272:..\common\uart_ldr/UART_BOOT.c ****         else
 273:..\common\uart_ldr/UART_BOOT.c ****         {
 274:..\common\uart_ldr/UART_BOOT.c ****             *count = (*count) - tempCount;
 344              		.loc 1 274 0
 345 0096 3280     		strh	r2, [r6]	@ movhi
ARM GAS  C:\Users\chemi\AppData\Local\Temp\ccCZgJ1d.s 			page 12


 346              	.LVL44:
 347              	.L25:
 275:..\common\uart_ldr/UART_BOOT.c ****             break;
 276:..\common\uart_ldr/UART_BOOT.c ****         }
 277:..\common\uart_ldr/UART_BOOT.c ****     }
 278:..\common\uart_ldr/UART_BOOT.c **** 
 279:..\common\uart_ldr/UART_BOOT.c ****     return (status);
 280:..\common\uart_ldr/UART_BOOT.c **** }
 348              		.loc 1 280 0
 349 0098 3846     		mov	r0, r7
 350 009a BDE8F88F 		pop	{r3, r4, r5, r6, r7, r8, r9, r10, fp, pc}
 351              		.cfi_endproc
 352              	.LFE67:
 353              		.size	UART_CyBtldrCommRead, .-UART_CyBtldrCommRead
 354              		.section	.text.USB_CyBtldrCommWrite,"ax",%progbits
 355              		.align	1
 356              		.global	USB_CyBtldrCommWrite
 357              		.thumb
 358              		.thumb_func
 359              		.type	USB_CyBtldrCommWrite, %function
 360              	USB_CyBtldrCommWrite:
 361              	.LFB68:
 281:..\common\uart_ldr/UART_BOOT.c **** 
 282:..\common\uart_ldr/UART_BOOT.c **** /***************************************
 283:..\common\uart_ldr/UART_BOOT.c **** *    Bootloader Variables
 284:..\common\uart_ldr/UART_BOOT.c **** ***************************************/
 285:..\common\uart_ldr/UART_BOOT.c **** #define USBUART_BTLDR_OUT_EP_1 0x03
 286:..\common\uart_ldr/UART_BOOT.c **** #define USBUART_BTLDR_IN_EP_1  0x02
 287:..\common\uart_ldr/UART_BOOT.c **** 
 288:..\common\uart_ldr/UART_BOOT.c **** 
 289:..\common\uart_ldr/UART_BOOT.c **** 
 290:..\common\uart_ldr/UART_BOOT.c **** 
 291:..\common\uart_ldr/UART_BOOT.c **** 
 292:..\common\uart_ldr/UART_BOOT.c **** /*******************************************************************************
 293:..\common\uart_ldr/UART_BOOT.c **** * Function Name: CyBtldrCommWrite.
 294:..\common\uart_ldr/UART_BOOT.c **** ********************************************************************************
 295:..\common\uart_ldr/UART_BOOT.c **** *
 296:..\common\uart_ldr/UART_BOOT.c **** * Summary:
 297:..\common\uart_ldr/UART_BOOT.c **** *  Allows the caller to write data to the boot loader host. The function will
 298:..\common\uart_ldr/UART_BOOT.c **** *  handle polling to allow a block of data to be completely sent to the host
 299:..\common\uart_ldr/UART_BOOT.c **** *  device.
 300:..\common\uart_ldr/UART_BOOT.c **** *
 301:..\common\uart_ldr/UART_BOOT.c **** * Parameters:
 302:..\common\uart_ldr/UART_BOOT.c **** *  pData:    A pointer to the block of data to send to the device
 303:..\common\uart_ldr/UART_BOOT.c **** *  size:     The number of bytes to write.
 304:..\common\uart_ldr/UART_BOOT.c **** *  count:    Pointer to an unsigned short variable to write the number of
 305:..\common\uart_ldr/UART_BOOT.c **** *             bytes actually written.
 306:..\common\uart_ldr/UART_BOOT.c **** *  timeOut:  Number of units to wait before returning because of a timeout.
 307:..\common\uart_ldr/UART_BOOT.c **** *
 308:..\common\uart_ldr/UART_BOOT.c **** * Return:
 309:..\common\uart_ldr/UART_BOOT.c **** *  Returns the value that best describes the problem.
 310:..\common\uart_ldr/UART_BOOT.c **** *
 311:..\common\uart_ldr/UART_BOOT.c **** * Reentrant:
 312:..\common\uart_ldr/UART_BOOT.c **** *  No
 313:..\common\uart_ldr/UART_BOOT.c **** *
 314:..\common\uart_ldr/UART_BOOT.c **** *******************************************************************************/
 315:..\common\uart_ldr/UART_BOOT.c **** 
ARM GAS  C:\Users\chemi\AppData\Local\Temp\ccCZgJ1d.s 			page 13


 316:..\common\uart_ldr/UART_BOOT.c **** #define USBUART_BTLDR_SIZEOF_WRITE_BUFFER  (64u)   /* Endpoint 1 (OUT) buffer size. */
 317:..\common\uart_ldr/UART_BOOT.c **** #define USBUART_BTLDR_SIZEOF_READ_BUFFER   (64u)   /* Endpoint 2 (IN)  buffer size. */
 318:..\common\uart_ldr/UART_BOOT.c **** 
 319:..\common\uart_ldr/UART_BOOT.c **** cystatus USB_CyBtldrCommWrite(const uint8 pData[], uint16 size, uint16 * count, uint8 timeOut) CYSM
 320:..\common\uart_ldr/UART_BOOT.c **** {
 362              		.loc 1 320 0
 363              		.cfi_startproc
 364              		@ args = 0, pretend = 0, frame = 0
 365              		@ frame_needed = 0, uses_anonymous_args = 0
 366              	.LVL45:
 367 0000 2DE9F843 		push	{r3, r4, r5, r6, r7, r8, r9, lr}
 368              		.cfi_def_cfa_offset 32
 369              		.cfi_offset 3, -32
 370              		.cfi_offset 4, -28
 371              		.cfi_offset 5, -24
 372              		.cfi_offset 6, -20
 373              		.cfi_offset 7, -16
 374              		.cfi_offset 8, -12
 375              		.cfi_offset 9, -8
 376              		.cfi_offset 14, -4
 321:..\common\uart_ldr/UART_BOOT.c ****     cystatus retCode;
 322:..\common\uart_ldr/UART_BOOT.c ****     uint16 timeoutMs;
 323:..\common\uart_ldr/UART_BOOT.c **** 	uint16 bufIndex = 0;
 324:..\common\uart_ldr/UART_BOOT.c **** 	uint8 transfer_Size;
 325:..\common\uart_ldr/UART_BOOT.c **** 	*count = 0;
 377              		.loc 1 325 0
 378 0004 0024     		movs	r4, #0
 320:..\common\uart_ldr/UART_BOOT.c ****     cystatus retCode;
 379              		.loc 1 320 0
 380 0006 8046     		mov	r8, r0
 381 0008 0F46     		mov	r7, r1
 382 000a 1646     		mov	r6, r2
 323:..\common\uart_ldr/UART_BOOT.c **** 	uint8 transfer_Size;
 383              		.loc 1 323 0
 384 000c A146     		mov	r9, r4
 326:..\common\uart_ldr/UART_BOOT.c ****     timeoutMs = ((uint16) 10u * timeOut);  /* Convert from 10mS check to number 1mS checks */
 385              		.loc 1 326 0
 386 000e 03EB8303 		add	r3, r3, r3, lsl #2
 387              	.LVL46:
 325:..\common\uart_ldr/UART_BOOT.c ****     timeoutMs = ((uint16) 10u * timeOut);  /* Convert from 10mS check to number 1mS checks */
 388              		.loc 1 325 0
 389 0012 1480     		strh	r4, [r2]	@ movhi
 390              		.loc 1 326 0
 391 0014 5D00     		lsls	r5, r3, #1
 392              	.LVL47:
 393              	.L35:
 327:..\common\uart_ldr/UART_BOOT.c ****     while(bufIndex < size)
 394              		.loc 1 327 0
 395 0016 B945     		cmp	r9, r7
 396 0018 22D2     		bcs	.L44
 328:..\common\uart_ldr/UART_BOOT.c **** 	{
 329:..\common\uart_ldr/UART_BOOT.c **** 		if ((size -bufIndex) >  USBUART_BTLDR_SIZEOF_READ_BUFFER)
 397              		.loc 1 329 0
 398 001a C9EB0702 		rsb	r2, r9, r7
 399 001e 402A     		cmp	r2, #64
 330:..\common\uart_ldr/UART_BOOT.c **** 		{
 331:..\common\uart_ldr/UART_BOOT.c **** 			transfer_Size = USBUART_BTLDR_SIZEOF_READ_BUFFER;
ARM GAS  C:\Users\chemi\AppData\Local\Temp\ccCZgJ1d.s 			page 14


 332:..\common\uart_ldr/UART_BOOT.c **** 		}
 333:..\common\uart_ldr/UART_BOOT.c **** 		else 
 334:..\common\uart_ldr/UART_BOOT.c **** 		{
 335:..\common\uart_ldr/UART_BOOT.c **** 			transfer_Size = (size -bufIndex);
 400              		.loc 1 335 0
 401 0020 94BF     		ite	ls
 402 0022 D2B2     		uxtbls	r2, r2
 403              	.LVL48:
 331:..\common\uart_ldr/UART_BOOT.c **** 		}
 404              		.loc 1 331 0
 405 0024 4022     		movhi	r2, #64
 406              	.LVL49:
 336:..\common\uart_ldr/UART_BOOT.c **** 		}
 337:..\common\uart_ldr/UART_BOOT.c **** 		/* Enable IN transfer */
 338:..\common\uart_ldr/UART_BOOT.c ****     	USBUART_LoadInEP(USBUART_BTLDR_IN_EP_1, &pData[bufIndex], transfer_Size);
 407              		.loc 1 338 0
 408 0026 94B2     		uxth	r4, r2
 409 0028 2246     		mov	r2, r4
 410              	.LVL50:
 411 002a 08EB0901 		add	r1, r8, r9
 412 002e 0220     		movs	r0, #2
 413 0030 FFF7FEFF 		bl	USBUART_LoadInEP
 414              	.LVL51:
 415              	.L37:
 339:..\common\uart_ldr/UART_BOOT.c **** 		/* Wait for the master to read it. */
 340:..\common\uart_ldr/UART_BOOT.c ****    		while ((USBUART_GetEPState(USBUART_BTLDR_IN_EP_1) == USBUART_IN_BUFFER_FULL) &&
 416              		.loc 1 340 0
 417 0034 0220     		movs	r0, #2
 418 0036 FFF7FEFF 		bl	USBUART_GetEPState
 419              	.LVL52:
 420 003a 30B9     		cbnz	r0, .L38
 421              		.loc 1 340 0 is_stmt 0 discriminator 1
 422 003c 2DB1     		cbz	r5, .L38
 341:..\common\uart_ldr/UART_BOOT.c ****            (0u != timeoutMs))
 342:..\common\uart_ldr/UART_BOOT.c ****     	{
 343:..\common\uart_ldr/UART_BOOT.c ****         	CyDelay(1);
 423              		.loc 1 343 0 is_stmt 1
 424 003e 0120     		movs	r0, #1
 344:..\common\uart_ldr/UART_BOOT.c ****         	timeoutMs--;
 425              		.loc 1 344 0
 426 0040 013D     		subs	r5, r5, #1
 427              	.LVL53:
 343:..\common\uart_ldr/UART_BOOT.c ****         	timeoutMs--;
 428              		.loc 1 343 0
 429 0042 FFF7FEFF 		bl	CyDelay
 430              	.LVL54:
 431              		.loc 1 344 0
 432 0046 ADB2     		uxth	r5, r5
 433              	.LVL55:
 434 0048 F4E7     		b	.L37
 435              	.L38:
 345:..\common\uart_ldr/UART_BOOT.c ****     	}
 346:..\common\uart_ldr/UART_BOOT.c **** 		if (USBUART_GetEPState(USBUART_BTLDR_IN_EP_1) == USBUART_IN_BUFFER_FULL)
 436              		.loc 1 346 0
 437 004a 0220     		movs	r0, #2
 438 004c FFF7FEFF 		bl	USBUART_GetEPState
 439              	.LVL56:
ARM GAS  C:\Users\chemi\AppData\Local\Temp\ccCZgJ1d.s 			page 15


 440 0050 48B1     		cbz	r0, .L43
 347:..\common\uart_ldr/UART_BOOT.c ****     	{
 348:..\common\uart_ldr/UART_BOOT.c ****         	retCode = CYRET_TIMEOUT;
 349:..\common\uart_ldr/UART_BOOT.c **** 			break; 
 350:..\common\uart_ldr/UART_BOOT.c ****     	}
 351:..\common\uart_ldr/UART_BOOT.c **** 	    else
 352:..\common\uart_ldr/UART_BOOT.c **** 	    {
 353:..\common\uart_ldr/UART_BOOT.c **** 	        *count += transfer_Size;
 441              		.loc 1 353 0
 442 0052 3388     		ldrh	r3, [r6]
 443 0054 2344     		add	r3, r3, r4
 354:..\common\uart_ldr/UART_BOOT.c **** 	        retCode = CYRET_SUCCESS;
 355:..\common\uart_ldr/UART_BOOT.c **** 			bufIndex  += transfer_Size;
 444              		.loc 1 355 0
 445 0056 4C44     		add	r4, r4, r9
 353:..\common\uart_ldr/UART_BOOT.c **** 	        retCode = CYRET_SUCCESS;
 446              		.loc 1 353 0
 447 0058 3380     		strh	r3, [r6]	@ movhi
 448              		.loc 1 355 0
 449 005a 1FFA84F9 		uxth	r9, r4
 450              	.LVL57:
 451 005e DAE7     		b	.L35
 452              	.L44:
 453 0060 0020     		movs	r0, #0
 454 0062 BDE8F883 		pop	{r3, r4, r5, r6, r7, r8, r9, pc}
 455              	.LVL58:
 456              	.L43:
 348:..\common\uart_ldr/UART_BOOT.c **** 			break; 
 457              		.loc 1 348 0
 458 0066 1020     		movs	r0, #16
 459              	.LVL59:
 356:..\common\uart_ldr/UART_BOOT.c **** 	    }
 357:..\common\uart_ldr/UART_BOOT.c **** 	}
 358:..\common\uart_ldr/UART_BOOT.c **** 		
 359:..\common\uart_ldr/UART_BOOT.c ****     return(retCode);
 360:..\common\uart_ldr/UART_BOOT.c **** }
 460              		.loc 1 360 0
 461 0068 BDE8F883 		pop	{r3, r4, r5, r6, r7, r8, r9, pc}
 462              		.cfi_endproc
 463              	.LFE68:
 464              		.size	USB_CyBtldrCommWrite, .-USB_CyBtldrCommWrite
 465              		.section	.text.USB_CyBtldrCommRead,"ax",%progbits
 466              		.align	1
 467              		.global	USB_CyBtldrCommRead
 468              		.thumb
 469              		.thumb_func
 470              		.type	USB_CyBtldrCommRead, %function
 471              	USB_CyBtldrCommRead:
 472              	.LFB69:
 361:..\common\uart_ldr/UART_BOOT.c **** 
 362:..\common\uart_ldr/UART_BOOT.c **** /*******************************************************************************
 363:..\common\uart_ldr/UART_BOOT.c **** * Function Name: CyBtldrCommRead.
 364:..\common\uart_ldr/UART_BOOT.c **** ********************************************************************************
 365:..\common\uart_ldr/UART_BOOT.c **** *
 366:..\common\uart_ldr/UART_BOOT.c **** * Summary:
 367:..\common\uart_ldr/UART_BOOT.c **** *  Allows the caller to read data from the boot loader host. The function will
 368:..\common\uart_ldr/UART_BOOT.c **** *  handle polling to allow a block of data to be completely received from the
ARM GAS  C:\Users\chemi\AppData\Local\Temp\ccCZgJ1d.s 			page 16


 369:..\common\uart_ldr/UART_BOOT.c **** *  host device.
 370:..\common\uart_ldr/UART_BOOT.c **** *
 371:..\common\uart_ldr/UART_BOOT.c **** * Parameters:
 372:..\common\uart_ldr/UART_BOOT.c **** *  pData:    A pointer to the area to store the block of data received
 373:..\common\uart_ldr/UART_BOOT.c **** *             from the device.
 374:..\common\uart_ldr/UART_BOOT.c **** *  size:     The number of bytes to read.
 375:..\common\uart_ldr/UART_BOOT.c **** *  count:    Pointer to an unsigned short variable to write the number
 376:..\common\uart_ldr/UART_BOOT.c **** *             of bytes actually read.
 377:..\common\uart_ldr/UART_BOOT.c **** *  timeOut:  Number of units to wait before returning because of a timeOut.
 378:..\common\uart_ldr/UART_BOOT.c **** *            Timeout is measured in 10s of ms.
 379:..\common\uart_ldr/UART_BOOT.c **** *
 380:..\common\uart_ldr/UART_BOOT.c **** * Return:
 381:..\common\uart_ldr/UART_BOOT.c **** *  Returns the value that best describes the problem.
 382:..\common\uart_ldr/UART_BOOT.c **** *
 383:..\common\uart_ldr/UART_BOOT.c **** * Reentrant:
 384:..\common\uart_ldr/UART_BOOT.c **** *  No
 385:..\common\uart_ldr/UART_BOOT.c **** *
 386:..\common\uart_ldr/UART_BOOT.c **** *******************************************************************************/
 387:..\common\uart_ldr/UART_BOOT.c **** cystatus USB_CyBtldrCommRead(uint8 pData[], uint16 size, uint16 * count, uint8 timeOut) CYSMALL    
 388:..\common\uart_ldr/UART_BOOT.c **** {
 473              		.loc 1 388 0
 474              		.cfi_startproc
 475              		@ args = 0, pretend = 0, frame = 0
 476              		@ frame_needed = 0, uses_anonymous_args = 0
 477              	.LVL60:
 478 0000 2DE9F843 		push	{r3, r4, r5, r6, r7, r8, r9, lr}
 479              		.cfi_def_cfa_offset 32
 480              		.cfi_offset 3, -32
 481              		.cfi_offset 4, -28
 482              		.cfi_offset 5, -24
 483              		.cfi_offset 6, -20
 484              		.cfi_offset 7, -16
 485              		.cfi_offset 8, -12
 486              		.cfi_offset 9, -8
 487              		.cfi_offset 14, -4
 389:..\common\uart_ldr/UART_BOOT.c ****     cystatus retCode;
 390:..\common\uart_ldr/UART_BOOT.c ****     uint16 timeoutMs;
 391:..\common\uart_ldr/UART_BOOT.c **** 
 392:..\common\uart_ldr/UART_BOOT.c ****     timeoutMs = ((uint16) 10u * timeOut);  /* Convert from 10mS check to number 1mS checks */
 488              		.loc 1 392 0
 489 0004 03EB8303 		add	r3, r3, r3, lsl #2
 490              	.LVL61:
 491 0008 5C00     		lsls	r4, r3, #1
 492              	.LVL62:
 393:..\common\uart_ldr/UART_BOOT.c ****     
 394:..\common\uart_ldr/UART_BOOT.c ****     if (size > USBUART_BTLDR_SIZEOF_WRITE_BUFFER)
 395:..\common\uart_ldr/UART_BOOT.c ****     {
 396:..\common\uart_ldr/UART_BOOT.c ****         size = USBUART_BTLDR_SIZEOF_WRITE_BUFFER;
 397:..\common\uart_ldr/UART_BOOT.c ****     }
 398:..\common\uart_ldr/UART_BOOT.c **** 
 399:..\common\uart_ldr/UART_BOOT.c ****     /* Wait on enumeration in first time */
 400:..\common\uart_ldr/UART_BOOT.c ****     if (0u != USBUART_started)
 493              		.loc 1 400 0
 494 000a 234B     		ldr	r3, .L68
 388:..\common\uart_ldr/UART_BOOT.c ****     cystatus retCode;
 495              		.loc 1 388 0
 496 000c 1746     		mov	r7, r2
ARM GAS  C:\Users\chemi\AppData\Local\Temp\ccCZgJ1d.s 			page 17


 497              		.loc 1 400 0
 498 000e 1A78     		ldrb	r2, [r3]	@ zero_extendqisi2
 499              	.LVL63:
 388:..\common\uart_ldr/UART_BOOT.c ****     cystatus retCode;
 500              		.loc 1 388 0
 501 0010 8046     		mov	r8, r0
 502 0012 8946     		mov	r9, r1
 503              	.LVL64:
 504 0014 1E46     		mov	r6, r3
 505              		.loc 1 400 0
 506 0016 A2B1     		cbz	r2, .L46
 507 0018 2546     		mov	r5, r4
 508              	.LVL65:
 509              	.L47:
 401:..\common\uart_ldr/UART_BOOT.c ****     {
 402:..\common\uart_ldr/UART_BOOT.c ****         /* Wait for Device to enumerate */
 403:..\common\uart_ldr/UART_BOOT.c ****         while ((0u ==USBUART_GetConfiguration()) && (0u != timeoutMs))
 510              		.loc 1 403 0
 511 001a FFF7FEFF 		bl	USBUART_GetConfiguration
 512              	.LVL66:
 513 001e 30B9     		cbnz	r0, .L48
 514              		.loc 1 403 0 is_stmt 0 discriminator 1
 515 0020 2DB1     		cbz	r5, .L48
 404:..\common\uart_ldr/UART_BOOT.c ****         {
 405:..\common\uart_ldr/UART_BOOT.c ****             CyDelay(1);
 516              		.loc 1 405 0 is_stmt 1
 517 0022 0120     		movs	r0, #1
 406:..\common\uart_ldr/UART_BOOT.c ****             timeoutMs--;
 518              		.loc 1 406 0
 519 0024 013D     		subs	r5, r5, #1
 520              	.LVL67:
 405:..\common\uart_ldr/UART_BOOT.c ****             timeoutMs--;
 521              		.loc 1 405 0
 522 0026 FFF7FEFF 		bl	CyDelay
 523              	.LVL68:
 524              		.loc 1 406 0
 525 002a ADB2     		uxth	r5, r5
 526              	.LVL69:
 527 002c F5E7     		b	.L47
 528              	.L48:
 407:..\common\uart_ldr/UART_BOOT.c ****         }
 408:..\common\uart_ldr/UART_BOOT.c ****         
 409:..\common\uart_ldr/UART_BOOT.c ****         /* Enable first OUT, if enumeration complete */
 410:..\common\uart_ldr/UART_BOOT.c ****         if (0u != USBUART_GetConfiguration())
 529              		.loc 1 410 0
 530 002e FFF7FEFF 		bl	USBUART_GetConfiguration
 531              	.LVL70:
 532 0032 A8B1     		cbz	r0, .L52
 411:..\common\uart_ldr/UART_BOOT.c ****         {
 412:..\common\uart_ldr/UART_BOOT.c ****             (void) USBUART_IsConfigurationChanged();  /* Clear configuration changes state status *
 533              		.loc 1 412 0
 534 0034 FFF7FEFF 		bl	USBUART_IsConfigurationChanged
 535              	.LVL71:
 413:..\common\uart_ldr/UART_BOOT.c ****             CyBtldrCommReset();
 536              		.loc 1 413 0
 537 0038 FFF7FEFF 		bl	UART_CyBtldrCommReset
 538              	.LVL72:
ARM GAS  C:\Users\chemi\AppData\Local\Temp\ccCZgJ1d.s 			page 18


 414:..\common\uart_ldr/UART_BOOT.c ****             USBUART_started = 0u;
 539              		.loc 1 414 0
 540 003c 0023     		movs	r3, #0
 541 003e 3370     		strb	r3, [r6]
 542 0040 0EE0     		b	.L52
 543              	.LVL73:
 544              	.L46:
 415:..\common\uart_ldr/UART_BOOT.c ****         }
 416:..\common\uart_ldr/UART_BOOT.c ****     }
 417:..\common\uart_ldr/UART_BOOT.c ****     else /* Check for configuration changes, has been done by Host */
 418:..\common\uart_ldr/UART_BOOT.c ****     {
 419:..\common\uart_ldr/UART_BOOT.c ****         if (0u != USBUART_IsConfigurationChanged()) /* Host could send double SET_INTERFACE request
 545              		.loc 1 419 0
 546 0042 FFF7FEFF 		bl	USBUART_IsConfigurationChanged
 547              	.LVL74:
 548 0046 58B1     		cbz	r0, .L52
 420:..\common\uart_ldr/UART_BOOT.c ****         {
 421:..\common\uart_ldr/UART_BOOT.c ****             if (0u != USBUART_GetConfiguration())   /* Init OUT endpoints when device reconfigured 
 549              		.loc 1 421 0
 550 0048 FFF7FEFF 		bl	USBUART_GetConfiguration
 551              	.LVL75:
 552 004c 40B1     		cbz	r0, .L52
 422:..\common\uart_ldr/UART_BOOT.c ****             {
 423:..\common\uart_ldr/UART_BOOT.c ****                 CyBtldrCommReset();
 553              		.loc 1 423 0
 554 004e FFF7FEFF 		bl	UART_CyBtldrCommReset
 555              	.LVL76:
 556 0052 05E0     		b	.L52
 557              	.L67:
 424:..\common\uart_ldr/UART_BOOT.c ****             }
 425:..\common\uart_ldr/UART_BOOT.c ****         }
 426:..\common\uart_ldr/UART_BOOT.c ****     }
 427:..\common\uart_ldr/UART_BOOT.c ****     
 428:..\common\uart_ldr/UART_BOOT.c ****     timeoutMs = ((uint16) 10u * timeOut); /* Re-arm timeout */
 429:..\common\uart_ldr/UART_BOOT.c ****     
 430:..\common\uart_ldr/UART_BOOT.c ****     /* Wait on next packet */
 431:..\common\uart_ldr/UART_BOOT.c ****     while((USBUART_GetEPState(USBUART_BTLDR_OUT_EP_1) != USBUART_OUT_BUFFER_FULL) && \
 558              		.loc 1 431 0 discriminator 1
 559 0054 4CB1     		cbz	r4, .L54
 432:..\common\uart_ldr/UART_BOOT.c ****           (0u != timeoutMs))
 433:..\common\uart_ldr/UART_BOOT.c ****     {
 434:..\common\uart_ldr/UART_BOOT.c ****         CyDelay(1);
 560              		.loc 1 434 0
 561 0056 0120     		movs	r0, #1
 562 0058 FFF7FEFF 		bl	CyDelay
 563              	.LVL77:
 435:..\common\uart_ldr/UART_BOOT.c ****         timeoutMs--;
 564              		.loc 1 435 0
 565 005c 013C     		subs	r4, r4, #1
 566              	.LVL78:
 567 005e A4B2     		uxth	r4, r4
 568              	.LVL79:
 569              	.L52:
 431:..\common\uart_ldr/UART_BOOT.c ****           (0u != timeoutMs))
 570              		.loc 1 431 0
 571 0060 0320     		movs	r0, #3
 572 0062 FFF7FEFF 		bl	USBUART_GetEPState
ARM GAS  C:\Users\chemi\AppData\Local\Temp\ccCZgJ1d.s 			page 19


 573              	.LVL80:
 574 0066 0128     		cmp	r0, #1
 575 0068 F4D1     		bne	.L67
 576              	.L54:
 436:..\common\uart_ldr/UART_BOOT.c ****     }
 437:..\common\uart_ldr/UART_BOOT.c **** 
 438:..\common\uart_ldr/UART_BOOT.c ****     /* OUT EP has completed */
 439:..\common\uart_ldr/UART_BOOT.c ****     if (USBUART_GetEPState(USBUART_BTLDR_OUT_EP_1) == USBUART_OUT_BUFFER_FULL)
 577              		.loc 1 439 0
 578 006a 0320     		movs	r0, #3
 579 006c FFF7FEFF 		bl	USBUART_GetEPState
 580              	.LVL81:
 581 0070 0128     		cmp	r0, #1
 582 0072 0BD1     		bne	.L56
 440:..\common\uart_ldr/UART_BOOT.c ****     {
 441:..\common\uart_ldr/UART_BOOT.c ****         *count = USBUART_ReadOutEP(USBUART_BTLDR_OUT_EP_1, pData, size);
 583              		.loc 1 441 0
 584 0074 4A46     		mov	r2, r9
 585 0076 402A     		cmp	r2, #64
 586 0078 28BF     		it	cs
 587 007a 4022     		movcs	r2, #64
 588 007c 4146     		mov	r1, r8
 589 007e 0320     		movs	r0, #3
 590 0080 FFF7FEFF 		bl	USBUART_ReadOutEP
 591              	.LVL82:
 592 0084 3880     		strh	r0, [r7]	@ movhi
 593              	.LVL83:
 442:..\common\uart_ldr/UART_BOOT.c ****         retCode = CYRET_SUCCESS;
 594              		.loc 1 442 0
 595 0086 0020     		movs	r0, #0
 596 0088 BDE8F883 		pop	{r3, r4, r5, r6, r7, r8, r9, pc}
 597              	.LVL84:
 598              	.L56:
 443:..\common\uart_ldr/UART_BOOT.c ****     }
 444:..\common\uart_ldr/UART_BOOT.c ****     else
 445:..\common\uart_ldr/UART_BOOT.c ****     {
 446:..\common\uart_ldr/UART_BOOT.c ****         *count = 0u;
 599              		.loc 1 446 0
 600 008c 0023     		movs	r3, #0
 601 008e 3B80     		strh	r3, [r7]	@ movhi
 602              	.LVL85:
 447:..\common\uart_ldr/UART_BOOT.c ****         retCode = CYRET_TIMEOUT;
 603              		.loc 1 447 0
 604 0090 1020     		movs	r0, #16
 605              	.LVL86:
 448:..\common\uart_ldr/UART_BOOT.c ****     }
 449:..\common\uart_ldr/UART_BOOT.c ****     
 450:..\common\uart_ldr/UART_BOOT.c ****     return(retCode);
 451:..\common\uart_ldr/UART_BOOT.c **** }
 606              		.loc 1 451 0
 607 0092 BDE8F883 		pop	{r3, r4, r5, r6, r7, r8, r9, pc}
 608              	.LVL87:
 609              	.L69:
 610 0096 00BF     		.align	2
 611              	.L68:
 612 0098 00000000 		.word	.LANCHOR0
 613              		.cfi_endproc
ARM GAS  C:\Users\chemi\AppData\Local\Temp\ccCZgJ1d.s 			page 20


 614              	.LFE69:
 615              		.size	USB_CyBtldrCommRead, .-USB_CyBtldrCommRead
 616              		.bss
 617              		.set	.LANCHOR0,. + 0
 618              		.type	USBUART_started, %object
 619              		.size	USBUART_started, 1
 620              	USBUART_started:
 621 0000 00       		.space	1
 622              		.text
 623              	.Letext0:
 624              		.file 2 "c:\\program files (x86)\\cypress\\psoc creator\\4.4\\psoc creator\\import\\gnu\\arm\\5.4.
 625              		.file 3 "c:\\program files (x86)\\cypress\\psoc creator\\4.4\\psoc creator\\import\\gnu\\arm\\5.4.
 626              		.file 4 "Generated_Source\\PSoC5/cytypes.h"
 627              		.file 5 "Generated_Source\\PSoC5/USBUART.h"
 628              		.file 6 "Generated_Source\\PSoC5/CyLib.h"
 629              		.file 7 "..\\common\\uart_ldr\\UART.h"
 630              		.file 8 "Generated_Source\\PSoC5/USBUART_cdc.h"
 631              		.file 9 "Generated_Source\\PSoC5/core_cm3.h"