ARM GAS  C:\Users\chemi\AppData\Local\Temp\ccL45Tva.s 			page 1


   1              		.syntax unified
   2              		.cpu cortex-m3
   3              		.fpu softvfp
   4              		.eabi_attribute 20, 1
   5              		.eabi_attribute 21, 1
   6              		.eabi_attribute 23, 3
   7              		.eabi_attribute 24, 1
   8              		.eabi_attribute 25, 1
   9              		.eabi_attribute 26, 1
  10              		.eabi_attribute 30, 4
  11              		.eabi_attribute 34, 1
  12              		.eabi_attribute 18, 4
  13              		.thumb
  14              		.syntax unified
  15              		.file	"UART.c"
  16              		.text
  17              	.Ltext0:
  18              		.cfi_sections	.debug_frame
  19              		.section	.text.UART_Init,"ax",%progbits
  20              		.align	1
  21              		.global	UART_Init
  22              		.thumb
  23              		.thumb_func
  24              		.type	UART_Init, %function
  25              	UART_Init:
  26              	.LFB1:
  27              		.file 1 "..\\common\\uart_ldr\\UART.c"
   1:..\common\uart_ldr/UART.c **** /*******************************************************************************
   2:..\common\uart_ldr/UART.c **** * File Name: UART.c
   3:..\common\uart_ldr/UART.c **** * Version 2.50
   4:..\common\uart_ldr/UART.c **** *
   5:..\common\uart_ldr/UART.c **** * Description:
   6:..\common\uart_ldr/UART.c **** *  This file provides all API functionality of the UART component
   7:..\common\uart_ldr/UART.c **** *
   8:..\common\uart_ldr/UART.c **** * Note:
   9:..\common\uart_ldr/UART.c **** *
  10:..\common\uart_ldr/UART.c **** ********************************************************************************
  11:..\common\uart_ldr/UART.c **** * Copyright 2008-2015, Cypress Semiconductor Corporation.  All rights reserved.
  12:..\common\uart_ldr/UART.c **** * You may use this file only in accordance with the license, terms, conditions,
  13:..\common\uart_ldr/UART.c **** * disclaimers, and limitations in the end user license agreement accompanying
  14:..\common\uart_ldr/UART.c **** * the software package with which this file was provided.
  15:..\common\uart_ldr/UART.c **** *******************************************************************************/
  16:..\common\uart_ldr/UART.c **** 
  17:..\common\uart_ldr/UART.c **** #include "UART.h"
  18:..\common\uart_ldr/UART.c **** #if (UART_INTERNAL_CLOCK_USED)
  19:..\common\uart_ldr/UART.c ****     #include "UART_IntClock.h"
  20:..\common\uart_ldr/UART.c **** #endif /* End UART_INTERNAL_CLOCK_USED */
  21:..\common\uart_ldr/UART.c **** 
  22:..\common\uart_ldr/UART.c **** 
  23:..\common\uart_ldr/UART.c **** /***************************************
  24:..\common\uart_ldr/UART.c **** * Global data allocation
  25:..\common\uart_ldr/UART.c **** ***************************************/
  26:..\common\uart_ldr/UART.c **** 
  27:..\common\uart_ldr/UART.c **** uint8 UART_initVar = 0u;
  28:..\common\uart_ldr/UART.c **** 
  29:..\common\uart_ldr/UART.c **** #if (UART_TX_INTERRUPT_ENABLED && UART_TX_ENABLED)
  30:..\common\uart_ldr/UART.c ****     volatile uint8 UART_txBuffer[UART_TX_BUFFER_SIZE];
ARM GAS  C:\Users\chemi\AppData\Local\Temp\ccL45Tva.s 			page 2


  31:..\common\uart_ldr/UART.c ****     volatile uint8 UART_txBufferRead = 0u;
  32:..\common\uart_ldr/UART.c ****     uint8 UART_txBufferWrite = 0u;
  33:..\common\uart_ldr/UART.c **** #endif /* (UART_TX_INTERRUPT_ENABLED && UART_TX_ENABLED) */
  34:..\common\uart_ldr/UART.c **** 
  35:..\common\uart_ldr/UART.c **** #if (UART_RX_INTERRUPT_ENABLED && (UART_RX_ENABLED || UART_HD_ENABLED))
  36:..\common\uart_ldr/UART.c ****     uint8 UART_errorStatus = 0u;
  37:..\common\uart_ldr/UART.c ****     volatile uint8 UART_rxBuffer[UART_RX_BUFFER_SIZE];
  38:..\common\uart_ldr/UART.c ****     volatile uint8 UART_rxBufferRead  = 0u;
  39:..\common\uart_ldr/UART.c ****     volatile uint8 UART_rxBufferWrite = 0u;
  40:..\common\uart_ldr/UART.c ****     volatile uint8 UART_rxBufferLoopDetect = 0u;
  41:..\common\uart_ldr/UART.c ****     volatile uint8 UART_rxBufferOverflow   = 0u;
  42:..\common\uart_ldr/UART.c ****     #if (UART_RXHW_ADDRESS_ENABLED)
  43:..\common\uart_ldr/UART.c ****         volatile uint8 UART_rxAddressMode = UART_RX_ADDRESS_MODE;
  44:..\common\uart_ldr/UART.c ****         volatile uint8 UART_rxAddressDetected = 0u;
  45:..\common\uart_ldr/UART.c ****     #endif /* (UART_RXHW_ADDRESS_ENABLED) */
  46:..\common\uart_ldr/UART.c **** #endif /* (UART_RX_INTERRUPT_ENABLED && (UART_RX_ENABLED || UART_HD_ENABLED)) */
  47:..\common\uart_ldr/UART.c **** 
  48:..\common\uart_ldr/UART.c **** 
  49:..\common\uart_ldr/UART.c **** /*******************************************************************************
  50:..\common\uart_ldr/UART.c **** * Function Name: UART_Start
  51:..\common\uart_ldr/UART.c **** ********************************************************************************
  52:..\common\uart_ldr/UART.c **** *
  53:..\common\uart_ldr/UART.c **** * Summary:
  54:..\common\uart_ldr/UART.c **** *  This is the preferred method to begin component operation.
  55:..\common\uart_ldr/UART.c **** *  UART_Start() sets the initVar variable, calls the
  56:..\common\uart_ldr/UART.c **** *  UART_Init() function, and then calls the
  57:..\common\uart_ldr/UART.c **** *  UART_Enable() function.
  58:..\common\uart_ldr/UART.c **** *
  59:..\common\uart_ldr/UART.c **** * Parameters:
  60:..\common\uart_ldr/UART.c **** *  None.
  61:..\common\uart_ldr/UART.c **** *
  62:..\common\uart_ldr/UART.c **** * Return:
  63:..\common\uart_ldr/UART.c **** *  None.
  64:..\common\uart_ldr/UART.c **** *
  65:..\common\uart_ldr/UART.c **** * Global variables:
  66:..\common\uart_ldr/UART.c **** *  The UART_intiVar variable is used to indicate initial
  67:..\common\uart_ldr/UART.c **** *  configuration of this component. The variable is initialized to zero (0u)
  68:..\common\uart_ldr/UART.c **** *  and set to one (1u) the first time UART_Start() is called. This
  69:..\common\uart_ldr/UART.c **** *  allows for component initialization without re-initialization in all
  70:..\common\uart_ldr/UART.c **** *  subsequent calls to the UART_Start() routine.
  71:..\common\uart_ldr/UART.c **** *
  72:..\common\uart_ldr/UART.c **** * Reentrant:
  73:..\common\uart_ldr/UART.c **** *  No.
  74:..\common\uart_ldr/UART.c **** *
  75:..\common\uart_ldr/UART.c **** *******************************************************************************/
  76:..\common\uart_ldr/UART.c **** void UART_Start(void) 
  77:..\common\uart_ldr/UART.c **** {
  78:..\common\uart_ldr/UART.c ****     /* If not initialized then initialize all required hardware and software */
  79:..\common\uart_ldr/UART.c ****     if(UART_initVar == 0u)
  80:..\common\uart_ldr/UART.c ****     {
  81:..\common\uart_ldr/UART.c ****         UART_Init();
  82:..\common\uart_ldr/UART.c ****         UART_initVar = 1u;
  83:..\common\uart_ldr/UART.c ****     }
  84:..\common\uart_ldr/UART.c **** 
  85:..\common\uart_ldr/UART.c ****     UART_Enable();
  86:..\common\uart_ldr/UART.c **** }
  87:..\common\uart_ldr/UART.c **** 
ARM GAS  C:\Users\chemi\AppData\Local\Temp\ccL45Tva.s 			page 3


  88:..\common\uart_ldr/UART.c **** 
  89:..\common\uart_ldr/UART.c **** /*******************************************************************************
  90:..\common\uart_ldr/UART.c **** * Function Name: UART_Init
  91:..\common\uart_ldr/UART.c **** ********************************************************************************
  92:..\common\uart_ldr/UART.c **** *
  93:..\common\uart_ldr/UART.c **** * Summary:
  94:..\common\uart_ldr/UART.c **** *  Initializes or restores the component according to the customizer Configure
  95:..\common\uart_ldr/UART.c **** *  dialog settings. It is not necessary to call UART_Init() because
  96:..\common\uart_ldr/UART.c **** *  the UART_Start() API calls this function and is the preferred
  97:..\common\uart_ldr/UART.c **** *  method to begin component operation.
  98:..\common\uart_ldr/UART.c **** *
  99:..\common\uart_ldr/UART.c **** * Parameters:
 100:..\common\uart_ldr/UART.c **** *  None.
 101:..\common\uart_ldr/UART.c **** *
 102:..\common\uart_ldr/UART.c **** * Return:
 103:..\common\uart_ldr/UART.c **** *  None.
 104:..\common\uart_ldr/UART.c **** *
 105:..\common\uart_ldr/UART.c **** *******************************************************************************/
 106:..\common\uart_ldr/UART.c **** void UART_Init(void) 
 107:..\common\uart_ldr/UART.c **** {
  28              		.loc 1 107 0
  29              		.cfi_startproc
  30              		@ args = 0, pretend = 0, frame = 0
  31              		@ frame_needed = 0, uses_anonymous_args = 0
  32 0000 08B5     		push	{r3, lr}
  33              		.cfi_def_cfa_offset 8
  34              		.cfi_offset 3, -8
  35              		.cfi_offset 14, -4
 108:..\common\uart_ldr/UART.c ****     #if(UART_RX_ENABLED || UART_HD_ENABLED)
 109:..\common\uart_ldr/UART.c **** 
 110:..\common\uart_ldr/UART.c ****         #if (UART_RX_INTERRUPT_ENABLED)
 111:..\common\uart_ldr/UART.c ****             /* Set RX interrupt vector and priority */
 112:..\common\uart_ldr/UART.c ****             (void) CyIntSetVector(UART_RX_VECT_NUM, &UART_RXISR);
  36              		.loc 1 112 0
  37 0002 1049     		ldr	r1, .L2
  38 0004 0020     		movs	r0, #0
  39 0006 FFF7FEFF 		bl	CyIntSetVector
  40              	.LVL0:
 113:..\common\uart_ldr/UART.c ****             CyIntSetPriority(UART_RX_VECT_NUM, UART_RX_PRIOR_NUM);
  41              		.loc 1 113 0
  42 000a 0721     		movs	r1, #7
  43 000c 0020     		movs	r0, #0
  44 000e FFF7FEFF 		bl	CyIntSetPriority
  45              	.LVL1:
 114:..\common\uart_ldr/UART.c ****             UART_errorStatus = 0u;
  46              		.loc 1 114 0
  47 0012 0D4B     		ldr	r3, .L2+4
  48 0014 0022     		movs	r2, #0
  49 0016 1A70     		strb	r2, [r3]
 115:..\common\uart_ldr/UART.c ****         #endif /* (UART_RX_INTERRUPT_ENABLED) */
 116:..\common\uart_ldr/UART.c **** 
 117:..\common\uart_ldr/UART.c ****         #if (UART_RXHW_ADDRESS_ENABLED)
 118:..\common\uart_ldr/UART.c ****             UART_SetRxAddressMode(UART_RX_ADDRESS_MODE);
 119:..\common\uart_ldr/UART.c ****             UART_SetRxAddress1(UART_RX_HW_ADDRESS1);
 120:..\common\uart_ldr/UART.c ****             UART_SetRxAddress2(UART_RX_HW_ADDRESS2);
 121:..\common\uart_ldr/UART.c ****         #endif /* End UART_RXHW_ADDRESS_ENABLED */
 122:..\common\uart_ldr/UART.c **** 
ARM GAS  C:\Users\chemi\AppData\Local\Temp\ccL45Tva.s 			page 4


 123:..\common\uart_ldr/UART.c ****         /* Init Count7 period */
 124:..\common\uart_ldr/UART.c ****         UART_RXBITCTR_PERIOD_REG = UART_RXBITCTR_INIT;
  50              		.loc 1 124 0
  51 0018 0C4B     		ldr	r3, .L2+8
  52 001a 7222     		movs	r2, #114
  53 001c 1A70     		strb	r2, [r3]
 125:..\common\uart_ldr/UART.c ****         /* Configure the Initial RX interrupt mask */
 126:..\common\uart_ldr/UART.c ****         UART_RXSTATUS_MASK_REG  = UART_INIT_RX_INTERRUPTS_MASK;
  54              		.loc 1 126 0
  55 001e 2022     		movs	r2, #32
  56 0020 DA70     		strb	r2, [r3, #3]
 127:..\common\uart_ldr/UART.c ****     #endif /* End UART_RX_ENABLED || UART_HD_ENABLED*/
 128:..\common\uart_ldr/UART.c **** 
 129:..\common\uart_ldr/UART.c ****     #if(UART_TX_ENABLED)
 130:..\common\uart_ldr/UART.c ****         #if (UART_TX_INTERRUPT_ENABLED)
 131:..\common\uart_ldr/UART.c ****             /* Set TX interrupt vector and priority */
 132:..\common\uart_ldr/UART.c ****             (void) CyIntSetVector(UART_TX_VECT_NUM, &UART_TXISR);
  57              		.loc 1 132 0
  58 0022 0B49     		ldr	r1, .L2+12
  59 0024 0120     		movs	r0, #1
  60 0026 FFF7FEFF 		bl	CyIntSetVector
  61              	.LVL2:
 133:..\common\uart_ldr/UART.c ****             CyIntSetPriority(UART_TX_VECT_NUM, UART_TX_PRIOR_NUM);
  62              		.loc 1 133 0
  63 002a 0721     		movs	r1, #7
  64 002c 0120     		movs	r0, #1
  65 002e FFF7FEFF 		bl	CyIntSetPriority
  66              	.LVL3:
 134:..\common\uart_ldr/UART.c ****         #endif /* (UART_TX_INTERRUPT_ENABLED) */
 135:..\common\uart_ldr/UART.c **** 
 136:..\common\uart_ldr/UART.c ****         /* Write Counter Value for TX Bit Clk Generator*/
 137:..\common\uart_ldr/UART.c ****         #if (UART_TXCLKGEN_DP)
 138:..\common\uart_ldr/UART.c ****             UART_TXBITCLKGEN_CTR_REG = UART_BIT_CENTER;
  67              		.loc 1 138 0
  68 0032 084B     		ldr	r3, .L2+16
  69 0034 0622     		movs	r2, #6
  70 0036 1A70     		strb	r2, [r3]
 139:..\common\uart_ldr/UART.c ****             UART_TXBITCLKTX_COMPLETE_REG = ((UART_NUMBER_OF_DATA_BITS +
  71              		.loc 1 139 0
  72 0038 4722     		movs	r2, #71
  73 003a 1A74     		strb	r2, [r3, #16]
 140:..\common\uart_ldr/UART.c ****                         UART_NUMBER_OF_START_BIT) * UART_OVER_SAMPLE_COUNT) - 1u;
 141:..\common\uart_ldr/UART.c ****         #else
 142:..\common\uart_ldr/UART.c ****             UART_TXBITCTR_PERIOD_REG = ((UART_NUMBER_OF_DATA_BITS +
 143:..\common\uart_ldr/UART.c ****                         UART_NUMBER_OF_START_BIT) * UART_OVER_SAMPLE_8) - 1u;
 144:..\common\uart_ldr/UART.c ****         #endif /* End UART_TXCLKGEN_DP */
 145:..\common\uart_ldr/UART.c **** 
 146:..\common\uart_ldr/UART.c ****         /* Configure the Initial TX interrupt mask */
 147:..\common\uart_ldr/UART.c ****         #if (UART_TX_INTERRUPT_ENABLED)
 148:..\common\uart_ldr/UART.c ****             UART_TXSTATUS_MASK_REG = UART_TX_STS_FIFO_EMPTY;
  74              		.loc 1 148 0
  75 003c 0222     		movs	r2, #2
  76 003e 03F8A12C 		strb	r2, [r3, #-161]
  77 0042 08BD     		pop	{r3, pc}
  78              	.L3:
  79              		.align	2
  80              	.L2:
ARM GAS  C:\Users\chemi\AppData\Local\Temp\ccL45Tva.s 			page 5


  81 0044 00000000 		.word	UART_RXISR
  82 0048 00000000 		.word	.LANCHOR0
  83 004c 88650040 		.word	1073767816
  84 0050 00000000 		.word	UART_TXISR
  85 0054 2A650040 		.word	1073767722
  86              		.cfi_endproc
  87              	.LFE1:
  88              		.size	UART_Init, .-UART_Init
  89              		.section	.text.UART_Enable,"ax",%progbits
  90              		.align	1
  91              		.global	UART_Enable
  92              		.thumb
  93              		.thumb_func
  94              		.type	UART_Enable, %function
  95              	UART_Enable:
  96              	.LFB2:
 149:..\common\uart_ldr/UART.c ****         #else
 150:..\common\uart_ldr/UART.c ****             UART_TXSTATUS_MASK_REG = UART_INIT_TX_INTERRUPTS_MASK;
 151:..\common\uart_ldr/UART.c ****         #endif /*End UART_TX_INTERRUPT_ENABLED*/
 152:..\common\uart_ldr/UART.c **** 
 153:..\common\uart_ldr/UART.c ****     #endif /* End UART_TX_ENABLED */
 154:..\common\uart_ldr/UART.c **** 
 155:..\common\uart_ldr/UART.c ****     #if(UART_PARITY_TYPE_SW)  /* Write Parity to Control Register */
 156:..\common\uart_ldr/UART.c ****         UART_WriteControlRegister( \
 157:..\common\uart_ldr/UART.c ****             (UART_ReadControlRegister() & (uint8)~UART_CTRL_PARITY_TYPE_MASK) | \
 158:..\common\uart_ldr/UART.c ****             (uint8)(UART_PARITY_TYPE << UART_CTRL_PARITY_TYPE0_SHIFT) );
 159:..\common\uart_ldr/UART.c ****     #endif /* End UART_PARITY_TYPE_SW */
 160:..\common\uart_ldr/UART.c **** }
 161:..\common\uart_ldr/UART.c **** 
 162:..\common\uart_ldr/UART.c **** 
 163:..\common\uart_ldr/UART.c **** /*******************************************************************************
 164:..\common\uart_ldr/UART.c **** * Function Name: UART_Enable
 165:..\common\uart_ldr/UART.c **** ********************************************************************************
 166:..\common\uart_ldr/UART.c **** *
 167:..\common\uart_ldr/UART.c **** * Summary:
 168:..\common\uart_ldr/UART.c **** *  Activates the hardware and begins component operation. It is not necessary
 169:..\common\uart_ldr/UART.c **** *  to call UART_Enable() because the UART_Start() API
 170:..\common\uart_ldr/UART.c **** *  calls this function, which is the preferred method to begin component
 171:..\common\uart_ldr/UART.c **** *  operation.
 172:..\common\uart_ldr/UART.c **** 
 173:..\common\uart_ldr/UART.c **** * Parameters:
 174:..\common\uart_ldr/UART.c **** *  None.
 175:..\common\uart_ldr/UART.c **** *
 176:..\common\uart_ldr/UART.c **** * Return:
 177:..\common\uart_ldr/UART.c **** *  None.
 178:..\common\uart_ldr/UART.c **** *
 179:..\common\uart_ldr/UART.c **** * Global Variables:
 180:..\common\uart_ldr/UART.c **** *  UART_rxAddressDetected - set to initial state (0).
 181:..\common\uart_ldr/UART.c **** *
 182:..\common\uart_ldr/UART.c **** *******************************************************************************/
 183:..\common\uart_ldr/UART.c **** void UART_Enable(void) 
 184:..\common\uart_ldr/UART.c **** {
  97              		.loc 1 184 0
  98              		.cfi_startproc
  99              		@ args = 0, pretend = 0, frame = 0
 100              		@ frame_needed = 0, uses_anonymous_args = 0
 101 0000 08B5     		push	{r3, lr}
ARM GAS  C:\Users\chemi\AppData\Local\Temp\ccL45Tva.s 			page 6


 102              		.cfi_def_cfa_offset 8
 103              		.cfi_offset 3, -8
 104              		.cfi_offset 14, -4
 185:..\common\uart_ldr/UART.c ****     uint8 enableInterrupts;
 186:..\common\uart_ldr/UART.c ****     enableInterrupts = CyEnterCriticalSection();
 105              		.loc 1 186 0
 106 0002 FFF7FEFF 		bl	CyEnterCriticalSection
 107              	.LVL4:
 187:..\common\uart_ldr/UART.c **** 
 188:..\common\uart_ldr/UART.c ****     #if (UART_RX_ENABLED || UART_HD_ENABLED)
 189:..\common\uart_ldr/UART.c ****         /* RX Counter (Count7) Enable */
 190:..\common\uart_ldr/UART.c ****         UART_RXBITCTR_CONTROL_REG |= UART_CNTR_ENABLE;
 108              		.loc 1 190 0
 109 0006 0C4A     		ldr	r2, .L5
 191:..\common\uart_ldr/UART.c **** 
 192:..\common\uart_ldr/UART.c ****         /* Enable the RX Interrupt */
 193:..\common\uart_ldr/UART.c ****         UART_RXSTATUS_ACTL_REG  |= UART_INT_ENABLE;
 194:..\common\uart_ldr/UART.c **** 
 195:..\common\uart_ldr/UART.c ****         #if (UART_RX_INTERRUPT_ENABLED)
 196:..\common\uart_ldr/UART.c ****             UART_EnableRxInt();
 197:..\common\uart_ldr/UART.c **** 
 198:..\common\uart_ldr/UART.c ****             #if (UART_RXHW_ADDRESS_ENABLED)
 199:..\common\uart_ldr/UART.c ****                 UART_rxAddressDetected = 0u;
 200:..\common\uart_ldr/UART.c ****             #endif /* (UART_RXHW_ADDRESS_ENABLED) */
 201:..\common\uart_ldr/UART.c ****         #endif /* (UART_RX_INTERRUPT_ENABLED) */
 202:..\common\uart_ldr/UART.c ****     #endif /* (UART_RX_ENABLED || UART_HD_ENABLED) */
 203:..\common\uart_ldr/UART.c **** 
 204:..\common\uart_ldr/UART.c ****     #if(UART_TX_ENABLED)
 205:..\common\uart_ldr/UART.c ****         /* TX Counter (DP/Count7) Enable */
 206:..\common\uart_ldr/UART.c ****         #if(!UART_TXCLKGEN_DP)
 207:..\common\uart_ldr/UART.c ****             UART_TXBITCTR_CONTROL_REG |= UART_CNTR_ENABLE;
 208:..\common\uart_ldr/UART.c ****         #endif /* End UART_TXCLKGEN_DP */
 209:..\common\uart_ldr/UART.c **** 
 210:..\common\uart_ldr/UART.c ****         /* Enable the TX Interrupt */
 211:..\common\uart_ldr/UART.c ****         UART_TXSTATUS_ACTL_REG |= UART_INT_ENABLE;
 110              		.loc 1 211 0
 111 0008 0C49     		ldr	r1, .L5+4
 190:..\common\uart_ldr/UART.c **** 
 112              		.loc 1 190 0
 113 000a 1378     		ldrb	r3, [r2]	@ zero_extendqisi2
 114 000c 43F02003 		orr	r3, r3, #32
 115 0010 1370     		strb	r3, [r2]
 193:..\common\uart_ldr/UART.c **** 
 116              		.loc 1 193 0
 117 0012 D378     		ldrb	r3, [r2, #3]	@ zero_extendqisi2
 118 0014 43F01003 		orr	r3, r3, #16
 119 0018 D370     		strb	r3, [r2, #3]
 196:..\common\uart_ldr/UART.c **** 
 120              		.loc 1 196 0
 121 001a 094A     		ldr	r2, .L5+8
 122 001c 0123     		movs	r3, #1
 123 001e 1360     		str	r3, [r2]
 124              		.loc 1 211 0
 125 0020 0B78     		ldrb	r3, [r1]	@ zero_extendqisi2
 126 0022 43F01003 		orr	r3, r3, #16
 127 0026 0B70     		strb	r3, [r1]
 212:..\common\uart_ldr/UART.c ****         #if (UART_TX_INTERRUPT_ENABLED)
ARM GAS  C:\Users\chemi\AppData\Local\Temp\ccL45Tva.s 			page 7


 213:..\common\uart_ldr/UART.c ****             UART_ClearPendingTxInt(); /* Clear history of TX_NOT_EMPTY */
 128              		.loc 1 213 0
 129 0028 0649     		ldr	r1, .L5+12
 130 002a 0223     		movs	r3, #2
 131 002c 0B60     		str	r3, [r1]
 214:..\common\uart_ldr/UART.c ****             UART_EnableTxInt();
 132              		.loc 1 214 0
 133 002e 1360     		str	r3, [r2]
 215:..\common\uart_ldr/UART.c ****         #endif /* (UART_TX_INTERRUPT_ENABLED) */
 216:..\common\uart_ldr/UART.c ****      #endif /* (UART_TX_INTERRUPT_ENABLED) */
 217:..\common\uart_ldr/UART.c **** 
 218:..\common\uart_ldr/UART.c ****     #if (UART_INTERNAL_CLOCK_USED)
 219:..\common\uart_ldr/UART.c ****         UART_IntClock_Start();  /* Enable the clock */
 220:..\common\uart_ldr/UART.c ****     #endif /* (UART_INTERNAL_CLOCK_USED) */
 221:..\common\uart_ldr/UART.c **** 
 222:..\common\uart_ldr/UART.c ****     CyExitCriticalSection(enableInterrupts);
 223:..\common\uart_ldr/UART.c **** }
 134              		.loc 1 223 0
 135 0030 BDE80840 		pop	{r3, lr}
 136              		.cfi_restore 14
 137              		.cfi_restore 3
 138              		.cfi_def_cfa_offset 0
 222:..\common\uart_ldr/UART.c **** }
 139              		.loc 1 222 0
 140 0034 FFF7FEBF 		b	CyExitCriticalSection
 141              	.LVL5:
 142              	.L6:
 143              		.align	2
 144              	.L5:
 145 0038 98650040 		.word	1073767832
 146 003c 99640040 		.word	1073767577
 147 0040 00E100E0 		.word	-536813312
 148 0044 80E200E0 		.word	-536812928
 149              		.cfi_endproc
 150              	.LFE2:
 151              		.size	UART_Enable, .-UART_Enable
 152              		.section	.text.UART_Start,"ax",%progbits
 153              		.align	1
 154              		.global	UART_Start
 155              		.thumb
 156              		.thumb_func
 157              		.type	UART_Start, %function
 158              	UART_Start:
 159              	.LFB0:
  77:..\common\uart_ldr/UART.c ****     /* If not initialized then initialize all required hardware and software */
 160              		.loc 1 77 0
 161              		.cfi_startproc
 162              		@ args = 0, pretend = 0, frame = 0
 163              		@ frame_needed = 0, uses_anonymous_args = 0
 164 0000 10B5     		push	{r4, lr}
 165              		.cfi_def_cfa_offset 8
 166              		.cfi_offset 4, -8
 167              		.cfi_offset 14, -4
  79:..\common\uart_ldr/UART.c ****     {
 168              		.loc 1 79 0
 169 0002 054C     		ldr	r4, .L10
 170 0004 6378     		ldrb	r3, [r4, #1]	@ zero_extendqisi2
ARM GAS  C:\Users\chemi\AppData\Local\Temp\ccL45Tva.s 			page 8


 171 0006 1BB9     		cbnz	r3, .L8
  81:..\common\uart_ldr/UART.c ****         UART_initVar = 1u;
 172              		.loc 1 81 0
 173 0008 FFF7FEFF 		bl	UART_Init
 174              	.LVL6:
  82:..\common\uart_ldr/UART.c ****     }
 175              		.loc 1 82 0
 176 000c 0123     		movs	r3, #1
 177 000e 6370     		strb	r3, [r4, #1]
 178              	.L8:
  86:..\common\uart_ldr/UART.c **** 
 179              		.loc 1 86 0
 180 0010 BDE81040 		pop	{r4, lr}
 181              		.cfi_restore 14
 182              		.cfi_restore 4
 183              		.cfi_def_cfa_offset 0
  85:..\common\uart_ldr/UART.c **** }
 184              		.loc 1 85 0
 185 0014 FFF7FEBF 		b	UART_Enable
 186              	.LVL7:
 187              	.L11:
 188              		.align	2
 189              	.L10:
 190 0018 00000000 		.word	.LANCHOR0
 191              		.cfi_endproc
 192              	.LFE0:
 193              		.size	UART_Start, .-UART_Start
 194              		.section	.text.UART_Stop,"ax",%progbits
 195              		.align	1
 196              		.global	UART_Stop
 197              		.thumb
 198              		.thumb_func
 199              		.type	UART_Stop, %function
 200              	UART_Stop:
 201              	.LFB3:
 224:..\common\uart_ldr/UART.c **** 
 225:..\common\uart_ldr/UART.c **** 
 226:..\common\uart_ldr/UART.c **** /*******************************************************************************
 227:..\common\uart_ldr/UART.c **** * Function Name: UART_Stop
 228:..\common\uart_ldr/UART.c **** ********************************************************************************
 229:..\common\uart_ldr/UART.c **** *
 230:..\common\uart_ldr/UART.c **** * Summary:
 231:..\common\uart_ldr/UART.c **** *  Disables the UART operation.
 232:..\common\uart_ldr/UART.c **** *
 233:..\common\uart_ldr/UART.c **** * Parameters:
 234:..\common\uart_ldr/UART.c **** *  None.
 235:..\common\uart_ldr/UART.c **** *
 236:..\common\uart_ldr/UART.c **** * Return:
 237:..\common\uart_ldr/UART.c **** *  None.
 238:..\common\uart_ldr/UART.c **** *
 239:..\common\uart_ldr/UART.c **** *******************************************************************************/
 240:..\common\uart_ldr/UART.c **** void UART_Stop(void) 
 241:..\common\uart_ldr/UART.c **** {
 202              		.loc 1 241 0
 203              		.cfi_startproc
 204              		@ args = 0, pretend = 0, frame = 0
 205              		@ frame_needed = 0, uses_anonymous_args = 0
ARM GAS  C:\Users\chemi\AppData\Local\Temp\ccL45Tva.s 			page 9


 206 0000 08B5     		push	{r3, lr}
 207              		.cfi_def_cfa_offset 8
 208              		.cfi_offset 3, -8
 209              		.cfi_offset 14, -4
 242:..\common\uart_ldr/UART.c ****     uint8 enableInterrupts;
 243:..\common\uart_ldr/UART.c ****     enableInterrupts = CyEnterCriticalSection();
 210              		.loc 1 243 0
 211 0002 FFF7FEFF 		bl	CyEnterCriticalSection
 212              	.LVL8:
 244:..\common\uart_ldr/UART.c **** 
 245:..\common\uart_ldr/UART.c ****     /* Write Bit Counter Disable */
 246:..\common\uart_ldr/UART.c ****     #if (UART_RX_ENABLED || UART_HD_ENABLED)
 247:..\common\uart_ldr/UART.c ****         UART_RXBITCTR_CONTROL_REG &= (uint8) ~UART_CNTR_ENABLE;
 213              		.loc 1 247 0
 214 0006 0B4A     		ldr	r2, .L13
 248:..\common\uart_ldr/UART.c ****     #endif /* (UART_RX_ENABLED || UART_HD_ENABLED) */
 249:..\common\uart_ldr/UART.c **** 
 250:..\common\uart_ldr/UART.c ****     #if (UART_TX_ENABLED)
 251:..\common\uart_ldr/UART.c ****         #if(!UART_TXCLKGEN_DP)
 252:..\common\uart_ldr/UART.c ****             UART_TXBITCTR_CONTROL_REG &= (uint8) ~UART_CNTR_ENABLE;
 253:..\common\uart_ldr/UART.c ****         #endif /* (!UART_TXCLKGEN_DP) */
 254:..\common\uart_ldr/UART.c ****     #endif /* (UART_TX_ENABLED) */
 255:..\common\uart_ldr/UART.c **** 
 256:..\common\uart_ldr/UART.c ****     #if (UART_INTERNAL_CLOCK_USED)
 257:..\common\uart_ldr/UART.c ****         UART_IntClock_Stop();   /* Disable the clock */
 258:..\common\uart_ldr/UART.c ****     #endif /* (UART_INTERNAL_CLOCK_USED) */
 259:..\common\uart_ldr/UART.c **** 
 260:..\common\uart_ldr/UART.c ****     /* Disable internal interrupt component */
 261:..\common\uart_ldr/UART.c ****     #if (UART_RX_ENABLED || UART_HD_ENABLED)
 262:..\common\uart_ldr/UART.c ****         UART_RXSTATUS_ACTL_REG  &= (uint8) ~UART_INT_ENABLE;
 263:..\common\uart_ldr/UART.c **** 
 264:..\common\uart_ldr/UART.c ****         #if (UART_RX_INTERRUPT_ENABLED)
 265:..\common\uart_ldr/UART.c ****             UART_DisableRxInt();
 266:..\common\uart_ldr/UART.c ****         #endif /* (UART_RX_INTERRUPT_ENABLED) */
 267:..\common\uart_ldr/UART.c ****     #endif /* (UART_RX_ENABLED || UART_HD_ENABLED) */
 268:..\common\uart_ldr/UART.c **** 
 269:..\common\uart_ldr/UART.c ****     #if (UART_TX_ENABLED)
 270:..\common\uart_ldr/UART.c ****         UART_TXSTATUS_ACTL_REG &= (uint8) ~UART_INT_ENABLE;
 215              		.loc 1 270 0
 216 0008 0B49     		ldr	r1, .L13+4
 247:..\common\uart_ldr/UART.c ****     #endif /* (UART_RX_ENABLED || UART_HD_ENABLED) */
 217              		.loc 1 247 0
 218 000a 1378     		ldrb	r3, [r2]	@ zero_extendqisi2
 219 000c 03F0DF03 		and	r3, r3, #223
 220 0010 1370     		strb	r3, [r2]
 262:..\common\uart_ldr/UART.c **** 
 221              		.loc 1 262 0
 222 0012 D378     		ldrb	r3, [r2, #3]	@ zero_extendqisi2
 223 0014 03F0EF03 		and	r3, r3, #239
 224 0018 D370     		strb	r3, [r2, #3]
 265:..\common\uart_ldr/UART.c ****         #endif /* (UART_RX_INTERRUPT_ENABLED) */
 225              		.loc 1 265 0
 226 001a 084A     		ldr	r2, .L13+8
 227 001c 0123     		movs	r3, #1
 228 001e 1360     		str	r3, [r2]
 229              		.loc 1 270 0
 230 0020 0B78     		ldrb	r3, [r1]	@ zero_extendqisi2
ARM GAS  C:\Users\chemi\AppData\Local\Temp\ccL45Tva.s 			page 10


 231 0022 03F0EF03 		and	r3, r3, #239
 232 0026 0B70     		strb	r3, [r1]
 271:..\common\uart_ldr/UART.c **** 
 272:..\common\uart_ldr/UART.c ****         #if (UART_TX_INTERRUPT_ENABLED)
 273:..\common\uart_ldr/UART.c ****             UART_DisableTxInt();
 233              		.loc 1 273 0
 234 0028 0223     		movs	r3, #2
 235 002a 1360     		str	r3, [r2]
 274:..\common\uart_ldr/UART.c ****         #endif /* (UART_TX_INTERRUPT_ENABLED) */
 275:..\common\uart_ldr/UART.c ****     #endif /* (UART_TX_ENABLED) */
 276:..\common\uart_ldr/UART.c **** 
 277:..\common\uart_ldr/UART.c ****     CyExitCriticalSection(enableInterrupts);
 278:..\common\uart_ldr/UART.c **** }
 236              		.loc 1 278 0
 237 002c BDE80840 		pop	{r3, lr}
 238              		.cfi_restore 14
 239              		.cfi_restore 3
 240              		.cfi_def_cfa_offset 0
 277:..\common\uart_ldr/UART.c **** }
 241              		.loc 1 277 0
 242 0030 FFF7FEBF 		b	CyExitCriticalSection
 243              	.LVL9:
 244              	.L14:
 245              		.align	2
 246              	.L13:
 247 0034 98650040 		.word	1073767832
 248 0038 99640040 		.word	1073767577
 249 003c 80E100E0 		.word	-536813184
 250              		.cfi_endproc
 251              	.LFE3:
 252              		.size	UART_Stop, .-UART_Stop
 253              		.section	.text.UART_ReadControlRegister,"ax",%progbits
 254              		.align	1
 255              		.global	UART_ReadControlRegister
 256              		.thumb
 257              		.thumb_func
 258              		.type	UART_ReadControlRegister, %function
 259              	UART_ReadControlRegister:
 260              	.LFB4:
 279:..\common\uart_ldr/UART.c **** 
 280:..\common\uart_ldr/UART.c **** 
 281:..\common\uart_ldr/UART.c **** /*******************************************************************************
 282:..\common\uart_ldr/UART.c **** * Function Name: UART_ReadControlRegister
 283:..\common\uart_ldr/UART.c **** ********************************************************************************
 284:..\common\uart_ldr/UART.c **** *
 285:..\common\uart_ldr/UART.c **** * Summary:
 286:..\common\uart_ldr/UART.c **** *  Returns the current value of the control register.
 287:..\common\uart_ldr/UART.c **** *
 288:..\common\uart_ldr/UART.c **** * Parameters:
 289:..\common\uart_ldr/UART.c **** *  None.
 290:..\common\uart_ldr/UART.c **** *
 291:..\common\uart_ldr/UART.c **** * Return:
 292:..\common\uart_ldr/UART.c **** *  Contents of the control register.
 293:..\common\uart_ldr/UART.c **** *
 294:..\common\uart_ldr/UART.c **** *******************************************************************************/
 295:..\common\uart_ldr/UART.c **** uint8 UART_ReadControlRegister(void) 
 296:..\common\uart_ldr/UART.c **** {
ARM GAS  C:\Users\chemi\AppData\Local\Temp\ccL45Tva.s 			page 11


 261              		.loc 1 296 0
 262              		.cfi_startproc
 263              		@ args = 0, pretend = 0, frame = 0
 264              		@ frame_needed = 0, uses_anonymous_args = 0
 265              		@ link register save eliminated.
 297:..\common\uart_ldr/UART.c ****     #if (UART_CONTROL_REG_REMOVED)
 298:..\common\uart_ldr/UART.c ****         return(0u);
 299:..\common\uart_ldr/UART.c ****     #else
 300:..\common\uart_ldr/UART.c ****         return(UART_CONTROL_REG);
 301:..\common\uart_ldr/UART.c ****     #endif /* (UART_CONTROL_REG_REMOVED) */
 302:..\common\uart_ldr/UART.c **** }
 266              		.loc 1 302 0
 267 0000 0020     		movs	r0, #0
 268 0002 7047     		bx	lr
 269              		.cfi_endproc
 270              	.LFE4:
 271              		.size	UART_ReadControlRegister, .-UART_ReadControlRegister
 272              		.section	.text.UART_WriteControlRegister,"ax",%progbits
 273              		.align	1
 274              		.global	UART_WriteControlRegister
 275              		.thumb
 276              		.thumb_func
 277              		.type	UART_WriteControlRegister, %function
 278              	UART_WriteControlRegister:
 279              	.LFB30:
 280              		.cfi_startproc
 281              		@ args = 0, pretend = 0, frame = 0
 282              		@ frame_needed = 0, uses_anonymous_args = 0
 283              		@ link register save eliminated.
 284 0000 7047     		bx	lr
 285              		.cfi_endproc
 286              	.LFE30:
 287              		.size	UART_WriteControlRegister, .-UART_WriteControlRegister
 288              		.section	.text.UART_SetRxInterruptMode,"ax",%progbits
 289              		.align	1
 290              		.global	UART_SetRxInterruptMode
 291              		.thumb
 292              		.thumb_func
 293              		.type	UART_SetRxInterruptMode, %function
 294              	UART_SetRxInterruptMode:
 295              	.LFB6:
 303:..\common\uart_ldr/UART.c **** 
 304:..\common\uart_ldr/UART.c **** 
 305:..\common\uart_ldr/UART.c **** /*******************************************************************************
 306:..\common\uart_ldr/UART.c **** * Function Name: UART_WriteControlRegister
 307:..\common\uart_ldr/UART.c **** ********************************************************************************
 308:..\common\uart_ldr/UART.c **** *
 309:..\common\uart_ldr/UART.c **** * Summary:
 310:..\common\uart_ldr/UART.c **** *  Writes an 8-bit value into the control register
 311:..\common\uart_ldr/UART.c **** *
 312:..\common\uart_ldr/UART.c **** * Parameters:
 313:..\common\uart_ldr/UART.c **** *  control:  control register value
 314:..\common\uart_ldr/UART.c **** *
 315:..\common\uart_ldr/UART.c **** * Return:
 316:..\common\uart_ldr/UART.c **** *  None.
 317:..\common\uart_ldr/UART.c **** *
 318:..\common\uart_ldr/UART.c **** *******************************************************************************/
ARM GAS  C:\Users\chemi\AppData\Local\Temp\ccL45Tva.s 			page 12


 319:..\common\uart_ldr/UART.c **** void  UART_WriteControlRegister(uint8 control) 
 320:..\common\uart_ldr/UART.c **** {
 321:..\common\uart_ldr/UART.c ****     #if (UART_CONTROL_REG_REMOVED)
 322:..\common\uart_ldr/UART.c ****         if(0u != control)
 323:..\common\uart_ldr/UART.c ****         {
 324:..\common\uart_ldr/UART.c ****             /* Suppress compiler warning */
 325:..\common\uart_ldr/UART.c ****         }
 326:..\common\uart_ldr/UART.c ****     #else
 327:..\common\uart_ldr/UART.c ****        UART_CONTROL_REG = control;
 328:..\common\uart_ldr/UART.c ****     #endif /* (UART_CONTROL_REG_REMOVED) */
 329:..\common\uart_ldr/UART.c **** }
 330:..\common\uart_ldr/UART.c **** 
 331:..\common\uart_ldr/UART.c **** 
 332:..\common\uart_ldr/UART.c **** #if(UART_RX_ENABLED || UART_HD_ENABLED)
 333:..\common\uart_ldr/UART.c ****     /*******************************************************************************
 334:..\common\uart_ldr/UART.c ****     * Function Name: UART_SetRxInterruptMode
 335:..\common\uart_ldr/UART.c ****     ********************************************************************************
 336:..\common\uart_ldr/UART.c ****     *
 337:..\common\uart_ldr/UART.c ****     * Summary:
 338:..\common\uart_ldr/UART.c ****     *  Configures the RX interrupt sources enabled.
 339:..\common\uart_ldr/UART.c ****     *
 340:..\common\uart_ldr/UART.c ****     * Parameters:
 341:..\common\uart_ldr/UART.c ****     *  IntSrc:  Bit field containing the RX interrupts to enable. Based on the 
 342:..\common\uart_ldr/UART.c ****     *  bit-field arrangement of the status register. This value must be a 
 343:..\common\uart_ldr/UART.c ****     *  combination of status register bit-masks shown below:
 344:..\common\uart_ldr/UART.c ****     *      UART_RX_STS_FIFO_NOTEMPTY    Interrupt on byte received.
 345:..\common\uart_ldr/UART.c ****     *      UART_RX_STS_PAR_ERROR        Interrupt on parity error.
 346:..\common\uart_ldr/UART.c ****     *      UART_RX_STS_STOP_ERROR       Interrupt on stop error.
 347:..\common\uart_ldr/UART.c ****     *      UART_RX_STS_BREAK            Interrupt on break.
 348:..\common\uart_ldr/UART.c ****     *      UART_RX_STS_OVERRUN          Interrupt on overrun error.
 349:..\common\uart_ldr/UART.c ****     *      UART_RX_STS_ADDR_MATCH       Interrupt on address match.
 350:..\common\uart_ldr/UART.c ****     *      UART_RX_STS_MRKSPC           Interrupt on address detect.
 351:..\common\uart_ldr/UART.c ****     *
 352:..\common\uart_ldr/UART.c ****     * Return:
 353:..\common\uart_ldr/UART.c ****     *  None.
 354:..\common\uart_ldr/UART.c ****     *
 355:..\common\uart_ldr/UART.c ****     * Theory:
 356:..\common\uart_ldr/UART.c ****     *  Enables the output of specific status bits to the interrupt controller
 357:..\common\uart_ldr/UART.c ****     *
 358:..\common\uart_ldr/UART.c ****     *******************************************************************************/
 359:..\common\uart_ldr/UART.c ****     void UART_SetRxInterruptMode(uint8 intSrc) 
 360:..\common\uart_ldr/UART.c ****     {
 296              		.loc 1 360 0
 297              		.cfi_startproc
 298              		@ args = 0, pretend = 0, frame = 0
 299              		@ frame_needed = 0, uses_anonymous_args = 0
 300              		@ link register save eliminated.
 301              	.LVL10:
 361:..\common\uart_ldr/UART.c ****         UART_RXSTATUS_MASK_REG  = intSrc;
 302              		.loc 1 361 0
 303 0000 014B     		ldr	r3, .L18
 304 0002 1870     		strb	r0, [r3]
 305 0004 7047     		bx	lr
 306              	.L19:
 307 0006 00BF     		.align	2
 308              	.L18:
 309 0008 8B650040 		.word	1073767819
ARM GAS  C:\Users\chemi\AppData\Local\Temp\ccL45Tva.s 			page 13


 310              		.cfi_endproc
 311              	.LFE6:
 312              		.size	UART_SetRxInterruptMode, .-UART_SetRxInterruptMode
 313              		.section	.text.UART_ReadRxData,"ax",%progbits
 314              		.align	1
 315              		.global	UART_ReadRxData
 316              		.thumb
 317              		.thumb_func
 318              		.type	UART_ReadRxData, %function
 319              	UART_ReadRxData:
 320              	.LFB7:
 362:..\common\uart_ldr/UART.c ****     }
 363:..\common\uart_ldr/UART.c **** 
 364:..\common\uart_ldr/UART.c **** 
 365:..\common\uart_ldr/UART.c ****     /*******************************************************************************
 366:..\common\uart_ldr/UART.c ****     * Function Name: UART_ReadRxData
 367:..\common\uart_ldr/UART.c ****     ********************************************************************************
 368:..\common\uart_ldr/UART.c ****     *
 369:..\common\uart_ldr/UART.c ****     * Summary:
 370:..\common\uart_ldr/UART.c ****     *  Returns the next byte of received data. This function returns data without
 371:..\common\uart_ldr/UART.c ****     *  checking the status. You must check the status separately.
 372:..\common\uart_ldr/UART.c ****     *
 373:..\common\uart_ldr/UART.c ****     * Parameters:
 374:..\common\uart_ldr/UART.c ****     *  None.
 375:..\common\uart_ldr/UART.c ****     *
 376:..\common\uart_ldr/UART.c ****     * Return:
 377:..\common\uart_ldr/UART.c ****     *  Received data from RX register
 378:..\common\uart_ldr/UART.c ****     *
 379:..\common\uart_ldr/UART.c ****     * Global Variables:
 380:..\common\uart_ldr/UART.c ****     *  UART_rxBuffer - RAM buffer pointer for save received data.
 381:..\common\uart_ldr/UART.c ****     *  UART_rxBufferWrite - cyclic index for write to rxBuffer,
 382:..\common\uart_ldr/UART.c ****     *     checked to identify new data.
 383:..\common\uart_ldr/UART.c ****     *  UART_rxBufferRead - cyclic index for read from rxBuffer,
 384:..\common\uart_ldr/UART.c ****     *     incremented after each byte has been read from buffer.
 385:..\common\uart_ldr/UART.c ****     *  UART_rxBufferLoopDetect - cleared if loop condition was detected
 386:..\common\uart_ldr/UART.c ****     *     in RX ISR.
 387:..\common\uart_ldr/UART.c ****     *
 388:..\common\uart_ldr/UART.c ****     * Reentrant:
 389:..\common\uart_ldr/UART.c ****     *  No.
 390:..\common\uart_ldr/UART.c ****     *
 391:..\common\uart_ldr/UART.c ****     *******************************************************************************/
 392:..\common\uart_ldr/UART.c ****     uint8 UART_ReadRxData(void) 
 393:..\common\uart_ldr/UART.c ****     {
 321              		.loc 1 393 0
 322              		.cfi_startproc
 323              		@ args = 0, pretend = 0, frame = 0
 324              		@ frame_needed = 0, uses_anonymous_args = 0
 325              		@ link register save eliminated.
 394:..\common\uart_ldr/UART.c ****         uint8 rxData;
 395:..\common\uart_ldr/UART.c **** 
 396:..\common\uart_ldr/UART.c ****     #if (UART_RX_INTERRUPT_ENABLED)
 397:..\common\uart_ldr/UART.c **** 
 398:..\common\uart_ldr/UART.c ****         uint8 locRxBufferRead;
 399:..\common\uart_ldr/UART.c ****         uint8 locRxBufferWrite;
 400:..\common\uart_ldr/UART.c **** 
 401:..\common\uart_ldr/UART.c ****         /* Protect variables that could change on interrupt */
 402:..\common\uart_ldr/UART.c ****         UART_DisableRxInt();
ARM GAS  C:\Users\chemi\AppData\Local\Temp\ccL45Tva.s 			page 14


 326              		.loc 1 402 0
 327 0000 0F4B     		ldr	r3, .L27
 328 0002 0122     		movs	r2, #1
 329 0004 1A60     		str	r2, [r3]
 403:..\common\uart_ldr/UART.c **** 
 404:..\common\uart_ldr/UART.c ****         locRxBufferRead  = UART_rxBufferRead;
 330              		.loc 1 404 0
 331 0006 0F4A     		ldr	r2, .L27+4
 332 0008 9378     		ldrb	r3, [r2, #2]	@ zero_extendqisi2
 405:..\common\uart_ldr/UART.c ****         locRxBufferWrite = UART_rxBufferWrite;
 333              		.loc 1 405 0
 334 000a D178     		ldrb	r1, [r2, #3]	@ zero_extendqisi2
 406:..\common\uart_ldr/UART.c **** 
 407:..\common\uart_ldr/UART.c ****         if( (UART_rxBufferLoopDetect != 0u) || (locRxBufferRead != locRxBufferWrite) )
 335              		.loc 1 407 0
 336 000c 1079     		ldrb	r0, [r2, #4]	@ zero_extendqisi2
 404:..\common\uart_ldr/UART.c ****         locRxBufferWrite = UART_rxBufferWrite;
 337              		.loc 1 404 0
 338 000e DBB2     		uxtb	r3, r3
 339              	.LVL11:
 405:..\common\uart_ldr/UART.c ****         locRxBufferWrite = UART_rxBufferWrite;
 340              		.loc 1 405 0
 341 0010 C9B2     		uxtb	r1, r1
 342              	.LVL12:
 343              		.loc 1 407 0
 344 0012 08B9     		cbnz	r0, .L21
 345              		.loc 1 407 0 is_stmt 0 discriminator 1
 346 0014 8B42     		cmp	r3, r1
 347 0016 0BD0     		beq	.L22
 348              	.L21:
 408:..\common\uart_ldr/UART.c ****         {
 409:..\common\uart_ldr/UART.c ****             rxData = UART_rxBuffer[locRxBufferRead];
 349              		.loc 1 409 0 is_stmt 1
 350 0018 0B49     		ldr	r1, .L27+8
 351              	.LVL13:
 352 001a C85C     		ldrb	r0, [r1, r3]	@ zero_extendqisi2
 410:..\common\uart_ldr/UART.c ****             locRxBufferRead++;
 353              		.loc 1 410 0
 354 001c 0133     		adds	r3, r3, #1
 355              	.LVL14:
 356 001e DBB2     		uxtb	r3, r3
 357              	.LVL15:
 411:..\common\uart_ldr/UART.c **** 
 412:..\common\uart_ldr/UART.c ****             if(locRxBufferRead >= UART_RX_BUFFER_SIZE)
 413:..\common\uart_ldr/UART.c ****             {
 414:..\common\uart_ldr/UART.c ****                 locRxBufferRead = 0u;
 415:..\common\uart_ldr/UART.c ****             }
 416:..\common\uart_ldr/UART.c ****             /* Update the real pointer */
 417:..\common\uart_ldr/UART.c ****             UART_rxBufferRead = locRxBufferRead;
 358              		.loc 1 417 0
 359 0020 9370     		strb	r3, [r2, #2]
 418:..\common\uart_ldr/UART.c **** 
 419:..\common\uart_ldr/UART.c ****             if(UART_rxBufferLoopDetect != 0u)
 360              		.loc 1 419 0
 361 0022 1379     		ldrb	r3, [r2, #4]	@ zero_extendqisi2
 409:..\common\uart_ldr/UART.c ****             locRxBufferRead++;
 362              		.loc 1 409 0
ARM GAS  C:\Users\chemi\AppData\Local\Temp\ccL45Tva.s 			page 15


 363 0024 C0B2     		uxtb	r0, r0
 364              	.LVL16:
 365              		.loc 1 419 0
 366 0026 33B1     		cbz	r3, .L23
 420:..\common\uart_ldr/UART.c ****             {
 421:..\common\uart_ldr/UART.c ****                 UART_rxBufferLoopDetect = 0u;
 367              		.loc 1 421 0
 368 0028 064B     		ldr	r3, .L27+4
 369 002a 0022     		movs	r2, #0
 370 002c 1A71     		strb	r2, [r3, #4]
 371 002e 02E0     		b	.L23
 372              	.LVL17:
 373              	.L22:
 422:..\common\uart_ldr/UART.c ****                 #if ((UART_RX_INTERRUPT_ENABLED) && (UART_FLOW_CONTROL != 0u))
 423:..\common\uart_ldr/UART.c ****                     /* When Hardware Flow Control selected - return RX mask */
 424:..\common\uart_ldr/UART.c ****                     #if( UART_HD_ENABLED )
 425:..\common\uart_ldr/UART.c ****                         if((UART_CONTROL_REG & UART_CTRL_HD_SEND) == 0u)
 426:..\common\uart_ldr/UART.c ****                         {   /* In Half duplex mode return RX mask only in RX
 427:..\common\uart_ldr/UART.c ****                             *  configuration set, otherwise
 428:..\common\uart_ldr/UART.c ****                             *  mask will be returned in LoadRxConfig() API.
 429:..\common\uart_ldr/UART.c ****                             */
 430:..\common\uart_ldr/UART.c ****                             UART_RXSTATUS_MASK_REG  |= UART_RX_STS_FIFO_NOTEMPTY;
 431:..\common\uart_ldr/UART.c ****                         }
 432:..\common\uart_ldr/UART.c ****                     #else
 433:..\common\uart_ldr/UART.c ****                         UART_RXSTATUS_MASK_REG  |= UART_RX_STS_FIFO_NOTEMPTY;
 434:..\common\uart_ldr/UART.c ****                     #endif /* end UART_HD_ENABLED */
 435:..\common\uart_ldr/UART.c ****                 #endif /* ((UART_RX_INTERRUPT_ENABLED) && (UART_FLOW_CONTROL != 0u)) */
 436:..\common\uart_ldr/UART.c ****             }
 437:..\common\uart_ldr/UART.c ****         }
 438:..\common\uart_ldr/UART.c ****         else
 439:..\common\uart_ldr/UART.c ****         {   /* Needs to check status for RX_STS_FIFO_NOTEMPTY bit */
 440:..\common\uart_ldr/UART.c ****             rxData = UART_RXDATA_REG;
 374              		.loc 1 440 0
 375 0030 064B     		ldr	r3, .L27+12
 376              	.LVL18:
 377 0032 1878     		ldrb	r0, [r3]	@ zero_extendqisi2
 378 0034 C0B2     		uxtb	r0, r0
 379              	.LVL19:
 380              	.L23:
 441:..\common\uart_ldr/UART.c ****         }
 442:..\common\uart_ldr/UART.c **** 
 443:..\common\uart_ldr/UART.c ****         UART_EnableRxInt();
 381              		.loc 1 443 0
 382 0036 064B     		ldr	r3, .L27+16
 383 0038 0122     		movs	r2, #1
 384 003a 1A60     		str	r2, [r3]
 444:..\common\uart_ldr/UART.c **** 
 445:..\common\uart_ldr/UART.c ****     #else
 446:..\common\uart_ldr/UART.c **** 
 447:..\common\uart_ldr/UART.c ****         /* Needs to check status for RX_STS_FIFO_NOTEMPTY bit */
 448:..\common\uart_ldr/UART.c ****         rxData = UART_RXDATA_REG;
 449:..\common\uart_ldr/UART.c **** 
 450:..\common\uart_ldr/UART.c ****     #endif /* (UART_RX_INTERRUPT_ENABLED) */
 451:..\common\uart_ldr/UART.c **** 
 452:..\common\uart_ldr/UART.c ****         return(rxData);
 453:..\common\uart_ldr/UART.c ****     }
 385              		.loc 1 453 0
ARM GAS  C:\Users\chemi\AppData\Local\Temp\ccL45Tva.s 			page 16


 386 003c 7047     		bx	lr
 387              	.L28:
 388 003e 00BF     		.align	2
 389              	.L27:
 390 0040 80E100E0 		.word	-536813184
 391 0044 00000000 		.word	.LANCHOR0
 392 0048 00000000 		.word	UART_rxBuffer
 393 004c 48650040 		.word	1073767752
 394 0050 00E100E0 		.word	-536813312
 395              		.cfi_endproc
 396              	.LFE7:
 397              		.size	UART_ReadRxData, .-UART_ReadRxData
 398              		.section	.text.UART_ReadRxStatus,"ax",%progbits
 399              		.align	1
 400              		.global	UART_ReadRxStatus
 401              		.thumb
 402              		.thumb_func
 403              		.type	UART_ReadRxStatus, %function
 404              	UART_ReadRxStatus:
 405              	.LFB8:
 454:..\common\uart_ldr/UART.c **** 
 455:..\common\uart_ldr/UART.c **** 
 456:..\common\uart_ldr/UART.c ****     /*******************************************************************************
 457:..\common\uart_ldr/UART.c ****     * Function Name: UART_ReadRxStatus
 458:..\common\uart_ldr/UART.c ****     ********************************************************************************
 459:..\common\uart_ldr/UART.c ****     *
 460:..\common\uart_ldr/UART.c ****     * Summary:
 461:..\common\uart_ldr/UART.c ****     *  Returns the current state of the receiver status register and the software
 462:..\common\uart_ldr/UART.c ****     *  buffer overflow status.
 463:..\common\uart_ldr/UART.c ****     *
 464:..\common\uart_ldr/UART.c ****     * Parameters:
 465:..\common\uart_ldr/UART.c ****     *  None.
 466:..\common\uart_ldr/UART.c ****     *
 467:..\common\uart_ldr/UART.c ****     * Return:
 468:..\common\uart_ldr/UART.c ****     *  Current state of the status register.
 469:..\common\uart_ldr/UART.c ****     *
 470:..\common\uart_ldr/UART.c ****     * Side Effect:
 471:..\common\uart_ldr/UART.c ****     *  All status register bits are clear-on-read except
 472:..\common\uart_ldr/UART.c ****     *  UART_RX_STS_FIFO_NOTEMPTY.
 473:..\common\uart_ldr/UART.c ****     *  UART_RX_STS_FIFO_NOTEMPTY clears immediately after RX data
 474:..\common\uart_ldr/UART.c ****     *  register read.
 475:..\common\uart_ldr/UART.c ****     *
 476:..\common\uart_ldr/UART.c ****     * Global Variables:
 477:..\common\uart_ldr/UART.c ****     *  UART_rxBufferOverflow - used to indicate overload condition.
 478:..\common\uart_ldr/UART.c ****     *   It set to one in RX interrupt when there isn't free space in
 479:..\common\uart_ldr/UART.c ****     *   UART_rxBufferRead to write new data. This condition returned
 480:..\common\uart_ldr/UART.c ****     *   and cleared to zero by this API as an
 481:..\common\uart_ldr/UART.c ****     *   UART_RX_STS_SOFT_BUFF_OVER bit along with RX Status register
 482:..\common\uart_ldr/UART.c ****     *   bits.
 483:..\common\uart_ldr/UART.c ****     *
 484:..\common\uart_ldr/UART.c ****     *******************************************************************************/
 485:..\common\uart_ldr/UART.c ****     uint8 UART_ReadRxStatus(void) 
 486:..\common\uart_ldr/UART.c ****     {
 406              		.loc 1 486 0
 407              		.cfi_startproc
 408              		@ args = 0, pretend = 0, frame = 0
 409              		@ frame_needed = 0, uses_anonymous_args = 0
ARM GAS  C:\Users\chemi\AppData\Local\Temp\ccL45Tva.s 			page 17


 410              		@ link register save eliminated.
 487:..\common\uart_ldr/UART.c ****         uint8 status;
 488:..\common\uart_ldr/UART.c **** 
 489:..\common\uart_ldr/UART.c ****         status = UART_RXSTATUS_REG & UART_RX_HW_MASK;
 411              		.loc 1 489 0
 412 0000 054B     		ldr	r3, .L34
 413 0002 1878     		ldrb	r0, [r3]	@ zero_extendqisi2
 490:..\common\uart_ldr/UART.c **** 
 491:..\common\uart_ldr/UART.c ****     #if (UART_RX_INTERRUPT_ENABLED)
 492:..\common\uart_ldr/UART.c ****         if(UART_rxBufferOverflow != 0u)
 414              		.loc 1 492 0
 415 0004 054B     		ldr	r3, .L34+4
 489:..\common\uart_ldr/UART.c **** 
 416              		.loc 1 489 0
 417 0006 00F07F00 		and	r0, r0, #127
 418              	.LVL20:
 419              		.loc 1 492 0
 420 000a 5A79     		ldrb	r2, [r3, #5]	@ zero_extendqisi2
 421 000c 1AB1     		cbz	r2, .L30
 493:..\common\uart_ldr/UART.c ****         {
 494:..\common\uart_ldr/UART.c ****             status |= UART_RX_STS_SOFT_BUFF_OVER;
 495:..\common\uart_ldr/UART.c ****             UART_rxBufferOverflow = 0u;
 422              		.loc 1 495 0
 423 000e 0022     		movs	r2, #0
 494:..\common\uart_ldr/UART.c ****             UART_rxBufferOverflow = 0u;
 424              		.loc 1 494 0
 425 0010 40F08000 		orr	r0, r0, #128
 426              	.LVL21:
 427              		.loc 1 495 0
 428 0014 5A71     		strb	r2, [r3, #5]
 429              	.L30:
 496:..\common\uart_ldr/UART.c ****         }
 497:..\common\uart_ldr/UART.c ****     #endif /* (UART_RX_INTERRUPT_ENABLED) */
 498:..\common\uart_ldr/UART.c **** 
 499:..\common\uart_ldr/UART.c ****         return(status);
 500:..\common\uart_ldr/UART.c ****     }
 430              		.loc 1 500 0
 431 0016 7047     		bx	lr
 432              	.L35:
 433              		.align	2
 434              	.L34:
 435 0018 6B650040 		.word	1073767787
 436 001c 00000000 		.word	.LANCHOR0
 437              		.cfi_endproc
 438              	.LFE8:
 439              		.size	UART_ReadRxStatus, .-UART_ReadRxStatus
 440              		.section	.text.UART_GetChar,"ax",%progbits
 441              		.align	1
 442              		.global	UART_GetChar
 443              		.thumb
 444              		.thumb_func
 445              		.type	UART_GetChar, %function
 446              	UART_GetChar:
 447              	.LFB9:
 501:..\common\uart_ldr/UART.c **** 
 502:..\common\uart_ldr/UART.c **** 
 503:..\common\uart_ldr/UART.c ****     /*******************************************************************************
ARM GAS  C:\Users\chemi\AppData\Local\Temp\ccL45Tva.s 			page 18


 504:..\common\uart_ldr/UART.c ****     * Function Name: UART_GetChar
 505:..\common\uart_ldr/UART.c ****     ********************************************************************************
 506:..\common\uart_ldr/UART.c ****     *
 507:..\common\uart_ldr/UART.c ****     * Summary:
 508:..\common\uart_ldr/UART.c ****     *  Returns the last received byte of data. UART_GetChar() is
 509:..\common\uart_ldr/UART.c ****     *  designed for ASCII characters and returns a uint8 where 1 to 255 are values
 510:..\common\uart_ldr/UART.c ****     *  for valid characters and 0 indicates an error occurred or no data is present.
 511:..\common\uart_ldr/UART.c ****     *
 512:..\common\uart_ldr/UART.c ****     * Parameters:
 513:..\common\uart_ldr/UART.c ****     *  None.
 514:..\common\uart_ldr/UART.c ****     *
 515:..\common\uart_ldr/UART.c ****     * Return:
 516:..\common\uart_ldr/UART.c ****     *  Character read from UART RX buffer. ASCII characters from 1 to 255 are valid.
 517:..\common\uart_ldr/UART.c ****     *  A returned zero signifies an error condition or no data available.
 518:..\common\uart_ldr/UART.c ****     *
 519:..\common\uart_ldr/UART.c ****     * Global Variables:
 520:..\common\uart_ldr/UART.c ****     *  UART_rxBuffer - RAM buffer pointer for save received data.
 521:..\common\uart_ldr/UART.c ****     *  UART_rxBufferWrite - cyclic index for write to rxBuffer,
 522:..\common\uart_ldr/UART.c ****     *     checked to identify new data.
 523:..\common\uart_ldr/UART.c ****     *  UART_rxBufferRead - cyclic index for read from rxBuffer,
 524:..\common\uart_ldr/UART.c ****     *     incremented after each byte has been read from buffer.
 525:..\common\uart_ldr/UART.c ****     *  UART_rxBufferLoopDetect - cleared if loop condition was detected
 526:..\common\uart_ldr/UART.c ****     *     in RX ISR.
 527:..\common\uart_ldr/UART.c ****     *
 528:..\common\uart_ldr/UART.c ****     * Reentrant:
 529:..\common\uart_ldr/UART.c ****     *  No.
 530:..\common\uart_ldr/UART.c ****     *
 531:..\common\uart_ldr/UART.c ****     *******************************************************************************/
 532:..\common\uart_ldr/UART.c ****     uint8 UART_GetChar(void) 
 533:..\common\uart_ldr/UART.c ****     {
 448              		.loc 1 533 0
 449              		.cfi_startproc
 450              		@ args = 0, pretend = 0, frame = 0
 451              		@ frame_needed = 0, uses_anonymous_args = 0
 452              		@ link register save eliminated.
 453              	.LVL22:
 534:..\common\uart_ldr/UART.c ****         uint8 rxData = 0u;
 535:..\common\uart_ldr/UART.c ****         uint8 rxStatus;
 536:..\common\uart_ldr/UART.c **** 
 537:..\common\uart_ldr/UART.c ****     #if (UART_RX_INTERRUPT_ENABLED)
 538:..\common\uart_ldr/UART.c ****         uint8 locRxBufferRead;
 539:..\common\uart_ldr/UART.c ****         uint8 locRxBufferWrite;
 540:..\common\uart_ldr/UART.c **** 
 541:..\common\uart_ldr/UART.c ****         /* Protect variables that could change on interrupt */
 542:..\common\uart_ldr/UART.c ****         UART_DisableRxInt();
 454              		.loc 1 542 0
 455 0000 144B     		ldr	r3, .L45
 456 0002 0122     		movs	r2, #1
 457 0004 1A60     		str	r2, [r3]
 543:..\common\uart_ldr/UART.c **** 
 544:..\common\uart_ldr/UART.c ****         locRxBufferRead  = UART_rxBufferRead;
 458              		.loc 1 544 0
 459 0006 144A     		ldr	r2, .L45+4
 460 0008 9378     		ldrb	r3, [r2, #2]	@ zero_extendqisi2
 545:..\common\uart_ldr/UART.c ****         locRxBufferWrite = UART_rxBufferWrite;
 461              		.loc 1 545 0
 462 000a D178     		ldrb	r1, [r2, #3]	@ zero_extendqisi2
ARM GAS  C:\Users\chemi\AppData\Local\Temp\ccL45Tva.s 			page 19


 546:..\common\uart_ldr/UART.c **** 
 547:..\common\uart_ldr/UART.c ****         if( (UART_rxBufferLoopDetect != 0u) || (locRxBufferRead != locRxBufferWrite) )
 463              		.loc 1 547 0
 464 000c 1079     		ldrb	r0, [r2, #4]	@ zero_extendqisi2
 544:..\common\uart_ldr/UART.c ****         locRxBufferWrite = UART_rxBufferWrite;
 465              		.loc 1 544 0
 466 000e DBB2     		uxtb	r3, r3
 467              	.LVL23:
 545:..\common\uart_ldr/UART.c ****         locRxBufferWrite = UART_rxBufferWrite;
 468              		.loc 1 545 0
 469 0010 C9B2     		uxtb	r1, r1
 470              	.LVL24:
 471              		.loc 1 547 0
 472 0012 08B9     		cbnz	r0, .L37
 473              		.loc 1 547 0 is_stmt 0 discriminator 1
 474 0014 8B42     		cmp	r3, r1
 475 0016 0BD0     		beq	.L38
 476              	.L37:
 548:..\common\uart_ldr/UART.c ****         {
 549:..\common\uart_ldr/UART.c ****             rxData = UART_rxBuffer[locRxBufferRead];
 477              		.loc 1 549 0 is_stmt 1
 478 0018 1049     		ldr	r1, .L45+8
 479              	.LVL25:
 480 001a C85C     		ldrb	r0, [r1, r3]	@ zero_extendqisi2
 550:..\common\uart_ldr/UART.c ****             locRxBufferRead++;
 481              		.loc 1 550 0
 482 001c 0133     		adds	r3, r3, #1
 483              	.LVL26:
 484 001e DBB2     		uxtb	r3, r3
 485              	.LVL27:
 551:..\common\uart_ldr/UART.c ****             if(locRxBufferRead >= UART_RX_BUFFER_SIZE)
 552:..\common\uart_ldr/UART.c ****             {
 553:..\common\uart_ldr/UART.c ****                 locRxBufferRead = 0u;
 554:..\common\uart_ldr/UART.c ****             }
 555:..\common\uart_ldr/UART.c ****             /* Update the real pointer */
 556:..\common\uart_ldr/UART.c ****             UART_rxBufferRead = locRxBufferRead;
 486              		.loc 1 556 0
 487 0020 9370     		strb	r3, [r2, #2]
 557:..\common\uart_ldr/UART.c **** 
 558:..\common\uart_ldr/UART.c ****             if(UART_rxBufferLoopDetect != 0u)
 488              		.loc 1 558 0
 489 0022 1379     		ldrb	r3, [r2, #4]	@ zero_extendqisi2
 549:..\common\uart_ldr/UART.c ****             locRxBufferRead++;
 490              		.loc 1 549 0
 491 0024 C0B2     		uxtb	r0, r0
 492              	.LVL28:
 493              		.loc 1 558 0
 494 0026 8BB1     		cbz	r3, .L39
 559:..\common\uart_ldr/UART.c ****             {
 560:..\common\uart_ldr/UART.c ****                 UART_rxBufferLoopDetect = 0u;
 495              		.loc 1 560 0
 496 0028 0B4B     		ldr	r3, .L45+4
 497 002a 0022     		movs	r2, #0
 498 002c 1A71     		strb	r2, [r3, #4]
 499 002e 0DE0     		b	.L39
 500              	.LVL29:
 501              	.L38:
ARM GAS  C:\Users\chemi\AppData\Local\Temp\ccL45Tva.s 			page 20


 561:..\common\uart_ldr/UART.c ****                 #if( (UART_RX_INTERRUPT_ENABLED) && (UART_FLOW_CONTROL != 0u) )
 562:..\common\uart_ldr/UART.c ****                     /* When Hardware Flow Control selected - return RX mask */
 563:..\common\uart_ldr/UART.c ****                     #if( UART_HD_ENABLED )
 564:..\common\uart_ldr/UART.c ****                         if((UART_CONTROL_REG & UART_CTRL_HD_SEND) == 0u)
 565:..\common\uart_ldr/UART.c ****                         {   /* In Half duplex mode return RX mask only if
 566:..\common\uart_ldr/UART.c ****                             *  RX configuration set, otherwise
 567:..\common\uart_ldr/UART.c ****                             *  mask will be returned in LoadRxConfig() API.
 568:..\common\uart_ldr/UART.c ****                             */
 569:..\common\uart_ldr/UART.c ****                             UART_RXSTATUS_MASK_REG |= UART_RX_STS_FIFO_NOTEMPTY;
 570:..\common\uart_ldr/UART.c ****                         }
 571:..\common\uart_ldr/UART.c ****                     #else
 572:..\common\uart_ldr/UART.c ****                         UART_RXSTATUS_MASK_REG |= UART_RX_STS_FIFO_NOTEMPTY;
 573:..\common\uart_ldr/UART.c ****                     #endif /* end UART_HD_ENABLED */
 574:..\common\uart_ldr/UART.c ****                 #endif /* UART_RX_INTERRUPT_ENABLED and Hardware flow control*/
 575:..\common\uart_ldr/UART.c ****             }
 576:..\common\uart_ldr/UART.c **** 
 577:..\common\uart_ldr/UART.c ****         }
 578:..\common\uart_ldr/UART.c ****         else
 579:..\common\uart_ldr/UART.c ****         {   rxStatus = UART_RXSTATUS_REG;
 502              		.loc 1 579 0
 503 0030 0B4B     		ldr	r3, .L45+12
 504              	.LVL30:
 505 0032 1B78     		ldrb	r3, [r3]	@ zero_extendqisi2
 506 0034 DBB2     		uxtb	r3, r3
 507              	.LVL31:
 580:..\common\uart_ldr/UART.c ****             if((rxStatus & UART_RX_STS_FIFO_NOTEMPTY) != 0u)
 508              		.loc 1 580 0
 509 0036 03F02002 		and	r2, r3, #32
 510 003a 02F0FF00 		and	r0, r2, #255
 511 003e 2AB1     		cbz	r2, .L39
 581:..\common\uart_ldr/UART.c ****             {   /* Read received data from FIFO */
 582:..\common\uart_ldr/UART.c ****                 rxData = UART_RXDATA_REG;
 512              		.loc 1 582 0
 513 0040 084A     		ldr	r2, .L45+16
 583:..\common\uart_ldr/UART.c ****                 /*Check status on error*/
 584:..\common\uart_ldr/UART.c ****                 if((rxStatus & (UART_RX_STS_BREAK | UART_RX_STS_PAR_ERROR |
 585:..\common\uart_ldr/UART.c ****                                 UART_RX_STS_STOP_ERROR | UART_RX_STS_OVERRUN)) != 0u)
 586:..\common\uart_ldr/UART.c ****                 {
 587:..\common\uart_ldr/UART.c ****                     rxData = 0u;
 514              		.loc 1 587 0
 515 0042 13F01E0F 		tst	r3, #30
 582:..\common\uart_ldr/UART.c ****                 /*Check status on error*/
 516              		.loc 1 582 0
 517 0046 1078     		ldrb	r0, [r2]	@ zero_extendqisi2
 518              	.LVL32:
 519              		.loc 1 587 0
 520 0048 18BF     		it	ne
 521 004a 0020     		movne	r0, #0
 522              	.LVL33:
 523              	.L39:
 588:..\common\uart_ldr/UART.c ****                 }
 589:..\common\uart_ldr/UART.c ****             }
 590:..\common\uart_ldr/UART.c ****         }
 591:..\common\uart_ldr/UART.c **** 
 592:..\common\uart_ldr/UART.c ****         UART_EnableRxInt();
 524              		.loc 1 592 0
 525 004c 064B     		ldr	r3, .L45+20
ARM GAS  C:\Users\chemi\AppData\Local\Temp\ccL45Tva.s 			page 21


 526 004e 0122     		movs	r2, #1
 527 0050 1A60     		str	r2, [r3]
 593:..\common\uart_ldr/UART.c **** 
 594:..\common\uart_ldr/UART.c ****     #else
 595:..\common\uart_ldr/UART.c **** 
 596:..\common\uart_ldr/UART.c ****         rxStatus =UART_RXSTATUS_REG;
 597:..\common\uart_ldr/UART.c ****         if((rxStatus & UART_RX_STS_FIFO_NOTEMPTY) != 0u)
 598:..\common\uart_ldr/UART.c ****         {
 599:..\common\uart_ldr/UART.c ****             /* Read received data from FIFO */
 600:..\common\uart_ldr/UART.c ****             rxData = UART_RXDATA_REG;
 601:..\common\uart_ldr/UART.c **** 
 602:..\common\uart_ldr/UART.c ****             /*Check status on error*/
 603:..\common\uart_ldr/UART.c ****             if((rxStatus & (UART_RX_STS_BREAK | UART_RX_STS_PAR_ERROR |
 604:..\common\uart_ldr/UART.c ****                             UART_RX_STS_STOP_ERROR | UART_RX_STS_OVERRUN)) != 0u)
 605:..\common\uart_ldr/UART.c ****             {
 606:..\common\uart_ldr/UART.c ****                 rxData = 0u;
 607:..\common\uart_ldr/UART.c ****             }
 608:..\common\uart_ldr/UART.c ****         }
 609:..\common\uart_ldr/UART.c ****     #endif /* (UART_RX_INTERRUPT_ENABLED) */
 610:..\common\uart_ldr/UART.c **** 
 611:..\common\uart_ldr/UART.c ****         return(rxData);
 612:..\common\uart_ldr/UART.c ****     }
 528              		.loc 1 612 0
 529 0052 7047     		bx	lr
 530              	.L46:
 531              		.align	2
 532              	.L45:
 533 0054 80E100E0 		.word	-536813184
 534 0058 00000000 		.word	.LANCHOR0
 535 005c 00000000 		.word	UART_rxBuffer
 536 0060 6B650040 		.word	1073767787
 537 0064 48650040 		.word	1073767752
 538 0068 00E100E0 		.word	-536813312
 539              		.cfi_endproc
 540              	.LFE9:
 541              		.size	UART_GetChar, .-UART_GetChar
 542              		.section	.text.UART_GetByte,"ax",%progbits
 543              		.align	1
 544              		.global	UART_GetByte
 545              		.thumb
 546              		.thumb_func
 547              		.type	UART_GetByte, %function
 548              	UART_GetByte:
 549              	.LFB10:
 613:..\common\uart_ldr/UART.c **** 
 614:..\common\uart_ldr/UART.c **** 
 615:..\common\uart_ldr/UART.c ****     /*******************************************************************************
 616:..\common\uart_ldr/UART.c ****     * Function Name: UART_GetByte
 617:..\common\uart_ldr/UART.c ****     ********************************************************************************
 618:..\common\uart_ldr/UART.c ****     *
 619:..\common\uart_ldr/UART.c ****     * Summary:
 620:..\common\uart_ldr/UART.c ****     *  Reads UART RX buffer immediately, returns received character and error
 621:..\common\uart_ldr/UART.c ****     *  condition.
 622:..\common\uart_ldr/UART.c ****     *
 623:..\common\uart_ldr/UART.c ****     * Parameters:
 624:..\common\uart_ldr/UART.c ****     *  None.
 625:..\common\uart_ldr/UART.c ****     *
ARM GAS  C:\Users\chemi\AppData\Local\Temp\ccL45Tva.s 			page 22


 626:..\common\uart_ldr/UART.c ****     * Return:
 627:..\common\uart_ldr/UART.c ****     *  MSB contains status and LSB contains UART RX data. If the MSB is nonzero,
 628:..\common\uart_ldr/UART.c ****     *  an error has occurred.
 629:..\common\uart_ldr/UART.c ****     *
 630:..\common\uart_ldr/UART.c ****     * Reentrant:
 631:..\common\uart_ldr/UART.c ****     *  No.
 632:..\common\uart_ldr/UART.c ****     *
 633:..\common\uart_ldr/UART.c ****     *******************************************************************************/
 634:..\common\uart_ldr/UART.c ****     uint16 UART_GetByte(void) 
 635:..\common\uart_ldr/UART.c ****     {
 550              		.loc 1 635 0
 551              		.cfi_startproc
 552              		@ args = 0, pretend = 0, frame = 0
 553              		@ frame_needed = 0, uses_anonymous_args = 0
 554 0000 10B5     		push	{r4, lr}
 555              		.cfi_def_cfa_offset 8
 556              		.cfi_offset 4, -8
 557              		.cfi_offset 14, -4
 636:..\common\uart_ldr/UART.c ****         
 637:..\common\uart_ldr/UART.c ****     #if (UART_RX_INTERRUPT_ENABLED)
 638:..\common\uart_ldr/UART.c ****         uint16 locErrorStatus;
 639:..\common\uart_ldr/UART.c ****         /* Protect variables that could change on interrupt */
 640:..\common\uart_ldr/UART.c ****         UART_DisableRxInt();
 558              		.loc 1 640 0
 559 0002 074A     		ldr	r2, .L48
 560 0004 0123     		movs	r3, #1
 561 0006 1360     		str	r3, [r2]
 641:..\common\uart_ldr/UART.c ****         locErrorStatus = (uint16)UART_errorStatus;
 562              		.loc 1 641 0
 563 0008 064A     		ldr	r2, .L48+4
 642:..\common\uart_ldr/UART.c ****         UART_errorStatus = 0u;
 564              		.loc 1 642 0
 565 000a 0021     		movs	r1, #0
 641:..\common\uart_ldr/UART.c ****         locErrorStatus = (uint16)UART_errorStatus;
 566              		.loc 1 641 0
 567 000c 1478     		ldrb	r4, [r2]	@ zero_extendqisi2
 568              	.LVL34:
 569              		.loc 1 642 0
 570 000e 1170     		strb	r1, [r2]
 643:..\common\uart_ldr/UART.c ****         UART_EnableRxInt();
 571              		.loc 1 643 0
 572 0010 054A     		ldr	r2, .L48+8
 573 0012 1360     		str	r3, [r2]
 644:..\common\uart_ldr/UART.c ****         return ( (uint16)(locErrorStatus << 8u) | UART_ReadRxData() );
 574              		.loc 1 644 0
 575 0014 FFF7FEFF 		bl	UART_ReadRxData
 576              	.LVL35:
 577 0018 40EA0420 		orr	r0, r0, r4, lsl #8
 645:..\common\uart_ldr/UART.c ****     #else
 646:..\common\uart_ldr/UART.c ****         return ( ((uint16)UART_ReadRxStatus() << 8u) | UART_ReadRxData() );
 647:..\common\uart_ldr/UART.c ****     #endif /* UART_RX_INTERRUPT_ENABLED */
 648:..\common\uart_ldr/UART.c ****         
 649:..\common\uart_ldr/UART.c ****     }
 578              		.loc 1 649 0
 579 001c 80B2     		uxth	r0, r0
 580 001e 10BD     		pop	{r4, pc}
 581              	.LVL36:
ARM GAS  C:\Users\chemi\AppData\Local\Temp\ccL45Tva.s 			page 23


 582              	.L49:
 583              		.align	2
 584              	.L48:
 585 0020 80E100E0 		.word	-536813184
 586 0024 00000000 		.word	.LANCHOR0
 587 0028 00E100E0 		.word	-536813312
 588              		.cfi_endproc
 589              	.LFE10:
 590              		.size	UART_GetByte, .-UART_GetByte
 591              		.section	.text.UART_GetRxBufferSize,"ax",%progbits
 592              		.align	1
 593              		.global	UART_GetRxBufferSize
 594              		.thumb
 595              		.thumb_func
 596              		.type	UART_GetRxBufferSize, %function
 597              	UART_GetRxBufferSize:
 598              	.LFB11:
 650:..\common\uart_ldr/UART.c **** 
 651:..\common\uart_ldr/UART.c **** 
 652:..\common\uart_ldr/UART.c ****     /*******************************************************************************
 653:..\common\uart_ldr/UART.c ****     * Function Name: UART_GetRxBufferSize
 654:..\common\uart_ldr/UART.c ****     ********************************************************************************
 655:..\common\uart_ldr/UART.c ****     *
 656:..\common\uart_ldr/UART.c ****     * Summary:
 657:..\common\uart_ldr/UART.c ****     *  Returns the number of received bytes available in the RX buffer.
 658:..\common\uart_ldr/UART.c ****     *  * RX software buffer is disabled (RX Buffer Size parameter is equal to 4): 
 659:..\common\uart_ldr/UART.c ****     *    returns 0 for empty RX FIFO or 1 for not empty RX FIFO.
 660:..\common\uart_ldr/UART.c ****     *  * RX software buffer is enabled: returns the number of bytes available in 
 661:..\common\uart_ldr/UART.c ****     *    the RX software buffer. Bytes available in the RX FIFO do not take to 
 662:..\common\uart_ldr/UART.c ****     *    account.
 663:..\common\uart_ldr/UART.c ****     *
 664:..\common\uart_ldr/UART.c ****     * Parameters:
 665:..\common\uart_ldr/UART.c ****     *  None.
 666:..\common\uart_ldr/UART.c ****     *
 667:..\common\uart_ldr/UART.c ****     * Return:
 668:..\common\uart_ldr/UART.c ****     *  uint8: Number of bytes in the RX buffer. 
 669:..\common\uart_ldr/UART.c ****     *    Return value type depends on RX Buffer Size parameter.
 670:..\common\uart_ldr/UART.c ****     *
 671:..\common\uart_ldr/UART.c ****     * Global Variables:
 672:..\common\uart_ldr/UART.c ****     *  UART_rxBufferWrite - used to calculate left bytes.
 673:..\common\uart_ldr/UART.c ****     *  UART_rxBufferRead - used to calculate left bytes.
 674:..\common\uart_ldr/UART.c ****     *  UART_rxBufferLoopDetect - checked to decide left bytes amount.
 675:..\common\uart_ldr/UART.c ****     *
 676:..\common\uart_ldr/UART.c ****     * Reentrant:
 677:..\common\uart_ldr/UART.c ****     *  No.
 678:..\common\uart_ldr/UART.c ****     *
 679:..\common\uart_ldr/UART.c ****     * Theory:
 680:..\common\uart_ldr/UART.c ****     *  Allows the user to find out how full the RX Buffer is.
 681:..\common\uart_ldr/UART.c ****     *
 682:..\common\uart_ldr/UART.c ****     *******************************************************************************/
 683:..\common\uart_ldr/UART.c ****     uint8 UART_GetRxBufferSize(void)
 684:..\common\uart_ldr/UART.c ****                                                             
 685:..\common\uart_ldr/UART.c ****     {
 599              		.loc 1 685 0
 600              		.cfi_startproc
 601              		@ args = 0, pretend = 0, frame = 0
 602              		@ frame_needed = 0, uses_anonymous_args = 0
ARM GAS  C:\Users\chemi\AppData\Local\Temp\ccL45Tva.s 			page 24


 603              		@ link register save eliminated.
 686:..\common\uart_ldr/UART.c ****         uint8 size;
 687:..\common\uart_ldr/UART.c **** 
 688:..\common\uart_ldr/UART.c ****     #if (UART_RX_INTERRUPT_ENABLED)
 689:..\common\uart_ldr/UART.c **** 
 690:..\common\uart_ldr/UART.c ****         /* Protect variables that could change on interrupt */
 691:..\common\uart_ldr/UART.c ****         UART_DisableRxInt();
 604              		.loc 1 691 0
 605 0000 0A4B     		ldr	r3, .L54
 606 0002 0122     		movs	r2, #1
 607 0004 1A60     		str	r2, [r3]
 692:..\common\uart_ldr/UART.c **** 
 693:..\common\uart_ldr/UART.c ****         if(UART_rxBufferRead == UART_rxBufferWrite)
 608              		.loc 1 693 0
 609 0006 0A4A     		ldr	r2, .L54+4
 610 0008 9178     		ldrb	r1, [r2, #2]	@ zero_extendqisi2
 611 000a D378     		ldrb	r3, [r2, #3]	@ zero_extendqisi2
 612 000c 9942     		cmp	r1, r3
 613 000e 02D1     		bne	.L51
 694:..\common\uart_ldr/UART.c ****         {
 695:..\common\uart_ldr/UART.c ****             if(UART_rxBufferLoopDetect != 0u)
 614              		.loc 1 695 0
 615 0010 1379     		ldrb	r3, [r2, #4]	@ zero_extendqisi2
 696:..\common\uart_ldr/UART.c ****             {
 697:..\common\uart_ldr/UART.c ****                 size = UART_RX_BUFFER_SIZE;
 616              		.loc 1 697 0
 617 0012 0020     		movs	r0, #0
 618 0014 05E0     		b	.L52
 619              	.L51:
 698:..\common\uart_ldr/UART.c ****             }
 699:..\common\uart_ldr/UART.c ****             else
 700:..\common\uart_ldr/UART.c ****             {
 701:..\common\uart_ldr/UART.c ****                 size = 0u;
 702:..\common\uart_ldr/UART.c ****             }
 703:..\common\uart_ldr/UART.c ****         }
 704:..\common\uart_ldr/UART.c ****         else if(UART_rxBufferRead < UART_rxBufferWrite)
 620              		.loc 1 704 0
 621 0016 9178     		ldrb	r1, [r2, #2]	@ zero_extendqisi2
 622 0018 D378     		ldrb	r3, [r2, #3]	@ zero_extendqisi2
 705:..\common\uart_ldr/UART.c ****         {
 706:..\common\uart_ldr/UART.c ****             size = (UART_rxBufferWrite - UART_rxBufferRead);
 623              		.loc 1 706 0
 624 001a D378     		ldrb	r3, [r2, #3]	@ zero_extendqisi2
 625 001c 9078     		ldrb	r0, [r2, #2]	@ zero_extendqisi2
 626 001e 181A     		subs	r0, r3, r0
 627 0020 C0B2     		uxtb	r0, r0
 628              	.L52:
 629              	.LVL37:
 707:..\common\uart_ldr/UART.c ****         }
 708:..\common\uart_ldr/UART.c ****         else
 709:..\common\uart_ldr/UART.c ****         {
 710:..\common\uart_ldr/UART.c ****             size = (UART_RX_BUFFER_SIZE - UART_rxBufferRead) + UART_rxBufferWrite;
 711:..\common\uart_ldr/UART.c ****         }
 712:..\common\uart_ldr/UART.c **** 
 713:..\common\uart_ldr/UART.c ****         UART_EnableRxInt();
 630              		.loc 1 713 0
 631 0022 044B     		ldr	r3, .L54+8
ARM GAS  C:\Users\chemi\AppData\Local\Temp\ccL45Tva.s 			page 25


 632 0024 0122     		movs	r2, #1
 633 0026 1A60     		str	r2, [r3]
 714:..\common\uart_ldr/UART.c **** 
 715:..\common\uart_ldr/UART.c ****     #else
 716:..\common\uart_ldr/UART.c **** 
 717:..\common\uart_ldr/UART.c ****         /* We can only know if there is data in the fifo. */
 718:..\common\uart_ldr/UART.c ****         size = ((UART_RXSTATUS_REG & UART_RX_STS_FIFO_NOTEMPTY) != 0u) ? 1u : 0u;
 719:..\common\uart_ldr/UART.c **** 
 720:..\common\uart_ldr/UART.c ****     #endif /* (UART_RX_INTERRUPT_ENABLED) */
 721:..\common\uart_ldr/UART.c **** 
 722:..\common\uart_ldr/UART.c ****         return(size);
 723:..\common\uart_ldr/UART.c ****     }
 634              		.loc 1 723 0
 635 0028 7047     		bx	lr
 636              	.L55:
 637 002a 00BF     		.align	2
 638              	.L54:
 639 002c 80E100E0 		.word	-536813184
 640 0030 00000000 		.word	.LANCHOR0
 641 0034 00E100E0 		.word	-536813312
 642              		.cfi_endproc
 643              	.LFE11:
 644              		.size	UART_GetRxBufferSize, .-UART_GetRxBufferSize
 645              		.section	.text.UART_ClearRxBuffer,"ax",%progbits
 646              		.align	1
 647              		.global	UART_ClearRxBuffer
 648              		.thumb
 649              		.thumb_func
 650              		.type	UART_ClearRxBuffer, %function
 651              	UART_ClearRxBuffer:
 652              	.LFB12:
 724:..\common\uart_ldr/UART.c **** 
 725:..\common\uart_ldr/UART.c **** 
 726:..\common\uart_ldr/UART.c ****     /*******************************************************************************
 727:..\common\uart_ldr/UART.c ****     * Function Name: UART_ClearRxBuffer
 728:..\common\uart_ldr/UART.c ****     ********************************************************************************
 729:..\common\uart_ldr/UART.c ****     *
 730:..\common\uart_ldr/UART.c ****     * Summary:
 731:..\common\uart_ldr/UART.c ****     *  Clears the receiver memory buffer and hardware RX FIFO of all received data.
 732:..\common\uart_ldr/UART.c ****     *
 733:..\common\uart_ldr/UART.c ****     * Parameters:
 734:..\common\uart_ldr/UART.c ****     *  None.
 735:..\common\uart_ldr/UART.c ****     *
 736:..\common\uart_ldr/UART.c ****     * Return:
 737:..\common\uart_ldr/UART.c ****     *  None.
 738:..\common\uart_ldr/UART.c ****     *
 739:..\common\uart_ldr/UART.c ****     * Global Variables:
 740:..\common\uart_ldr/UART.c ****     *  UART_rxBufferWrite - cleared to zero.
 741:..\common\uart_ldr/UART.c ****     *  UART_rxBufferRead - cleared to zero.
 742:..\common\uart_ldr/UART.c ****     *  UART_rxBufferLoopDetect - cleared to zero.
 743:..\common\uart_ldr/UART.c ****     *  UART_rxBufferOverflow - cleared to zero.
 744:..\common\uart_ldr/UART.c ****     *
 745:..\common\uart_ldr/UART.c ****     * Reentrant:
 746:..\common\uart_ldr/UART.c ****     *  No.
 747:..\common\uart_ldr/UART.c ****     *
 748:..\common\uart_ldr/UART.c ****     * Theory:
 749:..\common\uart_ldr/UART.c ****     *  Setting the pointers to zero makes the system believe there is no data to
ARM GAS  C:\Users\chemi\AppData\Local\Temp\ccL45Tva.s 			page 26


 750:..\common\uart_ldr/UART.c ****     *  read and writing will resume at address 0 overwriting any data that may
 751:..\common\uart_ldr/UART.c ****     *  have remained in the RAM.
 752:..\common\uart_ldr/UART.c ****     *
 753:..\common\uart_ldr/UART.c ****     * Side Effects:
 754:..\common\uart_ldr/UART.c ****     *  Any received data not read from the RAM or FIFO buffer will be lost.
 755:..\common\uart_ldr/UART.c ****     *
 756:..\common\uart_ldr/UART.c ****     *******************************************************************************/
 757:..\common\uart_ldr/UART.c ****     void UART_ClearRxBuffer(void) 
 758:..\common\uart_ldr/UART.c ****     {
 653              		.loc 1 758 0
 654              		.cfi_startproc
 655              		@ args = 0, pretend = 0, frame = 0
 656              		@ frame_needed = 0, uses_anonymous_args = 0
 657 0000 08B5     		push	{r3, lr}
 658              		.cfi_def_cfa_offset 8
 659              		.cfi_offset 3, -8
 660              		.cfi_offset 14, -4
 759:..\common\uart_ldr/UART.c ****         uint8 enableInterrupts;
 760:..\common\uart_ldr/UART.c **** 
 761:..\common\uart_ldr/UART.c ****         /* Clear the HW FIFO */
 762:..\common\uart_ldr/UART.c ****         enableInterrupts = CyEnterCriticalSection();
 661              		.loc 1 762 0
 662 0002 FFF7FEFF 		bl	CyEnterCriticalSection
 663              	.LVL38:
 763:..\common\uart_ldr/UART.c ****         UART_RXDATA_AUX_CTL_REG |= (uint8)  UART_RX_FIFO_CLR;
 664              		.loc 1 763 0
 665 0006 0B4B     		ldr	r3, .L57
 666 0008 1A78     		ldrb	r2, [r3]	@ zero_extendqisi2
 667 000a 42F00102 		orr	r2, r2, #1
 668 000e 1A70     		strb	r2, [r3]
 764:..\common\uart_ldr/UART.c ****         UART_RXDATA_AUX_CTL_REG &= (uint8) ~UART_RX_FIFO_CLR;
 669              		.loc 1 764 0
 670 0010 1A78     		ldrb	r2, [r3]	@ zero_extendqisi2
 671 0012 02F0FE02 		and	r2, r2, #254
 672 0016 1A70     		strb	r2, [r3]
 765:..\common\uart_ldr/UART.c ****         CyExitCriticalSection(enableInterrupts);
 673              		.loc 1 765 0
 674 0018 FFF7FEFF 		bl	CyExitCriticalSection
 675              	.LVL39:
 766:..\common\uart_ldr/UART.c **** 
 767:..\common\uart_ldr/UART.c ****     #if (UART_RX_INTERRUPT_ENABLED)
 768:..\common\uart_ldr/UART.c **** 
 769:..\common\uart_ldr/UART.c ****         /* Protect variables that could change on interrupt. */
 770:..\common\uart_ldr/UART.c ****         UART_DisableRxInt();
 676              		.loc 1 770 0
 677 001c 064B     		ldr	r3, .L57+4
 678 001e 0121     		movs	r1, #1
 679 0020 1960     		str	r1, [r3]
 771:..\common\uart_ldr/UART.c **** 
 772:..\common\uart_ldr/UART.c ****         UART_rxBufferRead = 0u;
 680              		.loc 1 772 0
 681 0022 064B     		ldr	r3, .L57+8
 682 0024 0022     		movs	r2, #0
 683 0026 9A70     		strb	r2, [r3, #2]
 773:..\common\uart_ldr/UART.c ****         UART_rxBufferWrite = 0u;
 684              		.loc 1 773 0
 685 0028 DA70     		strb	r2, [r3, #3]
ARM GAS  C:\Users\chemi\AppData\Local\Temp\ccL45Tva.s 			page 27


 774:..\common\uart_ldr/UART.c ****         UART_rxBufferLoopDetect = 0u;
 686              		.loc 1 774 0
 687 002a 1A71     		strb	r2, [r3, #4]
 775:..\common\uart_ldr/UART.c ****         UART_rxBufferOverflow = 0u;
 688              		.loc 1 775 0
 689 002c 5A71     		strb	r2, [r3, #5]
 776:..\common\uart_ldr/UART.c **** 
 777:..\common\uart_ldr/UART.c ****         UART_EnableRxInt();
 690              		.loc 1 777 0
 691 002e 044B     		ldr	r3, .L57+12
 692 0030 1960     		str	r1, [r3]
 693 0032 08BD     		pop	{r3, pc}
 694              	.L58:
 695              		.align	2
 696              	.L57:
 697 0034 98650040 		.word	1073767832
 698 0038 80E100E0 		.word	-536813184
 699 003c 00000000 		.word	.LANCHOR0
 700 0040 00E100E0 		.word	-536813312
 701              		.cfi_endproc
 702              	.LFE12:
 703              		.size	UART_ClearRxBuffer, .-UART_ClearRxBuffer
 704              		.section	.text.UART_SetRxAddressMode,"ax",%progbits
 705              		.align	1
 706              		.global	UART_SetRxAddressMode
 707              		.thumb
 708              		.thumb_func
 709              		.type	UART_SetRxAddressMode, %function
 710              	UART_SetRxAddressMode:
 711              	.LFB28:
 712              		.cfi_startproc
 713              		@ args = 0, pretend = 0, frame = 0
 714              		@ frame_needed = 0, uses_anonymous_args = 0
 715              		@ link register save eliminated.
 716 0000 7047     		bx	lr
 717              		.cfi_endproc
 718              	.LFE28:
 719              		.size	UART_SetRxAddressMode, .-UART_SetRxAddressMode
 720              		.section	.text.UART_SetRxAddress1,"ax",%progbits
 721              		.align	1
 722              		.global	UART_SetRxAddress1
 723              		.thumb
 724              		.thumb_func
 725              		.type	UART_SetRxAddress1, %function
 726              	UART_SetRxAddress1:
 727              	.LFB14:
 778:..\common\uart_ldr/UART.c **** 
 779:..\common\uart_ldr/UART.c ****     #endif /* (UART_RX_INTERRUPT_ENABLED) */
 780:..\common\uart_ldr/UART.c **** 
 781:..\common\uart_ldr/UART.c ****     }
 782:..\common\uart_ldr/UART.c **** 
 783:..\common\uart_ldr/UART.c **** 
 784:..\common\uart_ldr/UART.c ****     /*******************************************************************************
 785:..\common\uart_ldr/UART.c ****     * Function Name: UART_SetRxAddressMode
 786:..\common\uart_ldr/UART.c ****     ********************************************************************************
 787:..\common\uart_ldr/UART.c ****     *
 788:..\common\uart_ldr/UART.c ****     * Summary:
ARM GAS  C:\Users\chemi\AppData\Local\Temp\ccL45Tva.s 			page 28


 789:..\common\uart_ldr/UART.c ****     *  Sets the software controlled Addressing mode used by the RX portion of the
 790:..\common\uart_ldr/UART.c ****     *  UART.
 791:..\common\uart_ldr/UART.c ****     *
 792:..\common\uart_ldr/UART.c ****     * Parameters:
 793:..\common\uart_ldr/UART.c ****     *  addressMode: Enumerated value indicating the mode of RX addressing
 794:..\common\uart_ldr/UART.c ****     *  UART__B_UART__AM_SW_BYTE_BYTE -  Software Byte-by-Byte address
 795:..\common\uart_ldr/UART.c ****     *                                               detection
 796:..\common\uart_ldr/UART.c ****     *  UART__B_UART__AM_SW_DETECT_TO_BUFFER - Software Detect to Buffer
 797:..\common\uart_ldr/UART.c ****     *                                               address detection
 798:..\common\uart_ldr/UART.c ****     *  UART__B_UART__AM_HW_BYTE_BY_BYTE - Hardware Byte-by-Byte address
 799:..\common\uart_ldr/UART.c ****     *                                               detection
 800:..\common\uart_ldr/UART.c ****     *  UART__B_UART__AM_HW_DETECT_TO_BUFFER - Hardware Detect to Buffer
 801:..\common\uart_ldr/UART.c ****     *                                               address detection
 802:..\common\uart_ldr/UART.c ****     *  UART__B_UART__AM_NONE - No address detection
 803:..\common\uart_ldr/UART.c ****     *
 804:..\common\uart_ldr/UART.c ****     * Return:
 805:..\common\uart_ldr/UART.c ****     *  None.
 806:..\common\uart_ldr/UART.c ****     *
 807:..\common\uart_ldr/UART.c ****     * Global Variables:
 808:..\common\uart_ldr/UART.c ****     *  UART_rxAddressMode - the parameter stored in this variable for
 809:..\common\uart_ldr/UART.c ****     *   the farther usage in RX ISR.
 810:..\common\uart_ldr/UART.c ****     *  UART_rxAddressDetected - set to initial state (0).
 811:..\common\uart_ldr/UART.c ****     *
 812:..\common\uart_ldr/UART.c ****     *******************************************************************************/
 813:..\common\uart_ldr/UART.c ****     void UART_SetRxAddressMode(uint8 addressMode)
 814:..\common\uart_ldr/UART.c ****                                                         
 815:..\common\uart_ldr/UART.c ****     {
 816:..\common\uart_ldr/UART.c ****         #if(UART_RXHW_ADDRESS_ENABLED)
 817:..\common\uart_ldr/UART.c ****             #if(UART_CONTROL_REG_REMOVED)
 818:..\common\uart_ldr/UART.c ****                 if(0u != addressMode)
 819:..\common\uart_ldr/UART.c ****                 {
 820:..\common\uart_ldr/UART.c ****                     /* Suppress compiler warning */
 821:..\common\uart_ldr/UART.c ****                 }
 822:..\common\uart_ldr/UART.c ****             #else /* UART_CONTROL_REG_REMOVED */
 823:..\common\uart_ldr/UART.c ****                 uint8 tmpCtrl;
 824:..\common\uart_ldr/UART.c ****                 tmpCtrl = UART_CONTROL_REG & (uint8)~UART_CTRL_RXADDR_MODE_MASK;
 825:..\common\uart_ldr/UART.c ****                 tmpCtrl |= (uint8)(addressMode << UART_CTRL_RXADDR_MODE0_SHIFT);
 826:..\common\uart_ldr/UART.c ****                 UART_CONTROL_REG = tmpCtrl;
 827:..\common\uart_ldr/UART.c **** 
 828:..\common\uart_ldr/UART.c ****                 #if(UART_RX_INTERRUPT_ENABLED && \
 829:..\common\uart_ldr/UART.c ****                    (UART_RXBUFFERSIZE > UART_FIFO_LENGTH) )
 830:..\common\uart_ldr/UART.c ****                     UART_rxAddressMode = addressMode;
 831:..\common\uart_ldr/UART.c ****                     UART_rxAddressDetected = 0u;
 832:..\common\uart_ldr/UART.c ****                 #endif /* End UART_RXBUFFERSIZE > UART_FIFO_LENGTH*/
 833:..\common\uart_ldr/UART.c ****             #endif /* End UART_CONTROL_REG_REMOVED */
 834:..\common\uart_ldr/UART.c ****         #else /* UART_RXHW_ADDRESS_ENABLED */
 835:..\common\uart_ldr/UART.c ****             if(0u != addressMode)
 836:..\common\uart_ldr/UART.c ****             {
 837:..\common\uart_ldr/UART.c ****                 /* Suppress compiler warning */
 838:..\common\uart_ldr/UART.c ****             }
 839:..\common\uart_ldr/UART.c ****         #endif /* End UART_RXHW_ADDRESS_ENABLED */
 840:..\common\uart_ldr/UART.c ****     }
 841:..\common\uart_ldr/UART.c **** 
 842:..\common\uart_ldr/UART.c **** 
 843:..\common\uart_ldr/UART.c ****     /*******************************************************************************
 844:..\common\uart_ldr/UART.c ****     * Function Name: UART_SetRxAddress1
 845:..\common\uart_ldr/UART.c ****     ********************************************************************************
ARM GAS  C:\Users\chemi\AppData\Local\Temp\ccL45Tva.s 			page 29


 846:..\common\uart_ldr/UART.c ****     *
 847:..\common\uart_ldr/UART.c ****     * Summary:
 848:..\common\uart_ldr/UART.c ****     *  Sets the first of two hardware-detectable receiver addresses.
 849:..\common\uart_ldr/UART.c ****     *
 850:..\common\uart_ldr/UART.c ****     * Parameters:
 851:..\common\uart_ldr/UART.c ****     *  address: Address #1 for hardware address detection.
 852:..\common\uart_ldr/UART.c ****     *
 853:..\common\uart_ldr/UART.c ****     * Return:
 854:..\common\uart_ldr/UART.c ****     *  None.
 855:..\common\uart_ldr/UART.c ****     *
 856:..\common\uart_ldr/UART.c ****     *******************************************************************************/
 857:..\common\uart_ldr/UART.c ****     void UART_SetRxAddress1(uint8 address) 
 858:..\common\uart_ldr/UART.c ****     {
 728              		.loc 1 858 0
 729              		.cfi_startproc
 730              		@ args = 0, pretend = 0, frame = 0
 731              		@ frame_needed = 0, uses_anonymous_args = 0
 732              		@ link register save eliminated.
 733              	.LVL40:
 859:..\common\uart_ldr/UART.c ****         UART_RXADDRESS1_REG = address;
 734              		.loc 1 859 0
 735 0000 014B     		ldr	r3, .L61
 736 0002 1870     		strb	r0, [r3]
 737 0004 7047     		bx	lr
 738              	.L62:
 739 0006 00BF     		.align	2
 740              	.L61:
 741 0008 28650040 		.word	1073767720
 742              		.cfi_endproc
 743              	.LFE14:
 744              		.size	UART_SetRxAddress1, .-UART_SetRxAddress1
 745              		.section	.text.UART_SetRxAddress2,"ax",%progbits
 746              		.align	1
 747              		.global	UART_SetRxAddress2
 748              		.thumb
 749              		.thumb_func
 750              		.type	UART_SetRxAddress2, %function
 751              	UART_SetRxAddress2:
 752              	.LFB15:
 860:..\common\uart_ldr/UART.c ****     }
 861:..\common\uart_ldr/UART.c **** 
 862:..\common\uart_ldr/UART.c **** 
 863:..\common\uart_ldr/UART.c ****     /*******************************************************************************
 864:..\common\uart_ldr/UART.c ****     * Function Name: UART_SetRxAddress2
 865:..\common\uart_ldr/UART.c ****     ********************************************************************************
 866:..\common\uart_ldr/UART.c ****     *
 867:..\common\uart_ldr/UART.c ****     * Summary:
 868:..\common\uart_ldr/UART.c ****     *  Sets the second of two hardware-detectable receiver addresses.
 869:..\common\uart_ldr/UART.c ****     *
 870:..\common\uart_ldr/UART.c ****     * Parameters:
 871:..\common\uart_ldr/UART.c ****     *  address: Address #2 for hardware address detection.
 872:..\common\uart_ldr/UART.c ****     *
 873:..\common\uart_ldr/UART.c ****     * Return:
 874:..\common\uart_ldr/UART.c ****     *  None.
 875:..\common\uart_ldr/UART.c ****     *
 876:..\common\uart_ldr/UART.c ****     *******************************************************************************/
 877:..\common\uart_ldr/UART.c ****     void UART_SetRxAddress2(uint8 address) 
ARM GAS  C:\Users\chemi\AppData\Local\Temp\ccL45Tva.s 			page 30


 878:..\common\uart_ldr/UART.c ****     {
 753              		.loc 1 878 0
 754              		.cfi_startproc
 755              		@ args = 0, pretend = 0, frame = 0
 756              		@ frame_needed = 0, uses_anonymous_args = 0
 757              		@ link register save eliminated.
 758              	.LVL41:
 879:..\common\uart_ldr/UART.c ****         UART_RXADDRESS2_REG = address;
 759              		.loc 1 879 0
 760 0000 014B     		ldr	r3, .L64
 761 0002 1870     		strb	r0, [r3]
 762 0004 7047     		bx	lr
 763              	.L65:
 764 0006 00BF     		.align	2
 765              	.L64:
 766 0008 38650040 		.word	1073767736
 767              		.cfi_endproc
 768              	.LFE15:
 769              		.size	UART_SetRxAddress2, .-UART_SetRxAddress2
 770              		.section	.text.UART_SetTxInterruptMode,"ax",%progbits
 771              		.align	1
 772              		.global	UART_SetTxInterruptMode
 773              		.thumb
 774              		.thumb_func
 775              		.type	UART_SetTxInterruptMode, %function
 776              	UART_SetTxInterruptMode:
 777              	.LFB16:
 880:..\common\uart_ldr/UART.c ****     }
 881:..\common\uart_ldr/UART.c **** 
 882:..\common\uart_ldr/UART.c **** #endif  /* UART_RX_ENABLED || UART_HD_ENABLED*/
 883:..\common\uart_ldr/UART.c **** 
 884:..\common\uart_ldr/UART.c **** 
 885:..\common\uart_ldr/UART.c **** #if( (UART_TX_ENABLED) || (UART_HD_ENABLED) )
 886:..\common\uart_ldr/UART.c ****     /*******************************************************************************
 887:..\common\uart_ldr/UART.c ****     * Function Name: UART_SetTxInterruptMode
 888:..\common\uart_ldr/UART.c ****     ********************************************************************************
 889:..\common\uart_ldr/UART.c ****     *
 890:..\common\uart_ldr/UART.c ****     * Summary:
 891:..\common\uart_ldr/UART.c ****     *  Configures the TX interrupt sources to be enabled, but does not enable the
 892:..\common\uart_ldr/UART.c ****     *  interrupt.
 893:..\common\uart_ldr/UART.c ****     *
 894:..\common\uart_ldr/UART.c ****     * Parameters:
 895:..\common\uart_ldr/UART.c ****     *  intSrc: Bit field containing the TX interrupt sources to enable
 896:..\common\uart_ldr/UART.c ****     *   UART_TX_STS_COMPLETE        Interrupt on TX byte complete
 897:..\common\uart_ldr/UART.c ****     *   UART_TX_STS_FIFO_EMPTY      Interrupt when TX FIFO is empty
 898:..\common\uart_ldr/UART.c ****     *   UART_TX_STS_FIFO_FULL       Interrupt when TX FIFO is full
 899:..\common\uart_ldr/UART.c ****     *   UART_TX_STS_FIFO_NOT_FULL   Interrupt when TX FIFO is not full
 900:..\common\uart_ldr/UART.c ****     *
 901:..\common\uart_ldr/UART.c ****     * Return:
 902:..\common\uart_ldr/UART.c ****     *  None.
 903:..\common\uart_ldr/UART.c ****     *
 904:..\common\uart_ldr/UART.c ****     * Theory:
 905:..\common\uart_ldr/UART.c ****     *  Enables the output of specific status bits to the interrupt controller
 906:..\common\uart_ldr/UART.c ****     *
 907:..\common\uart_ldr/UART.c ****     *******************************************************************************/
 908:..\common\uart_ldr/UART.c ****     void UART_SetTxInterruptMode(uint8 intSrc) 
 909:..\common\uart_ldr/UART.c ****     {
ARM GAS  C:\Users\chemi\AppData\Local\Temp\ccL45Tva.s 			page 31


 778              		.loc 1 909 0
 779              		.cfi_startproc
 780              		@ args = 0, pretend = 0, frame = 0
 781              		@ frame_needed = 0, uses_anonymous_args = 0
 782              		@ link register save eliminated.
 783              	.LVL42:
 910:..\common\uart_ldr/UART.c ****         UART_TXSTATUS_MASK_REG = intSrc;
 784              		.loc 1 910 0
 785 0000 014B     		ldr	r3, .L67
 786 0002 1870     		strb	r0, [r3]
 787 0004 7047     		bx	lr
 788              	.L68:
 789 0006 00BF     		.align	2
 790              	.L67:
 791 0008 89640040 		.word	1073767561
 792              		.cfi_endproc
 793              	.LFE16:
 794              		.size	UART_SetTxInterruptMode, .-UART_SetTxInterruptMode
 795              		.section	.text.UART_WriteTxData,"ax",%progbits
 796              		.align	1
 797              		.global	UART_WriteTxData
 798              		.thumb
 799              		.thumb_func
 800              		.type	UART_WriteTxData, %function
 801              	UART_WriteTxData:
 802              	.LFB17:
 911:..\common\uart_ldr/UART.c ****     }
 912:..\common\uart_ldr/UART.c **** 
 913:..\common\uart_ldr/UART.c **** 
 914:..\common\uart_ldr/UART.c ****     /*******************************************************************************
 915:..\common\uart_ldr/UART.c ****     * Function Name: UART_WriteTxData
 916:..\common\uart_ldr/UART.c ****     ********************************************************************************
 917:..\common\uart_ldr/UART.c ****     *
 918:..\common\uart_ldr/UART.c ****     * Summary:
 919:..\common\uart_ldr/UART.c ****     *  Places a byte of data into the transmit buffer to be sent when the bus is
 920:..\common\uart_ldr/UART.c ****     *  available without checking the TX status register. You must check status
 921:..\common\uart_ldr/UART.c ****     *  separately.
 922:..\common\uart_ldr/UART.c ****     *
 923:..\common\uart_ldr/UART.c ****     * Parameters:
 924:..\common\uart_ldr/UART.c ****     *  txDataByte: data byte
 925:..\common\uart_ldr/UART.c ****     *
 926:..\common\uart_ldr/UART.c ****     * Return:
 927:..\common\uart_ldr/UART.c ****     * None.
 928:..\common\uart_ldr/UART.c ****     *
 929:..\common\uart_ldr/UART.c ****     * Global Variables:
 930:..\common\uart_ldr/UART.c ****     *  UART_txBuffer - RAM buffer pointer for save data for transmission
 931:..\common\uart_ldr/UART.c ****     *  UART_txBufferWrite - cyclic index for write to txBuffer,
 932:..\common\uart_ldr/UART.c ****     *    incremented after each byte saved to buffer.
 933:..\common\uart_ldr/UART.c ****     *  UART_txBufferRead - cyclic index for read from txBuffer,
 934:..\common\uart_ldr/UART.c ****     *    checked to identify the condition to write to FIFO directly or to TX buffer
 935:..\common\uart_ldr/UART.c ****     *  UART_initVar - checked to identify that the component has been
 936:..\common\uart_ldr/UART.c ****     *    initialized.
 937:..\common\uart_ldr/UART.c ****     *
 938:..\common\uart_ldr/UART.c ****     * Reentrant:
 939:..\common\uart_ldr/UART.c ****     *  No.
 940:..\common\uart_ldr/UART.c ****     *
 941:..\common\uart_ldr/UART.c ****     *******************************************************************************/
ARM GAS  C:\Users\chemi\AppData\Local\Temp\ccL45Tva.s 			page 32


 942:..\common\uart_ldr/UART.c ****     void UART_WriteTxData(uint8 txDataByte) 
 943:..\common\uart_ldr/UART.c ****     {
 803              		.loc 1 943 0
 804              		.cfi_startproc
 805              		@ args = 0, pretend = 0, frame = 0
 806              		@ frame_needed = 0, uses_anonymous_args = 0
 807              	.LVL43:
 808 0000 10B5     		push	{r4, lr}
 809              		.cfi_def_cfa_offset 8
 810              		.cfi_offset 4, -8
 811              		.cfi_offset 14, -4
 944:..\common\uart_ldr/UART.c ****         /* If not Initialized then skip this function*/
 945:..\common\uart_ldr/UART.c ****         if(UART_initVar != 0u)
 812              		.loc 1 945 0
 813 0002 0D4B     		ldr	r3, .L76
 814 0004 5978     		ldrb	r1, [r3, #1]	@ zero_extendqisi2
 815 0006 1A46     		mov	r2, r3
 816 0008 A1B1     		cbz	r1, .L69
 946:..\common\uart_ldr/UART.c ****         {
 947:..\common\uart_ldr/UART.c ****         #if (UART_TX_INTERRUPT_ENABLED)
 948:..\common\uart_ldr/UART.c **** 
 949:..\common\uart_ldr/UART.c ****             /* Protect variables that could change on interrupt. */
 950:..\common\uart_ldr/UART.c ****             UART_DisableTxInt();
 817              		.loc 1 950 0
 818 000a 0C49     		ldr	r1, .L76+4
 819 000c 0224     		movs	r4, #2
 820 000e 0C60     		str	r4, [r1]
 951:..\common\uart_ldr/UART.c **** 
 952:..\common\uart_ldr/UART.c ****             if( (UART_txBufferRead == UART_txBufferWrite) &&
 821              		.loc 1 952 0
 822 0010 9979     		ldrb	r1, [r3, #6]	@ zero_extendqisi2
 823 0012 DB79     		ldrb	r3, [r3, #7]	@ zero_extendqisi2
 824 0014 9942     		cmp	r1, r3
 825 0016 06D1     		bne	.L71
 953:..\common\uart_ldr/UART.c ****                 ((UART_TXSTATUS_REG & UART_TX_STS_FIFO_FULL) == 0u) )
 826              		.loc 1 953 0 discriminator 1
 827 0018 0949     		ldr	r1, .L76+8
 828 001a 0978     		ldrb	r1, [r1]	@ zero_extendqisi2
 952:..\common\uart_ldr/UART.c ****                 ((UART_TXSTATUS_REG & UART_TX_STS_FIFO_FULL) == 0u) )
 829              		.loc 1 952 0 discriminator 1
 830 001c 4907     		lsls	r1, r1, #29
 831 001e 02D4     		bmi	.L71
 954:..\common\uart_ldr/UART.c ****             {
 955:..\common\uart_ldr/UART.c ****                 /* Add directly to the FIFO. */
 956:..\common\uart_ldr/UART.c ****                 UART_TXDATA_REG = txDataByte;
 832              		.loc 1 956 0
 833 0020 084B     		ldr	r3, .L76+12
 834 0022 1870     		strb	r0, [r3]
 835 0024 03E0     		b	.L72
 836              	.L71:
 957:..\common\uart_ldr/UART.c ****             }
 958:..\common\uart_ldr/UART.c ****             else
 959:..\common\uart_ldr/UART.c ****             {
 960:..\common\uart_ldr/UART.c ****                 if(UART_txBufferWrite >= UART_TX_BUFFER_SIZE)
 961:..\common\uart_ldr/UART.c ****                 {
 962:..\common\uart_ldr/UART.c ****                     UART_txBufferWrite = 0u;
 963:..\common\uart_ldr/UART.c ****                 }
ARM GAS  C:\Users\chemi\AppData\Local\Temp\ccL45Tva.s 			page 33


 964:..\common\uart_ldr/UART.c **** 
 965:..\common\uart_ldr/UART.c ****                 UART_txBuffer[UART_txBufferWrite] = txDataByte;
 837              		.loc 1 965 0
 838 0026 0849     		ldr	r1, .L76+16
 839 0028 C854     		strb	r0, [r1, r3]
 966:..\common\uart_ldr/UART.c **** 
 967:..\common\uart_ldr/UART.c ****                 /* Add to the software buffer. */
 968:..\common\uart_ldr/UART.c ****                 UART_txBufferWrite++;
 840              		.loc 1 968 0
 841 002a 0133     		adds	r3, r3, #1
 842 002c D371     		strb	r3, [r2, #7]
 843              	.L72:
 969:..\common\uart_ldr/UART.c ****             }
 970:..\common\uart_ldr/UART.c **** 
 971:..\common\uart_ldr/UART.c ****             UART_EnableTxInt();
 844              		.loc 1 971 0
 845 002e 074B     		ldr	r3, .L76+20
 846 0030 0222     		movs	r2, #2
 847 0032 1A60     		str	r2, [r3]
 848              	.L69:
 849 0034 10BD     		pop	{r4, pc}
 850              	.L77:
 851 0036 00BF     		.align	2
 852              	.L76:
 853 0038 00000000 		.word	.LANCHOR0
 854 003c 80E100E0 		.word	-536813184
 855 0040 69640040 		.word	1073767529
 856 0044 49640040 		.word	1073767497
 857 0048 00000000 		.word	UART_txBuffer
 858 004c 00E100E0 		.word	-536813312
 859              		.cfi_endproc
 860              	.LFE17:
 861              		.size	UART_WriteTxData, .-UART_WriteTxData
 862              		.section	.text.UART_ReadTxStatus,"ax",%progbits
 863              		.align	1
 864              		.global	UART_ReadTxStatus
 865              		.thumb
 866              		.thumb_func
 867              		.type	UART_ReadTxStatus, %function
 868              	UART_ReadTxStatus:
 869              	.LFB18:
 972:..\common\uart_ldr/UART.c **** 
 973:..\common\uart_ldr/UART.c ****         #else
 974:..\common\uart_ldr/UART.c **** 
 975:..\common\uart_ldr/UART.c ****             /* Add directly to the FIFO. */
 976:..\common\uart_ldr/UART.c ****             UART_TXDATA_REG = txDataByte;
 977:..\common\uart_ldr/UART.c **** 
 978:..\common\uart_ldr/UART.c ****         #endif /*(UART_TX_INTERRUPT_ENABLED) */
 979:..\common\uart_ldr/UART.c ****         }
 980:..\common\uart_ldr/UART.c ****     }
 981:..\common\uart_ldr/UART.c **** 
 982:..\common\uart_ldr/UART.c **** 
 983:..\common\uart_ldr/UART.c ****     /*******************************************************************************
 984:..\common\uart_ldr/UART.c ****     * Function Name: UART_ReadTxStatus
 985:..\common\uart_ldr/UART.c ****     ********************************************************************************
 986:..\common\uart_ldr/UART.c ****     *
 987:..\common\uart_ldr/UART.c ****     * Summary:
ARM GAS  C:\Users\chemi\AppData\Local\Temp\ccL45Tva.s 			page 34


 988:..\common\uart_ldr/UART.c ****     *  Reads the status register for the TX portion of the UART.
 989:..\common\uart_ldr/UART.c ****     *
 990:..\common\uart_ldr/UART.c ****     * Parameters:
 991:..\common\uart_ldr/UART.c ****     *  None.
 992:..\common\uart_ldr/UART.c ****     *
 993:..\common\uart_ldr/UART.c ****     * Return:
 994:..\common\uart_ldr/UART.c ****     *  Contents of the status register
 995:..\common\uart_ldr/UART.c ****     *
 996:..\common\uart_ldr/UART.c ****     * Theory:
 997:..\common\uart_ldr/UART.c ****     *  This function reads the TX status register, which is cleared on read.
 998:..\common\uart_ldr/UART.c ****     *  It is up to the user to handle all bits in this return value accordingly,
 999:..\common\uart_ldr/UART.c ****     *  even if the bit was not enabled as an interrupt source the event happened
1000:..\common\uart_ldr/UART.c ****     *  and must be handled accordingly.
1001:..\common\uart_ldr/UART.c ****     *
1002:..\common\uart_ldr/UART.c ****     *******************************************************************************/
1003:..\common\uart_ldr/UART.c ****     uint8 UART_ReadTxStatus(void) 
1004:..\common\uart_ldr/UART.c ****     {
 870              		.loc 1 1004 0
 871              		.cfi_startproc
 872              		@ args = 0, pretend = 0, frame = 0
 873              		@ frame_needed = 0, uses_anonymous_args = 0
 874              		@ link register save eliminated.
1005:..\common\uart_ldr/UART.c ****         return(UART_TXSTATUS_REG);
 875              		.loc 1 1005 0
 876 0000 014B     		ldr	r3, .L79
 877 0002 1878     		ldrb	r0, [r3]	@ zero_extendqisi2
1006:..\common\uart_ldr/UART.c ****     }
 878              		.loc 1 1006 0
 879 0004 7047     		bx	lr
 880              	.L80:
 881 0006 00BF     		.align	2
 882              	.L79:
 883 0008 69640040 		.word	1073767529
 884              		.cfi_endproc
 885              	.LFE18:
 886              		.size	UART_ReadTxStatus, .-UART_ReadTxStatus
 887              		.section	.text.UART_PutChar,"ax",%progbits
 888              		.align	1
 889              		.global	UART_PutChar
 890              		.thumb
 891              		.thumb_func
 892              		.type	UART_PutChar, %function
 893              	UART_PutChar:
 894              	.LFB19:
1007:..\common\uart_ldr/UART.c **** 
1008:..\common\uart_ldr/UART.c **** 
1009:..\common\uart_ldr/UART.c ****     /*******************************************************************************
1010:..\common\uart_ldr/UART.c ****     * Function Name: UART_PutChar
1011:..\common\uart_ldr/UART.c ****     ********************************************************************************
1012:..\common\uart_ldr/UART.c ****     *
1013:..\common\uart_ldr/UART.c ****     * Summary:
1014:..\common\uart_ldr/UART.c ****     *  Puts a byte of data into the transmit buffer to be sent when the bus is
1015:..\common\uart_ldr/UART.c ****     *  available. This is a blocking API that waits until the TX buffer has room to
1016:..\common\uart_ldr/UART.c ****     *  hold the data.
1017:..\common\uart_ldr/UART.c ****     *
1018:..\common\uart_ldr/UART.c ****     * Parameters:
1019:..\common\uart_ldr/UART.c ****     *  txDataByte: Byte containing the data to transmit
ARM GAS  C:\Users\chemi\AppData\Local\Temp\ccL45Tva.s 			page 35


1020:..\common\uart_ldr/UART.c ****     *
1021:..\common\uart_ldr/UART.c ****     * Return:
1022:..\common\uart_ldr/UART.c ****     *  None.
1023:..\common\uart_ldr/UART.c ****     *
1024:..\common\uart_ldr/UART.c ****     * Global Variables:
1025:..\common\uart_ldr/UART.c ****     *  UART_txBuffer - RAM buffer pointer for save data for transmission
1026:..\common\uart_ldr/UART.c ****     *  UART_txBufferWrite - cyclic index for write to txBuffer,
1027:..\common\uart_ldr/UART.c ****     *     checked to identify free space in txBuffer and incremented after each byte
1028:..\common\uart_ldr/UART.c ****     *     saved to buffer.
1029:..\common\uart_ldr/UART.c ****     *  UART_txBufferRead - cyclic index for read from txBuffer,
1030:..\common\uart_ldr/UART.c ****     *     checked to identify free space in txBuffer.
1031:..\common\uart_ldr/UART.c ****     *  UART_initVar - checked to identify that the component has been
1032:..\common\uart_ldr/UART.c ****     *     initialized.
1033:..\common\uart_ldr/UART.c ****     *
1034:..\common\uart_ldr/UART.c ****     * Reentrant:
1035:..\common\uart_ldr/UART.c ****     *  No.
1036:..\common\uart_ldr/UART.c ****     *
1037:..\common\uart_ldr/UART.c ****     * Theory:
1038:..\common\uart_ldr/UART.c ****     *  Allows the user to transmit any byte of data in a single transfer
1039:..\common\uart_ldr/UART.c ****     *
1040:..\common\uart_ldr/UART.c ****     *******************************************************************************/
1041:..\common\uart_ldr/UART.c ****     void UART_PutChar(uint8 txDataByte) 
1042:..\common\uart_ldr/UART.c ****     {
 895              		.loc 1 1042 0
 896              		.cfi_startproc
 897              		@ args = 0, pretend = 0, frame = 0
 898              		@ frame_needed = 0, uses_anonymous_args = 0
 899              	.LVL44:
 900 0000 10B5     		push	{r4, lr}
 901              		.cfi_def_cfa_offset 8
 902              		.cfi_offset 4, -8
 903              		.cfi_offset 14, -4
1043:..\common\uart_ldr/UART.c ****     #if (UART_TX_INTERRUPT_ENABLED)
1044:..\common\uart_ldr/UART.c ****         /* The temporary output pointer is used since it takes two instructions
1045:..\common\uart_ldr/UART.c ****         *  to increment with a wrap, and we can't risk doing that with the real
1046:..\common\uart_ldr/UART.c ****         *  pointer and getting an interrupt in between instructions.
1047:..\common\uart_ldr/UART.c ****         */
1048:..\common\uart_ldr/UART.c ****         uint8 locTxBufferWrite;
1049:..\common\uart_ldr/UART.c ****         uint8 locTxBufferRead;
1050:..\common\uart_ldr/UART.c **** 
1051:..\common\uart_ldr/UART.c ****         do
1052:..\common\uart_ldr/UART.c ****         { /* Block if software buffer is full, so we don't overwrite. */
1053:..\common\uart_ldr/UART.c **** 
1054:..\common\uart_ldr/UART.c ****         #if ((UART_TX_BUFFER_SIZE > UART_MAX_BYTE_VALUE) && (CY_PSOC3))
1055:..\common\uart_ldr/UART.c ****             /* Disable TX interrupt to protect variables from modification */
1056:..\common\uart_ldr/UART.c ****             UART_DisableTxInt();
1057:..\common\uart_ldr/UART.c ****         #endif /* (UART_TX_BUFFER_SIZE > UART_MAX_BYTE_VALUE) && (CY_PSOC3) */
1058:..\common\uart_ldr/UART.c **** 
1059:..\common\uart_ldr/UART.c ****             locTxBufferWrite = UART_txBufferWrite;
 904              		.loc 1 1059 0
 905 0002 124C     		ldr	r4, .L92
 906 0004 E379     		ldrb	r3, [r4, #7]	@ zero_extendqisi2
 907              	.L84:
 908              	.LVL45:
1060:..\common\uart_ldr/UART.c ****             locTxBufferRead  = UART_txBufferRead;
 909              		.loc 1 1060 0
 910 0006 A279     		ldrb	r2, [r4, #6]	@ zero_extendqisi2
ARM GAS  C:\Users\chemi\AppData\Local\Temp\ccL45Tva.s 			page 36


 911 0008 D2B2     		uxtb	r2, r2
 912              	.LVL46:
1061:..\common\uart_ldr/UART.c **** 
1062:..\common\uart_ldr/UART.c ****         #if ((UART_TX_BUFFER_SIZE > UART_MAX_BYTE_VALUE) && (CY_PSOC3))
1063:..\common\uart_ldr/UART.c ****             /* Enable interrupt to continue transmission */
1064:..\common\uart_ldr/UART.c ****             UART_EnableTxInt();
1065:..\common\uart_ldr/UART.c ****         #endif /* (UART_TX_BUFFER_SIZE > UART_MAX_BYTE_VALUE) && (CY_PSOC3) */
1066:..\common\uart_ldr/UART.c ****         }
1067:..\common\uart_ldr/UART.c ****         while( (locTxBufferWrite < locTxBufferRead) ? (locTxBufferWrite == (locTxBufferRead - 1u)) 
 913              		.loc 1 1067 0
 914 000a 9342     		cmp	r3, r2
 915 000c 02D2     		bcs	.L82
 916              		.loc 1 1067 0 is_stmt 0 discriminator 1
 917 000e 511E     		subs	r1, r2, #1
 918 0010 9942     		cmp	r1, r3
 919 0012 01E0     		b	.L91
 920              	.L82:
 921              		.loc 1 1067 0 discriminator 2
 922 0014 991A     		subs	r1, r3, r2
 923 0016 FF29     		cmp	r1, #255
 924              	.L91:
 925 0018 14BF     		ite	ne
 926 001a 0021     		movne	r1, #0
 927 001c 0121     		moveq	r1, #1
1068:..\common\uart_ldr/UART.c ****                                 ((locTxBufferWrite - locTxBufferRead) ==
1069:..\common\uart_ldr/UART.c ****                                 (uint8)(UART_TX_BUFFER_SIZE - 1u)) );
 928              		.loc 1 1069 0 is_stmt 1 discriminator 2
 929 001e 0029     		cmp	r1, #0
 930 0020 F1D1     		bne	.L84
1070:..\common\uart_ldr/UART.c **** 
1071:..\common\uart_ldr/UART.c ****         if( (locTxBufferRead == locTxBufferWrite) &&
 931              		.loc 1 1071 0
 932 0022 9342     		cmp	r3, r2
 933 0024 0A4A     		ldr	r2, .L92+4
 934              	.LVL47:
 935 0026 05D1     		bne	.L85
1072:..\common\uart_ldr/UART.c ****             ((UART_TXSTATUS_REG & UART_TX_STS_FIFO_FULL) == 0u) )
 936              		.loc 1 1072 0 discriminator 1
 937 0028 1178     		ldrb	r1, [r2]	@ zero_extendqisi2
1071:..\common\uart_ldr/UART.c ****             ((UART_TXSTATUS_REG & UART_TX_STS_FIFO_FULL) == 0u) )
 938              		.loc 1 1071 0 discriminator 1
 939 002a 4907     		lsls	r1, r1, #29
 940 002c 02D4     		bmi	.L85
1073:..\common\uart_ldr/UART.c ****         {
1074:..\common\uart_ldr/UART.c ****             /* Add directly to the FIFO */
1075:..\common\uart_ldr/UART.c ****             UART_TXDATA_REG = txDataByte;
 941              		.loc 1 1075 0
 942 002e 094B     		ldr	r3, .L92+8
 943 0030 1870     		strb	r0, [r3]
 944              	.LVL48:
 945 0032 10BD     		pop	{r4, pc}
 946              	.LVL49:
 947              	.L85:
1076:..\common\uart_ldr/UART.c ****         }
1077:..\common\uart_ldr/UART.c ****         else
1078:..\common\uart_ldr/UART.c ****         {
1079:..\common\uart_ldr/UART.c ****             if(locTxBufferWrite >= UART_TX_BUFFER_SIZE)
ARM GAS  C:\Users\chemi\AppData\Local\Temp\ccL45Tva.s 			page 37


1080:..\common\uart_ldr/UART.c ****             {
1081:..\common\uart_ldr/UART.c ****                 locTxBufferWrite = 0u;
1082:..\common\uart_ldr/UART.c ****             }
1083:..\common\uart_ldr/UART.c ****             /* Add to the software buffer. */
1084:..\common\uart_ldr/UART.c ****             UART_txBuffer[locTxBufferWrite] = txDataByte;
 948              		.loc 1 1084 0
 949 0034 0849     		ldr	r1, .L92+12
 950 0036 C854     		strb	r0, [r1, r3]
 951              	.LVL50:
1085:..\common\uart_ldr/UART.c ****             locTxBufferWrite++;
1086:..\common\uart_ldr/UART.c **** 
1087:..\common\uart_ldr/UART.c ****             /* Finally, update the real output pointer */
1088:..\common\uart_ldr/UART.c ****         #if ((UART_TX_BUFFER_SIZE > UART_MAX_BYTE_VALUE) && (CY_PSOC3))
1089:..\common\uart_ldr/UART.c ****             UART_DisableTxInt();
1090:..\common\uart_ldr/UART.c ****         #endif /* (UART_TX_BUFFER_SIZE > UART_MAX_BYTE_VALUE) && (CY_PSOC3) */
1091:..\common\uart_ldr/UART.c **** 
1092:..\common\uart_ldr/UART.c ****             UART_txBufferWrite = locTxBufferWrite;
 952              		.loc 1 1092 0
 953 0038 0133     		adds	r3, r3, #1
 954              	.LVL51:
 955 003a E371     		strb	r3, [r4, #7]
1093:..\common\uart_ldr/UART.c **** 
1094:..\common\uart_ldr/UART.c ****         #if ((UART_TX_BUFFER_SIZE > UART_MAX_BYTE_VALUE) && (CY_PSOC3))
1095:..\common\uart_ldr/UART.c ****             UART_EnableTxInt();
1096:..\common\uart_ldr/UART.c ****         #endif /* (UART_TX_BUFFER_SIZE > UART_MAX_BYTE_VALUE) && (CY_PSOC3) */
1097:..\common\uart_ldr/UART.c **** 
1098:..\common\uart_ldr/UART.c ****             if(0u != (UART_TXSTATUS_REG & UART_TX_STS_FIFO_EMPTY))
 956              		.loc 1 1098 0
 957 003c 1378     		ldrb	r3, [r2]	@ zero_extendqisi2
 958 003e 9B07     		lsls	r3, r3, #30
1099:..\common\uart_ldr/UART.c ****             {
1100:..\common\uart_ldr/UART.c ****                 /* Trigger TX interrupt to send software buffer */
1101:..\common\uart_ldr/UART.c ****                 UART_SetPendingTxInt();
 959              		.loc 1 1101 0
 960 0040 42BF     		ittt	mi
 961 0042 064B     		ldrmi	r3, .L92+16
 962 0044 0222     		movmi	r2, #2
 963 0046 1A60     		strmi	r2, [r3]
 964 0048 10BD     		pop	{r4, pc}
 965              	.L93:
 966 004a 00BF     		.align	2
 967              	.L92:
 968 004c 00000000 		.word	.LANCHOR0
 969 0050 69640040 		.word	1073767529
 970 0054 49640040 		.word	1073767497
 971 0058 00000000 		.word	UART_txBuffer
 972 005c 00E200E0 		.word	-536813056
 973              		.cfi_endproc
 974              	.LFE19:
 975              		.size	UART_PutChar, .-UART_PutChar
 976              		.section	.text.UART_PutString,"ax",%progbits
 977              		.align	1
 978              		.global	UART_PutString
 979              		.thumb
 980              		.thumb_func
 981              		.type	UART_PutString, %function
 982              	UART_PutString:
ARM GAS  C:\Users\chemi\AppData\Local\Temp\ccL45Tva.s 			page 38


 983              	.LFB20:
1102:..\common\uart_ldr/UART.c ****             }
1103:..\common\uart_ldr/UART.c ****         }
1104:..\common\uart_ldr/UART.c **** 
1105:..\common\uart_ldr/UART.c ****     #else
1106:..\common\uart_ldr/UART.c **** 
1107:..\common\uart_ldr/UART.c ****         while((UART_TXSTATUS_REG & UART_TX_STS_FIFO_FULL) != 0u)
1108:..\common\uart_ldr/UART.c ****         {
1109:..\common\uart_ldr/UART.c ****             /* Wait for room in the FIFO */
1110:..\common\uart_ldr/UART.c ****         }
1111:..\common\uart_ldr/UART.c **** 
1112:..\common\uart_ldr/UART.c ****         /* Add directly to the FIFO */
1113:..\common\uart_ldr/UART.c ****         UART_TXDATA_REG = txDataByte;
1114:..\common\uart_ldr/UART.c **** 
1115:..\common\uart_ldr/UART.c ****     #endif /* UART_TX_INTERRUPT_ENABLED */
1116:..\common\uart_ldr/UART.c ****     }
1117:..\common\uart_ldr/UART.c **** 
1118:..\common\uart_ldr/UART.c **** 
1119:..\common\uart_ldr/UART.c ****     /*******************************************************************************
1120:..\common\uart_ldr/UART.c ****     * Function Name: UART_PutString
1121:..\common\uart_ldr/UART.c ****     ********************************************************************************
1122:..\common\uart_ldr/UART.c ****     *
1123:..\common\uart_ldr/UART.c ****     * Summary:
1124:..\common\uart_ldr/UART.c ****     *  Sends a NULL terminated string to the TX buffer for transmission.
1125:..\common\uart_ldr/UART.c ****     *
1126:..\common\uart_ldr/UART.c ****     * Parameters:
1127:..\common\uart_ldr/UART.c ****     *  string[]: Pointer to the null terminated string array residing in RAM or ROM
1128:..\common\uart_ldr/UART.c ****     *
1129:..\common\uart_ldr/UART.c ****     * Return:
1130:..\common\uart_ldr/UART.c ****     *  None.
1131:..\common\uart_ldr/UART.c ****     *
1132:..\common\uart_ldr/UART.c ****     * Global Variables:
1133:..\common\uart_ldr/UART.c ****     *  UART_initVar - checked to identify that the component has been
1134:..\common\uart_ldr/UART.c ****     *     initialized.
1135:..\common\uart_ldr/UART.c ****     *
1136:..\common\uart_ldr/UART.c ****     * Reentrant:
1137:..\common\uart_ldr/UART.c ****     *  No.
1138:..\common\uart_ldr/UART.c ****     *
1139:..\common\uart_ldr/UART.c ****     * Theory:
1140:..\common\uart_ldr/UART.c ****     *  If there is not enough memory in the TX buffer for the entire string, this
1141:..\common\uart_ldr/UART.c ****     *  function blocks until the last character of the string is loaded into the
1142:..\common\uart_ldr/UART.c ****     *  TX buffer.
1143:..\common\uart_ldr/UART.c ****     *
1144:..\common\uart_ldr/UART.c ****     *******************************************************************************/
1145:..\common\uart_ldr/UART.c ****     void UART_PutString(const char8 string[]) 
1146:..\common\uart_ldr/UART.c ****     {
 984              		.loc 1 1146 0
 985              		.cfi_startproc
 986              		@ args = 0, pretend = 0, frame = 0
 987              		@ frame_needed = 0, uses_anonymous_args = 0
 988              	.LVL52:
 989 0000 38B5     		push	{r3, r4, r5, lr}
 990              		.cfi_def_cfa_offset 16
 991              		.cfi_offset 3, -16
 992              		.cfi_offset 4, -12
 993              		.cfi_offset 5, -8
 994              		.cfi_offset 14, -4
ARM GAS  C:\Users\chemi\AppData\Local\Temp\ccL45Tva.s 			page 39


1147:..\common\uart_ldr/UART.c ****         uint16 bufIndex = 0u;
1148:..\common\uart_ldr/UART.c **** 
1149:..\common\uart_ldr/UART.c ****         /* If not Initialized then skip this function */
1150:..\common\uart_ldr/UART.c ****         if(UART_initVar != 0u)
 995              		.loc 1 1150 0
 996 0002 064B     		ldr	r3, .L101
1146:..\common\uart_ldr/UART.c ****         uint16 bufIndex = 0u;
 997              		.loc 1 1146 0
 998 0004 0546     		mov	r5, r0
 999              		.loc 1 1150 0
 1000 0006 5B78     		ldrb	r3, [r3, #1]	@ zero_extendqisi2
 1001 0008 3BB1     		cbz	r3, .L94
 1002 000a 0024     		movs	r4, #0
 1003              	.LVL53:
 1004              	.L96:
1151:..\common\uart_ldr/UART.c ****         {
1152:..\common\uart_ldr/UART.c ****             /* This is a blocking function, it will not exit until all data is sent */
1153:..\common\uart_ldr/UART.c ****             while(string[bufIndex] != (char8) 0)
 1005              		.loc 1 1153 0
 1006 000c A3B2     		uxth	r3, r4
 1007              	.LVL54:
 1008 000e E85C     		ldrb	r0, [r5, r3]	@ zero_extendqisi2
 1009 0010 0134     		adds	r4, r4, #1
 1010 0012 10B1     		cbz	r0, .L94
1154:..\common\uart_ldr/UART.c ****             {
1155:..\common\uart_ldr/UART.c ****                 UART_PutChar((uint8)string[bufIndex]);
 1011              		.loc 1 1155 0
 1012 0014 FFF7FEFF 		bl	UART_PutChar
 1013              	.LVL55:
 1014 0018 F8E7     		b	.L96
 1015              	.LVL56:
 1016              	.L94:
 1017 001a 38BD     		pop	{r3, r4, r5, pc}
 1018              	.LVL57:
 1019              	.L102:
 1020              		.align	2
 1021              	.L101:
 1022 001c 00000000 		.word	.LANCHOR0
 1023              		.cfi_endproc
 1024              	.LFE20:
 1025              		.size	UART_PutString, .-UART_PutString
 1026              		.section	.text.UART_PutArray,"ax",%progbits
 1027              		.align	1
 1028              		.global	UART_PutArray
 1029              		.thumb
 1030              		.thumb_func
 1031              		.type	UART_PutArray, %function
 1032              	UART_PutArray:
 1033              	.LFB21:
1156:..\common\uart_ldr/UART.c ****                 bufIndex++;
1157:..\common\uart_ldr/UART.c ****             }
1158:..\common\uart_ldr/UART.c ****         }
1159:..\common\uart_ldr/UART.c ****     }
1160:..\common\uart_ldr/UART.c **** 
1161:..\common\uart_ldr/UART.c **** 
1162:..\common\uart_ldr/UART.c ****     /*******************************************************************************
1163:..\common\uart_ldr/UART.c ****     * Function Name: UART_PutArray
ARM GAS  C:\Users\chemi\AppData\Local\Temp\ccL45Tva.s 			page 40


1164:..\common\uart_ldr/UART.c ****     ********************************************************************************
1165:..\common\uart_ldr/UART.c ****     *
1166:..\common\uart_ldr/UART.c ****     * Summary:
1167:..\common\uart_ldr/UART.c ****     *  Places N bytes of data from a memory array into the TX buffer for
1168:..\common\uart_ldr/UART.c ****     *  transmission.
1169:..\common\uart_ldr/UART.c ****     *
1170:..\common\uart_ldr/UART.c ****     * Parameters:
1171:..\common\uart_ldr/UART.c ****     *  string[]: Address of the memory array residing in RAM or ROM.
1172:..\common\uart_ldr/UART.c ****     *  byteCount: Number of bytes to be transmitted. The type depends on TX Buffer
1173:..\common\uart_ldr/UART.c ****     *             Size parameter.
1174:..\common\uart_ldr/UART.c ****     *
1175:..\common\uart_ldr/UART.c ****     * Return:
1176:..\common\uart_ldr/UART.c ****     *  None.
1177:..\common\uart_ldr/UART.c ****     *
1178:..\common\uart_ldr/UART.c ****     * Global Variables:
1179:..\common\uart_ldr/UART.c ****     *  UART_initVar - checked to identify that the component has been
1180:..\common\uart_ldr/UART.c ****     *     initialized.
1181:..\common\uart_ldr/UART.c ****     *
1182:..\common\uart_ldr/UART.c ****     * Reentrant:
1183:..\common\uart_ldr/UART.c ****     *  No.
1184:..\common\uart_ldr/UART.c ****     *
1185:..\common\uart_ldr/UART.c ****     * Theory:
1186:..\common\uart_ldr/UART.c ****     *  If there is not enough memory in the TX buffer for the entire string, this
1187:..\common\uart_ldr/UART.c ****     *  function blocks until the last character of the string is loaded into the
1188:..\common\uart_ldr/UART.c ****     *  TX buffer.
1189:..\common\uart_ldr/UART.c ****     *
1190:..\common\uart_ldr/UART.c ****     *******************************************************************************/
1191:..\common\uart_ldr/UART.c ****     void UART_PutArray(const uint8 string[], uint8 byteCount)
1192:..\common\uart_ldr/UART.c ****                                                                     
1193:..\common\uart_ldr/UART.c ****     {
 1034              		.loc 1 1193 0
 1035              		.cfi_startproc
 1036              		@ args = 0, pretend = 0, frame = 0
 1037              		@ frame_needed = 0, uses_anonymous_args = 0
 1038              	.LVL58:
 1039 0000 38B5     		push	{r3, r4, r5, lr}
 1040              		.cfi_def_cfa_offset 16
 1041              		.cfi_offset 3, -16
 1042              		.cfi_offset 4, -12
 1043              		.cfi_offset 5, -8
 1044              		.cfi_offset 14, -4
1194:..\common\uart_ldr/UART.c ****         uint8 bufIndex = 0u;
1195:..\common\uart_ldr/UART.c **** 
1196:..\common\uart_ldr/UART.c ****         /* If not Initialized then skip this function */
1197:..\common\uart_ldr/UART.c ****         if(UART_initVar != 0u)
 1045              		.loc 1 1197 0
 1046 0002 074B     		ldr	r3, .L108
 1047 0004 5B78     		ldrb	r3, [r3, #1]	@ zero_extendqisi2
 1048 0006 4BB1     		cbz	r3, .L103
 1049 0008 0139     		subs	r1, r1, #1
 1050              	.LVL59:
 1051 000a 451E     		subs	r5, r0, #1
 1052 000c 4418     		adds	r4, r0, r1
 1053              	.LVL60:
 1054              	.L105:
1198:..\common\uart_ldr/UART.c ****         {
1199:..\common\uart_ldr/UART.c ****             while(bufIndex < byteCount)
ARM GAS  C:\Users\chemi\AppData\Local\Temp\ccL45Tva.s 			page 41


 1055              		.loc 1 1199 0
 1056 000e A542     		cmp	r5, r4
 1057 0010 04D0     		beq	.L103
1200:..\common\uart_ldr/UART.c ****             {
1201:..\common\uart_ldr/UART.c ****                 UART_PutChar(string[bufIndex]);
 1058              		.loc 1 1201 0
 1059 0012 15F8010F 		ldrb	r0, [r5, #1]!	@ zero_extendqisi2
 1060              	.LVL61:
 1061 0016 FFF7FEFF 		bl	UART_PutChar
 1062              	.LVL62:
 1063 001a F8E7     		b	.L105
 1064              	.LVL63:
 1065              	.L103:
 1066 001c 38BD     		pop	{r3, r4, r5, pc}
 1067              	.L109:
 1068 001e 00BF     		.align	2
 1069              	.L108:
 1070 0020 00000000 		.word	.LANCHOR0
 1071              		.cfi_endproc
 1072              	.LFE21:
 1073              		.size	UART_PutArray, .-UART_PutArray
 1074              		.section	.text.UART_PutCRLF,"ax",%progbits
 1075              		.align	1
 1076              		.global	UART_PutCRLF
 1077              		.thumb
 1078              		.thumb_func
 1079              		.type	UART_PutCRLF, %function
 1080              	UART_PutCRLF:
 1081              	.LFB22:
1202:..\common\uart_ldr/UART.c ****                 bufIndex++;
1203:..\common\uart_ldr/UART.c ****             }
1204:..\common\uart_ldr/UART.c ****         }
1205:..\common\uart_ldr/UART.c ****     }
1206:..\common\uart_ldr/UART.c **** 
1207:..\common\uart_ldr/UART.c **** 
1208:..\common\uart_ldr/UART.c ****     /*******************************************************************************
1209:..\common\uart_ldr/UART.c ****     * Function Name: UART_PutCRLF
1210:..\common\uart_ldr/UART.c ****     ********************************************************************************
1211:..\common\uart_ldr/UART.c ****     *
1212:..\common\uart_ldr/UART.c ****     * Summary:
1213:..\common\uart_ldr/UART.c ****     *  Writes a byte of data followed by a carriage return (0x0D) and line feed
1214:..\common\uart_ldr/UART.c ****     *  (0x0A) to the transmit buffer.
1215:..\common\uart_ldr/UART.c ****     *
1216:..\common\uart_ldr/UART.c ****     * Parameters:
1217:..\common\uart_ldr/UART.c ****     *  txDataByte: Data byte to transmit before the carriage return and line feed.
1218:..\common\uart_ldr/UART.c ****     *
1219:..\common\uart_ldr/UART.c ****     * Return:
1220:..\common\uart_ldr/UART.c ****     *  None.
1221:..\common\uart_ldr/UART.c ****     *
1222:..\common\uart_ldr/UART.c ****     * Global Variables:
1223:..\common\uart_ldr/UART.c ****     *  UART_initVar - checked to identify that the component has been
1224:..\common\uart_ldr/UART.c ****     *     initialized.
1225:..\common\uart_ldr/UART.c ****     *
1226:..\common\uart_ldr/UART.c ****     * Reentrant:
1227:..\common\uart_ldr/UART.c ****     *  No.
1228:..\common\uart_ldr/UART.c ****     *
1229:..\common\uart_ldr/UART.c ****     *******************************************************************************/
ARM GAS  C:\Users\chemi\AppData\Local\Temp\ccL45Tva.s 			page 42


1230:..\common\uart_ldr/UART.c ****     void UART_PutCRLF(uint8 txDataByte) 
1231:..\common\uart_ldr/UART.c ****     {
 1082              		.loc 1 1231 0
 1083              		.cfi_startproc
 1084              		@ args = 0, pretend = 0, frame = 0
 1085              		@ frame_needed = 0, uses_anonymous_args = 0
 1086              	.LVL64:
 1087 0000 08B5     		push	{r3, lr}
 1088              		.cfi_def_cfa_offset 8
 1089              		.cfi_offset 3, -8
 1090              		.cfi_offset 14, -4
1232:..\common\uart_ldr/UART.c ****         /* If not Initialized then skip this function */
1233:..\common\uart_ldr/UART.c ****         if(UART_initVar != 0u)
 1091              		.loc 1 1233 0
 1092 0002 074B     		ldr	r3, .L112
 1093 0004 5B78     		ldrb	r3, [r3, #1]	@ zero_extendqisi2
 1094 0006 4BB1     		cbz	r3, .L110
1234:..\common\uart_ldr/UART.c ****         {
1235:..\common\uart_ldr/UART.c ****             UART_PutChar(txDataByte);
 1095              		.loc 1 1235 0
 1096 0008 FFF7FEFF 		bl	UART_PutChar
 1097              	.LVL65:
1236:..\common\uart_ldr/UART.c ****             UART_PutChar(0x0Du);
 1098              		.loc 1 1236 0
 1099 000c 0D20     		movs	r0, #13
 1100 000e FFF7FEFF 		bl	UART_PutChar
 1101              	.LVL66:
1237:..\common\uart_ldr/UART.c ****             UART_PutChar(0x0Au);
1238:..\common\uart_ldr/UART.c ****         }
1239:..\common\uart_ldr/UART.c ****     }
 1102              		.loc 1 1239 0
 1103 0012 BDE80840 		pop	{r3, lr}
 1104              		.cfi_remember_state
 1105              		.cfi_restore 14
 1106              		.cfi_restore 3
 1107              		.cfi_def_cfa_offset 0
1237:..\common\uart_ldr/UART.c ****             UART_PutChar(0x0Au);
 1108              		.loc 1 1237 0
 1109 0016 0A20     		movs	r0, #10
 1110 0018 FFF7FEBF 		b	UART_PutChar
 1111              	.LVL67:
 1112              	.L110:
 1113              		.cfi_restore_state
 1114 001c 08BD     		pop	{r3, pc}
 1115              	.L113:
 1116 001e 00BF     		.align	2
 1117              	.L112:
 1118 0020 00000000 		.word	.LANCHOR0
 1119              		.cfi_endproc
 1120              	.LFE22:
 1121              		.size	UART_PutCRLF, .-UART_PutCRLF
 1122              		.section	.text.UART_GetTxBufferSize,"ax",%progbits
 1123              		.align	1
 1124              		.global	UART_GetTxBufferSize
 1125              		.thumb
 1126              		.thumb_func
 1127              		.type	UART_GetTxBufferSize, %function
ARM GAS  C:\Users\chemi\AppData\Local\Temp\ccL45Tva.s 			page 43


 1128              	UART_GetTxBufferSize:
 1129              	.LFB23:
1240:..\common\uart_ldr/UART.c **** 
1241:..\common\uart_ldr/UART.c **** 
1242:..\common\uart_ldr/UART.c ****     /*******************************************************************************
1243:..\common\uart_ldr/UART.c ****     * Function Name: UART_GetTxBufferSize
1244:..\common\uart_ldr/UART.c ****     ********************************************************************************
1245:..\common\uart_ldr/UART.c ****     *
1246:..\common\uart_ldr/UART.c ****     * Summary:
1247:..\common\uart_ldr/UART.c ****     *  Returns the number of bytes in the TX buffer which are waiting to be 
1248:..\common\uart_ldr/UART.c ****     *  transmitted.
1249:..\common\uart_ldr/UART.c ****     *  * TX software buffer is disabled (TX Buffer Size parameter is equal to 4): 
1250:..\common\uart_ldr/UART.c ****     *    returns 0 for empty TX FIFO, 1 for not full TX FIFO or 4 for full TX FIFO.
1251:..\common\uart_ldr/UART.c ****     *  * TX software buffer is enabled: returns the number of bytes in the TX 
1252:..\common\uart_ldr/UART.c ****     *    software buffer which are waiting to be transmitted. Bytes available in the
1253:..\common\uart_ldr/UART.c ****     *    TX FIFO do not count.
1254:..\common\uart_ldr/UART.c ****     *
1255:..\common\uart_ldr/UART.c ****     * Parameters:
1256:..\common\uart_ldr/UART.c ****     *  None.
1257:..\common\uart_ldr/UART.c ****     *
1258:..\common\uart_ldr/UART.c ****     * Return:
1259:..\common\uart_ldr/UART.c ****     *  Number of bytes used in the TX buffer. Return value type depends on the TX 
1260:..\common\uart_ldr/UART.c ****     *  Buffer Size parameter.
1261:..\common\uart_ldr/UART.c ****     *
1262:..\common\uart_ldr/UART.c ****     * Global Variables:
1263:..\common\uart_ldr/UART.c ****     *  UART_txBufferWrite - used to calculate left space.
1264:..\common\uart_ldr/UART.c ****     *  UART_txBufferRead - used to calculate left space.
1265:..\common\uart_ldr/UART.c ****     *
1266:..\common\uart_ldr/UART.c ****     * Reentrant:
1267:..\common\uart_ldr/UART.c ****     *  No.
1268:..\common\uart_ldr/UART.c ****     *
1269:..\common\uart_ldr/UART.c ****     * Theory:
1270:..\common\uart_ldr/UART.c ****     *  Allows the user to find out how full the TX Buffer is.
1271:..\common\uart_ldr/UART.c ****     *
1272:..\common\uart_ldr/UART.c ****     *******************************************************************************/
1273:..\common\uart_ldr/UART.c ****     uint8 UART_GetTxBufferSize(void)
1274:..\common\uart_ldr/UART.c ****                                                             
1275:..\common\uart_ldr/UART.c ****     {
 1130              		.loc 1 1275 0
 1131              		.cfi_startproc
 1132              		@ args = 0, pretend = 0, frame = 0
 1133              		@ frame_needed = 0, uses_anonymous_args = 0
 1134              		@ link register save eliminated.
1276:..\common\uart_ldr/UART.c ****         uint8 size;
1277:..\common\uart_ldr/UART.c **** 
1278:..\common\uart_ldr/UART.c ****     #if (UART_TX_INTERRUPT_ENABLED)
1279:..\common\uart_ldr/UART.c **** 
1280:..\common\uart_ldr/UART.c ****         /* Protect variables that could change on interrupt. */
1281:..\common\uart_ldr/UART.c ****         UART_DisableTxInt();
 1135              		.loc 1 1281 0
 1136 0000 084B     		ldr	r3, .L118
 1137 0002 0222     		movs	r2, #2
 1138 0004 1A60     		str	r2, [r3]
1282:..\common\uart_ldr/UART.c **** 
1283:..\common\uart_ldr/UART.c ****         if(UART_txBufferRead == UART_txBufferWrite)
 1139              		.loc 1 1283 0
 1140 0006 084A     		ldr	r2, .L118+4
ARM GAS  C:\Users\chemi\AppData\Local\Temp\ccL45Tva.s 			page 44


 1141 0008 9179     		ldrb	r1, [r2, #6]	@ zero_extendqisi2
 1142 000a D379     		ldrb	r3, [r2, #7]	@ zero_extendqisi2
 1143 000c 9942     		cmp	r1, r3
 1144 000e 04D0     		beq	.L117
1284:..\common\uart_ldr/UART.c ****         {
1285:..\common\uart_ldr/UART.c ****             size = 0u;
1286:..\common\uart_ldr/UART.c ****         }
1287:..\common\uart_ldr/UART.c ****         else if(UART_txBufferRead < UART_txBufferWrite)
 1145              		.loc 1 1287 0
 1146 0010 9179     		ldrb	r1, [r2, #6]	@ zero_extendqisi2
1288:..\common\uart_ldr/UART.c ****         {
1289:..\common\uart_ldr/UART.c ****             size = (UART_txBufferWrite - UART_txBufferRead);
 1147              		.loc 1 1289 0
 1148 0012 9079     		ldrb	r0, [r2, #6]	@ zero_extendqisi2
 1149 0014 1B1A     		subs	r3, r3, r0
 1150 0016 D8B2     		uxtb	r0, r3
 1151 0018 00E0     		b	.L115
 1152              	.L117:
1285:..\common\uart_ldr/UART.c ****         }
 1153              		.loc 1 1285 0
 1154 001a 0020     		movs	r0, #0
 1155              	.L115:
 1156              	.LVL68:
1290:..\common\uart_ldr/UART.c ****         }
1291:..\common\uart_ldr/UART.c ****         else
1292:..\common\uart_ldr/UART.c ****         {
1293:..\common\uart_ldr/UART.c ****             size = (UART_TX_BUFFER_SIZE - UART_txBufferRead) +
1294:..\common\uart_ldr/UART.c ****                     UART_txBufferWrite;
1295:..\common\uart_ldr/UART.c ****         }
1296:..\common\uart_ldr/UART.c **** 
1297:..\common\uart_ldr/UART.c ****         UART_EnableTxInt();
 1157              		.loc 1 1297 0
 1158 001c 034B     		ldr	r3, .L118+8
 1159 001e 0222     		movs	r2, #2
 1160 0020 1A60     		str	r2, [r3]
1298:..\common\uart_ldr/UART.c **** 
1299:..\common\uart_ldr/UART.c ****     #else
1300:..\common\uart_ldr/UART.c **** 
1301:..\common\uart_ldr/UART.c ****         size = UART_TXSTATUS_REG;
1302:..\common\uart_ldr/UART.c **** 
1303:..\common\uart_ldr/UART.c ****         /* Is the fifo is full. */
1304:..\common\uart_ldr/UART.c ****         if((size & UART_TX_STS_FIFO_FULL) != 0u)
1305:..\common\uart_ldr/UART.c ****         {
1306:..\common\uart_ldr/UART.c ****             size = UART_FIFO_LENGTH;
1307:..\common\uart_ldr/UART.c ****         }
1308:..\common\uart_ldr/UART.c ****         else if((size & UART_TX_STS_FIFO_EMPTY) != 0u)
1309:..\common\uart_ldr/UART.c ****         {
1310:..\common\uart_ldr/UART.c ****             size = 0u;
1311:..\common\uart_ldr/UART.c ****         }
1312:..\common\uart_ldr/UART.c ****         else
1313:..\common\uart_ldr/UART.c ****         {
1314:..\common\uart_ldr/UART.c ****             /* We only know there is data in the fifo. */
1315:..\common\uart_ldr/UART.c ****             size = 1u;
1316:..\common\uart_ldr/UART.c ****         }
1317:..\common\uart_ldr/UART.c **** 
1318:..\common\uart_ldr/UART.c ****     #endif /* (UART_TX_INTERRUPT_ENABLED) */
1319:..\common\uart_ldr/UART.c **** 
ARM GAS  C:\Users\chemi\AppData\Local\Temp\ccL45Tva.s 			page 45


1320:..\common\uart_ldr/UART.c ****     return(size);
1321:..\common\uart_ldr/UART.c ****     }
 1161              		.loc 1 1321 0
 1162 0022 7047     		bx	lr
 1163              	.L119:
 1164              		.align	2
 1165              	.L118:
 1166 0024 80E100E0 		.word	-536813184
 1167 0028 00000000 		.word	.LANCHOR0
 1168 002c 00E100E0 		.word	-536813312
 1169              		.cfi_endproc
 1170              	.LFE23:
 1171              		.size	UART_GetTxBufferSize, .-UART_GetTxBufferSize
 1172              		.section	.text.UART_ClearTxBuffer,"ax",%progbits
 1173              		.align	1
 1174              		.global	UART_ClearTxBuffer
 1175              		.thumb
 1176              		.thumb_func
 1177              		.type	UART_ClearTxBuffer, %function
 1178              	UART_ClearTxBuffer:
 1179              	.LFB24:
1322:..\common\uart_ldr/UART.c **** 
1323:..\common\uart_ldr/UART.c **** 
1324:..\common\uart_ldr/UART.c ****     /*******************************************************************************
1325:..\common\uart_ldr/UART.c ****     * Function Name: UART_ClearTxBuffer
1326:..\common\uart_ldr/UART.c ****     ********************************************************************************
1327:..\common\uart_ldr/UART.c ****     *
1328:..\common\uart_ldr/UART.c ****     * Summary:
1329:..\common\uart_ldr/UART.c ****     *  Clears all data from the TX buffer and hardware TX FIFO.
1330:..\common\uart_ldr/UART.c ****     *
1331:..\common\uart_ldr/UART.c ****     * Parameters:
1332:..\common\uart_ldr/UART.c ****     *  None.
1333:..\common\uart_ldr/UART.c ****     *
1334:..\common\uart_ldr/UART.c ****     * Return:
1335:..\common\uart_ldr/UART.c ****     *  None.
1336:..\common\uart_ldr/UART.c ****     *
1337:..\common\uart_ldr/UART.c ****     * Global Variables:
1338:..\common\uart_ldr/UART.c ****     *  UART_txBufferWrite - cleared to zero.
1339:..\common\uart_ldr/UART.c ****     *  UART_txBufferRead - cleared to zero.
1340:..\common\uart_ldr/UART.c ****     *
1341:..\common\uart_ldr/UART.c ****     * Reentrant:
1342:..\common\uart_ldr/UART.c ****     *  No.
1343:..\common\uart_ldr/UART.c ****     *
1344:..\common\uart_ldr/UART.c ****     * Theory:
1345:..\common\uart_ldr/UART.c ****     *  Setting the pointers to zero makes the system believe there is no data to
1346:..\common\uart_ldr/UART.c ****     *  read and writing will resume at address 0 overwriting any data that may have
1347:..\common\uart_ldr/UART.c ****     *  remained in the RAM.
1348:..\common\uart_ldr/UART.c ****     *
1349:..\common\uart_ldr/UART.c ****     * Side Effects:
1350:..\common\uart_ldr/UART.c ****     *  Data waiting in the transmit buffer is not sent; a byte that is currently
1351:..\common\uart_ldr/UART.c ****     *  transmitting finishes transmitting.
1352:..\common\uart_ldr/UART.c ****     *
1353:..\common\uart_ldr/UART.c ****     *******************************************************************************/
1354:..\common\uart_ldr/UART.c ****     void UART_ClearTxBuffer(void) 
1355:..\common\uart_ldr/UART.c ****     {
 1180              		.loc 1 1355 0
 1181              		.cfi_startproc
ARM GAS  C:\Users\chemi\AppData\Local\Temp\ccL45Tva.s 			page 46


 1182              		@ args = 0, pretend = 0, frame = 0
 1183              		@ frame_needed = 0, uses_anonymous_args = 0
 1184 0000 08B5     		push	{r3, lr}
 1185              		.cfi_def_cfa_offset 8
 1186              		.cfi_offset 3, -8
 1187              		.cfi_offset 14, -4
1356:..\common\uart_ldr/UART.c ****         uint8 enableInterrupts;
1357:..\common\uart_ldr/UART.c **** 
1358:..\common\uart_ldr/UART.c ****         enableInterrupts = CyEnterCriticalSection();
 1188              		.loc 1 1358 0
 1189 0002 FFF7FEFF 		bl	CyEnterCriticalSection
 1190              	.LVL69:
1359:..\common\uart_ldr/UART.c ****         /* Clear the HW FIFO */
1360:..\common\uart_ldr/UART.c ****         UART_TXDATA_AUX_CTL_REG |= (uint8)  UART_TX_FIFO_CLR;
 1191              		.loc 1 1360 0
 1192 0006 0A4B     		ldr	r3, .L121
 1193 0008 1A78     		ldrb	r2, [r3]	@ zero_extendqisi2
 1194 000a 42F00102 		orr	r2, r2, #1
 1195 000e 1A70     		strb	r2, [r3]
1361:..\common\uart_ldr/UART.c ****         UART_TXDATA_AUX_CTL_REG &= (uint8) ~UART_TX_FIFO_CLR;
 1196              		.loc 1 1361 0
 1197 0010 1A78     		ldrb	r2, [r3]	@ zero_extendqisi2
 1198 0012 02F0FE02 		and	r2, r2, #254
 1199 0016 1A70     		strb	r2, [r3]
1362:..\common\uart_ldr/UART.c ****         CyExitCriticalSection(enableInterrupts);
 1200              		.loc 1 1362 0
 1201 0018 FFF7FEFF 		bl	CyExitCriticalSection
 1202              	.LVL70:
1363:..\common\uart_ldr/UART.c **** 
1364:..\common\uart_ldr/UART.c ****     #if (UART_TX_INTERRUPT_ENABLED)
1365:..\common\uart_ldr/UART.c **** 
1366:..\common\uart_ldr/UART.c ****         /* Protect variables that could change on interrupt. */
1367:..\common\uart_ldr/UART.c ****         UART_DisableTxInt();
 1203              		.loc 1 1367 0
 1204 001c 054A     		ldr	r2, .L121+4
 1205 001e 0223     		movs	r3, #2
 1206 0020 1360     		str	r3, [r2]
1368:..\common\uart_ldr/UART.c **** 
1369:..\common\uart_ldr/UART.c ****         UART_txBufferRead = 0u;
 1207              		.loc 1 1369 0
 1208 0022 054A     		ldr	r2, .L121+8
 1209 0024 0021     		movs	r1, #0
 1210 0026 9171     		strb	r1, [r2, #6]
1370:..\common\uart_ldr/UART.c ****         UART_txBufferWrite = 0u;
 1211              		.loc 1 1370 0
 1212 0028 D171     		strb	r1, [r2, #7]
1371:..\common\uart_ldr/UART.c **** 
1372:..\common\uart_ldr/UART.c ****         /* Enable Tx interrupt. */
1373:..\common\uart_ldr/UART.c ****         UART_EnableTxInt();
 1213              		.loc 1 1373 0
 1214 002a 044A     		ldr	r2, .L121+12
 1215 002c 1360     		str	r3, [r2]
 1216 002e 08BD     		pop	{r3, pc}
 1217              	.L122:
 1218              		.align	2
 1219              	.L121:
 1220 0030 99640040 		.word	1073767577
ARM GAS  C:\Users\chemi\AppData\Local\Temp\ccL45Tva.s 			page 47


 1221 0034 80E100E0 		.word	-536813184
 1222 0038 00000000 		.word	.LANCHOR0
 1223 003c 00E100E0 		.word	-536813312
 1224              		.cfi_endproc
 1225              	.LFE24:
 1226              		.size	UART_ClearTxBuffer, .-UART_ClearTxBuffer
 1227              		.section	.text.UART_SendBreak,"ax",%progbits
 1228              		.align	1
 1229              		.global	UART_SendBreak
 1230              		.thumb
 1231              		.thumb_func
 1232              		.type	UART_SendBreak, %function
 1233              	UART_SendBreak:
 1234              	.LFB25:
1374:..\common\uart_ldr/UART.c **** 
1375:..\common\uart_ldr/UART.c ****     #endif /* (UART_TX_INTERRUPT_ENABLED) */
1376:..\common\uart_ldr/UART.c ****     }
1377:..\common\uart_ldr/UART.c **** 
1378:..\common\uart_ldr/UART.c **** 
1379:..\common\uart_ldr/UART.c ****     /*******************************************************************************
1380:..\common\uart_ldr/UART.c ****     * Function Name: UART_SendBreak
1381:..\common\uart_ldr/UART.c ****     ********************************************************************************
1382:..\common\uart_ldr/UART.c ****     *
1383:..\common\uart_ldr/UART.c ****     * Summary:
1384:..\common\uart_ldr/UART.c ****     *  Transmits a break signal on the bus.
1385:..\common\uart_ldr/UART.c ****     *
1386:..\common\uart_ldr/UART.c ****     * Parameters:
1387:..\common\uart_ldr/UART.c ****     *  uint8 retMode:  Send Break return mode. See the following table for options.
1388:..\common\uart_ldr/UART.c ****     *   UART_SEND_BREAK - Initialize registers for break, send the Break
1389:..\common\uart_ldr/UART.c ****     *       signal and return immediately.
1390:..\common\uart_ldr/UART.c ****     *   UART_WAIT_FOR_COMPLETE_REINIT - Wait until break transmission is
1391:..\common\uart_ldr/UART.c ****     *       complete, reinitialize registers to normal transmission mode then return
1392:..\common\uart_ldr/UART.c ****     *   UART_REINIT - Reinitialize registers to normal transmission mode
1393:..\common\uart_ldr/UART.c ****     *       then return.
1394:..\common\uart_ldr/UART.c ****     *   UART_SEND_WAIT_REINIT - Performs both options: 
1395:..\common\uart_ldr/UART.c ****     *      UART_SEND_BREAK and UART_WAIT_FOR_COMPLETE_REINIT.
1396:..\common\uart_ldr/UART.c ****     *      This option is recommended for most cases.
1397:..\common\uart_ldr/UART.c ****     *
1398:..\common\uart_ldr/UART.c ****     * Return:
1399:..\common\uart_ldr/UART.c ****     *  None.
1400:..\common\uart_ldr/UART.c ****     *
1401:..\common\uart_ldr/UART.c ****     * Global Variables:
1402:..\common\uart_ldr/UART.c ****     *  UART_initVar - checked to identify that the component has been
1403:..\common\uart_ldr/UART.c ****     *     initialized.
1404:..\common\uart_ldr/UART.c ****     *  txPeriod - static variable, used for keeping TX period configuration.
1405:..\common\uart_ldr/UART.c ****     *
1406:..\common\uart_ldr/UART.c ****     * Reentrant:
1407:..\common\uart_ldr/UART.c ****     *  No.
1408:..\common\uart_ldr/UART.c ****     *
1409:..\common\uart_ldr/UART.c ****     * Theory:
1410:..\common\uart_ldr/UART.c ****     *  SendBreak function initializes registers to send 13-bit break signal. It is
1411:..\common\uart_ldr/UART.c ****     *  important to return the registers configuration to normal for continue 8-bit
1412:..\common\uart_ldr/UART.c ****     *  operation.
1413:..\common\uart_ldr/UART.c ****     *  There are 3 variants for this API usage:
1414:..\common\uart_ldr/UART.c ****     *  1) SendBreak(3) - function will send the Break signal and take care on the
1415:..\common\uart_ldr/UART.c ****     *     configuration returning. Function will block CPU until transmission
1416:..\common\uart_ldr/UART.c ****     *     complete.
ARM GAS  C:\Users\chemi\AppData\Local\Temp\ccL45Tva.s 			page 48


1417:..\common\uart_ldr/UART.c ****     *  2) User may want to use blocking time if UART configured to the low speed
1418:..\common\uart_ldr/UART.c ****     *     operation
1419:..\common\uart_ldr/UART.c ****     *     Example for this case:
1420:..\common\uart_ldr/UART.c ****     *     SendBreak(0);     - initialize Break signal transmission
1421:..\common\uart_ldr/UART.c ****     *         Add your code here to use CPU time
1422:..\common\uart_ldr/UART.c ****     *     SendBreak(1);     - complete Break operation
1423:..\common\uart_ldr/UART.c ****     *  3) Same to 2) but user may want to initialize and use the interrupt to
1424:..\common\uart_ldr/UART.c ****     *     complete break operation.
1425:..\common\uart_ldr/UART.c ****     *     Example for this case:
1426:..\common\uart_ldr/UART.c ****     *     Initialize TX interrupt with "TX - On TX Complete" parameter
1427:..\common\uart_ldr/UART.c ****     *     SendBreak(0);     - initialize Break signal transmission
1428:..\common\uart_ldr/UART.c ****     *         Add your code here to use CPU time
1429:..\common\uart_ldr/UART.c ****     *     When interrupt appear with UART_TX_STS_COMPLETE status:
1430:..\common\uart_ldr/UART.c ****     *     SendBreak(2);     - complete Break operation
1431:..\common\uart_ldr/UART.c ****     *
1432:..\common\uart_ldr/UART.c ****     * Side Effects:
1433:..\common\uart_ldr/UART.c ****     *  The UART_SendBreak() function initializes registers to send a
1434:..\common\uart_ldr/UART.c ****     *  break signal.
1435:..\common\uart_ldr/UART.c ****     *  Break signal length depends on the break signal bits configuration.
1436:..\common\uart_ldr/UART.c ****     *  The register configuration should be reinitialized before normal 8-bit
1437:..\common\uart_ldr/UART.c ****     *  communication can continue.
1438:..\common\uart_ldr/UART.c ****     *
1439:..\common\uart_ldr/UART.c ****     *******************************************************************************/
1440:..\common\uart_ldr/UART.c ****     void UART_SendBreak(uint8 retMode) 
1441:..\common\uart_ldr/UART.c ****     {
 1235              		.loc 1 1441 0
 1236              		.cfi_startproc
 1237              		@ args = 0, pretend = 0, frame = 0
 1238              		@ frame_needed = 0, uses_anonymous_args = 0
 1239              		@ link register save eliminated.
 1240              	.LVL71:
1442:..\common\uart_ldr/UART.c **** 
1443:..\common\uart_ldr/UART.c ****         /* If not Initialized then skip this function*/
1444:..\common\uart_ldr/UART.c ****         if(UART_initVar != 0u)
 1241              		.loc 1 1444 0
 1242 0000 124B     		ldr	r3, .L146
 1243 0002 5A78     		ldrb	r2, [r3, #1]	@ zero_extendqisi2
 1244 0004 0AB3     		cbz	r2, .L123
 1245              	.LBB2:
1445:..\common\uart_ldr/UART.c ****         {
1446:..\common\uart_ldr/UART.c ****             /* Set the Counter to 13-bits and transmit a 00 byte */
1447:..\common\uart_ldr/UART.c ****             /* When that is done then reset the counter value back */
1448:..\common\uart_ldr/UART.c ****             uint8 tmpStat;
1449:..\common\uart_ldr/UART.c **** 
1450:..\common\uart_ldr/UART.c ****         #if(UART_HD_ENABLED) /* Half Duplex mode*/
1451:..\common\uart_ldr/UART.c **** 
1452:..\common\uart_ldr/UART.c ****             if( (retMode == UART_SEND_BREAK) ||
1453:..\common\uart_ldr/UART.c ****                 (retMode == UART_SEND_WAIT_REINIT ) )
1454:..\common\uart_ldr/UART.c ****             {
1455:..\common\uart_ldr/UART.c ****                 /* CTRL_HD_SEND_BREAK - sends break bits in HD mode */
1456:..\common\uart_ldr/UART.c ****                 UART_WriteControlRegister(UART_ReadControlRegister() |
1457:..\common\uart_ldr/UART.c ****                                                       UART_CTRL_HD_SEND_BREAK);
1458:..\common\uart_ldr/UART.c ****                 /* Send zeros */
1459:..\common\uart_ldr/UART.c ****                 UART_TXDATA_REG = 0u;
1460:..\common\uart_ldr/UART.c **** 
1461:..\common\uart_ldr/UART.c ****                 do /* Wait until transmit starts */
1462:..\common\uart_ldr/UART.c ****                 {
ARM GAS  C:\Users\chemi\AppData\Local\Temp\ccL45Tva.s 			page 49


1463:..\common\uart_ldr/UART.c ****                     tmpStat = UART_TXSTATUS_REG;
1464:..\common\uart_ldr/UART.c ****                 }
1465:..\common\uart_ldr/UART.c ****                 while((tmpStat & UART_TX_STS_FIFO_EMPTY) != 0u);
1466:..\common\uart_ldr/UART.c ****             }
1467:..\common\uart_ldr/UART.c **** 
1468:..\common\uart_ldr/UART.c ****             if( (retMode == UART_WAIT_FOR_COMPLETE_REINIT) ||
1469:..\common\uart_ldr/UART.c ****                 (retMode == UART_SEND_WAIT_REINIT) )
1470:..\common\uart_ldr/UART.c ****             {
1471:..\common\uart_ldr/UART.c ****                 do /* Wait until transmit complete */
1472:..\common\uart_ldr/UART.c ****                 {
1473:..\common\uart_ldr/UART.c ****                     tmpStat = UART_TXSTATUS_REG;
1474:..\common\uart_ldr/UART.c ****                 }
1475:..\common\uart_ldr/UART.c ****                 while(((uint8)~tmpStat & UART_TX_STS_COMPLETE) != 0u);
1476:..\common\uart_ldr/UART.c ****             }
1477:..\common\uart_ldr/UART.c **** 
1478:..\common\uart_ldr/UART.c ****             if( (retMode == UART_WAIT_FOR_COMPLETE_REINIT) ||
1479:..\common\uart_ldr/UART.c ****                 (retMode == UART_REINIT) ||
1480:..\common\uart_ldr/UART.c ****                 (retMode == UART_SEND_WAIT_REINIT) )
1481:..\common\uart_ldr/UART.c ****             {
1482:..\common\uart_ldr/UART.c ****                 UART_WriteControlRegister(UART_ReadControlRegister() &
1483:..\common\uart_ldr/UART.c ****                                               (uint8)~UART_CTRL_HD_SEND_BREAK);
1484:..\common\uart_ldr/UART.c ****             }
1485:..\common\uart_ldr/UART.c **** 
1486:..\common\uart_ldr/UART.c ****         #else /* UART_HD_ENABLED Full Duplex mode */
1487:..\common\uart_ldr/UART.c **** 
1488:..\common\uart_ldr/UART.c ****             static uint8 txPeriod;
1489:..\common\uart_ldr/UART.c **** 
1490:..\common\uart_ldr/UART.c ****             if( (retMode == UART_SEND_BREAK) ||
 1246              		.loc 1 1490 0
 1247 0006 08B1     		cbz	r0, .L126
 1248              		.loc 1 1490 0 is_stmt 0 discriminator 1
 1249 0008 0328     		cmp	r0, #3
 1250 000a 1CD1     		bne	.L127
 1251              	.L126:
1491:..\common\uart_ldr/UART.c ****                 (retMode == UART_SEND_WAIT_REINIT) )
1492:..\common\uart_ldr/UART.c ****             {
1493:..\common\uart_ldr/UART.c ****                 /* CTRL_HD_SEND_BREAK - skip to send parity bit at Break signal in Full Duplex mode
1494:..\common\uart_ldr/UART.c ****                 #if( (UART_PARITY_TYPE != UART__B_UART__NONE_REVB) || \
1495:..\common\uart_ldr/UART.c ****                                     (UART_PARITY_TYPE_SW != 0u) )
1496:..\common\uart_ldr/UART.c ****                     UART_WriteControlRegister(UART_ReadControlRegister() |
1497:..\common\uart_ldr/UART.c ****                                                           UART_CTRL_HD_SEND_BREAK);
1498:..\common\uart_ldr/UART.c ****                 #endif /* End UART_PARITY_TYPE != UART__B_UART__NONE_REVB  */
1499:..\common\uart_ldr/UART.c **** 
1500:..\common\uart_ldr/UART.c ****                 #if(UART_TXCLKGEN_DP)
1501:..\common\uart_ldr/UART.c ****                     txPeriod = UART_TXBITCLKTX_COMPLETE_REG;
 1252              		.loc 1 1501 0 is_stmt 1
 1253 000c 104A     		ldr	r2, .L146+4
 1254 000e 1178     		ldrb	r1, [r2]	@ zero_extendqisi2
 1255 0010 1972     		strb	r1, [r3, #8]
1502:..\common\uart_ldr/UART.c ****                     UART_TXBITCLKTX_COMPLETE_REG = UART_TXBITCTR_BREAKBITS;
 1256              		.loc 1 1502 0
 1257 0012 6721     		movs	r1, #103
 1258 0014 1170     		strb	r1, [r2]
1503:..\common\uart_ldr/UART.c ****                 #else
1504:..\common\uart_ldr/UART.c ****                     txPeriod = UART_TXBITCTR_PERIOD_REG;
1505:..\common\uart_ldr/UART.c ****                     UART_TXBITCTR_PERIOD_REG = UART_TXBITCTR_BREAKBITS8X;
1506:..\common\uart_ldr/UART.c ****                 #endif /* End UART_TXCLKGEN_DP */
ARM GAS  C:\Users\chemi\AppData\Local\Temp\ccL45Tva.s 			page 50


1507:..\common\uart_ldr/UART.c **** 
1508:..\common\uart_ldr/UART.c ****                 /* Send zeros */
1509:..\common\uart_ldr/UART.c ****                 UART_TXDATA_REG = 0u;
 1259              		.loc 1 1509 0
 1260 0016 0021     		movs	r1, #0
 1261 0018 02F8F11C 		strb	r1, [r2, #-241]
1510:..\common\uart_ldr/UART.c **** 
1511:..\common\uart_ldr/UART.c ****                 do /* Wait until transmit starts */
1512:..\common\uart_ldr/UART.c ****                 {
1513:..\common\uart_ldr/UART.c ****                     tmpStat = UART_TXSTATUS_REG;
 1262              		.loc 1 1513 0
 1263 001c 0D49     		ldr	r1, .L146+8
 1264              	.L128:
 1265              		.loc 1 1513 0 is_stmt 0 discriminator 1
 1266 001e 0A78     		ldrb	r2, [r1]	@ zero_extendqisi2
 1267              	.LVL72:
1514:..\common\uart_ldr/UART.c ****                 }
1515:..\common\uart_ldr/UART.c ****                 while((tmpStat & UART_TX_STS_FIFO_EMPTY) != 0u);
 1268              		.loc 1 1515 0 is_stmt 1 discriminator 1
 1269 0020 9207     		lsls	r2, r2, #30
 1270              	.LVL73:
 1271 0022 FCD4     		bmi	.L128
1516:..\common\uart_ldr/UART.c ****             }
1517:..\common\uart_ldr/UART.c **** 
1518:..\common\uart_ldr/UART.c ****             if( (retMode == UART_WAIT_FOR_COMPLETE_REINIT) ||
 1272              		.loc 1 1518 0
 1273 0024 00F0FD02 		and	r2, r0, #253
 1274 0028 012A     		cmp	r2, #1
 1275              	.L145:
 1276 002a 03D0     		beq	.L129
 1277              	.L133:
1519:..\common\uart_ldr/UART.c ****                 (retMode == UART_SEND_WAIT_REINIT) )
1520:..\common\uart_ldr/UART.c ****             {
1521:..\common\uart_ldr/UART.c ****                 do /* Wait until transmit complete */
1522:..\common\uart_ldr/UART.c ****                 {
1523:..\common\uart_ldr/UART.c ****                     tmpStat = UART_TXSTATUS_REG;
1524:..\common\uart_ldr/UART.c ****                 }
1525:..\common\uart_ldr/UART.c ****                 while(((uint8)~tmpStat & UART_TX_STS_COMPLETE) != 0u);
1526:..\common\uart_ldr/UART.c ****             }
1527:..\common\uart_ldr/UART.c **** 
1528:..\common\uart_ldr/UART.c ****             if( (retMode == UART_WAIT_FOR_COMPLETE_REINIT) ||
 1278              		.loc 1 1528 0
 1279 002c 0138     		subs	r0, r0, #1
 1280              	.LVL74:
 1281 002e 0228     		cmp	r0, #2
 1282 0030 05D9     		bls	.L130
 1283 0032 7047     		bx	lr
 1284              	.LVL75:
 1285              	.L129:
1523:..\common\uart_ldr/UART.c ****                 }
 1286              		.loc 1 1523 0
 1287 0034 0749     		ldr	r1, .L146+8
 1288              	.L132:
1523:..\common\uart_ldr/UART.c ****                 }
 1289              		.loc 1 1523 0 is_stmt 0 discriminator 1
 1290 0036 0A78     		ldrb	r2, [r1]	@ zero_extendqisi2
 1291              	.LVL76:
ARM GAS  C:\Users\chemi\AppData\Local\Temp\ccL45Tva.s 			page 51


1525:..\common\uart_ldr/UART.c ****             }
 1292              		.loc 1 1525 0 is_stmt 1 discriminator 1
 1293 0038 D207     		lsls	r2, r2, #31
 1294              	.LVL77:
 1295 003a FCD5     		bpl	.L132
 1296 003c F6E7     		b	.L133
 1297              	.LVL78:
 1298              	.L130:
1529:..\common\uart_ldr/UART.c ****                 (retMode == UART_REINIT) ||
1530:..\common\uart_ldr/UART.c ****                 (retMode == UART_SEND_WAIT_REINIT) )
1531:..\common\uart_ldr/UART.c ****             {
1532:..\common\uart_ldr/UART.c **** 
1533:..\common\uart_ldr/UART.c ****             #if(UART_TXCLKGEN_DP)
1534:..\common\uart_ldr/UART.c ****                 UART_TXBITCLKTX_COMPLETE_REG = txPeriod;
 1299              		.loc 1 1534 0
 1300 003e 1A7A     		ldrb	r2, [r3, #8]	@ zero_extendqisi2
 1301 0040 034B     		ldr	r3, .L146+4
 1302 0042 1A70     		strb	r2, [r3]
 1303              	.LBE2:
1535:..\common\uart_ldr/UART.c ****             #else
1536:..\common\uart_ldr/UART.c ****                 UART_TXBITCTR_PERIOD_REG = txPeriod;
1537:..\common\uart_ldr/UART.c ****             #endif /* End UART_TXCLKGEN_DP */
1538:..\common\uart_ldr/UART.c **** 
1539:..\common\uart_ldr/UART.c ****             #if( (UART_PARITY_TYPE != UART__B_UART__NONE_REVB) || \
1540:..\common\uart_ldr/UART.c ****                  (UART_PARITY_TYPE_SW != 0u) )
1541:..\common\uart_ldr/UART.c ****                 UART_WriteControlRegister(UART_ReadControlRegister() &
1542:..\common\uart_ldr/UART.c ****                                                       (uint8) ~UART_CTRL_HD_SEND_BREAK);
1543:..\common\uart_ldr/UART.c ****             #endif /* End UART_PARITY_TYPE != NONE */
1544:..\common\uart_ldr/UART.c ****             }
1545:..\common\uart_ldr/UART.c ****         #endif    /* End UART_HD_ENABLED */
1546:..\common\uart_ldr/UART.c ****         }
1547:..\common\uart_ldr/UART.c ****     }
 1304              		.loc 1 1547 0
 1305 0044 7047     		bx	lr
 1306              	.LVL79:
 1307              	.L127:
 1308              	.LBB3:
1518:..\common\uart_ldr/UART.c ****                 (retMode == UART_SEND_WAIT_REINIT) )
 1309              		.loc 1 1518 0
 1310 0046 0128     		cmp	r0, #1
 1311 0048 EFE7     		b	.L145
 1312              	.L123:
 1313 004a 7047     		bx	lr
 1314              	.L147:
 1315              		.align	2
 1316              	.L146:
 1317 004c 00000000 		.word	.LANCHOR0
 1318 0050 3A650040 		.word	1073767738
 1319 0054 69640040 		.word	1073767529
 1320              	.LBE3:
 1321              		.cfi_endproc
 1322              	.LFE25:
 1323              		.size	UART_SendBreak, .-UART_SendBreak
 1324              		.section	.text.UART_SetTxAddressMode,"ax",%progbits
 1325              		.align	1
 1326              		.global	UART_SetTxAddressMode
 1327              		.thumb
ARM GAS  C:\Users\chemi\AppData\Local\Temp\ccL45Tva.s 			page 52


 1328              		.thumb_func
 1329              		.type	UART_SetTxAddressMode, %function
 1330              	UART_SetTxAddressMode:
 1331              	.LFB26:
1548:..\common\uart_ldr/UART.c **** 
1549:..\common\uart_ldr/UART.c **** 
1550:..\common\uart_ldr/UART.c ****     /*******************************************************************************
1551:..\common\uart_ldr/UART.c ****     * Function Name: UART_SetTxAddressMode
1552:..\common\uart_ldr/UART.c ****     ********************************************************************************
1553:..\common\uart_ldr/UART.c ****     *
1554:..\common\uart_ldr/UART.c ****     * Summary:
1555:..\common\uart_ldr/UART.c ****     *  Configures the transmitter to signal the next bytes is address or data.
1556:..\common\uart_ldr/UART.c ****     *
1557:..\common\uart_ldr/UART.c ****     * Parameters:
1558:..\common\uart_ldr/UART.c ****     *  addressMode: 
1559:..\common\uart_ldr/UART.c ****     *       UART_SET_SPACE - Configure the transmitter to send the next
1560:..\common\uart_ldr/UART.c ****     *                                    byte as a data.
1561:..\common\uart_ldr/UART.c ****     *       UART_SET_MARK  - Configure the transmitter to send the next
1562:..\common\uart_ldr/UART.c ****     *                                    byte as an address.
1563:..\common\uart_ldr/UART.c ****     *
1564:..\common\uart_ldr/UART.c ****     * Return:
1565:..\common\uart_ldr/UART.c ****     *  None.
1566:..\common\uart_ldr/UART.c ****     *
1567:..\common\uart_ldr/UART.c ****     * Side Effects:
1568:..\common\uart_ldr/UART.c ****     *  This function sets and clears UART_CTRL_MARK bit in the Control
1569:..\common\uart_ldr/UART.c ****     *  register.
1570:..\common\uart_ldr/UART.c ****     *
1571:..\common\uart_ldr/UART.c ****     *******************************************************************************/
1572:..\common\uart_ldr/UART.c ****     void UART_SetTxAddressMode(uint8 addressMode) 
1573:..\common\uart_ldr/UART.c ****     {
 1332              		.loc 1 1573 0
 1333              		.cfi_startproc
 1334              		@ args = 0, pretend = 0, frame = 0
 1335              		@ frame_needed = 0, uses_anonymous_args = 0
 1336              		@ link register save eliminated.
 1337              	.LVL80:
 1338 0000 7047     		bx	lr
 1339              		.cfi_endproc
 1340              	.LFE26:
 1341              		.size	UART_SetTxAddressMode, .-UART_SetTxAddressMode
 1342              		.global	UART_rxBufferOverflow
 1343              		.global	UART_rxBufferLoopDetect
 1344              		.global	UART_rxBufferWrite
 1345              		.global	UART_rxBufferRead
 1346              		.comm	UART_rxBuffer,1024,1
 1347              		.global	UART_errorStatus
 1348              		.global	UART_txBufferWrite
 1349              		.global	UART_txBufferRead
 1350              		.comm	UART_txBuffer,1024,1
 1351              		.global	UART_initVar
 1352              		.bss
 1353              		.set	.LANCHOR0,. + 0
 1354              		.type	UART_errorStatus, %object
 1355              		.size	UART_errorStatus, 1
 1356              	UART_errorStatus:
 1357 0000 00       		.space	1
 1358              		.type	UART_initVar, %object
ARM GAS  C:\Users\chemi\AppData\Local\Temp\ccL45Tva.s 			page 53


 1359              		.size	UART_initVar, 1
 1360              	UART_initVar:
 1361 0001 00       		.space	1
 1362              		.type	UART_rxBufferRead, %object
 1363              		.size	UART_rxBufferRead, 1
 1364              	UART_rxBufferRead:
 1365 0002 00       		.space	1
 1366              		.type	UART_rxBufferWrite, %object
 1367              		.size	UART_rxBufferWrite, 1
 1368              	UART_rxBufferWrite:
 1369 0003 00       		.space	1
 1370              		.type	UART_rxBufferLoopDetect, %object
 1371              		.size	UART_rxBufferLoopDetect, 1
 1372              	UART_rxBufferLoopDetect:
 1373 0004 00       		.space	1
 1374              		.type	UART_rxBufferOverflow, %object
 1375              		.size	UART_rxBufferOverflow, 1
 1376              	UART_rxBufferOverflow:
 1377 0005 00       		.space	1
 1378              		.type	UART_txBufferRead, %object
 1379              		.size	UART_txBufferRead, 1
 1380              	UART_txBufferRead:
 1381 0006 00       		.space	1
 1382              		.type	UART_txBufferWrite, %object
 1383              		.size	UART_txBufferWrite, 1
 1384              	UART_txBufferWrite:
 1385 0007 00       		.space	1
 1386              		.type	txPeriod.5143, %object
 1387              		.size	txPeriod.5143, 1
 1388              	txPeriod.5143:
 1389 0008 00       		.space	1
 1390              		.text
 1391              	.Letext0:
 1392              		.file 2 "Generated_Source\\PSoC5/cytypes.h"
 1393              		.file 3 "Generated_Source\\PSoC5/CyLib.h"