ARM GAS  C:\Users\chemi\AppData\Local\Temp\cc21dAG8.s 			page 1


   1              		.syntax unified
   2              		.cpu cortex-m3
   3              		.fpu softvfp
   4              		.eabi_attribute 20, 1
   5              		.eabi_attribute 21, 1
   6              		.eabi_attribute 23, 3
   7              		.eabi_attribute 24, 1
   8              		.eabi_attribute 25, 1
   9              		.eabi_attribute 26, 1
  10              		.eabi_attribute 30, 4
  11              		.eabi_attribute 34, 1
  12              		.eabi_attribute 18, 4
  13              		.thumb
  14              		.syntax unified
  15              		.file	"USBUART_std.c"
  16              		.text
  17              	.Ltext0:
  18              		.cfi_sections	.debug_frame
  19              		.section	.text.USBUART_ReadDieID,"ax",%progbits
  20              		.align	1
  21              		.global	USBUART_ReadDieID
  22              		.thumb
  23              		.thumb_func
  24              		.type	USBUART_ReadDieID, %function
  25              	USBUART_ReadDieID:
  26              	.LFB1:
  27              		.file 1 "Generated_Source\\PSoC5\\USBUART_std.c"
   1:Generated_Source\PSoC5/USBUART_std.c **** /***************************************************************************//**
   2:Generated_Source\PSoC5/USBUART_std.c **** * \file USBUART_std.c
   3:Generated_Source\PSoC5/USBUART_std.c **** * \version 3.20
   4:Generated_Source\PSoC5/USBUART_std.c **** *
   5:Generated_Source\PSoC5/USBUART_std.c **** * \brief
   6:Generated_Source\PSoC5/USBUART_std.c **** *  This file contains the USB Standard request handler.
   7:Generated_Source\PSoC5/USBUART_std.c **** *
   8:Generated_Source\PSoC5/USBUART_std.c **** ********************************************************************************
   9:Generated_Source\PSoC5/USBUART_std.c **** * \copyright
  10:Generated_Source\PSoC5/USBUART_std.c **** * Copyright 2008-2016, Cypress Semiconductor Corporation.  All rights reserved.
  11:Generated_Source\PSoC5/USBUART_std.c **** * You may use this file only in accordance with the license, terms, conditions,
  12:Generated_Source\PSoC5/USBUART_std.c **** * disclaimers, and limitations in the end user license agreement accompanying
  13:Generated_Source\PSoC5/USBUART_std.c **** * the software package with which this file was provided.
  14:Generated_Source\PSoC5/USBUART_std.c **** *******************************************************************************/
  15:Generated_Source\PSoC5/USBUART_std.c **** 
  16:Generated_Source\PSoC5/USBUART_std.c **** #include "USBUART_pvt.h"
  17:Generated_Source\PSoC5/USBUART_std.c **** 
  18:Generated_Source\PSoC5/USBUART_std.c **** /***************************************
  19:Generated_Source\PSoC5/USBUART_std.c **** *   Static data allocation
  20:Generated_Source\PSoC5/USBUART_std.c **** ***************************************/
  21:Generated_Source\PSoC5/USBUART_std.c **** 
  22:Generated_Source\PSoC5/USBUART_std.c **** #if defined(USBUART_ENABLE_FWSN_STRING)
  23:Generated_Source\PSoC5/USBUART_std.c ****     static volatile uint8* USBUART_fwSerialNumberStringDescriptor;
  24:Generated_Source\PSoC5/USBUART_std.c ****     static volatile uint8  USBUART_snStringConfirm = USBUART_FALSE;
  25:Generated_Source\PSoC5/USBUART_std.c **** #endif  /* (USBUART_ENABLE_FWSN_STRING) */
  26:Generated_Source\PSoC5/USBUART_std.c **** 
  27:Generated_Source\PSoC5/USBUART_std.c **** #if defined(USBUART_ENABLE_FWSN_STRING)
  28:Generated_Source\PSoC5/USBUART_std.c ****     /***************************************************************************
  29:Generated_Source\PSoC5/USBUART_std.c ****     * Function Name: USBUART_SerialNumString
  30:Generated_Source\PSoC5/USBUART_std.c ****     ************************************************************************//**
ARM GAS  C:\Users\chemi\AppData\Local\Temp\cc21dAG8.s 			page 2


  31:Generated_Source\PSoC5/USBUART_std.c ****     *
  32:Generated_Source\PSoC5/USBUART_std.c ****     *  This function is available only when the User Call Back option in the 
  33:Generated_Source\PSoC5/USBUART_std.c ****     *  Serial Number String descriptor properties is selected. Application 
  34:Generated_Source\PSoC5/USBUART_std.c ****     *  firmware can provide the source of the USB device serial number string 
  35:Generated_Source\PSoC5/USBUART_std.c ****     *  descriptor during run time. The default string is used if the application 
  36:Generated_Source\PSoC5/USBUART_std.c ****     *  firmware does not use this function or sets the wrong string descriptor.
  37:Generated_Source\PSoC5/USBUART_std.c ****     *
  38:Generated_Source\PSoC5/USBUART_std.c ****     *  \param snString:  Pointer to the user-defined string descriptor. The 
  39:Generated_Source\PSoC5/USBUART_std.c ****     *  string descriptor should meet the Universal Serial Bus Specification 
  40:Generated_Source\PSoC5/USBUART_std.c ****     *  revision 2.0 chapter 9.6.7
  41:Generated_Source\PSoC5/USBUART_std.c ****     *  Offset|Size|Value|Description
  42:Generated_Source\PSoC5/USBUART_std.c ****     *  ------|----|------|---------------------------------
  43:Generated_Source\PSoC5/USBUART_std.c ****     *  0     |1   |N     |Size of this descriptor in bytes
  44:Generated_Source\PSoC5/USBUART_std.c ****     *  1     |1   |0x03  |STRING Descriptor Type
  45:Generated_Source\PSoC5/USBUART_std.c ****     *  2     |N-2 |Number|UNICODE encoded string
  46:Generated_Source\PSoC5/USBUART_std.c ****     *  
  47:Generated_Source\PSoC5/USBUART_std.c ****     * *For example:* uint8 snString[16]={0x0E,0x03,'F',0,'W',0,'S',0,'N',0,'0',0,'1',0};
  48:Generated_Source\PSoC5/USBUART_std.c ****     *
  49:Generated_Source\PSoC5/USBUART_std.c ****     * \reentrant
  50:Generated_Source\PSoC5/USBUART_std.c ****     *  No.
  51:Generated_Source\PSoC5/USBUART_std.c ****     *
  52:Generated_Source\PSoC5/USBUART_std.c ****     ***************************************************************************/
  53:Generated_Source\PSoC5/USBUART_std.c ****     void  USBUART_SerialNumString(uint8 snString[]) 
  54:Generated_Source\PSoC5/USBUART_std.c ****     {
  55:Generated_Source\PSoC5/USBUART_std.c ****         USBUART_snStringConfirm = USBUART_FALSE;
  56:Generated_Source\PSoC5/USBUART_std.c ****         
  57:Generated_Source\PSoC5/USBUART_std.c ****         if (snString != NULL)
  58:Generated_Source\PSoC5/USBUART_std.c ****         {
  59:Generated_Source\PSoC5/USBUART_std.c ****             /* Check descriptor validation */
  60:Generated_Source\PSoC5/USBUART_std.c ****             if ((snString[0u] > 1u) && (snString[1u] == USBUART_DESCR_STRING))
  61:Generated_Source\PSoC5/USBUART_std.c ****             {
  62:Generated_Source\PSoC5/USBUART_std.c ****                 USBUART_fwSerialNumberStringDescriptor = snString;
  63:Generated_Source\PSoC5/USBUART_std.c ****                 USBUART_snStringConfirm = USBUART_TRUE;
  64:Generated_Source\PSoC5/USBUART_std.c ****             }
  65:Generated_Source\PSoC5/USBUART_std.c ****         }
  66:Generated_Source\PSoC5/USBUART_std.c ****     }
  67:Generated_Source\PSoC5/USBUART_std.c **** #endif  /* USBUART_ENABLE_FWSN_STRING */
  68:Generated_Source\PSoC5/USBUART_std.c **** 
  69:Generated_Source\PSoC5/USBUART_std.c **** 
  70:Generated_Source\PSoC5/USBUART_std.c **** /*******************************************************************************
  71:Generated_Source\PSoC5/USBUART_std.c **** * Function Name: USBUART_HandleStandardRqst
  72:Generated_Source\PSoC5/USBUART_std.c **** ****************************************************************************//**
  73:Generated_Source\PSoC5/USBUART_std.c **** *
  74:Generated_Source\PSoC5/USBUART_std.c **** *  This Routine dispatches standard requests
  75:Generated_Source\PSoC5/USBUART_std.c **** *
  76:Generated_Source\PSoC5/USBUART_std.c **** *
  77:Generated_Source\PSoC5/USBUART_std.c **** * \return
  78:Generated_Source\PSoC5/USBUART_std.c **** *  TRUE if request handled.
  79:Generated_Source\PSoC5/USBUART_std.c **** *
  80:Generated_Source\PSoC5/USBUART_std.c **** * \reentrant
  81:Generated_Source\PSoC5/USBUART_std.c **** *  No.
  82:Generated_Source\PSoC5/USBUART_std.c **** *
  83:Generated_Source\PSoC5/USBUART_std.c **** *******************************************************************************/
  84:Generated_Source\PSoC5/USBUART_std.c **** uint8 USBUART_HandleStandardRqst(void) 
  85:Generated_Source\PSoC5/USBUART_std.c **** {
  86:Generated_Source\PSoC5/USBUART_std.c ****     uint8 requestHandled = USBUART_FALSE;
  87:Generated_Source\PSoC5/USBUART_std.c ****     uint8 interfaceNumber;
ARM GAS  C:\Users\chemi\AppData\Local\Temp\cc21dAG8.s 			page 3


  88:Generated_Source\PSoC5/USBUART_std.c ****     uint8 configurationN;
  89:Generated_Source\PSoC5/USBUART_std.c ****     uint8 bmRequestType = USBUART_bmRequestTypeReg;
  90:Generated_Source\PSoC5/USBUART_std.c **** 
  91:Generated_Source\PSoC5/USBUART_std.c **** #if defined(USBUART_ENABLE_STRINGS)
  92:Generated_Source\PSoC5/USBUART_std.c ****     volatile uint8 *pStr = 0u;
  93:Generated_Source\PSoC5/USBUART_std.c ****     #if defined(USBUART_ENABLE_DESCRIPTOR_STRINGS)
  94:Generated_Source\PSoC5/USBUART_std.c ****         uint8 nStr;
  95:Generated_Source\PSoC5/USBUART_std.c ****         uint8 descrLength;
  96:Generated_Source\PSoC5/USBUART_std.c ****     #endif /* (USBUART_ENABLE_DESCRIPTOR_STRINGS) */
  97:Generated_Source\PSoC5/USBUART_std.c **** #endif /* (USBUART_ENABLE_STRINGS) */
  98:Generated_Source\PSoC5/USBUART_std.c ****     
  99:Generated_Source\PSoC5/USBUART_std.c ****     static volatile uint8 USBUART_tBuffer[USBUART_STATUS_LENGTH_MAX];
 100:Generated_Source\PSoC5/USBUART_std.c ****     const T_USBUART_LUT CYCODE *pTmp;
 101:Generated_Source\PSoC5/USBUART_std.c **** 
 102:Generated_Source\PSoC5/USBUART_std.c ****     USBUART_currentTD.count = 0u;
 103:Generated_Source\PSoC5/USBUART_std.c **** 
 104:Generated_Source\PSoC5/USBUART_std.c ****     if (USBUART_RQST_DIR_D2H == (bmRequestType & USBUART_RQST_DIR_MASK))
 105:Generated_Source\PSoC5/USBUART_std.c ****     {
 106:Generated_Source\PSoC5/USBUART_std.c ****         /* Control Read */
 107:Generated_Source\PSoC5/USBUART_std.c ****         switch (USBUART_bRequestReg)
 108:Generated_Source\PSoC5/USBUART_std.c ****         {
 109:Generated_Source\PSoC5/USBUART_std.c ****             case USBUART_GET_DESCRIPTOR:
 110:Generated_Source\PSoC5/USBUART_std.c ****                 if (USBUART_DESCR_DEVICE ==USBUART_wValueHiReg)
 111:Generated_Source\PSoC5/USBUART_std.c ****                 {
 112:Generated_Source\PSoC5/USBUART_std.c ****                     pTmp = USBUART_GetDeviceTablePtr();
 113:Generated_Source\PSoC5/USBUART_std.c ****                     USBUART_currentTD.pData = (volatile uint8 *)pTmp->p_list;
 114:Generated_Source\PSoC5/USBUART_std.c ****                     USBUART_currentTD.count = USBUART_DEVICE_DESCR_LENGTH;
 115:Generated_Source\PSoC5/USBUART_std.c ****                     
 116:Generated_Source\PSoC5/USBUART_std.c ****                     requestHandled  = USBUART_InitControlRead();
 117:Generated_Source\PSoC5/USBUART_std.c ****                 }
 118:Generated_Source\PSoC5/USBUART_std.c ****                 else if (USBUART_DESCR_CONFIG == USBUART_wValueHiReg)
 119:Generated_Source\PSoC5/USBUART_std.c ****                 {
 120:Generated_Source\PSoC5/USBUART_std.c ****                     pTmp = USBUART_GetConfigTablePtr((uint8) USBUART_wValueLoReg);
 121:Generated_Source\PSoC5/USBUART_std.c ****                     
 122:Generated_Source\PSoC5/USBUART_std.c ****                     /* Verify that requested descriptor exists */
 123:Generated_Source\PSoC5/USBUART_std.c ****                     if (pTmp != NULL)
 124:Generated_Source\PSoC5/USBUART_std.c ****                     {
 125:Generated_Source\PSoC5/USBUART_std.c ****                         USBUART_currentTD.pData = (volatile uint8 *)pTmp->p_list;
 126:Generated_Source\PSoC5/USBUART_std.c ****                         USBUART_currentTD.count = (uint16)((uint16)(USBUART_currentTD.pData)[USBUAR
 127:Generated_Source\PSoC5/USBUART_std.c ****                                                                             (USBUART_currentTD.pDat
 128:Generated_Source\PSoC5/USBUART_std.c ****                         requestHandled  = USBUART_InitControlRead();
 129:Generated_Source\PSoC5/USBUART_std.c ****                     }
 130:Generated_Source\PSoC5/USBUART_std.c ****                 }
 131:Generated_Source\PSoC5/USBUART_std.c ****                 
 132:Generated_Source\PSoC5/USBUART_std.c ****             #if(USBUART_BOS_ENABLE)
 133:Generated_Source\PSoC5/USBUART_std.c ****                 else if (USBUART_DESCR_BOS == USBUART_wValueHiReg)
 134:Generated_Source\PSoC5/USBUART_std.c ****                 {
 135:Generated_Source\PSoC5/USBUART_std.c ****                     pTmp = USBUART_GetBOSPtr();
 136:Generated_Source\PSoC5/USBUART_std.c ****                     
 137:Generated_Source\PSoC5/USBUART_std.c ****                     /* Verify that requested descriptor exists */
 138:Generated_Source\PSoC5/USBUART_std.c ****                     if (pTmp != NULL)
 139:Generated_Source\PSoC5/USBUART_std.c ****                     {
 140:Generated_Source\PSoC5/USBUART_std.c ****                         USBUART_currentTD.pData = (volatile uint8 *)pTmp;
 141:Generated_Source\PSoC5/USBUART_std.c ****                         USBUART_currentTD.count = ((uint16)((uint16)(USBUART_currentTD.pData)[USBUA
 142:Generated_Source\PSoC5/USBUART_std.c ****                                                                              (USBUART_currentTD.pDa
 143:Generated_Source\PSoC5/USBUART_std.c ****                         requestHandled  = USBUART_InitControlRead();
 144:Generated_Source\PSoC5/USBUART_std.c ****                     }
ARM GAS  C:\Users\chemi\AppData\Local\Temp\cc21dAG8.s 			page 4


 145:Generated_Source\PSoC5/USBUART_std.c ****                 }
 146:Generated_Source\PSoC5/USBUART_std.c ****             #endif /*(USBUART_BOS_ENABLE)*/
 147:Generated_Source\PSoC5/USBUART_std.c ****             
 148:Generated_Source\PSoC5/USBUART_std.c ****             #if defined(USBUART_ENABLE_STRINGS)
 149:Generated_Source\PSoC5/USBUART_std.c ****                 else if (USBUART_DESCR_STRING == USBUART_wValueHiReg)
 150:Generated_Source\PSoC5/USBUART_std.c ****                 {
 151:Generated_Source\PSoC5/USBUART_std.c ****                 /* Descriptor Strings */
 152:Generated_Source\PSoC5/USBUART_std.c ****                 #if defined(USBUART_ENABLE_DESCRIPTOR_STRINGS)
 153:Generated_Source\PSoC5/USBUART_std.c ****                     nStr = 0u;
 154:Generated_Source\PSoC5/USBUART_std.c ****                     pStr = (volatile uint8 *) &USBUART_STRING_DESCRIPTORS[0u];
 155:Generated_Source\PSoC5/USBUART_std.c ****                     
 156:Generated_Source\PSoC5/USBUART_std.c ****                     while ((USBUART_wValueLoReg > nStr) && (*pStr != 0u))
 157:Generated_Source\PSoC5/USBUART_std.c ****                     {
 158:Generated_Source\PSoC5/USBUART_std.c ****                         /* Read descriptor length from 1st byte */
 159:Generated_Source\PSoC5/USBUART_std.c ****                         descrLength = *pStr;
 160:Generated_Source\PSoC5/USBUART_std.c ****                         /* Move to next string descriptor */
 161:Generated_Source\PSoC5/USBUART_std.c ****                         pStr = &pStr[descrLength];
 162:Generated_Source\PSoC5/USBUART_std.c ****                         nStr++;
 163:Generated_Source\PSoC5/USBUART_std.c ****                     }
 164:Generated_Source\PSoC5/USBUART_std.c ****                 #endif /* (USBUART_ENABLE_DESCRIPTOR_STRINGS) */
 165:Generated_Source\PSoC5/USBUART_std.c ****                 
 166:Generated_Source\PSoC5/USBUART_std.c ****                 /* Microsoft OS String */
 167:Generated_Source\PSoC5/USBUART_std.c ****                 #if defined(USBUART_ENABLE_MSOS_STRING)
 168:Generated_Source\PSoC5/USBUART_std.c ****                     if (USBUART_STRING_MSOS == USBUART_wValueLoReg)
 169:Generated_Source\PSoC5/USBUART_std.c ****                     {
 170:Generated_Source\PSoC5/USBUART_std.c ****                         pStr = (volatile uint8 *)& USBUART_MSOS_DESCRIPTOR[0u];
 171:Generated_Source\PSoC5/USBUART_std.c ****                     }
 172:Generated_Source\PSoC5/USBUART_std.c ****                 #endif /* (USBUART_ENABLE_MSOS_STRING) */
 173:Generated_Source\PSoC5/USBUART_std.c ****                 
 174:Generated_Source\PSoC5/USBUART_std.c ****                 /* SN string */
 175:Generated_Source\PSoC5/USBUART_std.c ****                 #if defined(USBUART_ENABLE_SN_STRING)
 176:Generated_Source\PSoC5/USBUART_std.c ****                     if ((USBUART_wValueLoReg != 0u) && 
 177:Generated_Source\PSoC5/USBUART_std.c ****                         (USBUART_wValueLoReg == USBUART_DEVICE0_DESCR[USBUART_DEVICE_DESCR_SN_SHIFT
 178:Generated_Source\PSoC5/USBUART_std.c ****                     {
 179:Generated_Source\PSoC5/USBUART_std.c ****                     #if defined(USBUART_ENABLE_IDSN_STRING)
 180:Generated_Source\PSoC5/USBUART_std.c ****                         /* Read DIE ID and generate string descriptor in RAM */
 181:Generated_Source\PSoC5/USBUART_std.c ****                         USBUART_ReadDieID(USBUART_idSerialNumberStringDescriptor);
 182:Generated_Source\PSoC5/USBUART_std.c ****                         pStr = USBUART_idSerialNumberStringDescriptor;
 183:Generated_Source\PSoC5/USBUART_std.c ****                     #elif defined(USBUART_ENABLE_FWSN_STRING)
 184:Generated_Source\PSoC5/USBUART_std.c ****                         
 185:Generated_Source\PSoC5/USBUART_std.c ****                         if(USBUART_snStringConfirm != USBUART_FALSE)
 186:Generated_Source\PSoC5/USBUART_std.c ****                         {
 187:Generated_Source\PSoC5/USBUART_std.c ****                             pStr = USBUART_fwSerialNumberStringDescriptor;
 188:Generated_Source\PSoC5/USBUART_std.c ****                         }
 189:Generated_Source\PSoC5/USBUART_std.c ****                         else
 190:Generated_Source\PSoC5/USBUART_std.c ****                         {
 191:Generated_Source\PSoC5/USBUART_std.c ****                             pStr = (volatile uint8 *)&USBUART_SN_STRING_DESCRIPTOR[0u];
 192:Generated_Source\PSoC5/USBUART_std.c ****                         }
 193:Generated_Source\PSoC5/USBUART_std.c ****                     #else
 194:Generated_Source\PSoC5/USBUART_std.c ****                         pStr = (volatile uint8 *)&USBUART_SN_STRING_DESCRIPTOR[0u];
 195:Generated_Source\PSoC5/USBUART_std.c ****                     #endif  /* (USBUART_ENABLE_IDSN_STRING) */
 196:Generated_Source\PSoC5/USBUART_std.c ****                     }
 197:Generated_Source\PSoC5/USBUART_std.c ****                 #endif /* (USBUART_ENABLE_SN_STRING) */
 198:Generated_Source\PSoC5/USBUART_std.c ****                 
 199:Generated_Source\PSoC5/USBUART_std.c ****                     if (*pStr != 0u)
 200:Generated_Source\PSoC5/USBUART_std.c ****                     {
 201:Generated_Source\PSoC5/USBUART_std.c ****                         USBUART_currentTD.count = *pStr;
ARM GAS  C:\Users\chemi\AppData\Local\Temp\cc21dAG8.s 			page 5


 202:Generated_Source\PSoC5/USBUART_std.c ****                         USBUART_currentTD.pData = pStr;
 203:Generated_Source\PSoC5/USBUART_std.c ****                         requestHandled  = USBUART_InitControlRead();
 204:Generated_Source\PSoC5/USBUART_std.c ****                     }
 205:Generated_Source\PSoC5/USBUART_std.c ****                 }
 206:Generated_Source\PSoC5/USBUART_std.c ****             #endif /*  USBUART_ENABLE_STRINGS */
 207:Generated_Source\PSoC5/USBUART_std.c ****                 else
 208:Generated_Source\PSoC5/USBUART_std.c ****                 {
 209:Generated_Source\PSoC5/USBUART_std.c ****                     requestHandled = USBUART_DispatchClassRqst();
 210:Generated_Source\PSoC5/USBUART_std.c ****                 }
 211:Generated_Source\PSoC5/USBUART_std.c ****                 break;
 212:Generated_Source\PSoC5/USBUART_std.c ****                 
 213:Generated_Source\PSoC5/USBUART_std.c ****             case USBUART_GET_STATUS:
 214:Generated_Source\PSoC5/USBUART_std.c ****                 switch (bmRequestType & USBUART_RQST_RCPT_MASK)
 215:Generated_Source\PSoC5/USBUART_std.c ****                 {
 216:Generated_Source\PSoC5/USBUART_std.c ****                     case USBUART_RQST_RCPT_EP:
 217:Generated_Source\PSoC5/USBUART_std.c ****                         USBUART_currentTD.count = USBUART_EP_STATUS_LENGTH;
 218:Generated_Source\PSoC5/USBUART_std.c ****                         USBUART_tBuffer[0u]     = USBUART_EP[USBUART_wIndexLoReg & USBUART_DIR_UNUS
 219:Generated_Source\PSoC5/USBUART_std.c ****                         USBUART_tBuffer[1u]     = 0u;
 220:Generated_Source\PSoC5/USBUART_std.c ****                         USBUART_currentTD.pData = &USBUART_tBuffer[0u];
 221:Generated_Source\PSoC5/USBUART_std.c ****                         
 222:Generated_Source\PSoC5/USBUART_std.c ****                         requestHandled  = USBUART_InitControlRead();
 223:Generated_Source\PSoC5/USBUART_std.c ****                         break;
 224:Generated_Source\PSoC5/USBUART_std.c ****                     case USBUART_RQST_RCPT_DEV:
 225:Generated_Source\PSoC5/USBUART_std.c ****                         USBUART_currentTD.count = USBUART_DEVICE_STATUS_LENGTH;
 226:Generated_Source\PSoC5/USBUART_std.c ****                         USBUART_tBuffer[0u]     = USBUART_deviceStatus;
 227:Generated_Source\PSoC5/USBUART_std.c ****                         USBUART_tBuffer[1u]     = 0u;
 228:Generated_Source\PSoC5/USBUART_std.c ****                         USBUART_currentTD.pData = &USBUART_tBuffer[0u];
 229:Generated_Source\PSoC5/USBUART_std.c ****                         
 230:Generated_Source\PSoC5/USBUART_std.c ****                         requestHandled  = USBUART_InitControlRead();
 231:Generated_Source\PSoC5/USBUART_std.c ****                         break;
 232:Generated_Source\PSoC5/USBUART_std.c ****                     default:    /* requestHandled is initialized as FALSE by default */
 233:Generated_Source\PSoC5/USBUART_std.c ****                         break;
 234:Generated_Source\PSoC5/USBUART_std.c ****                 }
 235:Generated_Source\PSoC5/USBUART_std.c ****                 break;
 236:Generated_Source\PSoC5/USBUART_std.c ****                 
 237:Generated_Source\PSoC5/USBUART_std.c ****             case USBUART_GET_CONFIGURATION:
 238:Generated_Source\PSoC5/USBUART_std.c ****                 USBUART_currentTD.count = 1u;
 239:Generated_Source\PSoC5/USBUART_std.c ****                 USBUART_currentTD.pData = (volatile uint8 *) &USBUART_configuration;
 240:Generated_Source\PSoC5/USBUART_std.c ****                 requestHandled  = USBUART_InitControlRead();
 241:Generated_Source\PSoC5/USBUART_std.c ****                 break;
 242:Generated_Source\PSoC5/USBUART_std.c ****                 
 243:Generated_Source\PSoC5/USBUART_std.c ****             case USBUART_GET_INTERFACE:
 244:Generated_Source\PSoC5/USBUART_std.c ****                 USBUART_currentTD.count = 1u;
 245:Generated_Source\PSoC5/USBUART_std.c ****                 USBUART_currentTD.pData = (volatile uint8 *) &USBUART_interfaceSetting[USBUART_wInd
 246:Generated_Source\PSoC5/USBUART_std.c ****                 requestHandled  = USBUART_InitControlRead();
 247:Generated_Source\PSoC5/USBUART_std.c ****                 break;
 248:Generated_Source\PSoC5/USBUART_std.c ****                 
 249:Generated_Source\PSoC5/USBUART_std.c ****             default: /* requestHandled is initialized as FALSE by default */
 250:Generated_Source\PSoC5/USBUART_std.c ****                 break;
 251:Generated_Source\PSoC5/USBUART_std.c ****         }
 252:Generated_Source\PSoC5/USBUART_std.c ****     }
 253:Generated_Source\PSoC5/USBUART_std.c ****     else
 254:Generated_Source\PSoC5/USBUART_std.c ****     {
 255:Generated_Source\PSoC5/USBUART_std.c ****         /* Control Write */
 256:Generated_Source\PSoC5/USBUART_std.c ****         switch (USBUART_bRequestReg)
 257:Generated_Source\PSoC5/USBUART_std.c ****         {
 258:Generated_Source\PSoC5/USBUART_std.c ****             case USBUART_SET_ADDRESS:
ARM GAS  C:\Users\chemi\AppData\Local\Temp\cc21dAG8.s 			page 6


 259:Generated_Source\PSoC5/USBUART_std.c ****                 /* Store address to be set in USBUART_NoDataControlStatusStage(). */
 260:Generated_Source\PSoC5/USBUART_std.c ****                 USBUART_deviceAddress = (uint8) USBUART_wValueLoReg;
 261:Generated_Source\PSoC5/USBUART_std.c ****                 requestHandled = USBUART_InitNoDataControlTransfer();
 262:Generated_Source\PSoC5/USBUART_std.c ****                 break;
 263:Generated_Source\PSoC5/USBUART_std.c ****                 
 264:Generated_Source\PSoC5/USBUART_std.c ****             case USBUART_SET_CONFIGURATION:
 265:Generated_Source\PSoC5/USBUART_std.c ****                 configurationN = USBUART_wValueLoReg;
 266:Generated_Source\PSoC5/USBUART_std.c ****                 
 267:Generated_Source\PSoC5/USBUART_std.c ****                 /* Verify that configuration descriptor exists */
 268:Generated_Source\PSoC5/USBUART_std.c ****                 if(configurationN > 0u)
 269:Generated_Source\PSoC5/USBUART_std.c ****                 {
 270:Generated_Source\PSoC5/USBUART_std.c ****                     pTmp = USBUART_GetConfigTablePtr((uint8) configurationN - 1u);
 271:Generated_Source\PSoC5/USBUART_std.c ****                 }
 272:Generated_Source\PSoC5/USBUART_std.c ****                 
 273:Generated_Source\PSoC5/USBUART_std.c ****                 /* Responds with a Request Error when configuration number is invalid */
 274:Generated_Source\PSoC5/USBUART_std.c ****                 if (((configurationN > 0u) && (pTmp != NULL)) || (configurationN == 0u))
 275:Generated_Source\PSoC5/USBUART_std.c ****                 {
 276:Generated_Source\PSoC5/USBUART_std.c ****                     /* Set new configuration if it has been changed */
 277:Generated_Source\PSoC5/USBUART_std.c ****                     if(configurationN != USBUART_configuration)
 278:Generated_Source\PSoC5/USBUART_std.c ****                     {
 279:Generated_Source\PSoC5/USBUART_std.c ****                         USBUART_configuration = (uint8) configurationN;
 280:Generated_Source\PSoC5/USBUART_std.c ****                         USBUART_configurationChanged = USBUART_TRUE;
 281:Generated_Source\PSoC5/USBUART_std.c ****                         USBUART_Config(USBUART_TRUE);
 282:Generated_Source\PSoC5/USBUART_std.c ****                     }
 283:Generated_Source\PSoC5/USBUART_std.c ****                     requestHandled = USBUART_InitNoDataControlTransfer();
 284:Generated_Source\PSoC5/USBUART_std.c ****                 }
 285:Generated_Source\PSoC5/USBUART_std.c ****                 break;
 286:Generated_Source\PSoC5/USBUART_std.c ****                 
 287:Generated_Source\PSoC5/USBUART_std.c ****             case USBUART_SET_INTERFACE:
 288:Generated_Source\PSoC5/USBUART_std.c ****                 if (0u != USBUART_ValidateAlternateSetting())
 289:Generated_Source\PSoC5/USBUART_std.c ****                 {
 290:Generated_Source\PSoC5/USBUART_std.c ****                     /* Get interface number from the request. */
 291:Generated_Source\PSoC5/USBUART_std.c ****                     interfaceNumber = USBUART_wIndexLoReg;
 292:Generated_Source\PSoC5/USBUART_std.c ****                     USBUART_interfaceNumber = (uint8) USBUART_wIndexLoReg;
 293:Generated_Source\PSoC5/USBUART_std.c ****                      
 294:Generated_Source\PSoC5/USBUART_std.c ****                     /* Check if alternate settings is changed for interface. */
 295:Generated_Source\PSoC5/USBUART_std.c ****                     if (USBUART_interfaceSettingLast[interfaceNumber] != USBUART_interfaceSetting[i
 296:Generated_Source\PSoC5/USBUART_std.c ****                     {
 297:Generated_Source\PSoC5/USBUART_std.c ****                         USBUART_configurationChanged = USBUART_TRUE;
 298:Generated_Source\PSoC5/USBUART_std.c ****                     
 299:Generated_Source\PSoC5/USBUART_std.c ****                         /* Change alternate setting for the endpoints. */
 300:Generated_Source\PSoC5/USBUART_std.c ****                     #if (USBUART_EP_MANAGEMENT_MANUAL && USBUART_EP_ALLOC_DYNAMIC)
 301:Generated_Source\PSoC5/USBUART_std.c ****                         USBUART_Config(USBUART_FALSE);
 302:Generated_Source\PSoC5/USBUART_std.c ****                     #else
 303:Generated_Source\PSoC5/USBUART_std.c ****                         USBUART_ConfigAltChanged();
 304:Generated_Source\PSoC5/USBUART_std.c ****                     #endif /* (USBUART_EP_MANAGEMENT_MANUAL && USBUART_EP_ALLOC_DYNAMIC) */
 305:Generated_Source\PSoC5/USBUART_std.c ****                     }
 306:Generated_Source\PSoC5/USBUART_std.c ****                     
 307:Generated_Source\PSoC5/USBUART_std.c ****                     requestHandled = USBUART_InitNoDataControlTransfer();
 308:Generated_Source\PSoC5/USBUART_std.c ****                 }
 309:Generated_Source\PSoC5/USBUART_std.c ****                 break;
 310:Generated_Source\PSoC5/USBUART_std.c ****                 
 311:Generated_Source\PSoC5/USBUART_std.c ****             case USBUART_CLEAR_FEATURE:
 312:Generated_Source\PSoC5/USBUART_std.c ****                 switch (bmRequestType & USBUART_RQST_RCPT_MASK)
 313:Generated_Source\PSoC5/USBUART_std.c ****                 {
 314:Generated_Source\PSoC5/USBUART_std.c ****                     case USBUART_RQST_RCPT_EP:
 315:Generated_Source\PSoC5/USBUART_std.c ****                         if (USBUART_wValueLoReg == USBUART_ENDPOINT_HALT)
ARM GAS  C:\Users\chemi\AppData\Local\Temp\cc21dAG8.s 			page 7


 316:Generated_Source\PSoC5/USBUART_std.c ****                         {
 317:Generated_Source\PSoC5/USBUART_std.c ****                             requestHandled = USBUART_ClearEndpointHalt();
 318:Generated_Source\PSoC5/USBUART_std.c ****                         }
 319:Generated_Source\PSoC5/USBUART_std.c ****                         break;
 320:Generated_Source\PSoC5/USBUART_std.c ****                     case USBUART_RQST_RCPT_DEV:
 321:Generated_Source\PSoC5/USBUART_std.c ****                         /* Clear device REMOTE_WAKEUP */
 322:Generated_Source\PSoC5/USBUART_std.c ****                         if (USBUART_wValueLoReg == USBUART_DEVICE_REMOTE_WAKEUP)
 323:Generated_Source\PSoC5/USBUART_std.c ****                         {
 324:Generated_Source\PSoC5/USBUART_std.c ****                             USBUART_deviceStatus &= (uint8)~USBUART_DEVICE_STATUS_REMOTE_WAKEUP;
 325:Generated_Source\PSoC5/USBUART_std.c ****                             requestHandled = USBUART_InitNoDataControlTransfer();
 326:Generated_Source\PSoC5/USBUART_std.c ****                         }
 327:Generated_Source\PSoC5/USBUART_std.c ****                         break;
 328:Generated_Source\PSoC5/USBUART_std.c ****                     case USBUART_RQST_RCPT_IFC:
 329:Generated_Source\PSoC5/USBUART_std.c ****                         /* Validate interfaceNumber */
 330:Generated_Source\PSoC5/USBUART_std.c ****                         if (USBUART_wIndexLoReg < USBUART_MAX_INTERFACES_NUMBER)
 331:Generated_Source\PSoC5/USBUART_std.c ****                         {
 332:Generated_Source\PSoC5/USBUART_std.c ****                             USBUART_interfaceStatus[USBUART_wIndexLoReg] &= (uint8) ~USBUART_wValue
 333:Generated_Source\PSoC5/USBUART_std.c ****                             requestHandled = USBUART_InitNoDataControlTransfer();
 334:Generated_Source\PSoC5/USBUART_std.c ****                         }
 335:Generated_Source\PSoC5/USBUART_std.c ****                         break;
 336:Generated_Source\PSoC5/USBUART_std.c ****                     default:    /* requestHandled is initialized as FALSE by default */
 337:Generated_Source\PSoC5/USBUART_std.c ****                         break;
 338:Generated_Source\PSoC5/USBUART_std.c ****                 }
 339:Generated_Source\PSoC5/USBUART_std.c ****                 break;
 340:Generated_Source\PSoC5/USBUART_std.c ****                 
 341:Generated_Source\PSoC5/USBUART_std.c ****             case USBUART_SET_FEATURE:
 342:Generated_Source\PSoC5/USBUART_std.c ****                 switch (bmRequestType & USBUART_RQST_RCPT_MASK)
 343:Generated_Source\PSoC5/USBUART_std.c ****                 {
 344:Generated_Source\PSoC5/USBUART_std.c ****                     case USBUART_RQST_RCPT_EP:
 345:Generated_Source\PSoC5/USBUART_std.c ****                         if (USBUART_wValueLoReg == USBUART_ENDPOINT_HALT)
 346:Generated_Source\PSoC5/USBUART_std.c ****                         {
 347:Generated_Source\PSoC5/USBUART_std.c ****                             requestHandled = USBUART_SetEndpointHalt();
 348:Generated_Source\PSoC5/USBUART_std.c ****                         }
 349:Generated_Source\PSoC5/USBUART_std.c ****                         break;
 350:Generated_Source\PSoC5/USBUART_std.c ****                         
 351:Generated_Source\PSoC5/USBUART_std.c ****                     case USBUART_RQST_RCPT_DEV:
 352:Generated_Source\PSoC5/USBUART_std.c ****                         /* Set device REMOTE_WAKEUP */
 353:Generated_Source\PSoC5/USBUART_std.c ****                         if (USBUART_wValueLoReg == USBUART_DEVICE_REMOTE_WAKEUP)
 354:Generated_Source\PSoC5/USBUART_std.c ****                         {
 355:Generated_Source\PSoC5/USBUART_std.c ****                             USBUART_deviceStatus |= USBUART_DEVICE_STATUS_REMOTE_WAKEUP;
 356:Generated_Source\PSoC5/USBUART_std.c ****                             requestHandled = USBUART_InitNoDataControlTransfer();
 357:Generated_Source\PSoC5/USBUART_std.c ****                         }
 358:Generated_Source\PSoC5/USBUART_std.c ****                         break;
 359:Generated_Source\PSoC5/USBUART_std.c ****                         
 360:Generated_Source\PSoC5/USBUART_std.c ****                     case USBUART_RQST_RCPT_IFC:
 361:Generated_Source\PSoC5/USBUART_std.c ****                         /* Validate interfaceNumber */
 362:Generated_Source\PSoC5/USBUART_std.c ****                         if (USBUART_wIndexLoReg < USBUART_MAX_INTERFACES_NUMBER)
 363:Generated_Source\PSoC5/USBUART_std.c ****                         {
 364:Generated_Source\PSoC5/USBUART_std.c ****                             USBUART_interfaceStatus[USBUART_wIndexLoReg] &= (uint8) ~USBUART_wValue
 365:Generated_Source\PSoC5/USBUART_std.c ****                             requestHandled = USBUART_InitNoDataControlTransfer();
 366:Generated_Source\PSoC5/USBUART_std.c ****                         }
 367:Generated_Source\PSoC5/USBUART_std.c ****                         break;
 368:Generated_Source\PSoC5/USBUART_std.c ****                     
 369:Generated_Source\PSoC5/USBUART_std.c ****                     default:    /* requestHandled is initialized as FALSE by default */
 370:Generated_Source\PSoC5/USBUART_std.c ****                         break;
 371:Generated_Source\PSoC5/USBUART_std.c ****                 }
 372:Generated_Source\PSoC5/USBUART_std.c ****                 break;
ARM GAS  C:\Users\chemi\AppData\Local\Temp\cc21dAG8.s 			page 8


 373:Generated_Source\PSoC5/USBUART_std.c ****                 
 374:Generated_Source\PSoC5/USBUART_std.c ****             default:    /* requestHandled is initialized as FALSE by default */
 375:Generated_Source\PSoC5/USBUART_std.c ****                 break;
 376:Generated_Source\PSoC5/USBUART_std.c ****         }
 377:Generated_Source\PSoC5/USBUART_std.c ****     }
 378:Generated_Source\PSoC5/USBUART_std.c ****     
 379:Generated_Source\PSoC5/USBUART_std.c ****     return (requestHandled);
 380:Generated_Source\PSoC5/USBUART_std.c **** }
 381:Generated_Source\PSoC5/USBUART_std.c **** 
 382:Generated_Source\PSoC5/USBUART_std.c **** 
 383:Generated_Source\PSoC5/USBUART_std.c **** #if defined(USBUART_ENABLE_IDSN_STRING)
 384:Generated_Source\PSoC5/USBUART_std.c ****     /***************************************************************************
 385:Generated_Source\PSoC5/USBUART_std.c ****     * Function Name: USBUART_ReadDieID
 386:Generated_Source\PSoC5/USBUART_std.c ****     ************************************************************************//**
 387:Generated_Source\PSoC5/USBUART_std.c ****     *
 388:Generated_Source\PSoC5/USBUART_std.c ****     *  This routine read Die ID and generate Serial Number string descriptor.
 389:Generated_Source\PSoC5/USBUART_std.c ****     *
 390:Generated_Source\PSoC5/USBUART_std.c ****     *  \param descr:  pointer on string descriptor. This string size has to be equal or
 391:Generated_Source\PSoC5/USBUART_std.c ****     *          greater than USBUART_IDSN_DESCR_LENGTH.
 392:Generated_Source\PSoC5/USBUART_std.c ****     *
 393:Generated_Source\PSoC5/USBUART_std.c ****     *
 394:Generated_Source\PSoC5/USBUART_std.c ****     * \reentrant
 395:Generated_Source\PSoC5/USBUART_std.c ****     *  No.
 396:Generated_Source\PSoC5/USBUART_std.c ****     *
 397:Generated_Source\PSoC5/USBUART_std.c ****     ***************************************************************************/
 398:Generated_Source\PSoC5/USBUART_std.c ****     void USBUART_ReadDieID(uint8 descr[]) 
 399:Generated_Source\PSoC5/USBUART_std.c ****     {
  28              		.loc 1 399 0
  29              		.cfi_startproc
  30              		@ args = 0, pretend = 0, frame = 32
  31              		@ frame_needed = 0, uses_anonymous_args = 0
  32              	.LVL0:
  33 0000 70B5     		push	{r4, r5, r6, lr}
  34              		.cfi_def_cfa_offset 16
  35              		.cfi_offset 4, -16
  36              		.cfi_offset 5, -12
  37              		.cfi_offset 6, -8
  38              		.cfi_offset 14, -4
  39 0002 0446     		mov	r4, r0
 400:Generated_Source\PSoC5/USBUART_std.c ****         const char8 CYCODE hex[] = "0123456789ABCDEF";
  40              		.loc 1 400 0
  41 0004 184B     		ldr	r3, .L9
 399:Generated_Source\PSoC5/USBUART_std.c ****         const char8 CYCODE hex[] = "0123456789ABCDEF";
  42              		.loc 1 399 0
  43 0006 88B0     		sub	sp, sp, #32
  44              		.cfi_def_cfa_offset 48
  45              		.loc 1 400 0
  46 0008 03AA     		add	r2, sp, #12
  47 000a 03F11006 		add	r6, r3, #16
  48              	.LVL1:
  49              	.L2:
  50 000e 1546     		mov	r5, r2
  51 0010 1868     		ldr	r0, [r3]	@ unaligned
  52 0012 5968     		ldr	r1, [r3, #4]	@ unaligned
  53 0014 0833     		adds	r3, r3, #8
  54 0016 03C5     		stmia	r5!, {r0, r1}
  55 0018 B342     		cmp	r3, r6
ARM GAS  C:\Users\chemi\AppData\Local\Temp\cc21dAG8.s 			page 9


  56 001a 2A46     		mov	r2, r5
  57 001c F7D1     		bne	.L2
  58 001e 1B78     		ldrb	r3, [r3]	@ zero_extendqisi2
  59 0020 2B70     		strb	r3, [r5]
  60              	.LVL2:
 401:Generated_Source\PSoC5/USBUART_std.c ****         uint8 i;
 402:Generated_Source\PSoC5/USBUART_std.c ****         uint8 j = 0u;
 403:Generated_Source\PSoC5/USBUART_std.c ****         uint8 uniqueId[8u];
 404:Generated_Source\PSoC5/USBUART_std.c **** 
 405:Generated_Source\PSoC5/USBUART_std.c ****         if (NULL != descr)
  61              		.loc 1 405 0
  62 0022 FCB1     		cbz	r4, .L1
 406:Generated_Source\PSoC5/USBUART_std.c ****         {
 407:Generated_Source\PSoC5/USBUART_std.c ****             /* Initialize descriptor header. */
 408:Generated_Source\PSoC5/USBUART_std.c ****             descr[0u] = USBUART_IDSN_DESCR_LENGTH;
  63              		.loc 1 408 0
  64 0024 2223     		movs	r3, #34
  65 0026 2370     		strb	r3, [r4]
 409:Generated_Source\PSoC5/USBUART_std.c ****             descr[1u] = USBUART_DESCR_STRING;
 410:Generated_Source\PSoC5/USBUART_std.c ****             
 411:Generated_Source\PSoC5/USBUART_std.c ****             /* Unique ID size is 8 bytes. */
 412:Generated_Source\PSoC5/USBUART_std.c ****             CyGetUniqueId((uint32 *) uniqueId);
  66              		.loc 1 412 0
  67 0028 01AD     		add	r5, sp, #4
 409:Generated_Source\PSoC5/USBUART_std.c ****             descr[1u] = USBUART_DESCR_STRING;
  68              		.loc 1 409 0
  69 002a 0323     		movs	r3, #3
  70              		.loc 1 412 0
  71 002c 2846     		mov	r0, r5
 409:Generated_Source\PSoC5/USBUART_std.c ****             descr[1u] = USBUART_DESCR_STRING;
  72              		.loc 1 409 0
  73 002e 6370     		strb	r3, [r4, #1]
  74              		.loc 1 412 0
  75 0030 FFF7FEFF 		bl	CyGetUniqueId
  76              	.LVL3:
  77 0034 0022     		movs	r2, #0
  78 0036 2046     		mov	r0, r4
 413:Generated_Source\PSoC5/USBUART_std.c **** 
 414:Generated_Source\PSoC5/USBUART_std.c ****             /* Fill descriptor with unique device ID. */
 415:Generated_Source\PSoC5/USBUART_std.c ****             for (i = 2u; i < USBUART_IDSN_DESCR_LENGTH; i += 4u)
 416:Generated_Source\PSoC5/USBUART_std.c ****             {
 417:Generated_Source\PSoC5/USBUART_std.c ****                 descr[i]      = (uint8) hex[(uniqueId[j] >> 4u)];
 418:Generated_Source\PSoC5/USBUART_std.c ****                 descr[i + 1u] = 0u;
  79              		.loc 1 418 0
  80 0038 1146     		mov	r1, r2
  81              	.LVL4:
  82              	.L4:
 417:Generated_Source\PSoC5/USBUART_std.c ****                 descr[i + 1u] = 0u;
  83              		.loc 1 417 0 discriminator 3
  84 003a AB5C     		ldrb	r3, [r5, r2]	@ zero_extendqisi2
  85 003c 08AC     		add	r4, sp, #32
  86 003e 04EB1314 		add	r4, r4, r3, lsr #4
  87 0042 14F8144C 		ldrb	r4, [r4, #-20]	@ zero_extendqisi2
 419:Generated_Source\PSoC5/USBUART_std.c ****                 descr[i + 2u] = (uint8) hex[(uniqueId[j] & 0x0Fu)];
  88              		.loc 1 419 0 discriminator 3
  89 0046 03F00F03 		and	r3, r3, #15
 417:Generated_Source\PSoC5/USBUART_std.c ****                 descr[i + 1u] = 0u;
ARM GAS  C:\Users\chemi\AppData\Local\Temp\cc21dAG8.s 			page 10


  90              		.loc 1 417 0 discriminator 3
  91 004a 8470     		strb	r4, [r0, #2]
  92              		.loc 1 419 0 discriminator 3
  93 004c 08AC     		add	r4, sp, #32
  94 004e 2344     		add	r3, r3, r4
  95 0050 13F8143C 		ldrb	r3, [r3, #-20]	@ zero_extendqisi2
  96 0054 0132     		adds	r2, r2, #1
  97              	.LVL5:
 415:Generated_Source\PSoC5/USBUART_std.c ****             {
  98              		.loc 1 415 0 discriminator 3
  99 0056 082A     		cmp	r2, #8
 418:Generated_Source\PSoC5/USBUART_std.c ****                 descr[i + 2u] = (uint8) hex[(uniqueId[j] & 0x0Fu)];
 100              		.loc 1 418 0 discriminator 3
 101 0058 C170     		strb	r1, [r0, #3]
 102              		.loc 1 419 0 discriminator 3
 103 005a 0371     		strb	r3, [r0, #4]
 420:Generated_Source\PSoC5/USBUART_std.c ****                 descr[i + 3u] = 0u;
 104              		.loc 1 420 0 discriminator 3
 105 005c 4171     		strb	r1, [r0, #5]
 106              	.LVL6:
 107 005e 00F10400 		add	r0, r0, #4
 108              	.LVL7:
 415:Generated_Source\PSoC5/USBUART_std.c ****             {
 109              		.loc 1 415 0 discriminator 3
 110 0062 EAD1     		bne	.L4
 111              	.L1:
 421:Generated_Source\PSoC5/USBUART_std.c ****                 ++j;
 422:Generated_Source\PSoC5/USBUART_std.c ****             }
 423:Generated_Source\PSoC5/USBUART_std.c ****         }
 424:Generated_Source\PSoC5/USBUART_std.c ****     }
 112              		.loc 1 424 0
 113 0064 08B0     		add	sp, sp, #32
 114              		.cfi_def_cfa_offset 16
 115              		@ sp needed
 116 0066 70BD     		pop	{r4, r5, r6, pc}
 117              	.L10:
 118              		.align	2
 119              	.L9:
 120 0068 00000000 		.word	.LC0
 121              		.cfi_endproc
 122              	.LFE1:
 123              		.size	USBUART_ReadDieID, .-USBUART_ReadDieID
 124              		.section	.text.USBUART_ConfigReg,"ax",%progbits
 125              		.align	1
 126              		.global	USBUART_ConfigReg
 127              		.thumb
 128              		.thumb_func
 129              		.type	USBUART_ConfigReg, %function
 130              	USBUART_ConfigReg:
 131              	.LFB2:
 425:Generated_Source\PSoC5/USBUART_std.c **** #endif /* (USBUART_ENABLE_IDSN_STRING) */
 426:Generated_Source\PSoC5/USBUART_std.c **** 
 427:Generated_Source\PSoC5/USBUART_std.c **** 
 428:Generated_Source\PSoC5/USBUART_std.c **** /*******************************************************************************
 429:Generated_Source\PSoC5/USBUART_std.c **** * Function Name: USBUART_ConfigReg
 430:Generated_Source\PSoC5/USBUART_std.c **** ****************************************************************************//**
 431:Generated_Source\PSoC5/USBUART_std.c **** *
ARM GAS  C:\Users\chemi\AppData\Local\Temp\cc21dAG8.s 			page 11


 432:Generated_Source\PSoC5/USBUART_std.c **** *  This routine configures hardware registers from the variables.
 433:Generated_Source\PSoC5/USBUART_std.c **** *  It is called from USBUART_Config() function and from RestoreConfig
 434:Generated_Source\PSoC5/USBUART_std.c **** *  after Wakeup.
 435:Generated_Source\PSoC5/USBUART_std.c **** *
 436:Generated_Source\PSoC5/USBUART_std.c **** *******************************************************************************/
 437:Generated_Source\PSoC5/USBUART_std.c **** void USBUART_ConfigReg(void) 
 438:Generated_Source\PSoC5/USBUART_std.c **** {
 132              		.loc 1 438 0
 133              		.cfi_startproc
 134              		@ args = 0, pretend = 0, frame = 0
 135              		@ frame_needed = 0, uses_anonymous_args = 0
 136              	.LVL8:
 137 0000 2DE9F041 		push	{r4, r5, r6, r7, r8, lr}
 138              		.cfi_def_cfa_offset 24
 139              		.cfi_offset 4, -24
 140              		.cfi_offset 5, -20
 141              		.cfi_offset 6, -16
 142              		.cfi_offset 7, -12
 143              		.cfi_offset 8, -8
 144              		.cfi_offset 14, -4
 439:Generated_Source\PSoC5/USBUART_std.c ****     uint8 ep;
 440:Generated_Source\PSoC5/USBUART_std.c **** 
 441:Generated_Source\PSoC5/USBUART_std.c **** #if (USBUART_EP_MANAGEMENT_DMA_AUTO)
 442:Generated_Source\PSoC5/USBUART_std.c ****     uint8 epType = 0u;
 443:Generated_Source\PSoC5/USBUART_std.c **** #endif /* (USBUART_EP_MANAGEMENT_DMA_AUTO) */
 444:Generated_Source\PSoC5/USBUART_std.c **** 
 445:Generated_Source\PSoC5/USBUART_std.c ****     /* Go thought all endpoints and set hardware configuration */
 446:Generated_Source\PSoC5/USBUART_std.c ****     for (ep = USBUART_EP1; ep < USBUART_MAX_EP; ++ep)
 447:Generated_Source\PSoC5/USBUART_std.c ****     {
 448:Generated_Source\PSoC5/USBUART_std.c ****         USBUART_ARB_EP_BASE.arbEp[ep].epCfg = USBUART_ARB_EPX_CFG_DEFAULT;
 449:Generated_Source\PSoC5/USBUART_std.c ****         
 450:Generated_Source\PSoC5/USBUART_std.c ****     #if (USBUART_EP_MANAGEMENT_DMA)
 451:Generated_Source\PSoC5/USBUART_std.c ****         /* Enable arbiter endpoint interrupt sources */
 452:Generated_Source\PSoC5/USBUART_std.c ****         USBUART_ARB_EP_BASE.arbEp[ep].epIntEn = USBUART_ARB_EPX_INT_MASK;
 453:Generated_Source\PSoC5/USBUART_std.c ****     #endif /* (USBUART_EP_MANAGEMENT_DMA) */
 454:Generated_Source\PSoC5/USBUART_std.c ****     
 455:Generated_Source\PSoC5/USBUART_std.c ****         if (USBUART_EP[ep].epMode != USBUART_MODE_DISABLE)
 145              		.loc 1 455 0
 146 0004 1A4D     		ldr	r5, .L17
 438:Generated_Source\PSoC5/USBUART_std.c ****     uint8 ep;
 147              		.loc 1 438 0
 148 0006 0122     		movs	r2, #1
 149 0008 2E46     		mov	r6, r5
 448:Generated_Source\PSoC5/USBUART_std.c ****         
 150              		.loc 1 448 0
 151 000a 0C20     		movs	r0, #12
 456:Generated_Source\PSoC5/USBUART_std.c ****         {
 457:Generated_Source\PSoC5/USBUART_std.c ****             if (0u != (USBUART_EP[ep].addr & USBUART_DIR_IN))
 458:Generated_Source\PSoC5/USBUART_std.c ****             {
 459:Generated_Source\PSoC5/USBUART_std.c ****                 USBUART_SIE_EP_BASE.sieEp[ep].epCr0 = USBUART_MODE_NAK_IN;
 460:Generated_Source\PSoC5/USBUART_std.c ****                 
 461:Generated_Source\PSoC5/USBUART_std.c ****             #if (USBUART_EP_MANAGEMENT_DMA_AUTO && CY_PSOC4)
 462:Generated_Source\PSoC5/USBUART_std.c ****                 /* Clear DMA_TERMIN for IN endpoint. */
 463:Generated_Source\PSoC5/USBUART_std.c ****                 USBUART_ARB_EP_BASE.arbEp[ep].epIntEn &= (uint32) ~USBUART_ARB_EPX_INT_DMA_TERMIN;
 464:Generated_Source\PSoC5/USBUART_std.c ****             #endif /* (USBUART_EP_MANAGEMENT_DMA_AUTO && CY_PSOC4) */
 465:Generated_Source\PSoC5/USBUART_std.c ****             }
 466:Generated_Source\PSoC5/USBUART_std.c ****             else
ARM GAS  C:\Users\chemi\AppData\Local\Temp\cc21dAG8.s 			page 12


 467:Generated_Source\PSoC5/USBUART_std.c ****             {
 468:Generated_Source\PSoC5/USBUART_std.c ****                 USBUART_SIE_EP_BASE.sieEp[ep].epCr0 = USBUART_MODE_NAK_OUT;
 469:Generated_Source\PSoC5/USBUART_std.c **** 
 470:Generated_Source\PSoC5/USBUART_std.c ****             #if (USBUART_EP_MANAGEMENT_DMA_AUTO)
 471:Generated_Source\PSoC5/USBUART_std.c ****                 /* (CY_PSOC4): DMA_TERMIN for OUT endpoint is set above. */
 472:Generated_Source\PSoC5/USBUART_std.c ****                 
 473:Generated_Source\PSoC5/USBUART_std.c ****                 /* Prepare endpoint type mask. */
 474:Generated_Source\PSoC5/USBUART_std.c ****                 epType |= (uint8) (0x01u << (ep - USBUART_EP1));
 475:Generated_Source\PSoC5/USBUART_std.c ****             #endif /* (USBUART_EP_MANAGEMENT_DMA_AUTO) */
 476:Generated_Source\PSoC5/USBUART_std.c ****             }
 477:Generated_Source\PSoC5/USBUART_std.c ****         }
 478:Generated_Source\PSoC5/USBUART_std.c ****         else
 479:Generated_Source\PSoC5/USBUART_std.c ****         {
 480:Generated_Source\PSoC5/USBUART_std.c ****             USBUART_SIE_EP_BASE.sieEp[ep].epCr0 = USBUART_MODE_STALL_DATA_EP;
 152              		.loc 1 480 0
 153 000c 8027     		movs	r7, #128
 468:Generated_Source\PSoC5/USBUART_std.c **** 
 154              		.loc 1 468 0
 155 000e 4FF0080E 		mov	lr, #8
 156              	.LVL9:
 157              	.L15:
 158 0012 184B     		ldr	r3, .L17+4
 455:Generated_Source\PSoC5/USBUART_std.c ****         {
 159              		.loc 1 455 0
 160 0014 00FB025C 		mla	ip, r0, r2, r5
 161 0018 1401     		lsls	r4, r2, #4
 162 001a 2344     		add	r3, r3, r4
 448:Generated_Source\PSoC5/USBUART_std.c ****         
 163              		.loc 1 448 0
 164 001c 1870     		strb	r0, [r3]
 165 001e 1649     		ldr	r1, .L17+8
 455:Generated_Source\PSoC5/USBUART_std.c ****         {
 166              		.loc 1 455 0
 167 0020 9CF80580 		ldrb	r8, [ip, #5]	@ zero_extendqisi2
 168 0024 2144     		add	r1, r1, r4
 169 0026 B8F1000F 		cmp	r8, #0
 170 002a 07D0     		beq	.L12
 457:Generated_Source\PSoC5/USBUART_std.c ****             {
 171              		.loc 1 457 0
 172 002c 9CF80440 		ldrb	r4, [ip, #4]	@ zero_extendqisi2
 173 0030 2406     		lsls	r4, r4, #24
 459:Generated_Source\PSoC5/USBUART_std.c ****                 
 174              		.loc 1 459 0
 175 0032 4CBF     		ite	mi
 176 0034 8870     		strbmi	r0, [r1, #2]
 468:Generated_Source\PSoC5/USBUART_std.c **** 
 177              		.loc 1 468 0
 178 0036 81F802E0 		strbpl	lr, [r1, #2]
 179 003a 00E0     		b	.L14
 180              	.L12:
 181              		.loc 1 480 0
 182 003c 8F70     		strb	r7, [r1, #2]
 183              	.L14:
 481:Generated_Source\PSoC5/USBUART_std.c ****         }
 482:Generated_Source\PSoC5/USBUART_std.c ****         
 483:Generated_Source\PSoC5/USBUART_std.c ****     #if (!USBUART_EP_MANAGEMENT_DMA_AUTO)
 484:Generated_Source\PSoC5/USBUART_std.c ****         #if (CY_PSOC4)
ARM GAS  C:\Users\chemi\AppData\Local\Temp\cc21dAG8.s 			page 13


 485:Generated_Source\PSoC5/USBUART_std.c ****             USBUART_ARB_EP16_BASE.arbEp[ep].rwRa16  = (uint32) USBUART_EP[ep].buffOffset;
 486:Generated_Source\PSoC5/USBUART_std.c ****             USBUART_ARB_EP16_BASE.arbEp[ep].rwWa16  = (uint32) USBUART_EP[ep].buffOffset;
 487:Generated_Source\PSoC5/USBUART_std.c ****         #else
 488:Generated_Source\PSoC5/USBUART_std.c ****             USBUART_ARB_EP_BASE.arbEp[ep].rwRa    = LO8(USBUART_EP[ep].buffOffset);
 184              		.loc 1 488 0 discriminator 2
 185 003e 00FB0261 		mla	r1, r0, r2, r6
 186 0042 CC88     		ldrh	r4, [r1, #6]
 187 0044 0132     		adds	r2, r2, #1
 188              	.LVL10:
 189 0046 E4B2     		uxtb	r4, r4
 190 0048 9C71     		strb	r4, [r3, #6]
 489:Generated_Source\PSoC5/USBUART_std.c ****             USBUART_ARB_EP_BASE.arbEp[ep].rwRaMsb = HI8(USBUART_EP[ep].buffOffset);
 191              		.loc 1 489 0 discriminator 2
 192 004a CC88     		ldrh	r4, [r1, #6]
 446:Generated_Source\PSoC5/USBUART_std.c ****     {
 193              		.loc 1 446 0 discriminator 2
 194 004c 092A     		cmp	r2, #9
 195              		.loc 1 489 0 discriminator 2
 196 004e C4F30724 		ubfx	r4, r4, #8, #8
 197 0052 DC71     		strb	r4, [r3, #7]
 490:Generated_Source\PSoC5/USBUART_std.c ****             USBUART_ARB_EP_BASE.arbEp[ep].rwWa    = LO8(USBUART_EP[ep].buffOffset);
 198              		.loc 1 490 0 discriminator 2
 199 0054 CC88     		ldrh	r4, [r1, #6]
 200 0056 E4B2     		uxtb	r4, r4
 201 0058 1C71     		strb	r4, [r3, #4]
 491:Generated_Source\PSoC5/USBUART_std.c ****             USBUART_ARB_EP_BASE.arbEp[ep].rwWaMsb = HI8(USBUART_EP[ep].buffOffset);
 202              		.loc 1 491 0 discriminator 2
 203 005a C988     		ldrh	r1, [r1, #6]
 204 005c C1F30721 		ubfx	r1, r1, #8, #8
 205 0060 5971     		strb	r1, [r3, #5]
 446:Generated_Source\PSoC5/USBUART_std.c ****     {
 206              		.loc 1 446 0 discriminator 2
 207 0062 D6D1     		bne	.L15
 492:Generated_Source\PSoC5/USBUART_std.c ****         #endif /* (CY_PSOC4) */
 493:Generated_Source\PSoC5/USBUART_std.c ****     #endif /* (!USBUART_EP_MANAGEMENT_DMA_AUTO) */
 494:Generated_Source\PSoC5/USBUART_std.c ****     }
 495:Generated_Source\PSoC5/USBUART_std.c **** 
 496:Generated_Source\PSoC5/USBUART_std.c **** #if (USBUART_EP_MANAGEMENT_DMA_AUTO)
 497:Generated_Source\PSoC5/USBUART_std.c ****      /* BUF_SIZE depend on DMA_THRESS value:0x55-32 bytes  0x44-16 bytes 0x33-8 bytes 0x22-4 bytes 
 498:Generated_Source\PSoC5/USBUART_std.c ****     USBUART_BUF_SIZE_REG = USBUART_DMA_BUF_SIZE;
 499:Generated_Source\PSoC5/USBUART_std.c **** 
 500:Generated_Source\PSoC5/USBUART_std.c ****     /* Configure DMA burst threshold */
 501:Generated_Source\PSoC5/USBUART_std.c **** #if (CY_PSOC4)
 502:Generated_Source\PSoC5/USBUART_std.c ****     USBUART_DMA_THRES16_REG   = USBUART_DMA_BYTES_PER_BURST;
 503:Generated_Source\PSoC5/USBUART_std.c **** #else
 504:Generated_Source\PSoC5/USBUART_std.c ****     USBUART_DMA_THRES_REG     = USBUART_DMA_BYTES_PER_BURST;
 505:Generated_Source\PSoC5/USBUART_std.c ****     USBUART_DMA_THRES_MSB_REG = 0u;
 506:Generated_Source\PSoC5/USBUART_std.c **** #endif /* (CY_PSOC4) */
 507:Generated_Source\PSoC5/USBUART_std.c ****     USBUART_EP_ACTIVE_REG = USBUART_DEFAULT_ARB_INT_EN;
 508:Generated_Source\PSoC5/USBUART_std.c ****     USBUART_EP_TYPE_REG   = epType;
 509:Generated_Source\PSoC5/USBUART_std.c ****     
 510:Generated_Source\PSoC5/USBUART_std.c ****     /* Cfg_cmp bit set to 1 once configuration is complete. */
 511:Generated_Source\PSoC5/USBUART_std.c ****     /* Lock arbiter configtuation */
 512:Generated_Source\PSoC5/USBUART_std.c ****     USBUART_ARB_CFG_REG |= (uint8)  USBUART_ARB_CFG_CFG_CMP;
 513:Generated_Source\PSoC5/USBUART_std.c ****     /* Cfg_cmp bit set to 0 during configuration of PFSUSB Registers. */
 514:Generated_Source\PSoC5/USBUART_std.c ****     USBUART_ARB_CFG_REG &= (uint8) ~USBUART_ARB_CFG_CFG_CMP;
 515:Generated_Source\PSoC5/USBUART_std.c **** 
ARM GAS  C:\Users\chemi\AppData\Local\Temp\cc21dAG8.s 			page 14


 516:Generated_Source\PSoC5/USBUART_std.c **** #endif /* (USBUART_EP_MANAGEMENT_DMA_AUTO) */
 517:Generated_Source\PSoC5/USBUART_std.c **** 
 518:Generated_Source\PSoC5/USBUART_std.c ****     /* Enable interrupt SIE interurpt source from EP0-EP1 */
 519:Generated_Source\PSoC5/USBUART_std.c ****     USBUART_SIE_EP_INT_EN_REG = (uint8) USBUART_DEFAULT_SIE_EP_INT_EN;
 208              		.loc 1 519 0
 209 0064 054B     		ldr	r3, .L17+12
 210 0066 FF22     		movs	r2, #255
 211 0068 1A70     		strb	r2, [r3]
 212 006a BDE8F081 		pop	{r4, r5, r6, r7, r8, pc}
 213              	.L18:
 214 006e 00BF     		.align	2
 215              	.L17:
 216 0070 00000000 		.word	USBUART_EP
 217 0074 70600040 		.word	1073766512
 218 0078 FC5F0040 		.word	1073766396
 219 007c 0A600040 		.word	1073766410
 220              		.cfi_endproc
 221              	.LFE2:
 222              		.size	USBUART_ConfigReg, .-USBUART_ConfigReg
 223              		.section	.text.USBUART_EpStateInit,"ax",%progbits
 224              		.align	1
 225              		.global	USBUART_EpStateInit
 226              		.thumb
 227              		.thumb_func
 228              		.type	USBUART_EpStateInit, %function
 229              	USBUART_EpStateInit:
 230              	.LFB3:
 520:Generated_Source\PSoC5/USBUART_std.c **** }
 521:Generated_Source\PSoC5/USBUART_std.c **** 
 522:Generated_Source\PSoC5/USBUART_std.c **** 
 523:Generated_Source\PSoC5/USBUART_std.c **** /*******************************************************************************
 524:Generated_Source\PSoC5/USBUART_std.c **** * Function Name: USBUART_EpStateInit
 525:Generated_Source\PSoC5/USBUART_std.c **** ****************************************************************************//**
 526:Generated_Source\PSoC5/USBUART_std.c **** *
 527:Generated_Source\PSoC5/USBUART_std.c **** *  This routine initialize state of Data end points based of its type: 
 528:Generated_Source\PSoC5/USBUART_std.c **** *   IN  - USBUART_IN_BUFFER_EMPTY (USBUART_EVENT_PENDING)
 529:Generated_Source\PSoC5/USBUART_std.c **** *   OUT - USBUART_OUT_BUFFER_EMPTY (USBUART_NO_EVENT_PENDING)
 530:Generated_Source\PSoC5/USBUART_std.c **** *
 531:Generated_Source\PSoC5/USBUART_std.c **** *******************************************************************************/
 532:Generated_Source\PSoC5/USBUART_std.c **** void USBUART_EpStateInit(void) 
 533:Generated_Source\PSoC5/USBUART_std.c **** {
 231              		.loc 1 533 0
 232              		.cfi_startproc
 233              		@ args = 0, pretend = 0, frame = 0
 234              		@ frame_needed = 0, uses_anonymous_args = 0
 235              	.LVL11:
 236 0000 0123     		movs	r3, #1
 237 0002 70B5     		push	{r4, r5, r6, lr}
 238              		.cfi_def_cfa_offset 16
 239              		.cfi_offset 4, -16
 240              		.cfi_offset 5, -12
 241              		.cfi_offset 6, -8
 242              		.cfi_offset 14, -4
 534:Generated_Source\PSoC5/USBUART_std.c ****     uint8 i;
 535:Generated_Source\PSoC5/USBUART_std.c **** 
 536:Generated_Source\PSoC5/USBUART_std.c ****     for (i = USBUART_EP1; i < USBUART_MAX_EP; i++)
 537:Generated_Source\PSoC5/USBUART_std.c ****     { 
ARM GAS  C:\Users\chemi\AppData\Local\Temp\cc21dAG8.s 			page 15


 538:Generated_Source\PSoC5/USBUART_std.c ****         if (0u != (USBUART_EP[i].addr & USBUART_DIR_IN))
 539:Generated_Source\PSoC5/USBUART_std.c ****         {
 540:Generated_Source\PSoC5/USBUART_std.c ****             /* IN Endpoint */
 541:Generated_Source\PSoC5/USBUART_std.c ****             USBUART_EP[i].apiEpState = USBUART_EVENT_PENDING;
 243              		.loc 1 541 0
 244 0004 1D46     		mov	r5, r3
 538:Generated_Source\PSoC5/USBUART_std.c ****         {
 245              		.loc 1 538 0
 246 0006 0749     		ldr	r1, .L24
 247 0008 0C20     		movs	r0, #12
 542:Generated_Source\PSoC5/USBUART_std.c ****         }
 543:Generated_Source\PSoC5/USBUART_std.c ****         else
 544:Generated_Source\PSoC5/USBUART_std.c ****         {
 545:Generated_Source\PSoC5/USBUART_std.c ****             /* OUT Endpoint */
 546:Generated_Source\PSoC5/USBUART_std.c ****             USBUART_EP[i].apiEpState = USBUART_NO_EVENT_PENDING;
 248              		.loc 1 546 0
 249 000a 0024     		movs	r4, #0
 250              	.LVL12:
 251              	.L22:
 538:Generated_Source\PSoC5/USBUART_std.c ****         {
 252              		.loc 1 538 0
 253 000c 00FB0312 		mla	r2, r0, r3, r1
 254 0010 1679     		ldrb	r6, [r2, #4]	@ zero_extendqisi2
 255 0012 0133     		adds	r3, r3, #1
 256              	.LVL13:
 257 0014 3606     		lsls	r6, r6, #24
 541:Generated_Source\PSoC5/USBUART_std.c ****         }
 258              		.loc 1 541 0
 259 0016 4CBF     		ite	mi
 260 0018 5570     		strbmi	r5, [r2, #1]
 261              		.loc 1 546 0
 262 001a 5470     		strbpl	r4, [r2, #1]
 536:Generated_Source\PSoC5/USBUART_std.c ****     { 
 263              		.loc 1 536 0
 264 001c 092B     		cmp	r3, #9
 265 001e F5D1     		bne	.L22
 547:Generated_Source\PSoC5/USBUART_std.c ****         }
 548:Generated_Source\PSoC5/USBUART_std.c ****     }
 549:Generated_Source\PSoC5/USBUART_std.c ****                     
 550:Generated_Source\PSoC5/USBUART_std.c **** }
 266              		.loc 1 550 0
 267 0020 70BD     		pop	{r4, r5, r6, pc}
 268              	.L25:
 269 0022 00BF     		.align	2
 270              	.L24:
 271 0024 00000000 		.word	USBUART_EP
 272              		.cfi_endproc
 273              	.LFE3:
 274              		.size	USBUART_EpStateInit, .-USBUART_EpStateInit
 275              		.section	.text.USBUART_GetConfigTablePtr,"ax",%progbits
 276              		.align	1
 277              		.global	USBUART_GetConfigTablePtr
 278              		.thumb
 279              		.thumb_func
 280              		.type	USBUART_GetConfigTablePtr, %function
 281              	USBUART_GetConfigTablePtr:
 282              	.LFB6:
ARM GAS  C:\Users\chemi\AppData\Local\Temp\cc21dAG8.s 			page 16


 551:Generated_Source\PSoC5/USBUART_std.c **** 
 552:Generated_Source\PSoC5/USBUART_std.c **** 
 553:Generated_Source\PSoC5/USBUART_std.c **** /*******************************************************************************
 554:Generated_Source\PSoC5/USBUART_std.c **** * Function Name: USBUART_Config
 555:Generated_Source\PSoC5/USBUART_std.c **** ****************************************************************************//**
 556:Generated_Source\PSoC5/USBUART_std.c **** *
 557:Generated_Source\PSoC5/USBUART_std.c **** *  This routine configures endpoints for the entire configuration by scanning
 558:Generated_Source\PSoC5/USBUART_std.c **** *  the configuration descriptor.
 559:Generated_Source\PSoC5/USBUART_std.c **** *
 560:Generated_Source\PSoC5/USBUART_std.c **** *  \param clearAltSetting: It configures the bAlternateSetting 0 for each interface.
 561:Generated_Source\PSoC5/USBUART_std.c **** *
 562:Generated_Source\PSoC5/USBUART_std.c **** * USBUART_interfaceClass - Initialized class array for each interface.
 563:Generated_Source\PSoC5/USBUART_std.c **** *   It is used for handling Class specific requests depend on interface class.
 564:Generated_Source\PSoC5/USBUART_std.c **** *   Different classes in multiple Alternate settings does not supported.
 565:Generated_Source\PSoC5/USBUART_std.c **** *
 566:Generated_Source\PSoC5/USBUART_std.c **** * \reentrant
 567:Generated_Source\PSoC5/USBUART_std.c **** *  No.
 568:Generated_Source\PSoC5/USBUART_std.c **** *
 569:Generated_Source\PSoC5/USBUART_std.c **** *******************************************************************************/
 570:Generated_Source\PSoC5/USBUART_std.c **** void USBUART_Config(uint8 clearAltSetting) 
 571:Generated_Source\PSoC5/USBUART_std.c **** {
 572:Generated_Source\PSoC5/USBUART_std.c ****     uint8 ep;
 573:Generated_Source\PSoC5/USBUART_std.c ****     uint8 curEp;
 574:Generated_Source\PSoC5/USBUART_std.c ****     uint8 i;
 575:Generated_Source\PSoC5/USBUART_std.c ****     uint8 epType;
 576:Generated_Source\PSoC5/USBUART_std.c ****     const uint8 *pDescr;
 577:Generated_Source\PSoC5/USBUART_std.c ****     
 578:Generated_Source\PSoC5/USBUART_std.c ****     #if (!USBUART_EP_MANAGEMENT_DMA_AUTO)
 579:Generated_Source\PSoC5/USBUART_std.c ****         uint16 buffCount = 0u;
 580:Generated_Source\PSoC5/USBUART_std.c ****     #endif /* (!USBUART_EP_MANAGEMENT_DMA_AUTO) */
 581:Generated_Source\PSoC5/USBUART_std.c **** 
 582:Generated_Source\PSoC5/USBUART_std.c ****     const T_USBUART_LUT CYCODE *pTmp;
 583:Generated_Source\PSoC5/USBUART_std.c ****     const T_USBUART_EP_SETTINGS_BLOCK CYCODE *pEP;
 584:Generated_Source\PSoC5/USBUART_std.c **** 
 585:Generated_Source\PSoC5/USBUART_std.c ****     /* Clear endpoints settings */
 586:Generated_Source\PSoC5/USBUART_std.c ****     for (ep = 0u; ep < USBUART_MAX_EP; ++ep)
 587:Generated_Source\PSoC5/USBUART_std.c ****     {
 588:Generated_Source\PSoC5/USBUART_std.c ****         USBUART_EP[ep].attrib     = 0u;
 589:Generated_Source\PSoC5/USBUART_std.c ****         USBUART_EP[ep].hwEpState  = 0u;
 590:Generated_Source\PSoC5/USBUART_std.c ****         USBUART_EP[ep].epToggle   = 0u;
 591:Generated_Source\PSoC5/USBUART_std.c ****         USBUART_EP[ep].bufferSize = 0u;
 592:Generated_Source\PSoC5/USBUART_std.c ****         USBUART_EP[ep].interface  = 0u;
 593:Generated_Source\PSoC5/USBUART_std.c ****         USBUART_EP[ep].apiEpState = USBUART_NO_EVENT_PENDING;
 594:Generated_Source\PSoC5/USBUART_std.c ****         USBUART_EP[ep].epMode     = USBUART_MODE_DISABLE;   
 595:Generated_Source\PSoC5/USBUART_std.c ****     }
 596:Generated_Source\PSoC5/USBUART_std.c **** 
 597:Generated_Source\PSoC5/USBUART_std.c ****     /* Clear Alternate settings for all interfaces. */
 598:Generated_Source\PSoC5/USBUART_std.c ****     if (0u != clearAltSetting)
 599:Generated_Source\PSoC5/USBUART_std.c ****     {
 600:Generated_Source\PSoC5/USBUART_std.c ****         for (i = 0u; i < USBUART_MAX_INTERFACES_NUMBER; ++i)
 601:Generated_Source\PSoC5/USBUART_std.c ****         {
 602:Generated_Source\PSoC5/USBUART_std.c ****             USBUART_interfaceSetting[i]     = 0u;
 603:Generated_Source\PSoC5/USBUART_std.c ****             USBUART_interfaceSettingLast[i] = 0u;
 604:Generated_Source\PSoC5/USBUART_std.c ****         }
 605:Generated_Source\PSoC5/USBUART_std.c ****     }
 606:Generated_Source\PSoC5/USBUART_std.c **** 
 607:Generated_Source\PSoC5/USBUART_std.c ****     /* Init Endpoints and Device Status if configured */
ARM GAS  C:\Users\chemi\AppData\Local\Temp\cc21dAG8.s 			page 17


 608:Generated_Source\PSoC5/USBUART_std.c ****     if (USBUART_configuration > 0u)
 609:Generated_Source\PSoC5/USBUART_std.c ****     {
 610:Generated_Source\PSoC5/USBUART_std.c ****         #if defined(USBUART_ENABLE_CDC_CLASS)
 611:Generated_Source\PSoC5/USBUART_std.c ****             uint8 cdcComNums = 0u;
 612:Generated_Source\PSoC5/USBUART_std.c ****         #endif  /* (USBUART_ENABLE_CDC_CLASS) */  
 613:Generated_Source\PSoC5/USBUART_std.c **** 
 614:Generated_Source\PSoC5/USBUART_std.c ****         pTmp = USBUART_GetConfigTablePtr(USBUART_configuration - 1u);
 615:Generated_Source\PSoC5/USBUART_std.c ****         
 616:Generated_Source\PSoC5/USBUART_std.c ****         /* Set Power status for current configuration */
 617:Generated_Source\PSoC5/USBUART_std.c ****         pDescr = (const uint8 *)pTmp->p_list;
 618:Generated_Source\PSoC5/USBUART_std.c ****         if ((pDescr[USBUART_CONFIG_DESCR_ATTRIB] & USBUART_CONFIG_DESCR_ATTRIB_SELF_POWERED) != 0u)
 619:Generated_Source\PSoC5/USBUART_std.c ****         {
 620:Generated_Source\PSoC5/USBUART_std.c ****             USBUART_deviceStatus |= (uint8)  USBUART_DEVICE_STATUS_SELF_POWERED;
 621:Generated_Source\PSoC5/USBUART_std.c ****         }
 622:Generated_Source\PSoC5/USBUART_std.c ****         else
 623:Generated_Source\PSoC5/USBUART_std.c ****         {
 624:Generated_Source\PSoC5/USBUART_std.c ****             USBUART_deviceStatus &= (uint8) ~USBUART_DEVICE_STATUS_SELF_POWERED;
 625:Generated_Source\PSoC5/USBUART_std.c ****         }
 626:Generated_Source\PSoC5/USBUART_std.c ****         
 627:Generated_Source\PSoC5/USBUART_std.c ****         /* Move to next element */
 628:Generated_Source\PSoC5/USBUART_std.c ****         pTmp = &pTmp[1u];
 629:Generated_Source\PSoC5/USBUART_std.c ****         ep = pTmp->c;  /* For this table, c is the number of endpoints configurations  */
 630:Generated_Source\PSoC5/USBUART_std.c **** 
 631:Generated_Source\PSoC5/USBUART_std.c ****         #if (USBUART_EP_MANAGEMENT_MANUAL && USBUART_EP_ALLOC_DYNAMIC)
 632:Generated_Source\PSoC5/USBUART_std.c ****             /* Configure for dynamic EP memory allocation */
 633:Generated_Source\PSoC5/USBUART_std.c ****             /* p_list points the endpoint setting table. */
 634:Generated_Source\PSoC5/USBUART_std.c ****             pEP = (T_USBUART_EP_SETTINGS_BLOCK *) pTmp->p_list;
 635:Generated_Source\PSoC5/USBUART_std.c ****             
 636:Generated_Source\PSoC5/USBUART_std.c ****             for (i = 0u; i < ep; i++)
 637:Generated_Source\PSoC5/USBUART_std.c ****             {     
 638:Generated_Source\PSoC5/USBUART_std.c ****                 /* Compare current Alternate setting with EP Alt */
 639:Generated_Source\PSoC5/USBUART_std.c ****                 if (USBUART_interfaceSetting[pEP->interface] == pEP->altSetting)
 640:Generated_Source\PSoC5/USBUART_std.c ****                 {                                                          
 641:Generated_Source\PSoC5/USBUART_std.c ****                     curEp  = pEP->addr & USBUART_DIR_UNUSED;
 642:Generated_Source\PSoC5/USBUART_std.c ****                     epType = pEP->attributes & USBUART_EP_TYPE_MASK;
 643:Generated_Source\PSoC5/USBUART_std.c ****                     
 644:Generated_Source\PSoC5/USBUART_std.c ****                     USBUART_EP[curEp].addr       = pEP->addr;
 645:Generated_Source\PSoC5/USBUART_std.c ****                     USBUART_EP[curEp].attrib     = pEP->attributes;
 646:Generated_Source\PSoC5/USBUART_std.c ****                     USBUART_EP[curEp].bufferSize = pEP->bufferSize;
 647:Generated_Source\PSoC5/USBUART_std.c **** 
 648:Generated_Source\PSoC5/USBUART_std.c ****                     if (0u != (pEP->addr & USBUART_DIR_IN))
 649:Generated_Source\PSoC5/USBUART_std.c ****                     {
 650:Generated_Source\PSoC5/USBUART_std.c ****                         /* IN Endpoint */
 651:Generated_Source\PSoC5/USBUART_std.c ****                         USBUART_EP[curEp].epMode     = USBUART_GET_ACTIVE_IN_EP_CR0_MODE(epType);
 652:Generated_Source\PSoC5/USBUART_std.c ****                         USBUART_EP[curEp].apiEpState = USBUART_EVENT_PENDING;
 653:Generated_Source\PSoC5/USBUART_std.c ****                     
 654:Generated_Source\PSoC5/USBUART_std.c ****                     #if (defined(USBUART_ENABLE_MIDI_STREAMING) && (USBUART_MIDI_IN_BUFF_SIZE > 0))
 655:Generated_Source\PSoC5/USBUART_std.c ****                         if ((pEP->bMisc == USBUART_CLASS_AUDIO) && (epType == USBUART_EP_TYPE_BULK)
 656:Generated_Source\PSoC5/USBUART_std.c ****                         {
 657:Generated_Source\PSoC5/USBUART_std.c ****                             USBUART_midi_in_ep = curEp;
 658:Generated_Source\PSoC5/USBUART_std.c ****                         }
 659:Generated_Source\PSoC5/USBUART_std.c ****                     #endif  /* (USBUART_ENABLE_MIDI_STREAMING) */
 660:Generated_Source\PSoC5/USBUART_std.c ****                     }
 661:Generated_Source\PSoC5/USBUART_std.c ****                     else
 662:Generated_Source\PSoC5/USBUART_std.c ****                     {
 663:Generated_Source\PSoC5/USBUART_std.c ****                         /* OUT Endpoint */
 664:Generated_Source\PSoC5/USBUART_std.c ****                         USBUART_EP[curEp].epMode     = USBUART_GET_ACTIVE_OUT_EP_CR0_MODE(epType);
ARM GAS  C:\Users\chemi\AppData\Local\Temp\cc21dAG8.s 			page 18


 665:Generated_Source\PSoC5/USBUART_std.c ****                         USBUART_EP[curEp].apiEpState = USBUART_NO_EVENT_PENDING;
 666:Generated_Source\PSoC5/USBUART_std.c ****                         
 667:Generated_Source\PSoC5/USBUART_std.c ****                     #if (defined(USBUART_ENABLE_MIDI_STREAMING) && (USBUART_MIDI_OUT_BUFF_SIZE > 0)
 668:Generated_Source\PSoC5/USBUART_std.c ****                         if ((pEP->bMisc == USBUART_CLASS_AUDIO) && (epType == USBUART_EP_TYPE_BULK)
 669:Generated_Source\PSoC5/USBUART_std.c ****                         {
 670:Generated_Source\PSoC5/USBUART_std.c ****                             USBUART_midi_out_ep = curEp;
 671:Generated_Source\PSoC5/USBUART_std.c ****                         }
 672:Generated_Source\PSoC5/USBUART_std.c ****                     #endif  /* (USBUART_ENABLE_MIDI_STREAMING) */
 673:Generated_Source\PSoC5/USBUART_std.c ****                     }
 674:Generated_Source\PSoC5/USBUART_std.c **** 
 675:Generated_Source\PSoC5/USBUART_std.c ****                 #if(defined (USBUART_ENABLE_CDC_CLASS))
 676:Generated_Source\PSoC5/USBUART_std.c ****                     if((pEP->bMisc == USBUART_CLASS_CDC_DATA) ||(pEP->bMisc == USBUART_CLASS_CDC))
 677:Generated_Source\PSoC5/USBUART_std.c ****                     {
 678:Generated_Source\PSoC5/USBUART_std.c ****                         cdcComNums = USBUART_Cdc_EpInit(pEP, curEp, cdcComNums);
 679:Generated_Source\PSoC5/USBUART_std.c ****                     }
 680:Generated_Source\PSoC5/USBUART_std.c ****                 #endif  /* (USBUART_ENABLE_CDC_CLASS) */
 681:Generated_Source\PSoC5/USBUART_std.c ****                 }
 682:Generated_Source\PSoC5/USBUART_std.c ****                 
 683:Generated_Source\PSoC5/USBUART_std.c ****                 pEP = &pEP[1u];
 684:Generated_Source\PSoC5/USBUART_std.c ****             }
 685:Generated_Source\PSoC5/USBUART_std.c ****             
 686:Generated_Source\PSoC5/USBUART_std.c ****         #else
 687:Generated_Source\PSoC5/USBUART_std.c ****             for (i = USBUART_EP1; i < USBUART_MAX_EP; ++i)
 688:Generated_Source\PSoC5/USBUART_std.c ****             {
 689:Generated_Source\PSoC5/USBUART_std.c ****                 /* p_list points the endpoint setting table. */
 690:Generated_Source\PSoC5/USBUART_std.c ****                 pEP = (const T_USBUART_EP_SETTINGS_BLOCK CYCODE *) pTmp->p_list;
 691:Generated_Source\PSoC5/USBUART_std.c ****                 /* Find max length for each EP and select it (length could be different in differen
 692:Generated_Source\PSoC5/USBUART_std.c ****                 /* but other settings should be correct with regards to Interface alt Setting */
 693:Generated_Source\PSoC5/USBUART_std.c ****                 
 694:Generated_Source\PSoC5/USBUART_std.c ****                 for (curEp = 0u; curEp < ep; ++curEp)
 695:Generated_Source\PSoC5/USBUART_std.c ****                 {
 696:Generated_Source\PSoC5/USBUART_std.c ****                     if (i == (pEP->addr & USBUART_DIR_UNUSED))
 697:Generated_Source\PSoC5/USBUART_std.c ****                     {
 698:Generated_Source\PSoC5/USBUART_std.c ****                         /* Compare endpoint buffers size with current size to find greater. */
 699:Generated_Source\PSoC5/USBUART_std.c ****                         if (USBUART_EP[i].bufferSize < pEP->bufferSize)
 700:Generated_Source\PSoC5/USBUART_std.c ****                         {
 701:Generated_Source\PSoC5/USBUART_std.c ****                             USBUART_EP[i].bufferSize = pEP->bufferSize;
 702:Generated_Source\PSoC5/USBUART_std.c ****                         }
 703:Generated_Source\PSoC5/USBUART_std.c ****                         
 704:Generated_Source\PSoC5/USBUART_std.c ****                         /* Compare current Alternate setting with EP Alt */
 705:Generated_Source\PSoC5/USBUART_std.c ****                         if (USBUART_interfaceSetting[pEP->interface] == pEP->altSetting)
 706:Generated_Source\PSoC5/USBUART_std.c ****                         {                            
 707:Generated_Source\PSoC5/USBUART_std.c ****                             USBUART_EP[i].addr = pEP->addr;
 708:Generated_Source\PSoC5/USBUART_std.c ****                             USBUART_EP[i].attrib = pEP->attributes;
 709:Generated_Source\PSoC5/USBUART_std.c ****                             
 710:Generated_Source\PSoC5/USBUART_std.c ****                             epType = pEP->attributes & USBUART_EP_TYPE_MASK;
 711:Generated_Source\PSoC5/USBUART_std.c ****                             
 712:Generated_Source\PSoC5/USBUART_std.c ****                             if (0u != (pEP->addr & USBUART_DIR_IN))
 713:Generated_Source\PSoC5/USBUART_std.c ****                             {
 714:Generated_Source\PSoC5/USBUART_std.c ****                                 /* IN Endpoint */
 715:Generated_Source\PSoC5/USBUART_std.c ****                                 USBUART_EP[i].epMode     = USBUART_GET_ACTIVE_IN_EP_CR0_MODE(epType
 716:Generated_Source\PSoC5/USBUART_std.c ****                                 USBUART_EP[i].apiEpState = USBUART_EVENT_PENDING;
 717:Generated_Source\PSoC5/USBUART_std.c ****                                 
 718:Generated_Source\PSoC5/USBUART_std.c ****                             #if (defined(USBUART_ENABLE_MIDI_STREAMING) && (USBUART_MIDI_IN_BUFF_SI
 719:Generated_Source\PSoC5/USBUART_std.c ****                                 if ((pEP->bMisc == USBUART_CLASS_AUDIO) && (epType == USBUART_EP_TY
 720:Generated_Source\PSoC5/USBUART_std.c ****                                 {
 721:Generated_Source\PSoC5/USBUART_std.c ****                                     USBUART_midi_in_ep = i;
ARM GAS  C:\Users\chemi\AppData\Local\Temp\cc21dAG8.s 			page 19


 722:Generated_Source\PSoC5/USBUART_std.c ****                                 }
 723:Generated_Source\PSoC5/USBUART_std.c ****                             #endif  /* (USBUART_ENABLE_MIDI_STREAMING) */
 724:Generated_Source\PSoC5/USBUART_std.c ****                             }
 725:Generated_Source\PSoC5/USBUART_std.c ****                             else
 726:Generated_Source\PSoC5/USBUART_std.c ****                             {
 727:Generated_Source\PSoC5/USBUART_std.c ****                                 /* OUT Endpoint */
 728:Generated_Source\PSoC5/USBUART_std.c ****                                 USBUART_EP[i].epMode     = USBUART_GET_ACTIVE_OUT_EP_CR0_MODE(epTyp
 729:Generated_Source\PSoC5/USBUART_std.c ****                                 USBUART_EP[i].apiEpState = USBUART_NO_EVENT_PENDING;
 730:Generated_Source\PSoC5/USBUART_std.c ****                                 
 731:Generated_Source\PSoC5/USBUART_std.c ****                             #if (defined(USBUART_ENABLE_MIDI_STREAMING) && (USBUART_MIDI_OUT_BUFF_S
 732:Generated_Source\PSoC5/USBUART_std.c ****                                 if ((pEP->bMisc == USBUART_CLASS_AUDIO) && (epType == USBUART_EP_TY
 733:Generated_Source\PSoC5/USBUART_std.c ****                                 {
 734:Generated_Source\PSoC5/USBUART_std.c ****                                     USBUART_midi_out_ep = i;
 735:Generated_Source\PSoC5/USBUART_std.c ****                                 }
 736:Generated_Source\PSoC5/USBUART_std.c ****                             #endif  /* (USBUART_ENABLE_MIDI_STREAMING) */
 737:Generated_Source\PSoC5/USBUART_std.c ****                             }
 738:Generated_Source\PSoC5/USBUART_std.c **** 
 739:Generated_Source\PSoC5/USBUART_std.c ****                         #if (defined(USBUART_ENABLE_CDC_CLASS))
 740:Generated_Source\PSoC5/USBUART_std.c ****                             if((pEP->bMisc == USBUART_CLASS_CDC_DATA) ||(pEP->bMisc == USBUART_CLAS
 741:Generated_Source\PSoC5/USBUART_std.c ****                             {
 742:Generated_Source\PSoC5/USBUART_std.c ****                                 cdcComNums = USBUART_Cdc_EpInit(pEP, i, cdcComNums);
 743:Generated_Source\PSoC5/USBUART_std.c ****                             }
 744:Generated_Source\PSoC5/USBUART_std.c ****                         #endif  /* (USBUART_ENABLE_CDC_CLASS) */
 745:Generated_Source\PSoC5/USBUART_std.c **** 
 746:Generated_Source\PSoC5/USBUART_std.c ****                             #if (USBUART_EP_MANAGEMENT_DMA_AUTO)
 747:Generated_Source\PSoC5/USBUART_std.c ****                                 break;  /* Use first EP setting in Auto memory management */
 748:Generated_Source\PSoC5/USBUART_std.c ****                             #endif /* (USBUART_EP_MANAGEMENT_DMA_AUTO) */
 749:Generated_Source\PSoC5/USBUART_std.c ****                         }
 750:Generated_Source\PSoC5/USBUART_std.c ****                     }
 751:Generated_Source\PSoC5/USBUART_std.c ****                     
 752:Generated_Source\PSoC5/USBUART_std.c ****                     pEP = &pEP[1u];
 753:Generated_Source\PSoC5/USBUART_std.c ****                 }
 754:Generated_Source\PSoC5/USBUART_std.c ****             }
 755:Generated_Source\PSoC5/USBUART_std.c ****         #endif /*  (USBUART_EP_MANAGEMENT_MANUAL && USBUART_EP_ALLOC_DYNAMIC) */
 756:Generated_Source\PSoC5/USBUART_std.c **** 
 757:Generated_Source\PSoC5/USBUART_std.c ****         /* Init class array for each interface and interface number for each EP.
 758:Generated_Source\PSoC5/USBUART_std.c ****         *  It is used for handling Class specific requests directed to either an
 759:Generated_Source\PSoC5/USBUART_std.c ****         *  interface or the endpoint.
 760:Generated_Source\PSoC5/USBUART_std.c ****         */
 761:Generated_Source\PSoC5/USBUART_std.c ****         /* p_list points the endpoint setting table. */
 762:Generated_Source\PSoC5/USBUART_std.c ****         pEP = (const T_USBUART_EP_SETTINGS_BLOCK CYCODE *) pTmp->p_list;
 763:Generated_Source\PSoC5/USBUART_std.c ****         for (i = 0u; i < ep; i++)
 764:Generated_Source\PSoC5/USBUART_std.c ****         {
 765:Generated_Source\PSoC5/USBUART_std.c ****             /* Configure interface number for each EP */
 766:Generated_Source\PSoC5/USBUART_std.c ****             USBUART_EP[pEP->addr & USBUART_DIR_UNUSED].interface = pEP->interface;
 767:Generated_Source\PSoC5/USBUART_std.c ****             pEP = &pEP[1u];
 768:Generated_Source\PSoC5/USBUART_std.c ****         }
 769:Generated_Source\PSoC5/USBUART_std.c ****         
 770:Generated_Source\PSoC5/USBUART_std.c ****         /* Init pointer on interface class table */
 771:Generated_Source\PSoC5/USBUART_std.c ****         USBUART_interfaceClass = USBUART_GetInterfaceClassTablePtr();
 772:Generated_Source\PSoC5/USBUART_std.c ****         
 773:Generated_Source\PSoC5/USBUART_std.c ****     /* Set the endpoint buffer addresses */
 774:Generated_Source\PSoC5/USBUART_std.c ****     #if (!USBUART_EP_MANAGEMENT_DMA_AUTO)
 775:Generated_Source\PSoC5/USBUART_std.c ****         buffCount = 0u;
 776:Generated_Source\PSoC5/USBUART_std.c ****         for (ep = USBUART_EP1; ep < USBUART_MAX_EP; ++ep)
 777:Generated_Source\PSoC5/USBUART_std.c ****         {
 778:Generated_Source\PSoC5/USBUART_std.c ****             USBUART_EP[ep].buffOffset = buffCount;        
ARM GAS  C:\Users\chemi\AppData\Local\Temp\cc21dAG8.s 			page 20


 779:Generated_Source\PSoC5/USBUART_std.c ****             buffCount += USBUART_EP[ep].bufferSize;
 780:Generated_Source\PSoC5/USBUART_std.c ****             
 781:Generated_Source\PSoC5/USBUART_std.c ****         #if (USBUART_GEN_16BITS_EP_ACCESS)
 782:Generated_Source\PSoC5/USBUART_std.c ****             /* Align EP buffers to be event size to access 16-bits DR register. */
 783:Generated_Source\PSoC5/USBUART_std.c ****             buffCount += (0u != (buffCount & 0x01u)) ? 1u : 0u;
 784:Generated_Source\PSoC5/USBUART_std.c ****         #endif /* (USBUART_GEN_16BITS_EP_ACCESS) */            
 785:Generated_Source\PSoC5/USBUART_std.c ****         }
 786:Generated_Source\PSoC5/USBUART_std.c ****     #endif /* (!USBUART_EP_MANAGEMENT_DMA_AUTO) */
 787:Generated_Source\PSoC5/USBUART_std.c **** 
 788:Generated_Source\PSoC5/USBUART_std.c ****         /* Configure hardware registers */
 789:Generated_Source\PSoC5/USBUART_std.c ****         USBUART_ConfigReg();
 790:Generated_Source\PSoC5/USBUART_std.c ****     }
 791:Generated_Source\PSoC5/USBUART_std.c **** }
 792:Generated_Source\PSoC5/USBUART_std.c **** 
 793:Generated_Source\PSoC5/USBUART_std.c **** 
 794:Generated_Source\PSoC5/USBUART_std.c **** /*******************************************************************************
 795:Generated_Source\PSoC5/USBUART_std.c **** * Function Name: USBUART_ConfigAltChanged
 796:Generated_Source\PSoC5/USBUART_std.c **** ****************************************************************************//**
 797:Generated_Source\PSoC5/USBUART_std.c **** *
 798:Generated_Source\PSoC5/USBUART_std.c **** *  This routine update configuration for the required endpoints only.
 799:Generated_Source\PSoC5/USBUART_std.c **** *  It is called after SET_INTERFACE request when Static memory allocation used.
 800:Generated_Source\PSoC5/USBUART_std.c **** *
 801:Generated_Source\PSoC5/USBUART_std.c **** * \reentrant
 802:Generated_Source\PSoC5/USBUART_std.c **** *  No.
 803:Generated_Source\PSoC5/USBUART_std.c **** *
 804:Generated_Source\PSoC5/USBUART_std.c **** *******************************************************************************/
 805:Generated_Source\PSoC5/USBUART_std.c **** void USBUART_ConfigAltChanged(void) 
 806:Generated_Source\PSoC5/USBUART_std.c **** {
 807:Generated_Source\PSoC5/USBUART_std.c ****     uint8 ep;
 808:Generated_Source\PSoC5/USBUART_std.c ****     uint8 curEp;
 809:Generated_Source\PSoC5/USBUART_std.c ****     uint8 epType;
 810:Generated_Source\PSoC5/USBUART_std.c ****     uint8 i;
 811:Generated_Source\PSoC5/USBUART_std.c ****     uint8 interfaceNum;
 812:Generated_Source\PSoC5/USBUART_std.c **** 
 813:Generated_Source\PSoC5/USBUART_std.c ****     const T_USBUART_LUT CYCODE *pTmp;
 814:Generated_Source\PSoC5/USBUART_std.c ****     const T_USBUART_EP_SETTINGS_BLOCK CYCODE *pEP;
 815:Generated_Source\PSoC5/USBUART_std.c **** 
 816:Generated_Source\PSoC5/USBUART_std.c ****     /* Init Endpoints and Device Status if configured */
 817:Generated_Source\PSoC5/USBUART_std.c ****     if (USBUART_configuration > 0u)
 818:Generated_Source\PSoC5/USBUART_std.c ****     {
 819:Generated_Source\PSoC5/USBUART_std.c ****         /* Get number of endpoints configurations (ep). */
 820:Generated_Source\PSoC5/USBUART_std.c ****         pTmp = USBUART_GetConfigTablePtr(USBUART_configuration - 1u);
 821:Generated_Source\PSoC5/USBUART_std.c ****         pTmp = &pTmp[1u];
 822:Generated_Source\PSoC5/USBUART_std.c ****         ep = pTmp->c;
 823:Generated_Source\PSoC5/USBUART_std.c **** 
 824:Generated_Source\PSoC5/USBUART_std.c ****         /* Get pointer to endpoints setting table (pEP). */
 825:Generated_Source\PSoC5/USBUART_std.c ****         pEP = (const T_USBUART_EP_SETTINGS_BLOCK CYCODE *) pTmp->p_list;
 826:Generated_Source\PSoC5/USBUART_std.c ****         
 827:Generated_Source\PSoC5/USBUART_std.c ****         /* Look through all possible endpoint configurations. Find endpoints 
 828:Generated_Source\PSoC5/USBUART_std.c ****         * which belong to current interface and alternate settings for 
 829:Generated_Source\PSoC5/USBUART_std.c ****         * re-configuration.
 830:Generated_Source\PSoC5/USBUART_std.c ****         */
 831:Generated_Source\PSoC5/USBUART_std.c ****         interfaceNum = USBUART_interfaceNumber;
 832:Generated_Source\PSoC5/USBUART_std.c ****         for (i = 0u; i < ep; i++)
 833:Generated_Source\PSoC5/USBUART_std.c ****         {
 834:Generated_Source\PSoC5/USBUART_std.c ****             /* Find endpoints which belong to current interface and alternate settings. */
 835:Generated_Source\PSoC5/USBUART_std.c ****             if ((interfaceNum == pEP->interface) && 
ARM GAS  C:\Users\chemi\AppData\Local\Temp\cc21dAG8.s 			page 21


 836:Generated_Source\PSoC5/USBUART_std.c ****                 (USBUART_interfaceSetting[interfaceNum] == pEP->altSetting))
 837:Generated_Source\PSoC5/USBUART_std.c ****             {
 838:Generated_Source\PSoC5/USBUART_std.c ****                 curEp  = ((uint8) pEP->addr & USBUART_DIR_UNUSED);
 839:Generated_Source\PSoC5/USBUART_std.c ****                 epType = ((uint8) pEP->attributes & USBUART_EP_TYPE_MASK);
 840:Generated_Source\PSoC5/USBUART_std.c ****                 
 841:Generated_Source\PSoC5/USBUART_std.c ****                 /* Change the SIE mode for the selected EP to NAK ALL */
 842:Generated_Source\PSoC5/USBUART_std.c ****                 USBUART_EP[curEp].epToggle   = 0u;
 843:Generated_Source\PSoC5/USBUART_std.c ****                 USBUART_EP[curEp].addr       = pEP->addr;
 844:Generated_Source\PSoC5/USBUART_std.c ****                 USBUART_EP[curEp].attrib     = pEP->attributes;
 845:Generated_Source\PSoC5/USBUART_std.c ****                 USBUART_EP[curEp].bufferSize = pEP->bufferSize;
 846:Generated_Source\PSoC5/USBUART_std.c **** 
 847:Generated_Source\PSoC5/USBUART_std.c ****                 if (0u != (pEP->addr & USBUART_DIR_IN))
 848:Generated_Source\PSoC5/USBUART_std.c ****                 {
 849:Generated_Source\PSoC5/USBUART_std.c ****                     /* IN Endpoint */
 850:Generated_Source\PSoC5/USBUART_std.c ****                     USBUART_EP[curEp].epMode     = USBUART_GET_ACTIVE_IN_EP_CR0_MODE(epType);
 851:Generated_Source\PSoC5/USBUART_std.c ****                     USBUART_EP[curEp].apiEpState = USBUART_EVENT_PENDING;
 852:Generated_Source\PSoC5/USBUART_std.c ****                 }
 853:Generated_Source\PSoC5/USBUART_std.c ****                 else
 854:Generated_Source\PSoC5/USBUART_std.c ****                 {
 855:Generated_Source\PSoC5/USBUART_std.c ****                     /* OUT Endpoint */
 856:Generated_Source\PSoC5/USBUART_std.c ****                     USBUART_EP[curEp].epMode     = USBUART_GET_ACTIVE_OUT_EP_CR0_MODE(epType);
 857:Generated_Source\PSoC5/USBUART_std.c ****                     USBUART_EP[curEp].apiEpState = USBUART_NO_EVENT_PENDING;
 858:Generated_Source\PSoC5/USBUART_std.c ****                 }
 859:Generated_Source\PSoC5/USBUART_std.c ****                 
 860:Generated_Source\PSoC5/USBUART_std.c ****                 /* Make SIE to NAK any endpoint requests */
 861:Generated_Source\PSoC5/USBUART_std.c ****                 USBUART_SIE_EP_BASE.sieEp[curEp].epCr0 = USBUART_MODE_NAK_IN_OUT;
 862:Generated_Source\PSoC5/USBUART_std.c **** 
 863:Generated_Source\PSoC5/USBUART_std.c ****             #if (USBUART_EP_MANAGEMENT_DMA_AUTO)
 864:Generated_Source\PSoC5/USBUART_std.c ****                 /* Clear IN data ready. */
 865:Generated_Source\PSoC5/USBUART_std.c ****                 USBUART_ARB_EP_BASE.arbEp[curEp].epCfg &= (uint8) ~USBUART_ARB_EPX_CFG_IN_DATA_RDY;
 866:Generated_Source\PSoC5/USBUART_std.c **** 
 867:Generated_Source\PSoC5/USBUART_std.c ****                 /* Select endpoint number of reconfiguration */
 868:Generated_Source\PSoC5/USBUART_std.c ****                 USBUART_DYN_RECONFIG_REG = (uint8) ((curEp - 1u) << USBUART_DYN_RECONFIG_EP_SHIFT);
 869:Generated_Source\PSoC5/USBUART_std.c ****                 
 870:Generated_Source\PSoC5/USBUART_std.c ****                 /* Request for dynamic re-configuration of endpoint. */
 871:Generated_Source\PSoC5/USBUART_std.c ****                 USBUART_DYN_RECONFIG_REG |= USBUART_DYN_RECONFIG_ENABLE;
 872:Generated_Source\PSoC5/USBUART_std.c ****                 
 873:Generated_Source\PSoC5/USBUART_std.c ****                 /* Wait until block is ready for re-configuration */
 874:Generated_Source\PSoC5/USBUART_std.c ****                 while (0u == (USBUART_DYN_RECONFIG_REG & USBUART_DYN_RECONFIG_RDY_STS))
 875:Generated_Source\PSoC5/USBUART_std.c ****                 {
 876:Generated_Source\PSoC5/USBUART_std.c ****                 }
 877:Generated_Source\PSoC5/USBUART_std.c ****                 
 878:Generated_Source\PSoC5/USBUART_std.c ****                 /* Once DYN_RECONFIG_RDY_STS bit is set, FW can change the EP configuration. */
 879:Generated_Source\PSoC5/USBUART_std.c ****                 /* Change EP Type with new direction */
 880:Generated_Source\PSoC5/USBUART_std.c ****                 if (0u != (pEP->addr & USBUART_DIR_IN))
 881:Generated_Source\PSoC5/USBUART_std.c ****                 {
 882:Generated_Source\PSoC5/USBUART_std.c ****                     /* Set endpoint type: 0 - IN and 1 - OUT. */
 883:Generated_Source\PSoC5/USBUART_std.c ****                     USBUART_EP_TYPE_REG &= (uint8) ~(uint8)((uint8) 0x01u << (curEp - 1u));
 884:Generated_Source\PSoC5/USBUART_std.c ****                     
 885:Generated_Source\PSoC5/USBUART_std.c ****                 #if (CY_PSOC4)
 886:Generated_Source\PSoC5/USBUART_std.c ****                     /* Clear DMA_TERMIN for IN endpoint */
 887:Generated_Source\PSoC5/USBUART_std.c ****                     USBUART_ARB_EP_BASE.arbEp[curEp].epIntEn &= (uint32) ~USBUART_ARB_EPX_INT_DMA_T
 888:Generated_Source\PSoC5/USBUART_std.c ****                 #endif /* (CY_PSOC4) */
 889:Generated_Source\PSoC5/USBUART_std.c ****                 }
 890:Generated_Source\PSoC5/USBUART_std.c ****                 else
 891:Generated_Source\PSoC5/USBUART_std.c ****                 {
 892:Generated_Source\PSoC5/USBUART_std.c ****                     /* Set endpoint type: 0 - IN and 1- OUT. */
ARM GAS  C:\Users\chemi\AppData\Local\Temp\cc21dAG8.s 			page 22


 893:Generated_Source\PSoC5/USBUART_std.c ****                     USBUART_EP_TYPE_REG |= (uint8) ((uint8) 0x01u << (curEp - 1u));
 894:Generated_Source\PSoC5/USBUART_std.c ****                     
 895:Generated_Source\PSoC5/USBUART_std.c ****                 #if (CY_PSOC4)
 896:Generated_Source\PSoC5/USBUART_std.c ****                     /* Set DMA_TERMIN for OUT endpoint */
 897:Generated_Source\PSoC5/USBUART_std.c ****                     USBUART_ARB_EP_BASE.arbEp[curEp].epIntEn |= (uint32) USBUART_ARB_EPX_INT_DMA_TE
 898:Generated_Source\PSoC5/USBUART_std.c ****                 #endif /* (CY_PSOC4) */
 899:Generated_Source\PSoC5/USBUART_std.c ****                 }
 900:Generated_Source\PSoC5/USBUART_std.c ****                 
 901:Generated_Source\PSoC5/USBUART_std.c ****                 /* Complete dynamic re-configuration: all endpoint related status and signals 
 902:Generated_Source\PSoC5/USBUART_std.c ****                 * are set into the default state.
 903:Generated_Source\PSoC5/USBUART_std.c ****                 */
 904:Generated_Source\PSoC5/USBUART_std.c ****                 USBUART_DYN_RECONFIG_REG &= (uint8) ~USBUART_DYN_RECONFIG_ENABLE;
 905:Generated_Source\PSoC5/USBUART_std.c **** 
 906:Generated_Source\PSoC5/USBUART_std.c ****             #else
 907:Generated_Source\PSoC5/USBUART_std.c ****                 USBUART_SIE_EP_BASE.sieEp[curEp].epCnt0 = HI8(USBUART_EP[curEp].bufferSize);
 908:Generated_Source\PSoC5/USBUART_std.c ****                 USBUART_SIE_EP_BASE.sieEp[curEp].epCnt1 = LO8(USBUART_EP[curEp].bufferSize);
 909:Generated_Source\PSoC5/USBUART_std.c ****                 
 910:Generated_Source\PSoC5/USBUART_std.c ****                 #if (CY_PSOC4)
 911:Generated_Source\PSoC5/USBUART_std.c ****                     USBUART_ARB_EP16_BASE.arbEp[curEp].rwRa16  = (uint32) USBUART_EP[curEp].buffOff
 912:Generated_Source\PSoC5/USBUART_std.c ****                     USBUART_ARB_EP16_BASE.arbEp[curEp].rwWa16  = (uint32) USBUART_EP[curEp].buffOff
 913:Generated_Source\PSoC5/USBUART_std.c ****                 #else
 914:Generated_Source\PSoC5/USBUART_std.c ****                     USBUART_ARB_EP_BASE.arbEp[curEp].rwRa    = LO8(USBUART_EP[curEp].buffOffset);
 915:Generated_Source\PSoC5/USBUART_std.c ****                     USBUART_ARB_EP_BASE.arbEp[curEp].rwRaMsb = HI8(USBUART_EP[curEp].buffOffset);
 916:Generated_Source\PSoC5/USBUART_std.c ****                     USBUART_ARB_EP_BASE.arbEp[curEp].rwWa    = LO8(USBUART_EP[curEp].buffOffset);
 917:Generated_Source\PSoC5/USBUART_std.c ****                     USBUART_ARB_EP_BASE.arbEp[curEp].rwWaMsb = HI8(USBUART_EP[curEp].buffOffset);
 918:Generated_Source\PSoC5/USBUART_std.c ****                 #endif /* (CY_PSOC4) */                
 919:Generated_Source\PSoC5/USBUART_std.c ****             #endif /* (USBUART_EP_MANAGEMENT_DMA_AUTO) */
 920:Generated_Source\PSoC5/USBUART_std.c ****             }
 921:Generated_Source\PSoC5/USBUART_std.c ****             
 922:Generated_Source\PSoC5/USBUART_std.c ****             pEP = &pEP[1u]; /* Get next EP element */
 923:Generated_Source\PSoC5/USBUART_std.c ****         }
 924:Generated_Source\PSoC5/USBUART_std.c ****         
 925:Generated_Source\PSoC5/USBUART_std.c ****         /* The main loop has to re-enable DMA and OUT endpoint */
 926:Generated_Source\PSoC5/USBUART_std.c ****     }
 927:Generated_Source\PSoC5/USBUART_std.c **** }
 928:Generated_Source\PSoC5/USBUART_std.c **** 
 929:Generated_Source\PSoC5/USBUART_std.c **** 
 930:Generated_Source\PSoC5/USBUART_std.c **** /*******************************************************************************
 931:Generated_Source\PSoC5/USBUART_std.c **** * Function Name: USBUART_GetConfigTablePtr
 932:Generated_Source\PSoC5/USBUART_std.c **** ****************************************************************************//**
 933:Generated_Source\PSoC5/USBUART_std.c **** *
 934:Generated_Source\PSoC5/USBUART_std.c **** *  This routine returns a pointer a configuration table entry
 935:Generated_Source\PSoC5/USBUART_std.c **** *
 936:Generated_Source\PSoC5/USBUART_std.c **** *  \param confIndex:  Configuration Index
 937:Generated_Source\PSoC5/USBUART_std.c **** *
 938:Generated_Source\PSoC5/USBUART_std.c **** * \return
 939:Generated_Source\PSoC5/USBUART_std.c **** *  Device Descriptor pointer or NULL when descriptor does not exist.
 940:Generated_Source\PSoC5/USBUART_std.c **** *
 941:Generated_Source\PSoC5/USBUART_std.c **** *******************************************************************************/
 942:Generated_Source\PSoC5/USBUART_std.c **** const T_USBUART_LUT CYCODE *USBUART_GetConfigTablePtr(uint8 confIndex)
 943:Generated_Source\PSoC5/USBUART_std.c ****                                                         
 944:Generated_Source\PSoC5/USBUART_std.c **** {
 283              		.loc 1 944 0
 284              		.cfi_startproc
 285              		@ args = 0, pretend = 0, frame = 0
 286              		@ frame_needed = 0, uses_anonymous_args = 0
 287              		@ link register save eliminated.
ARM GAS  C:\Users\chemi\AppData\Local\Temp\cc21dAG8.s 			page 23


 288              	.LVL14:
 945:Generated_Source\PSoC5/USBUART_std.c ****     /* Device Table */
 946:Generated_Source\PSoC5/USBUART_std.c ****     const T_USBUART_LUT CYCODE *pTmp;
 947:Generated_Source\PSoC5/USBUART_std.c **** 
 948:Generated_Source\PSoC5/USBUART_std.c ****     pTmp = (const T_USBUART_LUT CYCODE *) USBUART_TABLE[USBUART_device].p_list;
 289              		.loc 1 948 0
 290 0000 064B     		ldr	r3, .L29
 291 0002 074A     		ldr	r2, .L29+4
 292 0004 1B78     		ldrb	r3, [r3]	@ zero_extendqisi2
 293 0006 02EBC302 		add	r2, r2, r3, lsl #3
 294 000a 5368     		ldr	r3, [r2, #4]
 295              	.LVL15:
 949:Generated_Source\PSoC5/USBUART_std.c **** 
 950:Generated_Source\PSoC5/USBUART_std.c ****     /* The first entry points to the Device Descriptor,
 951:Generated_Source\PSoC5/USBUART_std.c ****     *  the second entry point to the BOS Descriptor
 952:Generated_Source\PSoC5/USBUART_std.c ****     *  the rest configuration entries.
 953:Generated_Source\PSoC5/USBUART_std.c ****     *  Set pointer to the first Configuration Descriptor
 954:Generated_Source\PSoC5/USBUART_std.c ****     */
 955:Generated_Source\PSoC5/USBUART_std.c ****     pTmp = &pTmp[2u];
 956:Generated_Source\PSoC5/USBUART_std.c ****     /* For this table, c is the number of configuration descriptors  */
 957:Generated_Source\PSoC5/USBUART_std.c ****     if(confIndex >= pTmp->c)   /* Verify that required configuration descriptor exists */
 296              		.loc 1 957 0
 297 000c 1A7C     		ldrb	r2, [r3, #16]	@ zero_extendqisi2
 298 000e 8242     		cmp	r2, r0
 958:Generated_Source\PSoC5/USBUART_std.c ****     {
 959:Generated_Source\PSoC5/USBUART_std.c ****         pTmp = (const T_USBUART_LUT CYCODE *) NULL;
 960:Generated_Source\PSoC5/USBUART_std.c ****     }
 961:Generated_Source\PSoC5/USBUART_std.c ****     else
 962:Generated_Source\PSoC5/USBUART_std.c ****     {
 963:Generated_Source\PSoC5/USBUART_std.c ****         pTmp = (const T_USBUART_LUT CYCODE *) pTmp[confIndex].p_list;
 299              		.loc 1 963 0
 300 0010 86BF     		itte	hi
 301 0012 03EBC003 		addhi	r3, r3, r0, lsl #3
 302              	.LVL16:
 303 0016 5869     		ldrhi	r0, [r3, #20]
 304              	.LVL17:
 959:Generated_Source\PSoC5/USBUART_std.c ****     }
 305              		.loc 1 959 0
 306 0018 0020     		movls	r0, #0
 307              	.LVL18:
 964:Generated_Source\PSoC5/USBUART_std.c ****     }
 965:Generated_Source\PSoC5/USBUART_std.c **** 
 966:Generated_Source\PSoC5/USBUART_std.c ****     return (pTmp);
 967:Generated_Source\PSoC5/USBUART_std.c **** }
 308              		.loc 1 967 0
 309 001a 7047     		bx	lr
 310              	.L30:
 311              		.align	2
 312              	.L29:
 313 001c 00000000 		.word	USBUART_device
 314 0020 00000000 		.word	USBUART_TABLE
 315              		.cfi_endproc
 316              	.LFE6:
 317              		.size	USBUART_GetConfigTablePtr, .-USBUART_GetConfigTablePtr
 318              		.section	.text.USBUART_ConfigAltChanged,"ax",%progbits
 319              		.align	1
 320              		.global	USBUART_ConfigAltChanged
ARM GAS  C:\Users\chemi\AppData\Local\Temp\cc21dAG8.s 			page 24


 321              		.thumb
 322              		.thumb_func
 323              		.type	USBUART_ConfigAltChanged, %function
 324              	USBUART_ConfigAltChanged:
 325              	.LFB5:
 806:Generated_Source\PSoC5/USBUART_std.c ****     uint8 ep;
 326              		.loc 1 806 0
 327              		.cfi_startproc
 328              		@ args = 0, pretend = 0, frame = 0
 329              		@ frame_needed = 0, uses_anonymous_args = 0
 330 0000 2DE9F84F 		push	{r3, r4, r5, r6, r7, r8, r9, r10, fp, lr}
 331              		.cfi_def_cfa_offset 40
 332              		.cfi_offset 3, -40
 333              		.cfi_offset 4, -36
 334              		.cfi_offset 5, -32
 335              		.cfi_offset 6, -28
 336              		.cfi_offset 7, -24
 337              		.cfi_offset 8, -20
 338              		.cfi_offset 9, -16
 339              		.cfi_offset 10, -12
 340              		.cfi_offset 11, -8
 341              		.cfi_offset 14, -4
 817:Generated_Source\PSoC5/USBUART_std.c ****     {
 342              		.loc 1 817 0
 343 0004 424B     		ldr	r3, .L43
 344 0006 1A78     		ldrb	r2, [r3]	@ zero_extendqisi2
 345 0008 002A     		cmp	r2, #0
 346 000a 7ED0     		beq	.L31
 347              	.LBB7:
 348              	.LBB8:
 820:Generated_Source\PSoC5/USBUART_std.c ****         pTmp = &pTmp[1u];
 349              		.loc 1 820 0
 350 000c 1878     		ldrb	r0, [r3]	@ zero_extendqisi2
 842:Generated_Source\PSoC5/USBUART_std.c ****                 USBUART_EP[curEp].addr       = pEP->addr;
 351              		.loc 1 842 0
 352 000e 414D     		ldr	r5, .L43+4
 820:Generated_Source\PSoC5/USBUART_std.c ****         pTmp = &pTmp[1u];
 353              		.loc 1 820 0
 354 0010 0138     		subs	r0, r0, #1
 355 0012 C0B2     		uxtb	r0, r0
 356 0014 FFF7FEFF 		bl	USBUART_GetConfigTablePtr
 357              	.LVL19:
 358 0018 A846     		mov	r8, r5
 831:Generated_Source\PSoC5/USBUART_std.c ****         for (i = 0u; i < ep; i++)
 359              		.loc 1 831 0
 360 001a 3F4A     		ldr	r2, .L43+8
 825:Generated_Source\PSoC5/USBUART_std.c ****         
 361              		.loc 1 825 0
 362 001c C368     		ldr	r3, [r0, #12]
 363              	.LVL20:
 831:Generated_Source\PSoC5/USBUART_std.c ****         for (i = 0u; i < ep; i++)
 364              		.loc 1 831 0
 365 001e 1478     		ldrb	r4, [r2]	@ zero_extendqisi2
 366 0020 007A     		ldrb	r0, [r0, #8]	@ zero_extendqisi2
 367              	.LVL21:
 836:Generated_Source\PSoC5/USBUART_std.c ****             {
 368              		.loc 1 836 0
ARM GAS  C:\Users\chemi\AppData\Local\Temp\cc21dAG8.s 			page 25


 369 0022 DFF800C1 		ldr	ip, .L43+20
 831:Generated_Source\PSoC5/USBUART_std.c ****         for (i = 0u; i < ep; i++)
 370              		.loc 1 831 0
 371 0026 E4B2     		uxtb	r4, r4
 372              	.LVL22:
 373 0028 03EBC000 		add	r0, r3, r0, lsl #3
 374              	.LVL23:
 842:Generated_Source\PSoC5/USBUART_std.c ****                 USBUART_EP[curEp].addr       = pEP->addr;
 375              		.loc 1 842 0
 376 002c 0C26     		movs	r6, #12
 377 002e 0027     		movs	r7, #0
 861:Generated_Source\PSoC5/USBUART_std.c **** 
 378              		.loc 1 861 0
 379 0030 4FF0010E 		mov	lr, #1
 380              	.LVL24:
 381              	.L33:
 832:Generated_Source\PSoC5/USBUART_std.c ****         {
 382              		.loc 1 832 0
 383 0034 8342     		cmp	r3, r0
 384 0036 68D0     		beq	.L31
 835:Generated_Source\PSoC5/USBUART_std.c ****                 (USBUART_interfaceSetting[interfaceNum] == pEP->altSetting))
 385              		.loc 1 835 0
 386 0038 1A78     		ldrb	r2, [r3]	@ zero_extendqisi2
 387 003a A242     		cmp	r2, r4
 388 003c 63D1     		bne	.L34
 836:Generated_Source\PSoC5/USBUART_std.c ****             {
 389              		.loc 1 836 0
 390 003e 1CF80420 		ldrb	r2, [ip, r4]	@ zero_extendqisi2
 835:Generated_Source\PSoC5/USBUART_std.c ****                 (USBUART_interfaceSetting[interfaceNum] == pEP->altSetting))
 391              		.loc 1 835 0
 392 0042 5978     		ldrb	r1, [r3, #1]	@ zero_extendqisi2
 393 0044 9142     		cmp	r1, r2
 394 0046 5ED1     		bne	.L34
 838:Generated_Source\PSoC5/USBUART_std.c ****                 epType = ((uint8) pEP->attributes & USBUART_EP_TYPE_MASK);
 395              		.loc 1 838 0
 396 0048 9A78     		ldrb	r2, [r3, #2]	@ zero_extendqisi2
 839:Generated_Source\PSoC5/USBUART_std.c ****                 
 397              		.loc 1 839 0
 398 004a 93F80390 		ldrb	r9, [r3, #3]	@ zero_extendqisi2
 838:Generated_Source\PSoC5/USBUART_std.c ****                 epType = ((uint8) pEP->attributes & USBUART_EP_TYPE_MASK);
 399              		.loc 1 838 0
 400 004e 02F07F02 		and	r2, r2, #127
 401              	.LVL25:
 842:Generated_Source\PSoC5/USBUART_std.c ****                 USBUART_EP[curEp].addr       = pEP->addr;
 402              		.loc 1 842 0
 403 0052 06FB02FA 		mul	r10, r6, r2
 404 0056 05EB0A01 		add	r1, r5, r10
 405 005a CF70     		strb	r7, [r1, #3]
 843:Generated_Source\PSoC5/USBUART_std.c ****                 USBUART_EP[curEp].attrib     = pEP->attributes;
 406              		.loc 1 843 0
 407 005c 93F802B0 		ldrb	fp, [r3, #2]	@ zero_extendqisi2
 839:Generated_Source\PSoC5/USBUART_std.c ****                 
 408              		.loc 1 839 0
 409 0060 09F00309 		and	r9, r9, #3
 410              	.LVL26:
 843:Generated_Source\PSoC5/USBUART_std.c ****                 USBUART_EP[curEp].attrib     = pEP->attributes;
 411              		.loc 1 843 0
ARM GAS  C:\Users\chemi\AppData\Local\Temp\cc21dAG8.s 			page 26


 412 0064 81F804B0 		strb	fp, [r1, #4]
 844:Generated_Source\PSoC5/USBUART_std.c ****                 USBUART_EP[curEp].bufferSize = pEP->bufferSize;
 413              		.loc 1 844 0
 414 0068 93F803B0 		ldrb	fp, [r3, #3]	@ zero_extendqisi2
 415 006c 05F80AB0 		strb	fp, [r5, r10]
 845:Generated_Source\PSoC5/USBUART_std.c **** 
 416              		.loc 1 845 0
 417 0070 B3F804A0 		ldrh	r10, [r3, #4]
 418 0074 A1F808A0 		strh	r10, [r1, #8]	@ movhi
 847:Generated_Source\PSoC5/USBUART_std.c ****                 {
 419              		.loc 1 847 0
 420 0078 93F902A0 		ldrsb	r10, [r3, #2]
 421 007c BAF1000F 		cmp	r10, #0
 422 0080 0BDA     		bge	.L35
 850:Generated_Source\PSoC5/USBUART_std.c ****                     USBUART_EP[curEp].apiEpState = USBUART_EVENT_PENDING;
 423              		.loc 1 850 0
 424 0082 B9F1010F 		cmp	r9, #1
 425 0086 0CBF     		ite	eq
 426 0088 4FF00709 		moveq	r9, #7
 427              	.LVL27:
 428 008c 4FF00D09 		movne	r9, #13
 429 0090 81F80590 		strb	r9, [r1, #5]
 851:Generated_Source\PSoC5/USBUART_std.c ****                 }
 430              		.loc 1 851 0
 431 0094 81F801E0 		strb	lr, [r1, #1]
 432 0098 09E0     		b	.L37
 433              	.LVL28:
 434              	.L35:
 856:Generated_Source\PSoC5/USBUART_std.c ****                     USBUART_EP[curEp].apiEpState = USBUART_NO_EVENT_PENDING;
 435              		.loc 1 856 0
 436 009a B9F1010F 		cmp	r9, #1
 437 009e 0CBF     		ite	eq
 438 00a0 4FF00509 		moveq	r9, #5
 439              	.LVL29:
 440 00a4 4FF00909 		movne	r9, #9
 441 00a8 81F80590 		strb	r9, [r1, #5]
 857:Generated_Source\PSoC5/USBUART_std.c ****                 }
 442              		.loc 1 857 0
 443 00ac 4F70     		strb	r7, [r1, #1]
 444              	.L37:
 445 00ae 4FEA0219 		lsl	r9, r2, #4
 446 00b2 1A49     		ldr	r1, .L43+12
 907:Generated_Source\PSoC5/USBUART_std.c ****                 USBUART_SIE_EP_BASE.sieEp[curEp].epCnt1 = LO8(USBUART_EP[curEp].bufferSize);
 447              		.loc 1 907 0
 448 00b4 06FB0282 		mla	r2, r6, r2, r8
 449              	.LVL30:
 450 00b8 4944     		add	r1, r1, r9
 861:Generated_Source\PSoC5/USBUART_std.c **** 
 451              		.loc 1 861 0
 452 00ba 81F802E0 		strb	lr, [r1, #2]
 907:Generated_Source\PSoC5/USBUART_std.c ****                 USBUART_SIE_EP_BASE.sieEp[curEp].epCnt1 = LO8(USBUART_EP[curEp].bufferSize);
 453              		.loc 1 907 0
 454 00be B2F808A0 		ldrh	r10, [r2, #8]
 455 00c2 CAF3072A 		ubfx	r10, r10, #8, #8
 456 00c6 81F800A0 		strb	r10, [r1]
 908:Generated_Source\PSoC5/USBUART_std.c ****                 
 457              		.loc 1 908 0
ARM GAS  C:\Users\chemi\AppData\Local\Temp\cc21dAG8.s 			page 27


 458 00ca B2F808A0 		ldrh	r10, [r2, #8]
 459 00ce 5FFA8AFA 		uxtb	r10, r10
 460 00d2 81F801A0 		strb	r10, [r1, #1]
 914:Generated_Source\PSoC5/USBUART_std.c ****                     USBUART_ARB_EP_BASE.arbEp[curEp].rwRaMsb = HI8(USBUART_EP[curEp].buffOffset);
 461              		.loc 1 914 0
 462 00d6 B2F806A0 		ldrh	r10, [r2, #6]
 463 00da 1149     		ldr	r1, .L43+16
 464 00dc 5FFA8AFA 		uxtb	r10, r10
 465 00e0 4944     		add	r1, r1, r9
 466 00e2 81F806A0 		strb	r10, [r1, #6]
 915:Generated_Source\PSoC5/USBUART_std.c ****                     USBUART_ARB_EP_BASE.arbEp[curEp].rwWa    = LO8(USBUART_EP[curEp].buffOffset);
 467              		.loc 1 915 0
 468 00e6 B2F80690 		ldrh	r9, [r2, #6]
 469 00ea C9F30729 		ubfx	r9, r9, #8, #8
 470 00ee 81F80790 		strb	r9, [r1, #7]
 916:Generated_Source\PSoC5/USBUART_std.c ****                     USBUART_ARB_EP_BASE.arbEp[curEp].rwWaMsb = HI8(USBUART_EP[curEp].buffOffset);
 471              		.loc 1 916 0
 472 00f2 B2F80690 		ldrh	r9, [r2, #6]
 473 00f6 5FFA89F9 		uxtb	r9, r9
 474 00fa 81F80490 		strb	r9, [r1, #4]
 917:Generated_Source\PSoC5/USBUART_std.c ****                 #endif /* (CY_PSOC4) */                
 475              		.loc 1 917 0
 476 00fe D288     		ldrh	r2, [r2, #6]
 477 0100 C2F30722 		ubfx	r2, r2, #8, #8
 478 0104 4A71     		strb	r2, [r1, #5]
 479              	.L34:
 922:Generated_Source\PSoC5/USBUART_std.c ****         }
 480              		.loc 1 922 0
 481 0106 0833     		adds	r3, r3, #8
 482              	.LVL31:
 483 0108 94E7     		b	.L33
 484              	.LVL32:
 485              	.L31:
 486 010a BDE8F88F 		pop	{r3, r4, r5, r6, r7, r8, r9, r10, fp, pc}
 487              	.L44:
 488 010e 00BF     		.align	2
 489              	.L43:
 490 0110 00000000 		.word	USBUART_configuration
 491 0114 00000000 		.word	USBUART_EP
 492 0118 00000000 		.word	USBUART_interfaceNumber
 493 011c FC5F0040 		.word	1073766396
 494 0120 70600040 		.word	1073766512
 495 0124 00000000 		.word	USBUART_interfaceSetting
 496              	.LBE8:
 497              	.LBE7:
 498              		.cfi_endproc
 499              	.LFE5:
 500              		.size	USBUART_ConfigAltChanged, .-USBUART_ConfigAltChanged
 501              		.section	.text.USBUART_GetDeviceTablePtr,"ax",%progbits
 502              		.align	1
 503              		.global	USBUART_GetDeviceTablePtr
 504              		.thumb
 505              		.thumb_func
 506              		.type	USBUART_GetDeviceTablePtr, %function
 507              	USBUART_GetDeviceTablePtr:
 508              	.LFB7:
 968:Generated_Source\PSoC5/USBUART_std.c **** 
ARM GAS  C:\Users\chemi\AppData\Local\Temp\cc21dAG8.s 			page 28


 969:Generated_Source\PSoC5/USBUART_std.c **** 
 970:Generated_Source\PSoC5/USBUART_std.c **** #if (USBUART_BOS_ENABLE)
 971:Generated_Source\PSoC5/USBUART_std.c ****     /*******************************************************************************
 972:Generated_Source\PSoC5/USBUART_std.c ****     * Function Name: USBUART_GetBOSPtr
 973:Generated_Source\PSoC5/USBUART_std.c ****     ****************************************************************************//**
 974:Generated_Source\PSoC5/USBUART_std.c ****     *
 975:Generated_Source\PSoC5/USBUART_std.c ****     *  This routine returns a pointer a BOS table entry
 976:Generated_Source\PSoC5/USBUART_std.c ****     *
 977:Generated_Source\PSoC5/USBUART_std.c ****     *  
 978:Generated_Source\PSoC5/USBUART_std.c ****     *
 979:Generated_Source\PSoC5/USBUART_std.c ****     * \return
 980:Generated_Source\PSoC5/USBUART_std.c ****     *  BOS Descriptor pointer or NULL when descriptor does not exist.
 981:Generated_Source\PSoC5/USBUART_std.c ****     *
 982:Generated_Source\PSoC5/USBUART_std.c ****     *******************************************************************************/
 983:Generated_Source\PSoC5/USBUART_std.c ****     const T_USBUART_LUT CYCODE *USBUART_GetBOSPtr(void)
 984:Generated_Source\PSoC5/USBUART_std.c ****                                                             
 985:Generated_Source\PSoC5/USBUART_std.c ****     {
 986:Generated_Source\PSoC5/USBUART_std.c ****         /* Device Table */
 987:Generated_Source\PSoC5/USBUART_std.c ****         const T_USBUART_LUT CYCODE *pTmp;
 988:Generated_Source\PSoC5/USBUART_std.c **** 
 989:Generated_Source\PSoC5/USBUART_std.c ****         pTmp = (const T_USBUART_LUT CYCODE *) USBUART_TABLE[USBUART_device].p_list;
 990:Generated_Source\PSoC5/USBUART_std.c **** 
 991:Generated_Source\PSoC5/USBUART_std.c ****         /* The first entry points to the Device Descriptor,
 992:Generated_Source\PSoC5/USBUART_std.c ****         *  the second entry points to the BOS Descriptor
 993:Generated_Source\PSoC5/USBUART_std.c ****         */
 994:Generated_Source\PSoC5/USBUART_std.c ****         pTmp = &pTmp[1u];
 995:Generated_Source\PSoC5/USBUART_std.c ****         pTmp = (const T_USBUART_LUT CYCODE *) pTmp->p_list;
 996:Generated_Source\PSoC5/USBUART_std.c ****         return (pTmp);
 997:Generated_Source\PSoC5/USBUART_std.c ****     }
 998:Generated_Source\PSoC5/USBUART_std.c **** #endif /* (USBUART_BOS_ENABLE) */
 999:Generated_Source\PSoC5/USBUART_std.c **** 
1000:Generated_Source\PSoC5/USBUART_std.c **** 
1001:Generated_Source\PSoC5/USBUART_std.c **** /*******************************************************************************
1002:Generated_Source\PSoC5/USBUART_std.c **** * Function Name: USBUART_GetDeviceTablePtr
1003:Generated_Source\PSoC5/USBUART_std.c **** ****************************************************************************//**
1004:Generated_Source\PSoC5/USBUART_std.c **** *
1005:Generated_Source\PSoC5/USBUART_std.c **** *  This routine returns a pointer to the Device table
1006:Generated_Source\PSoC5/USBUART_std.c **** *
1007:Generated_Source\PSoC5/USBUART_std.c **** * \return
1008:Generated_Source\PSoC5/USBUART_std.c **** *  Device Table pointer
1009:Generated_Source\PSoC5/USBUART_std.c **** *
1010:Generated_Source\PSoC5/USBUART_std.c **** *******************************************************************************/
1011:Generated_Source\PSoC5/USBUART_std.c **** const T_USBUART_LUT CYCODE *USBUART_GetDeviceTablePtr(void)
1012:Generated_Source\PSoC5/USBUART_std.c ****                                                             
1013:Generated_Source\PSoC5/USBUART_std.c **** {
 509              		.loc 1 1013 0
 510              		.cfi_startproc
 511              		@ args = 0, pretend = 0, frame = 0
 512              		@ frame_needed = 0, uses_anonymous_args = 0
 513              		@ link register save eliminated.
1014:Generated_Source\PSoC5/USBUART_std.c ****     /* Device Table */
1015:Generated_Source\PSoC5/USBUART_std.c ****     return( (const T_USBUART_LUT CYCODE *) USBUART_TABLE[USBUART_device].p_list );
 514              		.loc 1 1015 0
 515 0000 034B     		ldr	r3, .L46
 516 0002 1A78     		ldrb	r2, [r3]	@ zero_extendqisi2
 517 0004 034B     		ldr	r3, .L46+4
 518 0006 03EBC203 		add	r3, r3, r2, lsl #3
ARM GAS  C:\Users\chemi\AppData\Local\Temp\cc21dAG8.s 			page 29


1016:Generated_Source\PSoC5/USBUART_std.c **** }
 519              		.loc 1 1016 0
 520 000a 5868     		ldr	r0, [r3, #4]
 521 000c 7047     		bx	lr
 522              	.L47:
 523 000e 00BF     		.align	2
 524              	.L46:
 525 0010 00000000 		.word	USBUART_device
 526 0014 00000000 		.word	USBUART_TABLE
 527              		.cfi_endproc
 528              	.LFE7:
 529              		.size	USBUART_GetDeviceTablePtr, .-USBUART_GetDeviceTablePtr
 530              		.section	.text.USBUART_GetInterfaceClassTablePtr,"ax",%progbits
 531              		.align	1
 532              		.global	USBUART_GetInterfaceClassTablePtr
 533              		.thumb
 534              		.thumb_func
 535              		.type	USBUART_GetInterfaceClassTablePtr, %function
 536              	USBUART_GetInterfaceClassTablePtr:
 537              	.LFB8:
1017:Generated_Source\PSoC5/USBUART_std.c **** 
1018:Generated_Source\PSoC5/USBUART_std.c **** 
1019:Generated_Source\PSoC5/USBUART_std.c **** /*******************************************************************************
1020:Generated_Source\PSoC5/USBUART_std.c **** * Function Name: USB_GetInterfaceClassTablePtr
1021:Generated_Source\PSoC5/USBUART_std.c **** ****************************************************************************//**
1022:Generated_Source\PSoC5/USBUART_std.c **** *
1023:Generated_Source\PSoC5/USBUART_std.c **** *  This routine returns Interface Class table pointer, which contains
1024:Generated_Source\PSoC5/USBUART_std.c **** *  the relation between interface number and interface class.
1025:Generated_Source\PSoC5/USBUART_std.c **** *
1026:Generated_Source\PSoC5/USBUART_std.c **** * \return
1027:Generated_Source\PSoC5/USBUART_std.c **** *  Interface Class table pointer.
1028:Generated_Source\PSoC5/USBUART_std.c **** *
1029:Generated_Source\PSoC5/USBUART_std.c **** *******************************************************************************/
1030:Generated_Source\PSoC5/USBUART_std.c **** const uint8 CYCODE *USBUART_GetInterfaceClassTablePtr(void)
1031:Generated_Source\PSoC5/USBUART_std.c ****                                                         
1032:Generated_Source\PSoC5/USBUART_std.c **** {
 538              		.loc 1 1032 0
 539              		.cfi_startproc
 540              		@ args = 0, pretend = 0, frame = 0
 541              		@ frame_needed = 0, uses_anonymous_args = 0
 542 0000 08B5     		push	{r3, lr}
 543              		.cfi_def_cfa_offset 8
 544              		.cfi_offset 3, -8
 545              		.cfi_offset 14, -4
1033:Generated_Source\PSoC5/USBUART_std.c ****     const T_USBUART_LUT CYCODE *pTmp;
1034:Generated_Source\PSoC5/USBUART_std.c ****     const uint8 CYCODE *pInterfaceClass;
1035:Generated_Source\PSoC5/USBUART_std.c ****     uint8 currentInterfacesNum;
1036:Generated_Source\PSoC5/USBUART_std.c **** 
1037:Generated_Source\PSoC5/USBUART_std.c ****     pTmp = USBUART_GetConfigTablePtr(USBUART_configuration - 1u);
 546              		.loc 1 1037 0
 547 0002 064B     		ldr	r3, .L51
 548 0004 1878     		ldrb	r0, [r3]	@ zero_extendqisi2
 549 0006 0138     		subs	r0, r0, #1
 550 0008 C0B2     		uxtb	r0, r0
 551 000a FFF7FEFF 		bl	USBUART_GetConfigTablePtr
 552              	.LVL33:
1038:Generated_Source\PSoC5/USBUART_std.c ****     if (pTmp != NULL)
ARM GAS  C:\Users\chemi\AppData\Local\Temp\cc21dAG8.s 			page 30


 553              		.loc 1 1038 0
 554 000e 20B1     		cbz	r0, .L49
 555              	.LVL34:
1039:Generated_Source\PSoC5/USBUART_std.c ****     {
1040:Generated_Source\PSoC5/USBUART_std.c ****         currentInterfacesNum  = ((const uint8 *) pTmp->p_list)[USBUART_CONFIG_DESCR_NUM_INTERFACES]
 556              		.loc 1 1040 0
 557 0010 4368     		ldr	r3, [r0, #4]
1041:Generated_Source\PSoC5/USBUART_std.c ****         /* Third entry in the LUT starts the Interface Table pointers */
1042:Generated_Source\PSoC5/USBUART_std.c ****         /* The INTERFACE_CLASS table is located after all interfaces */
1043:Generated_Source\PSoC5/USBUART_std.c ****         pTmp = &pTmp[currentInterfacesNum + 2u];
 558              		.loc 1 1043 0
 559 0012 1B79     		ldrb	r3, [r3, #4]	@ zero_extendqisi2
 560              	.LVL35:
1044:Generated_Source\PSoC5/USBUART_std.c ****         pInterfaceClass = (const uint8 CYCODE *) pTmp->p_list;
 561              		.loc 1 1044 0
 562 0014 00EBC300 		add	r0, r0, r3, lsl #3
 563              	.LVL36:
 564 0018 4069     		ldr	r0, [r0, #20]
 565              	.LVL37:
 566              	.L49:
1045:Generated_Source\PSoC5/USBUART_std.c ****     }
1046:Generated_Source\PSoC5/USBUART_std.c ****     else
1047:Generated_Source\PSoC5/USBUART_std.c ****     {
1048:Generated_Source\PSoC5/USBUART_std.c ****         pInterfaceClass = (const uint8 CYCODE *) NULL;
1049:Generated_Source\PSoC5/USBUART_std.c ****     }
1050:Generated_Source\PSoC5/USBUART_std.c **** 
1051:Generated_Source\PSoC5/USBUART_std.c ****     return (pInterfaceClass);
1052:Generated_Source\PSoC5/USBUART_std.c **** }
 567              		.loc 1 1052 0
 568 001a 08BD     		pop	{r3, pc}
 569              	.L52:
 570              		.align	2
 571              	.L51:
 572 001c 00000000 		.word	USBUART_configuration
 573              		.cfi_endproc
 574              	.LFE8:
 575              		.size	USBUART_GetInterfaceClassTablePtr, .-USBUART_GetInterfaceClassTablePtr
 576              		.section	.text.USBUART_Config,"ax",%progbits
 577              		.align	1
 578              		.global	USBUART_Config
 579              		.thumb
 580              		.thumb_func
 581              		.type	USBUART_Config, %function
 582              	USBUART_Config:
 583              	.LFB4:
 571:Generated_Source\PSoC5/USBUART_std.c ****     uint8 ep;
 584              		.loc 1 571 0
 585              		.cfi_startproc
 586              		@ args = 0, pretend = 0, frame = 8
 587              		@ frame_needed = 0, uses_anonymous_args = 0
 588              	.LVL38:
 589 0000 2DE9F74F 		push	{r0, r1, r2, r4, r5, r6, r7, r8, r9, r10, fp, lr}
 590              		.cfi_def_cfa_offset 48
 591              		.cfi_offset 4, -36
 592              		.cfi_offset 5, -32
 593              		.cfi_offset 6, -28
 594              		.cfi_offset 7, -24
ARM GAS  C:\Users\chemi\AppData\Local\Temp\cc21dAG8.s 			page 31


 595              		.cfi_offset 8, -20
 596              		.cfi_offset 9, -16
 597              		.cfi_offset 10, -12
 598              		.cfi_offset 11, -8
 599              		.cfi_offset 14, -4
 571:Generated_Source\PSoC5/USBUART_std.c ****     uint8 ep;
 600              		.loc 1 571 0
 601 0004 0021     		movs	r1, #0
 588:Generated_Source\PSoC5/USBUART_std.c ****         USBUART_EP[ep].hwEpState  = 0u;
 602              		.loc 1 588 0
 603 0006 0B46     		mov	r3, r1
 604 0008 544E     		ldr	r6, .L83
 605 000a 0C27     		movs	r7, #12
 606              	.LVL39:
 607              	.L54:
 588:Generated_Source\PSoC5/USBUART_std.c ****         USBUART_EP[ep].hwEpState  = 0u;
 608              		.loc 1 588 0 is_stmt 0 discriminator 3
 609 000c 07FB01F5 		mul	r5, r7, r1
 610 0010 0131     		adds	r1, r1, #1
 611              	.LVL40:
 612 0012 7219     		adds	r2, r6, r5
 586:Generated_Source\PSoC5/USBUART_std.c ****     {
 613              		.loc 1 586 0 is_stmt 1 discriminator 3
 614 0014 0929     		cmp	r1, #9
 588:Generated_Source\PSoC5/USBUART_std.c ****         USBUART_EP[ep].hwEpState  = 0u;
 615              		.loc 1 588 0 discriminator 3
 616 0016 7355     		strb	r3, [r6, r5]
 617 0018 4FF00004 		mov	r4, #0
 589:Generated_Source\PSoC5/USBUART_std.c ****         USBUART_EP[ep].epToggle   = 0u;
 618              		.loc 1 589 0 discriminator 3
 619 001c 9370     		strb	r3, [r2, #2]
 620 001e DFF83C91 		ldr	r9, .L83
 590:Generated_Source\PSoC5/USBUART_std.c ****         USBUART_EP[ep].bufferSize = 0u;
 621              		.loc 1 590 0 discriminator 3
 622 0022 D370     		strb	r3, [r2, #3]
 591:Generated_Source\PSoC5/USBUART_std.c ****         USBUART_EP[ep].interface  = 0u;
 623              		.loc 1 591 0 discriminator 3
 624 0024 1381     		strh	r3, [r2, #8]	@ movhi
 592:Generated_Source\PSoC5/USBUART_std.c ****         USBUART_EP[ep].apiEpState = USBUART_NO_EVENT_PENDING;
 625              		.loc 1 592 0 discriminator 3
 626 0026 9372     		strb	r3, [r2, #10]
 593:Generated_Source\PSoC5/USBUART_std.c ****         USBUART_EP[ep].epMode     = USBUART_MODE_DISABLE;   
 627              		.loc 1 593 0 discriminator 3
 628 0028 5370     		strb	r3, [r2, #1]
 594:Generated_Source\PSoC5/USBUART_std.c ****     }
 629              		.loc 1 594 0 discriminator 3
 630 002a 5371     		strb	r3, [r2, #5]
 586:Generated_Source\PSoC5/USBUART_std.c ****     {
 631              		.loc 1 586 0 discriminator 3
 632 002c EED1     		bne	.L54
 598:Generated_Source\PSoC5/USBUART_std.c ****     {
 633              		.loc 1 598 0
 634 002e 28B1     		cbz	r0, .L55
 635              	.LVL41:
 602:Generated_Source\PSoC5/USBUART_std.c ****             USBUART_interfaceSettingLast[i] = 0u;
 636              		.loc 1 602 0 discriminator 1
 637 0030 4B4A     		ldr	r2, .L83+4
ARM GAS  C:\Users\chemi\AppData\Local\Temp\cc21dAG8.s 			page 32


 603:Generated_Source\PSoC5/USBUART_std.c ****         }
 638              		.loc 1 603 0 discriminator 1
 639 0032 4C4B     		ldr	r3, .L83+8
 602:Generated_Source\PSoC5/USBUART_std.c ****             USBUART_interfaceSettingLast[i] = 0u;
 640              		.loc 1 602 0 discriminator 1
 641 0034 1470     		strb	r4, [r2]
 603:Generated_Source\PSoC5/USBUART_std.c ****         }
 642              		.loc 1 603 0 discriminator 1
 643 0036 1C70     		strb	r4, [r3]
 644              	.LVL42:
 602:Generated_Source\PSoC5/USBUART_std.c ****             USBUART_interfaceSettingLast[i] = 0u;
 645              		.loc 1 602 0 discriminator 1
 646 0038 5470     		strb	r4, [r2, #1]
 603:Generated_Source\PSoC5/USBUART_std.c ****         }
 647              		.loc 1 603 0 discriminator 1
 648 003a 5C70     		strb	r4, [r3, #1]
 649              	.LVL43:
 650              	.L55:
 608:Generated_Source\PSoC5/USBUART_std.c ****     {
 651              		.loc 1 608 0
 652 003c 4A4B     		ldr	r3, .L83+12
 653 003e 1A78     		ldrb	r2, [r3]	@ zero_extendqisi2
 654 0040 002A     		cmp	r2, #0
 655 0042 00F08880 		beq	.L53
 656              	.LVL44:
 657              	.LBB12:
 658              	.LBB13:
 659              	.LBB14:
 614:Generated_Source\PSoC5/USBUART_std.c ****         
 660              		.loc 1 614 0
 661 0046 1878     		ldrb	r0, [r3]	@ zero_extendqisi2
 662              	.LVL45:
 629:Generated_Source\PSoC5/USBUART_std.c **** 
 663              		.loc 1 629 0
 664 0048 0127     		movs	r7, #1
 614:Generated_Source\PSoC5/USBUART_std.c ****         
 665              		.loc 1 614 0
 666 004a 0138     		subs	r0, r0, #1
 667 004c C0B2     		uxtb	r0, r0
 668 004e FFF7FEFF 		bl	USBUART_GetConfigTablePtr
 669              	.LVL46:
 670 0052 8046     		mov	r8, r0
 671              	.LVL47:
 618:Generated_Source\PSoC5/USBUART_std.c ****         {
 672              		.loc 1 618 0
 673 0054 4368     		ldr	r3, [r0, #4]
 674 0056 057A     		ldrb	r5, [r0, #8]	@ zero_extendqisi2
 675 0058 DB79     		ldrb	r3, [r3, #7]	@ zero_extendqisi2
 676 005a ED00     		lsls	r5, r5, #3
 677 005c 13F0400F 		tst	r3, #64
 678 0060 424B     		ldr	r3, .L83+16
 611:Generated_Source\PSoC5/USBUART_std.c ****         #endif  /* (USBUART_ENABLE_CDC_CLASS) */  
 679              		.loc 1 611 0
 680 0062 4FF0000C 		mov	ip, #0
 620:Generated_Source\PSoC5/USBUART_std.c ****         }
 681              		.loc 1 620 0
 682 0066 1A78     		ldrb	r2, [r3]	@ zero_extendqisi2
ARM GAS  C:\Users\chemi\AppData\Local\Temp\cc21dAG8.s 			page 33


 699:Generated_Source\PSoC5/USBUART_std.c ****                         {
 683              		.loc 1 699 0
 684 0068 4FF00C0A 		mov	r10, #12
 620:Generated_Source\PSoC5/USBUART_std.c ****         }
 685              		.loc 1 620 0
 686 006c 14BF     		ite	ne
 687 006e 42F00102 		orrne	r2, r2, #1
 624:Generated_Source\PSoC5/USBUART_std.c ****         }
 688              		.loc 1 624 0
 689 0072 02F0FE02 		andeq	r2, r2, #254
 690 0076 1A70     		strb	r2, [r3]
 691              	.LVL48:
 692              	.L67:
 699:Generated_Source\PSoC5/USBUART_std.c ****                         {
 693              		.loc 1 699 0
 694 0078 0AFB0796 		mla	r6, r10, r7, r9
 690:Generated_Source\PSoC5/USBUART_std.c ****                 /* Find max length for each EP and select it (length could be different in differen
 695              		.loc 1 690 0
 696 007c D8F80C40 		ldr	r4, [r8, #12]
 697 0080 FBB2     		uxtb	r3, r7
 698              	.LVL49:
 699 0082 04EB050B 		add	fp, r4, r5
 700              	.LVL50:
 701              	.L59:
 694:Generated_Source\PSoC5/USBUART_std.c ****                 {
 702              		.loc 1 694 0
 703 0086 5C45     		cmp	r4, fp
 704 0088 3AD0     		beq	.L81
 696:Generated_Source\PSoC5/USBUART_std.c ****                     {
 705              		.loc 1 696 0
 706 008a A078     		ldrb	r0, [r4, #2]	@ zero_extendqisi2
 707 008c 00F07F01 		and	r1, r0, #127
 708 0090 B942     		cmp	r1, r7
 709 0092 33D1     		bne	.L60
 699:Generated_Source\PSoC5/USBUART_std.c ****                         {
 710              		.loc 1 699 0
 711 0094 3189     		ldrh	r1, [r6, #8]
 712 0096 B4F804E0 		ldrh	lr, [r4, #4]
 713 009a 89B2     		uxth	r1, r1
 714 009c 7145     		cmp	r1, lr
 701:Generated_Source\PSoC5/USBUART_std.c ****                         }
 715              		.loc 1 701 0
 716 009e 38BF     		it	cc
 717 00a0 A6F808E0 		strhcc	lr, [r6, #8]	@ movhi
 705:Generated_Source\PSoC5/USBUART_std.c ****                         {                            
 718              		.loc 1 705 0
 719 00a4 2178     		ldrb	r1, [r4]	@ zero_extendqisi2
 720 00a6 2E4A     		ldr	r2, .L83+4
 721 00a8 94F801E0 		ldrb	lr, [r4, #1]	@ zero_extendqisi2
 722 00ac 515C     		ldrb	r1, [r2, r1]	@ zero_extendqisi2
 723 00ae 8E45     		cmp	lr, r1
 724 00b0 24D1     		bne	.L60
 707:Generated_Source\PSoC5/USBUART_std.c ****                             USBUART_EP[i].attrib = pEP->attributes;
 725              		.loc 1 707 0
 726 00b2 3071     		strb	r0, [r6, #4]
 708:Generated_Source\PSoC5/USBUART_std.c ****                             
 727              		.loc 1 708 0
ARM GAS  C:\Users\chemi\AppData\Local\Temp\cc21dAG8.s 			page 34


 728 00b4 E178     		ldrb	r1, [r4, #3]	@ zero_extendqisi2
 729 00b6 3170     		strb	r1, [r6]
 712:Generated_Source\PSoC5/USBUART_std.c ****                             {
 730              		.loc 1 712 0
 731 00b8 94F90200 		ldrsb	r0, [r4, #2]
 710:Generated_Source\PSoC5/USBUART_std.c ****                             
 732              		.loc 1 710 0
 733 00bc E178     		ldrb	r1, [r4, #3]	@ zero_extendqisi2
 712:Generated_Source\PSoC5/USBUART_std.c ****                             {
 734              		.loc 1 712 0
 735 00be 0028     		cmp	r0, #0
 710:Generated_Source\PSoC5/USBUART_std.c ****                             
 736              		.loc 1 710 0
 737 00c0 01F00301 		and	r1, r1, #3
 738              	.LVL51:
 712:Generated_Source\PSoC5/USBUART_std.c ****                             {
 739              		.loc 1 712 0
 740 00c4 06DA     		bge	.L62
 715:Generated_Source\PSoC5/USBUART_std.c ****                                 USBUART_EP[i].apiEpState = USBUART_EVENT_PENDING;
 741              		.loc 1 715 0
 742 00c6 0129     		cmp	r1, #1
 743 00c8 0CBF     		ite	eq
 744 00ca 0721     		moveq	r1, #7
 745              	.LVL52:
 746 00cc 0D21     		movne	r1, #13
 747 00ce 7171     		strb	r1, [r6, #5]
 748              	.LVL53:
 716:Generated_Source\PSoC5/USBUART_std.c ****                                 
 749              		.loc 1 716 0
 750 00d0 0121     		movs	r1, #1
 751 00d2 05E0     		b	.L80
 752              	.LVL54:
 753              	.L62:
 728:Generated_Source\PSoC5/USBUART_std.c ****                                 USBUART_EP[i].apiEpState = USBUART_NO_EVENT_PENDING;
 754              		.loc 1 728 0
 755 00d4 0129     		cmp	r1, #1
 756 00d6 0CBF     		ite	eq
 757 00d8 0521     		moveq	r1, #5
 758              	.LVL55:
 759 00da 0921     		movne	r1, #9
 760 00dc 7171     		strb	r1, [r6, #5]
 761              	.LVL56:
 729:Generated_Source\PSoC5/USBUART_std.c ****                                 
 762              		.loc 1 729 0
 763 00de 0021     		movs	r1, #0
 764              	.L80:
 765 00e0 7170     		strb	r1, [r6, #1]
 740:Generated_Source\PSoC5/USBUART_std.c ****                             {
 766              		.loc 1 740 0
 767 00e2 A179     		ldrb	r1, [r4, #6]	@ zero_extendqisi2
 768 00e4 01F0F701 		and	r1, r1, #247
 769 00e8 0229     		cmp	r1, #2
 770 00ea 07D1     		bne	.L60
 742:Generated_Source\PSoC5/USBUART_std.c ****                             }
 771              		.loc 1 742 0
 772 00ec 6246     		mov	r2, ip
 773 00ee 1946     		mov	r1, r3
ARM GAS  C:\Users\chemi\AppData\Local\Temp\cc21dAG8.s 			page 35


 774 00f0 2046     		mov	r0, r4
 775 00f2 0193     		str	r3, [sp, #4]
 776 00f4 FFF7FEFF 		bl	USBUART_Cdc_EpInit
 777              	.LVL57:
 778 00f8 8446     		mov	ip, r0
 779 00fa 019B     		ldr	r3, [sp, #4]
 780              	.LVL58:
 781              	.L60:
 752:Generated_Source\PSoC5/USBUART_std.c ****                 }
 782              		.loc 1 752 0
 783 00fc 0834     		adds	r4, r4, #8
 784              	.LVL59:
 785 00fe C2E7     		b	.L59
 786              	.L81:
 787              	.LVL60:
 788 0100 0137     		adds	r7, r7, #1
 789              	.LVL61:
 687:Generated_Source\PSoC5/USBUART_std.c ****             {
 790              		.loc 1 687 0
 791 0102 092F     		cmp	r7, #9
 792 0104 B8D1     		bne	.L67
 762:Generated_Source\PSoC5/USBUART_std.c ****         for (i = 0u; i < ep; i++)
 793              		.loc 1 762 0
 794 0106 D8F80C20 		ldr	r2, [r8, #12]
 795              	.LVL62:
 796 010a 0A35     		adds	r5, r5, #10
 797 010c 931C     		adds	r3, r2, #2
 798 010e 1544     		add	r5, r5, r2
 766:Generated_Source\PSoC5/USBUART_std.c ****             pEP = &pEP[1u];
 799              		.loc 1 766 0
 800 0110 0C21     		movs	r1, #12
 801              	.LVL63:
 802              	.L68:
 803 0112 0833     		adds	r3, r3, #8
 804              	.LVL64:
 763:Generated_Source\PSoC5/USBUART_std.c ****         {
 805              		.loc 1 763 0
 806 0114 AB42     		cmp	r3, r5
 807 0116 09D0     		beq	.L82
 766:Generated_Source\PSoC5/USBUART_std.c ****             pEP = &pEP[1u];
 808              		.loc 1 766 0
 809 0118 13F8082C 		ldrb	r2, [r3, #-8]	@ zero_extendqisi2
 810 011c 13F80A0C 		ldrb	r0, [r3, #-10]	@ zero_extendqisi2
 811 0120 02F07F02 		and	r2, r2, #127
 812 0124 01FB0292 		mla	r2, r1, r2, r9
 813 0128 9072     		strb	r0, [r2, #10]
 814              	.LVL65:
 815 012a F2E7     		b	.L68
 816              	.LVL66:
 817              	.L82:
 771:Generated_Source\PSoC5/USBUART_std.c ****         
 818              		.loc 1 771 0
 819 012c FFF7FEFF 		bl	USBUART_GetInterfaceClassTablePtr
 820              	.LVL67:
 821 0130 0F4B     		ldr	r3, .L83+20
 822 0132 0122     		movs	r2, #1
 823 0134 1860     		str	r0, [r3]
ARM GAS  C:\Users\chemi\AppData\Local\Temp\cc21dAG8.s 			page 36


 824              	.LVL68:
 775:Generated_Source\PSoC5/USBUART_std.c ****         for (ep = USBUART_EP1; ep < USBUART_MAX_EP; ++ep)
 825              		.loc 1 775 0
 826 0136 0023     		movs	r3, #0
 778:Generated_Source\PSoC5/USBUART_std.c ****             buffCount += USBUART_EP[ep].bufferSize;
 827              		.loc 1 778 0
 828 0138 0C20     		movs	r0, #12
 829              	.LVL69:
 830              	.L70:
 831 013a 00FB0291 		mla	r1, r0, r2, r9
 832 013e CB80     		strh	r3, [r1, #6]	@ movhi
 779:Generated_Source\PSoC5/USBUART_std.c ****             
 833              		.loc 1 779 0
 834 0140 0989     		ldrh	r1, [r1, #8]
 835 0142 0132     		adds	r2, r2, #1
 836              	.LVL70:
 837 0144 0B44     		add	r3, r3, r1
 838              	.LVL71:
 776:Generated_Source\PSoC5/USBUART_std.c ****         {
 839              		.loc 1 776 0
 840 0146 092A     		cmp	r2, #9
 779:Generated_Source\PSoC5/USBUART_std.c ****             
 841              		.loc 1 779 0
 842 0148 9BB2     		uxth	r3, r3
 843              	.LVL72:
 776:Generated_Source\PSoC5/USBUART_std.c ****         {
 844              		.loc 1 776 0
 845 014a F6D1     		bne	.L70
 846              	.LBE14:
 847              	.LBE13:
 848              	.LBE12:
 791:Generated_Source\PSoC5/USBUART_std.c **** 
 849              		.loc 1 791 0
 850 014c 03B0     		add	sp, sp, #12
 851              		.cfi_remember_state
 852              		.cfi_def_cfa_offset 36
 853              		@ sp needed
 854 014e BDE8F04F 		pop	{r4, r5, r6, r7, r8, r9, r10, fp, lr}
 855              		.cfi_restore 14
 856              		.cfi_restore 11
 857              		.cfi_restore 10
 858              		.cfi_restore 9
 859              		.cfi_restore 8
 860              		.cfi_restore 7
 861              		.cfi_restore 6
 862              		.cfi_restore 5
 863              		.cfi_restore 4
 864              		.cfi_def_cfa_offset 0
 865              	.LVL73:
 866              	.LBB17:
 867              	.LBB16:
 868              	.LBB15:
 789:Generated_Source\PSoC5/USBUART_std.c ****     }
 869              		.loc 1 789 0
 870 0152 FFF7FEBF 		b	USBUART_ConfigReg
 871              	.LVL74:
 872              	.L53:
ARM GAS  C:\Users\chemi\AppData\Local\Temp\cc21dAG8.s 			page 37


 873              		.cfi_restore_state
 874              	.LBE15:
 875              	.LBE16:
 876              	.LBE17:
 791:Generated_Source\PSoC5/USBUART_std.c **** 
 877              		.loc 1 791 0
 878 0156 03B0     		add	sp, sp, #12
 879              		.cfi_def_cfa_offset 36
 880              		@ sp needed
 881 0158 BDE8F08F 		pop	{r4, r5, r6, r7, r8, r9, r10, fp, pc}
 882              	.L84:
 883              		.align	2
 884              	.L83:
 885 015c 00000000 		.word	USBUART_EP
 886 0160 00000000 		.word	USBUART_interfaceSetting
 887 0164 00000000 		.word	USBUART_interfaceSettingLast
 888 0168 00000000 		.word	USBUART_configuration
 889 016c 00000000 		.word	USBUART_deviceStatus
 890 0170 00000000 		.word	USBUART_interfaceClass
 891              		.cfi_endproc
 892              	.LFE4:
 893              		.size	USBUART_Config, .-USBUART_Config
 894              		.section	.text.USBUART_TerminateEP,"ax",%progbits
 895              		.align	1
 896              		.global	USBUART_TerminateEP
 897              		.thumb
 898              		.thumb_func
 899              		.type	USBUART_TerminateEP, %function
 900              	USBUART_TerminateEP:
 901              	.LFB9:
1053:Generated_Source\PSoC5/USBUART_std.c **** 
1054:Generated_Source\PSoC5/USBUART_std.c **** 
1055:Generated_Source\PSoC5/USBUART_std.c **** /*******************************************************************************
1056:Generated_Source\PSoC5/USBUART_std.c **** * Function Name: USBUART_TerminateEP
1057:Generated_Source\PSoC5/USBUART_std.c **** ****************************************************************************//**
1058:Generated_Source\PSoC5/USBUART_std.c **** *
1059:Generated_Source\PSoC5/USBUART_std.c **** *  This function terminates the specified USBFS endpoint.
1060:Generated_Source\PSoC5/USBUART_std.c **** *  This function should be used before endpoint reconfiguration.
1061:Generated_Source\PSoC5/USBUART_std.c **** *
1062:Generated_Source\PSoC5/USBUART_std.c **** *  \param ep Contains the data endpoint number.
1063:Generated_Source\PSoC5/USBUART_std.c **** *
1064:Generated_Source\PSoC5/USBUART_std.c **** *  \reentrant
1065:Generated_Source\PSoC5/USBUART_std.c **** *  No.
1066:Generated_Source\PSoC5/USBUART_std.c **** *
1067:Generated_Source\PSoC5/USBUART_std.c **** * \sideeffect
1068:Generated_Source\PSoC5/USBUART_std.c **** * 
1069:Generated_Source\PSoC5/USBUART_std.c **** * The device responds with a NAK for any transactions on the selected endpoint.
1070:Generated_Source\PSoC5/USBUART_std.c **** *   
1071:Generated_Source\PSoC5/USBUART_std.c **** *******************************************************************************/
1072:Generated_Source\PSoC5/USBUART_std.c **** void USBUART_TerminateEP(uint8 epNumber) 
1073:Generated_Source\PSoC5/USBUART_std.c **** {
 902              		.loc 1 1073 0
 903              		.cfi_startproc
 904              		@ args = 0, pretend = 0, frame = 0
 905              		@ frame_needed = 0, uses_anonymous_args = 0
 906              		@ link register save eliminated.
 907              	.LVL75:
ARM GAS  C:\Users\chemi\AppData\Local\Temp\cc21dAG8.s 			page 38


1074:Generated_Source\PSoC5/USBUART_std.c ****     /* Get endpoint number */
1075:Generated_Source\PSoC5/USBUART_std.c ****     epNumber &= USBUART_DIR_UNUSED;
 908              		.loc 1 1075 0
 909 0000 00F07F00 		and	r0, r0, #127
 910              	.LVL76:
1076:Generated_Source\PSoC5/USBUART_std.c **** 
1077:Generated_Source\PSoC5/USBUART_std.c ****     if ((epNumber > USBUART_EP0) && (epNumber < USBUART_MAX_EP))
 911              		.loc 1 1077 0
 912 0004 431E     		subs	r3, r0, #1
 913 0006 072B     		cmp	r3, #7
 914 0008 15D8     		bhi	.L85
1078:Generated_Source\PSoC5/USBUART_std.c ****     {
1079:Generated_Source\PSoC5/USBUART_std.c ****         /* Set the endpoint Halt */
1080:Generated_Source\PSoC5/USBUART_std.c ****         USBUART_EP[epNumber].hwEpState |= USBUART_ENDPOINT_STATUS_HALT;
 915              		.loc 1 1080 0
 916 000a 0B4B     		ldr	r3, .L88
 917 000c 0C21     		movs	r1, #12
 918 000e 01FB0033 		mla	r3, r1, r0, r3
 919 0012 9A78     		ldrb	r2, [r3, #2]	@ zero_extendqisi2
 920 0014 0001     		lsls	r0, r0, #4
 921              	.LVL77:
 922 0016 42F00102 		orr	r2, r2, #1
 923 001a 9A70     		strb	r2, [r3, #2]
1081:Generated_Source\PSoC5/USBUART_std.c **** 
1082:Generated_Source\PSoC5/USBUART_std.c ****         /* Clear the data toggle */
1083:Generated_Source\PSoC5/USBUART_std.c ****         USBUART_EP[epNumber].epToggle = 0u;
 924              		.loc 1 1083 0
 925 001c 0022     		movs	r2, #0
 926 001e DA70     		strb	r2, [r3, #3]
1084:Generated_Source\PSoC5/USBUART_std.c ****         USBUART_EP[epNumber].apiEpState = USBUART_NO_EVENT_ALLOWED;
 927              		.loc 1 1084 0
 928 0020 0222     		movs	r2, #2
 929 0022 5A70     		strb	r2, [r3, #1]
1085:Generated_Source\PSoC5/USBUART_std.c **** 
1086:Generated_Source\PSoC5/USBUART_std.c ****         if ((USBUART_EP[epNumber].addr & USBUART_DIR_IN) != 0u)
 930              		.loc 1 1086 0
 931 0024 1B79     		ldrb	r3, [r3, #4]	@ zero_extendqisi2
 932 0026 13F0800F 		tst	r3, #128
1087:Generated_Source\PSoC5/USBUART_std.c ****         {   
1088:Generated_Source\PSoC5/USBUART_std.c ****             /* IN Endpoint */
1089:Generated_Source\PSoC5/USBUART_std.c ****             USBUART_SIE_EP_BASE.sieEp[epNumber].epCr0 = USBUART_MODE_NAK_IN;
 933              		.loc 1 1089 0
 934 002a 044B     		ldr	r3, .L88+4
1086:Generated_Source\PSoC5/USBUART_std.c ****         {   
 935              		.loc 1 1086 0
 936 002c 01D0     		beq	.L87
 937              		.loc 1 1089 0
 938 002e 1954     		strb	r1, [r3, r0]
 939 0030 7047     		bx	lr
 940              	.L87:
1090:Generated_Source\PSoC5/USBUART_std.c ****         }
1091:Generated_Source\PSoC5/USBUART_std.c ****         else
1092:Generated_Source\PSoC5/USBUART_std.c ****         {
1093:Generated_Source\PSoC5/USBUART_std.c ****             /* OUT Endpoint */
1094:Generated_Source\PSoC5/USBUART_std.c ****             USBUART_SIE_EP_BASE.sieEp[epNumber].epCr0 = USBUART_MODE_NAK_OUT;
 941              		.loc 1 1094 0
 942 0032 0822     		movs	r2, #8
ARM GAS  C:\Users\chemi\AppData\Local\Temp\cc21dAG8.s 			page 39


 943 0034 1A54     		strb	r2, [r3, r0]
 944              	.L85:
 945 0036 7047     		bx	lr
 946              	.L89:
 947              		.align	2
 948              	.L88:
 949 0038 00000000 		.word	USBUART_EP
 950 003c FE5F0040 		.word	1073766398
 951              		.cfi_endproc
 952              	.LFE9:
 953              		.size	USBUART_TerminateEP, .-USBUART_TerminateEP
 954              		.section	.text.USBUART_SetEndpointHalt,"ax",%progbits
 955              		.align	1
 956              		.global	USBUART_SetEndpointHalt
 957              		.thumb
 958              		.thumb_func
 959              		.type	USBUART_SetEndpointHalt, %function
 960              	USBUART_SetEndpointHalt:
 961              	.LFB10:
1095:Generated_Source\PSoC5/USBUART_std.c ****         }
1096:Generated_Source\PSoC5/USBUART_std.c ****     }
1097:Generated_Source\PSoC5/USBUART_std.c **** }
1098:Generated_Source\PSoC5/USBUART_std.c **** 
1099:Generated_Source\PSoC5/USBUART_std.c **** 
1100:Generated_Source\PSoC5/USBUART_std.c **** /*******************************************************************************
1101:Generated_Source\PSoC5/USBUART_std.c **** * Function Name: USBUART_SetEndpointHalt
1102:Generated_Source\PSoC5/USBUART_std.c **** ****************************************************************************//**
1103:Generated_Source\PSoC5/USBUART_std.c **** *
1104:Generated_Source\PSoC5/USBUART_std.c **** *  This routine handles set endpoint halt.
1105:Generated_Source\PSoC5/USBUART_std.c **** *
1106:Generated_Source\PSoC5/USBUART_std.c **** * \return
1107:Generated_Source\PSoC5/USBUART_std.c **** *  requestHandled.
1108:Generated_Source\PSoC5/USBUART_std.c **** *
1109:Generated_Source\PSoC5/USBUART_std.c **** * \reentrant
1110:Generated_Source\PSoC5/USBUART_std.c **** *  No.
1111:Generated_Source\PSoC5/USBUART_std.c **** *
1112:Generated_Source\PSoC5/USBUART_std.c **** *******************************************************************************/
1113:Generated_Source\PSoC5/USBUART_std.c **** uint8 USBUART_SetEndpointHalt(void) 
1114:Generated_Source\PSoC5/USBUART_std.c **** {
 962              		.loc 1 1114 0
 963              		.cfi_startproc
 964              		@ args = 0, pretend = 0, frame = 0
 965              		@ frame_needed = 0, uses_anonymous_args = 0
 966              		@ link register save eliminated.
 967              	.LVL78:
1115:Generated_Source\PSoC5/USBUART_std.c ****     uint8 requestHandled = USBUART_FALSE;
1116:Generated_Source\PSoC5/USBUART_std.c ****     uint8 ep;
1117:Generated_Source\PSoC5/USBUART_std.c ****     
1118:Generated_Source\PSoC5/USBUART_std.c ****     /* Set endpoint halt */
1119:Generated_Source\PSoC5/USBUART_std.c ****     ep = USBUART_wIndexLoReg & USBUART_DIR_UNUSED;
 968              		.loc 1 1119 0
 969 0000 114B     		ldr	r3, .L95
 970 0002 1B79     		ldrb	r3, [r3, #4]	@ zero_extendqisi2
 971 0004 03F07F03 		and	r3, r3, #127
 972              	.LVL79:
1120:Generated_Source\PSoC5/USBUART_std.c **** 
1121:Generated_Source\PSoC5/USBUART_std.c ****     if ((ep > USBUART_EP0) && (ep < USBUART_MAX_EP))
ARM GAS  C:\Users\chemi\AppData\Local\Temp\cc21dAG8.s 			page 40


 973              		.loc 1 1121 0
 974 0008 5A1E     		subs	r2, r3, #1
 975 000a 072A     		cmp	r2, #7
 976 000c 19D8     		bhi	.L91
1122:Generated_Source\PSoC5/USBUART_std.c ****     {
1123:Generated_Source\PSoC5/USBUART_std.c ****         /* Set the endpoint Halt */
1124:Generated_Source\PSoC5/USBUART_std.c ****         USBUART_EP[ep].hwEpState |= (USBUART_ENDPOINT_STATUS_HALT);
 977              		.loc 1 1124 0
 978 000e 0F49     		ldr	r1, .L95+4
 979 0010 0C22     		movs	r2, #12
 980 0012 02FB0312 		mla	r2, r2, r3, r1
 981 0016 9178     		ldrb	r1, [r2, #2]	@ zero_extendqisi2
 982 0018 1B01     		lsls	r3, r3, #4
 983              	.LVL80:
 984 001a 41F00101 		orr	r1, r1, #1
 985 001e 9170     		strb	r1, [r2, #2]
1125:Generated_Source\PSoC5/USBUART_std.c **** 
1126:Generated_Source\PSoC5/USBUART_std.c ****         /* Clear the data toggle */
1127:Generated_Source\PSoC5/USBUART_std.c ****         USBUART_EP[ep].epToggle = 0u;
 986              		.loc 1 1127 0
 987 0020 0021     		movs	r1, #0
 988 0022 D170     		strb	r1, [r2, #3]
1128:Generated_Source\PSoC5/USBUART_std.c ****         USBUART_EP[ep].apiEpState |= USBUART_NO_EVENT_ALLOWED;
 989              		.loc 1 1128 0
 990 0024 5178     		ldrb	r1, [r2, #1]	@ zero_extendqisi2
 991 0026 41F00201 		orr	r1, r1, #2
 992 002a 5170     		strb	r1, [r2, #1]
1129:Generated_Source\PSoC5/USBUART_std.c **** 
1130:Generated_Source\PSoC5/USBUART_std.c ****         if ((USBUART_EP[ep].addr & USBUART_DIR_IN) != 0u)
 993              		.loc 1 1130 0
 994 002c 1279     		ldrb	r2, [r2, #4]	@ zero_extendqisi2
 995 002e 12F0800F 		tst	r2, #128
1131:Generated_Source\PSoC5/USBUART_std.c ****         {
1132:Generated_Source\PSoC5/USBUART_std.c ****             /* IN Endpoint */
1133:Generated_Source\PSoC5/USBUART_std.c ****             USBUART_SIE_EP_BASE.sieEp[ep].epCr0 = (USBUART_MODE_STALL_DATA_EP | 
 996              		.loc 1 1133 0
 997 0032 074A     		ldr	r2, .L95+8
 998 0034 1A44     		add	r2, r2, r3
 999 0036 14BF     		ite	ne
 1000 0038 8D23     		movne	r3, #141
1134:Generated_Source\PSoC5/USBUART_std.c ****                                                             USBUART_MODE_ACK_IN);
1135:Generated_Source\PSoC5/USBUART_std.c ****         }
1136:Generated_Source\PSoC5/USBUART_std.c ****         else
1137:Generated_Source\PSoC5/USBUART_std.c ****         {
1138:Generated_Source\PSoC5/USBUART_std.c ****             /* OUT Endpoint */
1139:Generated_Source\PSoC5/USBUART_std.c ****             USBUART_SIE_EP_BASE.sieEp[ep].epCr0 = (USBUART_MODE_STALL_DATA_EP | 
 1001              		.loc 1 1139 0
 1002 003a 8923     		moveq	r3, #137
 1003 003c 9370     		strb	r3, [r2, #2]
1140:Generated_Source\PSoC5/USBUART_std.c ****                                                             USBUART_MODE_ACK_OUT);
1141:Generated_Source\PSoC5/USBUART_std.c ****         }
1142:Generated_Source\PSoC5/USBUART_std.c ****         requestHandled = USBUART_InitNoDataControlTransfer();
 1004              		.loc 1 1142 0
 1005 003e FFF7FEBF 		b	USBUART_InitNoDataControlTransfer
 1006              	.LVL81:
 1007              	.L91:
1143:Generated_Source\PSoC5/USBUART_std.c ****     }
ARM GAS  C:\Users\chemi\AppData\Local\Temp\cc21dAG8.s 			page 41


1144:Generated_Source\PSoC5/USBUART_std.c **** 
1145:Generated_Source\PSoC5/USBUART_std.c ****     return (requestHandled);
1146:Generated_Source\PSoC5/USBUART_std.c **** }
 1008              		.loc 1 1146 0
 1009 0042 0020     		movs	r0, #0
 1010 0044 7047     		bx	lr
 1011              	.L96:
 1012 0046 00BF     		.align	2
 1013              	.L95:
 1014 0048 00600040 		.word	1073766400
 1015 004c 00000000 		.word	USBUART_EP
 1016 0050 FC5F0040 		.word	1073766396
 1017              		.cfi_endproc
 1018              	.LFE10:
 1019              		.size	USBUART_SetEndpointHalt, .-USBUART_SetEndpointHalt
 1020              		.section	.text.USBUART_ClearEndpointHalt,"ax",%progbits
 1021              		.align	1
 1022              		.global	USBUART_ClearEndpointHalt
 1023              		.thumb
 1024              		.thumb_func
 1025              		.type	USBUART_ClearEndpointHalt, %function
 1026              	USBUART_ClearEndpointHalt:
 1027              	.LFB11:
1147:Generated_Source\PSoC5/USBUART_std.c **** 
1148:Generated_Source\PSoC5/USBUART_std.c **** 
1149:Generated_Source\PSoC5/USBUART_std.c **** /*******************************************************************************
1150:Generated_Source\PSoC5/USBUART_std.c **** * Function Name: USBUART_ClearEndpointHalt
1151:Generated_Source\PSoC5/USBUART_std.c **** ****************************************************************************//**
1152:Generated_Source\PSoC5/USBUART_std.c **** *
1153:Generated_Source\PSoC5/USBUART_std.c **** *  This routine handles clear endpoint halt.
1154:Generated_Source\PSoC5/USBUART_std.c **** *
1155:Generated_Source\PSoC5/USBUART_std.c **** * \return
1156:Generated_Source\PSoC5/USBUART_std.c **** *  requestHandled.
1157:Generated_Source\PSoC5/USBUART_std.c **** *
1158:Generated_Source\PSoC5/USBUART_std.c **** * \reentrant
1159:Generated_Source\PSoC5/USBUART_std.c **** *  No.
1160:Generated_Source\PSoC5/USBUART_std.c **** *
1161:Generated_Source\PSoC5/USBUART_std.c **** *******************************************************************************/
1162:Generated_Source\PSoC5/USBUART_std.c **** uint8 USBUART_ClearEndpointHalt(void) 
1163:Generated_Source\PSoC5/USBUART_std.c **** {
 1028              		.loc 1 1163 0
 1029              		.cfi_startproc
 1030              		@ args = 0, pretend = 0, frame = 0
 1031              		@ frame_needed = 0, uses_anonymous_args = 0
 1032              		@ link register save eliminated.
 1033              	.LVL82:
 1034 0000 30B4     		push	{r4, r5}
 1035              		.cfi_def_cfa_offset 8
 1036              		.cfi_offset 4, -8
 1037              		.cfi_offset 5, -4
1164:Generated_Source\PSoC5/USBUART_std.c ****     uint8 requestHandled = USBUART_FALSE;
1165:Generated_Source\PSoC5/USBUART_std.c ****     uint8 ep;
1166:Generated_Source\PSoC5/USBUART_std.c **** 
1167:Generated_Source\PSoC5/USBUART_std.c ****     /* Clear endpoint halt */
1168:Generated_Source\PSoC5/USBUART_std.c ****     ep = USBUART_wIndexLoReg & USBUART_DIR_UNUSED;
 1038              		.loc 1 1168 0
 1039 0002 194B     		ldr	r3, .L104
ARM GAS  C:\Users\chemi\AppData\Local\Temp\cc21dAG8.s 			page 42


 1040 0004 1A79     		ldrb	r2, [r3, #4]	@ zero_extendqisi2
 1041 0006 02F07F02 		and	r2, r2, #127
 1042              	.LVL83:
1169:Generated_Source\PSoC5/USBUART_std.c **** 
1170:Generated_Source\PSoC5/USBUART_std.c ****     if ((ep > USBUART_EP0) && (ep < USBUART_MAX_EP))
 1043              		.loc 1 1170 0
 1044 000a 531E     		subs	r3, r2, #1
 1045 000c 072B     		cmp	r3, #7
 1046 000e 27D8     		bhi	.L98
1171:Generated_Source\PSoC5/USBUART_std.c ****     {
1172:Generated_Source\PSoC5/USBUART_std.c ****         /* Clear the endpoint Halt */
1173:Generated_Source\PSoC5/USBUART_std.c ****         USBUART_EP[ep].hwEpState &= (uint8) ~USBUART_ENDPOINT_STATUS_HALT;
 1047              		.loc 1 1173 0
 1048 0010 164B     		ldr	r3, .L104+4
 1049 0012 0C24     		movs	r4, #12
 1050 0014 04FB0233 		mla	r3, r4, r2, r3
 1051 0018 9978     		ldrb	r1, [r3, #2]	@ zero_extendqisi2
 1052 001a 154D     		ldr	r5, .L104+8
 1053 001c 01F0FE01 		and	r1, r1, #254
 1054 0020 9970     		strb	r1, [r3, #2]
1174:Generated_Source\PSoC5/USBUART_std.c **** 
1175:Generated_Source\PSoC5/USBUART_std.c ****         /* Clear the data toggle */
1176:Generated_Source\PSoC5/USBUART_std.c ****         USBUART_EP[ep].epToggle = 0u;
 1055              		.loc 1 1176 0
 1056 0022 0021     		movs	r1, #0
 1057 0024 D970     		strb	r1, [r3, #3]
 1058 0026 2946     		mov	r1, r5
 1059 0028 1201     		lsls	r2, r2, #4
 1060              	.LVL84:
1177:Generated_Source\PSoC5/USBUART_std.c ****         
1178:Generated_Source\PSoC5/USBUART_std.c ****         /* Clear toggle bit for already armed packet */
1179:Generated_Source\PSoC5/USBUART_std.c ****         USBUART_SIE_EP_BASE.sieEp[ep].epCnt0 &= (uint8) ~(uint8)USBUART_EPX_CNT_DATA_TOGGLE;
 1061              		.loc 1 1179 0
 1062 002a 505D     		ldrb	r0, [r2, r5]	@ zero_extendqisi2
 1063 002c 1144     		add	r1, r1, r2
 1064 002e 00F07F00 		and	r0, r0, #127
 1065 0032 5055     		strb	r0, [r2, r5]
1180:Generated_Source\PSoC5/USBUART_std.c ****         
1181:Generated_Source\PSoC5/USBUART_std.c ****         /* Return API State as it was defined before */
1182:Generated_Source\PSoC5/USBUART_std.c ****         USBUART_EP[ep].apiEpState &= (uint8) ~USBUART_NO_EVENT_ALLOWED;
 1066              		.loc 1 1182 0
 1067 0034 5A78     		ldrb	r2, [r3, #1]	@ zero_extendqisi2
 1068 0036 02F0FD02 		and	r2, r2, #253
 1069 003a 5A70     		strb	r2, [r3, #1]
1183:Generated_Source\PSoC5/USBUART_std.c **** 
1184:Generated_Source\PSoC5/USBUART_std.c ****         if ((USBUART_EP[ep].addr & USBUART_DIR_IN) != 0u)
 1070              		.loc 1 1184 0
 1071 003c 1A79     		ldrb	r2, [r3, #4]	@ zero_extendqisi2
1185:Generated_Source\PSoC5/USBUART_std.c ****         {
1186:Generated_Source\PSoC5/USBUART_std.c ****             /* IN Endpoint */
1187:Generated_Source\PSoC5/USBUART_std.c ****             if(USBUART_EP[ep].apiEpState == USBUART_IN_BUFFER_EMPTY)
 1072              		.loc 1 1187 0
 1073 003e 5B78     		ldrb	r3, [r3, #1]	@ zero_extendqisi2
1184:Generated_Source\PSoC5/USBUART_std.c ****         {
 1074              		.loc 1 1184 0
 1075 0040 1206     		lsls	r2, r2, #24
 1076 0042 05D5     		bpl	.L99
ARM GAS  C:\Users\chemi\AppData\Local\Temp\cc21dAG8.s 			page 43


 1077              		.loc 1 1187 0
 1078 0044 012B     		cmp	r3, #1
 1079 0046 01D1     		bne	.L100
1188:Generated_Source\PSoC5/USBUART_std.c ****             {       
1189:Generated_Source\PSoC5/USBUART_std.c ****                 /* Wait for next packet from application */
1190:Generated_Source\PSoC5/USBUART_std.c ****                 USBUART_SIE_EP_BASE.sieEp[ep].epCr0 = USBUART_MODE_NAK_IN;
 1080              		.loc 1 1190 0
 1081 0048 8C70     		strb	r4, [r1, #2]
 1082 004a 06E0     		b	.L101
 1083              	.L100:
1191:Generated_Source\PSoC5/USBUART_std.c ****             }
1192:Generated_Source\PSoC5/USBUART_std.c ****             else    /* Continue armed transfer */
1193:Generated_Source\PSoC5/USBUART_std.c ****             {
1194:Generated_Source\PSoC5/USBUART_std.c ****                 USBUART_SIE_EP_BASE.sieEp[ep].epCr0 = USBUART_MODE_ACK_IN;
 1084              		.loc 1 1194 0
 1085 004c 0D23     		movs	r3, #13
 1086 004e 03E0     		b	.L103
 1087              	.L99:
1195:Generated_Source\PSoC5/USBUART_std.c ****             }
1196:Generated_Source\PSoC5/USBUART_std.c ****         }
1197:Generated_Source\PSoC5/USBUART_std.c ****         else
1198:Generated_Source\PSoC5/USBUART_std.c ****         {
1199:Generated_Source\PSoC5/USBUART_std.c ****             /* OUT Endpoint */
1200:Generated_Source\PSoC5/USBUART_std.c ****             if (USBUART_EP[ep].apiEpState == USBUART_OUT_BUFFER_FULL)
 1088              		.loc 1 1200 0
 1089 0050 012B     		cmp	r3, #1
1201:Generated_Source\PSoC5/USBUART_std.c ****             {       
1202:Generated_Source\PSoC5/USBUART_std.c ****                 /* Allow application to read full buffer */
1203:Generated_Source\PSoC5/USBUART_std.c ****                 USBUART_SIE_EP_BASE.sieEp[ep].epCr0 = USBUART_MODE_NAK_OUT;
 1090              		.loc 1 1203 0
 1091 0052 0CBF     		ite	eq
 1092 0054 0823     		moveq	r3, #8
1204:Generated_Source\PSoC5/USBUART_std.c ****             }
1205:Generated_Source\PSoC5/USBUART_std.c ****             else    /* Mark endpoint as empty, so it will be reloaded */
1206:Generated_Source\PSoC5/USBUART_std.c ****             {
1207:Generated_Source\PSoC5/USBUART_std.c ****                 USBUART_SIE_EP_BASE.sieEp[ep].epCr0 = USBUART_MODE_ACK_OUT;
 1093              		.loc 1 1207 0
 1094 0056 0923     		movne	r3, #9
 1095              	.L103:
 1096 0058 8B70     		strb	r3, [r1, #2]
 1097              	.L101:
1208:Generated_Source\PSoC5/USBUART_std.c ****             }
1209:Generated_Source\PSoC5/USBUART_std.c ****         }
1210:Generated_Source\PSoC5/USBUART_std.c ****         
1211:Generated_Source\PSoC5/USBUART_std.c ****         requestHandled = USBUART_InitNoDataControlTransfer();
1212:Generated_Source\PSoC5/USBUART_std.c ****     }
1213:Generated_Source\PSoC5/USBUART_std.c **** 
1214:Generated_Source\PSoC5/USBUART_std.c ****     return(requestHandled);
1215:Generated_Source\PSoC5/USBUART_std.c **** }
 1098              		.loc 1 1215 0
 1099 005a 30BC     		pop	{r4, r5}
 1100              		.cfi_remember_state
 1101              		.cfi_restore 5
 1102              		.cfi_restore 4
 1103              		.cfi_def_cfa_offset 0
1211:Generated_Source\PSoC5/USBUART_std.c ****     }
 1104              		.loc 1 1211 0
ARM GAS  C:\Users\chemi\AppData\Local\Temp\cc21dAG8.s 			page 44


 1105 005c FFF7FEBF 		b	USBUART_InitNoDataControlTransfer
 1106              	.LVL85:
 1107              	.L98:
 1108              		.cfi_restore_state
 1109              		.loc 1 1215 0
 1110 0060 0020     		movs	r0, #0
 1111 0062 30BC     		pop	{r4, r5}
 1112              		.cfi_restore 5
 1113              		.cfi_restore 4
 1114              		.cfi_def_cfa_offset 0
 1115 0064 7047     		bx	lr
 1116              	.L105:
 1117 0066 00BF     		.align	2
 1118              	.L104:
 1119 0068 00600040 		.word	1073766400
 1120 006c 00000000 		.word	USBUART_EP
 1121 0070 FC5F0040 		.word	1073766396
 1122              		.cfi_endproc
 1123              	.LFE11:
 1124              		.size	USBUART_ClearEndpointHalt, .-USBUART_ClearEndpointHalt
 1125              		.section	.text.USBUART_ValidateAlternateSetting,"ax",%progbits
 1126              		.align	1
 1127              		.global	USBUART_ValidateAlternateSetting
 1128              		.thumb
 1129              		.thumb_func
 1130              		.type	USBUART_ValidateAlternateSetting, %function
 1131              	USBUART_ValidateAlternateSetting:
 1132              	.LFB12:
1216:Generated_Source\PSoC5/USBUART_std.c **** 
1217:Generated_Source\PSoC5/USBUART_std.c **** 
1218:Generated_Source\PSoC5/USBUART_std.c **** /*******************************************************************************
1219:Generated_Source\PSoC5/USBUART_std.c **** * Function Name: USBUART_ValidateAlternateSetting
1220:Generated_Source\PSoC5/USBUART_std.c **** ****************************************************************************//**
1221:Generated_Source\PSoC5/USBUART_std.c **** *
1222:Generated_Source\PSoC5/USBUART_std.c **** *  Validates (and records) a SET INTERFACE request.
1223:Generated_Source\PSoC5/USBUART_std.c **** *
1224:Generated_Source\PSoC5/USBUART_std.c **** * \return
1225:Generated_Source\PSoC5/USBUART_std.c **** *  requestHandled.
1226:Generated_Source\PSoC5/USBUART_std.c **** *
1227:Generated_Source\PSoC5/USBUART_std.c **** * \reentrant
1228:Generated_Source\PSoC5/USBUART_std.c **** *  No.
1229:Generated_Source\PSoC5/USBUART_std.c **** *
1230:Generated_Source\PSoC5/USBUART_std.c **** *******************************************************************************/
1231:Generated_Source\PSoC5/USBUART_std.c **** uint8 USBUART_ValidateAlternateSetting(void) 
1232:Generated_Source\PSoC5/USBUART_std.c **** {
 1133              		.loc 1 1232 0
 1134              		.cfi_startproc
 1135              		@ args = 0, pretend = 0, frame = 0
 1136              		@ frame_needed = 0, uses_anonymous_args = 0
 1137              	.LVL86:
 1138 0000 10B5     		push	{r4, lr}
 1139              		.cfi_def_cfa_offset 8
 1140              		.cfi_offset 4, -8
 1141              		.cfi_offset 14, -4
1233:Generated_Source\PSoC5/USBUART_std.c ****     uint8 requestHandled = USBUART_FALSE;
1234:Generated_Source\PSoC5/USBUART_std.c ****     
1235:Generated_Source\PSoC5/USBUART_std.c ****     uint8 interfaceNum;
ARM GAS  C:\Users\chemi\AppData\Local\Temp\cc21dAG8.s 			page 45


1236:Generated_Source\PSoC5/USBUART_std.c ****     uint8 curInterfacesNum;
1237:Generated_Source\PSoC5/USBUART_std.c ****     const T_USBUART_LUT CYCODE *pTmp;
1238:Generated_Source\PSoC5/USBUART_std.c ****     
1239:Generated_Source\PSoC5/USBUART_std.c ****     /* Get interface number from the request. */
1240:Generated_Source\PSoC5/USBUART_std.c ****     interfaceNum = (uint8) USBUART_wIndexLoReg;
1241:Generated_Source\PSoC5/USBUART_std.c ****     
1242:Generated_Source\PSoC5/USBUART_std.c ****     /* Get number of interfaces for current configuration. */
1243:Generated_Source\PSoC5/USBUART_std.c ****     pTmp = USBUART_GetConfigTablePtr(USBUART_configuration - 1u);
 1142              		.loc 1 1243 0
 1143 0002 0D4B     		ldr	r3, .L110
1240:Generated_Source\PSoC5/USBUART_std.c ****     
 1144              		.loc 1 1240 0
 1145 0004 0D4C     		ldr	r4, .L110+4
 1146 0006 2179     		ldrb	r1, [r4, #4]	@ zero_extendqisi2
 1147              		.loc 1 1243 0
 1148 0008 1878     		ldrb	r0, [r3]	@ zero_extendqisi2
1240:Generated_Source\PSoC5/USBUART_std.c ****     
 1149              		.loc 1 1240 0
 1150 000a C9B2     		uxtb	r1, r1
 1151              	.LVL87:
 1152              		.loc 1 1243 0
 1153 000c 0138     		subs	r0, r0, #1
 1154 000e C0B2     		uxtb	r0, r0
 1155 0010 FFF7FEFF 		bl	USBUART_GetConfigTablePtr
 1156              	.LVL88:
1244:Generated_Source\PSoC5/USBUART_std.c ****     curInterfacesNum  = ((const uint8 *) pTmp->p_list)[USBUART_CONFIG_DESCR_NUM_INTERFACES];
 1157              		.loc 1 1244 0
 1158 0014 4368     		ldr	r3, [r0, #4]
1245:Generated_Source\PSoC5/USBUART_std.c **** 
1246:Generated_Source\PSoC5/USBUART_std.c ****     /* Validate that interface number is within range. */
1247:Generated_Source\PSoC5/USBUART_std.c ****     if ((interfaceNum <= curInterfacesNum) || (interfaceNum <= USBUART_MAX_INTERFACES_NUMBER))
 1159              		.loc 1 1247 0
 1160 0016 1B79     		ldrb	r3, [r3, #4]	@ zero_extendqisi2
 1161 0018 8B42     		cmp	r3, r1
 1162 001a 01D2     		bcs	.L107
 1163              		.loc 1 1247 0 is_stmt 0 discriminator 1
 1164 001c 0229     		cmp	r1, #2
 1165 001e 09D8     		bhi	.L109
 1166              	.L107:
1248:Generated_Source\PSoC5/USBUART_std.c ****     {
1249:Generated_Source\PSoC5/USBUART_std.c ****         /* Save current and new alternate settings (come with request) to make 
1250:Generated_Source\PSoC5/USBUART_std.c ****         * desicion about following endpoint re-configuration.
1251:Generated_Source\PSoC5/USBUART_std.c ****         */
1252:Generated_Source\PSoC5/USBUART_std.c ****         USBUART_interfaceSettingLast[interfaceNum] = USBUART_interfaceSetting[interfaceNum];
 1167              		.loc 1 1252 0 is_stmt 1
 1168 0020 074A     		ldr	r2, .L110+8
 1169 0022 0848     		ldr	r0, .L110+12
 1170              	.LVL89:
 1171 0024 535C     		ldrb	r3, [r2, r1]	@ zero_extendqisi2
 1172              	.LVL90:
 1173 0026 DBB2     		uxtb	r3, r3
 1174 0028 4354     		strb	r3, [r0, r1]
1253:Generated_Source\PSoC5/USBUART_std.c ****         USBUART_interfaceSetting[interfaceNum]     = (uint8) USBUART_wValueLoReg;
 1175              		.loc 1 1253 0
 1176 002a A378     		ldrb	r3, [r4, #2]	@ zero_extendqisi2
1254:Generated_Source\PSoC5/USBUART_std.c ****         
1255:Generated_Source\PSoC5/USBUART_std.c ****         requestHandled = USBUART_TRUE;
ARM GAS  C:\Users\chemi\AppData\Local\Temp\cc21dAG8.s 			page 46


 1177              		.loc 1 1255 0
 1178 002c 0120     		movs	r0, #1
1253:Generated_Source\PSoC5/USBUART_std.c ****         USBUART_interfaceSetting[interfaceNum]     = (uint8) USBUART_wValueLoReg;
 1179              		.loc 1 1253 0
 1180 002e DBB2     		uxtb	r3, r3
 1181 0030 5354     		strb	r3, [r2, r1]
 1182              	.LVL91:
 1183 0032 10BD     		pop	{r4, pc}
 1184              	.LVL92:
 1185              	.L109:
1233:Generated_Source\PSoC5/USBUART_std.c ****     
 1186              		.loc 1 1233 0
 1187 0034 0020     		movs	r0, #0
 1188              	.LVL93:
1256:Generated_Source\PSoC5/USBUART_std.c ****     }
1257:Generated_Source\PSoC5/USBUART_std.c **** 
1258:Generated_Source\PSoC5/USBUART_std.c ****     return (requestHandled);
1259:Generated_Source\PSoC5/USBUART_std.c **** }
 1189              		.loc 1 1259 0
 1190 0036 10BD     		pop	{r4, pc}
 1191              	.L111:
 1192              		.align	2
 1193              	.L110:
 1194 0038 00000000 		.word	USBUART_configuration
 1195 003c 00600040 		.word	1073766400
 1196 0040 00000000 		.word	USBUART_interfaceSetting
 1197 0044 00000000 		.word	USBUART_interfaceSettingLast
 1198              		.cfi_endproc
 1199              	.LFE12:
 1200              		.size	USBUART_ValidateAlternateSetting, .-USBUART_ValidateAlternateSetting
 1201              		.section	.text.USBUART_HandleStandardRqst,"ax",%progbits
 1202              		.align	1
 1203              		.global	USBUART_HandleStandardRqst
 1204              		.thumb
 1205              		.thumb_func
 1206              		.type	USBUART_HandleStandardRqst, %function
 1207              	USBUART_HandleStandardRqst:
 1208              	.LFB0:
  85:Generated_Source\PSoC5/USBUART_std.c ****     uint8 requestHandled = USBUART_FALSE;
 1209              		.loc 1 85 0
 1210              		.cfi_startproc
 1211              		@ args = 0, pretend = 0, frame = 0
 1212              		@ frame_needed = 0, uses_anonymous_args = 0
 1213              	.LVL94:
 1214 0000 38B5     		push	{r3, r4, r5, lr}
 1215              		.cfi_def_cfa_offset 16
 1216              		.cfi_offset 3, -16
 1217              		.cfi_offset 4, -12
 1218              		.cfi_offset 5, -8
 1219              		.cfi_offset 14, -4
  89:Generated_Source\PSoC5/USBUART_std.c **** 
 1220              		.loc 1 89 0
 1221 0002 8A4A     		ldr	r2, .L173
 102:Generated_Source\PSoC5/USBUART_std.c **** 
 1222              		.loc 1 102 0
 1223 0004 8A4C     		ldr	r4, .L173+4
  89:Generated_Source\PSoC5/USBUART_std.c **** 
ARM GAS  C:\Users\chemi\AppData\Local\Temp\cc21dAG8.s 			page 47


 1224              		.loc 1 89 0
 1225 0006 1378     		ldrb	r3, [r2]	@ zero_extendqisi2
 102:Generated_Source\PSoC5/USBUART_std.c **** 
 1226              		.loc 1 102 0
 1227 0008 0021     		movs	r1, #0
  89:Generated_Source\PSoC5/USBUART_std.c **** 
 1228              		.loc 1 89 0
 1229 000a DBB2     		uxtb	r3, r3
 1230              	.LVL95:
 102:Generated_Source\PSoC5/USBUART_std.c **** 
 1231              		.loc 1 102 0
 1232 000c 2180     		strh	r1, [r4]	@ movhi
 104:Generated_Source\PSoC5/USBUART_std.c ****     {
 1233              		.loc 1 104 0
 1234 000e 1806     		lsls	r0, r3, #24
 107:Generated_Source\PSoC5/USBUART_std.c ****         {
 1235              		.loc 1 107 0
 1236 0010 5178     		ldrb	r1, [r2, #1]	@ zero_extendqisi2
 104:Generated_Source\PSoC5/USBUART_std.c ****     {
 1237              		.loc 1 104 0
 1238 0012 40F18D80 		bpl	.L113
 107:Generated_Source\PSoC5/USBUART_std.c ****         {
 1239              		.loc 1 107 0
 1240 0016 0A29     		cmp	r1, #10
 1241 0018 00F20681 		bhi	.L114
 1242 001c DFE811F0 		tbh	[pc, r1, lsl #1]
 1243              	.L116:
 1244 0020 5D00     		.2byte	(.L115-.L116)/2
 1245 0022 0401     		.2byte	(.L114-.L116)/2
 1246 0024 0401     		.2byte	(.L114-.L116)/2
 1247 0026 0401     		.2byte	(.L114-.L116)/2
 1248 0028 0401     		.2byte	(.L114-.L116)/2
 1249 002a 0401     		.2byte	(.L114-.L116)/2
 1250 002c 0B00     		.2byte	(.L117-.L116)/2
 1251 002e 0401     		.2byte	(.L114-.L116)/2
 1252 0030 7E00     		.2byte	(.L118-.L116)/2
 1253 0032 0401     		.2byte	(.L114-.L116)/2
 1254 0034 8200     		.2byte	(.L119-.L116)/2
 1255              		.p2align 1
 1256              	.L117:
 110:Generated_Source\PSoC5/USBUART_std.c ****                 {
 1257              		.loc 1 110 0
 1258 0036 D378     		ldrb	r3, [r2, #3]	@ zero_extendqisi2
 1259              	.LVL96:
 1260 0038 7C49     		ldr	r1, .L173
 1261 003a 012B     		cmp	r3, #1
 1262 003c 09D1     		bne	.L120
 1263              	.LBB18:
 1264              	.LBB19:
1015:Generated_Source\PSoC5/USBUART_std.c **** }
 1265              		.loc 1 1015 0
 1266 003e 7D4B     		ldr	r3, .L173+8
 1267 0040 1A78     		ldrb	r2, [r3]	@ zero_extendqisi2
 1268 0042 7D4B     		ldr	r3, .L173+12
 1269 0044 03EBC203 		add	r3, r3, r2, lsl #3
 1270              	.LBE19:
 1271              	.LBE18:
ARM GAS  C:\Users\chemi\AppData\Local\Temp\cc21dAG8.s 			page 48


 113:Generated_Source\PSoC5/USBUART_std.c ****                     USBUART_currentTD.count = USBUART_DEVICE_DESCR_LENGTH;
 1272              		.loc 1 113 0
 1273 0048 5B68     		ldr	r3, [r3, #4]
 1274 004a 5B68     		ldr	r3, [r3, #4]
 1275 004c 6360     		str	r3, [r4, #4]
 114:Generated_Source\PSoC5/USBUART_std.c ****                     
 1276              		.loc 1 114 0
 1277 004e 1223     		movs	r3, #18
 1278 0050 10E0     		b	.L165
 1279              	.L120:
 118:Generated_Source\PSoC5/USBUART_std.c ****                 {
 1280              		.loc 1 118 0
 1281 0052 CB78     		ldrb	r3, [r1, #3]	@ zero_extendqisi2
 1282 0054 022B     		cmp	r3, #2
 1283 0056 12D1     		bne	.L121
 120:Generated_Source\PSoC5/USBUART_std.c ****                     
 1284              		.loc 1 120 0
 1285 0058 8878     		ldrb	r0, [r1, #2]	@ zero_extendqisi2
 1286 005a FFF7FEFF 		bl	USBUART_GetConfigTablePtr
 1287              	.LVL97:
 123:Generated_Source\PSoC5/USBUART_std.c ****                     {
 1288              		.loc 1 123 0
 1289 005e 0028     		cmp	r0, #0
 1290 0060 00F0E280 		beq	.L114
 125:Generated_Source\PSoC5/USBUART_std.c ****                         USBUART_currentTD.count = (uint16)((uint16)(USBUART_currentTD.pData)[USBUAR
 1291              		.loc 1 125 0
 1292 0064 4368     		ldr	r3, [r0, #4]
 1293 0066 6360     		str	r3, [r4, #4]
 126:Generated_Source\PSoC5/USBUART_std.c ****                                                                             (USBUART_currentTD.pDat
 1294              		.loc 1 126 0
 1295 0068 6368     		ldr	r3, [r4, #4]
 1296 006a DA78     		ldrb	r2, [r3, #3]	@ zero_extendqisi2
 127:Generated_Source\PSoC5/USBUART_std.c ****                         requestHandled  = USBUART_InitControlRead();
 1297              		.loc 1 127 0
 1298 006c 6368     		ldr	r3, [r4, #4]
 1299 006e 9B78     		ldrb	r3, [r3, #2]	@ zero_extendqisi2
 126:Generated_Source\PSoC5/USBUART_std.c ****                                                                             (USBUART_currentTD.pDat
 1300              		.loc 1 126 0
 1301 0070 43EA0223 		orr	r3, r3, r2, lsl #8
 1302              	.LVL98:
 1303              	.L165:
 1304 0074 2380     		strh	r3, [r4]	@ movhi
 1305              	.LVL99:
 1306              	.L166:
 380:Generated_Source\PSoC5/USBUART_std.c **** 
 1307              		.loc 1 380 0
 1308 0076 BDE83840 		pop	{r3, r4, r5, lr}
 1309              		.cfi_remember_state
 1310              		.cfi_restore 14
 1311              		.cfi_restore 5
 1312              		.cfi_restore 4
 1313              		.cfi_restore 3
 1314              		.cfi_def_cfa_offset 0
 128:Generated_Source\PSoC5/USBUART_std.c ****                     }
 1315              		.loc 1 128 0
 1316 007a FFF7FEBF 		b	USBUART_InitControlRead
 1317              	.LVL100:
ARM GAS  C:\Users\chemi\AppData\Local\Temp\cc21dAG8.s 			page 49


 1318              	.L121:
 1319              		.cfi_restore_state
 149:Generated_Source\PSoC5/USBUART_std.c ****                 {
 1320              		.loc 1 149 0
 1321 007e CB78     		ldrb	r3, [r1, #3]	@ zero_extendqisi2
 1322 0080 032B     		cmp	r3, #3
 1323 0082 26D1     		bne	.L123
 1324 0084 6D4B     		ldr	r3, .L173+16
 1325 0086 0022     		movs	r2, #0
 1326              	.LVL101:
 1327              	.L124:
 156:Generated_Source\PSoC5/USBUART_std.c ****                     {
 1328              		.loc 1 156 0
 1329 0088 8878     		ldrb	r0, [r1, #2]	@ zero_extendqisi2
 1330 008a D5B2     		uxtb	r5, r2
 1331 008c 8542     		cmp	r5, r0
 1332 008e 09D3     		bcc	.L125
 1333              	.LVL102:
 1334              	.L128:
 168:Generated_Source\PSoC5/USBUART_std.c ****                     {
 1335              		.loc 1 168 0
 1336 0090 664A     		ldr	r2, .L173
 1337 0092 9178     		ldrb	r1, [r2, #2]	@ zero_extendqisi2
 170:Generated_Source\PSoC5/USBUART_std.c ****                     }
 1338              		.loc 1 170 0
 1339 0094 6A4A     		ldr	r2, .L173+20
 1340 0096 EE29     		cmp	r1, #238
 1341 0098 08BF     		it	eq
 1342 009a 1346     		moveq	r3, r2
 1343              	.LVL103:
 176:Generated_Source\PSoC5/USBUART_std.c ****                         (USBUART_wValueLoReg == USBUART_DEVICE0_DESCR[USBUART_DEVICE_DESCR_SN_SHIFT
 1344              		.loc 1 176 0
 1345 009c 634A     		ldr	r2, .L173
 1346 009e 9178     		ldrb	r1, [r2, #2]	@ zero_extendqisi2
 1347 00a0 81B1     		cbz	r1, .L129
 1348 00a2 06E0     		b	.L172
 1349              	.LVL104:
 1350              	.L125:
 156:Generated_Source\PSoC5/USBUART_std.c ****                     {
 1351              		.loc 1 156 0 discriminator 1
 1352 00a4 1878     		ldrb	r0, [r3]	@ zero_extendqisi2
 1353 00a6 0132     		adds	r2, r2, #1
 1354              	.LVL105:
 1355 00a8 0028     		cmp	r0, #0
 1356 00aa F1D0     		beq	.L128
 159:Generated_Source\PSoC5/USBUART_std.c ****                         /* Move to next string descriptor */
 1357              		.loc 1 159 0
 1358 00ac 1878     		ldrb	r0, [r3]	@ zero_extendqisi2
 1359              	.LVL106:
 161:Generated_Source\PSoC5/USBUART_std.c ****                         nStr++;
 1360              		.loc 1 161 0
 1361 00ae 0344     		add	r3, r3, r0
 1362              	.LVL107:
 1363 00b0 EAE7     		b	.L124
 1364              	.LVL108:
 1365              	.L172:
 177:Generated_Source\PSoC5/USBUART_std.c ****                     {
ARM GAS  C:\Users\chemi\AppData\Local\Temp\cc21dAG8.s 			page 50


 1366              		.loc 1 177 0 discriminator 1
 1367 00b2 6449     		ldr	r1, .L173+24
 1368 00b4 9278     		ldrb	r2, [r2, #2]	@ zero_extendqisi2
 176:Generated_Source\PSoC5/USBUART_std.c ****                         (USBUART_wValueLoReg == USBUART_DEVICE0_DESCR[USBUART_DEVICE_DESCR_SN_SHIFT
 1369              		.loc 1 176 0 discriminator 1
 1370 00b6 097C     		ldrb	r1, [r1, #16]	@ zero_extendqisi2
 1371 00b8 9142     		cmp	r1, r2
 1372 00ba 03D1     		bne	.L129
 181:Generated_Source\PSoC5/USBUART_std.c ****                         pStr = USBUART_idSerialNumberStringDescriptor;
 1373              		.loc 1 181 0
 1374 00bc 6248     		ldr	r0, .L173+28
 1375 00be FFF7FEFF 		bl	USBUART_ReadDieID
 1376              	.LVL109:
 182:Generated_Source\PSoC5/USBUART_std.c ****                     #elif defined(USBUART_ENABLE_FWSN_STRING)
 1377              		.loc 1 182 0
 1378 00c2 614B     		ldr	r3, .L173+28
 1379              	.LVL110:
 1380              	.L129:
 199:Generated_Source\PSoC5/USBUART_std.c ****                     {
 1381              		.loc 1 199 0
 1382 00c4 1A78     		ldrb	r2, [r3]	@ zero_extendqisi2
 1383 00c6 002A     		cmp	r2, #0
 1384 00c8 00F0AE80 		beq	.L114
 201:Generated_Source\PSoC5/USBUART_std.c ****                         USBUART_currentTD.pData = pStr;
 1385              		.loc 1 201 0
 1386 00cc 1A78     		ldrb	r2, [r3]	@ zero_extendqisi2
 1387 00ce 2280     		strh	r2, [r4]	@ movhi
 1388 00d0 18E0     		b	.L169
 1389              	.LVL111:
 1390              	.L123:
 380:Generated_Source\PSoC5/USBUART_std.c **** 
 1391              		.loc 1 380 0
 1392 00d2 BDE83840 		pop	{r3, r4, r5, lr}
 1393              		.cfi_remember_state
 1394              		.cfi_restore 14
 1395              		.cfi_restore 5
 1396              		.cfi_restore 4
 1397              		.cfi_restore 3
 1398              		.cfi_def_cfa_offset 0
 209:Generated_Source\PSoC5/USBUART_std.c ****                 }
 1399              		.loc 1 209 0
 1400 00d6 FFF7FEBF 		b	USBUART_DispatchClassRqst
 1401              	.LVL112:
 1402              	.L115:
 1403              		.cfi_restore_state
 214:Generated_Source\PSoC5/USBUART_std.c ****                 {
 1404              		.loc 1 214 0
 1405 00da 13F00303 		ands	r3, r3, #3
 1406              	.LVL113:
 1407 00de 13D0     		beq	.L131
 1408 00e0 022B     		cmp	r3, #2
 1409 00e2 40F0A180 		bne	.L114
 217:Generated_Source\PSoC5/USBUART_std.c ****                         USBUART_tBuffer[0u]     = USBUART_EP[USBUART_wIndexLoReg & USBUART_DIR_UNUS
 1410              		.loc 1 217 0
 1411 00e6 2380     		strh	r3, [r4]	@ movhi
 218:Generated_Source\PSoC5/USBUART_std.c ****                         USBUART_tBuffer[1u]     = 0u;
 1412              		.loc 1 218 0
ARM GAS  C:\Users\chemi\AppData\Local\Temp\cc21dAG8.s 			page 51


 1413 00e8 504B     		ldr	r3, .L173
 1414 00ea 0C21     		movs	r1, #12
 1415 00ec 1B79     		ldrb	r3, [r3, #4]	@ zero_extendqisi2
 1416 00ee 03F07F02 		and	r2, r3, #127
 1417 00f2 564B     		ldr	r3, .L173+32
 1418 00f4 01FB0233 		mla	r3, r1, r2, r3
 1419 00f8 9A78     		ldrb	r2, [r3, #2]	@ zero_extendqisi2
 1420 00fa 554B     		ldr	r3, .L173+36
 1421 00fc D2B2     		uxtb	r2, r2
 1422 00fe 1A70     		strb	r2, [r3]
 219:Generated_Source\PSoC5/USBUART_std.c ****                         USBUART_currentTD.pData = &USBUART_tBuffer[0u];
 1423              		.loc 1 219 0
 1424 0100 0022     		movs	r2, #0
 1425 0102 5A70     		strb	r2, [r3, #1]
 1426              	.LVL114:
 1427              	.L169:
 220:Generated_Source\PSoC5/USBUART_std.c ****                         
 1428              		.loc 1 220 0
 1429 0104 6360     		str	r3, [r4, #4]
 1430 0106 B6E7     		b	.L166
 1431              	.LVL115:
 1432              	.L131:
 225:Generated_Source\PSoC5/USBUART_std.c ****                         USBUART_tBuffer[0u]     = USBUART_deviceStatus;
 1433              		.loc 1 225 0
 1434 0108 0222     		movs	r2, #2
 1435 010a 2280     		strh	r2, [r4]	@ movhi
 226:Generated_Source\PSoC5/USBUART_std.c ****                         USBUART_tBuffer[1u]     = 0u;
 1436              		.loc 1 226 0
 1437 010c 514A     		ldr	r2, .L173+40
 1438 010e 1178     		ldrb	r1, [r2]	@ zero_extendqisi2
 1439 0110 4F4A     		ldr	r2, .L173+36
 1440 0112 C9B2     		uxtb	r1, r1
 1441 0114 1170     		strb	r1, [r2]
 227:Generated_Source\PSoC5/USBUART_std.c ****                         USBUART_currentTD.pData = &USBUART_tBuffer[0u];
 1442              		.loc 1 227 0
 1443 0116 5370     		strb	r3, [r2, #1]
 228:Generated_Source\PSoC5/USBUART_std.c ****                         
 1444              		.loc 1 228 0
 1445 0118 6260     		str	r2, [r4, #4]
 1446 011a ACE7     		b	.L166
 1447              	.LVL116:
 1448              	.L118:
 238:Generated_Source\PSoC5/USBUART_std.c ****                 USBUART_currentTD.pData = (volatile uint8 *) &USBUART_configuration;
 1449              		.loc 1 238 0
 1450 011c 0123     		movs	r3, #1
 1451              	.LVL117:
 1452 011e 2380     		strh	r3, [r4]	@ movhi
 239:Generated_Source\PSoC5/USBUART_std.c ****                 requestHandled  = USBUART_InitControlRead();
 1453              		.loc 1 239 0
 1454 0120 4D4B     		ldr	r3, .L173+44
 1455 0122 EFE7     		b	.L169
 1456              	.LVL118:
 1457              	.L119:
 244:Generated_Source\PSoC5/USBUART_std.c ****                 USBUART_currentTD.pData = (volatile uint8 *) &USBUART_interfaceSetting[USBUART_wInd
 1458              		.loc 1 244 0
 1459 0124 0123     		movs	r3, #1
 1460              	.LVL119:
ARM GAS  C:\Users\chemi\AppData\Local\Temp\cc21dAG8.s 			page 52


 1461 0126 2380     		strh	r3, [r4]	@ movhi
 245:Generated_Source\PSoC5/USBUART_std.c ****                 requestHandled  = USBUART_InitControlRead();
 1462              		.loc 1 245 0
 1463 0128 1379     		ldrb	r3, [r2, #4]	@ zero_extendqisi2
 1464 012a 4C4A     		ldr	r2, .L173+48
 1465 012c 1344     		add	r3, r3, r2
 1466 012e E9E7     		b	.L169
 1467              	.LVL120:
 1468              	.L113:
 256:Generated_Source\PSoC5/USBUART_std.c ****         {
 1469              		.loc 1 256 0
 1470 0130 0139     		subs	r1, r1, #1
 1471 0132 0A29     		cmp	r1, #10
 1472 0134 78D8     		bhi	.L114
 1473 0136 DFE801F0 		tbb	[pc, r1]
 1474              	.L134:
 1475 013a 37       		.byte	(.L133-.L134)/2
 1476 013b 77       		.byte	(.L114-.L134)/2
 1477 013c 4F       		.byte	(.L135-.L134)/2
 1478 013d 77       		.byte	(.L114-.L134)/2
 1479 013e 06       		.byte	(.L136-.L134)/2
 1480 013f 77       		.byte	(.L114-.L134)/2
 1481 0140 77       		.byte	(.L114-.L134)/2
 1482 0141 77       		.byte	(.L114-.L134)/2
 1483 0142 0A       		.byte	(.L137-.L134)/2
 1484 0143 77       		.byte	(.L114-.L134)/2
 1485 0144 20       		.byte	(.L138-.L134)/2
 1486 0145 00       		.p2align 1
 1487              	.L136:
 260:Generated_Source\PSoC5/USBUART_std.c ****                 requestHandled = USBUART_InitNoDataControlTransfer();
 1488              		.loc 1 260 0
 1489 0146 9378     		ldrb	r3, [r2, #2]	@ zero_extendqisi2
 1490              	.LVL121:
 1491 0148 454A     		ldr	r2, .L173+52
 1492 014a DBB2     		uxtb	r3, r3
 1493 014c 5AE0     		b	.L171
 1494              	.LVL122:
 1495              	.L137:
 265:Generated_Source\PSoC5/USBUART_std.c ****                 
 1496              		.loc 1 265 0
 1497 014e 9378     		ldrb	r3, [r2, #2]	@ zero_extendqisi2
 1498              	.LVL123:
 268:Generated_Source\PSoC5/USBUART_std.c ****                 {
 1499              		.loc 1 268 0
 1500 0150 03F0FF01 		and	r1, r3, #255
 1501 0154 53B9     		cbnz	r3, .L139
 1502              	.LVL124:
 1503              	.L142:
 277:Generated_Source\PSoC5/USBUART_std.c ****                     {
 1504              		.loc 1 277 0
 1505 0156 404B     		ldr	r3, .L173+44
 1506 0158 1A78     		ldrb	r2, [r3]	@ zero_extendqisi2
 1507 015a 9142     		cmp	r1, r2
 1508 015c 60D0     		beq	.L167
 279:Generated_Source\PSoC5/USBUART_std.c ****                         USBUART_configurationChanged = USBUART_TRUE;
 1509              		.loc 1 279 0
 1510 015e 1970     		strb	r1, [r3]
ARM GAS  C:\Users\chemi\AppData\Local\Temp\cc21dAG8.s 			page 53


 280:Generated_Source\PSoC5/USBUART_std.c ****                         USBUART_Config(USBUART_TRUE);
 1511              		.loc 1 280 0
 1512 0160 404B     		ldr	r3, .L173+56
 1513 0162 0120     		movs	r0, #1
 1514 0164 1870     		strb	r0, [r3]
 281:Generated_Source\PSoC5/USBUART_std.c ****                     }
 1515              		.loc 1 281 0
 1516 0166 FFF7FEFF 		bl	USBUART_Config
 1517              	.LVL125:
 1518 016a 59E0     		b	.L167
 1519              	.LVL126:
 1520              	.L139:
 270:Generated_Source\PSoC5/USBUART_std.c ****                 }
 1521              		.loc 1 270 0
 1522 016c 481E     		subs	r0, r1, #1
 1523 016e C0B2     		uxtb	r0, r0
 1524 0170 FFF7FEFF 		bl	USBUART_GetConfigTablePtr
 1525              	.LVL127:
 274:Generated_Source\PSoC5/USBUART_std.c ****                 {
 1526              		.loc 1 274 0
 1527 0174 0028     		cmp	r0, #0
 1528 0176 EED1     		bne	.L142
 1529 0178 56E0     		b	.L114
 1530              	.LVL128:
 1531              	.L138:
 288:Generated_Source\PSoC5/USBUART_std.c ****                 {
 1532              		.loc 1 288 0
 1533 017a FFF7FEFF 		bl	USBUART_ValidateAlternateSetting
 1534              	.LVL129:
 1535 017e 0028     		cmp	r0, #0
 1536 0180 52D0     		beq	.L114
 291:Generated_Source\PSoC5/USBUART_std.c ****                     USBUART_interfaceNumber = (uint8) USBUART_wIndexLoReg;
 1537              		.loc 1 291 0
 1538 0182 2A4A     		ldr	r2, .L173
 292:Generated_Source\PSoC5/USBUART_std.c ****                      
 1539              		.loc 1 292 0
 1540 0184 3849     		ldr	r1, .L173+60
 291:Generated_Source\PSoC5/USBUART_std.c ****                     USBUART_interfaceNumber = (uint8) USBUART_wIndexLoReg;
 1541              		.loc 1 291 0
 1542 0186 1379     		ldrb	r3, [r2, #4]	@ zero_extendqisi2
 292:Generated_Source\PSoC5/USBUART_std.c ****                      
 1543              		.loc 1 292 0
 1544 0188 1279     		ldrb	r2, [r2, #4]	@ zero_extendqisi2
 291:Generated_Source\PSoC5/USBUART_std.c ****                     USBUART_interfaceNumber = (uint8) USBUART_wIndexLoReg;
 1545              		.loc 1 291 0
 1546 018a DBB2     		uxtb	r3, r3
 1547              	.LVL130:
 292:Generated_Source\PSoC5/USBUART_std.c ****                      
 1548              		.loc 1 292 0
 1549 018c D2B2     		uxtb	r2, r2
 1550 018e 0A70     		strb	r2, [r1]
 295:Generated_Source\PSoC5/USBUART_std.c ****                     {
 1551              		.loc 1 295 0
 1552 0190 364A     		ldr	r2, .L173+64
 1553 0192 3249     		ldr	r1, .L173+48
 1554 0194 D25C     		ldrb	r2, [r2, r3]	@ zero_extendqisi2
 1555 0196 CB5C     		ldrb	r3, [r1, r3]	@ zero_extendqisi2
ARM GAS  C:\Users\chemi\AppData\Local\Temp\cc21dAG8.s 			page 54


 1556              	.LVL131:
 1557 0198 9A42     		cmp	r2, r3
 1558 019a 41D0     		beq	.L167
 297:Generated_Source\PSoC5/USBUART_std.c ****                     
 1559              		.loc 1 297 0
 1560 019c 314B     		ldr	r3, .L173+56
 1561 019e 0122     		movs	r2, #1
 1562 01a0 1A70     		strb	r2, [r3]
 303:Generated_Source\PSoC5/USBUART_std.c ****                     #endif /* (USBUART_EP_MANAGEMENT_MANUAL && USBUART_EP_ALLOC_DYNAMIC) */
 1563              		.loc 1 303 0
 1564 01a2 FFF7FEFF 		bl	USBUART_ConfigAltChanged
 1565              	.LVL132:
 1566 01a6 3BE0     		b	.L167
 1567              	.LVL133:
 1568              	.L133:
 312:Generated_Source\PSoC5/USBUART_std.c ****                 {
 1569              		.loc 1 312 0
 1570 01a8 03F00303 		and	r3, r3, #3
 1571              	.LVL134:
 1572 01ac 012B     		cmp	r3, #1
 1573 01ae 2BD0     		beq	.L147
 1574 01b0 09D3     		bcc	.L145
 1575 01b2 022B     		cmp	r3, #2
 1576 01b4 38D1     		bne	.L114
 315:Generated_Source\PSoC5/USBUART_std.c ****                         {
 1577              		.loc 1 315 0
 1578 01b6 1D4B     		ldr	r3, .L173
 1579 01b8 9B78     		ldrb	r3, [r3, #2]	@ zero_extendqisi2
 1580 01ba 002B     		cmp	r3, #0
 1581 01bc 34D1     		bne	.L114
 380:Generated_Source\PSoC5/USBUART_std.c **** 
 1582              		.loc 1 380 0
 1583 01be BDE83840 		pop	{r3, r4, r5, lr}
 1584              		.cfi_remember_state
 1585              		.cfi_restore 14
 1586              		.cfi_restore 5
 1587              		.cfi_restore 4
 1588              		.cfi_restore 3
 1589              		.cfi_def_cfa_offset 0
 317:Generated_Source\PSoC5/USBUART_std.c ****                         }
 1590              		.loc 1 317 0
 1591 01c2 FFF7FEBF 		b	USBUART_ClearEndpointHalt
 1592              	.LVL135:
 1593              	.L145:
 1594              		.cfi_restore_state
 322:Generated_Source\PSoC5/USBUART_std.c ****                         {
 1595              		.loc 1 322 0
 1596 01c6 194B     		ldr	r3, .L173
 1597 01c8 9B78     		ldrb	r3, [r3, #2]	@ zero_extendqisi2
 1598 01ca 012B     		cmp	r3, #1
 1599 01cc 2CD1     		bne	.L114
 324:Generated_Source\PSoC5/USBUART_std.c ****                             requestHandled = USBUART_InitNoDataControlTransfer();
 1600              		.loc 1 324 0
 1601 01ce 214A     		ldr	r2, .L173+40
 1602 01d0 1378     		ldrb	r3, [r2]	@ zero_extendqisi2
 1603 01d2 03F0FD03 		and	r3, r3, #253
 1604 01d6 15E0     		b	.L171
ARM GAS  C:\Users\chemi\AppData\Local\Temp\cc21dAG8.s 			page 55


 1605              	.LVL136:
 1606              	.L135:
 342:Generated_Source\PSoC5/USBUART_std.c ****                 {
 1607              		.loc 1 342 0
 1608 01d8 03F00303 		and	r3, r3, #3
 1609              	.LVL137:
 1610 01dc 012B     		cmp	r3, #1
 1611 01de 13D0     		beq	.L147
 1612 01e0 08D3     		bcc	.L148
 1613 01e2 022B     		cmp	r3, #2
 1614 01e4 20D1     		bne	.L114
 345:Generated_Source\PSoC5/USBUART_std.c ****                         {
 1615              		.loc 1 345 0
 1616 01e6 114B     		ldr	r3, .L173
 1617 01e8 9B78     		ldrb	r3, [r3, #2]	@ zero_extendqisi2
 1618 01ea EBB9     		cbnz	r3, .L114
 380:Generated_Source\PSoC5/USBUART_std.c **** 
 1619              		.loc 1 380 0
 1620 01ec BDE83840 		pop	{r3, r4, r5, lr}
 1621              		.cfi_remember_state
 1622              		.cfi_restore 14
 1623              		.cfi_restore 5
 1624              		.cfi_restore 4
 1625              		.cfi_restore 3
 1626              		.cfi_def_cfa_offset 0
 347:Generated_Source\PSoC5/USBUART_std.c ****                         }
 1627              		.loc 1 347 0
 1628 01f0 FFF7FEBF 		b	USBUART_SetEndpointHalt
 1629              	.LVL138:
 1630              	.L148:
 1631              		.cfi_restore_state
 353:Generated_Source\PSoC5/USBUART_std.c ****                         {
 1632              		.loc 1 353 0
 1633 01f4 0D4B     		ldr	r3, .L173
 1634 01f6 9B78     		ldrb	r3, [r3, #2]	@ zero_extendqisi2
 1635 01f8 012B     		cmp	r3, #1
 1636 01fa 15D1     		bne	.L114
 355:Generated_Source\PSoC5/USBUART_std.c ****                             requestHandled = USBUART_InitNoDataControlTransfer();
 1637              		.loc 1 355 0
 1638 01fc 154A     		ldr	r2, .L173+40
 1639 01fe 1378     		ldrb	r3, [r2]	@ zero_extendqisi2
 1640 0200 43F00203 		orr	r3, r3, #2
 1641              	.L171:
 1642 0204 1370     		strb	r3, [r2]
 1643 0206 0BE0     		b	.L167
 1644              	.L147:
 362:Generated_Source\PSoC5/USBUART_std.c ****                         {
 1645              		.loc 1 362 0
 1646 0208 084B     		ldr	r3, .L173
 1647 020a 1A79     		ldrb	r2, [r3, #4]	@ zero_extendqisi2
 1648 020c 012A     		cmp	r2, #1
 1649 020e 0BD8     		bhi	.L114
 364:Generated_Source\PSoC5/USBUART_std.c ****                             requestHandled = USBUART_InitNoDataControlTransfer();
 1650              		.loc 1 364 0
 1651 0210 9878     		ldrb	r0, [r3, #2]	@ zero_extendqisi2
 1652 0212 1B79     		ldrb	r3, [r3, #4]	@ zero_extendqisi2
 1653 0214 1649     		ldr	r1, .L173+68
ARM GAS  C:\Users\chemi\AppData\Local\Temp\cc21dAG8.s 			page 56


 1654 0216 DBB2     		uxtb	r3, r3
 1655 0218 CA5C     		ldrb	r2, [r1, r3]	@ zero_extendqisi2
 1656 021a 22EA0002 		bic	r2, r2, r0
 1657 021e CA54     		strb	r2, [r1, r3]
 1658              	.L167:
 380:Generated_Source\PSoC5/USBUART_std.c **** 
 1659              		.loc 1 380 0
 1660 0220 BDE83840 		pop	{r3, r4, r5, lr}
 1661              		.cfi_remember_state
 1662              		.cfi_restore 14
 1663              		.cfi_restore 5
 1664              		.cfi_restore 4
 1665              		.cfi_restore 3
 1666              		.cfi_def_cfa_offset 0
 365:Generated_Source\PSoC5/USBUART_std.c ****                         }
 1667              		.loc 1 365 0
 1668 0224 FFF7FEBF 		b	USBUART_InitNoDataControlTransfer
 1669              	.LVL139:
 1670              	.L114:
 1671              		.cfi_restore_state
 380:Generated_Source\PSoC5/USBUART_std.c **** 
 1672              		.loc 1 380 0
 1673 0228 0020     		movs	r0, #0
 1674 022a 38BD     		pop	{r3, r4, r5, pc}
 1675              	.L174:
 1676              		.align	2
 1677              	.L173:
 1678 022c 00600040 		.word	1073766400
 1679 0230 00000000 		.word	USBUART_currentTD
 1680 0234 00000000 		.word	USBUART_device
 1681 0238 00000000 		.word	USBUART_TABLE
 1682 023c 00000000 		.word	USBUART_STRING_DESCRIPTORS
 1683 0240 00000000 		.word	USBUART_MSOS_DESCRIPTOR
 1684 0244 00000000 		.word	USBUART_DEVICE0_DESCR
 1685 0248 00000000 		.word	USBUART_idSerialNumberStringDescriptor
 1686 024c 00000000 		.word	USBUART_EP
 1687 0250 00000000 		.word	.LANCHOR0
 1688 0254 00000000 		.word	USBUART_deviceStatus
 1689 0258 00000000 		.word	USBUART_configuration
 1690 025c 00000000 		.word	USBUART_interfaceSetting
 1691 0260 00000000 		.word	USBUART_deviceAddress
 1692 0264 00000000 		.word	USBUART_configurationChanged
 1693 0268 00000000 		.word	USBUART_interfaceNumber
 1694 026c 00000000 		.word	USBUART_interfaceSettingLast
 1695 0270 00000000 		.word	USBUART_interfaceStatus
 1696              		.cfi_endproc
 1697              	.LFE0:
 1698              		.size	USBUART_HandleStandardRqst, .-USBUART_HandleStandardRqst
 1699              		.section	.rodata.str1.1,"aMS",%progbits,1
 1700              	.LC0:
 1701 0000 30313233 		.ascii	"0123456789ABCDEF\000"
 1701      34353637 
 1701      38394142 
 1701      43444546 
 1701      00
 1702              		.bss
 1703              		.set	.LANCHOR0,. + 0
ARM GAS  C:\Users\chemi\AppData\Local\Temp\cc21dAG8.s 			page 57


 1704              		.type	USBUART_tBuffer.5240, %object
 1705              		.size	USBUART_tBuffer.5240, 2
 1706              	USBUART_tBuffer.5240:
 1707 0000 0000     		.space	2
 1708              		.text
 1709              	.Letext0:
 1710              		.file 2 "Generated_Source\\PSoC5\\cytypes.h"
 1711              		.file 3 "Generated_Source\\PSoC5\\USBUART.h"
 1712              		.file 4 "Generated_Source\\PSoC5\\USBUART_pvt.h"
 1713              		.file 5 "Generated_Source\\PSoC5\\CyLib.h"