ARM GAS  C:\Users\chemi\AppData\Local\Temp\cc21dAG8.s 			page 1


   1              		.syntax unified
   2              		.cpu cortex-m3
   3              		.fpu softvfp
   4              		.eabi_attribute 20, 1
   5              		.eabi_attribute 21, 1
   6              		.eabi_attribute 23, 3
   7              		.eabi_attribute 24, 1
   8              		.eabi_attribute 25, 1
   9              		.eabi_attribute 26, 1
  10              		.eabi_attribute 30, 4
  11              		.eabi_attribute 34, 1
  12              		.eabi_attribute 18, 4
  13              		.thumb
  14              		.syntax unified
  15              		.file	"USBUART_std.c"
  16              		.text
  17              	.Ltext0:
  18              		.cfi_sections	.debug_frame
  19              		.section	.text.USBUART_ReadDieID,"ax",%progbits
  20              		.align	1
  21              		.global	USBUART_ReadDieID
  22              		.thumb
  23              		.thumb_func
  24              		.type	USBUART_ReadDieID, %function
  25              	USBUART_ReadDieID:
  26              	.LFB1:
  27              		.file 1 "Generated_Source\\PSoC5\\USBUART_std.c"
   1:Generated_Source\PSoC5/USBUART_std.c **** /***************************************************************************//**
   2:Generated_Source\PSoC5/USBUART_std.c **** * \file USBUART_std.c
   3:Generated_Source\PSoC5/USBUART_std.c **** * \version 3.20
   4:Generated_Source\PSoC5/USBUART_std.c **** *
   5:Generated_Source\PSoC5/USBUART_std.c **** * \brief
   6:Generated_Source\PSoC5/USBUART_std.c **** *  This file contains the USB Standard request handler.
   7:Generated_Source\PSoC5/USBUART_std.c **** *
   8:Generated_Source\PSoC5/USBUART_std.c **** ********************************************************************************
   9:Generated_Source\PSoC5/USBUART_std.c **** * \copyright
  10:Generated_Source\PSoC5/USBUART_std.c **** * Copyright 2008-2016, Cypress Semiconductor Corporation.  All rights reserved.
  11:Generated_Source\PSoC5/USBUART_std.c **** * You may use this file only in accordance with the license, terms, conditions,
  12:Generated_Source\PSoC5/USBUART_std.c **** * disclaimers, and limitations in the end user license agreement accompanying
  13:Generated_Source\PSoC5/USBUART_std.c **** * the software package with which this file was provided.
  14:Generated_Source\PSoC5/USBUART_std.c **** *******************************************************************************/
  15:Generated_Source\PSoC5/USBUART_std.c **** 
  16:Generated_Source\PSoC5/USBUART_std.c **** #include "USBUART_pvt.h"
  17:Generated_Source\PSoC5/USBUART_std.c **** 
  18:Generated_Source\PSoC5/USBUART_std.c **** /***************************************
  19:Generated_Source\PSoC5/USBUART_std.c **** *   Static data allocation
  20:Generated_Source\PSoC5/USBUART_std.c **** ***************************************/
  21:Generated_Source\PSoC5/USBUART_std.c **** 
  22:Generated_Source\PSoC5/USBUART_std.c **** #if defined(USBUART_ENABLE_FWSN_STRING)
  23:Generated_Source\PSoC5/USBUART_std.c ****     static volatile uint8* USBUART_fwSerialNumberStringDescriptor;
  24:Generated_Source\PSoC5/USBUART_std.c ****     static volatile uint8  USBUART_snStringConfirm = USBUART_FALSE;
  25:Generated_Source\PSoC5/USBUART_std.c **** #endif  /* (USBUART_ENABLE_FWSN_STRING) */
  26:Generated_Source\PSoC5/USBUART_std.c **** 
  27:Generated_Source\PSoC5/USBUART_std.c **** #if defined(USBUART_ENABLE_FWSN_STRING)
  28:Generated_Source\PSoC5/USBUART_std.c ****     /***************************************************************************
  29:Generated_Source\PSoC5/USBUART_std.c ****     * Function Name: USBUART_SerialNumString
  30:Generated_Source\PSoC5/USBUART_std.c ****     ************************************************************************//**
ARM GAS  C:\Users\chemi\AppData\Local\Temp\cc21dAG8.s 			page 2


  31:Generated_Source\PSoC5/USBUART_std.c ****     *
  32:Generated_Source\PSoC5/USBUART_std.c ****     *  This function is available only when the User Call Back option in the 
  33:Generated_Source\PSoC5/USBUART_std.c ****     *  Serial Number String descriptor properties is selected. Application 
  34:Generated_Source\PSoC5/USBUART_std.c ****     *  firmware can provide the source of the USB device serial number string 
  35:Generated_Source\PSoC5/USBUART_std.c ****     *  descriptor during run time. The default string is used if the application 
  36:Generated_Source\PSoC5/USBUART_std.c ****     *  firmware does not use this function or sets the wrong string descriptor.
  37:Generated_Source\PSoC5/USBUART_std.c ****     *
  38:Generated_Source\PSoC5/USBUART_std.c ****     *  \param snString:  Pointer to the user-defined string descriptor. The 
  39:Generated_Source\PSoC5/USBUART_std.c ****     *  string descriptor should meet the Universal Serial Bus Specification 
  40:Generated_Source\PSoC5/USBUART_std.c ****     *  revision 2.0 chapter 9.6.7
  41:Generated_Source\PSoC5/USBUART_std.c ****     *  Offset|Size|Value|Description
  42:Generated_Source\PSoC5/USBUART_std.c ****     *  ------|----|------|---------------------------------
  43:Generated_Source\PSoC5/USBUART_std.c ****     *  0     |1   |N     |Size of this descriptor in bytes
  44:Generated_Source\PSoC5/USBUART_std.c ****     *  1     |1   |0x03  |STRING Descriptor Type
  45:Generated_Source\PSoC5/USBUART_std.c ****     *  2     |N-2 |Number|UNICODE encoded string
  46:Generated_Source\PSoC5/USBUART_std.c ****     *  
  47:Generated_Source\PSoC5/USBUART_std.c ****     * *For example:* uint8 snString[16]={0x0E,0x03,'F',0,'W',0,'S',0,'N',0,'0',0,'1',0};
  48:Generated_Source\PSoC5/USBUART_std.c ****     *
  49:Generated_Source\PSoC5/USBUART_std.c ****     * \reentrant
  50:Generated_Source\PSoC5/USBUART_std.c ****     *  No.
  51:Generated_Source\PSoC5/USBUART_std.c ****     *
  52:Generated_Source\PSoC5/USBUART_std.c ****     ***************************************************************************/
  53:Generated_Source\PSoC5/USBUART_std.c ****     void  USBUART_SerialNumString(uint8 snString[]) 
  54:Generated_Source\PSoC5/USBUART_std.c ****     {
  55:Generated_Source\PSoC5/USBUART_std.c ****         USBUART_snStringConfirm = USBUART_FALSE;
  56:Generated_Source\PSoC5/USBUART_std.c ****         
  57:Generated_Source\PSoC5/USBUART_std.c ****         if (snString != NULL)
  58:Generated_Source\PSoC5/USBUART_std.c ****         {
  59:Generated_Source\PSoC5/USBUART_std.c ****             /* Check descriptor validation */
  60:Generated_Source\PSoC5/USBUART_std.c ****             if ((snString[0u] > 1u) && (snString[1u] == USBUART_DESCR_STRING))
  61:Generated_Source\PSoC5/USBUART_std.c ****             {
  62:Generated_Source\PSoC5/USBUART_std.c ****                 USBUART_fwSerialNumberStringDescriptor = snString;
  63:Generated_Source\PSoC5/USBUART_std.c ****                 USBUART_snStringConfirm = USBUART_TRUE;
  64:Generated_Source\PSoC5/USBUART_std.c ****             }
  65:Generated_Source\PSoC5/USBUART_std.c ****         }
  66:Generated_Source\PSoC5/USBUART_std.c ****     }
  67:Generated_Source\PSoC5/USBUART_std.c **** #endif  /* USBUART_ENABLE_FWSN_STRING */
  68:Generated_Source\PSoC5/USBUART_std.c **** 
  69:Generated_Source\PSoC5/USBUART_std.c **** 
  70:Generated_Source\PSoC5/USBUART_std.c **** /*******************************************************************************
  71:Generated_Source\PSoC5/USBUART_std.c **** * Function Name: USBUART_HandleStandardRqst
  72:Generated_Source\PSoC5/USBUART_std.c **** ****************************************************************************//**
  73:Generated_Source\PSoC5/USBUART_std.c **** *
  74:Generated_Source\PSoC5/USBUART_std.c **** *  This Routine dispatches standard requests
  75:Generated_Source\PSoC5/USBUART_std.c **** *
  76:Generated_Source\PSoC5/USBUART_std.c **** *
  77:Generated_Source\PSoC5/USBUART_std.c **** * \return
  78:Generated_Source\PSoC5/USBUART_std.c **** *  TRUE if request handled.
  79:Generated_Source\PSoC5/USBUART_std.c **** *
  80:Generated_Source\PSoC5/USBUART_std.c **** * \reentrant
  81:Generated_Source\PSoC5/USBUART_std.c **** *  No.
  82:Generated_Source\PSoC5/USBUART_std.c **** *
  83:Generated_Source\PSoC5/USBUART_std.c **** *******************************************************************************/
  84:Generated_Source\PSoC5/USBUART_std.c **** uint8 USBUART_HandleStandardRqst(void) 
  85:Generated_Source\PSoC5/USBUART_std.c **** {
  86:Generated_Source\PSoC5/USBUART_std.c ****     uint8 requestHandled = USBUART_FALSE;
  87:Generated_Source\PSoC5/USBUART_std.c ****     uint8 interfaceNumber;
ARM GAS  C:\Users\chemi\AppData\Local\Temp\cc21dAG8.s 			page 3


  88:Generated_Source\PSoC5/USBUART_std.c ****     uint8 configurationN;
  89:Generated_Source\PSoC5/USBUART_std.c ****     uint8 bmRequestType = USBUART_bmRequestTypeReg;
  90:Generated_Source\PSoC5/USBUART_std.c **** 
  91:Generated_Source\PSoC5/USBUART_std.c **** #if defined(USBUART_ENABLE_STRINGS)
  92:Generated_Source\PSoC5/USBUART_std.c ****     volatile uint8 *pStr = 0u;
  93:Generated_Source\PSoC5/USBUART_std.c ****     #if defined(USBUART_ENABLE_DESCRIPTOR_STRINGS)
  94:Generated_Source\PSoC5/USBUART_std.c ****         uint8 nStr;
  95:Generated_Source\PSoC5/USBUART_std.c ****         uint8 descrLength;
  96:Generated_Source\PSoC5/USBUART_std.c ****     #endif /* (USBUART_ENABLE_DESCRIPTOR_STRINGS) */
  97:Generated_Source\PSoC5/USBUART_std.c **** #endif /* (USBUART_ENABLE_STRINGS) */
  98:Generated_Source\PSoC5/USBUART_std.c ****     
  99:Generated_Source\PSoC5/USBUART_std.c ****     static volatile uint8 USBUART_tBuffer[USBUART_STATUS_LENGTH_MAX];
 100:Generated_Source\PSoC5/USBUART_std.c ****     const T_USBUART_LUT CYCODE *pTmp;
 101:Generated_Source\PSoC5/USBUART_std.c **** 
 102:Generated_Source\PSoC5/USBUART_std.c ****     USBUART_currentTD.count = 0u;
 103:Generated_Source\PSoC5/USBUART_std.c **** 
 104:Generated_Source\PSoC5/USBUART_std.c ****     if (USBUART_RQST_DIR_D2H == (bmRequestType & USBUART_RQST_DIR_MASK))
 105:Generated_Source\PSoC5/USBUART_std.c ****     {
 106:Generated_Source\PSoC5/USBUART_std.c ****         /* Control Read */
 107:Generated_Source\PSoC5/USBUART_std.c ****         switch (USBUART_bRequestReg)
 108:Generated_Source\PSoC5/USBUART_std.c ****         {
 109:Generated_Source\PSoC5/USBUART_std.c ****             case USBUART_GET_DESCRIPTOR:
 110:Generated_Source\PSoC5/USBUART_std.c ****                 if (USBUART_DESCR_DEVICE ==USBUART_wValueHiReg)
 111:Generated_Source\PSoC5/USBUART_std.c ****                 {
 112:Generated_Source\PSoC5/USBUART_std.c ****                     pTmp = USBUART_GetDeviceTablePtr();
 113:Generated_Source\PSoC5/USBUART_std.c ****                     USBUART_currentTD.pData = (volatile uint8 *)pTmp->p_list;
 114:Generated_Source\PSoC5/USBUART_std.c ****                     USBUART_currentTD.count = USBUART_DEVICE_DESCR_LENGTH;
 115:Generated_Source\PSoC5/USBUART_std.c ****                     
 116:Generated_Source\PSoC5/USBUART_std.c ****                     requestHandled  = USBUART_InitControlRead();
 117:Generated_Source\PSoC5/USBUART_std.c ****                 }
 118:Generated_Source\PSoC5/USBUART_std.c ****                 else if (USBUART_DESCR_CONFIG == USBUART_wValueHiReg)
 119:Generated_Source\PSoC5/USBUART_std.c ****                 {
 120:Generated_Source\PSoC5/USBUART_std.c ****                     pTmp = USBUART_GetConfigTablePtr((uint8) USBUART_wValueLoReg);
 121:Generated_Source\PSoC5/USBUART_std.c ****                     
 122:Generated_Source\PSoC5/USBUART_std.c ****                     /* Verify that requested descriptor exists */
 123:Generated_Source\PSoC5/USBUART_std.c ****                     if (pTmp != NULL)
 124:Generated_Source\PSoC5/USBUART_std.c ****                     {
 125:Generated_Source\PSoC5/USBUART_std.c ****                         USBUART_currentTD.pData = (volatile uint8 *)pTmp->p_list;
 126:Generated_Source\PSoC5/USBUART_std.c ****                         USBUART_currentTD.count = (uint16)((uint16)(USBUART_currentTD.pData)[USBUAR
 127:Generated_Source\PSoC5/USBUART_std.c ****                                                                             (USBUART_currentTD.pDat
 128:Generated_Source\PSoC5/USBUART_std.c ****                         requestHandled  = USBUART_InitControlRead();
 129:Generated_Source\PSoC5/USBUART_std.c ****                     }
 130:Generated_Source\PSoC5/USBUART_std.c ****                 }
 131:Generated_Source\PSoC5/USBUART_std.c ****                 
 132:Generated_Source\PSoC5/USBUART_std.c ****             #if(USBUART_BOS_ENABLE)
 133:Generated_Source\PSoC5/USBUART_std.c ****                 else if (USBUART_DESCR_BOS == USBUART_wValueHiReg)
 134:Generated_Source\PSoC5/USBUART_std.c ****                 {
 135:Generated_Source\PSoC5/USBUART_std.c ****                     pTmp = USBUART_GetBOSPtr();
 136:Generated_Source\PSoC5/USBUART_std.c ****                     
 137:Generated_Source\PSoC5/USBUART_std.c ****                     /* Verify that requested descriptor exists */
 138:Generated_Source\PSoC5/USBUART_std.c ****                     if (pTmp != NULL)
 139:Generated_Source\PSoC5/USBUART_std.c ****                     {
 140:Generated_Source\PSoC5/USBUART_std.c ****                         USBUART_currentTD.pData = (volatile uint8 *)pTmp;
 141:Generated_Source\PSoC5/USBUART_std.c ****                         USBUART_currentTD.count = ((uint16)((uint16)(USBUART_currentTD.pData)[USBUA
 142:Generated_Source\PSoC5/USBUART_std.c ****                                                                              (USBUART_currentTD.pDa
 143:Generated_Source\PSoC5/USBUART_std.c ****                         requestHandled  = USBUART_InitControlRead();
 144:Generated_Source\PSoC5/USBUART_std.c ****                     }
ARM GAS  C:\Users\chemi\AppData\Local\Temp\cc21dAG8.s 			page 4


 145:Generated_Source\PSoC5/USBUART_std.c ****                 }
 146:Generated_Source\PSoC5/USBUART_std.c ****             #endif /*(USBUART_BOS_ENABLE)*/
 147:Generated_Source\PSoC5/USBUART_std.c ****             
 148:Generated_Source\PSoC5/USBUART_std.c ****             #if defined(USBUART_ENABLE_STRINGS)
 149:Generated_Source\PSoC5/USBUART_std.c ****                 else if (USBUART_DESCR_STRING == USBUART_wValueHiReg)
 150:Generated_Source\PSoC5/USBUART_std.c ****                 {
 151:Generated_Source\PSoC5/USBUART_std.c ****                 /* Descriptor Strings */
 152:Generated_Source\PSoC5/USBUART_std.c ****                 #if defined(USBUART_ENABLE_DESCRIPTOR_STRINGS)
 153:Generated_Source\PSoC5/USBUART_std.c ****                     nStr = 0u;
 154:Generated_Source\PSoC5/USBUART_std.c ****                     pStr = (volatile uint8 *) &USBUART_STRING_DESCRIPTORS[0u];
 155:Generated_Source\PSoC5/USBUART_std.c ****                     
 156:Generated_Source\PSoC5/USBUART_std.c ****                     while ((USBUART_wValueLoReg > nStr) && (*pStr != 0u))
 157:Generated_Source\PSoC5/USBUART_std.c ****                     {
 158:Generated_Source\PSoC5/USBUART_std.c ****                         /* Read descriptor length from 1st byte */
 159:Generated_Source\PSoC5/USBUART_std.c ****                         descrLength = *pStr;
 160:Generated_Source\PSoC5/USBUART_std.c ****                         /* Move to next string descriptor */
 161:Generated_Source\PSoC5/USBUART_std.c ****                         pStr = &pStr[descrLength];
 162:Generated_Source\PSoC5/USBUART_std.c ****                         nStr++;
 163:Generated_Source\PSoC5/USBUART_std.c ****                     }
 164:Generated_Source\PSoC5/USBUART_std.c ****                 #endif /* (USBUART_ENABLE_DESCRIPTOR_STRINGS) */
 165:Generated_Source\PSoC5/USBUART_std.c ****                 
 166:Generated_Source\PSoC5/USBUART_std.c ****                 /* Microsoft OS String */
 167:Generated_Source\PSoC5/USBUART_std.c ****                 #if defined(USBUART_ENABLE_MSOS_STRING)
 168:Generated_Source\PSoC5/USBUART_std.c ****                     if (USBUART_STRING_MSOS == USBUART_wValueLoReg)
 169:Generated_Source\PSoC5/USBUART_std.c ****                     {
 170:Generated_Source\PSoC5/USBUART_std.c ****                         pStr = (volatile uint8 *)& USBUART_MSOS_DESCRIPTOR[0u];
 171:Generated_Source\PSoC5/USBUART_std.c ****                     }
 172:Generated_Source\PSoC5/USBUART_std.c ****                 #endif /* (USBUART_ENABLE_MSOS_STRING) */
 173:Generated_Source\PSoC5/USBUART_std.c ****                 
 174:Generated_Source\PSoC5/USBUART_std.c ****                 /* SN string */
 175:Generated_Source\PSoC5/USBUART_std.c ****                 #if defined(USBUART_ENABLE_SN_STRING)
 176:Generated_Source\PSoC5/USBUART_std.c ****                     if ((USBUART_wValueLoReg != 0u) && 
 177:Generated_Source\PSoC5/USBUART_std.c ****                         (USBUART_wValueLoReg == USBUART_DEVICE0_DESCR[USBUART_DEVICE_DESCR_SN_SHIFT
 178:Generated_Source\PSoC5/USBUART_std.c ****                     {
 179:Generated_Source\PSoC5/USBUART_std.c ****                     #if defined(USBUART_ENABLE_IDSN_STRING)
 180:Generated_Source\PSoC5/USBUART_std.c ****                         /* Read DIE ID and generate string descriptor in RAM */
 181:Generated_Source\PSoC5/USBUART_std.c ****                         USBUART_ReadDieID(USBUART_idSerialNumberStringDescriptor);
 182:Generated_Source\PSoC5/USBUART_std.c ****                         pStr = USBUART_idSerialNumberStringDescriptor;
 183:Generated_Source\PSoC5/USBUART_std.c ****                     #elif defined(USBUART_ENABLE_FWSN_STRING)
 184:Generated_Source\PSoC5/USBUART_std.c ****                         
 185:Generated_Source\PSoC5/USBUART_std.c ****                         if(USBUART_snStringConfirm != USBUART_FALSE)
 186:Generated_Source\PSoC5/USBUART_std.c ****                         {
 187:Generated_Source\PSoC5/USBUART_std.c ****                             pStr = USBUART_fwSerialNumberStringDescriptor;
 188:Generated_Source\PSoC5/USBUART_std.c ****                         }
 189:Generated_Source\PSoC5/USBUART_std.c ****                         else
 190:Generated_Source\PSoC5/USBUART_std.c ****                         {
 191:Generated_Source\PSoC5/USBUART_std.c ****                             pStr = (volatile uint8 *)&USBUART_SN_STRING_DESCRIPTOR[0u];
 192:Generated_Source\PSoC5/USBUART_std.c ****                         }
 193:Generated_Source\PSoC5/USBUART_std.c ****                     #else
 194:Generated_Source\PSoC5/USBUART_std.c ****                         pStr = (volatile uint8 *)&USBUART_SN_STRING_DESCRIPTOR[0u];
 195:Generated_Source\PSoC5/USBUART_std.c ****                     #endif  /* (USBUART_ENABLE_IDSN_STRING) */
 196:Generated_Source\PSoC5/USBUART_std.c ****                     }
 197:Generated_Source\PSoC5/USBUART_std.c ****                 #endif /* (USBUART_ENABLE_SN_STRING) */
 198:Generated_Source\PSoC5/USBUART_std.c ****                 
 199:Generated_Source\PSoC5/USBUART_std.c ****                     if (*pStr != 0u)
 200:Generated_Source\PSoC5/USBUART_std.c ****                     {
 201:Generated_Source\PSoC5/USBUART_std.c ****                         USBUART_currentTD.count = *pStr;
ARM GAS  C:\Users\chemi\AppData\Local\Temp\cc21dAG8.s 			page 5


 202:Generated_Source\PSoC5/USBUART_std.c ****                         USBUART_currentTD.pData = pStr;
 203:Generated_Source\PSoC5/USBUART_std.c ****                         requestHandled  = USBUART_InitControlRead();
 204:Generated_Source\PSoC5/USBUART_std.c ****                     }
 205:Generated_Source\PSoC5/USBUART_std.c ****                 }
 206:Generated_Source\PSoC5/USBUART_std.c ****             #endif /*  USBUART_ENABLE_STRINGS */
 207:Generated_Source\PSoC5/USBUART_std.c ****                 else
 208:Generated_Source\PSoC5/USBUART_std.c ****                 {
 209:Generated_Source\PSoC5/USBUART_std.c ****                     requestHandled = USBUART_DispatchClassRqst();
 210:Generated_Source\PSoC5/USBUART_std.c ****                 }
 211:Generated_Source\PSoC5/USBUART_std.c ****                 break;
 212:Generated_Source\PSoC5/USBUART_std.c ****                 
 213:Generated_Source\PSoC5/USBUART_std.c ****             case USBUART_GET_STATUS:
 214:Generated_Source\PSoC5/USBUART_std.c ****                 switch (bmRequestType & USBUART_RQST_RCPT_MASK)
 215:Generated_Source\PSoC5/USBUART_std.c ****                 {
 216:Generated_Source\PSoC5/USBUART_std.c ****                     case USBUART_RQST_RCPT_EP:
 217:Generated_Source\PSoC5/USBUART_std.c ****                         USBUART_currentTD.count = USBUART_EP_STATUS_LENGTH;
 218:Generated_Source\PSoC5/USBUART_std.c ****                         USBUART_tBuffer[0u]     = USBUART_EP[USBUART_wIndexLoReg & USBUART_DIR_UNUS
 219:Generated_Source\PSoC5/USBUART_std.c ****                         USBUART_tBuffer[1u]     = 0u;
 220:Generated_Source\PSoC5/USBUART_std.c ****                         USBUART_currentTD.pData = &USBUART_tBuffer[0u];
 221:Generated_Source\PSoC5/USBUART_std.c ****                         
 222:Generated_Source\PSoC5/USBUART_std.c ****                         requestHandled  = USBUART_InitControlRead();
 223:Generated_Source\PSoC5/USBUART_std.c ****                         break;
 224:Generated_Source\PSoC5/USBUART_std.c ****                     case USBUART_RQST_RCPT_DEV:
 225:Generated_Source\PSoC5/USBUART_std.c ****                         USBUART_currentTD.count = USBUART_DEVICE_STATUS_LENGTH;
 226:Generated_Source\PSoC5/USBUART_std.c ****                         USBUART_tBuffer[0u]     = USBUART_deviceStatus;
 227:Generated_Source\PSoC5/USBUART_std.c ****                         USBUART_tBuffer[1u]     = 0u;
 228:Generated_Source\PSoC5/USBUART_std.c ****                         USBUART_currentTD.pData = &USBUART_tBuffer[0u];
 229:Generated_Source\PSoC5/USBUART_std.c ****                         
 230:Generated_Source\PSoC5/USBUART_std.c ****                         requestHandled  = USBUART_InitControlRead();
 231:Generated_Source\PSoC5/USBUART_std.c ****                         break;
 232:Generated_Source\PSoC5/USBUART_std.c ****                     default:    /* requestHandled is initialized as FALSE by default */
 233:Generated_Source\PSoC5/USBUART_std.c ****                         break;
 234:Generated_Source\PSoC5/USBUART_std.c ****                 }
 235:Generated_Source\PSoC5/USBUART_std.c ****                 break;
 236:Generated_Source\PSoC5/USBUART_std.c ****                 
 237:Generated_Source\PSoC5/USBUART_std.c ****             case USBUART_GET_CONFIGURATION:
 238:Generated_Source\PSoC5/USBUART_std.c ****                 USBUART_currentTD.count = 1u;
 239:Generated_Source\PSoC5/USBUART_std.c ****                 USBUART_currentTD.pData = (volatile uint8 *) &USBUART_configuration;
 240:Generated_Source\PSoC5/USBUART_std.c ****                 requestHandled  = USBUART_InitControlRead();
 241:Generated_Source\PSoC5/USBUART_std.c ****                 break;
 242:Generated_Source\PSoC5/USBUART_std.c ****                 
 243:Generated_Source\PSoC5/USBUART_std.c ****             case USBUART_GET_INTERFACE:
 244:Generated_Source\PSoC5/USBUART_std.c ****                 USBUART_currentTD.count = 1u;
 245:Generated_Source\PSoC5/USBUART_std.c ****                 USBUART_currentTD.pData = (volatile uint8 *) &USBUART_interfaceSetting[USBUART_wInd
 246:Generated_Source\PSoC5/USBUART_std.c ****                 requestHandled  = USBUART_InitControlRead();
 247:Generated_Source\PSoC5/USBUART_std.c ****                 break;
 248:Generated_Source\PSoC5/USBUART_std.c ****                 
 249:Generated_Source\PSoC5/USBUART_std.c ****             default: /* requestHandled is initialized as FALSE by default */
 250:Generated_Source\PSoC5/USBUART_std.c ****                 break;
 251:Generated_Source\PSoC5/USBUART_std.c ****         }
 252:Generated_Source\PSoC5/USBUART_std.c ****     }
 253:Generated_Source\PSoC5/USBUART_std.c ****     else
 254:Generated_Source\PSoC5/USBUART_std.c ****     {
 255:Generated_Source\PSoC5/USBUART_std.c ****         /* Control Write */
 256:Generated_Source\PSoC5/USBUART_std.c ****         switch (USBUART_bRequestReg)
 257:Generated_Source\PSoC5/USBUART_std.c ****         {
 258:Generated_Source\PSoC5/USBUART_std.c ****             case USBUART_SET_ADDRESS:
ARM GAS  C:\Users\chemi\AppData\Local\Temp\cc21dAG8.s 			page 6


 259:Generated_Source\PSoC5/USBUART_std.c ****                 /* Store address to be set in USBUART_NoDataControlStatusStage(). */
 260:Generated_Source\PSoC5/USBUART_std.c ****                 USBUART_deviceAddress = (uint8) USBUART_wValueLoReg;
 261:Generated_Source\PSoC5/USBUART_std.c ****                 requestHandled = USBUART_InitNoDataControlTransfer();
 262:Generated_Source\PSoC5/USBUART_std.c ****                 break;
 263:Generated_Source\PSoC5/USBUART_std.c ****                 
 264:Generated_Source\PSoC5/USBUART_std.c ****             case USBUART_SET_CONFIGURATION:
 265:Generated_Source\PSoC5/USBUART_std.c ****                 configurationN = USBUART_wValueLoReg;
 266:Generated_Source\PSoC5/USBUART_std.c ****                 
 267:Generated_Source\PSoC5/USBUART_std.c ****                 /* Verify that configuration descriptor exists */
 268:Generated_Source\PSoC5/USBUART_std.c ****                 if(configurationN > 0u)
 269:Generated_Source\PSoC5/USBUART_std.c ****                 {
 270:Generated_Source\PSoC5/USBUART_std.c ****                     pTmp = USBUART_GetConfigTablePtr((uint8) configurationN - 1u);
 271:Generated_Source\PSoC5/USBUART_std.c ****                 }
 272:Generated_Source\PSoC5/USBUART_std.c ****                 
 273:Generated_Source\PSoC5/USBUART_std.c ****                 /* Responds with a Request Error when configuration number is invalid */
 274:Generated_Source\PSoC5/USBUART_std.c ****                 if (((configurationN > 0u) && (pTmp != NULL)) || (configurationN == 0u))
 275:Generated_Source\PSoC5/USBUART_std.c ****                 {
 276:Generated_Source\PSoC5/USBUART_std.c ****                     /* Set new configuration if it has been changed */
 277:Generated_Source\PSoC5/USBUART_std.c ****                     if(configurationN != USBUART_configuration)
 278:Generated_Source\PSoC5/USBUART_std.c ****                     {
 279:Generated_Source\PSoC5/USBUART_std.c ****                         USBUART_configuration = (uint8) configurationN;
 280:Generated_Source\PSoC5/USBUART_std.c ****                         USBUART_configurationChanged = USBUART_TRUE;
 281:Generated_Source\PSoC5/USBUART_std.c ****                         USBUART_Config(USBUART_TRUE);
 282:Generated_Source\PSoC5/USBUART_std.c ****                     }
 283:Generated_Source\PSoC5/USBUART_std.c ****                     requestHandled = USBUART_InitNoDataControlTransfer();
 284:Generated_Source\PSoC5/USBUART_std.c ****                 }
 285:Generated_Source\PSoC5/USBUART_std.c ****                 break;
 286:Generated_Source\PSoC5/USBUART_std.c ****                 
 287:Generated_Source\PSoC5/USBUART_std.c ****             case USBUART_SET_INTERFACE:
 288:Generated_Source\PSoC5/USBUART_std.c ****                 if (0u != USBUART_ValidateAlternateSetting())
 289:Generated_Source\PSoC5/USBUART_std.c ****                 {
 290:Generated_Source\PSoC5/USBUART_std.c ****                     /* Get interface number from the request. */
 291:Generated_Source\PSoC5/USBUART_std.c ****                     interfaceNumber = USBUART_wIndexLoReg;
 292:Generated_Source\PSoC5/USBUART_std.c ****                     USBUART_interfaceNumber = (uint8) USBUART_wIndexLoReg;
 293:Generated_Source\PSoC5/USBUART_std.c ****                      
 294:Generated_Source\PSoC5/USBUART_std.c ****                     /* Check if alternate settings is changed for interface. */
 295:Generated_Source\PSoC5/USBUART_std.c ****                     if (USBUART_interfaceSettingLast[interfaceNumber] != USBUART_interfaceSetting[i
 296:Generated_Source\PSoC5/USBUART_std.c ****                     {
 297:Generated_Source\PSoC5/USBUART_std.c ****                         USBUART_configurationChanged = USBUART_TRUE;
 298:Generated_Source\PSoC5/USBUART_std.c ****                     
 299:Generated_Source\PSoC5/USBUART_std.c ****                         /* Change alternate setting for the endpoints. */
 300:Generated_Source\PSoC5/USBUART_std.c ****                     #if (USBUART_EP_MANAGEMENT_MANUAL && USBUART_EP_ALLOC_DYNAMIC)
 301:Generated_Source\PSoC5/USBUART_std.c ****                         USBUART_Config(USBUART_FALSE);
 302:Generated_Source\PSoC5/USBUART_std.c ****                     #else
 303:Generated_Source\PSoC5/USBUART_std.c ****                         USBUART_ConfigAltChanged();
 304:Generated_Source\PSoC5/USBUART_std.c ****                     #endif /* (USBUART_EP_MANAGEMENT_MANUAL && USBUART_EP_ALLOC_DYNAMIC) */
 305:Generated_Source\PSoC5/USBUART_std.c ****                     }
 306:Generated_Source\PSoC5/USBUART_std.c ****                     
 307:Generated_Source\PSoC5/USBUART_std.c ****                     requestHandled = USBUART_InitNoDataControlTransfer();
 308:Generated_Source\PSoC5/USBUART_std.c ****                 }
 309:Generated_Source\PSoC5/USBUART_std.c ****                 break;
 310:Generated_Source\PSoC5/USBUART_std.c ****                 
 311:Generated_Source\PSoC5/USBUART_std.c ****             case USBUART_CLEAR_FEATURE:
 312:Generated_Source\PSoC5/USBUART_std.c ****                 switch (bmRequestType & USBUART_RQST_RCPT_MASK)
 313:Generated_Source\PSoC5/USBUART_std.c ****                 {
 314:Generated_Source\PSoC5/USBUART_std.c ****                     case USBUART_RQST_RCPT_EP:
 315:Generated_Source\PSoC5/USBUART_std.c ****                         if (USBUART_wValueLoReg == USBUART_ENDPOINT_HALT)
ARM GAS  C:\Users\chemi\AppData\Local\Temp\cc21dAG8.s 			page 7


 316:Generated_Source\PSoC5/USBUART_std.c ****                         {
 317:Generated_Source\PSoC5/USBUART_std.c ****                             requestHandled = USBUART_ClearEndpointHalt();
 318:Generated_Source\PSoC5/USBUART_std.c ****                         }
 319:Generated_Source\PSoC5/USBUART_std.c ****                         break;
 320:Generated_Source\PSoC5/USBUART_std.c ****                     case USBUART_RQST_RCPT_DEV:
 321:Generated_Source\PSoC5/USBUART_std.c ****                         /* Clear device REMOTE_WAKEUP */
 322:Generated_Source\PSoC5/USBUART_std.c ****                         if (USBUART_wValueLoReg == USBUART_DEVICE_REMOTE_WAKEUP)
 323:Generated_Source\PSoC5/USBUART_std.c ****                         {
 324:Generated_Source\PSoC5/USBUART_std.c ****                             USBUART_deviceStatus &= (uint8)~USBUART_DEVICE_STATUS_REMOTE_WAKEUP;
 325:Generated_Source\PSoC5/USBUART_std.c ****                             requestHandled = USBUART_InitNoDataControlTransfer();
 326:Generated_Source\PSoC5/USBUART_std.c ****                         }
 327:Generated_Source\PSoC5/USBUART_std.c ****                         break;
 328:Generated_Source\PSoC5/USBUART_std.c ****                     case USBUART_RQST_RCPT_IFC:
 329:Generated_Source\PSoC5/USBUART_std.c ****                         /* Validate interfaceNumber */
 330:Generated_Source\PSoC5/USBUART_std.c ****                         if (USBUART_wIndexLoReg < USBUART_MAX_INTERFACES_NUMBER)
 331:Generated_Source\PSoC5/USBUART_std.c ****                         {
 332:Generated_Source\PSoC5/USBUART_std.c ****                             USBUART_interfaceStatus[USBUART_wIndexLoReg] &= (uint8) ~USBUART_wValue
 333:Generated_Source\PSoC5/USBUART_std.c ****                             requestHandled = USBUART_InitNoDataControlTransfer();
 334:Generated_Source\PSoC5/USBUART_std.c ****                         }
 335:Generated_Source\PSoC5/USBUART_std.c ****                         break;
 336:Generated_Source\PSoC5/USBUART_std.c ****                     default:    /* requestHandled is initialized as FALSE by default */
 337:Generated_Source\PSoC5/USBUART_std.c ****                         break;
 338:Generated_Source\PSoC5/USBUART_std.c ****                 }
 339:Generated_Source\PSoC5/USBUART_std.c ****                 break;
 340:Generated_Source\PSoC5/USBUART_std.c ****                 
 341:Generated_Source\PSoC5/USBUART_std.c ****             case USBUART_SET_FEATURE:
 342:Generated_Source\PSoC5/USBUART_std.c ****                 switch (bmRequestType & USBUART_RQST_RCPT_MASK)
 343:Generated_Source\PSoC5/USBUART_std.c ****                 {
 344:Generated_Source\PSoC5/USBUART_std.c ****                     case USBUART_RQST_RCPT_EP:
 345:Generated_Source\PSoC5/USBUART_std.c ****                         if (USBUART_wValueLoReg == USBUART_ENDPOINT_HALT)
 346:Generated_Source\PSoC5/USBUART_std.c ****                         {
 347:Generated_Source\PSoC5/USBUART_std.c ****                             requestHandled = USBUART_SetEndpointHalt();
 348:Generated_Source\PSoC5/USBUART_std.c ****                         }
 349:Generated_Source\PSoC5/USBUART_std.c ****                         break;
 350:Generated_Source\PSoC5/USBUART_std.c ****                         
 351:Generated_Source\PSoC5/USBUART_std.c ****                     case USBUART_RQST_RCPT_DEV:
 352:Generated_Source\PSoC5/USBUART_std.c ****                         /* Set device REMOTE_WAKEUP */
 353:Generated_Source\PSoC5/USBUART_std.c ****                         if (USBUART_wValueLoReg == USBUART_DEVICE_REMOTE_WAKEUP)
 354:Generated_Source\PSoC5/USBUART_std.c ****                         {
 355:Generated_Source\PSoC5/USBUART_std.c ****                             USBUART_deviceStatus |= USBUART_DEVICE_STATUS_REMOTE_WAKEUP;
 356:Generated_Source\PSoC5/USBUART_std.c ****                             requestHandled = USBUART_InitNoDataControlTransfer();
 357:Generated_Source\PSoC5/USBUART_std.c ****                         }
 358:Generated_Source\PSoC5/USBUART_std.c ****                         break;
 359:Generated_Source\PSoC5/USBUART_std.c ****                         
 360:Generated_Source\PSoC5/USBUART_std.c ****                     case USBUART_RQST_RCPT_IFC:
 361:Generated_Source\PSoC5/USBUART_std.c ****                         /* Validate interfaceNumber */
 362:Generated_Source\PSoC5/USBUART_std.c ****                         if (USBUART_wIndexLoReg < USBUART_MAX_INTERFACES_NUMBER)
 363:Generated_Source\PSoC5/USBUART_std.c ****                         {
 364:Generated_Source\PSoC5/USBUART_std.c ****                             USBUART_interfaceStatus[USBUART_wIndexLoReg] &= (uint8) ~USBUART_wValue
 365:Generated_Source\PSoC5/USBUART_std.c ****                             requestHandled = USBUART_InitNoDataControlTransfer();
 366:Generated_Source\PSoC5/USBUART_std.c ****                         }
 367:Generated_Source\PSoC5/USBUART_std.c ****                         break;
 368:Generated_Source\PSoC5/USBUART_std.c ****                     
 369:Generated_Source\PSoC5/USBUART_std.c ****                     default:    /* requestHandled is initialized as FALSE by default */
 370:Generated_Source\PSoC5/USBUART_std.c ****                         break;
 371:Generated_Source\PSoC5/USBUART_std.c ****                 }
 372:Generated_Source\PSoC5/USBUART_std.c ****                 break;
ARM GAS  C:\Users\chemi\AppData\Local\Temp\cc21dAG8.s 			page 8


 373:Generated_Source\PSoC5/USBUART_std.c ****                 
 374:Generated_Source\PSoC5/USBUART_std.c ****             default:    /* requestHandled is initialized as FALSE by default */
 375:Generated_Source\PSoC5/USBUART_std.c ****                 break;
 376:Generated_Source\PSoC5/USBUART_std.c ****         }
 377:Generated_Source\PSoC5/USBUART_std.c ****     }
 378:Generated_Source\PSoC5/USBUART_std.c ****     
 379:Generated_Source\PSoC5/USBUART_std.c ****     return (requestHandled);
 380:Generated_Source\PSoC5/USBUART_std.c **** }
 381:Generated_Source\PSoC5/USBUART_std.c **** 
 382:Generated_Source\PSoC5/USBUART_std.c **** 
 383:Generated_Source\PSoC5/USBUART_std.c **** #if defined(USBUART_ENABLE_IDSN_STRING)
 384:Generated_Source\PSoC5/USBUART_std.c ****     /***************************************************************************
 385:Generated_Source\PSoC5/USBUART_std.c ****     * Function Name: USBUART_ReadDieID
 386:Generated_Source\PSoC5/USBUART_std.c ****     ************************************************************************//**
 387:Generated_Source\PSoC5/USBUART_std.c ****     *
 388:Generated_Source\PSoC5/USBUART_std.c ****     *  This routine read Die ID and generate Serial Number string descriptor.
 389:Generated_Source\PSoC5/USBUART_std.c ****     *
 390:Generated_Source\PSoC5/USBUART_std.c ****     *  \param descr:  pointer on string descriptor. This string size has to be equal or
 391:Generated_Source\PSoC5/USBUART_std.c ****     *          greater than USBUART_IDSN_DESCR_LENGTH.
 392:Generated_Source\PSoC5/USBUART_std.c ****     *
 393:Generated_Source\PSoC5/USBUART_std.c ****     *
 394:Generated_Source\PSoC5/USBUART_std.c ****     * \reentrant
 395:Generated_Source\PSoC5/USBUART_std.c ****     *  No.
 396:Generated_Source\PSoC5/USBUART_std.c ****     *
 397:Generated_Source\PSoC5/USBUART_std.c ****     ***************************************************************************/
 398:Generated_Source\PSoC5/USBUART_std.c ****     void USBUART_ReadDieID(uint8 descr[]) 
 399:Generated_Source\PSoC5/USBUART_std.c ****     {
  28              		.loc 1 399 0
  29              		.cfi_startproc
  30              		@ args = 0, pretend = 0, frame = 32
  31              		@ frame_needed = 0, uses_anonymous_args = 0
  32              	.LVL0:
  33 0000 70B5     		push	{r4, r5, r6, lr}
  34              		.cfi_def_cfa_offset 16
  35              		.cfi_offset 4, -16
  36              		.cfi_offset 5, -12
  37              		.cfi_offset 6, -8
  38              		.cfi_offset 14, -4
  39 0002 0446     		mov	r4, r0
 400:Generated_Source\PSoC5/USBUART_std.c ****         const char8 CYCODE hex[] = "0123456789ABCDEF";
  40              		.loc 1 400 0
  41 0004 184B     		ldr	r3, .L9
 399:Generated_Source\PSoC5/USBUART_std.c ****         const char8 CYCODE hex[] = "0123456789ABCDEF";
  42              		.loc 1 399 0
  43 0006 88B0     		sub	sp, sp, #32
  44              		.cfi_def_cfa_offset 48
  45              		.loc 1 400 0
  46 0008 03AA     		add	r2, sp, #12
  47 000a 03F11006 		add	r6, r3, #16
  48              	.LVL1:
  49              	.L2:
  50 000e 1546     		mov	r5, r2
  51 0010 1868     		ldr	r0, [r3]	@ unaligned
  52 0012 5968     		ldr	r1, [r3, #4]	@ unaligned
  53 0014 0833     		adds	r3, r3, #8
  54 0016 03C5     		stmia	r5!, {r0, r1}
  55 0018 B342     		cmp	r3, r6
ARM GAS  C:\Users\chemi\AppData\Local\Temp\cc21dAG8.s 			page 9


  56 001a 2A46     		mov	r2, r5
  57 001c F7D1     		bne	.L2
  58 001e 1B78     		ldrb	r3, [r3]	@ zero_extendqisi2
  59 0020 2B70     		strb	r3, [r5]
  60              	.LVL2:
 401:Generated_Source\PSoC5/USBUART_std.c ****         uint8 i;
 402:Generated_Source\PSoC5/USBUART_std.c ****         uint8 j = 0u;
 403:Generated_Source\PSoC5/USBUART_std.c ****         uint8 uniqueId[8u];
 404:Generated_Source\PSoC5/USBUART_std.c **** 
 405:Generated_Source\PSoC5/USBUART_std.c ****         if (NULL != descr)
  61              		.loc 1 405 0
  62 0022 FCB1     		cbz	r4, .L1
 406:Generated_Source\PSoC5/USBUART_std.c ****         {
 407:Generated_Source\PSoC5/USBUART_std.c ****             /* Initialize descriptor header. */
 408:Generated_Source\PSoC5/USBUART_std.c ****             descr[0u] = USBUART_IDSN_DESCR_LENGTH;
  63              		.loc 1 408 0
  64 0024 2223     		movs	r3, #34
  65 0026 2370     		strb	r3, [r4]
 409:Generated_Source\PSoC5/USBUART_std.c ****             descr[1u] = USBUART_DESCR_STRING;
 410:Generated_Source\PSoC5/USBUART_std.c ****             
 411:Generated_Source\PSoC5/USBUART_std.c ****             /* Unique ID size is 8 bytes. */
 412:Generated_Source\PSoC5/USBUART_std.c ****             CyGetUniqueId((uint32 *) uniqueId);
  66              		.loc 1 412 0
  67 0028 01AD     		add	r5, sp, #4
 409:Generated_Source\PSoC5/USBUART_std.c ****             descr[1u] = USBUART_DESCR_STRING;
  68              		.loc 1 409 0
  69 002a 0323     		movs	r3, #3
  70              		.loc 1 412 0
  71 002c 2846     		mov	r0, r5
 409:Generated_Source\PSoC5/USBUART_std.c ****             descr[1u] = USBUART_DESCR_STRING;
  72              		.loc 1 409 0
  73 002e 6370     		strb	r3, [r4, #1]
  74              		.loc 1 412 0
  75 0030 FFF7FEFF 		bl	CyGetUniqueId
  76              	.LVL3:
  77 0034 0022     		movs	r2, #0
  78 0036 2046     		mov	r0, r4
 413:Generated_Source\PSoC5/USBUART_std.c **** 
 414:Generated_Source\PSoC5/USBUART_std.c ****             /* Fill descriptor with unique device ID. */
 415:Generated_Source\PSoC5/USBUART_std.c ****             for (i = 2u; i < USBUART_IDSN_DESCR_LENGTH; i += 4u)
 416:Generated_Source\PSoC5/USBUART_std.c ****             {
 417:Generated_Source\PSoC5/USBUART_std.c ****                 descr[i]      = (uint8) hex[(uniqueId[j] >> 4u)];
 418:Generated_Source\PSoC5/USBUART_std.c ****                 descr[i + 1u] = 0u;
  79              		.loc 1 418 0
  80 0038 1146     		mov	r1, r2
  81              	.LVL4:
  82              	.L4:
 417:Generated_Source\PSoC5/USBUART_std.c ****                 descr[i + 1u] = 0u;
  83              		.loc 1 417 0 discriminator 3
  84 003a AB5C     		ldrb	r3, [r5, r2]	@ zero_extendqisi2
  85 003c 08AC     		add	r4, sp, #32
  86 003e 04EB1314 		add	r4, r4, r3, lsr #4
  87 0042 14F8144C 		ldrb	r4, [r4, #-20]	@ zero_extendqisi2
 419:Generated_Source\PSoC5/USBUART_std.c ****                 descr[i + 2u] = (uint8) hex[(uniqueId[j] & 0x0Fu)];
  88              		.loc 1 419 0 discriminator 3
  89 0046 03F00F03 		and	r3, r3, #15
 417:Generated_Source\PSoC5/USBUART_std.c ****                 descr[i + 1u] = 0u;
ARM GAS  C:\Users\chemi\AppData\Local\Temp\cc21dAG8.s 			page 10


  90              		.loc 1 417 0 discriminator 3
  91 004a 8470     		strb	r4, [r0, #2]
  92              		.loc 1 419 0 discriminator 3
  93 004c 08AC     		add	r4, sp, #32
  94 004e 2344     		add	r3, r3, r4
  95 0050 13F8143C 		ldrb	r3, [r3, #-20]	@ zero_extendqisi2
  96 0054 0132     		adds	r2, r2, #1
  97              	.LVL5:
 415:Generated_Source\PSoC5/USBUART_std.c ****             {
  98              		.loc 1 415 0 discriminator 3
  99 0056 082A     		cmp	r2, #8
 418:Generated_Source\PSoC5/USBUART_std.c ****                 descr[i + 2u] = (uint8) hex[(uniqueId[j] & 0x0Fu)];
 100              		.loc 1 418 0 discriminator 3
 101 0058 C170     		strb	r1, [r0, #3]
 102              		.loc 1 419 0 discriminator 3
 103 005a 0371     		strb	r3, [r0, #4]
 420:Generated_Source\PSoC5/USBUART_std.c ****                 descr[i + 3u] = 0u;
 104              		.loc 1 420 0 discriminator 3
 105 005c 4171     		strb	r1, [r0, #5]
 106              	.LVL6:
 107 005e 00F10400 		add	r0, r0, #4
 108              	.LVL7:
 415:Generated_Source\PSoC5/USBUART_std.c ****             {
 109              		.loc 1 415 0 discriminator 3
 110 0062 EAD1     		bne	.L4
 111              	.L1:
 421:Generated_Source\PSoC5/USBUART_std.c ****                 ++j;
 422:Generated_Source\PSoC5/USBUART_std.c ****             }
 423:Generated_Source\PSoC5/USBUART_std.c ****         }
 424:Generated_Source\PSoC5/USBUART_std.c ****     }
 112              		.loc 1 424 0
 113 0064 08B0     		add	sp, sp, #32
 114              		.cfi_def_cfa_offset 16
 115              		@ sp needed
 116 0066 70BD     		pop	{r4, r5, r6, pc}
 117              	.L10:
 118              		.align	2
 119              	.L9:
 120 0068 00000000 		.word	.LC0
 121              		.cfi_endproc
 122              	.LFE1:
 123              		.size	USBUART_ReadDieID, .-USBUART_ReadDieID
 124              		.section	.text.USBUART_ConfigReg,"ax",%progbits
 125              		.align	1
 126              		.global	USBUART_ConfigReg
 127              		.thumb
 128              		.thumb_func
 129              		.type	USBUART_ConfigReg, %function
 130              	USBUART_ConfigReg:
 131              	.LFB2:
 425:Generated_Source\PSoC5/USBUART_std.c **** #endif /* (USBUART_ENABLE_IDSN_STRING) */
 426:Generated_Source\PSoC5/USBUART_std.c **** 
 427:Generated_Source\PSoC5/USBUART_std.c **** 
 428:Generated_Source\PSoC5/USBUART_std.c **** /*******************************************************************************
 429:Generated_Source\PSoC5/USBUART_std.c **** * Function Name: USBUART_ConfigReg
 430:Generated_Source\PSoC5/USBUART_std.c **** ****************************************************************************//**
 431:Generated_Source\PSoC5/USBUART_std.c **** *
ARM GAS  C:\Users\chemi\AppData\Local\Temp\cc21dAG8.s 			page 11


 432:Generated_Source\PSoC5/USBUART_std.c **** *  This routine configures hardware registers from the variables.
 433:Generated_Source\PSoC5/USBUART_std.c **** *  It is called from USBUART_Config() function and from RestoreConfig
 434:Generated_Source\PSoC5/USBUART_std.c **** *  after Wakeup.
 435:Generated_Source\PSoC5/USBUART_std.c **** *
 436:Generated_Source\PSoC5/USBUART_std.c **** *******************************************************************************/
 437:Generated_Source\PSoC5/USBUART_std.c **** void USBUART_ConfigReg(void) 
 438:Generated_Source\PSoC5/USBUART_std.c **** {
 132              		.loc 1 438 0
 133              		.cfi_startproc
 134              		@ args = 0, pretend = 0, frame = 0
 135              		@ frame_needed = 0, uses_anonymous_args = 0
 136              	.LVL8:
 137 0000 2DE9F041 		push	{r4, r5, r6, r7, r8, lr}
 138              		.cfi_def_cfa_offset 24
 139              		.cfi_offset 4, -24
 140              		.cfi_offset 5, -20
 141              		.cfi_offset 6, -16
 142              		.cfi_offset 7, -12
 143              		.cfi_offset 8, -8
 144              		.cfi_offset 14, -4
 439:Generated_Source\PSoC5/USBUART_std.c ****     uint8 ep;
 440:Generated_Source\PSoC5/USBUART_std.c **** 
 441:Generated_Source\PSoC5/USBUART_std.c **** #if (USBUART_EP_MANAGEMENT_DMA_AUTO)
 442:Generated_Source\PSoC5/USBUART_std.c ****     uint8 epType = 0u;
 443:Generated_Source\PSoC5/USBUART_std.c **** #endif /* (USBUART_EP_MANAGEMENT_DMA_AUTO) */
 444:Generated_Source\PSoC5/USBUART_std.c **** 
 445:Generated_Source\PSoC5/USBUART_std.c ****     /* Go thought all endpoints and set hardware configuration */
 446:Generated_Source\PSoC5/USBUART_std.c ****     for (ep = USBUART_EP1; ep < USBUART_MAX_EP; ++ep)
 447:Generated_Source\PSoC5/USBUART_std.c ****     {
 448:Generated_Source\PSoC5/USBUART_std.c ****         USBUART_ARB_EP_BASE.arbEp[ep].epCfg = USBUART_ARB_EPX_CFG_DEFAULT;
 449:Generated_Source\PSoC5/USBUART_std.c ****         
 450:Generated_Source\PSoC5/USBUART_std.c ****     #if (USBUART_EP_MANAGEMENT_DMA)
 451:Generated_Source\PSoC5/USBUART_std.c ****         /* Enable arbiter endpoint interrupt sources */
 452:Generated_Source\PSoC5/USBUART_std.c ****         USBUART_ARB_EP_BASE.arbEp[ep].epIntEn = USBUART_ARB_EPX_INT_MASK;
 453:Generated_Source\PSoC5/USBUART_std.c ****     #endif /* (USBUART_EP_MANAGEMENT_DMA) */
 454:Generated_Source\PSoC5/USBUART_std.c ****     
 455:Generated_Source\PSoC5/USBUART_std.c ****         if (USBUART_EP[ep].epMode != USBUART_MODE_DISABLE)
 145              		.loc 1 455 0
 146 0004 1A4D     		ldr	r5, .L17
 438:Generated_Source\PSoC5/USBUART_std.c ****     uint8 ep;
 147              		.loc 1 438 0
 148 0006 0122     		movs	r2, #1
 149 0008 2E46     		mov	r6, r5
 448:Generated_Source\PSoC5/USBUART_std.c ****         
 150              		.loc 1 448 0
 151 000a 0C20     		movs	r0, #12
 456:Generated_Source\PSoC5/USBUART_std.c ****         {
 457:Generated_Source\PSoC5/USBUART_std.c ****             if (0u != (USBUART_EP[ep].addr & USBUART_DIR_IN))
 458:Generated_Source\PSoC5/USBUART_std.c ****             {
 459:Generated_Source\PSoC5/USBUART_std.c ****                 USBUART_SIE_EP_BASE.sieEp[ep].epCr0 = USBUART_MODE_NAK_IN;
 460:Generated_Source\PSoC5/USBUART_std.c ****                 
 461:Generated_Source\PSoC5/USBUART_std.c ****             #if (USBUART_EP_MANAGEMENT_DMA_AUTO && CY_PSOC4)
 462:Generated_Source\PSoC5/USBUART_std.c ****                 /* Clear DMA_TERMIN for IN endpoint. */
 463:Generated_Source\PSoC5/USBUART_std.c ****                 USBUART_ARB_EP_BASE.arbEp[ep].epIntEn &= (uint32) ~USBUART_ARB_EPX_INT_DMA_TERMIN;
 464:Generated_Source\PSoC5/USBUART_std.c ****             #endif /* (USBUART_EP_MANAGEMENT_DMA_AUTO && CY_PSOC4) */
 465:Generated_Source\PSoC5/USBUART_std.c ****             }
 466:Generated_Source\PSoC5/USBUART_std.c ****             else
ARM GAS  C:\Users\chemi\AppData\Local\Temp\cc21dAG8.s 			page 12


 467:Generated_Source\PSoC5/USBUART_std.c ****             {
 468:Generated_Source\PSoC5/USBUART_std.c ****                 USBUART_SIE_EP_BASE.sieEp[ep].epCr0 = USBUART_MODE_NAK_OUT;
 469:Generated_Source\PSoC5/USBUART_std.c **** 
 470:Generated_Source\PSoC5/USBUART_std.c ****             #if (USBUART_EP_MANAGEMENT_DMA_AUTO)
 471:Generated_Source\PSoC5/USBUART_std.c ****                 /* (CY_PSOC4): DMA_TERMIN for OUT endpoint is set above. */
 472:Generated_Source\PSoC5/USBUART_std.c ****                 
 473:Generated_Source\PSoC5/USBUART_std.c ****                 /* Prepare endpoint type mask. */
 474:Generated_Source\PSoC5/USBUART_std.c ****                 epType |= (uint8) (0x01u << (ep - USBUART_EP1));
 475:Generated_Source\PSoC5/USBUART_std.c ****             #endif /* (USBUART_EP_MANAGEMENT_DMA_AUTO) */
 476:Generated_Source\PSoC5/USBUART_std.c ****             }
 477:Generated_Source\PSoC5/USBUART_std.c ****         }
 478:Generated_Source\PSoC5/USBUART_std.c ****         else
 479:Generated_Source\PSoC5/USBUART_std.c ****         {
 480:Generated_Source\PSoC5/USBUART_std.c ****             USBUART_SIE_EP_BASE.sieEp[ep].epCr0 = USBUART_MODE_STALL_DATA_EP;
 152              		.loc 1 480 0
 153 000c 8027     		movs	r7, #128
 468:Generated_Source\PSoC5/USBUART_std.c **** 
 154              		.loc 1 468 0
 155 000e 4FF0080E 		mov	lr, #8
 156              	.LVL9:
 157              	.L15:
 158 0012 184B     		ldr	r3, .L17+4
 455:Generated_Source\PSoC5/USBUART_std.c ****         {
 159              		.loc 1 455 0
 160 0014 00FB025C 		mla	ip, r0, r2, r5
 161 0018 1401     		lsls	r4, r2, #4
 162 001a 2344     		add	r3, r3, r4
 448:Generated_Source\PSoC5/USBUART_std.c ****         
 163              		.loc 1 448 0
 164 001c 1870     		strb	r0, [r3]
 165 001e 1649     		ldr	r1, .L17+8
 455:Generated_Source\PSoC5/USBUART_std.c ****         {
 166              		.loc 1 455 0
 167 0020 9CF80580 		ldrb	r8, [ip, #5]	@ zero_extendqisi2
 168 0024 2144     		add	r1, r1, r4
 169 0026 B8F1000F 		cmp	r8, #0
 170 002a 07D0     		beq	.L12
 457:Generated_Source\PSoC5/USBUART_std.c ****             {
 171              		.loc 1 457 0
 172 002c 9CF80440 		ldrb	r4, [ip, #4]	@ zero_extendqisi2
 173 0030 2406     		lsls	r4, r4, #24
 459:Generated_Source\PSoC5/USBUART_std.c ****                 
 174              		.loc 1 459 0
 175 0032 4CBF     		ite	mi
 176 0034 8870     		strbmi	r0, [r1, #2]
 468:Generated_Source\PSoC5/USBUART_std.c **** 
 177              		.loc 1 468 0
 178 0036 81F802E0 		strbpl	lr, [r1, #2]
 179 003a 00E0     		b	.L14
 180              	.L12:
 181              		.loc 1 480 0
 182 003c 8F70     		strb	r7, [r1, #2]
 183              	.L14:
 481:Generated_Source\PSoC5/USBUART_std.c ****         }
 482:Generated_Source\PSoC5/USBUART_std.c ****         
 483:Generated_Source\PSoC5/USBUART_std.c ****     #if (!USBUART_EP_MANAGEMENT_DMA_AUTO)
 484:Generated_Source\PSoC5/USBUART_std.c ****         #if (CY_PSOC4)
ARM GAS  C:\Users\chemi\AppData\Local\Temp\cc21dAG8.s 			page 13


 485:Generated_Source\PSoC5/USBUART_std.c ****             USBUART_ARB_EP16_BASE.arbEp[ep].rwRa16  = (uint32) USBUART_EP[ep].buffOffset;
 486:Generated_Source\PSoC5/USBUART_std.c ****             USBUART_ARB_EP16_BASE.arbEp[ep].rwWa16  = (uint32) USBUART_EP[ep].buffOffset;
 487:Generated_Source\PSoC5/USBUART_std.c ****         #else
 488:Generated_Source\PSoC5/USBUART_std.c ****             USBUART_ARB_EP_BASE.arbEp[ep].rwRa    = LO8(USBUART_EP[ep].buffOffset);
 184              		.loc 1 488 0 discriminator 2
 185 003e 00FB0261 		mla	r1, r0, r2, r6
 186 0042 CC88     		ldrh	r4, [r1, #6]
 187 0044 0132     		adds	r2, r2, #1
 188              	.LVL10:
 189 0046 E4B2     		uxtb	r4, r4
 190 0048 9C71     		strb	r4, [r3, #6]
 489:Generated_Source\PSoC5/USBUART_std.c ****             USBUART_ARB_EP_BASE.arbEp[ep].rwRaMsb = HI8(USBUART_EP[ep].buffOffset);
 191              		.loc 1 489 0 discriminator 2
 192 004a CC88     		ldrh	r4, [r1, #6]
 446:Generated_Source\PSoC5/USBUART_std.c ****     {
 193              		.loc 1 446 0 discriminator 2
 194 004c 092A     		cmp	r2, #9
 195              		.loc 1 489 0 discriminator 2
 196 004e C4F30724 		ubfx	r4, r4, #8, #8
 197 0052 DC71     		strb	r4, [r3, #7]
 490:Generated_Source\PSoC5/USBUART_std.c ****             USBUART_ARB_EP_BASE.arbEp[ep].rwWa    = LO8(USBUART_EP[ep].buffOffset);
 198              		.loc 1 490 0 discriminator 2
 199 0054 CC88     		ldrh	r4, [r1, #6]
 200 0056 E4B2     		uxtb	r4, r4
 201 0058 1C71     		strb	r4, [r3, #4]
 491:Generated_Source\PSoC5/USBUART_std.c ****             USBUART_ARB_EP_BASE.arbEp[ep].rwWaMsb = HI8(USBUART_EP[ep].buffOffset);
 202              		.loc 1 491 0 discriminator 2
 203 005a C988     		ldrh	r1, [r1, #6]
 204 005c C1F30721 		ubfx	r1, r1, #8, #8
 205 0060 5971     		strb	r1, [r3, #5]
 446:Generated_Source\PSoC5/USBUART_std.c ****     {
 206              		.loc 1 446 0 discriminator 2
 207 0062 D6D1     		bne	.L15
 492:Generated_Source\PSoC5/USBUART_std.c ****         #endif /* (CY_PSOC4) */
 493:Generated_Source\PSoC5/USBUART_std.c ****     #endif /* (!USBUART_EP_MANAGEMENT_DMA_AUTO) */
 494:Generated_Source\PSoC5/USBUART_std.c ****     }
 495:Generated_Source\PSoC5/USBUART_std.c **** 
 496:Generated_Source\PSoC5/USBUART_std.c **** #if (USBUART_EP_MANAGEMENT_DMA_AUTO)
 497:Generated_Source\PSoC5/USBUART_std.c ****      /* BUF_SIZE depend on DMA_THRESS value:0x55-32 bytes  0x44-16 bytes 0x33-8 bytes 0x22-4 bytes 
 498:Generated_Source\PSoC5/USBUART_std.c ****     USBUART_BUF_SIZE_REG = USBUART_DMA_BUF_SIZE;
 499:Generated_Source\PSoC5/USBUART_std.c **** 
 500:Generated_Source\PSoC5/USBUART_std.c ****     /* Configure DMA burst threshold */
 501:Generated_Source\PSoC5/USBUART_std.c **** #if (CY_PSOC4)
 502:Generated_Source\PSoC5/USBUART_std.c ****     USBUART_DMA_THRES16_REG   = USBUART_DMA_BYTES_PER_BURST;
 503:Generated_Source\PSoC5/USBUART_std.c **** #else
 504:Generated_Source\PSoC5/USBUART_std.c ****     USBUART_DMA_THRES_REG     = USBUART_DMA_BYTES_PER_BURST;
 505:Generated_Source\PSoC5/USBUART_std.c ****     USBUART_DMA_THRES_MSB_REG = 0u;
 506:Generated_Source\PSoC5/USBUART_std.c **** #endif /* (CY_PSOC4) */
 507:Generated_Source\PSoC5/USBUART_std.c ****     USBUART_EP_ACTIVE_REG = USBUART_DEFAULT_ARB_INT_EN;
 508:Generated_Source\PSoC5/USBUART_std.c ****     USBUART_EP_TYPE_REG   = epType;
 509:Generated_Source\PSoC5/USBUART_std.c ****     
 510:Generated_Source\PSoC5/USBUART_std.c ****     /* Cfg_cmp bit set to 1 once configuration is complete. */
 511:Generated_Source\PSoC5/USBUART_std.c ****     /* Lock arbiter configtuation */
 512:Generated_Source\PSoC5/USBUART_std.c ****     USBUART_ARB_CFG_REG |= (uint8)  USBUART_ARB_CFG_CFG_CMP;
 513:Generated_Source\PSoC5/USBUART_std.c ****     /* Cfg_cmp bit set to 0 during configuration of PFSUSB Registers. */
 514:Generated_Source\PSoC5/USBUART_std.c ****     USBUART_ARB_CFG_REG &= (uint8) ~USBUART_ARB_CFG_CFG_CMP;
 515:Generated_Source\PSoC5/USBUART_std.c **** 
ARM GAS  C:\Users\chemi\AppData\Local\Temp\cc21dAG8.s 			page 14


 516:Generated_Source\PSoC5/USBUART_std.c **** #endif /* (USBUART_EP_MANAGEMENT_DMA_AUTO) */
 517:Generated_Source\PSoC5/USBUART_std.c **** 
 518:Generated_Source\PSoC5/USBUART_std.c ****     /* Enable interrupt SIE interurpt source from EP0-EP1 */
 519:Generated_Source\PSoC5/USBUART_std.c ****     USBUART_SIE_EP_INT_EN_REG = (uint8) USBUART_DEFAULT_SIE_EP_INT_EN;
 208              		.loc 1 519 0
 209 0064 054B     		ldr	r3, .L17+12
 210 0066 FF22     		movs	r2, #255
 211 0068 1A70     		strb	r2, [r3]
 212 006a BDE8F081 		pop	{r4, r5, r6, r7, r8, pc}
 213              	.L18:
 214 006e 00BF     		.align	2
 215              	.L17:
 216 0070 00000000 		.word	USBUART_EP
 217 0074 70600040 		.word	1073766512
 218 0078 FC5F0040 		.word	1073766396
 219 007c 0A600040 		.word	1073766410
 220              		.cfi_endproc
 221              	.LFE2:
 222              		.size	USBUART_ConfigReg, .-USBUART_ConfigReg
 223              		.section	.text.USBUART_EpStateInit,"ax",%progbits
 224              		.align	1
 225              		.global	USBUART_EpStateInit
 226              		.thumb
 227              		.thumb_func
 228              		.type	USBUART_EpStateInit, %function
 229              	USBUART_EpStateInit:
 230              	.LFB3:
 520:Generated_Source\PSoC5/USBUART_std.c **** }
 521:Generated_Source\PSoC5/USBUART_std.c **** 
 522:Generated_Source\PSoC5/USBUART_std.c **** 
 523:Generated_Source\PSoC5/USBUART_std.c **** /*******************************************************************************
 524:Generated_Source\PSoC5/USBUART_std.c **** * Function Name: USBUART_EpStateInit
 525:Generated_Source\PSoC5/USBUART_std.c **** ****************************************************************************//**
 526:Generated_Source\PSoC5/USBUART_std.c **** *
 527:Generated_Source\PSoC5/USBUART_std.c **** *  This routine initialize state of Data end points based of its type: 
 528:Generated_Source\PSoC5/USBUART_std.c **** *   IN  - USBUART_IN_BUFFER_EMPTY (USBUART_EVENT_PENDING)
 529:Generated_Source\PSoC5/USBUART_std.c **** *   OUT - USBUART_OUT_BUFFER_EMPTY (USBUART_NO_EVENT_PENDING)
 530:Generated_Source\PSoC5/USBUART_std.c **** *
 531:Generated_Source\PSoC5/USBUART_std.c **** *******************************************************************************/
 532:Generated_Source\PSoC5/USBUART_std.c **** void USBUART_EpStateInit(void) 
 533:Generated_Source\PSoC5/USBUART_std.c **** {
 231              		.loc 1 533 0
 232              		.cfi_startproc
 233              		@ args = 0, pretend = 0, frame = 0
 234              		@ frame_needed = 0, uses_anonymous_args = 0
 235              	.LVL11:
 236 0000 0123     		movs	r3, #1
 237 0002 70B5     		push	{r4, r5, r6, lr}
 238              		.cfi_def_cfa_offset 16
 239              		.cfi_offset 4, -16
 240              		.cfi_offset 5, -12
 241              		.cfi_offset 6, -8
 242              		.cfi_offset 14, -4
 534:Generated_Source\PSoC5/USBUART_std.c ****     uint8 i;
 535:Generated_Source\PSoC5/USBUART_std.c **** 
 536:Generated_Source\PSoC5/USBUART_std.c ****     for (i = USBUART_EP1; i < USBUART_MAX_EP; i++)
 537:Generated_Source\PSoC5/USBUART_std.c ****     { 
ARM GAS  C:\Users\chemi\AppData\Local\Temp\cc21dAG8.s 			page 15


 538:Generated_Source\PSoC5/USBUART_std.c ****         if (0u != (USBUART_EP[i].addr & USBUART_DIR_IN))
 539:Generated_Source\PSoC5/USBUART_std.c ****         {
 540:Generated_Source\PSoC5/USBUART_std.c ****             /* IN Endpoint */
 541:Generated_Source\PSoC5/USBUART_std.c ****             USBUART_EP[i].apiEpState = USBUART_EVENT_PENDING;
 243              		.loc 1 541 0
 244 0004 1D46     		mov	r5, r3
 538:Generated_Source\PSoC5/USBUART_std.c ****         {
 245              		.loc 1 538 0
 246 0006 0749     		ldr	r1, .L24
 247 0008 0C20     		movs	r0, #12
 542:Generated_Source\PSoC5/USBUART_std.c ****         }
 543:Generated_Source\PSoC5/USBUART_std.c ****         else
 544:Generated_Source\PSoC5/USBUART_std.c ****         {
 545:Generated_Source\PSoC5/USBUART_std.c ****             /* OUT Endpoint */
 546:Generated_Source\PSoC5/USBUART_std.c ****             USBUART_EP[i].apiEpState = USBUART_NO_EVENT_PENDING;
 248              		.loc 1 546 0
 249 000a 0024     		movs	r4, #0
 250              	.LVL12:
 251              	.L22:
 538:Generated_Source\PSoC5/USBUART_std.c ****         {
 252              		.loc 1 538 0
 253 000c 00FB0312 		mla	r2, r0, r3, r1
 254 0010 1679     		ldrb	r6, [r2, #4]	@ zero_extendqisi2
 255 0012 0133     		adds	r3, r3, #1
 256              	.LVL13:
 257 0014 3606     		lsls	r6, r6, #24
 541:Generated_Source\PSoC5/USBUART_std.c ****         }
 258              		.loc 1 541 0
 259 0016 4CBF     		ite	mi
 260 0018 5570     		strbmi	r5, [r2, #1]
 261              		.loc 1 546 0
 262 001a 5470     		strbpl	r4, [r2, #1]
 536:Generated_Source\PSoC5/USBUART_std.c ****     { 
 263              		.loc 1 536 0
 264 001c 092B     		cmp	r3, #9
 265 001e F5D1     		bne	.L22
 547:Generated_Source\PSoC5/USBUART_std.c ****         }
 548:Generated_Source\PSoC5/USBUART_std.c ****     }
 549:Generated_Source\PSoC5/USBUART_std.c ****                     
 550:Generated_Source\PSoC5/USBUART_std.c **** }
 266              		.loc 1 550 0
 267 0020 70BD     		pop	{r4, r5, r6, pc}
 268              	.L25:
 269 0022 00BF     		.align	2
 270              	.L24:
 271 0024 00000000 		.word	USBUART_EP
 272              		.cfi_endproc
 273              	.LFE3:
 274              		.size	USBUART_EpStateInit, .-USBUART_EpStateInit
 275              		.section	.text.USBUART_GetConfigTablePtr,"ax",%progbits
 276              		.align	1
 277              		.global	USBUART_GetConfigTablePtr
 278              		.thumb
 279              		.thumb_func
 280              		.type	USBUART_GetConfigTablePtr, %function
 281              	USBUART_GetConfigTablePtr:
 282              	.LFB6:
ARM GAS  C:\Users\chemi\AppData\Local\Temp\cc21dAG8.s 			page 16


 551:Generated_Source\PSoC5/USBUART_std.c **** 
 552:Generated_Source\PSoC5/USBUART_std.c **** 
 553:Generated_Source\PSoC5/USBUART_std.c **** /*******************************************************************************
 554:Generated_Source\PSoC5/USBUART_std.c **** * Function Name: USBUART_Config
 555:Generated_Source\PSoC5/USBUART_std.c **** ****************************************************************************//**
 556:Generated_Source\PSoC5/USBUART_std.c **** *
 557:Generated_Source\PSoC5/USBUART_std.c **** *  This routine configures endpoints for the entire configuration by scanning
 558:Generated_Source\PSoC5/USBUART_std.c **** *  the configuration descriptor.
 559:Generated_Source\PSoC5/USBUART_std.c **** *
 560:Generated_Source\PSoC5/USBUART_std.c **** *  \param clearAltSetting: It configures the bAlternateSetting 0 for each interface.
 561:Generated_Source\PSoC5/USBUART_std.c **** *
 562:Generated_Source\PSoC5/USBUART_std.c **** * USBUART_interfaceClass - Initialized class array for each interface.
 563:Generated_Source\PSoC5/USBUART_std.c **** *   It is used for handling Class specific requests depend on interface class.
 564:Generated_Source\PSoC5/USBUART_std.c **** *   Different classes in multiple Alternate settings does not supported.
 565:Generated_Source\PSoC5/USBUART_std.c **** *
 566:Generated_Source\PSoC5/USBUART_std.c **** * \reentrant
 567:Generated_Source\PSoC5/USBUART_std.c **** *  No.
 568:Generated_Source\PSoC5/USBUART_std.c **** *
 569:Generated_Source\PSoC5/USBUART_std.c **** *******************************************************************************/
 570:Generated_Source\PSoC5/USBUART_std.c **** void USBUART_Config(uint8 clearAltSetting) 
 571:Generated_Source\PSoC5/USBUART_std.c **** {
 572:Generated_Source\PSoC5/USBUART_std.c ****     uint8 ep;
 573:Generated_Source\PSoC5/USBUART_std.c ****     uint8 curEp;
 574:Generated_Source\PSoC5/USBUART_std.c ****     uint8 i;
 575:Generated_Source\PSoC5/USBUART_std.c ****     uint8 epType;
 576:Generated_Source\PSoC5/USBUART_std.c ****     const uint8 *pDescr;
 577:Generated_Source\PSoC5/USBUART_std.c ****     
 578:Generated_Source\PSoC5/USBUART_std.c ****     #if (!USBUART_EP_MANAGEMENT_DMA_AUTO)
 579:Generated_Source\PSoC5/USBUART_std.c ****         uint16 buffCount = 0u;
 580:Generated_Source\PSoC5/USBUART_std.c ****     #endif /* (!USBUART_EP_MANAGEMENT_DMA_AUTO) */
 581:Generated_Source\PSoC5/USBUART_std.c **** 
 582:Generated_Source\PSoC5/USBUART_std.c ****     const T_USBUART_LUT CYCODE *pTmp;
 583:Generated_Source\PSoC5/USBUART_std.c ****     const T_USBUART_EP_SETTINGS_BLOCK CYCODE *pEP;
 584:Generated_Source\PSoC5/USBUART_std.c **** 
 585:Generated_Source\PSoC5/USBUART_std.c ****     /* Clear endpoints settings */
 586:Generated_Source\PSoC5/USBUART_std.c ****     for (ep = 0u; ep < USBUART_MAX_EP; ++ep)
 587:Generated_Source\PSoC5/USBUART_std.c ****     {
 588:Generated_Source\PSoC5/USBUART_std.c ****         USBUART_EP[ep].attrib     = 0u;
 589:Generated_Source\PSoC5/USBUART_std.c ****         USBUART_EP[ep].hwEpState  = 0u;
 590:Generated_Source\PSoC5/USBUART_std.c ****         USBUART_EP[ep].epToggle   = 0u;
 591:Generated_Source\PSoC5/USBUART_std.c ****         USBUART_EP[ep].bufferSize = 0u;
 592:Generated_Source\PSoC5/USBUART_std.c ****         USBUART_EP[ep].interface  = 0u;
 593:Generated_Source\PSoC5/USBUART_std.c ****         USBUART_EP[ep].apiEpState = USBUART_NO_EVENT_PENDING;
 594:Generated_Source\PSoC5/USBUART_std.c ****         USBUART_EP[ep].epMode     = USBUART_MODE_DISABLE;   
 595:Generated_Source\PSoC5/USBUART_std.c ****     }
 596:Generated_Source\PSoC5/USBUART_std.c **** 
 597:Generated_Source\PSoC5/USBUART_std.c ****     /* Clear Alternate settings for all interfaces. */
 598:Generated_Source\PSoC5/USBUART_std.c ****     if (0u != clearAltSetting)
 599:Generated_Source\PSoC5/USBUART_std.c ****     {
 600:Generated_Source\PSoC5/USBUART_std.c ****         for (i = 0u; i < USBUART_MAX_INTERFACES_NUMBER; ++i)
 601:Generated_Source\PSoC5/USBUART_std.c ****         {
 602:Generated_Source\PSoC5/USBUART_std.c ****             USBUART_interfaceSetting[i]     = 0u;
 603:Generated_Source\PSoC5/USBUART_std.c ****             USBUART_interfaceSettingLast[i] = 0u;
 604:Generated_Source\PSoC5/USBUART_std.c ****         }
 605:Generated_Source\PSoC5/USBUART_std.c ****     }
 606:Generated_Source\PSoC5/USBUART_std.c **** 
 607:Generated_Source\PSoC5/USBUART_std.c ****     /* Init Endpoints and Device Status if configured */
ARM GAS  C:\Users\chemi\AppData\Local\Temp\cc21dAG8.s 			page 17


 608:Generated_Source\PSoC5/USBUART_std.c ****     if (USBUART_configuration > 0u)
 609:Generated_Source\PSoC5/USBUART_std.c ****     {
 610:Generated_Source\PSoC5/USBUART_std.c ****         #if defined(USBUART_ENABLE_CDC_CLASS)
 611:Generated_Source\PSoC5/USBUART_std.c ****             uint8 cdcComNums = 0u;
 612:Generated_Source\PSoC5/USBUART_std.c ****         #endif  /* (USBUART_ENABLE_CDC_CLASS) */  
 613:Generated_Source\PSoC5/USBUART_std.c **** 
 614:Generated_Source\PSoC5/USBUART_std.c ****         pTmp = USBUART_GetConfigTablePtr(USBUART_configuration - 1u);
 615:Generated_Source\PSoC5/USBUART_std.c ****         
 616:Generated_Source\PSoC5/USBUART_std.c ****         /* Set Power status for current configuration */
 617:Generated_Source\PSoC5/USBUART_std.c ****         pDescr = (const uint8 *)pTmp->p_list;
 618:Generated_Source\PSoC5/USBUART_std.c ****         if ((pDescr[USBUART_CONFIG_DESCR_ATTRIB] & USBUART_CONFIG_DESCR_ATTRIB_SELF_POWERED) != 0u)
 619:Generated_Source\PSoC5/USBUART_std.c ****         {
 620:Generated_Source\PSoC5/USBUART_std.c ****             USBUART_deviceStatus |= (uint8)  USBUART_DEVICE_STATUS_SELF_POWERED;
 621:Generated_Source\PSoC5/USBUART_std.c ****         }
 622:Generated_Source\PSoC5/USBUART_std.c ****         else
 623:Generated_Source\PSoC5/USBUART_std.c ****         {
 624:Generated_Source\PSoC5/USBUART_std.c ****             USBUART_deviceStatus &= (uint8) ~USBUART_DEVICE_STATUS_SELF_POWERED;
 625:Generated_Source\PSoC5/USBUART_std.c ****         }
 626:Generated_Source\PSoC5/USBUART_std.c ****         
 627:Generated_Source\PSoC5/USBUART_std.c ****         /* Move to next element */
 628:Generated_Source\PSoC5/USBUART_std.c ****         pTmp = &pTmp[1u];
 629:Generated_Source\PSoC5/USBUART_std.c ****         ep = pTmp->c;  /* For this table, c is the number of endpoints configurations  */
 630:Generated_Source\PSoC5/USBUART_std.c **** 
 631:Generated_Source\PSoC5/USBUART_std.c ****         #if (USBUART_EP_MANAGEMENT_MANUAL && USBUART_EP_ALLOC_DYNAMIC)
 632:Generated_Source\PSoC5/USBUART_std.c ****             /* Configure for dynamic EP memory allocation */
 633:Generated_Source\PSoC5/USBUART_std.c ****             /* p_list points the endpoint setting table. */
 634:Generated_Source\PSoC5/USBUART_std.c ****             pEP = (T_USBUART_EP_SETTINGS_BLOCK *) pTmp->p_list;
 635:Generated_Source\PSoC5/USBUART_std.c ****             
 636:Generated_Source\PSoC5/USBUART_std.c ****             for (i = 0u; i < ep; i++)
 637:Generated_Source\PSoC5/USBUART_std.c ****             {     
 638:Generated_Source\PSoC5/USBUART_std.c ****                 /* Compare current Alternate setting with EP Alt */
 639:Generated_Source\PSoC5/USBUART_std.c ****                 if (USBUART_interfaceSetting[pEP->interface] == pEP->altSetting)
 640:Generated_Source\PSoC5/USBUART_std.c ****                 {                                                          
 641:Generated_Source\PSoC5/USBUART_std.c ****                     curEp  = pEP->addr & USBUART_DIR_UNUSED;
 642:Generated_Source\PSoC5/USBUART_std.c ****                     epType = pEP->attributes & USBUART_EP_TYPE_MASK;
 643:Generated_Source\PSoC5/USBUART_std.c ****                     
 644:Generated_Source\PSoC5/USBUART_std.c ****                     USBUART_EP[curEp].addr       = pEP->addr;
 645:Generated_Source\PSoC5/USBUART_std.c ****                     USBUART_EP[curEp].attrib     = pEP->attributes;
 646:Generated_Source\PSoC5/USBUART_std.c ****                     USBUART_EP[curEp].bufferSize = pEP->bufferSize;
 647:Generated_Source\PSoC5/USBUART_std.c **** 
 648:Generated_Source\PSoC5/USBUART_std.c ****                     if (0u != (pEP->addr & USBUART_DIR_IN))
 649:Generated_Source\PSoC5/USBUART_std.c ****                     {
 650:Generated_Source\PSoC5/USBUART_std.c ****                         /* IN Endpoint */
 651:Generated_Source\PSoC5/USBUART_std.c ****                         USBUART_EP[curEp].epMode     = USBUART_GET_ACTIVE_IN_EP_CR0_MODE(epType);
 652:Generated_Source\PSoC5/USBUART_std.c ****                         USBUART_EP[curEp].apiEpState = USBUART_EVENT_PENDING;
 653:Generated_Source\PSoC5/USBUART_std.c ****                     
 654:Generated_Source\PSoC5/USBUART_std.c ****                     #if (defined(USBUART_ENABLE_MIDI_STREAMING) && (USBUART_MIDI_IN_BUFF_SIZE > 0))
 655:Generated_Source\PSoC5/USBUART_std.c ****                         if ((pEP->bMisc == USBUART_CLASS_AUDIO) && (epType == USBUART_EP_TYPE_BULK)
 656:Generated_Source\PSoC5/USBUART_std.c ****                         {
 657:Generated_Source\PSoC5/USBUART_std.c ****                             USBUART_midi_in_ep = curEp;
 658:Generated_Source\PSoC5/USBUART_std.c ****                         }
 659:Generated_Source\PSoC5/USBUART_std.c ****                     #endif  /* (USBUART_ENABLE_MIDI_STREAMING) */
 660:Generated_Source\PSoC5/USBUART_std.c ****                     }
 661:Generated_Source\PSoC5/USBUART_std.c ****                     else
 662:Generated_Source\PSoC5/USBUART_std.c ****                     {
 663:Generated_Source\PSoC5/USBUART_std.c ****                         /* OUT Endpoint */
 664:Generated_Source\PSoC5/USBUART_std.c ****                         USBUART_EP[curEp].epMode     = USBUART_GET_ACTIVE_OUT_EP_CR0_MODE(epType);
ARM GAS  C:\Users\chemi\AppData\Local\Temp\cc21dAG8.s 			page 18


 665:Generated_Source\PSoC5/USBUART_std.c ****                         USBUART_EP[curEp].apiEpState = USBUART_NO_EVENT_PENDING;
 666:Generated_Source\PSoC5/USBUART_std.c ****                         
 667:Generated_Source\PSoC5/USBUART_std.c ****                     #if (defined(USBUART_ENABLE_MIDI_STREAMING) && (USBUART_MIDI_OUT_BUFF_SIZE > 0)
 668:Generated_Source\PSoC5/USBUART_std.c ****                         if ((pEP->bMisc == USBUART_CLASS_AUDIO) && (epType == USBUART_EP_TYPE_BULK)
 669:Generated_Source\PSoC5/USBUART_std.c ****                         {
 670:Generated_Source\PSoC5/USBUART_std.c ****                             USBUART_midi_out_ep = curEp;
 671:Generated_Source\PSoC5/USBUART_std.c ****                         }
 672:Generated_Source\PSoC5/USBUART_std.c ****                     #endif  /* (USBUART_ENABLE_MIDI_STREAMING) */
 673:Generated_Source\PSoC5/USBUART_std.c ****                     }
 674:Generated_Source\PSoC5/USBUART_std.c **** 
 675:Generated_Source\PSoC5/USBUART_std.c ****                 #if(defined (USBUART_ENABLE_CDC_CLASS))
 676:Generated_Source\PSoC5/USBUART_std.c ****                     if((pEP->bMisc == USBUART_CLASS_CDC_DATA) ||(pEP->bMisc == USBUART_CLASS_CDC))
 677:Generated_Source\PSoC5/USBUART_std.c ****                     {
 678:Generated_Source\PSoC5/USBUART_std.c ****                         cdcComNums = USBUART_Cdc_EpInit(pEP, curEp, cdcComNums);
 679:Generated_Source\PSoC5/USBUART_std.c ****                     }
 680:Generated_Source\PSoC5/USBUART_std.c ****                 #endif  /* (USBUART_ENABLE_CDC_CLASS) */
 681:Generated_Source\PSoC5/USBUART_std.c ****                 }
 682:Generated_Source\PSoC5/USBUART_std.c ****                 
 683:Generated_Source\PSoC5/USBUART_std.c ****                 pEP = &pEP[1u];
 684:Generated_Source\PSoC5/USBUART_std.c ****             }
 685:Generated_Source\PSoC5/USBUART_std.c ****             
 686:Generated_Source\PSoC5/USBUART_std.c ****         #else
 687:Generated_Source\PSoC5/USBUART_std.c ****             for (i = USBUART_EP1; i < USBUART_MAX_EP; ++i)
 688:Generated_Source\PSoC5/USBUART_std.c ****             {
 689:Generated_Source\PSoC5/USBUART_std.c ****                 /* p_list points the endpoint setting table. */
 690:Generated_Source\PSoC5/USBUART_std.c ****                 pEP = (const T_USBUART_EP_SETTINGS_BLOCK CYCODE *) pTmp->p_list;
 691:Generated_Source\PSoC5/USBUART_std.c ****                 /* Find max length for each EP and select it (length could be different in differen
 692:Generated_Source\PSoC5/USBUART_std.c ****                 /* but other settings should be correct with regards to Interface alt Setting */
 693:Generated_Source\PSoC5/USBUART_std.c ****                 
 694:Generated_Source\PSoC5/USBUART_std.c ****                 for (curEp = 0u; curEp < ep; ++curEp)
 695:Generated_Source\PSoC5/USBUART_std.c ****                 {
 696:Generated_Source\PSoC5/USBUART_std.c ****                     if (i == (pEP->addr & USBUART_DIR_UNUSED))
 697:Generated_Source\PSoC5/USBUART_std.c ****                     {
 698:Generated_Source\PSoC5/USBUART_std.c ****                         /* Compare endpoint buffers size with current size to find greater. */
 699:Generated_Source\PSoC5/USBUART_std.c ****                         if (USBUART_EP[i].bufferSize < pEP->bufferSize)
 700:Generated_Source\PSoC5/USBUART_std.c ****                         {
 701:Generated_Source\PSoC5/USBUART_std.c ****                             USBUART_EP[i].bufferSize = pEP->bufferSize;
 702:Generated_Source\PSoC5/USBUART_std.c ****                         }
 703:Generated_Source\PSoC5/USBUART_std.c ****                         
 704:Generated_Source\PSoC5/USBUART_std.c ****                         /* Compare current Alternate setting with EP Alt */
 705:Generated_Source\PSoC5/USBUART_std.c ****                         if (USBUART_interfaceSetting[pEP->interface] == pEP->altSetting)
 706:Generated_Source\PSoC5/USBUART_std.c ****                         {                            
 707:Generated_Source\PSoC5/USBUART_std.c ****                             USBUART_EP[i].addr = pEP->addr;
 708:Generated_Source\PSoC5/USBUART_std.c ****                             USBUART_EP[i].attrib = pEP->attributes;
 709:Generated_Source\PSoC5/USBUART_std.c ****                             
 710:Generated_Source\PSoC5/USBUART_std.c ****                             epType = pEP->attributes & USBUART_EP_TYPE_MASK;
 711:Generated_Source\PSoC5/USBUART_std.c ****                             
 712:Generated_Source\PSoC5/USBUART_std.c ****                             if (0u != (pEP->addr & USBUART_DIR_IN))
 713:Generated_Source\PSoC5/USBUART_std.c ****                             {
 714:Generated_Source\PSoC5/USBUART_std.c ****                                 /* IN Endpoint */
 715:Generated_Source\PSoC5/USBUART_std.c ****                                 USBUART_EP[i].epMode     = USBUART_GET_ACTIVE_IN_EP_CR0_MODE(epType
 716:Generated_Source\PSoC5/USBUART_std.c ****                                 USBUART_EP[i].apiEpState = USBUART_EVENT_PENDING;
 717:Generated_Source\PSoC5/USBUART_std.c ****                                 
 718:Generated_Source\PSoC5/USBUART_std.c ****                             #if (defined(USBUART_ENABLE_MIDI_STREAMING) && (USBUART_MIDI_IN_BUFF_SI
 719:Generated_Source\PSoC5/USBUART_std.c ****                                 if ((pEP->bMisc == USBUART_CLASS_AUDIO) && (epType == USBUART_EP_TY
 720:Generated_Source\PSoC5/USBUART_std.c ****                                 {
 721:Generated_Source\PSoC5/USBUART_std.c ****                                     USBUART_midi_in_ep = i;
ARM GAS  C:\Users\chemi\AppData\Local\Temp\cc21dAG8.s 			page 19


 722:Generated_Source\PSoC5/USBUART_std.c ****                                 }
 723:Generated_Source\PSoC5/USBUART_std.c ****                             #endif  /* (USBUART_ENABLE_MIDI_STREAMING) */
 724:Generated_Source\PSoC5/USBUART_std.c ****                             }
 725:Generated_Source\PSoC5/USBUART_std.c ****                             else
 726:Generated_Source\PSoC5/USBUART_std.c ****                             {
 727:Generated_Source\PSoC5/USBUART_std.c ****                                 /* OUT Endpoint */
 728:Generated_Source\PSoC5/USBUART_std.c ****                                 USBUART_EP[i].epMode     = USBUART_GET_ACTIVE_OUT_EP_CR0_MODE(epTyp
 729:Generated_Source\PSoC5/USBUART_std.c ****                                 USBUART_EP[i].apiEpState = USBUART_NO_EVENT_PENDING;
 730:Generated_Source\PSoC5/USBUART_std.c ****                                 
 731:Generated_Source\PSoC5/USBUART_std.c ****                             #if (defined(USBUART_ENABLE_MIDI_STREAMING) && (USBUART_MIDI_OUT_BUFF_S
 732:Generated_Source\PSoC5/USBUART_std.c ****                                 if ((pEP->bMisc == USBUART_CLASS_AUDIO) && (epType == USBUART_EP_TY
 733:Generated_Source\PSoC5/USBUART_std.c ****                                 {
 734:Generated_Source\PSoC5/USBUART_std.c ****                                     USBUART_midi_out_ep = i;
 735:Generated_Source\PSoC5/USBUART_std.c ****                                 }
 736:Generated_Source\PSoC5/USBUART_std.c ****                             #endif  /* (USBUART_ENABLE_MIDI_STREAMING) */
 737:Generated_Source\PSoC5/USBUART_std.c ****                             }
 738:Generated_Source\PSoC5/USBUART_std.c **** 
 739:Generated_Source\PSoC5/USBUART_std.c ****                         #if (defined(USBUART_ENABLE_CDC_CLASS))
 740:Generated_Source\PSoC5/USBUART_std.c ****                             if((pEP->bMisc == USBUART_CLASS_CDC_DATA) ||(pEP->bMisc == USBUART_CLAS
 741:Generated_Source\PSoC5/USBUART_std.c ****                             {
 742:Generated_Source\PSoC5/USBUART_std.c ****                                 cdcComNums = USBUART_Cdc_EpInit(pEP, i, cdcComNums);
 743:Generated_Source\PSoC5/USBUART_std.c ****                             }
 744:Generated_Source\PSoC5/USBUART_std.c ****                         #endif  /* (USBUART_ENABLE_CDC_CLASS) */
 745:Generated_Source\PSoC5/USBUART_std.c **** 
 746:Generated_Source\PSoC5/USBUART_std.c ****                             #if (USBUART_EP_MANAGEMENT_DMA_AUTO)
 747:Generated_Source\PSoC5/USBUART_std.c ****                                 break;  /* Use first EP setting in Auto memory management */
 748:Generated_Source\PSoC5/USBUART_std.c ****                             #endif /* (USBUART_EP_MANAGEMENT_DMA_AUTO) */
 749:Generated_Source\PSoC5/USBUART_std.c ****                         }
 750:Generated_Source\PSoC5/USBUART_std.c ****                     }
 751:Generated_Source\PSoC5/USBUART_std.c ****                     
 752:Generated_Source\PSoC5/USBUART_std.c ****                     pEP = &pEP[1u];
 753:Generated_Source\PSoC5/USBUART_std.c ****                 }
 754:Generated_Source\PSoC5/USBUART_std.c ****             }
 755:Generated_Source\PSoC5/USBUART_std.c ****         #endif /*  (USBUART_EP_MANAGEMENT_MANUAL && USBUART_EP_ALLOC_DYNAMIC) */
 756:Generated_Source\PSoC5/USBUART_std.c **** 
 757:Generated_Source\PSoC5/USBUART_std.c ****         /* Init class array for each interface and interface number for each EP.
 758:Generated_Source\PSoC5/USBUART_std.c ****         *  It is used for handling Class specific requests directed to either an
 759:Generated_Source\PSoC5/USBUART_std.c ****         *  interface or the endpoint.
 760:Generated_Source\PSoC5/USBUART_std.c ****         */
 761:Generated_Source\PSoC5/USBUART_std.c ****         /* p_list points the endpoint setting table. */
 762:Generated_Source\PSoC5/USBUART_std.c ****         pEP = (const T_USBUART_EP_SETTINGS_BLOCK CYCODE *) pTmp->p_list;
 763:Generated_Source\PSoC5/USBUART_std.c ****         for (i = 0u; i < ep; i++)
 764:Generated_Source\PSoC5/USBUART_std.c ****         {
 765:Generated_Source\PSoC5/USBUART_std.c ****             /* Configure interface number for each EP */
 766:Generated_Source\PSoC5/USBUART_std.c ****             USBUART_EP[pEP->addr & USBUART_DIR_UNUSED].interface = pEP->interface;
 767:Generated_Source\PSoC5/USBUART_std.c ****             pEP = &pEP[1u];
 768:Generated_Source\PSoC5/USBUART_std.c ****         }
 769:Generated_Source\PSoC5/USBUART_std.c ****         
 770:Generated_Source\PSoC5/USBUART_std.c ****         /* Init pointer on interface class table */
 771:Generated_Source\PSoC5/USBUART_std.c ****         USBUART_interfaceClass = USBUART_GetInterfaceClassTablePtr();
 772:Generated_Source\PSoC5/USBUART_std.c ****         
 773:Generated_Source\PSoC5/USBUART_std.c ****     /* Set the endpoint buffer addresses */
 774:Generated_Source\PSoC5/USBUART_std.c ****     #if (!USBUART_EP_MANAGEMENT_DMA_AUTO)
 775:Generated_Source\PSoC5/USBUART_std.c ****         buffCount = 0u;
 776:Generated_Source\PSoC5/USBUART_std.c ****         for (ep = USBUART_EP1; ep < USBUART_MAX_EP; ++ep)
 777:Generated_Source\PSoC5/USBUART_std.c ****         {
 778:Generated_Source\PSoC5/USBUART_std.c ****             USBUART_EP[ep].buffOffset = buffCount;        
ARM GAS  C:\Users\chemi\AppData\Local\Temp\cc21dAG8.s 			page 20


 779:Generated_Source\PSoC5/USBUART_std.c ****             buffCount += USBUART_EP[ep].bufferSize;
 780:Generated_Source\PSoC5/USBUART_std.c ****             
 781:Generated_Source\PSoC5/USBUART_std.c ****         #if (USBUART_GEN_16BITS_EP_ACCESS)
 782:Generated_Source\PSoC5/USBUART_std.c ****             /* Align EP buffers to be event size to access 16-bits DR register. */
 783:Generated_Source\PSoC5/USBUART_std.c ****             buffCount += (0u != (buffCount & 0x01u)) ? 1u : 0u;
 784:Generated_Source\PSoC5/USBUART_std.c ****         #endif /* (USBUART_GEN_16BITS_EP_ACCESS) */            
 785:Generated_Source\PSoC5/USBUART_std.c ****         }
 786:Generated_Source\PSoC5/USBUART_std.c ****     #endif /* (!USBUART_EP_MANAGEMENT_DMA_AUTO) */
 787:Generated_Source\PSoC5/USBUART_std.c **** 
 788:Generated_Source\PSoC5/USBUART_std.c ****         /* Configure hardware registers */
 789:Generated_Source\PSoC5/USBUART_std.c ****         USBUART_ConfigReg();
 790:Generated_Source\PSoC5/USBUART_std.c ****     }
 791:Generated_Source\PSoC5/USBUART_std.c **** }
 792:Generated_Source\PSoC5/USBUART_std.c **** 
 793:Generated_Source\PSoC5/USBUART_std.c **** 
 794:Generated_Source\PSoC5/USBUART_std.c **** /*******************************************************************************
 795:Generated_Source\PSoC5/USBUART_std.c **** * Function Name: USBUART_ConfigAltChanged
 796:Generated_Source\PSoC5/USBUART_std.c **** ****************************************************************************//**
 797:Generated_Source\PSoC5/USBUART_std.c **** *
 798:Generated_Source\PSoC5/USBUART_std.c **** *  This routine update configuration for the required endpoints only.
 799:Generated_Source\PSoC5/USBUART_std.c **** *  It is called after SET_INTERFACE request when Static memory allocation used.
 800:Generated_Source\PSoC5/USBUART_std.c **** *
 801:Generated_Source\PSoC5/USBUART_std.c **** * \reentrant
 802:Generated_Source\PSoC5/USBUART_std.c **** *  No.
 803:Generated_Source\PSoC5/USBUART_std.c **** *
 804:Generated_Source\PSoC5/USBUART_std.c **** *******************************************************************************/
 805:Generated_Source\PSoC5/USBUART_std.c **** void USBUART_ConfigAltChanged(void) 
 806:Generated_Source\PSoC5/USBUART_std.c **** {
 807:Generated_Source\PSoC5/USBUART_std.c ****     uint8 ep;
 808:Generated_Source\PSoC5/USBUART_std.c ****     uint8 curEp;
 809:Generated_Source\PSoC5/USBUART_std.c ****     uint8 epType;
 810:Generated_Source\PSoC5/USBUART_std.c ****     uint8 i;
 811:Generated_Source\PSoC5/USBUART_std.c ****     uint8 interfaceNum;
 812:Generated_Source\PSoC5/USBUART_std.c **** 
 813:Generated_Source\PSoC5/USBUART_std.c ****     const T_USBUART_LUT CYCODE *pTmp;
 814:Generated_Source\PSoC5/USBUART_std.c ****     const T_USBUART_EP_SETTINGS_BLOCK CYCODE *pEP;
 815:Generated_Source\PSoC5/USBUART_std.c **** 
 816:Generated_Source\PSoC5/USBUART_std.c ****     /* Init Endpoints and Device Status if configured */
 817:Generated_Source\PSoC5/USBUART_std.c ****     if (USBUART_configuration > 0u)
 818:Generated_Source\PSoC5/USBUART_std.c ****     {
 819:Generated_Source\PSoC5/USBUART_std.c ****         /* Get number of endpoints configurations (ep). */
 820:Generated_Source\PSoC5/USBUART_std.c ****         pTmp = USBUART_GetConfigTablePtr(USBUART_configuration - 1u);
 821:Generated_Source\PSoC5/USBUART_std.c ****         pTmp = &pTmp[1u];
 822:Generated_Source\PSoC5/USBUART_std.c ****         ep = pTmp->c;
 823:Generated_Source\PSoC5/USBUART_std.c **** 
 824:Generated_Source\PSoC5/USBUART_std.c ****         /* Get pointer to endpoints setting table (pEP). */
 825:Generated_Source\PSoC5/USBUART_std.c ****         pEP = (const T_USBUART_EP_SETTINGS_BLOCK CYCODE *) pTmp->p_list;
 826:Generated_Source\PSoC5/USBUART_std.c ****         
 827:Generated_Source\PSoC5/USBUART_std.c ****         /* Look through all possible endpoint configurations. Find endpoints 
 828:Generated_Source\PSoC5/USBUART_std.c ****         * which belong to current interface and alternate settings for 
 829:Generated_Source\PSoC5/USBUART_std.c ****         * re-configuration.
 830:Generated_Source\PSoC5/USBUART_std.c ****         */
 831:Generated_Source\PSoC5/USBUART_std.c ****         interfaceNum = USBUART_interfaceNumber;
 832:Generated_Source\PSoC5/USBUART_std.c ****         for (i = 0u; i < ep; i++)
 833:Generated_Source\PSoC5/USBUART_std.c ****         {
 834:Generated_Source\PSoC5/USBUART_std.c ****             /* Find endpoints which belong to current interface and alternate settings. */
 835:Generated_Source\PSoC5/USBUART_std.c ****             if ((interfaceNum == pEP->interface) && 
ARM GAS  C:\Users\chemi\AppData\Local\Temp\cc21dAG8.s 			page 21


 836:Generated_Source\PSoC5/USBUART_std.c ****                 (USBUART_interfaceSetting[interfaceNum] == pEP->altSetting))
 837:Generated_Source\PSoC5/USBUART_std.c ****             {
 838:Generated_Source\PSoC5/USBUART_std.c ****                 curEp  = ((uint8) pEP->addr & USBUART_DIR_UNUSED);
 839:Generated_Source\PSoC5/USBUART_std.c ****                 epType = ((uint8) pEP->attributes & USBUART_EP_TYPE_MASK);
 840:Generated_Source\PSoC5/USBUART_std.c ****                 
 841:Generated_Source\PSoC5/USBUART_std.c ****                 /* Change the SIE mode for the selected EP to NAK ALL */
 842:Generated_Source\PSoC5/USBUART_std.c ****                 USBUART_EP[curEp].epToggle   = 0u;
 843:Generated_Source\PSoC5/USBUART_std.c ****                 USBUART_EP[curEp].addr       = pEP->addr;
 844:Generated_Source\PSoC5/USBUART_std.c ****                 USBUART_EP[curEp].attrib     = pEP->attributes;
 845:Generated_Source\PSoC5/USBUART_std.c ****                 USBUART_EP[curEp].bufferSize = pEP->bufferSize;
 846:Generated_Source\PSoC5/USBUART_std.c **** 
 847:Generated_Source\PSoC5/USBUART_std.c ****                 if (0u != (pEP->addr & USBUART_DIR_IN))
 848:Generated_Source\PSoC5/USBUART_std.c ****                 {
 849:Generated_Source\PSoC5/USBUART_std.c ****                     /* IN Endpoint */
 850:Generated_Source\PSoC5/USBUART_std.c ****                     USBUART_EP[curEp].epMode     = USBUART_GET_ACTIVE_IN_EP_CR0_MODE(epType);
 851:Generated_Source\PSoC5/USBUART_std.c ****                     USBUART_EP[curEp].apiEpState = USBUART_EVENT_PENDING;
 852:Generated_Source\PSoC5/USBUART_std.c ****                 }
 853:Generated_Source\PSoC5/USBUART_std.c ****                 else
 854:Generated_Source\PSoC5/USBUART_std.c ****                 {
 855:Generated_Source\PSoC5/USBUART_std.c ****                     /* OUT Endpoint */
 856:Generated_Source\PSoC5/USBUART_std.c ****                     USBUART_EP[curEp].epMode     = USBUART_GET_ACTIVE_OUT_EP_CR0_MODE(epType);
 857:Generated_Source\PSoC5/USBUART_std.c ****                     USBUART_EP[curEp].apiEpState = USBUART_NO_EVENT_PENDING;
 858:Generated_Source\PSoC5/USBUART_std.c ****                 }
 859:Generated_Source\PSoC5/USBUART_std.c ****                 
 860:Generated_Source\PSoC5/USBUART_std.c ****                 /* Make SIE to NAK any endpoint requests */
 861:Generated_Source\PSoC5/USBUART_std.c ****                 USBUART_SIE_EP_BASE.sieEp[curEp].epCr0 = USBUART_MODE_NAK_IN_OUT;
 862:Generated_Source\PSoC5/USBUART_std.c **** 
 863:Generated_Source\PSoC5/USBUART_std.c ****             #if (USBUART_EP_MANAGEMENT_DMA_AUTO)
 864:Generated_Source\PSoC5/USBUART_std.c ****                 /* Clear IN data ready. */
 865:Generated_Source\PSoC5/USBUART_std.c ****                 USBUART_ARB_EP_BASE.arbEp[curEp].epCfg &= (uint8) ~USBUART_ARB_EPX_CFG_IN_DATA_RDY;
 866:Generated_Source\PSoC5/USBUART_std.c **** 
 867:Generated_Source\PSoC5/USBUART_std.c ****                 /* Select endpoint number of reconfiguration */
 868:Generated_Source\PSoC5/USBUART_std.c ****                 USBUART_DYN_RECONFIG_REG = (uint8) ((curEp - 1u) << USBUART_DYN_RECONFIG_EP_SHIFT);
 869:Generated_Source\PSoC5/USBUART_std.c ****                 
 870:Generated_Source\PSoC5/USBUART_std.c ****                 /* Request for dynamic re-configuration of endpoint. */
 871:Generated_Source\PSoC5/USBUART_std.c ****                 USBUART_DYN_RECONFIG_REG |= USBUART_DYN_RECONFIG_ENABLE;
 872:Generated_Source\PSoC5/USBUART_std.c ****                 
 873:Generated_Source\PSoC5/USBUART_std.c ****                 /* Wait until block is ready for re-configuration */
 874:Generated_Source\PSoC5/USBUART_std.c ****                 while (0u == (USBUART_DYN_RECONFIG_REG & USBUART_DYN_RECONFIG_RDY_STS))
 875:Generated_Source\PSoC5/USBUART_std.c ****                 {
 876:Generated_Source\PSoC5/USBUART_std.c ****                 }
 877:Generated_Source\PSoC5/USBUART_std.c ****                 
 878:Generated_Source\PSoC5/USBUART_std.c ****                 /* Once DYN_RECONFIG_RDY_STS bit is set, FW can change the EP configuration. */
 879:Generated_Source\PSoC5/USBUART_std.c ****                 /* Change EP Type with new direction */
 880:Generated_Source\PSoC5/USBUART_std.c ****                 if (0u != (pEP->addr & USBUART_DIR_IN))
 881:Generated_Source\PSoC5/USBUART_std.c ****                 {
 882:Generated_Source\PSoC5/USBUART_std.c ****                     /* Set endpoint type: 0 - IN and 1 - OUT. */
 883:Generated_Source\PSoC5/USBUART_std.c ****                     USBUART_EP_TYPE_REG &= (uint8) ~(uint8)((uint8) 0x01u << (curEp - 1u));
 884:Generated_Source\PSoC5/USBUART_std.c ****                     
 885:Generated_Source\PSoC5/USBUART_std.c ****                 #if (CY_PSOC4)
 886:Generated_Source\PSoC5/USBUART_std.c ****                     /* Clear DMA_TERMIN for IN endpoint */
 887:Generated_Source\PSoC5/USBUART_std.c ****                     USBUART_ARB_EP_BASE.arbEp[curEp].epIntEn &= (uint32) ~USBUART_ARB_EPX_INT_DMA_T
 888:Generated_Source\PSoC5/USBUART_std.c ****                 #endif /* (CY_PSOC4) */
 889:Generated_Source\PSoC5/USBUART_std.c ****                 }
 890:Generated_Source\PSoC5/USBUART_std.c ****                 else
 891:Generated_Source\PSoC5/USBUART_std.c ****                 {
 892:Generated_Source\PSoC5/USBUART_std.c ****                     /* Set endpoint type: 0 - IN and 1- OUT. */
ARM GAS  C:\Users\chemi\AppData\Local\Temp\cc21dAG8.s 			page 22


 893:Generated_Source\PSoC5/USBUART_std.c ****                     USBUART_EP_TYPE_REG |= (uint8) ((uint8) 0x01u << (curEp - 1u));
 894:Generated_Source\PSoC5/USBUART_std.c ****                     
 895:Generated_Source\PSoC5/USBUART_std.c ****                 #if (CY_PSOC4)
 896:Generated_Source\PSoC5/USBUART_std.c ****                     /* Set DMA_TERMIN for OUT endpoint */
 897:Generated_Source\PSoC5/USBUART_std.c ****                     USBUART_ARB_EP_BASE.arbEp[curEp].epIntEn |= (uint32) USBUART_ARB_EPX_INT_DMA_TE
 898:Generated_Source\PSoC5/USBUART_std.c ****                 #endif /* (CY_PSOC4) */
 899:Generated_Source\PSoC5/USBUART_std.c ****                 }
 900:Generated_Source\PSoC5/USBUART_std.c ****                 
 901:Generated_Source\PSoC5/USBUART_std.c ****                 /* Complete dynamic re-configuration: all endpoint related status and signals 
 902:Generated_Source\PSoC5/USBUART_std.c ****                 * are set into the default state.
 903:Generated_Source\PSoC5/USBUART_std.c ****                 */
 904:Generated_Source\PSoC5/USBUART_std.c ****                 USBUART_DYN_RECONFIG_REG &= (uint8) ~USBUART_DYN_RECONFIG_ENABLE;
 905:Generated_Source\PSoC5/USBUART_std.c **** 
 906:Generated_Source\PSoC5/USBUART_std.c ****             #else
 907:Generated_Source\PSoC5/USBUART_std.c ****                 USBUART_SIE_EP_BASE.sieEp[curEp].epCnt0 = HI8(USBUART_EP[curEp].bufferSize);
 908:Generated_Source\PSoC5/USBUART_std.c ****                 USBUART_SIE_EP_BASE.sieEp[curEp].epCnt1 = LO8(USBUART_EP[curEp].bufferSize);
 909:Generated_Source\PSoC5/USBUART_std.c ****                 
 910:Generated_Source\PSoC5/USBUART_std.c ****                 #if (CY_PSOC4)
 911:Generated_Source\PSoC5/USBUART_std.c ****                     USBUART_ARB_EP16_BASE.arbEp[curEp].rwRa16  = (uint32) USBUART_EP[curEp].buffOff
 912:Generated_Source\PSoC5/USBUART_std.c ****                     USBUART_ARB_EP16_BASE.arbEp[curEp].rwWa16  = (uint32) USBUART_EP[curEp].buffOff
 913:Generated_Source\PSoC5/USBUART_std.c ****                 #else
 914:Generated_Source\PSoC5/USBUART_std.c ****                     USBUART_ARB_EP_BASE.arbEp[curEp].rwRa    = LO8(USBUART_EP[curEp].buffOffset);
 915:Generated_Source\PSoC5/USBUART_std.c ****                     USBUART_ARB_EP_BASE.arbEp[curEp].rwRaMsb = HI8(USBUART_EP[curEp].buffOffset);
 916:Generated_Source\PSoC5/USBUART_std.c ****                     USBUART_ARB_EP_BASE.arbEp[curEp].rwWa    = LO8(USBUART_EP[curEp].buffOffset);
 917:Generated_Source\PSoC5/USBUART_std.c ****                     USBUART_ARB_EP_BASE.arbEp[curEp].rwWaMsb = HI8(USBUART_EP[curEp].buffOffset);
 918:Generated_Source\PSoC5/USBUART_std.c ****                 #endif /* (CY_PSOC4) */                
 919:Generated_Source\PSoC5/USBUART_std.c ****             #endif /* (USBUART_EP_MANAGEMENT_DMA_AUTO) */
 920:Generated_Source\PSoC5/USBUART_std.c ****             }
 921:Generated_Source\PSoC5/USBUART_std.c ****             
 922:Generated_Source\PSoC5/USBUART_std.c ****             pEP = &pEP[1u]; /* Get next EP element */
 923:Generated_Source\PSoC5/USBUART_std.c ****         }
 924:Generated_Source\PSoC5/USBUART_std.c ****         
 925:Generated_Source\PSoC5/USBUART_std.c ****         /* The main loop has to re-enable DMA and OUT endpoint */
 926:Generated_Source\PSoC5/USBUART_std.c ****     }
 927:Generated_Source\PSoC5/USBUART_std.c **** }
 928:Generated_Source\PSoC5/USBUART_std.c **** 
 929:Generated_Source\PSoC5/USBUART_std.c **** 
 930:Generated_Source\PSoC5/USBUART_std.c **** /*******************************************************************************
 931:Generated_Source\PSoC5/USBUART_std.c **** * Function Name: USBUART_GetConfigTablePtr
 932:Generated_Source\PSoC5/USBUART_std.c **** ****************************************************************************//**
 933:Generated_Source\PSoC5/USBUART_std.c **** *
 934:Generated_Source\PSoC5/USBUART_std.c **** *  This routine returns a pointer a configuration table entry
 935:Generated_Source\PSoC5/USBUART_std.c **** *
 936:Generated_Source\PSoC5/USBUART_std.c **** *  \param confIndex:  Configuration Index
 937:Generated_Source\PSoC5/USBUART_std.c **** *
 938:Generated_Source\PSoC5/USBUART_std.c **** * \return
 939:Generated_Source\PSoC5/USBUART_std.c **** *  Device Descriptor pointer or NULL when descriptor does not exist.
 940:Generated_Source\PSoC5/USBUART_std.c **** *
 941:Generated_Source\PSoC5/USBUART_std.c **** *******************************************************************************/
 942:Generated_Source\PSoC5/USBUART_std.c **** const T_USBUART_LUT CYCODE *USBUART_GetConfigTablePtr(uint8 confIndex)
 943:Generated_Source\PSoC5/USBUART_std.c ****                                                         
 944:Generated_Source\PSoC5/USBUART_std.c **** {
 283              		.loc 1 944 0
 284              		.cfi_startproc
 285              		@ args = 0, pretend = 0, frame = 0
 286              		@ frame_needed = 0, uses_anonymous_args = 0
 287              		@ link register save eliminated.
ARM GAS  C:\Users\chemi\AppData\Local\Temp\cc21dAG8.s 			page 23


 288              	.LVL14:
 945:Generated_Source\PSoC5/USBUART_std.c ****     /* Device Table */
 946:Generated_Source\PSoC5/USBUART_std.c ****     const T_USBUART_LUT CYCODE *pTmp;
 947:Generated_Source\PSoC5/USBUART_std.c **** 
 948:Generated_Source\PSoC5/USBUART_std.c ****     pTmp = (const T_USBUART_LUT CYCODE *) USBUART_TABLE[USBUART_device].p_list;
 289              		.loc 1 948 0
 290 0000 064B     		ldr	r3, .L29
 291 0002 074A     		ldr	r2, .L29+4
 292 0004 1B78     		ldrb	r3, [r3]	@ zero_extendqisi2
 293 0006 02EBC302 		add	r2, r2, r3, lsl #3
 294 000a 5368     		ldr	r3, [r2, #4]
 295              	.LVL15:
 949:Generated_Source\PSoC5/USBUART_std.c **** 
 950:Generated_Source\PSoC5/USBUART_std.c ****     /* The first entry points to the Device Descriptor,
 951:Generated_Source\PSoC5/USBUART_std.c ****     *  the second entry point to the BOS Descriptor
 952:Generated_Source\PSoC5/USBUART_std.c ****     *  the rest configuration entries.
 953:Generated_Source\PSoC5/USBUART_std.c ****     *  Set pointer to the first Configuration Descriptor
 954:Generated_Source\PSoC5/USBUART_std.c ****     */
 955:Generated_Source\PSoC5/USBUART_std.c ****     pTmp = &pTmp[2u];
 956:Generated_Source\PSoC5/USBUART_std.c ****     /* For this table, c is the number of configuration descriptors  */
 957:Generated_Source\PSoC5/USBUART_std.c ****     if(confIndex >= pTmp->c)   /* Verify that required configuration descriptor exists */
 296              		.loc 1 957 0
 297 000c 1A7C     		ldrb	r2, [r3, #16]	@ zero_extendqisi2
 298 000e 8242     		cmp	r2, r0
 958:Generated_Source\PSoC5/USBUART_std.c ****     {
 959:Generated_Source\PSoC5/USBUART_std.c ****         pTmp = (const T_USBUART_LUT CYCODE *) NULL;
 960:Generated_Source\PSoC5/USBUART_std.c ****     }
 961:Generated_Source\PSoC5/USBUART_std.c ****     else
 962:Generated_Source\PSoC5/USBUART_std.c ****     {
 963:Generated_Source\PSoC5/USBUART_std.c ****         pTmp = (const T_USBUART_LUT CYCODE *) pTmp[confIndex].p_list;
 299              		.loc 1 963 0
 300 0010 86BF     		itte	hi
 301 0012 03EBC003 		addhi	r3, r3, r0, lsl #3
 302              	.LVL16:
 303 0016 5869     		ldrhi	r0, [r3, #20]
 304              	.LVL17:
 959:Generated_Source\PSoC5/USBUART_std.c ****     }
 305              		.loc 1 959 0
 306 0018 0020     		movls	r0, #0
 307              	.LVL18:
 964:Generated_Source\PSoC5/USBUART_std.c ****     }
 965:Generated_Source\PSoC5/USBUART_std.c **** 
 966:Generated_Source\PSoC5/USBUART_std.c ****     return (pTmp);
 967:Generated_Source\PSoC5/USBUART_std.c **** }
 308              		.loc 1 967 0
 309 001a 7047     		bx	lr
 310              	.L30:
 311              		.align	2
 312              	.L29:
 313 001c 00000000 		.word	USBUART_device
 314 0020 00000000 		.word	USBUART_TABLE
 315              		.cfi_endproc
 316              	.LFE6:
 317              		.size	USBUART_GetConfigTablePtr, .-USBUART_GetConfigTablePtr
 318              		.section	.text.USBUART_ConfigAltChanged,"ax",%progbits
 319              		.align	1
 320              		.global	USBUART_ConfigAltChanged
ARM GAS  C:\Users\chemi\AppData\Local\Temp\cc21dAG8.s 			page 24


 321              		.thumb
 322              		.thumb_func
 323              		.type	USBUART_ConfigAltChanged, %function
 324              	USBUART_ConfigAltChanged:
 325              	.LFB5:
 806:Generated_Source\PSoC5/USBUART_std.c ****     uint8 ep;
 326              		.loc 1 806 0
 327              		.cfi_startproc
 328              		@ args = 0, pretend = 0, frame = 0
 329              		@ frame_needed = 0, uses_anonymous_args = 0
 330 0000 2DE9F84F 		push	{r3, r4, r5, r6, r7, r8, r9, r10, fp, lr}
 331              		.cfi_def_cfa_offset 40
 332              		.cfi_offset 3, -40
 333              		.cfi_offset 4, -36
 334              		.cfi_offset 5, -32
 335              		.cfi_offset 6, -28
 336              		.cfi_offset 7, -24
 337              		.cfi_offset 8, -20
 338              		.cfi_offset 9, -16
 339              		.cfi_offset 10, -12
 340              		.cfi_offset 11, -8
 341              		.cfi_offset 14, -4
 817:Generated_Source\PSoC5/USBUART_std.c ****     {
 342              		.loc 1 817 0
 343 0004 424B     		ldr	r3, .L43
 344 0006 1A78     		ldrb	r2, [r3]	@ zero_extendqisi2
 345 0008 002A     		cmp	r2, #0
 346 000a 7ED0     		beq	.L31
 347              	.LBB7:
 348              	.LBB8:
 820:Generated_Source\PSoC5/USBUART_std.c ****         pTmp = &pTmp[1u];
 349              		.loc 1 820 0
 350 000c 1878     		ldrb	r0, [r3]	@ zero_extendqisi2
 842:Generated_Source\PSoC5/USBUART_std.c ****                 USBUART_EP[curEp].addr       = pEP->addr;
 351              		.loc 1 842 0
 352 000e 414D     		ldr	r5, .L43+4
 820:Generated_Source\PSoC5/USBUART_std.c ****         pTmp = &pTmp[1u];
 353              		.loc 1 820 0
 354 0010 0138     		subs	r0, r0, #1
 355 0012 C0B2     		uxtb	r0, r0
 356 0014 FFF7FEFF 		bl	USBUART_GetConfigTablePtr
 357              	.LVL19:
 358 0018 A846     		mov	r8, r5
 831:Generated_Source\PSoC5/USBUART_std.c ****         for (i = 0u; i < ep; i++)
 359              		.loc 1 831 0
 360 001a 3F4A     		ldr	r2, .L43+8
 825:Generated_Source\PSoC5/USBUART_std.c ****         
 361              		.loc 1 825 0
 362 001c C368     		ldr	r3, [r0, #12]
 363              	.LVL20:
 831:Generated_Source\PSoC5/USBUART_std.c ****         for (i = 0u; i < ep; i++)
 364              		.loc 1 831 0
 365 001e 1478     		ldrb	r4, [r2]	@ zero_extendqisi2
 366 0020 007A     		ldrb	r0, [r0, #8]	@ zero_extendqisi2
 367              	.LVL21:
 836:Generated_Source\PSoC5/USBUART_std.c ****             {
 368              		.loc 1 836 0
ARM GAS  C:\Users\chemi\AppData\Local\Temp\cc21dAG8.s 			page 25


 369 0022 DFF800C1 		ldr	ip, .L43+20
 831:Generated_Source\PSoC5/USBUART_std.c ****         for (i = 0u; i < ep; i++)
 370              		.loc 1 831 0
 371 0026 E4B2     		uxtb	r4, r4
 372              	.LVL22:
 373 0028 03EBC000 		add	r0, r3, r0, lsl #3
 374              	.LVL23:
 842:Generated_Source\PSoC5/USBUART_std.c ****                 USBUART_EP[curEp].addr       = pEP->addr;
 375              		.loc 1 842 0
 376 002c 0C26     		movs	r6, #12
 377 002e 0027     		movs	r7, #0
 861:Generated_Source\PSoC5/USBUART_std.c **** 
 378              		.loc 1 861 0
 379 0030 4FF0010E 		mov	lr, #1
 380              	.LVL24:
 381              	.L33:
 832:Generated_Source\PSoC5/USBUART_std.c ****         {
 382              		.loc 1 832 0
 383 0034 8342     		cmp	r3, r0
 384 0036 68D0     		beq	.L31
 835:Generated_Source\PSoC5/USBUART_std.c ****                 (USBUART_interfaceSetting[interfaceNum] == pEP->altSetting))
 385              		.loc 1 835 0
 386 0038 1A78     		ldrb	r2, [r3]	@ zero_extendqisi2
 387 003a A242     		cmp	r2, r4
 388 003c 63D1     		bne	.L34
 836:Generated_Source\PSoC5/USBUART_std.c ****             {
 389              		.loc 1 836 0
 390 003e 1CF80420 		ldrb	r2, [ip, r4]	@ zero_extendqisi2
 835:Generated_Source\PSoC5/USBUART_std.c ****                 (USBUART_interfaceSetting[interfaceNum] == pEP->altSetting))
 391              		.loc 1 835 0
 392 0042 5978     		ldrb	r1, [r3, #1]	@ zero_extendqisi2
 393 0044 9142     		cmp	r1, r2
 394 0046 5ED1     		bne	.L34
 838:Generated_Source\PSoC5/USBUART_std.c ****                 epType = ((uint8) pEP->attributes & USBUART_EP_TYPE_MASK);
 395              		.loc 1 838 0
 396 0048 9A78     		ldrb	r2, [r3, #2]	@ zero_extendqisi2
 839:Generated_Source\PSoC5/USBUART_std.c ****                 
 397              		.loc 1 839 0
 398 004a 93F80390 		ldrb	r9, [r3, #3]	@ zero_extendqisi2
 838:Generated_Source\PSoC5/USBUART_std.c ****                 epType = ((uint8) pEP->attributes & USBUART_EP_TYPE_MASK);
 399              		.loc 1 838 0
 400 004e 02F07F02 		and	r2, r2, #127
 401              	.LVL25:
 842:Generated_Source\PSoC5/USBUART_std.c ****                 USBUART_EP[curEp].addr       = pEP->addr;
 402              		.loc 1 842 0
 403 0052 06FB02FA 		mul	r10, r6, r2
 404 0056 05EB0A01 		add	r1, r5, r10
 405 005a CF70     		strb	r7, [r1, #3]
 843:Generated_Source\PSoC5/USBUART_std.c ****                 USBUART_EP[curEp].attrib     = pEP->attributes;
 406              		.loc 1 843 0
 407 005c 93F802B0 		ldrb	fp, [r3, #2]	@ zero_extendqisi2
 839:Generated_Source\PSoC5/USBUART_std.c ****                 
 408              		.loc 1 839 0
 409 0060 09F00309 		and	r9, r9, #3
 410              	.LVL26:
 843:Generated_Source\PSoC5/USBUART_std.c ****                 USBUART_EP[curEp].attrib     = pEP->attributes;
 411              		.loc 1 843 0
ARM GAS  C:\Users\chemi\AppData\Local\Temp\cc21dAG8.s 			page 26


 412 0064 81F804B0 		strb	fp, [r1, #4]
 844:Generated_Source\PSoC5/USBUART_std.c ****                 USBUART_EP[curEp].bufferSize = pEP->bufferSize;
 413              		.loc 1 844 0
 414 0068 93F803B0 		ldrb	fp, [r3, #3]	@ zero_extendqisi2
 415 006c 05F80AB0 		strb	fp, [r5, r10]
 845:Generated_Source\PSoC5/USBUART_std.c **** 
 416              		.loc 1 845 0
 417 0070 B3F804A0 		ldrh	r10, [r3, #4]
 418 0074 A1F808A0 		strh	r10, [r1, #8]	@ movhi
 847:Generated_Source\PSoC5/USBUART_std.c ****                 {
 419              		.loc 1 847 0
 420 0078 93F902A0 		ldrsb	r10, [r3, #2]
 421 007c BAF1000F 		cmp	r10, #0
 422 0080 0BDA     		bge	.L35
 850:Generated_Source\PSoC5/USBUART_std.c ****                     USBUART_EP[curEp].apiEpState = USBUART_EVENT_PENDING;
 423              		.loc 1 850 0
 424 0082 B9F1010F 		cmp	r9, #1
 425 0086 0CBF     		ite	eq
 426 0088 4FF00709 		moveq	r9, #7
 427              	.LVL27:
 428 008c 4FF00D09 		movne	r9, #13
 429 0090 81F80590 		strb	r9, [r1, #5]
 851:Generated_Source\PSoC5/USBUART_std.c ****                 }
 430              		.loc 1 851 0
 431 0094 81F801E0 		strb	lr, [r1, #1]
 432 0098 09E0     		b	.L37
 433              	.LVL28:
 434              	.L35:
 856:Generated_Source\PSoC5/USBUART_std.c ****                     USBUART_EP[curEp].apiEpState = USBUART_NO_EVENT_PENDING;
 435              		.loc 1 856 0
 436 009a B9F1010F 		cmp	r9, #1
 437 009e 0CBF     		ite	eq
 438 00a0 4FF00509 		moveq	r9, #5
 439              	.LVL29:
 440 00a4 4FF00909 		movne	r9, #9
 441 00a8 81F80590 		strb	r9, [r1, #5]
 857:Generated_Source\PSoC5/USBUART_std.c ****                 }
 442              		.loc 1 857 0
 443 00ac 4F70     		strb	r7, [r1, #1]
 444              	.L37:
 445 00ae 4FEA0219 		lsl	r9, r2, #4
 446 00b2 1A49     		ldr	r1, .L43+12
 907:Generated_Source\PSoC5/USBUART_std.c ****                 USBUART_SIE_EP_BASE.sieEp[curEp].epCnt1 = LO8(USBUART_EP[curEp].bufferSize);
 447              		.loc 1 907 0
 448 00b4 06FB0282 		mla	r2, r6, r2, r8
 449              	.LVL30:
 450 00b8 4944     		add	r1, r1, r9
 861:Generated_Source\PSoC5/USBUART_std.c **** 
 451              		.loc 1 861 0
 452 00ba 81F802E0 		strb	lr, [r1, #2]
 907:Generated_Source\PSoC5/USBUART_std.c ****                 USBUART_SIE_EP_BASE.sieEp[curEp].epCnt1 = LO8(USBUART_EP[curEp].bufferSize);
 453              		.loc 1 907 0
 454 00be B2F808A0 		ldrh	r10, [r2, #8]
 455 00c2 CAF3072A 		ubfx	r10, r10, #8, #8
 456 00c6 81F800A0 		strb	r10, [r1]
 908:Generated_Source\PSoC5/USBUART_std.c ****                 
 457              		.loc 1 908 0
ARM GAS  C:\Users\chemi\AppData\Local\Temp\cc21dAG8.s 			page 27


 458 00ca B2F808A0 		ldrh	r10, [r2, #8]
 459 00ce 5FFA8AFA 		uxtb	r10, r10
 460 00d2 81F801A0 		strb	r10, [r1, #1]
 914:Generated_Source\PSoC5/USBUART_std.c ****                     USBUART_ARB_EP_BASE.arbEp[curEp].rwRaMsb = HI8(USBUART_EP[curEp].buffOffset);
 461              		.loc 1 914 0
 462 00d6 B2F806A0 		ldrh	r10, [r2, #6]
 463 00da 1149     		ldr	r1, .L43+16
 464 00dc 5FFA8AFA 		uxtb	r10, r10
 465 00e0 4944     		add	r1, r1, r9
 466 00e2 81F806A0 		strb	r10, [r1, #6]
 915:Generated_Source\PSoC5/USBUART_std.c ****                     USBUART_ARB_EP_BASE.arbEp[curEp].rwWa    = LO8(USBUART_EP[curEp].buffOffset);
 467              		.loc 1 915 0
 468 00e6 B2F80690 		ldrh	r9, [r2, #6]
 469 00ea C9F30729 		ubfx	r9, r9, #8, #8
 470 00ee 81F80790 		strb	r9, [r1, #7]
 916:Generated_Source\PSoC5/USBUART_std.c ****                     USBUART_ARB_EP_BASE.arbEp[curEp].rwWaMsb = HI8(USBUART_EP[curEp].buffOffset);
 471              		.loc 1 916 0
 472 00f2 B2F80690 		ldrh	r9, [r2, #6]
 473 00f6 5FFA89F9 		uxtb	r9, r9
 474 00fa 81F80490 		strb	r9, [r1, #4]
 917:Generated_Source\PSoC5/USBUART_std.c ****                 #endif /* (CY_PSOC4) */                
 475              		.loc 1 917 0
 476 00fe D288     		ldrh	r2, [r2, #6]
 477 0100 C2F30722 		ubfx	r2, r2, #8, #8
 478 0104 4A71     		strb	r2, [r1, #5]
 479              	.L34:
 922:Generated_Source\PSoC5/USBUART_std.c ****         }
 480              		.loc 1 922 0
 481 0106 0833     		adds	r3, r3, #8
 482              	.LVL31:
 483 0108 94E7     		b	.L33
 484              	.LVL32:
 485              	.L31:
 486 010a BDE8F88F 		pop	{r3, r4, r5, r6, r7, r8, r9, r10, fp, pc}
 487              	.L44:
 488 010e 00BF     		.align	2
 489              	.L43:
 490 0110 00000000 		.word	USBUART_configuration
 491 0114 00000000 		.word	USBUART_EP
 492 0118 00000000 		.word	USBUART_interfaceNumber
 493 011c FC5F0040 		.word	1073766396
 494 0120 70600040 		.word	1073766512
 495 0124 00000000 		.word	USBUART_interfaceSetting
 496              	.LBE8:
 497              	.LBE7:
 498              		.cfi_endproc
 499              	.LFE5:
 500              		.size	USBUART_ConfigAltChanged, .-USBUART_ConfigAltChanged
 501              		.section	.text.USBUART_GetDeviceTablePtr,"ax",%progbits
 502              		.align	1
 503              		.global	USBUART_GetDeviceTablePtr
 504              		.thumb
 505              		.thumb_func
 506              		.type	USBUART_GetDeviceTablePtr, %function
 507              	USBUART_GetDeviceTablePtr:
 508              	.LFB7:
 968:Generated_Source\PSoC5/USBUART_std.c **** 
ARM GAS  C:\Users\chemi\AppData\Local\Temp\cc21dAG8.s 			page 28


 969:Generated_Source\PSoC5/USBUART_std.c **** 
 970:Generated_Source\PSoC5/USBUART_std.c **** #if (USBUART_BOS_ENABLE)
 971:Generated_Source\PSoC5/USBUART_std.c ****     /*******************************************************************************
 972:Generated_Source\PSoC5/USBUART_std.c ****     * Function Name: USBUART_GetBOSPtr
 973:Generated_Source\PSoC5/USBUART_std.c ****     ****************************************************************************//**
 974:Generated_Source\PSoC5/USBUART_std.c ****     *
 975:Generated_Source\PSoC5/USBUART_std.c ****     *  This routine returns a pointer a BOS table entry
 976:Generated_Source\PSoC5/USBUART_std.c ****     *
 977:Generated_Source\PSoC5/USBUART_std.c ****     *  
 978:Generated_Source\PSoC5/USBUART_std.c ****     *
 979:Generated_Source\PSoC5/USBUART_std.c ****     * \return
 980:Generated_Source\PSoC5/USBUART_std.c ****     *  BOS Descriptor pointer or NULL when descriptor does not exist.
 981:Generated_Source\PSoC5/USBUART_std.c ****     *
 982:Generated_Source\PSoC5/USBUART_std.c ****     *******************************************************************************/
 983:Generated_Source\PSoC5/USBUART_std.c ****     const T_USBUART_LUT CYCODE *USBUART_GetBOSPtr(void)
 984:Generated_Source\PSoC5/USBUART_std.c ****                                                             
 985:Generated_Source\PSoC5/USBUART_std.c ****     {
 986:Generated_Source\PSoC5/USBUART_std.c ****         /* Device Table */
 987:Generated_Source\PSoC5/USBUART_std.c ****         const T_USBUART_LUT CYCODE *pTmp;
 988:Generated_Source\PSoC5/USBUART_std.c **** 
 989:Generated_Source\PSoC5/USBUART_std.c ****         pTmp = (const T_USBUART_LUT CYCODE *) USBUART_TABLE[USBUART_device].p_list;
 990:Generated_Source\PSoC5/USBUART_std.c **** 
 991:Generated_Source\PSoC5/USBUART_std.c ****         /* The first entry points to the Device Descriptor,
 992:Generated_Source\PSoC5/USBUART_std.c ****         *  the second entry points to the BOS Descriptor
 993:Generated_Source\PSoC5/USBUART_std.c ****         */
 994:Generated_Source\PSoC5/USBUART_std.c ****         pTmp = &pTmp[1u];
 995:Generated_Source\PSoC5/USBUART_std.c ****         pTmp = (const T_USBUART_LUT CYCODE *) pTmp->p_list;
 996:Generated_Source\PSoC5/USBUART_std.c ****         return (pTmp);
 997:Generated_Source\PSoC5/USBUART_std.c ****     }
 998:Generated_Source\PSoC5/USBUART_std.c **** #endif /* (USBUART_BOS_ENABLE) */
 999:Generated_Source\PSoC5/USBUART_std.c **** 
1000:Generated_Source\PSoC5/USBUART_std.c **** 
1001:Generated_Source\PSoC5/USBUART_std.c **** /*******************************************************************************
1002:Generated_Source\PSoC5/USBUART_std.c **** * Function Name: USBUART_GetDeviceTablePtr
1003:Generated_Source\PSoC5/USBUART_std.c **** ****************************************************************************//**
1004:Generated_Source\PSoC5/USBUART_std.c **** *
1005:Generated_Source\PSoC5/USBUART_std.c **** *  This routine returns a pointer to the Device table
1006:Generated_Source\PSoC5/USBUART_std.c **** *
1007:Generated_Source\PSoC5/USBUART_std.c **** * \return
1008:Generated_Source\PSoC5/USBUART_std.c **** *  Device Table pointer
1009:Generated_Source\PSoC5/USBUART_std.c **** *
1010:Generated_Source\PSoC5/USBUART_std.c **** *******************************************************************************/
1011:Generated_Source\PSoC5/USBUART_std.c **** const T_USBUART_LUT CYCODE *USBUART_GetDeviceTablePtr(void)
1012:Generated_Source\PSoC5/USBUART_std.c ****                                                             
1013:Generated_Source\PSoC5/USBUART_std.c **** {
 509              		.loc 1 1013 0
 510              		.cfi_startproc
 511              		@ args = 0, pretend = 0, frame = 0
 512              		@ frame_needed = 0, uses_anonymous_args = 0
 513              		@ link register save eliminated.
1014:Generated_Source\PSoC5/USBUART_std.c ****     /* Device Table */
1015:Generated_Source\PSoC5/USBUART_std.c ****     return( (const T_USBUART_LUT CYCODE *) USBUART_TABLE[USBUART_device].p_list );
 514              		.loc 1 1015 0
 515 0000 034B     		ldr	r3, .L46
 516 0002 1A78     		ldrb	r2, [r3]	@ zero_extendqisi2
 517 0004 034B     		ldr	r3, .L46+4
 518 0006 03EBC203 		add	r3, r3, r2, lsl #3
ARM GAS  C:\Users\chemi\AppData\Local\Temp\cc21dAG8.s 			page 29


1016:Generated_Source\PSoC5/USBUART_std.c **** }
 519              		.loc 1 1016 0
 520 000a 5868     		ldr	r0, [r3, #4]
 521 000c 7047     		bx	lr
 522              	.L47:
 523 000e 00BF     		.align	2
 524              	.L46:
 525 0010 00000000 		.word	USBUART_device
 526 0014 00000000 		.word	USBUART_TABLE
 527              		.cfi_endproc
 528              	.LFE7:
 529              		.size	USBUART_GetDeviceTablePtr, .-USBUART_GetDeviceTablePtr
 530              		.section	.text.USBUART_GetInterfaceClassTablePtr,"ax",%progbits
 531              		.align	1
 532              		.global	USBUART_GetInterfaceClassTablePtr
 533              		.thumb
 534              		.thumb_func
 535              		.type	USBUART_GetInterfaceClassTablePtr, %function
 536              	USBUART_GetInterfaceClassTablePtr:
 537              	.LFB8:
1017:Generated_Source\PSoC5/USBUART_std.c **** 
1018:Generated_Source\PSoC5/USBUART_std.c **** 
1019:Generated_Source\PSoC5/USBUART_std.c **** /*******************************************************************************
1020:Generated_Source\PSoC5/USBUART_std.c **** * Function Name: USB_GetInterfaceClassTablePtr
1021:Generated_Source\PSoC5/USBUART_std.c **** ****************************************************************************//**
1022:Generated_Source\PSoC5/USBUART_std.c **** *
1023:Generated_Source\PSoC5/USBUART_std.c **** *  This routine returns Interface Class table pointer, which contains
1024:Generated_Source\PSoC5/USBUART_std.c **** *  the relation between interface number and interface class.
1025:Generated_Source\PSoC5/USBUART_std.c **** *
1026:Generated_Source\PSoC5/USBUART_std.c **** * \return
1027:Generated_Source\PSoC5/USBUART_std.c **** *  Interface Class table pointer.
1028:Generated_Source\PSoC5/USBUART_std.c **** *
1029:Generated_Source\PSoC5/USBUART_std.c **** *******************************************************************************/
1030:Generated_Source\PSoC5/USBUART_std.c **** const uint8 CYCODE *USBUART_GetInterfaceClassTablePtr(void)
1031:Generated_Source\PSoC5/USBUART_std.c ****                                                         
1032:Generated_Source\PSoC5/USBUART_std.c **** {
 538              		.loc 1 1032 0
 539              		.cfi_startproc
 540              		@ args = 0, pretend = 0, frame = 0
 541              		@ frame_needed = 0, uses_anonymous_args = 0
 542 0000 08B5     		push	{r3, lr}
 543              		.cfi_def_cfa_offset 8
 544              		.cfi_offset 3, -8
 545              		.cfi_offset 14, -4
1033:Generated_Source\PSoC5/USBUART_std.c ****     const T_USBUART_LUT CYCODE *pTmp;
1034:Generated_Source\PSoC5/USBUART_std.c ****     const uint8 CYCODE *pInterfaceClass;
1035:Generated_Source\PSoC5/USBUART_std.c ****     uint8 currentInterfacesNum;
1036:Generated_Source\PSoC5/USBUART_std.c **** 
1037:Generated_Source\PSoC5/USBUART_std.c ****     pTmp = USBUART_GetConfigTablePtr(USBUART_configuration - 1u);
 546              		.loc 1 1037 0
 547 0002 064B     		ldr	r3, .L51
 548 0004 1878     		ldrb	r0, [r3]	@ zero_extendqisi2
 549 0006 0138     		subs	r0, r0, #1
 550 0008 C0B2     		uxtb	r0, r0
 551 000a FFF7FEFF 		bl	USBUART_GetConfigTablePtr
 552              	.LVL33:
1038:Generated_Source\PSoC5/USBUART_std.c ****     if (pTmp != NULL)
ARM GAS  C:\Users\chemi\AppData\Local\Temp\cc21dAG8.s 			page 30


 553              		.loc 1 1038 0
 554 000e 20B1     		cbz	r0, .L49
 555              	.LVL34:
1039:Generated_Source\PSoC5/USBUART_std.c ****     {
1040:Generated_Source\PSoC5/USBUART_std.c ****         currentInterfacesNum  = ((const uint8 *) pTmp->p_list)[USBUART_CONFIG_DESCR_NUM_INTERFACES]
 556              		.loc 1 1040 0
 557 0010 4368     		ldr	r3, [r0, #4]
1041:Generated_Source\PSoC5/USBUART_std.c ****         /* Third entry in the LUT starts the Interface Table pointers */
1042:Generated_Source\PSoC5/USBUART_std.c ****         /* The INTERFACE_CLASS table is located after all interfaces */
1043:Generated_Source\PSoC5/USBUART_std.c ****         pTmp = &pTmp[currentInterfacesNum + 2u];
 558              		.loc 1 1043 0
 559 0012 1B79     		ldrb	r3, [r3, #4]	@ zero_extendqisi2
 560              	.LVL35:
1044:Generated_Source\PSoC5/USBUART_std.c ****         pInterfaceClass = (const uint8 CYCODE *) pTmp->p_list;
 561              		.loc 1 1044 0
 562 0014 00EBC300 		add	r0, r0, r3, lsl #3
 563              	.LVL36:
 564 0018 4069     		ldr	r0, [r0, #20]
 565              	.LVL37:
 566              	.L49:
1045:Generated_Source\PSoC5/USBUART_std.c ****     }
1046:Generated_Source\PSoC5/USBUART_std.c ****     else
1047:Generated_Source\PSoC5/USBUART_std.c ****     {
1048:Generated_Source\PSoC5/USBUART_std.c ****         pInterfaceClass = (const uint8 CYCODE *) NULL;
1049:Generated_Source\PSoC5/USBUART_std.c ****     }
1050:Generated_Source\PSoC5/USBUART_std.c **** 
1051:Generated_Source\PSoC5/USBUART_std.c ****     return (pInterfaceClass);
1052:Generated_Source\PSoC5/USBUART_std.c **** }
 567              		.loc 1 1052 0
 568 001a 08BD     		pop	{r3, pc}
 569              	.L52:
 570              		.align	2
 571              	.L51:
 572 001c 00000000 		.word	USBUART_configuration
 573              		.cfi_endproc
 574              	.LFE8:
 575              		.size	USBUART_GetInterfaceClassTablePtr, .-USBUART_GetInterfaceClassTablePtr
 576              		.section	.text.USBUART_Config,"ax",%progbits
 577              		.align	1
 578              		.global	USBUART_Config
 579              		.thumb
 580              		.thumb_func
 581              		.type	USBUART_Config, %function
 582              	USBUART_Config:
 583              	.LFB4:
 571:Generated_Source\PSoC5/USBUART_std.c ****     uint8 ep;
 584              		.loc 1 571 0
 585              		.cfi_startproc
 586              		@ args = 0, pretend = 0, frame = 8
 587              		@ frame_needed = 0, uses_anonymous_args = 0
 588              	.LVL38:
 589 0000 2DE9F74F 		push	{r0, r1, r2, r4, r5, r6, r7, r8, r9, r10, fp, lr}
 590              		.cfi_def_cfa_offset 48
 591              		.cfi_offset 4, -36
 592              		.cfi_offset 5, -32
 593              		.cfi_offset 6, -28
 594              		.cfi_offset 7, -24
ARM GAS  C:\Users\chemi\AppData\Local\Temp\cc21dAG8.s 			page 31


 595              		.cfi_offset 8, -20
 596              		.cfi_offset 9, -16
 597              		.cfi_offset 10, -12
 598              		.cfi_offset 11, -8
 599              		.cfi_offset 14, -4
 571:Generated_Source\PSoC5/USBUART_std.c ****     uint8 ep;
 600              		.loc 1 571 0
 601 0004 0021     		movs	r1, #0
 588:Generated_Source\PSoC5/USBUART_std.c ****         USBUART_EP[ep].hwEpState  = 0u;
 602              		.loc 1 588 0
 603 0006 0B46     		mov	r3, r1
 604 0008 544E     		ldr	r6, .L83
 605 000a 0C27     		movs	r7, #12
 606              	.LVL39:
 607              	.L54:
 588:Generated_Source\PSoC5/USBUART_std.c ****         USBUART_EP[ep].hwEpState  = 0u;
 608              		.loc 1 588 0 is_stmt 0 discriminator 3
 609 000c 07FB01F5 		mul	r5, r7, r1
 610 0010 0131     		adds	r1, r1, #1
 611              	.LVL40:
 612 0012 7219     		adds	r2, r6, r5
 586:Generated_Source\PSoC5/USBUART_std.c ****     {
 613              		.loc 1 586 0 is_stmt 1 discriminator 3
 614 0014 0929     		cmp	r1, #9
 588:Generated_Source\PSoC5/USBUART_std.c ****         USBUART_EP[ep].hwEpState  = 0u;
 615              		.loc 1 588 0 discriminator 3
 616 0016 7355     		strb	r3, [r6, r5]
 617 0018 4FF00004 		mov	r4, #0
 589:Generated_Source\PSoC5/USBUART_std.c ****         USBUART_EP[ep].epToggle   = 0u;
 618              		.loc 1 589 0 discriminator 3
 619 001c 9370     		strb	r3, [r2, #2]
 620 001e DFF83C91 		ldr	r9, .L83
 590:Generated_Source\PSoC5/USBUART_std.c ****         USBUART_EP[ep].bufferSize = 0u;
 621              		.loc 1 590 0 discriminator 3
 622 0022 D370     		strb	r3, [r2, #3]
 591:Generated_Source\PSoC5/USBUART_std.c ****         USBUART_EP[ep].interface  = 0u;
 623              		.loc 1 591 0 discriminator 3
 624 0024 1381     		strh	r3, [r2, #8]	@ movhi
 592:Generated_Source\PSoC5/USBUART_std.c ****         USBUART_EP[ep].apiEpState = USBUART_NO_EVENT_PENDING;
 625              		.loc 1 592 0 discriminator 3
 626 0026 9372     		strb	r3, [r2, #10]
 593:Generated_Source\PSoC5/USBUART_std.c ****         USBUART_EP[ep].epMode     = USBUART_MODE_DISABLE;   
 627              		.loc 1 593 0 discriminator 3
 628 0028 5370     		strb	r3, [r2, #1]
 594:Generated_Source\PSoC5/USBUART_std.c ****     }
 629              		.loc 1 594 0 discriminator 3
 630 002a 5371     		strb	r3, [r2, #5]
 586:Generated_Source\PSoC5/USBUART_std.c ****     {
 631              		.loc 1 586 0 discriminator 3
 632 002c EED1     		bne	.L54
 598:Generated_Source\PSoC5/USBUART_std.c ****     {
 633              		.loc 1 598 0
 634 002e 28B1     		cbz	r0, .L55
 635              	.LVL41:
 602:Generated_Source\PSoC5/USBUART_std.c ****             USBUART_interfaceSettingLast[i] = 0u;
 636              		.loc 1 602 0 discriminator 1
 637 0030 4B4A     		ldr	r2, .L83+4
ARM GAS  C:\Users\chemi\AppData\Local\Temp\cc21dAG8.s 			page 32


 603:Generated_Source\PSoC5/USBUART_std.c ****         }
 638              		.loc 1 603 0 discriminator 1
 639 0032 4C4B     		ldr	r3, .L83+8
 602:Generated_Source\PSoC5/USBUART_std.c ****             USBUART_interfaceSettingLast[i] = 0u;
 640              		.loc 1 602 0 discriminator 1
 641 0034 1470     		strb	r4, [r2]
 603:Generated_Source\PSoC5/USBUART_std.c ****         }
 642              		.loc 1 603 0 discriminator 1
 643 0036 1C70     		strb	r4, [r3]
 644              	.LVL42:
 602:Generated_Source\PSoC5/USBUART_std.c ****             USBUART_interfaceSettingLast[i] = 0u;
 645              		.loc 1 602 0 discriminator 1
 646 0038 5470     		strb	r4, [r2, #1]
 603:Generated_Source\PSoC5/USBUART_std.c ****         }
 647              		.loc 1 603 0 discriminator 1
 648 003a 5C70     		strb	r4, [r3, #1]
 649              	.LVL43:
 650              	.L55:
 608:Generated_Source\PSoC5/USBUART_std.c ****     {
 651              		.loc 1 608 0
 652 003c 4A4B     		ldr	r3, .L83+12
 653 003e 1A78     		ldrb	r2, [r3]	@ zero_extendqisi2
 654 0040 002A     		cmp	r2, #0
 655 0042 00F08880 		beq	.L53
 656              	.LVL44:
 657              	.LBB12:
 658              	.LBB13:
 659              	.LBB14:
 614:Generated_Source\PSoC5/USBUART_std.c ****         
 660              		.loc 1 614 0
 661 0046 1878     		ldrb	r0, [r3]	@ zero_extendqisi2
 662              	.LVL45:
 629:Generated_Source\PSoC5/USBUART_std.c **** 
 663              		.loc 1 629 0
 664 0048 0127     		movs	r7, #1
 614:Generated_Source\PSoC5/USBUART_std.c ****         
 665              		.loc 1 614 0
 666 004a 0138     		subs	r0, r0, #1
 667 004c C0B2     		uxtb	r0, r0
 668 004e FFF7FEFF 		bl	USBUART_GetConfigTablePtr
 669              	.LVL46:
 670 0052 8046     		mov	r8, r0
 671              	.LVL47:
 618:Generated_Source\PSoC5/USBUART_std.c ****         {
 672              		.loc 1 618 0
 673 0054 4368     		ldr	r3, [r0, #4]
 674 0056 057A     		ldrb	r5, [r0, #8]	@ zero_extendqisi2
 675 0058 DB79     		ldrb	r3, [r3, #7]	@ zero_extendqisi2
 676 005a ED00     		lsls	r5, r5, #3
 677 005c 13F0400F 		tst	r3, #64
 678 0060 424B     		ldr	r3, .L83+16
 611:Generated_Source\PSoC5/USBUART_std.c ****         #endif  /* (USBUART_ENABLE_CDC_CLASS) */  
 679              		.loc 1 611 0
 680 0062 4FF0000C 		mov	ip, #0
 620:Generated_Source\PSoC5/USBUART_std.c ****         }
 681              		.loc 1 620 0
 682 0066 1A78     		ldrb	r2, [r3]	@ zero_extendqisi2
ARM GAS  C:\Users\chemi\AppData\Local\Temp\cc21dAG8.s 			page 33


 699:Generated_Source\PSoC5/USBUART_std.c ****                         {
 683              		.loc 1 699 0
 684 0068 4FF00C0A 		mov	r10, #12
 620:Generated_Source\PSoC5/USBUART_std.c ****         }
 685              		.loc 1 620 0
 686 006c 14BF     		ite	ne
 687 006e 42F00102 		orrne	r2, r2, #1
 624:Generated_Source\PSoC5/USBUART_std.c ****         }
 688              		.loc 1 624 0
 689 0072 02F0FE02 		andeq	r2, r2, #254
 690 0076 1A70     		strb	r2, [r3]
 691              	.LVL48:
 692              	.L67:
 699:Generated_Source\PSoC5/USBUART_std.c ****                         {
 693              		.loc 1 699 0
 694 0078 0AFB0796 		mla	r6, r10, r7, r9
 690:Generated_Source\PSoC5/USBUART_std.c ****                 /* Find max length for each EP and select it (length could be different in differen
 695              		.loc 1 690 0
 696 007c D8F80C40 		ldr	r4, [r8, #12]
 697 0080 FBB2     		uxtb	r3, r7
 698              	.LVL49:
 699 0082 04EB050B 		add	fp, r4, r5
 700              	.LVL50:
 701              	.L59:
 694:Generated_Source\PSoC5/USBUART_std.c ****                 {
 702              		.loc 1 694 0
 703 0086 5C45     		cmp	r4, fp
 704 0088 3AD0     		beq	.L81
 696:Generated_Source\PSoC5/USBUART_std.c ****                     {
 705              		.loc 1 696 0
 706 008a A078     		ldrb	r0, [r4, #2]	@ zero_extendqisi2
 707 008c 00F07F01 		and	r1, r0, #127
 708 0090 B942     		cmp	r1, r7
 709 0092 33D1     		bne	.L60
 699:Generated_Source\PSoC5/USBUART_std.c ****                         {
 710              		.loc 1 699 0
 711 0094 3189     		ldrh	r1, [r6, #8]
 712 0096 B4F804E0 		ldrh	lr, [r4, #4]
 713 009a 89B2     		uxth	r1, r1
 714 009c 7145     		cmp	r1, lr
 701:Generated_Source\PSoC5/USBUART_std.c ****                         }
 715              		.loc 1 701 0
 716 009e 38BF     		it	cc
 717 00a0 A6F808E0 		strhcc	lr, [r6, #8]	@ movhi
 705:Generated_Source\PSoC5/USBUART_std.c ****                         {                            
 718              		.loc 1 705 0
 719 00a4 2178     		ldrb	r1, [r4]	@ zero_extendqisi2
 720 00a6 2E4A     		ldr	r2, .L83+4
 721 00a8 94F801E0 		ldrb	lr, [r4, #1]	@ zero_extendqisi2
 722 00ac 515C     		ldrb	r1, [r2, r1]	@ zero_extendqisi2
 723 00ae 8E45     		cmp	lr, r1
 724 00b0 24D1     		bne	.L60
 707:Generated_Source\PSoC5/USBUART_std.c ****                             USBUART_EP[i].attrib = pEP->attributes;
 725              		.loc 1 707 0
 726 00b2 3071     		strb	r0, [r6, #4]
 708:Generated_Source\PSoC5/USBUART_std.c ****                             
 727              		.loc 1 708 0
ARM GAS  C:\Users\chemi\AppData\Local\Temp\cc21dAG8.s 			page 34


 728 00b4 E178     		ldrb	r1, [r4, #3]	@ zero_extendqisi2
 729 00b6 3170     		strb	r1, [r6]
 712:Generated_Source\PSoC5/USBUART_std.c ****                             {
 730              		.loc 1 712 0
 731 00b8 94F90200 		ldrsb	r0, [r4, #2]
 710:Generated_Source\PSoC5/USBUART_std.c ****                             
 732              		.loc 1 710 0
 733 00bc E178     		ldrb	r1, [r4, #3]	@ zero_extendqisi2
 712:Generated_Source\PSoC5/USBUART_std.c ****                             {
 734              		.loc 1 712 0
 735 00be 0028     		cmp	r0, #0
 710:Generated_Source\PSoC5/USBUART_std.c ****                             
 736              		.loc 1 710 0
 737 00c0 01F00301 		and	r1, r1, #3
 738              	.LVL51:
 712:Generated_Source\PSoC5/USBUART_std.c ****                             {
 739              		.loc 1 712 0
 740 00c4 06DA     		bge	.L62
 715:Generated_Source\PSoC5/USBUART_std.c ****                                 USBUART_EP[i].apiEpState = USBUART_EVENT_PENDING;
 741              		.loc 1 715 0
 742 00c6 0129     		cmp	r1, #1
 743 00c8 0CBF     		ite	eq
 744 00ca 0721     		moveq	r1, #7
 745              	.LVL52:
 746 00cc 0D21     		movne	r1, #13
 747 00ce 7171     		strb	r1, [r6, #5]
 748              	.LVL53:
 716:Generated_Source\PSoC5/USBUART_std.c ****                                 
 749              		.loc 1 716 0
 750 00d0 0121     		movs	r1, #1
 751 00d2 05E0     		b	.L80
 752              	.LVL54:
 753              	.L62:
 728:Generated_Source\PSoC5/USBUART_std.c ****                                 USBUART_EP[i].apiEpState = USBUART_NO_EVENT_PENDING;
 754              		.loc 1 728 0
 755 00d4 0129     		cmp	r1, #1
 756 00d6 0CBF     		ite	eq
 757 00d8 0521     		moveq	r1, #5
 758              	.LVL55:
 759 00da 0921     		movne	r1, #9
 760 00dc 7171     		strb	r1, [r6, #5]
 761              	.LVL56:
 729:Generated_Source\PSoC5/USBUART_std.c ****                                 
 762              		.loc 1 729 0
 763 00de 0021     		movs	r1, #0
 764              	.L80:
 765 00e0 7170     		strb	r1, [r6, #1]
 740:Generated_Source\PSoC5/USBUART_std.c ****                             {
 766              		.loc 1 740 0
 767 00e2 A179     		ldrb	r1, [r4, #6]	@ zero_extendqisi2
 768 00e4 01F0F701 		and	r1, r1, #247
 769 00e8 0229     		cmp	r1, #2
 770 00ea 07D1     		bne	.L60
 742:Generated_Source\PSoC5/USBUART_std.c ****                             }
 771              		.loc 1 742 0
 772 00ec 6246     		mov	r2, ip
 773 00ee 1946     		mov	r1, r3
ARM GAS  C:\Users\chemi\AppData\Local\Temp\cc21dAG8.s 			page 35


 774 00f0 2046     		mov	r0, r4
 775 00f2 0193     		str	r3, [sp, #4]
 776 00f4 FFF7FEFF 		bl	USBUART_Cdc_EpInit
 777              	.LVL57:
 778 00f8 8446     		mov	ip, r0
 779 00fa 019B     		ldr	r3, [sp, #4]
 780              	.LVL58:
 781              	.L60:
 752:Generated_Source\PSoC5/USBUART_std.c ****                 }
 782              		.loc 1 752 0
 783 00fc 0834     		adds	r4, r4, #8
 784              	.LVL59:
 785 00fe C2E7     		b	.L59
 786              	.L81:
 787              	.LVL60:
 788 0100 0137     		adds	r7, r7, #1
 789              	.LVL61:
 687:Generated_Source\PSoC5/USBUART_std.c ****             {
 790              		.loc 1 687 0
 791 0102 092F     		cmp	r7, #9
 792 0104 B8D1     		bne	.L67
 762:Generated_Source\PSoC5/USBUART_std.c ****         for (i = 0u; i < ep; i++)
 793              		.loc 1 762 0
 794 0106 D8F80C20 		ldr	r2, [r8, #12]
 795              	.LVL62:
 796 010a 0A35     		adds	r5, r5, #10
 797 010c 931C     		adds	r3, r2, #2
 798 010e 1544     		add	r5, r5, r2
 766:Generated_Source\PSoC5/USBUART_std.c ****             pEP = &pEP[1u];
 799              		.loc 1 766 0
 800 0110 0C21     		movs	r1, #12
 801              	.LVL63:
 802              	.L68:
 803 0112 0833     		adds	r3, r3, #8
 804              	.LVL64:
 763:Generated_Source\PSoC5/USBUART_std.c ****         {
 805              		.loc 1 763 0
 806 0114 AB42     		cmp	r3, r5
 807 0116 09D0     		beq	.L82
 766:Generated_Source\PSoC5/USBUART_std.c ****             pEP = &pEP[1u];
 808              		.loc 1 766 0
 809 0118 13F8082C 		ldrb	r2, [r3, #-8]	@ zero_extendqisi2
 810 011c 13F80A0C 		ldrb	r0, [r3, #-10]	@ zero_extendqisi2
 811 0120 02F07F02 		and	r2, r2, #127
 812 0124 01FB0292 		mla	r2, r1, r2, r9
 813 0128 9072     		strb	r0, [r2, #10]
 814              	.LVL65:
 815 012a F2E7     		b	.L68
 816              	.LVL66:
 817              	.L82:
 771:Generated_Source\PSoC5/USBUART_std.c ****         
 818              		.loc 1 771 0
 819 012c FFF7FEFF 		bl	USBUART_GetInterfaceClassTablePtr
 820              	.LVL67:
 821 0130 0F4B     		ldr	r3, .L83+20
 822 0132 0122     		movs	r2, #1
 823 0134 1860     		str	r0, [r3]
ARM GAS  C:\Users\chemi\AppData\Local\Temp\cc21dAG8.s 			page 36


 824              	.LVL68:
 775:Generated_Source\PSoC5/USBUART_std.c ****         for (ep = USBUART_EP1; ep < USBUART_MAX_EP; ++ep)
 825              		.loc 1 775 0
 826 0136 0023     		movs	r3, #0
 778:Generated_Source\PSoC5/USBUART_std.c ****             buffCount += USBUART_EP[ep].bufferSize;
 827              		.loc 1 778 0
 828 0138 0C20     		movs	r0, #12
 829              	.LVL69:
 830              	.L70:
 831 013a 00FB0291 		mla	r1, r0, r2, r9
 832 013e CB80     		strh	r3, [r1, #6]	@ movhi
 779:Generated_Source\PSoC5/USBUART_std.c ****             
 833              		.loc 1 779 0
 834 0140 0989     		ldrh	r1, [r1, #8]
 835 0142 0132     		adds	r2, r2, #1
 836              	.LVL70:
 837 0144 0B44     		add	r3, r3, r1
 838              	.LVL71:
 776:Generated_Source\PSoC5/USBUART_std.c ****         {
 839              		.loc 1 776 0
 840 0146 092A     		cmp	r2, #9
 779:Generated_Source\PSoC5/USBUART_std.c ****             
 841              		.loc 1 779 0
 842 0148 9BB2     		uxth	r3, r3
 843              	.LVL72:
 776:Generated_Source\PSoC5/USBUART_std.c ****         {
 844              		.loc 1 776 0
 845 014a F6D1     		bne	.L70
 846              	.LBE14:
 847              	.LBE13:
 848              	.LBE12:
 791:Generated_Source\PSoC5/USBUART_std.c **** 
 849              		.loc 1 791 0
 850 014c 03B0     		add	sp, sp, #12
 851              		.cfi_remember_state
 852              		.cfi_def_cfa_offset 36
 853              		@ sp needed
 854 014e BDE8F04F 		pop	{r4, r5, r6, r7, r8, r9, r10, fp, lr}
 855              		.cfi_restore 14
 856              		.cfi_restore 11
 857              		.cfi_restore 10
 858              		.cfi_restore 9
 859              		.cfi_restore 8
 860              		.cfi_restore 7
 861              		.cfi_restore 6
 862              		.cfi_restore 5
 863              		.cfi_restore 4
 864              		.cfi_def_cfa_offset 0
 865              	.LVL73:
 866              	.LBB17:
 867              	.LBB16:
 868              	.LBB15:
 789:Generated_Source\PSoC5/USBUART_std.c ****     }
 869              		.loc 1 789 0
 870 0152 FFF7FEBF 		b	USBUART_ConfigReg
 871              	.LVL74:
 872              	.L53:
ARM GAS  C:\Users\chemi\AppData\Local\Temp\cc21dAG8.s 			page 37


 873              		.cfi_restore_state
 874              	.LBE15:
 875              	.LBE16:
 876              	.LBE17:
 791:Generated_Source\PSoC5/USBUART_std.c **** 
 877              		.loc 1 791 0
 878 0156 03B0     		add	sp, sp, #12
 879              		.cfi_def_cfa_offset 36
 880              		@ sp needed
 881 0158 BDE8F08F 		pop	{r4, r5, r6, r7, r8, r9, r10, fp, pc}
 882              	.L84:
 883              		.align	2
 884              	.L83:
 885 015c 00000000 		.word	USBUART_EP
 886 0160 00000000 		.word	USBUART_interfaceSetting
 887 0164 00000000 		.word	USBUART_interfaceSettingLast
 888 0168 00000000 		.word	USBUART_configuration
 889 016c 00000000 		.word	USBUART_deviceStatus
 890 0170 00000000 		.word	USBUART_interfaceClass
 891              		.cfi_endproc
 892              	.LFE4:
 893              		.size	USBUART_Config, .-USBUART_Config
 894              		.section	.text.USBUART_TerminateEP,"ax",%progbits
 895              		.align	1
 896              		.global	USBUART_TerminateEP
 897              		.thumb
 898              		.thumb_func
 899              		.type	USBUART_TerminateEP, %function
 900              	USBUART_TerminateEP:
 901              	.LFB9:
1053:Generated_Source\PSoC5/USBUART_std.c **** 
1054:Generated_Source\PSoC5/USBUART_std.c **** 
1055:Generated_Source\PSoC5/USBUART_std.c **** /*******************************************************************************
1056:Generated_Source\PSoC5/USBUART_std.c **** * Function Name: USBUART_TerminateEP
1057:Generated_Source\PSoC5/USBUART_std.c **** ****************************************************************************//**
1058:Generated_Source\PSoC5/USBUART_std.c **** *
1059:Generated_Source\PSoC5/USBUART_std.c **** *  This function terminates the specified USBFS endpoint.
1060:Generated_Source\PSoC5/USBUART_std.c **** *  This function should be used before endpoint reconfiguration.
1061:Generated_Source\PSoC5/USBUART_std.c **** *
1062:Generated_Source\PSoC5/USBUART_std.c **** *  \param ep Contains the data endpoint number.
1063:Generated_Source\PSoC5/USBUART_std.c **** *
1064:Generated_Source\PSoC5/USBUART_std.c **** *  \reentrant
1065:Generated_Source\PSoC5/USBUART_std.c **** *  No.
1066:Generated_Source\PSoC5/USBUART_std.c **** *
1067:Generated_Source\PSoC5/USBUART_std.c **** * \sideeffect
1068:Generated_Source\PSoC5/USBUART_std.c **** * 
1069:Generated_Source\PSoC5/USBUART_std.c **** * The device responds with a NAK for any transactions on the selected endpoint.
1070:Generated_Source\PSoC5/USBUART_std.c **** *   
1071:Generated_Source\PSoC5/USBUART_std.c **** *******************************************************************************/
1072:Generated_Source\PSoC5/USBUART_std.c **** void USBUART_TerminateEP(uint8 epNumber) 
1073:Generated_Source\PSoC5/USBUART_std.c **** {
 902              		.loc 1 1073 0
 903              		.cfi_startproc
 904              		@ args = 0, pretend = 0, frame = 0
 905              		@ frame_needed = 0, uses_anonymous_args = 0
 906              		@ link register save eliminated.
 907              	.LVL75:
ARM GAS  C:\Users\chemi\AppData\Local\Temp\cc21dAG8.s 			page 38


1074:Generated_Source\PSoC5/USBUART_std.c ****     /* Get endpoint number */
1075:Generated_Source\PSoC5/USBUART_std.c ****     epNumber &= USBUART_DIR_UNUSED;
 908              		.loc 1 1075 0
 909 0000 00F07F00 		and	r0, r0, #127
 910              	.LVL76:
1076:Generated_Source\PSoC5/USBUART_std.c **** 
1077:Generated_Source\PSoC5/USBUART_std.c ****     if ((epNumber > USBUART_EP0) && (epNumber < USBUART_MAX_EP))
 911              		.loc 1 1077 0
 912 0004 431E     		subs	r3, r0, #1
 913 0006 072B     		cmp	r3, #7
 914 0008 15D8     		bhi	.L85
1078:Generated_Source\PSoC5/USBUART_std.c ****     {
1079:Generated_Source\PSoC5/USBUART_std.c ****         /* Set the endpoint Halt */
1080:Generated_Source\PSoC5/USBUART_std.c ****         USBUART_EP[epNumber].hwEpState |= USBUART_ENDPOINT_STATUS_HALT;
 915              		.loc 1 1080 0
 916 000a 0B4B     		ldr	r3, .L88
 917 000c 0C21     		movs	r1, #12
 918 000e 01FB0033 		mla	r3, r1, r0, r3
 919 0012 9A78     		ldrb	r2, [r3, #2]	@ zero_extendqisi2
 920 0014 0001     		lsls	r0, r0, #4
 921              	.LVL77:
 922 0016 42F00102 		orr	r2, r2, #1
 923 001a 9A70     		strb	r2, [r3, #2]
1081:Generated_Source\PSoC5/USBUART_std.c **** 
1082:Generated_Source\PSoC5/USBUART_std.c ****         /* Clear the data toggle */
1083:Generated_Source\PSoC5/USBUART_std.c ****         USBUART_EP[epNumber].epToggle = 0u;
 924              		.loc 1 1083 0
 925 001c 0022     		movs	r2, #0
 926 001e DA70     		strb	r2, [r3, #3]
1084:Generated_Source\PSoC5/USBUART_std.c ****         USBUART_EP[epNumber].apiEpState = USBUART_NO_EVENT_ALLOWED;
 927              		.loc 1 1084 0
 928 0020 0222     		movs	r2, #2
 929 0022 5A70     		strb	r2, [r3, #1]
1085:Generated_Source\PSoC5/USBUART_std.c **** 
1086:Generated_Source\PSoC5/USBUART_std.c ****         if ((USBUART_EP[epNumber].addr & USBUART_DIR_IN) != 0u)
 930              		.loc 1 1086 0
 931 0024 1B79     		ldrb	r3, [r3, #4]	@ zero_extendqisi2
 932 0026 13F0800F 		tst	r3, #128
1087:Generated_Source\PSoC5/USBUART_std.c ****         {   
1088:Generated_Source\PSoC5/USBUART_std.c ****             /* IN Endpoint */
1089:Generated_Source\PSoC5/USBUART_std.c ****             USBUART_SIE_EP_BASE.sieEp[epNumber].epCr0 = USBUART_MODE_NAK_IN;
 933              		.loc 1 1089 0
 934 002a 044B     		ldr	r3, .L88+4
1086:Generated_Source\PSoC5/USBUART_std.c ****         {   
 935              		.loc 1 1086 0
 936 002c 01D0     		beq	.L87
 937              		.loc 1 1089 0
 938 002e 1954     		strb	r1, [r3, r0]
 939 0030 7047     		bx	lr
 940              	.L87:
1090:Generated_Source\PSoC5/USBUART_std.c ****         }
1091:Generated_Source\PSoC5/USBUART_std.c ****         else
1092:Generated_Source\PSoC5/USBUART_std.c ****         {
1093:Generated_Source\PSoC5/USBUART_std.c ****             /* OUT Endpoint */
1094:Generated_Source\PSoC5/USBUART_std.c ****             USBUART_SIE_EP_BASE.sieEp[epNumber].epCr0 = USBUART_MODE_NAK_OUT;
 941              		.loc 1 1094 0
 942 0032 0822     		movs	r2, #8
ARM GAS  C:\Users\chemi\AppData\Local\Temp\cc21dAG8.s 			page 39


 943 0034 1A54     		strb	r2, [r3, r0]
 944              	.L85:
 945 0036 7047     		bx	lr
 946              	.L89:
 947              		.align	2
 948              	.L88:
 949 0038 00000000 		.word	USBUART_EP
 950 003c FE5F0040 		.word	1073766398
 951              		.cfi_endproc
 952              	.LFE9:
 953              		.size	USBUART_TerminateEP, .-USBUART_TerminateEP
 954              		.section	.text.USBUART_SetEndpointHalt,"ax",%progbits
 955              		.align	1
 956              		.global	USBUART_SetEndpointHalt
 957              		.thumb
 958              		.thumb_func
 959              		.type	USBUART_SetEndpointHalt, %function
 960              	USBUART_SetEndpointHalt:
 961              	.LFB10:
1095:Generated_Source\PSoC5/USBUART_std.c ****         }
1096:Generated_Source\PSoC5/USBUART_std.c ****     }
1097:Generated_Source\PSoC5/USBUART_std.c **** }
1098:Generated_Source\PSoC5/USBUART_std.c **** 
1099:Generated_Source\PSoC5/USBUART_std.c **** 
1100:Generated_Source\PSoC5/USBUART_std.c **** /*******************************************************************************
1101:Generated_Source\PSoC5/USBUART_std.c **** * Function Name: USBUART_SetEndpointHalt
1102:Generated_Source\PSoC5/USBUART_std.c **** ****************************************************************************//**
1103:Generated_Source\PSoC5/USBUART_std.c **** *
1104:Generated_Source\PSoC5/USBUART_std.c **** *  This routine handles set endpoint halt.
1105:Generated_Source\PSoC5/USBUART_std.c **** *
1106:Generated_Source\PSoC5/USBUART_std.c **** * \return
1107:Generated_Source\PSoC5/USBUART_std.c **** *  requestHandled.
1108:Generated_Source\PSoC5/USBUART_std.c **** *
1109:Generated_Source\PSoC5/USBUART_std.c **** * \reentrant
1110:Generated_Source\PSoC5/USBUART_std.c **** *  No.
1111:Generated_Source\PSoC5/USBUART_std.c **** *
1112:Generated_Source\PSoC5/USBUART_std.c **** *******************************************************************************/
1113:Generated_Source\PSoC5/USBUART_std.c **** uint8 USBUART_SetEndpointHalt(void) 
1114:Generated_Source\PSoC5/USBUART_std.c **** {
 962              		.loc 1 1114 0
 963              		.cfi_startproc
 964              		@ args = 0, pretend = 0, frame = 0
 965              		@ frame_needed = 0, uses_anonymous_args = 0
 966              		@ link register save eliminated.
 967              	.LVL78:
1115:Generated_Source\PSoC5/USBUART_std.c ****     uint8 requestHandled = USBUART_FALSE;
1116:Generated_Source\PSoC5/USBUART_std.c ****     uint8 ep;
1117:Generated_Source\PSoC5/USBUART_std.c ****     
1118:Generated_Source\PSoC5/USBUART_std.c ****     /* Set endpoint halt */
1119:Generated_Source\PSoC5/USBUART_std.c ****     ep = USBUART_wIndexLoReg & USBUART_DIR_UNUSED;
 968              		.loc 1 1119 0
 969 0000 114B     		ldr	r3, .L95
 970 0002 1B79     		ldrb	r3, [r3, #4]	@ zero_extendqisi2
 971 0004 03F07F03 		and	r3, r3, #127
 972              	.LVL79:
1120:Generated_Source\PSoC5/USBUART_std.c **** 
1121:Generated_Source\PSoC5/USBUART_std.c ****     if ((ep > USBUART_EP0) && (ep < USBUART_MAX_EP))
ARM GAS  C:\Users\chemi\AppData\Local\Temp\cc21dAG8.s 			page 40


 973              		.loc 1 1121 0
 974 0008 5A1E     		subs	r2, r3, #1
 975 000a 072A     		cmp	r2, #7
 976 000c 19D8     		bhi	.L91
1122:Generated_Source\PSoC5/USBUART_std.c ****     {
1123:Generated_Source\PSoC5/USBUART_std.c ****         /* Set the endpoint Halt */
1124:Generated_Source\PSoC5/USBUART_std.c ****         USBUART_EP[ep].hwEpState |= (USBUART_ENDPOINT_STATUS_HALT);
 977              		.loc 1 1124 0
 978 000e 0F49     		ldr	r1, .L95+4
 979 0010 0C22     		movs	r2, #12
 980 0012 02FB0312 		mla	r2, r2, r3, r1
 981 0016 9178     		ldrb	r1, [r2, #2]	@ zero_extendqisi2
 982 0018 1B01     		lsls	r3, r3, #4
 983              	.LVL80:
 984 001a 41F00101 		orr	r1, r1, #1
 985 001e 9170     		strb	r1, [r2, #2]
1125:Generated_Source\PSoC5/USBUART_std.c **** 
1126:Generated_Source\PSoC5/USBUART_std.c ****         /* Clear the data toggle */
1127:Generated_Source\PSoC5/USBUART_std.c ****         USBUART_EP[ep].epToggle = 0u;
 986              		.loc 1 1127 0
 987 0020 0021     		movs	r1, #0
 988 0022 D170     		strb	r1, [r2, #3]
1128:Generated_Source\PSoC5/USBUART_std.c ****         USBUART_EP[ep].apiEpState |= USBUART_NO_EVENT_ALLOWED;
 989              		.loc 1 1128 0
 990 0024 5178     		ldrb	r1, [r2, #1]	@ zero_extendqisi2
 991 0026 41F00201 		orr	r1, r1, #2
 992 002a 5170     		strb	r1, [r2, #1]
1129:Generated_Source\PSoC5/USBUART_std.c **** 
1130:Generated_Source\PSoC5/USBUART_std.c ****         if ((USBUART_EP[ep].addr & USBUART_DIR_IN) != 0u)
 993              		.loc 1 1130 0
 994 002c 1279     		ldrb	r2, [r2, #4]	@ zero_extendqisi2
 995 002e 12F0800F 		tst	r2, #128
1131:Generated_Source\PSoC5/USBUART_std.c ****         {
1132:Generated_Source\PSoC5/USBUART_std.c ****             /* IN Endpoint */
1133:Generated_Source\PSoC5/USBUART_std.c ****             USBUART_SIE_EP_BASE.sieEp[ep].epCr0 = (USBUART_MODE_STALL_DATA_EP | 
 996              		.loc 1 1133 0
 997 0032 074A     		ldr	r2, .L95+8
 998 0034 1A44     		add	r2, r2, r3
 999 0036 14BF     		ite	ne
 1000 0038 8D23     		movne	r3, #141
1134:Generated_Source\PSoC5/USBUART_std.c ****                                                             USBUART_MODE_ACK_IN);
1135:Generated_Source\PSoC5/USBUART_std.c ****         }
1136:Generated_Source\PSoC5/USBUART_std.c ****         else
1137:Generated_Source\PSoC5/USBUART_std.c ****         {
1138:Generated_Source\PSoC5/USBUART_std.c ****             /* OUT Endpoint */
1139:Generated_Source\PSoC5/USBUART_std.c ****             USBUART_SIE_EP_BASE.sieEp[ep].epCr0 = (USBUART_MODE_STALL_DATA_EP | 
 1001              		.loc 1 1139 0
 1002 003a 8923     		moveq	r3, #137
 1003 003c 9370     		strb	r3, [r2, #2]
1140:Generated_Source\PSoC5/USBUART_std.c ****                                                             USBUART_MODE_ACK_OUT);
1141:Generated_Source\PSoC5/USBUART_std.c ****         }
1142:Generated_Source\PSoC5/USBUART_std.c ****         requestHandled = USBUART_InitNoDataControlTransfer();
 1004              		.loc 1 1142 0
 1005 003e FFF7FEBF 		b	USBUART_InitNoDataControlTransfer
 1006              	.LVL81:
 1007              	.L91:
1143:Generated_Source\PSoC5/USBUART_std.c ****     }
ARM GAS  C:\Users\chemi\AppData\Local\Temp\cc21dAG8.s 			page 41


1144:Generated_Source\PSoC5/USBUART_std.c **** 
1145:Generated_Source\PSoC5/USBUART_std.c ****     return (requestHandled);
1146:Generated_Source\PSoC5/USBUART_std.c **** }
 1008              		.loc 1 1146 0
 1009 0042 0020     		movs	r0, #0
 1010 0044 7047     		bx	lr
 1011              	.L96:
 1012 0046 00BF     		.align	2
 1013              	.L95:
 1014 0048 00600040 		.word	1073766400
 1015 004c 00000000 		.word	USBUART_EP
 1016 0050 FC5F0040 		.word	1073766396
 1017              		.cfi_endproc
 1018              	.LFE10:
 1019              		.size	USBUART_SetEndpointHalt, .-USBUART_SetEndpointHalt
 1020              		.section	.text.USBUART_ClearEndpointHalt,"ax",%progbits
 1021              		.align	1
 1022              		.global	USBUART_ClearEndpointHalt
 1023              		.thumb
 1024              		.thumb_func
 1025              		.type	USBUART_ClearEndpointHalt, %function
 1026              	USBUART_ClearEndpointHalt:
 1027              	.LFB11:
1147:Generated_Source\PSoC5/USBUART_std.c **** 
1148:Generated_Source\PSoC5/USBUART_std.c **** 
1149:Generated_Source\PSoC5/USBUART_std.c **** /*******************************************************************************
1150:Generated_Source\PSoC5/USBUART_std.c **** * Function Name: USBUART_ClearEndpointHalt
1151:Generated_Source\PSoC5/USBUART_std.c **** ****************************************************************************//**
1152:Generated_Source\PSoC5/USBUART_std.c **** *
1153:Generated_Source\PSoC5/USBUART_std.c **** *  This routine handles clear endpoint halt.
1154:Generated_Source\PSoC5/USBUART_std.c **** *
1155:Generated_Source\PSoC5/USBUART_std.c **** * \return
1156:Generated_Source\PSoC5/USBUART_std.c **** *  requestHandled.
1157:Generated_Source\PSoC5/USBUART_std.c **** *
1158:Generated_Source\PSoC5/USBUART_std.c **** * \reentrant
1159:Generated_Source\PSoC5/USBUART_std.c **** *  No.
1160:Generated_Source\PSoC5/USBUART_std.c **** *
1161:Generated_Source\PSoC5/USBUART_std.c **** *******************************************************************************/
1162:Generated_Source\PSoC5/USBUART_std.c **** uint8 USBUART_ClearEndpointHalt(void) 
1163:Generated_Source\PSoC5/USBUART_std.c **** {
 1028              		.loc 1 1163 0
 1029              		.cfi_startproc
 1030              		@ args = 0, pretend = 0, frame = 0
 1031              		@ frame_needed = 0, uses_anonymous_args = 0
 1032              		@ link register save eliminated.
 1033              	.LVL82:
 1034 0000 30B4     		push	{r4, r5}
 1035              		.cfi_def_cfa_offset 8
 1036              		.cfi_offset 4, -8
 1037              		.cfi_offset 5, -4
1164:Generated_Source\PSoC5/USBUART_std.c ****     uint8 requestHandled = USBUART_FALSE;
1165:Generated_Source\PSoC5/USBUART_std.c ****     uint8 ep;
1166:Generated_Source\PSoC5/USBUART_std.c **** 
1167:Generated_Source\PSoC5/USBUART_std.c ****     /* Clear endpoint halt */
1168:Generated_Source\PSoC5/USBUART_std.c ****     ep = USBUART_wIndexLoReg & USBUART_DIR_UNUSED;
 1038              		.loc 1 1168 0
 1039 0002 194B     		ldr	r3, .L104
ARM GAS  C:\Users\chemi\AppData\Local\Temp\cc21dAG8.s 			page 42


 1040 0004 1A79     		ldrb	r2, [r3, #4]	@ zero_extendqisi2
 1041 0006 02F07F02 		and	r2, r2, #127
 1042              	.LVL83:
1169:Generated_Source\PSoC5/USBUART_std.c **** 
1170:Generated_Source\PSoC5/USBUART_std.c ****     if ((ep > USBUART_EP0) && (ep < USBUART_MAX_EP))
 1043              		.loc 1 1170 0
 1044 000a 531E     		subs	r3, r2, #1
 1045 000c 072B     		cmp	r3, #7
 1046 000e 27D8     		bhi	.L98
1171:Generated_Source\PSoC5/USBUART_std.c ****     {
1172:Generated_Source\PSoC5/USBUART_std.c ****         /* Clear the endpoint Halt */
1173:Generated_Source\PSoC5/USBUART_std.c ****         USBUART_EP[ep].hwEpState &= (uint8) ~USBUART_ENDPOINT_STATUS_HALT;
 1047              		.loc 1 1173 0
 1048 0010 164B     		ldr	r3, .L104+4
 1049 0012 0C24     		movs	r4, #12
 1050 0014 04FB0233 		mla	r3, r4, r2, r3
 1051 0018 9978     		ldrb	r1, [r3, #2]	@ zero_extendqisi2
 1052 001a 154D     		ldr	r5, .L104+8
 1053 001c 01F0FE01 		and	r1, r1, #254
 1054 0020 9970     		strb	r1, [r3, #2]
1174:Generated_Source\PSoC5/USBUART_std.c **** 
1175:Generated_Source\PSoC5/USBUART_std.c ****         /* Clear the data toggle */
1176:Generated_Source\PSoC5/USBUART_std.c ****         USBUART_EP[ep].epToggle = 0u;
 1055              		.loc 1 1176 0
 1056 0022 0021     		movs	r1, #0
 1057 0024 D970     		strb	r1, [r3, #3]
 1058 0026 2946     		mov	r1, r5
 1059 0028 1201     		lsls	r2, r2, #4
 1060              	.LVL84:
1177:Generated_Source\PSoC5/USBUART_std.c ****         
1178:Generated_Source\PSoC5/USBUART_std.c ****         /* Clear toggle bit for already armed packet */
1179:Generated_Source\PSoC5/USBUART_std.c ****         USBUART_SIE_EP_BASE.sieEp[ep].epCnt0 &= (uint8) ~(uint8)USBUART_EPX_CNT_DATA_TOGGLE;
 1061              		.loc 1 1179 0
 1062 002a 505D     		ldrb	r0, [r2, r5]	@ zero_extendqisi2
 1063 002c 1144     		add	r1, r1, r2
 1064 002e 00F07F00 		and	r0, r0, #127
 1065 0032 5055     		strb	r0, [r2, r5]
1180:Generated_Source\PSoC5/USBUART_std.c ****         
1181:Generated_Source\PSoC5/USBUART_std.c ****         /* Return API State as it was defined before */
1182:Generated_Source\PSoC5/USBUART_std.c ****         USBUART_EP[ep].apiEpState &= (uint8) ~USBUART_NO_EVENT_ALLOWED;
 1066              		.loc 1 1182 0
 1067 0034 5A78     		ldrb	r2, [r3, #1]	@ zero_extendqisi2
 1068 0036 02F0FD02 		and	r2, r2, #253
 1069 003a 5A70     		strb	r2, [r3, #1]
1183:Generated_Source\PSoC5/USBUART_std.c **** 
1184:Generated_Source\PSoC5/USBUART_std.c ****         if ((USBUART_EP[ep].addr & USBUART_DIR_IN) != 0u)
 1070              		.loc 1 1184 0
 1071 003c 1A79     		ldrb	r2, [r3, #4]	@ zero_extendqisi2
1185:Generated_Source\PSoC5/USBUART_std.c ****         {
1186:Generated_Source\PSoC5/USBUART_std.c ****             /* IN Endpoint */
1187:Generated_Source\PSoC5/USBUART_std.c ****             if(USBUART_EP[ep].apiEpState == USBUART_IN_BUFFER_EMPTY)
 1072              		.loc 1 1187 0
 1073 003e 5B78     		ldrb	r3, [r3, #1]	@ zero_extendqisi2
1184:Generated_Source\PSoC5/USBUART_std.c ****         {
 1074              		.loc 1 1184 0
 1075 0040 1206     		lsls	r2, r2, #24
 1076 0042 05D5     		bpl	.L99
ARM GAS  C:\Users\chemi\AppData\Local\Temp\cc21dAG8.s 			page 43


 1077              		.loc 1 1187 0
 1078 0044 012B     		cmp	r3, #1
 1079 0046 01D1     		bne	.L100
1188:Generated_Source\PSoC5/USBUART_std.c ****             {       
1189:Generated_Source\PSoC5/USBUART_std.c ****                 /* Wait for next packet from application */
1190:Generated_Source\PSoC5/USBUART_std.c ****                 USBUART_SIE_EP_BASE.sieEp[ep].epCr0 = USBUART_MODE_NAK_IN;
 1080              		.loc 1 1190 0
 1081 0048 8C70     		strb	r4, [r1, #2]
 1082 004a 06E0     		b	.L101
 1083              	.L100:
1191:Generated_Source\PSoC5/USBUART_std.c ****             }
1192:Generated_Source\PSoC5/USBUART_std.c ****             else    /* Continue armed transfer */
1193:Generated_Source\PSoC5/USBUART_std.c ****             {
1194:Generated_Source\PSoC5/USBUART_std.c ****                 USBUART_SIE_EP_BASE.sieEp[ep].epCr0 = USBUART_MODE_ACK_IN;
 1084              		.loc 1 1194 0
 1085 004c 0D23     		movs	r3, #13
 1086 004e 03E0     		b	.L103
 1087              	.L99:
1195:Generated_Source\PSoC5/USBUART_std.c ****             }
1196:Generated_Source\PSoC5/USBUART_std.c ****         }
1197:Generated_Source\PSoC5/USBUART_std.c ****         else
1198:Generated_Source\PSoC5/USBUART_std.c ****         {
1199:Generated_Source\PSoC5/USBUART_std.c ****             /* OUT Endpoint */
1200:Generated_Source\PSoC5/USBUART_std.c ****             if (USBUART_EP[ep].apiEpState == USBUART_OUT_BUFFER_FULL)
 1088              		.loc 1 1200 0
 1089 0050 012B     		cmp	r3, #1
1201:Generated_Source\PSoC5/USBUART_std.c ****             {       
1202:Generated_Source\PSoC5/USBUART_std.c ****                 /* Allow application to read full buffer */
1203:Generated_Source\PSoC5/USBUART_std.c ****                 USBUART_SIE_EP_BASE.sieEp[ep].epCr0 = USBUART_MODE_NAK_OUT;
 1090              		.loc 1 1203 0
 1091 0052 0CBF     		ite	eq
 1092 0054 0823     		moveq	r3, #8
1204:Generated_Source\PSoC5/USBUART_std.c ****             }
1205:Generated_Source\PSoC5/USBUART_std.c ****             else    /* Mark endpoint as empty, so it will be reloaded */
1206:Generated_Source\PSoC5/USBUART_std.c ****             {
1207:Generated_Source\PSoC5/USBUART_std.c ****                 USBUART_SIE_EP_BASE.sieEp[ep].epCr0 = USBUART_MODE_ACK_OUT;
 1093              		.loc 1 1207 0
 1094 0056 0923     		movne	r3, #9
 1095              	.L103:
 1096 0058 8B70     		strb	r3, [r1, #2]
 1097              	.L101:
1208:Generated_Source\PSoC5/USBUART_std.c ****             }
1209:Generated_Source\PSoC5/USBUART_std.c ****         }
1210:Generated_Source\PSoC5/USBUART_std.c ****         
1211:Generated_Source\PSoC5/USBUART_std.c ****         requestHandled = USBUART_InitNoDataControlTransfer();
1212:Generated_Source\PSoC5/USBUART_std.c ****     }
1213:Generated_Source\PSoC5/USBUART_std.c **** 
1214:Generated_Source\PSoC5/USBUART_std.c ****     return(requestHandled);
1215:Generated_Source\PSoC5/USBUART_std.c **** }
 1098              		.loc 1 1215 0
 1099 005a 30BC     		pop	{r4, r5}
 1100              		.cfi_remember_state
 1101              		.cfi_restore 5
 1102              		.cfi_restore 4
 1103              		.cfi_def_cfa_offset 0
1211:Generated_Source\PSoC5/USBUART_std.c ****     }
 1104              		.loc 1 1211 0
ARM GAS  C:\Users\chemi\AppData\Local\Temp\cc21dAG8.s 			page 44


 1105 005c FFF7FEBF 		b	USBUART_InitNoDataControlTransfer
 1106              	.LVL85:
 1107              	.L98:
 1108              		.cfi_restore_state
 1109              		.loc 1 1215 0
 1110 0060 0020     		movs	r0, #0
 1111 0062 30BC     		pop	{r4, r5}
 1112              		.cfi_restore 5
 1113              		.cfi_restore 4
 1114              		.cfi_def_cfa_offset 0
 1115 0064 7047     		bx	lr
 1116              	.L105:
 1117 0066 00BF     		.align	2
 1118              	.L104:
 1119 0068 00600040 		.word	1073766400
 1120 006c 00000000 		.word	USBUART_EP
 1121 0070 FC5F0040 		.word	1073766396
 1122              		.cfi_endproc
 1123              	.LFE11:
 1124              		.size	USBUART_ClearEndpointHalt, .-USBUART_ClearEndpointHalt
 1125              		.section	.text.USBUART_ValidateAlternateSetting,"ax",%progbits
 1126              		.align	1
 1127              		.global	USBUART_ValidateAlternateSetting
 1128              		.thumb
 1129              		.thumb_func
 1130              		.type	USBUART_ValidateAlternateSetting, %function
 1131              	USBUART_ValidateAlternateSetting:
 1132              	.LFB12:
1216:Generated_Source\PSoC5/USBUART_std.c **** 
1217:Generated_Source\PSoC5/USBUART_std.c **** 
1218:Generated_Source\PSoC5/USBUART_std.c **** /*******************************************************************************
1219:Generated_Source\PSoC5/USBUART_std.c **** * Function Name: USBUART_ValidateAlternateSetting
1220:Generated_Source\PSoC5/USBUART_std.c **** ****************************************************************************//**
1221:Generated_Source\PSoC5/USBUART_std.c **** *
1222:Generated_Source\PSoC5/USBUART_std.c **** *  Validates (and records) a SET INTERFACE request.
1223:Generated_Source\PSoC5/USBUART_std.c **** *
1224:Generated_Source\PSoC5/USBUART_std.c **** * \return
1225:Generated_Source\PSoC5/USBUART_std.c **** *  requestHandled.
1226:Generated_Source\PSoC5/USBUART_std.c **** *
1227:Generated_Source\PSoC5/USBUART_std.c **** * \reentrant
1228:Generated_Source\PSoC5/USBUART_std.c **** *  No.
1229:Generated_Source\PSoC5/USBUART_std.c **** *
1230:Generated_Source\PSoC5/USBUART_std.c **** *******************************************************************************/
1231:Generated_Source\PSoC5/USBUART_std.c **** uint8 USBUART_ValidateAlternateSetting(void) 
1232:Generated_Source\PSoC5/USBUART_std.c **** {
 1133              		.loc 1 1232 0
 1134              		.cfi_startproc
 1135              		@ args = 0, pretend = 0, frame = 0
 1136              		@ frame_needed = 0, uses_anonymous_args = 0
 1137              	.LVL86:
 1138 0000 10B5     		push	{r4, lr}
 1139              		.cfi_def_cfa_offset 8
 1140              		.cfi_offset 4, -8
 1141              		.cfi_offset 14, -4
1233:Generated_Source\PSoC5/USBUART_std.c ****     uint8 requestHandled = USBUART_FALSE;
1234:Generated_Source\PSoC5/USBUART_std.c ****     
1235:Generated_Source\PSoC5/USBUART_std.c ****     uint8 interfaceNum;
ARM GAS  C:\Users\chemi\AppData\Local\Temp\cc21dAG8.s 			page 45


1236:Generated_Source\PSoC5/USBUART_std.c ****     uint8 curInterfacesNum;
1237:Generated_Source\PSoC5/USBUART_std.c ****     const T_USBUART_LUT CYCODE *pTmp;
1238:Generated_Source\PSoC5/USBUART_std.c ****     
1239:Generated_Source\PSoC5/USBUART_std.c ****     /* Get interface number from the request. */
1240:Generated_Source\PSoC5/USBUART_std.c ****     interfaceNum = (uint8) USBUART_wIndexLoReg;
1241:Generated_Source\PSoC5/USBUART_std.c ****     
1242:Generated_Source\PSoC5/USBUART_std.c ****     /* Get number of interfaces for current configuration. */
1243:Generated_Source\PSoC5/USBUART_std.c ****     pTmp = USBUART_GetConfigTablePtr(USBUART_configuration - 1u);
 1142              		.loc 1 1243 0
 1143 0002 0D4B     		ldr	r3, .L110
1240:Generated_Source\PSoC5/USBUART_std.c ****     
 1144              		.loc 1 1240 0
 1145 0004 0D4C     		ldr	r4, .L110+4
 1146 0006 2179     		ldrb	r1, [r4, #4]	@ zero_extendqisi2
 1147              		.loc 1 1243 0
 1148 0008 1878     		ldrb	r0, [r3]	@ zero_extendqisi2
1240:Generated_Source\PSoC5/USBUART_std.c ****     
 1149              		.loc 1 1240 0
 1150 000a C9B2     		uxtb	r1, r1
 1151              	.LVL87:
 1152              		.loc 1 1243 0
 1153 000c 0138     		subs	r0, r0, #1
 1154 000e C0B2     		uxtb	r0, r0
 1155 0010 FFF7FEFF 		bl	USBUART_GetConfigTablePtr
 1156              	.LVL88:
1244:Generated_Source\PSoC5/USBUART_std.c ****     curInterfacesNum  = ((const uint8 *) pTmp->p_list)[USBUART_CONFIG_DESCR_NUM_INTERFACES];
 1157              		.loc 1 1244 0
 1158 0014 4368     		ldr	r3, [r0, #4]
1245:Generated_Source\PSoC5/USBUART_std.c **** 
1246:Generated_Source\PSoC5/USBUART_std.c ****     /* Validate that interface number is within range. */
1247:Generated_Source\PSoC5/USBUART_std.c ****     if ((interfaceNum <= curInterfacesNum) || (interfaceNum <= USBUART_MAX_INTERFACES_NUMBER))
 1159              		.loc 1 1247 0
 1160 0016 1B79     		ldrb	r3, [r3, #4]	@ zero_extendqisi2
 1161 0018 8B42     		cmp	r3, r1
 1162 001a 01D2     		bcs	.L107
 1163              		.loc 1 1247 0 is_stmt 0 discriminator 1
 1164 001c 0229     		cmp	r1, #2
 1165 001e 09D8     		bhi	.L109
 1166              	.L107:
1248:Generated_Source\PSoC5/USBUART_std.c ****     {
1249:Generated_Source\PSoC5/USBUART_std.c ****         /* Save current and new alternate settings (come with request) to make 
1250:Generated_Source\PSoC5/USBUART_std.c ****         * desicion about following endpoint re-configuration.
1251:Generated_Source\PSoC5/USBUART_std.c ****         */
1252:Generated_Source\PSoC5/USBUART_std.c ****         USBUART_interfaceSettingLast[interfaceNum] = USBUART_interfaceSetting[interfaceNum];
 1167              		.loc 1 1252 0 is_stmt 1
 1168 0020 074A     		ldr	r2, .L110+8
 1169 0022 0848     		ldr	r0, .L110+12
 1170              	.LVL89:
 1171 0024 535C     		ldrb	r3, [r2, r1]	@ zero_extendqisi2
 1172              	.LVL90:
 1173 0026 DBB2     		uxtb	r3, r3
 1174 0028 4354     		strb	r3, [r0, r1]
1253:Generated_Source\PSoC5/USBUART_std.c ****         USBUART_interfaceSetting[interfaceNum]     = (uint8) USBUART_wValueLoReg;
 1175              		.loc 1 1253 0
 1176 002a A378     		ldrb	r3, [r4, #2]	@ zero_extendqisi2
1254:Generated_Source\PSoC5/USBUART_std.c ****         
1255:Generated_Source\PSoC5/USBUART_std.c ****         requestHandled = USBUART_TRUE;
ARM GAS  C:\Users\chemi\AppData\Local\Temp\cc21dAG8.s 			page 46


 1177              		.loc 1 1255 0
 1178 002c 0120     		movs	r0, #1
1253:Generated_Source\PSoC5/USBUART_std.c ****         USBUART_interfaceSetting[interfaceNum]     = (uint8) USBUART_wValueLoReg;
 1179              		.loc 1 1253 0
 1180 002e DBB2     		uxtb	r3, r3
 1181 0030 5354     		strb	r3, [r2, r1]
 1182              	.LVL91:
 1183 0032 10BD     		pop	{r4, pc}
 1184              	.LVL92:
 1185              	.L109:
1233:Generated_Source\PSoC5/USBUART_std.c ****     
 1186              		.loc 1 1233 0
 1187 0034 0020     		movs	r0, #0
 1188              	.LVL93:
1256:Generated_Source\PSoC5/USBUART_std.c ****     }
1257:Generated_Source\PSoC5/USBUART_std.c **** 
1258:Generated_Source\PSoC5/USBUART_std.c ****     return (requestHandled);
1259:Generated_Source\PSoC5/USBUART_std.c **** }
 1189              		.loc 1 1259 0
 1190 0036 10BD     		pop	{r4, pc}
 1191              	.L111:
 1192              		.align	2
 1193              	.L110:
 1194 0038 00000000 		.word	USBUART_configuration
 1195 003c 00600040 		.word	1073766400
 1196 0040 00000000 		.word	USBUART_interfaceSetting
 1197 0044 00000000 		.word	USBUART_interfaceSettingLast
 1198              		.cfi_endproc
 1199              	.LFE12:
 1200              		.size	USBUART_ValidateAlternateSetting, .-USBUART_ValidateAlternateSetting
 1201              		.section	.text.USBUART_HandleStandardRqst,"ax",%progbits
 1202              		.align	1
 1203              		.global	USBUART_HandleStandardRqst
 1204              		.thumb
 1205              		.thumb_func
 1206              		.type	USBUART_HandleStandardRqst, %function
 1207              	USBUART_HandleStandardRqst:
 1208              	.LFB0:
  85:Generated_Source\PSoC5/USBUART_std.c ****     uint8 requestHandled = USBUART_FALSE;
 1209              		.loc 1 85 0
 1210              		.cfi_startproc
 1211              		@ args = 0, pretend = 0, frame = 0
 1212              		@ frame_needed = 0, uses_anonymous_args = 0
 1213              	.LVL94:
 1214 0000 38B5     		push	{r3, r4, r5, lr}
 1215              		.cfi_def_cfa_offset 16
 1216              		.cfi_offset 3, -16
 1217              		.cfi_offset 4, -12
 1218              		.cfi_offset 5, -8
 1219              		.cfi_offset 14, -4
  89:Generated_Source\PSoC5/USBUART_std.c **** 
 1220              		.loc 1 89 0
 1221 0002 8A4A     		ldr	r2, .L173
 102:Generated_Source\PSoC5/USBUART_std.c **** 
 1222              		.loc 1 102 0
 1223 0004 8A4C     		ldr	r4, .L173+4
  89:Generated_Source\PSoC5/USBUART_std.c **** 
ARM GAS  C:\Users\chemi\AppData\Local\Temp\cc21dAG8.s 			page 47


 1224              		.loc 1 89 0
 1225 0006 1378     		ldrb	r3, [r2]	@ zero_extendqisi2
 102:Generated_Source\PSoC5/USBUART_std.c **** 
 1226              		.loc 1 102 0
 1227 0008 0021     		movs	r1, #0
  89:Generated_Source\PSoC5/USBUART_std.c **** 
 1228              		.loc 1 89 0
 1229 000a DBB2     		uxtb	r3, r3
 1230              	.LVL95:
 102:Generated_Source\PSoC5/USBUART_std.c **** 
 1231              		.loc 1 102 0
 1232 000c 2180     		strh	r1, [r4]	@ movhi
 104:Generated_Source\PSoC5/USBUART_std.c ****     {
 1233              		.loc 1 104 0
 1234 000e 1806     		lsls	r0, r3, #24
 107:Generated_Source\PSoC5/USBUART_std.c ****         {
 1235              		.loc 1 107 0
 1236 0010 5178     		ldrb	r1, [r2, #1]	@ zero_extendqisi2
 104:Generated_Source\PSoC5/USBUART_std.c ****     {
 1237              		.loc 1 104 0
 1238 0012 40F18D80 		bpl	.L113
 107:Generated_Source\PSoC5/USBUART_std.c ****         {
 1239              		.loc 1 107 0
 1240 0016 0A29     		cmp	r1, #10
 1241 0018 00F20681 		bhi	.L114
 1242 001c DFE811F0 		tbh	[pc, r1, lsl #1]
 1243              	.L116:
 1244 0020 5D00     		.2byte	(.L115-.L116)/2
 1245 0022 0401     		.2byte	(.L114-.L116)/2
 1246 0024 0401     		.2byte	(.L114-.L116)/2
 1247 0026 0401     		.2byte	(.L114-.L116)/2
 1248 0028 0401     		.2byte	(.L114-.L116)/2
 1249 002a 0401     		.2byte	(.L114-.L116)/2
 1250 002c 0B00     		.2byte	(.L117-.L116)/2
 1251 002e 0401     		.2byte	(.L114-.L116)/2
 1252 0030 7E00     		.2byte	(.L118-.L116)/2
 1253 0032 0401     		.2byte	(.L114-.L116)/2
 1254 0034 8200     		.2byte	(.L119-.L116)/2
 1255              		.p2align 1
 1256              	.L117:
 110:Generated_Source\PSoC5/USBUART_std.c ****                 {
 1257              		.loc 1 110 0
 1258 0036 D378     		ldrb	r3, [r2, #3]	@ zero_extendqisi2
 1259              	.LVL96:
 1260 0038 7C49     		ldr	r1, .L173
 1261 003a 012B     		cmp	r3, #1
 1262 003c 09D1     		bne	.L120
 1263              	.LBB18:
 1264              	.LBB19:
1015:Generated_Source\PSoC5/USBUART_std.c **** }
 1265              		.loc 1 1015 0
 1266 003e 7D4B     		ldr	r3, .L173+8
 1267 0040 1A78     		ldrb	r2, [r3]	@ zero_extendqisi2
 1268 0042 7D4B     		ldr	r3, .L173+12
 1269 0044 03EBC203 		add	r3, r3, r2, lsl #3
 1270              	.LBE19:
 1271              	.LBE18:
ARM GAS  C:\Users\chemi\AppData\Local\Temp\cc21dAG8.s 			page 48


 113:Generated_Source\PSoC5/USBUART_std.c ****                     USBUART_currentTD.count = USBUART_DEVICE_DESCR_LENGTH;
 1272              		.loc 1 113 0
 1273 0048 5B68     		ldr	r3, [r3, #4]
 1274 004a 5B68     		ldr	r3, [r3, #4]
 1275 004c 6360     		str	r3, [r4, #4]
 114:Generated_Source\PSoC5/USBUART_std.c ****                     
 1276              		.loc 1 114 0
 1277 004e 1223     		movs	r3, #18
 1278 0050 10E0     		b	.L165
 1279              	.L120:
 118:Generated_Source\PSoC5/USBUART_std.c ****                 {
 1280              		.loc 1 118 0
 1281 0052 CB78     		ldrb	r3, [r1, #3]	@ zero_extendqisi2
 1282 0054 022B     		cmp	r3, #2
 1283 0056 12D1     		bne	.L121
 120:Generated_Source\PSoC5/USBUART_std.c ****                     
 1284              		.loc 1 120 0
 1285 0058 8878     		ldrb	r0, [r1, #2]	@ zero_extendqisi2
 1286 005a FFF7FEFF 		bl	USBUART_GetConfigTablePtr
 1287              	.LVL97:
 123:Generated_Source\PSoC5/USBUART_std.c ****                     {
 1288              		.loc 1 123 0
 1289 005e 0028     		cmp	r0, #0
 1290 0060 00F0E280 		beq	.L114
 125:Generated_Source\PSoC5/USBUART_std.c ****                         USBUART_currentTD.count = (uint16)((uint16)(USBUART_currentTD.pData)[USBUAR
 1291              		.loc 1 125 0
 1292 0064 4368     		ldr	r3, [r0, #4]
 1293 0066 6360     		str	r3, [r4, #4]
 126:Generated_Source\PSoC5/USBUART_std.c ****                                                                             (USBUART_currentTD.pDat
 1294              		.loc 1 126 0
 1295 0068 6368     		ldr	r3, [r4, #4]
 1296 006a DA78     		ldrb	r2, [r3, #3]	@ zero_extendqisi2
 127:Generated_Source\PSoC5/USBUART_std.c ****                         requestHandled  = USBUART_InitControlRead();
 1297              		.loc 1 127 0
 1298 006c 6368     		ldr	r3, [r4, #4]
 1299 006e 9B78     		ldrb	r3, [r3, #2]	@ zero_extendqisi2
 126:Generated_Source\PSoC5/USBUART_std.c ****                                                                             (USBUART_currentTD.pDat
 1300              		.loc 1 126 0
 1301 0070 43EA0223 		orr	r3, r3, r2, lsl #8
 1302              	.LVL98:
 1303              	.L165:
 1304 0074 2380     		strh	r3, [r4]	@ movhi
 1305              	.LVL99:
 1306              	.L166:
 380:Generated_Source\PSoC5/USBUART_std.c **** 
 1307              		.loc 1 380 0
 1308 0076 BDE83840 		pop	{r3, r4, r5, lr}
 1309              		.cfi_remember_state
 1310              		.cfi_restore 14
 1311              		.cfi_restore 5
 1312              		.cfi_restore 4
 1313              		.cfi_restore 3
 1314              		.cfi_def_cfa_offset 0
 128:Generated_Source\PSoC5/USBUART_std.c ****                     }
 1315              		.loc 1 128 0
 1316 007a FFF7FEBF 		b	USBUART_InitControlRead
 1317              	.LVL100:
ARM GAS  C:\Users\chemi\AppData\Local\Temp\cc21dAG8.s 			page 49


 1318              	.L121:
 1319              		.cfi_restore_state
 149:Generated_Source\PSoC5/USBUART_std.c ****                 {
 1320              		.loc 1 149 0
 1321 007e CB78     		ldrb	r3, [r1, #3]	@ zero_extendqisi2
 1322 0080 032B     		cmp	r3, #3
 1323 0082 26D1     		bne	.L123
 1324 0084 6D4B     		ldr	r3, .L173+16
 1325 0086 0022     		movs	r2, #0
 1326              	.LVL101:
 1327              	.L124:
 156:Generated_Source\PSoC5/USBUART_std.c ****                     {
 1328              		.loc 1 156 0
 1329 0088 8878     		ldrb	r0, [r1, #2]	@ zero_extendqisi2
 1330 008a D5B2     		uxtb	r5, r2
 1331 008c 8542     		cmp	r5, r0
 1332 008e 09D3     		bcc	.L125
 1333              	.LVL102:
 1334              	.L128:
 168:Generated_Source\PSoC5/USBUART_std.c ****                     {
 1335              		.loc 1 168 0
 1336 0090 664A     		ldr	r2, .L173
 1337 0092 9178     		ldrb	r1, [r2, #2]	@ zero_extendqisi2
 170:Generated_Source\PSoC5/USBUART_std.c ****                     }
 1338              		.loc 1 170 0
 1339 0094 6A4A     		ldr	r2, .L173+20
 1340 0096 EE29     		cmp	r1, #238
 1341 0098 08BF     		it	eq
 1342 009a 1346     		moveq	r3, r2
 1343              	.LVL103:
 176:Generated_Source\PSoC5/USBUART_std.c ****                         (USBUART_wValueLoReg == USBUART_DEVICE0_DESCR[USBUART_DEVICE_DESCR_SN_SHIFT
 1344              		.loc 1 176 0
 1345 009c 634A     		ldr	r2, .L173
 1346 009e 9178     		ldrb	r1, [r2, #2]	@ zero_extendqisi2
 1347 00a0 81B1     		cbz	r1, .L129
 1348 00a2 06E0     		b	.L172
 1349              	.LVL104:
 1350              	.L125:
 156:Generated_Source\PSoC5/USBUART_std.c ****                     {
 1351              		.loc 1 156 0 discriminator 1
 1352 00a4 1878     		ldrb	r0, [r3]	@ zero_extendqisi2
 1353 00a6 0132     		adds	r2, r2, #1
 1354              	.LVL105:
 1355 00a8 0028     		cmp	r0, #0
 1356 00aa F1D0     		beq	.L128
 159:Generated_Source\PSoC5/USBUART_std.c ****                         /* Move to next string descriptor */
 1357              		.loc 1 159 0
 1358 00ac 1878     		ldrb	r0, [r3]	@ zero_extendqisi2
 1359              	.LVL106:
 161:Generated_Source\PSoC5/USBUART_std.c ****                         nStr++;
 1360              		.loc 1 161 0
 1361 00ae 0344     		add	r3, r3, r0
 1362              	.LVL107:
 1363 00b0 EAE7     		b	.L124
 1364              	.LVL108:
 1365              	.L172:
 177:Generated_Source\PSoC5/USBUART_std.c ****                     {
ARM GAS  C:\Users\chemi\AppData\Local\Temp\cc21dAG8.s 			page 50


 1366              		.loc 1 177 0 discriminator 1
 1367 00b2 6449     		ldr	r1, .L173+24
 1368 00b4 9278     		ldrb	r2, [r2, #2]	@ zero_extendqisi2
 176:Generated_Source\PSoC5/USBUART_std.c ****                         (USBUART_wValueLoReg == USBUART_DEVICE0_DESCR[USBUART_DEVICE_DESCR_SN_SHIFT
 1369              		.loc 1 176 0 discriminator 1
 1370 00b6 097C     		ldrb	r1, [r1, #16]	@ zero_extendqisi2
 1371 00b8 9142     		cmp	r1, r2
 1372 00ba 03D1     		bne	.L129
 181:Generated_Source\PSoC5/USBUART_std.c ****                         pStr = USBUART_idSerialNumberStringDescriptor;
 1373              		.loc 1 181 0
 1374 00bc 6248     		ldr	r0, .L173+28
 1375 00be FFF7FEFF 		bl	USBUART_ReadDieID
 1376              	.LVL109:
 182:Generated_Source\PSoC5/USBUART_std.c ****                     #elif defined(USBUART_ENABLE_FWSN_STRING)
 1377              		.loc 1 182 0
 1378 00c2 614B     		ldr	r3, .L173+28
 1379              	.LVL110:
 1380              	.L129:
 199:Generated_Source\PSoC5/USBUART_std.c ****                     {
 1381              		.loc 1 199 0
 1382 00c4 1A78     		ldrb	r2, [r3]	@ zero_extendqisi2
 1383 00c6 002A     		cmp	r2, #0
 1384 00c8 00F0AE80 		beq	.L114
 201:Generated_Source\PSoC5/USBUART_std.c ****                         USBUART_currentTD.pData = pStr;
 1385              		.loc 1 201 0
 1386 00cc 1A78     		ldrb	r2, [r3]	@ zero_extendqisi2
 1387 00ce 2280     		strh	r2, [r4]	@ movhi
 1388 00d0 18E0     		b	.L169
 1389              	.LVL111:
 1390              	.L123:
 380:Generated_Source\PSoC5/USBUART_std.c **** 
 1391              		.loc 1 380 0
 1392 00d2 BDE83840 		pop	{r3, r4, r5, lr}
 1393              		.cfi_remember_state
 1394              		.cfi_restore 14
 1395              		.cfi_restore 5
 1396              		.cfi_restore 4
 1397              		.cfi_restore 3
 1398              		.cfi_def_cfa_offset 0
 209:Generated_Source\PSoC5/USBUART_std.c ****                 }
 1399              		.loc 1 209 0
 1400 00d6 FFF7FEBF 		b	USBUART_DispatchClassRqst
 1401              	.LVL112:
 1402              	.L115:
 1403              		.cfi_restore_state
 214:Generated_Source\PSoC5/USBUART_std.c ****                 {
 1404              		.loc 1 214 0
 1405 00da 13F00303 		ands	r3, r3, #3
 1406              	.LVL113:
 1407 00de 13D0     		beq	.L131
 1408 00e0 022B     		cmp	r3, #2
 1409 00e2 40F0A180 		bne	.L114
 217:Generated_Source\PSoC5/USBUART_std.c ****                         USBUART_tBuffer[0u]     = USBUART_EP[USBUART_wIndexLoReg & USBUART_DIR_UNUS
 1410              		.loc 1 217 0
 1411 00e6 2380     		strh	r3, [r4]	@ movhi
 218:Generated_Source\PSoC5/USBUART_std.c ****                         USBUART_tBuffer[1u]     = 0u;
 1412              		.loc 1 218 0
ARM GAS  C:\Users\chemi\AppData\Local\Temp\cc21dAG8.s 			page 51


 1413 00e8 504B     		ldr	r3, .L173
 1414 00ea 0C21     		movs	r1, #12
 1415 00ec 1B79     		ldrb	r3, [r3, #4]	@ zero_extendqisi2
 1416 00ee 03F07F02 		and	r2, r3, #127
 1417 00f2 564B     		ldr	r3, .L173+32
 1418 00f4 01FB0233 		mla	r3, r1, r2, r3
 1419 00f8 9A78     		ldrb	r2, [r3, #2]	@ zero_extendqisi2
 1420 00fa 554B     		ldr	r3, .L173+36
 1421 00fc D2B2     		uxtb	r2, r2
 1422 00fe 1A70     		strb	r2, [r3]
 219:Generated_Source\PSoC5/USBUART_std.c ****                         USBUART_currentTD.pData = &USBUART_tBuffer[0u];
 1423              		.loc 1 219 0
 1424 0100 0022     		movs	r2, #0
 1425 0102 5A70     		strb	r2, [r3, #1]
 1426              	.LVL114:
 1427              	.L169:
 220:Generated_Source\PSoC5/USBUART_std.c ****                         
 1428              		.loc 1 220 0
 1429 0104 6360     		str	r3, [r4, #4]
 1430 0106 B6E7     		b	.L166
 1431              	.LVL115:
 1432              	.L131:
 225:Generated_Source\PSoC5/USBUART_std.c ****                         USBUART_tBuffer[0u]     = USBUART_deviceStatus;
 1433              		.loc 1 225 0
 1434 0108 0222     		movs	r2, #2
 1435 010a 2280     		strh	r2, [r4]	@ movhi
 226:Generated_Source\PSoC5/USBUART_std.c ****                         USBUART_tBuffer[1u]     = 0u;
 1436              		.loc 1 226 0
 1437 010c 514A     		ldr	r2, .L173+40
 1438 010e 1178     		ldrb	r1, [r2]	@ zero_extendqisi2
 1439 0110 4F4A     		ldr	r2, .L173+36
 1440 0112 C9B2     		uxtb	r1, r1
 1441 0114 1170     		strb	r1, [r2]
 227:Generated_Source\PSoC5/USBUART_std.c ****                         USBUART_currentTD.pData = &USBUART_tBuffer[0u];
 1442              		.loc 1 227 0
 1443 0116 5370     		strb	r3, [r2, #1]
 228:Generated_Source\PSoC5/USBUART_std.c ****                         
 1444              		.loc 1 228 0
 1445 0118 6260     		str	r2, [r4, #4]
 1446 011a ACE7     		b	.L166
 1447              	.LVL116:
 1448              	.L118:
 238:Generated_Source\PSoC5/USBUART_std.c ****                 USBUART_currentTD.pData = (volatile uint8 *) &USBUART_configuration;
 1449              		.loc 1 238 0
 1450 011c 0123     		movs	r3, #1
 1451              	.LVL117:
 1452 011e 2380     		strh	r3, [r4]	@ movhi
 239:Generated_Source\PSoC5/USBUART_std.c ****                 requestHandled  = USBUART_InitControlRead();
 1453              		.loc 1 239 0
 1454 0120 4D4B     		ldr	r3, .L173+44
 1455 0122 EFE7     		b	.L169
 1456              	.LVL118:
 1457              	.L119:
 244:Generated_Source\PSoC5/USBUART_std.c ****                 USBUART_currentTD.pData = (volatile uint8 *) &USBUART_interfaceSetting[USBUART_wInd
 1458              		.loc 1 244 0
 1459 0124 0123     		movs	r3, #1
 1460              	.LVL119:
ARM GAS  C:\Users\chemi\AppData\Local\Temp\cc21dAG8.s 			page 52


 1461 0126 2380     		strh	r3, [r4]	@ movhi
 245:Generated_Source\PSoC5/USBUART_std.c ****                 requestHandled  = USBUART_InitControlRead();
 1462              		.loc 1 245 0
 1463 0128 1379     		ldrb	r3, [r2, #4]	@ zero_extendqisi2
 1464 012a 4C4A     		ldr	r2, .L173+48
 1465 012c 1344     		add	r3, r3, r2
 1466 012e E9E7     		b	.L169
 1467              	.LVL120:
 1468              	.L113:
 256:Generated_Source\PSoC5/USBUART_std.c ****         {
 1469              		.loc 1 256 0
 1470 0130 0139     		subs	r1, r1, #1
 1471 0132 0A29     		cmp	r1, #10
 1472 0134 78D8     		bhi	.L114
 1473 0136 DFE801F0 		tbb	[pc, r1]
 1474              	.L134:
 1475 013a 37       		.byte	(.L133-.L134)/2
 1476 013b 77       		.byte	(.L114-.L134)/2
 1477 013c 4F       		.byte	(.L135-.L134)/2
 1478 013d 77       		.byte	(.L114-.L134)/2
 1479 013e 06       		.byte	(.L136-.L134)/2
 1480 013f 77       		.byte	(.L114-.L134)/2
 1481 0140 77       		.byte	(.L114-.L134)/2
 1482 0141 77       		.byte	(.L114-.L134)/2
 1483 0142 0A       		.byte	(.L137-.L134)/2
 1484 0143 77       		.byte	(.L114-.L134)/2
 1485 0144 20       		.byte	(.L138-.L134)/2
 1486 0145 00       		.p2align 1
 1487              	.L136:
 260:Generated_Source\PSoC5/USBUART_std.c ****                 requestHandled = USBUART_InitNoDataControlTransfer();
 1488              		.loc 1 260 0
 1489 0146 9378     		ldrb	r3, [r2, #2]	@ zero_extendqisi2
 1490              	.LVL121:
 1491 0148 454A     		ldr	r2, .L173+52
 1492 014a DBB2     		uxtb	r3, r3
 1493 014c 5AE0     		b	.L171
 1494              	.LVL122:
 1495              	.L137:
 265:Generated_Source\PSoC5/USBUART_std.c ****                 
 1496              		.loc 1 265 0
 1497 014e 9378     		ldrb	r3, [r2, #2]	@ zero_extendqisi2
 1498              	.LVL123:
 268:Generated_Source\PSoC5/USBUART_std.c ****                 {
 1499              		.loc 1 268 0
 1500 0150 03F0FF01 		and	r1, r3, #255
 1501 0154 53B9     		cbnz	r3, .L139
 1502              	.LVL124:
 1503              	.L142:
 277:Generated_Source\PSoC5/USBUART_std.c ****                     {
 1504              		.loc 1 277 0
 1505 0156 404B     		ldr	r3, .L173+44
 1506 0158 1A78     		ldrb	r2, [r3]	@ zero_extendqisi2
 1507 015a 9142     		cmp	r1, r2
 1508 015c 60D0     		beq	.L167
 279:Generated_Source\PSoC5/USBUART_std.c ****                         USBUART_configurationChanged = USBUART_TRUE;
 1509              		.loc 1 279 0
 1510 015e 1970     		strb	r1, [r3]
ARM GAS  C:\Users\chemi\AppData\Local\Temp\cc21dAG8.s 			page 53


 280:Generated_Source\PSoC5/USBUART_std.c ****                         USBUART_Config(USBUART_TRUE);
 1511              		.loc 1 280 0
 1512 0160 404B     		ldr	r3, .L173+56
 1513 0162 0120     		movs	r0, #1
 1514 0164 1870     		strb	r0, [r3]
 281:Generated_Source\PSoC5/USBUART_std.c ****                     }
 1515              		.loc 1 281 0
 1516 0166 FFF7FEFF 		bl	USBUART_Config
 1517              	.LVL125:
 1518 016a 59E0     		b	.L167
 1519              	.LVL126:
 1520              	.L139:
 270:Generated_Source\PSoC5/USBUART_std.c ****                 }
 1521              		.loc 1 270 0
 1522 016c 481E     		subs	r0, r1, #1
 1523 016e C0B2     		uxtb	r0, r0
 1524 0170 FFF7FEFF 		bl	USBUART_GetConfigTablePtr
 1525              	.LVL127:
 274:Generated_Source\PSoC5/USBUART_std.c ****                 {
 1526              		.loc 1 274 0
 1527 0174 0028     		cmp	r0, #0
 1528 0176 EED1     		bne	.L142
 1529 0178 56E0     		b	.L114
 1530              	.LVL128:
 1531              	.L138:
 288:Generated_Source\PSoC5/USBUART_std.c ****                 {
 1532              		.loc 1 288 0
 1533 017a FFF7FEFF 		bl	USBUART_ValidateAlternateSetting
 1534              	.LVL129:
 1535 017e 0028     		cmp	r0, #0
 1536 0180 52D0     		beq	.L114
 291:Generated_Source\PSoC5/USBUART_std.c ****                     USBUART_interfaceNumber = (uint8) USBUART_wIndexLoReg;
 1537              		.loc 1 291 0
 1538 0182 2A4A     		ldr	r2, .L173
 292:Generated_Source\PSoC5/USBUART_std.c ****                      
 1539              		.loc 1 292 0
 1540 0184 3849     		ldr	r1, .L173+60
 291:Generated_Source\PSoC5/USBUART_std.c ****                     USBUART_interfaceNumber = (uint8) USBUART_wIndexLoReg;
 1541              		.loc 1 291 0
 1542 0186 1379     		ldrb	r3, [r2, #4]	@ zero_extendqisi2
 292:Generated_Source\PSoC5/USBUART_std.c ****                      
 1543              		.loc 1 292 0
 1544 0188 1279     		ldrb	r2, [r2, #4]	@ zero_extendqisi2
 291:Generated_Source\PSoC5/USBUART_std.c ****                     USBUART_interfaceNumber = (uint8) USBUART_wIndexLoReg;
 1545              		.loc 1 291 0
 1546 018a DBB2     		uxtb	r3, r3
 1547              	.LVL130:
 292:Generated_Source\PSoC5/USBUART_std.c ****                      
 1548              		.loc 1 292 0
 1549 018c D2B2     		uxtb	r2, r2
 1550 018e 0A70     		strb	r2, [r1]
 295:Generated_Source\PSoC5/USBUART_std.c ****                     {
 1551              		.loc 1 295 0
 1552 0190 364A     		ldr	r2, .L173+64
 1553 0192 3249     		ldr	r1, .L173+48
 1554 0194 D25C     		ldrb	r2, [r2, r3]	@ zero_extendqisi2
 1555 0196 CB5C     		ldrb	r3, [r1, r3]	@ zero_extendqisi2
ARM GAS  C:\Users\chemi\AppData\Local\Temp\cc21dAG8.s 			page 54


 1556              	.LVL131:
 1557 0198 9A42     		cmp	r2, r3
 1558 019a 41D0     		beq	.L167
 297:Generated_Source\PSoC5/USBUART_std.c ****                     
 1559              		.loc 1 297 0
 1560 019c 314B     		ldr	r3, .L173+56
 1561 019e 0122     		movs	r2, #1
 1562 01a0 1A70     		strb	r2, [r3]
 303:Generated_Source\PSoC5/USBUART_std.c ****                     #endif /* (USBUART_EP_MANAGEMENT_MANUAL && USBUART_EP_ALLOC_DYNAMIC) */
 1563              		.loc 1 303 0
 1564 01a2 FFF7FEFF 		bl	USBUART_ConfigAltChanged
 1565              	.LVL132:
 1566 01a6 3BE0     		b	.L167
 1567              	.LVL133:
 1568              	.L133:
 312:Generated_Source\PSoC5/USBUART_std.c ****                 {
 1569              		.loc 1 312 0
 1570 01a8 03F00303 		and	r3, r3, #3
 1571              	.LVL134:
 1572 01ac 012B     		cmp	r3, #1
 1573 01ae 2BD0     		beq	.L147
 1574 01b0 09D3     		bcc	.L145
 1575 01b2 022B     		cmp	r3, #2
 1576 01b4 38D1     		bne	.L114
 315:Generated_Source\PSoC5/USBUART_std.c ****                         {
 1577              		.loc 1 315 0
 1578 01b6 1D4B     		ldr	r3, .L173
 1579 01b8 9B78     		ldrb	r3, [r3, #2]	@ zero_extendqisi2
 1580 01ba 002B     		cmp	r3, #0
 1581 01bc 34D1     		bne	.L114
 380:Generated_Source\PSoC5/USBUART_std.c **** 
 1582              		.loc 1 380 0
 1583 01be BDE83840 		pop	{r3, r4, r5, lr}
 1584              		.cfi_remember_state
 1585              		.cfi_restore 14
 1586              		.cfi_restore 5
 1587              		.cfi_restore 4
 1588              		.cfi_restore 3
 1589              		.cfi_def_cfa_offset 0
 317:Generated_Source\PSoC5/USBUART_std.c ****                         }
 1590              		.loc 1 317 0
 1591 01c2 FFF7FEBF 		b	USBUART_ClearEndpointHalt
 1592              	.LVL135:
 1593              	.L145:
 1594              		.cfi_restore_state
 322:Generated_Source\PSoC5/USBUART_std.c ****                         {
 1595              		.loc 1 322 0
 1596 01c6 194B     		ldr	r3, .L173
 1597 01c8 9B78     		ldrb	r3, [r3, #2]	@ zero_extendqisi2
 1598 01ca 012B     		cmp	r3, #1
 1599 01cc 2CD1     		bne	.L114
 324:Generated_Source\PSoC5/USBUART_std.c ****                             requestHandled = USBUART_InitNoDataControlTransfer();
 1600              		.loc 1 324 0
 1601 01ce 214A     		ldr	r2, .L173+40
 1602 01d0 1378     		ldrb	r3, [r2]	@ zero_extendqisi2
 1603 01d2 03F0FD03 		and	r3, r3, #253
 1604 01d6 15E0     		b	.L171
ARM GAS  C:\Users\chemi\AppData\Local\Temp\cc21dAG8.s 			page 55


 1605              	.LVL136:
 1606              	.L135:
 342:Generated_Source\PSoC5/USBUART_std.c ****                 {
 1607              		.loc 1 342 0
 1608 01d8 03F00303 		and	r3, r3, #3
 1609              	.LVL137:
 1610 01dc 012B     		cmp	r3, #1
 1611 01de 13D0     		beq	.L147
 1612 01e0 08D3     		bcc	.L148
 1613 01e2 022B     		cmp	r3, #2
 1614 01e4 20D1     		bne	.L114
 345:Generated_Source\PSoC5/USBUART_std.c ****                         {
 1615              		.loc 1 345 0
 1616 01e6 114B     		ldr	r3, .L173
 1617 01e8 9B78     		ldrb	r3, [r3, #2]	@ zero_extendqisi2
 1618 01ea EBB9     		cbnz	r3, .L114
 380:Generated_Source\PSoC5/USBUART_std.c **** 
 1619              		.loc 1 380 0
 1620 01ec BDE83840 		pop	{r3, r4, r5, lr}
 1621              		.cfi_remember_state
 1622              		.cfi_restore 14
 1623              		.cfi_restore 5
 1624              		.cfi_restore 4
 1625              		.cfi_restore 3
 1626              		.cfi_def_cfa_offset 0
 347:Generated_Source\PSoC5/USBUART_std.c ****                         }
 1627              		.loc 1 347 0
 1628 01f0 FFF7FEBF 		b	USBUART_SetEndpointHalt
 1629              	.LVL138:
 1630              	.L148:
 1631              		.cfi_restore_state
 353:Generated_Source\PSoC5/USBUART_std.c ****                         {
 1632              		.loc 1 353 0
 1633 01f4 0D4B     		ldr	r3, .L173
 1634 01f6 9B78     		ldrb	r3, [r3, #2]	@ zero_extendqisi2
 1635 01f8 012B     		cmp	r3, #1
 1636 01fa 15D1     		bne	.L114
 355:Generated_Source\PSoC5/USBUART_std.c ****                             requestHandled = USBUART_InitNoDataControlTransfer();
 1637              		.loc 1 355 0
 1638 01fc 154A     		ldr	r2, .L173+40
 1639 01fe 1378     		ldrb	r3, [r2]	@ zero_extendqisi2
 1640 0200 43F00203 		orr	r3, r3, #2
 1641              	.L171:
 1642 0204 1370     		strb	r3, [r2]
 1643 0206 0BE0     		b	.L167
 1644              	.L147:
 362:Generated_Source\PSoC5/USBUART_std.c ****                         {
 1645              		.loc 1 362 0
 1646 0208 084B     		ldr	r3, .L173
 1647 020a 1A79     		ldrb	r2, [r3, #4]	@ zero_extendqisi2
 1648 020c 012A     		cmp	r2, #1
 1649 020e 0BD8     		bhi	.L114
 364:Generated_Source\PSoC5/USBUART_std.c ****                             requestHandled = USBUART_InitNoDataControlTransfer();
 1650              		.loc 1 364 0
 1651 0210 9878     		ldrb	r0, [r3, #2]	@ zero_extendqisi2
 1652 0212 1B79     		ldrb	r3, [r3, #4]	@ zero_extendqisi2
 1653 0214 1649     		ldr	r1, .L173+68
ARM GAS  C:\Users\chemi\AppData\Local\Temp\cc21dAG8.s 			page 56


 1654 0216 DBB2     		uxtb	r3, r3
 1655 0218 CA5C     		ldrb	r2, [r1, r3]	@ zero_extendqisi2
 1656 021a 22EA0002 		bic	r2, r2, r0
 1657 021e CA54     		strb	r2, [r1, r3]
 1658              	.L167:
 380:Generated_Source\PSoC5/USBUART_std.c **** 
 1659              		.loc 1 380 0
 1660 0220 BDE83840 		pop	{r3, r4, r5, lr}
 1661              		.cfi_remember_state
 1662              		.cfi_restore 14
 1663              		.cfi_restore 5
 1664              		.cfi_restore 4
 1665              		.cfi_restore 3
 1666              		.cfi_def_cfa_offset 0
 365:Generated_Source\PSoC5/USBUART_std.c ****                         }
 1667              		.loc 1 365 0
 1668 0224 FFF7FEBF 		b	USBUART_InitNoDataControlTransfer
 1669              	.LVL139:
 1670              	.L114:
 1671              		.cfi_restore_state
 380:Generated_Source\PSoC5/USBUART_std.c **** 
 1672              		.loc 1 380 0
 1673 0228 0020     		movs	r0, #0
 1674 022a 38BD     		pop	{r3, r4, r5, pc}
 1675              	.L174:
 1676              		.align	2
 1677              	.L173:
 1678 022c 00600040 		.word	1073766400
 1679 0230 00000000 		.word	USBUART_currentTD
 1680 0234 00000000 		.word	USBUART_device
 1681 0238 00000000 		.word	USBUART_TABLE
 1682 023c 00000000 		.word	USBUART_STRING_DESCRIPTORS
 1683 0240 00000000 		.word	USBUART_MSOS_DESCRIPTOR
 1684 0244 00000000 		.word	USBUART_DEVICE0_DESCR
 1685 0248 00000000 		.word	USBUART_idSerialNumberStringDescriptor
 1686 024c 00000000 		.word	USBUART_EP
 1687 0250 00000000 		.word	.LANCHOR0
 1688 0254 00000000 		.word	USBUART_deviceStatus
 1689 0258 00000000 		.word	USBUART_configuration
 1690 025c 00000000 		.word	USBUART_interfaceSetting
 1691 0260 00000000 		.word	USBUART_deviceAddress
 1692 0264 00000000 		.word	USBUART_configurationChanged
 1693 0268 00000000 		.word	USBUART_interfaceNumber
 1694 026c 00000000 		.word	USBUART_interfaceSettingLast
 1695 0270 00000000 		.word	USBUART_interfaceStatus
 1696              		.cfi_endproc
 1697              	.LFE0:
 1698              		.size	USBUART_HandleStandardRqst, .-USBUART_HandleStandardRqst
 1699              		.section	.rodata.str1.1,"aMS",%progbits,1
 1700              	.LC0:
 1701 0000 30313233 		.ascii	"0123456789ABCDEF\000"
 1701      34353637 
 1701      38394142 
 1701      43444546 
 1701      00
 1702              		.bss
 1703              		.set	.LANCHOR0,. + 0
ARM GAS  C:\Users\chemi\AppData\Local\Temp\cc21dAG8.s 			page 57


 1704              		.type	USBUART_tBuffer.5240, %object
 1705              		.size	USBUART_tBuffer.5240, 2
 1706              	USBUART_tBuffer.5240:
 1707 0000 0000     		.space	2
 1708              		.text
 1709              	.Letext0:
 1710              		.file 2 "Generated_Source\\PSoC5\\cytypes.h"
 1711              		.file 3 "Generated_Source\\PSoC5\\USBUART.h"
 1712              		.file 4 "Generated_Source\\PSoC5\\USBUART_pvt.h"
 1713              		.file 5 "Generated_Source\\PSoC5\\CyLib.h"
 1714              		.section	.debug_info,"",%progbits
 1715              	.Ldebug_info0:
 1716 0000 8C0B0000 		.4byte	0xb8c
 1717 0004 0400     		.2byte	0x4
 1718 0006 00000000 		.4byte	.Ldebug_abbrev0
 1719 000a 04       		.byte	0x4
 1720 000b 01       		.uleb128 0x1
 1721 000c F2050000 		.4byte	.LASF118
 1722 0010 0C       		.byte	0xc
 1723 0011 D7040000 		.4byte	.LASF119
 1724 0015 7A020000 		.4byte	.LASF120
 1725 0019 18000000 		.4byte	.Ldebug_ranges0+0x18
 1726 001d 00000000 		.4byte	0
 1727 0021 00000000 		.4byte	.Ldebug_line0
 1728 0025 02       		.uleb128 0x2
 1729 0026 01       		.byte	0x1
 1730 0027 06       		.byte	0x6
 1731 0028 CE060000 		.4byte	.LASF0
 1732 002c 02       		.uleb128 0x2
 1733 002d 01       		.byte	0x1
 1734 002e 08       		.byte	0x8
 1735 002f 9C050000 		.4byte	.LASF1
 1736 0033 02       		.uleb128 0x2
 1737 0034 02       		.byte	0x2
 1738 0035 05       		.byte	0x5
 1739 0036 76040000 		.4byte	.LASF2
 1740 003a 02       		.uleb128 0x2
 1741 003b 02       		.byte	0x2
 1742 003c 07       		.byte	0x7
 1743 003d DA060000 		.4byte	.LASF3
 1744 0041 02       		.uleb128 0x2
 1745 0042 04       		.byte	0x4
 1746 0043 05       		.byte	0x5
 1747 0044 87040000 		.4byte	.LASF4
 1748 0048 02       		.uleb128 0x2
 1749 0049 04       		.byte	0x4
 1750 004a 07       		.byte	0x7
 1751 004b 2E050000 		.4byte	.LASF5
 1752 004f 02       		.uleb128 0x2
 1753 0050 08       		.byte	0x8
 1754 0051 05       		.byte	0x5
 1755 0052 56030000 		.4byte	.LASF6
 1756 0056 02       		.uleb128 0x2
 1757 0057 08       		.byte	0x8
 1758 0058 07       		.byte	0x7
 1759 0059 EB010000 		.4byte	.LASF7
 1760 005d 03       		.uleb128 0x3
ARM GAS  C:\Users\chemi\AppData\Local\Temp\cc21dAG8.s 			page 58


 1761 005e 04       		.byte	0x4
 1762 005f 05       		.byte	0x5
 1763 0060 696E7400 		.ascii	"int\000"
 1764 0064 02       		.uleb128 0x2
 1765 0065 04       		.byte	0x4
 1766 0066 07       		.byte	0x7
 1767 0067 C5000000 		.4byte	.LASF8
 1768 006b 04       		.uleb128 0x4
 1769 006c 21070000 		.4byte	.LASF9
 1770 0070 02       		.byte	0x2
 1771 0071 9201     		.2byte	0x192
 1772 0073 2C000000 		.4byte	0x2c
 1773 0077 04       		.uleb128 0x4
 1774 0078 F2020000 		.4byte	.LASF10
 1775 007c 02       		.byte	0x2
 1776 007d 9301     		.2byte	0x193
 1777 007f 3A000000 		.4byte	0x3a
 1778 0083 04       		.uleb128 0x4
 1779 0084 D6030000 		.4byte	.LASF11
 1780 0088 02       		.byte	0x2
 1781 0089 9401     		.2byte	0x194
 1782 008b 48000000 		.4byte	0x48
 1783 008f 02       		.uleb128 0x2
 1784 0090 04       		.byte	0x4
 1785 0091 04       		.byte	0x4
 1786 0092 CC010000 		.4byte	.LASF12
 1787 0096 02       		.uleb128 0x2
 1788 0097 08       		.byte	0x8
 1789 0098 04       		.byte	0x4
 1790 0099 27070000 		.4byte	.LASF13
 1791 009d 04       		.uleb128 0x4
 1792 009e 00030000 		.4byte	.LASF14
 1793 00a2 02       		.byte	0x2
 1794 00a3 A301     		.2byte	0x1a3
 1795 00a5 A9000000 		.4byte	0xa9
 1796 00a9 02       		.uleb128 0x2
 1797 00aa 01       		.byte	0x1
 1798 00ab 08       		.byte	0x8
 1799 00ac CF020000 		.4byte	.LASF15
 1800 00b0 04       		.uleb128 0x4
 1801 00b1 42010000 		.4byte	.LASF16
 1802 00b5 02       		.byte	0x2
 1803 00b6 3C02     		.2byte	0x23c
 1804 00b8 BC000000 		.4byte	0xbc
 1805 00bc 05       		.uleb128 0x5
 1806 00bd 6B000000 		.4byte	0x6b
 1807 00c1 02       		.uleb128 0x2
 1808 00c2 08       		.byte	0x8
 1809 00c3 04       		.byte	0x4
 1810 00c4 50040000 		.4byte	.LASF17
 1811 00c8 02       		.uleb128 0x2
 1812 00c9 04       		.byte	0x4
 1813 00ca 07       		.byte	0x7
 1814 00cb 25050000 		.4byte	.LASF18
 1815 00cf 06       		.uleb128 0x6
 1816 00d0 0C       		.byte	0xc
 1817 00d1 03       		.byte	0x3
ARM GAS  C:\Users\chemi\AppData\Local\Temp\cc21dAG8.s 			page 59


 1818 00d2 8E       		.byte	0x8e
 1819 00d3 44010000 		.4byte	0x144
 1820 00d7 07       		.uleb128 0x7
 1821 00d8 64070000 		.4byte	.LASF19
 1822 00dc 03       		.byte	0x3
 1823 00dd 90       		.byte	0x90
 1824 00de 6B000000 		.4byte	0x6b
 1825 00e2 00       		.byte	0
 1826 00e3 07       		.uleb128 0x7
 1827 00e4 6B070000 		.4byte	.LASF20
 1828 00e8 03       		.byte	0x3
 1829 00e9 91       		.byte	0x91
 1830 00ea 6B000000 		.4byte	0x6b
 1831 00ee 01       		.byte	0x1
 1832 00ef 07       		.uleb128 0x7
 1833 00f0 C1030000 		.4byte	.LASF21
 1834 00f4 03       		.byte	0x3
 1835 00f5 92       		.byte	0x92
 1836 00f6 6B000000 		.4byte	0x6b
 1837 00fa 02       		.byte	0x2
 1838 00fb 07       		.uleb128 0x7
 1839 00fc C3010000 		.4byte	.LASF22
 1840 0100 03       		.byte	0x3
 1841 0101 93       		.byte	0x93
 1842 0102 6B000000 		.4byte	0x6b
 1843 0106 03       		.byte	0x3
 1844 0107 07       		.uleb128 0x7
 1845 0108 97060000 		.4byte	.LASF23
 1846 010c 03       		.byte	0x3
 1847 010d 94       		.byte	0x94
 1848 010e 6B000000 		.4byte	0x6b
 1849 0112 04       		.byte	0x4
 1850 0113 07       		.uleb128 0x7
 1851 0114 80040000 		.4byte	.LASF24
 1852 0118 03       		.byte	0x3
 1853 0119 95       		.byte	0x95
 1854 011a 6B000000 		.4byte	0x6b
 1855 011e 05       		.byte	0x5
 1856 011f 07       		.uleb128 0x7
 1857 0120 06030000 		.4byte	.LASF25
 1858 0124 03       		.byte	0x3
 1859 0125 96       		.byte	0x96
 1860 0126 77000000 		.4byte	0x77
 1861 012a 06       		.byte	0x6
 1862 012b 07       		.uleb128 0x7
 1863 012c 2C000000 		.4byte	.LASF26
 1864 0130 03       		.byte	0x3
 1865 0131 97       		.byte	0x97
 1866 0132 77000000 		.4byte	0x77
 1867 0136 08       		.byte	0x8
 1868 0137 07       		.uleb128 0x7
 1869 0138 A6000000 		.4byte	.LASF27
 1870 013c 03       		.byte	0x3
 1871 013d 98       		.byte	0x98
 1872 013e 6B000000 		.4byte	0x6b
 1873 0142 0A       		.byte	0xa
 1874 0143 00       		.byte	0
ARM GAS  C:\Users\chemi\AppData\Local\Temp\cc21dAG8.s 			page 60


 1875 0144 08       		.uleb128 0x8
 1876 0145 40050000 		.4byte	.LASF28
 1877 0149 03       		.byte	0x3
 1878 014a 99       		.byte	0x99
 1879 014b CF000000 		.4byte	0xcf
 1880 014f 06       		.uleb128 0x6
 1881 0150 08       		.byte	0x8
 1882 0151 03       		.byte	0x3
 1883 0152 9B       		.byte	0x9b
 1884 0153 A0010000 		.4byte	0x1a0
 1885 0157 07       		.uleb128 0x7
 1886 0158 A6000000 		.4byte	.LASF27
 1887 015c 03       		.byte	0x3
 1888 015d 9D       		.byte	0x9d
 1889 015e 6B000000 		.4byte	0x6b
 1890 0162 00       		.byte	0
 1891 0163 07       		.uleb128 0x7
 1892 0164 B8010000 		.4byte	.LASF29
 1893 0168 03       		.byte	0x3
 1894 0169 9E       		.byte	0x9e
 1895 016a 6B000000 		.4byte	0x6b
 1896 016e 01       		.byte	0x1
 1897 016f 07       		.uleb128 0x7
 1898 0170 97060000 		.4byte	.LASF23
 1899 0174 03       		.byte	0x3
 1900 0175 9F       		.byte	0x9f
 1901 0176 6B000000 		.4byte	0x6b
 1902 017a 02       		.byte	0x2
 1903 017b 07       		.uleb128 0x7
 1904 017c E7050000 		.4byte	.LASF30
 1905 0180 03       		.byte	0x3
 1906 0181 A0       		.byte	0xa0
 1907 0182 6B000000 		.4byte	0x6b
 1908 0186 03       		.byte	0x3
 1909 0187 07       		.uleb128 0x7
 1910 0188 2C000000 		.4byte	.LASF26
 1911 018c 03       		.byte	0x3
 1912 018d A1       		.byte	0xa1
 1913 018e 77000000 		.4byte	0x77
 1914 0192 04       		.byte	0x4
 1915 0193 07       		.uleb128 0x7
 1916 0194 64030000 		.4byte	.LASF31
 1917 0198 03       		.byte	0x3
 1918 0199 A2       		.byte	0xa2
 1919 019a 6B000000 		.4byte	0x6b
 1920 019e 06       		.byte	0x6
 1921 019f 00       		.byte	0
 1922 01a0 08       		.uleb128 0x8
 1923 01a1 1B020000 		.4byte	.LASF32
 1924 01a5 03       		.byte	0x3
 1925 01a6 A3       		.byte	0xa3
 1926 01a7 4F010000 		.4byte	0x14f
 1927 01ab 06       		.uleb128 0x6
 1928 01ac 04       		.byte	0x4
 1929 01ad 03       		.byte	0x3
 1930 01ae A5       		.byte	0xa5
 1931 01af CC010000 		.4byte	0x1cc
ARM GAS  C:\Users\chemi\AppData\Local\Temp\cc21dAG8.s 			page 61


 1932 01b3 07       		.uleb128 0x7
 1933 01b4 F9020000 		.4byte	.LASF33
 1934 01b8 03       		.byte	0x3
 1935 01b9 A7       		.byte	0xa7
 1936 01ba 6B000000 		.4byte	0x6b
 1937 01be 00       		.byte	0
 1938 01bf 07       		.uleb128 0x7
 1939 01c0 90040000 		.4byte	.LASF34
 1940 01c4 03       		.byte	0x3
 1941 01c5 A8       		.byte	0xa8
 1942 01c6 77000000 		.4byte	0x77
 1943 01ca 02       		.byte	0x2
 1944 01cb 00       		.byte	0
 1945 01cc 08       		.uleb128 0x8
 1946 01cd A5030000 		.4byte	.LASF35
 1947 01d1 03       		.byte	0x3
 1948 01d2 A9       		.byte	0xa9
 1949 01d3 AB010000 		.4byte	0x1ab
 1950 01d7 06       		.uleb128 0x6
 1951 01d8 0C       		.byte	0xc
 1952 01d9 03       		.byte	0x3
 1953 01da AB       		.byte	0xab
 1954 01db 04020000 		.4byte	0x204
 1955 01df 07       		.uleb128 0x7
 1956 01e0 D2010000 		.4byte	.LASF36
 1957 01e4 03       		.byte	0x3
 1958 01e5 AD       		.byte	0xad
 1959 01e6 77000000 		.4byte	0x77
 1960 01ea 00       		.byte	0
 1961 01eb 07       		.uleb128 0x7
 1962 01ec 74020000 		.4byte	.LASF37
 1963 01f0 03       		.byte	0x3
 1964 01f1 AE       		.byte	0xae
 1965 01f2 04020000 		.4byte	0x204
 1966 01f6 04       		.byte	0x4
 1967 01f7 07       		.uleb128 0x7
 1968 01f8 9F020000 		.4byte	.LASF38
 1969 01fc 03       		.byte	0x3
 1970 01fd AF       		.byte	0xaf
 1971 01fe 0A020000 		.4byte	0x20a
 1972 0202 08       		.byte	0x8
 1973 0203 00       		.byte	0
 1974 0204 09       		.uleb128 0x9
 1975 0205 04       		.byte	0x4
 1976 0206 BC000000 		.4byte	0xbc
 1977 020a 09       		.uleb128 0x9
 1978 020b 04       		.byte	0x4
 1979 020c CC010000 		.4byte	0x1cc
 1980 0210 08       		.uleb128 0x8
 1981 0211 99000000 		.4byte	.LASF39
 1982 0215 03       		.byte	0x3
 1983 0216 B0       		.byte	0xb0
 1984 0217 D7010000 		.4byte	0x1d7
 1985 021b 06       		.uleb128 0x6
 1986 021c 08       		.byte	0x8
 1987 021d 03       		.byte	0x3
 1988 021e B2       		.byte	0xb2
ARM GAS  C:\Users\chemi\AppData\Local\Temp\cc21dAG8.s 			page 62


 1989 021f 3A020000 		.4byte	0x23a
 1990 0223 0A       		.uleb128 0xa
 1991 0224 6300     		.ascii	"c\000"
 1992 0226 03       		.byte	0x3
 1993 0227 B4       		.byte	0xb4
 1994 0228 6B000000 		.4byte	0x6b
 1995 022c 00       		.byte	0
 1996 022d 07       		.uleb128 0x7
 1997 022e 67050000 		.4byte	.LASF40
 1998 0232 03       		.byte	0x3
 1999 0233 B5       		.byte	0xb5
 2000 0234 3A020000 		.4byte	0x23a
 2001 0238 04       		.byte	0x4
 2002 0239 00       		.byte	0
 2003 023a 09       		.uleb128 0x9
 2004 023b 04       		.byte	0x4
 2005 023c 40020000 		.4byte	0x240
 2006 0240 0B       		.uleb128 0xb
 2007 0241 08       		.uleb128 0x8
 2008 0242 D8010000 		.4byte	.LASF41
 2009 0246 03       		.byte	0x3
 2010 0247 B6       		.byte	0xb6
 2011 0248 1B020000 		.4byte	0x21b
 2012 024c 06       		.uleb128 0x6
 2013 024d 08       		.byte	0x8
 2014 024e 03       		.byte	0x3
 2015 024f C6       		.byte	0xc6
 2016 0250 61020000 		.4byte	0x261
 2017 0254 07       		.uleb128 0x7
 2018 0255 8E070000 		.4byte	.LASF42
 2019 0259 03       		.byte	0x3
 2020 025a C8       		.byte	0xc8
 2021 025b 61020000 		.4byte	0x261
 2022 025f 00       		.byte	0
 2023 0260 00       		.byte	0
 2024 0261 0C       		.uleb128 0xc
 2025 0262 6B000000 		.4byte	0x6b
 2026 0266 71020000 		.4byte	0x271
 2027 026a 0D       		.uleb128 0xd
 2028 026b C8000000 		.4byte	0xc8
 2029 026f 07       		.byte	0x7
 2030 0270 00       		.byte	0
 2031 0271 08       		.uleb128 0x8
 2032 0272 BF040000 		.4byte	.LASF43
 2033 0276 03       		.byte	0x3
 2034 0277 C9       		.byte	0xc9
 2035 0278 4C020000 		.4byte	0x24c
 2036 027c 06       		.uleb128 0x6
 2037 027d 10       		.byte	0x10
 2038 027e 03       		.byte	0x3
 2039 027f D5       		.byte	0xd5
 2040 0280 B5020000 		.4byte	0x2b5
 2041 0284 07       		.uleb128 0x7
 2042 0285 6A030000 		.4byte	.LASF44
 2043 0289 03       		.byte	0x3
 2044 028a D7       		.byte	0xd7
 2045 028b 6B000000 		.4byte	0x6b
ARM GAS  C:\Users\chemi\AppData\Local\Temp\cc21dAG8.s 			page 63


 2046 028f 00       		.byte	0
 2047 0290 07       		.uleb128 0x7
 2048 0291 71030000 		.4byte	.LASF45
 2049 0295 03       		.byte	0x3
 2050 0296 D8       		.byte	0xd8
 2051 0297 6B000000 		.4byte	0x6b
 2052 029b 01       		.byte	0x1
 2053 029c 07       		.uleb128 0x7
 2054 029d 23030000 		.4byte	.LASF46
 2055 02a1 03       		.byte	0x3
 2056 02a2 D9       		.byte	0xd9
 2057 02a3 6B000000 		.4byte	0x6b
 2058 02a7 02       		.byte	0x2
 2059 02a8 0A       		.uleb128 0xa
 2060 02a9 67617000 		.ascii	"gap\000"
 2061 02ad 03       		.byte	0x3
 2062 02ae DA       		.byte	0xda
 2063 02af B5020000 		.4byte	0x2b5
 2064 02b3 03       		.byte	0x3
 2065 02b4 00       		.byte	0
 2066 02b5 0C       		.uleb128 0xc
 2067 02b6 6B000000 		.4byte	0x6b
 2068 02ba C5020000 		.4byte	0x2c5
 2069 02be 0D       		.uleb128 0xd
 2070 02bf C8000000 		.4byte	0xc8
 2071 02c3 0C       		.byte	0xc
 2072 02c4 00       		.byte	0
 2073 02c5 08       		.uleb128 0x8
 2074 02c6 78030000 		.4byte	.LASF47
 2075 02ca 03       		.byte	0x3
 2076 02cb DB       		.byte	0xdb
 2077 02cc 7C020000 		.4byte	0x27c
 2078 02d0 06       		.uleb128 0x6
 2079 02d1 10       		.byte	0x10
 2080 02d2 03       		.byte	0x3
 2081 02d3 E7       		.byte	0xe7
 2082 02d4 51030000 		.4byte	0x351
 2083 02d8 07       		.uleb128 0x7
 2084 02d9 B9040000 		.4byte	.LASF48
 2085 02dd 03       		.byte	0x3
 2086 02de E9       		.byte	0xe9
 2087 02df 6B000000 		.4byte	0x6b
 2088 02e3 00       		.byte	0
 2089 02e4 07       		.uleb128 0x7
 2090 02e5 4D020000 		.4byte	.LASF49
 2091 02e9 03       		.byte	0x3
 2092 02ea EA       		.byte	0xea
 2093 02eb 6B000000 		.4byte	0x6b
 2094 02ef 01       		.byte	0x1
 2095 02f0 07       		.uleb128 0x7
 2096 02f1 62050000 		.4byte	.LASF50
 2097 02f5 03       		.byte	0x3
 2098 02f6 EB       		.byte	0xeb
 2099 02f7 6B000000 		.4byte	0x6b
 2100 02fb 02       		.byte	0x2
 2101 02fc 07       		.uleb128 0x7
 2102 02fd F6060000 		.4byte	.LASF51
ARM GAS  C:\Users\chemi\AppData\Local\Temp\cc21dAG8.s 			page 64


 2103 0301 03       		.byte	0x3
 2104 0302 EC       		.byte	0xec
 2105 0303 6B000000 		.4byte	0x6b
 2106 0307 03       		.byte	0x3
 2107 0308 07       		.uleb128 0x7
 2108 0309 E6010000 		.4byte	.LASF52
 2109 030d 03       		.byte	0x3
 2110 030e ED       		.byte	0xed
 2111 030f 6B000000 		.4byte	0x6b
 2112 0313 04       		.byte	0x4
 2113 0314 07       		.uleb128 0x7
 2114 0315 94050000 		.4byte	.LASF53
 2115 0319 03       		.byte	0x3
 2116 031a EE       		.byte	0xee
 2117 031b 6B000000 		.4byte	0x6b
 2118 031f 05       		.byte	0x5
 2119 0320 07       		.uleb128 0x7
 2120 0321 B3060000 		.4byte	.LASF54
 2121 0325 03       		.byte	0x3
 2122 0326 EF       		.byte	0xef
 2123 0327 6B000000 		.4byte	0x6b
 2124 032b 06       		.byte	0x6
 2125 032c 07       		.uleb128 0x7
 2126 032d 97040000 		.4byte	.LASF55
 2127 0331 03       		.byte	0x3
 2128 0332 F0       		.byte	0xf0
 2129 0333 6B000000 		.4byte	0x6b
 2130 0337 07       		.byte	0x7
 2131 0338 07       		.uleb128 0x7
 2132 0339 00000000 		.4byte	.LASF56
 2133 033d 03       		.byte	0x3
 2134 033e F1       		.byte	0xf1
 2135 033f 6B000000 		.4byte	0x6b
 2136 0343 08       		.byte	0x8
 2137 0344 0A       		.uleb128 0xa
 2138 0345 67617000 		.ascii	"gap\000"
 2139 0349 03       		.byte	0x3
 2140 034a F2       		.byte	0xf2
 2141 034b 51030000 		.4byte	0x351
 2142 034f 09       		.byte	0x9
 2143 0350 00       		.byte	0
 2144 0351 0C       		.uleb128 0xc
 2145 0352 6B000000 		.4byte	0x6b
 2146 0356 61030000 		.4byte	0x361
 2147 035a 0D       		.uleb128 0xd
 2148 035b C8000000 		.4byte	0xc8
 2149 035f 06       		.byte	0x6
 2150 0360 00       		.byte	0
 2151 0361 08       		.uleb128 0x8
 2152 0362 37020000 		.4byte	.LASF57
 2153 0366 03       		.byte	0x3
 2154 0367 F3       		.byte	0xf3
 2155 0368 D0020000 		.4byte	0x2d0
 2156 036c 0E       		.uleb128 0xe
 2157 036d 90       		.byte	0x90
 2158 036e 03       		.byte	0x3
 2159 036f 0F01     		.2byte	0x10f
ARM GAS  C:\Users\chemi\AppData\Local\Temp\cc21dAG8.s 			page 65


 2160 0371 83030000 		.4byte	0x383
 2161 0375 0F       		.uleb128 0xf
 2162 0376 7A000000 		.4byte	.LASF58
 2163 037a 03       		.byte	0x3
 2164 037b 1101     		.2byte	0x111
 2165 037d 83030000 		.4byte	0x383
 2166 0381 00       		.byte	0
 2167 0382 00       		.byte	0
 2168 0383 0C       		.uleb128 0xc
 2169 0384 C5020000 		.4byte	0x2c5
 2170 0388 93030000 		.4byte	0x393
 2171 038c 0D       		.uleb128 0xd
 2172 038d C8000000 		.4byte	0xc8
 2173 0391 08       		.byte	0x8
 2174 0392 00       		.byte	0
 2175 0393 04       		.uleb128 0x4
 2176 0394 80060000 		.4byte	.LASF59
 2177 0398 03       		.byte	0x3
 2178 0399 1201     		.2byte	0x112
 2179 039b 6C030000 		.4byte	0x36c
 2180 039f 0E       		.uleb128 0xe
 2181 03a0 90       		.byte	0x90
 2182 03a1 03       		.byte	0x3
 2183 03a2 1501     		.2byte	0x115
 2184 03a4 B6030000 		.4byte	0x3b6
 2185 03a8 0F       		.uleb128 0xf
 2186 03a9 D4020000 		.4byte	.LASF60
 2187 03ad 03       		.byte	0x3
 2188 03ae 1701     		.2byte	0x117
 2189 03b0 B6030000 		.4byte	0x3b6
 2190 03b4 00       		.byte	0
 2191 03b5 00       		.byte	0
 2192 03b6 0C       		.uleb128 0xc
 2193 03b7 61030000 		.4byte	0x361
 2194 03bb C6030000 		.4byte	0x3c6
 2195 03bf 0D       		.uleb128 0xd
 2196 03c0 C8000000 		.4byte	0xc8
 2197 03c4 08       		.byte	0x8
 2198 03c5 00       		.byte	0
 2199 03c6 04       		.uleb128 0x4
 2200 03c7 29030000 		.4byte	.LASF61
 2201 03cb 03       		.byte	0x3
 2202 03cc 1801     		.2byte	0x118
 2203 03ce 9F030000 		.4byte	0x39f
 2204 03d2 10       		.uleb128 0x10
 2205 03d3 80000000 		.4byte	.LASF66
 2206 03d7 01       		.byte	0x1
 2207 03d8 2503     		.2byte	0x325
 2208 03da 01       		.byte	0x1
 2209 03db 31040000 		.4byte	0x431
 2210 03df 11       		.uleb128 0x11
 2211 03e0 657000   		.ascii	"ep\000"
 2212 03e3 01       		.byte	0x1
 2213 03e4 2703     		.2byte	0x327
 2214 03e6 6B000000 		.4byte	0x6b
 2215 03ea 12       		.uleb128 0x12
 2216 03eb 57050000 		.4byte	.LASF62
ARM GAS  C:\Users\chemi\AppData\Local\Temp\cc21dAG8.s 			page 66


 2217 03ef 01       		.byte	0x1
 2218 03f0 2803     		.2byte	0x328
 2219 03f2 6B000000 		.4byte	0x6b
 2220 03f6 12       		.uleb128 0x12
 2221 03f7 40030000 		.4byte	.LASF63
 2222 03fb 01       		.byte	0x1
 2223 03fc 2903     		.2byte	0x329
 2224 03fe 6B000000 		.4byte	0x6b
 2225 0402 11       		.uleb128 0x11
 2226 0403 6900     		.ascii	"i\000"
 2227 0405 01       		.byte	0x1
 2228 0406 2A03     		.2byte	0x32a
 2229 0408 6B000000 		.4byte	0x6b
 2230 040c 12       		.uleb128 0x12
 2231 040d 46070000 		.4byte	.LASF64
 2232 0411 01       		.byte	0x1
 2233 0412 2B03     		.2byte	0x32b
 2234 0414 6B000000 		.4byte	0x6b
 2235 0418 12       		.uleb128 0x12
 2236 0419 0E050000 		.4byte	.LASF65
 2237 041d 01       		.byte	0x1
 2238 041e 2D03     		.2byte	0x32d
 2239 0420 31040000 		.4byte	0x431
 2240 0424 11       		.uleb128 0x11
 2241 0425 70455000 		.ascii	"pEP\000"
 2242 0429 01       		.byte	0x1
 2243 042a 2E03     		.2byte	0x32e
 2244 042c 3C040000 		.4byte	0x43c
 2245 0430 00       		.byte	0
 2246 0431 09       		.uleb128 0x9
 2247 0432 04       		.byte	0x4
 2248 0433 37040000 		.4byte	0x437
 2249 0437 13       		.uleb128 0x13
 2250 0438 41020000 		.4byte	0x241
 2251 043c 09       		.uleb128 0x9
 2252 043d 04       		.byte	0x4
 2253 043e 42040000 		.4byte	0x442
 2254 0442 13       		.uleb128 0x13
 2255 0443 A0010000 		.4byte	0x1a0
 2256 0447 10       		.uleb128 0x10
 2257 0448 F3030000 		.4byte	.LASF67
 2258 044c 01       		.byte	0x1
 2259 044d 3A02     		.2byte	0x23a
 2260 044f 01       		.byte	0x1
 2261 0450 CC040000 		.4byte	0x4cc
 2262 0454 14       		.uleb128 0x14
 2263 0455 D7050000 		.4byte	.LASF121
 2264 0459 01       		.byte	0x1
 2265 045a 3A02     		.2byte	0x23a
 2266 045c 6B000000 		.4byte	0x6b
 2267 0460 11       		.uleb128 0x11
 2268 0461 657000   		.ascii	"ep\000"
 2269 0464 01       		.byte	0x1
 2270 0465 3C02     		.2byte	0x23c
 2271 0467 6B000000 		.4byte	0x6b
 2272 046b 12       		.uleb128 0x12
 2273 046c 57050000 		.4byte	.LASF62
ARM GAS  C:\Users\chemi\AppData\Local\Temp\cc21dAG8.s 			page 67


 2274 0470 01       		.byte	0x1
 2275 0471 3D02     		.2byte	0x23d
 2276 0473 6B000000 		.4byte	0x6b
 2277 0477 11       		.uleb128 0x11
 2278 0478 6900     		.ascii	"i\000"
 2279 047a 01       		.byte	0x1
 2280 047b 3E02     		.2byte	0x23e
 2281 047d 6B000000 		.4byte	0x6b
 2282 0481 12       		.uleb128 0x12
 2283 0482 40030000 		.4byte	.LASF63
 2284 0486 01       		.byte	0x1
 2285 0487 3F02     		.2byte	0x23f
 2286 0489 6B000000 		.4byte	0x6b
 2287 048d 12       		.uleb128 0x12
 2288 048e 47010000 		.4byte	.LASF68
 2289 0492 01       		.byte	0x1
 2290 0493 4002     		.2byte	0x240
 2291 0495 CC040000 		.4byte	0x4cc
 2292 0499 12       		.uleb128 0x12
 2293 049a 6C040000 		.4byte	.LASF69
 2294 049e 01       		.byte	0x1
 2295 049f 4302     		.2byte	0x243
 2296 04a1 77000000 		.4byte	0x77
 2297 04a5 12       		.uleb128 0x12
 2298 04a6 0E050000 		.4byte	.LASF65
 2299 04aa 01       		.byte	0x1
 2300 04ab 4602     		.2byte	0x246
 2301 04ad 31040000 		.4byte	0x431
 2302 04b1 11       		.uleb128 0x11
 2303 04b2 70455000 		.ascii	"pEP\000"
 2304 04b6 01       		.byte	0x1
 2305 04b7 4702     		.2byte	0x247
 2306 04b9 3C040000 		.4byte	0x43c
 2307 04bd 15       		.uleb128 0x15
 2308 04be 12       		.uleb128 0x12
 2309 04bf CB030000 		.4byte	.LASF70
 2310 04c3 01       		.byte	0x1
 2311 04c4 6302     		.2byte	0x263
 2312 04c6 6B000000 		.4byte	0x6b
 2313 04ca 00       		.byte	0
 2314 04cb 00       		.byte	0
 2315 04cc 09       		.uleb128 0x9
 2316 04cd 04       		.byte	0x4
 2317 04ce D2040000 		.4byte	0x4d2
 2318 04d2 13       		.uleb128 0x13
 2319 04d3 6B000000 		.4byte	0x6b
 2320 04d7 16       		.uleb128 0x16
 2321 04d8 E2000000 		.4byte	.LASF122
 2322 04dc 01       		.byte	0x1
 2323 04dd F303     		.2byte	0x3f3
 2324 04df 31040000 		.4byte	0x431
 2325 04e3 01       		.byte	0x1
 2326 04e4 17       		.uleb128 0x17
 2327 04e5 FC040000 		.4byte	.LASF72
 2328 04e9 01       		.byte	0x1
 2329 04ea 8E01     		.2byte	0x18e
 2330 04ec 00000000 		.4byte	.LFB1
ARM GAS  C:\Users\chemi\AppData\Local\Temp\cc21dAG8.s 			page 68


 2331 04f0 6C000000 		.4byte	.LFE1-.LFB1
 2332 04f4 01       		.uleb128 0x1
 2333 04f5 9C       		.byte	0x9c
 2334 04f6 55050000 		.4byte	0x555
 2335 04fa 18       		.uleb128 0x18
 2336 04fb ED030000 		.4byte	.LASF75
 2337 04ff 01       		.byte	0x1
 2338 0500 8E01     		.2byte	0x18e
 2339 0502 55050000 		.4byte	0x555
 2340 0506 00000000 		.4byte	.LLST0
 2341 050a 19       		.uleb128 0x19
 2342 050b 68657800 		.ascii	"hex\000"
 2343 050f 01       		.byte	0x1
 2344 0510 9001     		.2byte	0x190
 2345 0512 70050000 		.4byte	0x570
 2346 0516 02       		.uleb128 0x2
 2347 0517 91       		.byte	0x91
 2348 0518 5C       		.sleb128 -36
 2349 0519 1A       		.uleb128 0x1a
 2350 051a 6900     		.ascii	"i\000"
 2351 051c 01       		.byte	0x1
 2352 051d 9101     		.2byte	0x191
 2353 051f 6B000000 		.4byte	0x6b
 2354 0523 2C000000 		.4byte	.LLST1
 2355 0527 1A       		.uleb128 0x1a
 2356 0528 6A00     		.ascii	"j\000"
 2357 052a 01       		.byte	0x1
 2358 052b 9201     		.2byte	0x192
 2359 052d 6B000000 		.4byte	0x6b
 2360 0531 66000000 		.4byte	.LLST2
 2361 0535 1B       		.uleb128 0x1b
 2362 0536 ED060000 		.4byte	.LASF71
 2363 053a 01       		.byte	0x1
 2364 053b 9301     		.2byte	0x193
 2365 053d 61020000 		.4byte	0x261
 2366 0541 02       		.uleb128 0x2
 2367 0542 91       		.byte	0x91
 2368 0543 54       		.sleb128 -44
 2369 0544 1C       		.uleb128 0x1c
 2370 0545 34000000 		.4byte	.LVL3
 2371 0549 560B0000 		.4byte	0xb56
 2372 054d 1D       		.uleb128 0x1d
 2373 054e 01       		.uleb128 0x1
 2374 054f 50       		.byte	0x50
 2375 0550 02       		.uleb128 0x2
 2376 0551 75       		.byte	0x75
 2377 0552 00       		.sleb128 0
 2378 0553 00       		.byte	0
 2379 0554 00       		.byte	0
 2380 0555 09       		.uleb128 0x9
 2381 0556 04       		.byte	0x4
 2382 0557 6B000000 		.4byte	0x6b
 2383 055b 0C       		.uleb128 0xc
 2384 055c 6B050000 		.4byte	0x56b
 2385 0560 6B050000 		.4byte	0x56b
 2386 0564 0D       		.uleb128 0xd
 2387 0565 C8000000 		.4byte	0xc8
ARM GAS  C:\Users\chemi\AppData\Local\Temp\cc21dAG8.s 			page 69


 2388 0569 10       		.byte	0x10
 2389 056a 00       		.byte	0
 2390 056b 13       		.uleb128 0x13
 2391 056c 9D000000 		.4byte	0x9d
 2392 0570 13       		.uleb128 0x13
 2393 0571 5B050000 		.4byte	0x55b
 2394 0575 17       		.uleb128 0x17
 2395 0576 13050000 		.4byte	.LASF73
 2396 057a 01       		.byte	0x1
 2397 057b B501     		.2byte	0x1b5
 2398 057d 00000000 		.4byte	.LFB2
 2399 0581 80000000 		.4byte	.LFE2-.LFB2
 2400 0585 01       		.uleb128 0x1
 2401 0586 9C       		.byte	0x9c
 2402 0587 9B050000 		.4byte	0x59b
 2403 058b 1A       		.uleb128 0x1a
 2404 058c 657000   		.ascii	"ep\000"
 2405 058f 01       		.byte	0x1
 2406 0590 B701     		.2byte	0x1b7
 2407 0592 6B000000 		.4byte	0x6b
 2408 0596 85000000 		.4byte	.LLST3
 2409 059a 00       		.byte	0
 2410 059b 17       		.uleb128 0x17
 2411 059c 4E010000 		.4byte	.LASF74
 2412 05a0 01       		.byte	0x1
 2413 05a1 1402     		.2byte	0x214
 2414 05a3 00000000 		.4byte	.LFB3
 2415 05a7 28000000 		.4byte	.LFE3-.LFB3
 2416 05ab 01       		.uleb128 0x1
 2417 05ac 9C       		.byte	0x9c
 2418 05ad C0050000 		.4byte	0x5c0
 2419 05b1 1A       		.uleb128 0x1a
 2420 05b2 6900     		.ascii	"i\000"
 2421 05b4 01       		.byte	0x1
 2422 05b5 1602     		.2byte	0x216
 2423 05b7 6B000000 		.4byte	0x6b
 2424 05bb A4000000 		.4byte	.LLST4
 2425 05bf 00       		.byte	0
 2426 05c0 1E       		.uleb128 0x1e
 2427 05c1 9F040000 		.4byte	.LASF77
 2428 05c5 01       		.byte	0x1
 2429 05c6 AE03     		.2byte	0x3ae
 2430 05c8 31040000 		.4byte	0x431
 2431 05cc 00000000 		.4byte	.LFB6
 2432 05d0 24000000 		.4byte	.LFE6-.LFB6
 2433 05d4 01       		.uleb128 0x1
 2434 05d5 9C       		.byte	0x9c
 2435 05d6 FB050000 		.4byte	0x5fb
 2436 05da 18       		.uleb128 0x18
 2437 05db 55020000 		.4byte	.LASF76
 2438 05df 01       		.byte	0x1
 2439 05e0 AE03     		.2byte	0x3ae
 2440 05e2 6B000000 		.4byte	0x6b
 2441 05e6 C3000000 		.4byte	.LLST5
 2442 05ea 1F       		.uleb128 0x1f
 2443 05eb 0E050000 		.4byte	.LASF65
 2444 05ef 01       		.byte	0x1
ARM GAS  C:\Users\chemi\AppData\Local\Temp\cc21dAG8.s 			page 70


 2445 05f0 B203     		.2byte	0x3b2
 2446 05f2 31040000 		.4byte	0x431
 2447 05f6 E4000000 		.4byte	.LLST6
 2448 05fa 00       		.byte	0
 2449 05fb 20       		.uleb128 0x20
 2450 05fc D2030000 		.4byte	0x3d2
 2451 0600 00000000 		.4byte	.LFB5
 2452 0604 28010000 		.4byte	.LFE5-.LFB5
 2453 0608 01       		.uleb128 0x1
 2454 0609 9C       		.byte	0x9c
 2455 060a 84060000 		.4byte	0x684
 2456 060e 21       		.uleb128 0x21
 2457 060f DF030000 		.4byte	0x3df
 2458 0613 21       		.uleb128 0x21
 2459 0614 EA030000 		.4byte	0x3ea
 2460 0618 21       		.uleb128 0x21
 2461 0619 F6030000 		.4byte	0x3f6
 2462 061d 21       		.uleb128 0x21
 2463 061e 02040000 		.4byte	0x402
 2464 0622 21       		.uleb128 0x21
 2465 0623 0C040000 		.4byte	0x40c
 2466 0627 21       		.uleb128 0x21
 2467 0628 18040000 		.4byte	0x418
 2468 062c 21       		.uleb128 0x21
 2469 062d 24040000 		.4byte	0x424
 2470 0631 22       		.uleb128 0x22
 2471 0632 0C000000 		.4byte	.LBB8
 2472 0636 1C010000 		.4byte	.LBE8-.LBB8
 2473 063a 23       		.uleb128 0x23
 2474 063b DF030000 		.4byte	0x3df
 2475 063f 04010000 		.4byte	.LLST7
 2476 0643 23       		.uleb128 0x23
 2477 0644 EA030000 		.4byte	0x3ea
 2478 0648 23010000 		.4byte	.LLST8
 2479 064c 23       		.uleb128 0x23
 2480 064d F6030000 		.4byte	0x3f6
 2481 0651 36010000 		.4byte	.LLST9
 2482 0655 23       		.uleb128 0x23
 2483 0656 02040000 		.4byte	0x402
 2484 065a 54010000 		.4byte	.LLST10
 2485 065e 23       		.uleb128 0x23
 2486 065f 0C040000 		.4byte	0x40c
 2487 0663 68010000 		.4byte	.LLST11
 2488 0667 23       		.uleb128 0x23
 2489 0668 18040000 		.4byte	0x418
 2490 066c 7B010000 		.4byte	.LLST12
 2491 0670 23       		.uleb128 0x23
 2492 0671 24040000 		.4byte	0x424
 2493 0675 90010000 		.4byte	.LLST13
 2494 0679 24       		.uleb128 0x24
 2495 067a 18000000 		.4byte	.LVL19
 2496 067e C0050000 		.4byte	0x5c0
 2497 0682 00       		.byte	0
 2498 0683 00       		.byte	0
 2499 0684 25       		.uleb128 0x25
 2500 0685 D7040000 		.4byte	0x4d7
 2501 0689 00000000 		.4byte	.LFB7
ARM GAS  C:\Users\chemi\AppData\Local\Temp\cc21dAG8.s 			page 71


 2502 068d 18000000 		.4byte	.LFE7-.LFB7
 2503 0691 01       		.uleb128 0x1
 2504 0692 9C       		.byte	0x9c
 2505 0693 1E       		.uleb128 0x1e
 2506 0694 0A010000 		.4byte	.LASF78
 2507 0698 01       		.byte	0x1
 2508 0699 0604     		.2byte	0x406
 2509 069b CC040000 		.4byte	0x4cc
 2510 069f 00000000 		.4byte	.LFB8
 2511 06a3 20000000 		.4byte	.LFE8-.LFB8
 2512 06a7 01       		.uleb128 0x1
 2513 06a8 9C       		.byte	0x9c
 2514 06a9 E5060000 		.4byte	0x6e5
 2515 06ad 1F       		.uleb128 0x1f
 2516 06ae 0E050000 		.4byte	.LASF65
 2517 06b2 01       		.byte	0x1
 2518 06b3 0904     		.2byte	0x409
 2519 06b5 31040000 		.4byte	0x431
 2520 06b9 A3010000 		.4byte	.LLST14
 2521 06bd 1B       		.uleb128 0x1b
 2522 06be DD030000 		.4byte	.LASF79
 2523 06c2 01       		.byte	0x1
 2524 06c3 0A04     		.2byte	0x40a
 2525 06c5 CC040000 		.4byte	0x4cc
 2526 06c9 01       		.uleb128 0x1
 2527 06ca 50       		.byte	0x50
 2528 06cb 1F       		.uleb128 0x1f
 2529 06cc 5F020000 		.4byte	.LASF80
 2530 06d0 01       		.byte	0x1
 2531 06d1 0B04     		.2byte	0x40b
 2532 06d3 6B000000 		.4byte	0x6b
 2533 06d7 C8010000 		.4byte	.LLST15
 2534 06db 24       		.uleb128 0x24
 2535 06dc 0E000000 		.4byte	.LVL33
 2536 06e0 C0050000 		.4byte	0x5c0
 2537 06e4 00       		.byte	0
 2538 06e5 20       		.uleb128 0x20
 2539 06e6 47040000 		.4byte	0x447
 2540 06ea 00000000 		.4byte	.LFB4
 2541 06ee 74010000 		.4byte	.LFE4-.LFB4
 2542 06f2 01       		.uleb128 0x1
 2543 06f3 9C       		.byte	0x9c
 2544 06f4 D6070000 		.4byte	0x7d6
 2545 06f8 26       		.uleb128 0x26
 2546 06f9 54040000 		.4byte	0x454
 2547 06fd EA010000 		.4byte	.LLST16
 2548 0701 23       		.uleb128 0x23
 2549 0702 60040000 		.4byte	0x460
 2550 0706 16020000 		.4byte	.LLST17
 2551 070a 21       		.uleb128 0x21
 2552 070b 6B040000 		.4byte	0x46b
 2553 070f 23       		.uleb128 0x23
 2554 0710 77040000 		.4byte	0x477
 2555 0714 35020000 		.4byte	.LLST18
 2556 0718 21       		.uleb128 0x21
 2557 0719 81040000 		.4byte	0x481
 2558 071d 21       		.uleb128 0x21
ARM GAS  C:\Users\chemi\AppData\Local\Temp\cc21dAG8.s 			page 72


 2559 071e 8D040000 		.4byte	0x48d
 2560 0722 27       		.uleb128 0x27
 2561 0723 99040000 		.4byte	0x499
 2562 0727 00       		.byte	0
 2563 0728 21       		.uleb128 0x21
 2564 0729 A5040000 		.4byte	0x4a5
 2565 072d 21       		.uleb128 0x21
 2566 072e B1040000 		.4byte	0x4b1
 2567 0732 28       		.uleb128 0x28
 2568 0733 00000000 		.4byte	.Ldebug_ranges0+0
 2569 0737 26       		.uleb128 0x26
 2570 0738 54040000 		.4byte	0x454
 2571 073c 55020000 		.4byte	.LLST19
 2572 0740 28       		.uleb128 0x28
 2573 0741 00000000 		.4byte	.Ldebug_ranges0+0
 2574 0745 23       		.uleb128 0x23
 2575 0746 60040000 		.4byte	0x460
 2576 074a 68020000 		.4byte	.LLST20
 2577 074e 23       		.uleb128 0x23
 2578 074f 6B040000 		.4byte	0x46b
 2579 0753 87020000 		.4byte	.LLST21
 2580 0757 23       		.uleb128 0x23
 2581 0758 77040000 		.4byte	0x477
 2582 075c 9B020000 		.4byte	.LLST22
 2583 0760 23       		.uleb128 0x23
 2584 0761 81040000 		.4byte	0x481
 2585 0765 D2020000 		.4byte	.LLST23
 2586 0769 23       		.uleb128 0x23
 2587 076a 8D040000 		.4byte	0x48d
 2588 076e 12030000 		.4byte	.LLST24
 2589 0772 23       		.uleb128 0x23
 2590 0773 99040000 		.4byte	0x499
 2591 0777 26030000 		.4byte	.LLST25
 2592 077b 23       		.uleb128 0x23
 2593 077c A5040000 		.4byte	0x4a5
 2594 0780 64030000 		.4byte	.LLST26
 2595 0784 23       		.uleb128 0x23
 2596 0785 B1040000 		.4byte	0x4b1
 2597 0789 84030000 		.4byte	.LLST27
 2598 078d 28       		.uleb128 0x28
 2599 078e 00000000 		.4byte	.Ldebug_ranges0+0
 2600 0792 23       		.uleb128 0x23
 2601 0793 BE040000 		.4byte	0x4be
 2602 0797 D6030000 		.4byte	.LLST28
 2603 079b 24       		.uleb128 0x24
 2604 079c 52000000 		.4byte	.LVL46
 2605 07a0 C0050000 		.4byte	0x5c0
 2606 07a4 29       		.uleb128 0x29
 2607 07a5 F8000000 		.4byte	.LVL57
 2608 07a9 610B0000 		.4byte	0xb61
 2609 07ad C0070000 		.4byte	0x7c0
 2610 07b1 1D       		.uleb128 0x1d
 2611 07b2 01       		.uleb128 0x1
 2612 07b3 50       		.byte	0x50
 2613 07b4 02       		.uleb128 0x2
 2614 07b5 74       		.byte	0x74
 2615 07b6 00       		.sleb128 0
ARM GAS  C:\Users\chemi\AppData\Local\Temp\cc21dAG8.s 			page 73


 2616 07b7 1D       		.uleb128 0x1d
 2617 07b8 01       		.uleb128 0x1
 2618 07b9 51       		.byte	0x51
 2619 07ba 04       		.uleb128 0x4
 2620 07bb 91       		.byte	0x91
 2621 07bc 54       		.sleb128 -44
 2622 07bd 94       		.byte	0x94
 2623 07be 01       		.byte	0x1
 2624 07bf 00       		.byte	0
 2625 07c0 24       		.uleb128 0x24
 2626 07c1 30010000 		.4byte	.LVL67
 2627 07c5 93060000 		.4byte	0x693
 2628 07c9 2A       		.uleb128 0x2a
 2629 07ca 56010000 		.4byte	.LVL74
 2630 07ce 75050000 		.4byte	0x575
 2631 07d2 00       		.byte	0
 2632 07d3 00       		.byte	0
 2633 07d4 00       		.byte	0
 2634 07d5 00       		.byte	0
 2635 07d6 17       		.uleb128 0x17
 2636 07d7 AC020000 		.4byte	.LASF81
 2637 07db 01       		.byte	0x1
 2638 07dc 3004     		.2byte	0x430
 2639 07de 00000000 		.4byte	.LFB9
 2640 07e2 40000000 		.4byte	.LFE9-.LFB9
 2641 07e6 01       		.uleb128 0x1
 2642 07e7 9C       		.byte	0x9c
 2643 07e8 FD070000 		.4byte	0x7fd
 2644 07ec 18       		.uleb128 0x18
 2645 07ed 8E030000 		.4byte	.LASF82
 2646 07f1 01       		.byte	0x1
 2647 07f2 3004     		.2byte	0x430
 2648 07f4 6B000000 		.4byte	0x6b
 2649 07f8 00040000 		.4byte	.LLST29
 2650 07fc 00       		.byte	0
 2651 07fd 1E       		.uleb128 0x1e
 2652 07fe 62010000 		.4byte	.LASF83
 2653 0802 01       		.byte	0x1
 2654 0803 5904     		.2byte	0x459
 2655 0805 6B000000 		.4byte	0x6b
 2656 0809 00000000 		.4byte	.LFB10
 2657 080d 54000000 		.4byte	.LFE10-.LFB10
 2658 0811 01       		.uleb128 0x1
 2659 0812 9C       		.byte	0x9c
 2660 0813 3D080000 		.4byte	0x83d
 2661 0817 2B       		.uleb128 0x2b
 2662 0818 47030000 		.4byte	.LASF84
 2663 081c 01       		.byte	0x1
 2664 081d 5B04     		.2byte	0x45b
 2665 081f 6B000000 		.4byte	0x6b
 2666 0823 00       		.byte	0
 2667 0824 1A       		.uleb128 0x1a
 2668 0825 657000   		.ascii	"ep\000"
 2669 0828 01       		.byte	0x1
 2670 0829 5C04     		.2byte	0x45c
 2671 082b 6B000000 		.4byte	0x6b
 2672 082f 1E040000 		.4byte	.LLST30
ARM GAS  C:\Users\chemi\AppData\Local\Temp\cc21dAG8.s 			page 74


 2673 0833 2A       		.uleb128 0x2a
 2674 0834 42000000 		.4byte	.LVL81
 2675 0838 6D0B0000 		.4byte	0xb6d
 2676 083c 00       		.byte	0
 2677 083d 1E       		.uleb128 0x1e
 2678 083e 60000000 		.4byte	.LASF85
 2679 0842 01       		.byte	0x1
 2680 0843 8A04     		.2byte	0x48a
 2681 0845 6B000000 		.4byte	0x6b
 2682 0849 00000000 		.4byte	.LFB11
 2683 084d 74000000 		.4byte	.LFE11-.LFB11
 2684 0851 01       		.uleb128 0x1
 2685 0852 9C       		.byte	0x9c
 2686 0853 7D080000 		.4byte	0x87d
 2687 0857 2B       		.uleb128 0x2b
 2688 0858 47030000 		.4byte	.LASF84
 2689 085c 01       		.byte	0x1
 2690 085d 8C04     		.2byte	0x48c
 2691 085f 6B000000 		.4byte	0x6b
 2692 0863 00       		.byte	0
 2693 0864 1A       		.uleb128 0x1a
 2694 0865 657000   		.ascii	"ep\000"
 2695 0868 01       		.byte	0x1
 2696 0869 8D04     		.2byte	0x48d
 2697 086b 6B000000 		.4byte	0x6b
 2698 086f 3C040000 		.4byte	.LLST31
 2699 0873 2A       		.uleb128 0x2a
 2700 0874 60000000 		.4byte	.LVL85
 2701 0878 6D0B0000 		.4byte	0xb6d
 2702 087c 00       		.byte	0
 2703 087d 1E       		.uleb128 0x1e
 2704 087e 6E050000 		.4byte	.LASF86
 2705 0882 01       		.byte	0x1
 2706 0883 CF04     		.2byte	0x4cf
 2707 0885 6B000000 		.4byte	0x6b
 2708 0889 00000000 		.4byte	.LFB12
 2709 088d 48000000 		.4byte	.LFE12-.LFB12
 2710 0891 01       		.uleb128 0x1
 2711 0892 9C       		.byte	0x9c
 2712 0893 E1080000 		.4byte	0x8e1
 2713 0897 1F       		.uleb128 0x1f
 2714 0898 47030000 		.4byte	.LASF84
 2715 089c 01       		.byte	0x1
 2716 089d D104     		.2byte	0x4d1
 2717 089f 6B000000 		.4byte	0x6b
 2718 08a3 5A040000 		.4byte	.LLST32
 2719 08a7 1F       		.uleb128 0x1f
 2720 08a8 46070000 		.4byte	.LASF64
 2721 08ac 01       		.byte	0x1
 2722 08ad D304     		.2byte	0x4d3
 2723 08af 6B000000 		.4byte	0x6b
 2724 08b3 91040000 		.4byte	.LLST33
 2725 08b7 1F       		.uleb128 0x1f
 2726 08b8 53070000 		.4byte	.LASF87
 2727 08bc 01       		.byte	0x1
 2728 08bd D404     		.2byte	0x4d4
 2729 08bf 6B000000 		.4byte	0x6b
ARM GAS  C:\Users\chemi\AppData\Local\Temp\cc21dAG8.s 			page 75


 2730 08c3 A4040000 		.4byte	.LLST34
 2731 08c7 1F       		.uleb128 0x1f
 2732 08c8 0E050000 		.4byte	.LASF65
 2733 08cc 01       		.byte	0x1
 2734 08cd D504     		.2byte	0x4d5
 2735 08cf 31040000 		.4byte	0x431
 2736 08d3 E0040000 		.4byte	.LLST35
 2737 08d7 24       		.uleb128 0x24
 2738 08d8 14000000 		.4byte	.LVL88
 2739 08dc C0050000 		.4byte	0x5c0
 2740 08e0 00       		.byte	0
 2741 08e1 2C       		.uleb128 0x2c
 2742 08e2 02040000 		.4byte	.LASF88
 2743 08e6 01       		.byte	0x1
 2744 08e7 54       		.byte	0x54
 2745 08e8 6B000000 		.4byte	0x6b
 2746 08ec 00000000 		.4byte	.LFB0
 2747 08f0 74020000 		.4byte	.LFE0-.LFB0
 2748 08f4 01       		.uleb128 0x1
 2749 08f5 9C       		.byte	0x9c
 2750 08f6 000A0000 		.4byte	0xa00
 2751 08fa 2D       		.uleb128 0x2d
 2752 08fb 47030000 		.4byte	.LASF84
 2753 08ff 01       		.byte	0x1
 2754 0900 56       		.byte	0x56
 2755 0901 6B000000 		.4byte	0x6b
 2756 0905 FE040000 		.4byte	.LLST36
 2757 0909 2D       		.uleb128 0x2d
 2758 090a D2000000 		.4byte	.LASF89
 2759 090e 01       		.byte	0x1
 2760 090f 57       		.byte	0x57
 2761 0910 6B000000 		.4byte	0x6b
 2762 0914 12050000 		.4byte	.LLST37
 2763 0918 2D       		.uleb128 0x2d
 2764 0919 51000000 		.4byte	.LASF90
 2765 091d 01       		.byte	0x1
 2766 091e 58       		.byte	0x58
 2767 091f 6B000000 		.4byte	0x6b
 2768 0923 25050000 		.4byte	.LLST38
 2769 0927 2D       		.uleb128 0x2d
 2770 0928 FC000000 		.4byte	.LASF91
 2771 092c 01       		.byte	0x1
 2772 092d 59       		.byte	0x59
 2773 092e 6B000000 		.4byte	0x6b
 2774 0932 43050000 		.4byte	.LLST39
 2775 0936 2D       		.uleb128 0x2d
 2776 0937 8F050000 		.4byte	.LASF92
 2777 093b 01       		.byte	0x1
 2778 093c 5C       		.byte	0x5c
 2779 093d 04020000 		.4byte	0x204
 2780 0941 AE050000 		.4byte	.LLST40
 2781 0945 2D       		.uleb128 0x2d
 2782 0946 5D050000 		.4byte	.LASF93
 2783 094a 01       		.byte	0x1
 2784 094b 5E       		.byte	0x5e
 2785 094c 6B000000 		.4byte	0x6b
 2786 0950 FC050000 		.4byte	.LLST41
ARM GAS  C:\Users\chemi\AppData\Local\Temp\cc21dAG8.s 			page 76


 2787 0954 2D       		.uleb128 0x2d
 2788 0955 CB050000 		.4byte	.LASF94
 2789 0959 01       		.byte	0x1
 2790 095a 5F       		.byte	0x5f
 2791 095b 6B000000 		.4byte	0x6b
 2792 095f 46060000 		.4byte	.LLST42
 2793 0963 2E       		.uleb128 0x2e
 2794 0964 5C040000 		.4byte	.LASF95
 2795 0968 01       		.byte	0x1
 2796 0969 63       		.byte	0x63
 2797 096a 100A0000 		.4byte	0xa10
 2798 096e 05       		.uleb128 0x5
 2799 096f 03       		.byte	0x3
 2800 0970 00000000 		.4byte	USBUART_tBuffer.5240
 2801 0974 2D       		.uleb128 0x2d
 2802 0975 0E050000 		.4byte	.LASF65
 2803 0979 01       		.byte	0x1
 2804 097a 64       		.byte	0x64
 2805 097b 31040000 		.4byte	0x431
 2806 097f 59060000 		.4byte	.LLST43
 2807 0983 2F       		.uleb128 0x2f
 2808 0984 D7040000 		.4byte	0x4d7
 2809 0988 3E000000 		.4byte	.LBB18
 2810 098c 0A000000 		.4byte	.LBE18-.LBB18
 2811 0990 01       		.byte	0x1
 2812 0991 70       		.byte	0x70
 2813 0992 24       		.uleb128 0x24
 2814 0993 5E000000 		.4byte	.LVL97
 2815 0997 C0050000 		.4byte	0x5c0
 2816 099b 2A       		.uleb128 0x2a
 2817 099c 7E000000 		.4byte	.LVL100
 2818 09a0 780B0000 		.4byte	0xb78
 2819 09a4 24       		.uleb128 0x24
 2820 09a5 C2000000 		.4byte	.LVL109
 2821 09a9 E4040000 		.4byte	0x4e4
 2822 09ad 2A       		.uleb128 0x2a
 2823 09ae DA000000 		.4byte	.LVL112
 2824 09b2 830B0000 		.4byte	0xb83
 2825 09b6 29       		.uleb128 0x29
 2826 09b7 6A010000 		.4byte	.LVL125
 2827 09bb 47040000 		.4byte	0x447
 2828 09bf C9090000 		.4byte	0x9c9
 2829 09c3 1D       		.uleb128 0x1d
 2830 09c4 01       		.uleb128 0x1
 2831 09c5 50       		.byte	0x50
 2832 09c6 01       		.uleb128 0x1
 2833 09c7 31       		.byte	0x31
 2834 09c8 00       		.byte	0
 2835 09c9 24       		.uleb128 0x24
 2836 09ca 74010000 		.4byte	.LVL127
 2837 09ce C0050000 		.4byte	0x5c0
 2838 09d2 24       		.uleb128 0x24
 2839 09d3 7E010000 		.4byte	.LVL129
 2840 09d7 7D080000 		.4byte	0x87d
 2841 09db 24       		.uleb128 0x24
 2842 09dc A6010000 		.4byte	.LVL132
 2843 09e0 D2030000 		.4byte	0x3d2
ARM GAS  C:\Users\chemi\AppData\Local\Temp\cc21dAG8.s 			page 77


 2844 09e4 2A       		.uleb128 0x2a
 2845 09e5 C6010000 		.4byte	.LVL135
 2846 09e9 3D080000 		.4byte	0x83d
 2847 09ed 2A       		.uleb128 0x2a
 2848 09ee F4010000 		.4byte	.LVL138
 2849 09f2 FD070000 		.4byte	0x7fd
 2850 09f6 2A       		.uleb128 0x2a
 2851 09f7 28020000 		.4byte	.LVL139
 2852 09fb 6D0B0000 		.4byte	0xb6d
 2853 09ff 00       		.byte	0
 2854 0a00 0C       		.uleb128 0xc
 2855 0a01 BC000000 		.4byte	0xbc
 2856 0a05 100A0000 		.4byte	0xa10
 2857 0a09 0D       		.uleb128 0xd
 2858 0a0a C8000000 		.4byte	0xc8
 2859 0a0e 01       		.byte	0x1
 2860 0a0f 00       		.byte	0
 2861 0a10 05       		.uleb128 0x5
 2862 0a11 000A0000 		.4byte	0xa00
 2863 0a15 30       		.uleb128 0x30
 2864 0a16 C0020000 		.4byte	.LASF96
 2865 0a1a 03       		.byte	0x3
 2866 0a1b D302     		.2byte	0x2d3
 2867 0a1d BC000000 		.4byte	0xbc
 2868 0a21 30       		.uleb128 0x30
 2869 0a22 2C010000 		.4byte	.LASF97
 2870 0a26 03       		.byte	0x3
 2871 0a27 D502     		.2byte	0x2d5
 2872 0a29 BC000000 		.4byte	0xbc
 2873 0a2d 30       		.uleb128 0x30
 2874 0a2e 1D040000 		.4byte	.LASF98
 2875 0a32 03       		.byte	0x3
 2876 0a33 D602     		.2byte	0x2d6
 2877 0a35 BC000000 		.4byte	0xbc
 2878 0a39 30       		.uleb128 0x30
 2879 0a3a B0000000 		.4byte	.LASF99
 2880 0a3e 03       		.byte	0x3
 2881 0a3f D702     		.2byte	0x2d7
 2882 0a41 BC000000 		.4byte	0xbc
 2883 0a45 0C       		.uleb128 0xc
 2884 0a46 D2040000 		.4byte	0x4d2
 2885 0a4a 550A0000 		.4byte	0xa55
 2886 0a4e 0D       		.uleb128 0xd
 2887 0a4f C8000000 		.4byte	0xc8
 2888 0a53 11       		.byte	0x11
 2889 0a54 00       		.byte	0
 2890 0a55 31       		.uleb128 0x31
 2891 0a56 3A040000 		.4byte	.LASF100
 2892 0a5a 04       		.byte	0x4
 2893 0a5b 61       		.byte	0x61
 2894 0a5c 600A0000 		.4byte	0xa60
 2895 0a60 13       		.uleb128 0x13
 2896 0a61 450A0000 		.4byte	0xa45
 2897 0a65 0C       		.uleb128 0xc
 2898 0a66 37040000 		.4byte	0x437
 2899 0a6a 750A0000 		.4byte	0xa75
 2900 0a6e 0D       		.uleb128 0xd
ARM GAS  C:\Users\chemi\AppData\Local\Temp\cc21dAG8.s 			page 78


 2901 0a6f C8000000 		.4byte	0xc8
 2902 0a73 00       		.byte	0
 2903 0a74 00       		.byte	0
 2904 0a75 31       		.uleb128 0x31
 2905 0a76 97030000 		.4byte	.LASF101
 2906 0a7a 04       		.byte	0x4
 2907 0a7b 67       		.byte	0x67
 2908 0a7c 800A0000 		.4byte	0xa80
 2909 0a80 13       		.uleb128 0x13
 2910 0a81 650A0000 		.4byte	0xa65
 2911 0a85 0C       		.uleb128 0xc
 2912 0a86 D2040000 		.4byte	0x4d2
 2913 0a8a 950A0000 		.4byte	0xa95
 2914 0a8e 0D       		.uleb128 0xd
 2915 0a8f C8000000 		.4byte	0xc8
 2916 0a93 9E       		.byte	0x9e
 2917 0a94 00       		.byte	0
 2918 0a95 31       		.uleb128 0x31
 2919 0a96 92010000 		.4byte	.LASF102
 2920 0a9a 04       		.byte	0x4
 2921 0a9b 69       		.byte	0x69
 2922 0a9c A00A0000 		.4byte	0xaa0
 2923 0aa0 13       		.uleb128 0x13
 2924 0aa1 850A0000 		.4byte	0xa85
 2925 0aa5 31       		.uleb128 0x31
 2926 0aa6 76070000 		.4byte	.LASF103
 2927 0aaa 04       		.byte	0x4
 2928 0aab 6C       		.byte	0x6c
 2929 0aac B00A0000 		.4byte	0xab0
 2930 0ab0 13       		.uleb128 0x13
 2931 0ab1 450A0000 		.4byte	0xa45
 2932 0ab5 0C       		.uleb128 0xc
 2933 0ab6 6B000000 		.4byte	0x6b
 2934 0aba C50A0000 		.4byte	0xac5
 2935 0abe 0D       		.uleb128 0xd
 2936 0abf C8000000 		.4byte	0xc8
 2937 0ac3 21       		.byte	0x21
 2938 0ac4 00       		.byte	0
 2939 0ac5 31       		.uleb128 0x31
 2940 0ac6 05000000 		.4byte	.LASF104
 2941 0aca 04       		.byte	0x4
 2942 0acb 6F       		.byte	0x6f
 2943 0acc B50A0000 		.4byte	0xab5
 2944 0ad0 31       		.uleb128 0x31
 2945 0ad1 DA020000 		.4byte	.LASF105
 2946 0ad5 04       		.byte	0x4
 2947 0ad6 72       		.byte	0x72
 2948 0ad7 BC000000 		.4byte	0xbc
 2949 0adb 31       		.uleb128 0x31
 2950 0adc 02020000 		.4byte	.LASF106
 2951 0ae0 04       		.byte	0x4
 2952 0ae1 73       		.byte	0x73
 2953 0ae2 E60A0000 		.4byte	0xae6
 2954 0ae6 05       		.uleb128 0x5
 2955 0ae7 000A0000 		.4byte	0xa00
 2956 0aeb 31       		.uleb128 0x31
 2957 0aec 95070000 		.4byte	.LASF107
ARM GAS  C:\Users\chemi\AppData\Local\Temp\cc21dAG8.s 			page 79


 2958 0af0 04       		.byte	0x4
 2959 0af1 74       		.byte	0x74
 2960 0af2 F60A0000 		.4byte	0xaf6
 2961 0af6 05       		.uleb128 0x5
 2962 0af7 000A0000 		.4byte	0xa00
 2963 0afb 31       		.uleb128 0x31
 2964 0afc B8060000 		.4byte	.LASF108
 2965 0b00 04       		.byte	0x4
 2966 0b01 75       		.byte	0x75
 2967 0b02 BC000000 		.4byte	0xbc
 2968 0b06 31       		.uleb128 0x31
 2969 0b07 7A010000 		.4byte	.LASF109
 2970 0b0b 04       		.byte	0x4
 2971 0b0c 76       		.byte	0x76
 2972 0b0d 110B0000 		.4byte	0xb11
 2973 0b11 05       		.uleb128 0x5
 2974 0b12 000A0000 		.4byte	0xa00
 2975 0b16 31       		.uleb128 0x31
 2976 0b17 9C060000 		.4byte	.LASF110
 2977 0b1b 04       		.byte	0x4
 2978 0b1c 77       		.byte	0x77
 2979 0b1d CC040000 		.4byte	0x4cc
 2980 0b21 0C       		.uleb128 0xc
 2981 0b22 310B0000 		.4byte	0xb31
 2982 0b26 310B0000 		.4byte	0xb31
 2983 0b2a 0D       		.uleb128 0xd
 2984 0b2b C8000000 		.4byte	0xc8
 2985 0b2f 08       		.byte	0x8
 2986 0b30 00       		.byte	0
 2987 0b31 05       		.uleb128 0x5
 2988 0b32 44010000 		.4byte	0x144
 2989 0b36 31       		.uleb128 0x31
 2990 0b37 AD010000 		.4byte	.LASF111
 2991 0b3b 04       		.byte	0x4
 2992 0b3c 79       		.byte	0x79
 2993 0b3d 410B0000 		.4byte	0xb41
 2994 0b41 05       		.uleb128 0x5
 2995 0b42 210B0000 		.4byte	0xb21
 2996 0b46 31       		.uleb128 0x31
 2997 0b47 11030000 		.4byte	.LASF112
 2998 0b4b 04       		.byte	0x4
 2999 0b4c 7A       		.byte	0x7a
 3000 0b4d 510B0000 		.4byte	0xb51
 3001 0b51 05       		.uleb128 0x5
 3002 0b52 10020000 		.4byte	0x210
 3003 0b56 32       		.uleb128 0x32
 3004 0b57 BD050000 		.4byte	.LASF113
 3005 0b5b BD050000 		.4byte	.LASF113
 3006 0b5f 05       		.byte	0x5
 3007 0b60 BE       		.byte	0xbe
 3008 0b61 33       		.uleb128 0x33
 3009 0b62 AA050000 		.4byte	.LASF114
 3010 0b66 AA050000 		.4byte	.LASF114
 3011 0b6a 04       		.byte	0x4
 3012 0b6b 7C01     		.2byte	0x17c
 3013 0b6d 32       		.uleb128 0x32
 3014 0b6e FF060000 		.4byte	.LASF115
ARM GAS  C:\Users\chemi\AppData\Local\Temp\cc21dAG8.s 			page 80


 3015 0b72 FF060000 		.4byte	.LASF115
 3016 0b76 04       		.byte	0x4
 3017 0b77 B3       		.byte	0xb3
 3018 0b78 32       		.uleb128 0x32
 3019 0b79 2E070000 		.4byte	.LASF116
 3020 0b7d 2E070000 		.4byte	.LASF116
 3021 0b81 04       		.byte	0x4
 3022 0b82 A9       		.byte	0xa9
 3023 0b83 33       		.uleb128 0x33
 3024 0b84 37000000 		.4byte	.LASF117
 3025 0b88 37000000 		.4byte	.LASF117
 3026 0b8c 04       		.byte	0x4
 3027 0b8d 4F01     		.2byte	0x14f
 3028 0b8f 00       		.byte	0
 3029              		.section	.debug_abbrev,"",%progbits
 3030              	.Ldebug_abbrev0:
 3031 0000 01       		.uleb128 0x1
 3032 0001 11       		.uleb128 0x11
 3033 0002 01       		.byte	0x1
 3034 0003 25       		.uleb128 0x25
 3035 0004 0E       		.uleb128 0xe
 3036 0005 13       		.uleb128 0x13
 3037 0006 0B       		.uleb128 0xb
 3038 0007 03       		.uleb128 0x3
 3039 0008 0E       		.uleb128 0xe
 3040 0009 1B       		.uleb128 0x1b
 3041 000a 0E       		.uleb128 0xe
 3042 000b 55       		.uleb128 0x55
 3043 000c 17       		.uleb128 0x17
 3044 000d 11       		.uleb128 0x11
 3045 000e 01       		.uleb128 0x1
 3046 000f 10       		.uleb128 0x10
 3047 0010 17       		.uleb128 0x17
 3048 0011 00       		.byte	0
 3049 0012 00       		.byte	0
 3050 0013 02       		.uleb128 0x2
 3051 0014 24       		.uleb128 0x24
 3052 0015 00       		.byte	0
 3053 0016 0B       		.uleb128 0xb
 3054 0017 0B       		.uleb128 0xb
 3055 0018 3E       		.uleb128 0x3e
 3056 0019 0B       		.uleb128 0xb
 3057 001a 03       		.uleb128 0x3
 3058 001b 0E       		.uleb128 0xe
 3059 001c 00       		.byte	0
 3060 001d 00       		.byte	0
 3061 001e 03       		.uleb128 0x3
 3062 001f 24       		.uleb128 0x24
 3063 0020 00       		.byte	0
 3064 0021 0B       		.uleb128 0xb
 3065 0022 0B       		.uleb128 0xb
 3066 0023 3E       		.uleb128 0x3e
 3067 0024 0B       		.uleb128 0xb
 3068 0025 03       		.uleb128 0x3
 3069 0026 08       		.uleb128 0x8
 3070 0027 00       		.byte	0
 3071 0028 00       		.byte	0
ARM GAS  C:\Users\chemi\AppData\Local\Temp\cc21dAG8.s 			page 81


 3072 0029 04       		.uleb128 0x4
 3073 002a 16       		.uleb128 0x16
 3074 002b 00       		.byte	0
 3075 002c 03       		.uleb128 0x3
 3076 002d 0E       		.uleb128 0xe
 3077 002e 3A       		.uleb128 0x3a
 3078 002f 0B       		.uleb128 0xb
 3079 0030 3B       		.uleb128 0x3b
 3080 0031 05       		.uleb128 0x5
 3081 0032 49       		.uleb128 0x49
 3082 0033 13       		.uleb128 0x13
 3083 0034 00       		.byte	0
 3084 0035 00       		.byte	0
 3085 0036 05       		.uleb128 0x5
 3086 0037 35       		.uleb128 0x35
 3087 0038 00       		.byte	0
 3088 0039 49       		.uleb128 0x49
 3089 003a 13       		.uleb128 0x13
 3090 003b 00       		.byte	0
 3091 003c 00       		.byte	0
 3092 003d 06       		.uleb128 0x6
 3093 003e 13       		.uleb128 0x13
 3094 003f 01       		.byte	0x1
 3095 0040 0B       		.uleb128 0xb
 3096 0041 0B       		.uleb128 0xb
 3097 0042 3A       		.uleb128 0x3a
 3098 0043 0B       		.uleb128 0xb
 3099 0044 3B       		.uleb128 0x3b
 3100 0045 0B       		.uleb128 0xb
 3101 0046 01       		.uleb128 0x1
 3102 0047 13       		.uleb128 0x13
 3103 0048 00       		.byte	0
 3104 0049 00       		.byte	0
 3105 004a 07       		.uleb128 0x7
 3106 004b 0D       		.uleb128 0xd
 3107 004c 00       		.byte	0
 3108 004d 03       		.uleb128 0x3
 3109 004e 0E       		.uleb128 0xe
 3110 004f 3A       		.uleb128 0x3a
 3111 0050 0B       		.uleb128 0xb
 3112 0051 3B       		.uleb128 0x3b
 3113 0052 0B       		.uleb128 0xb
 3114 0053 49       		.uleb128 0x49
 3115 0054 13       		.uleb128 0x13
 3116 0055 38       		.uleb128 0x38
 3117 0056 0B       		.uleb128 0xb
 3118 0057 00       		.byte	0
 3119 0058 00       		.byte	0
 3120 0059 08       		.uleb128 0x8
 3121 005a 16       		.uleb128 0x16
 3122 005b 00       		.byte	0
 3123 005c 03       		.uleb128 0x3
 3124 005d 0E       		.uleb128 0xe
 3125 005e 3A       		.uleb128 0x3a
 3126 005f 0B       		.uleb128 0xb
 3127 0060 3B       		.uleb128 0x3b
 3128 0061 0B       		.uleb128 0xb
ARM GAS  C:\Users\chemi\AppData\Local\Temp\cc21dAG8.s 			page 82


 3129 0062 49       		.uleb128 0x49
 3130 0063 13       		.uleb128 0x13
 3131 0064 00       		.byte	0
 3132 0065 00       		.byte	0
 3133 0066 09       		.uleb128 0x9
 3134 0067 0F       		.uleb128 0xf
 3135 0068 00       		.byte	0
 3136 0069 0B       		.uleb128 0xb
 3137 006a 0B       		.uleb128 0xb
 3138 006b 49       		.uleb128 0x49
 3139 006c 13       		.uleb128 0x13
 3140 006d 00       		.byte	0
 3141 006e 00       		.byte	0
 3142 006f 0A       		.uleb128 0xa
 3143 0070 0D       		.uleb128 0xd
 3144 0071 00       		.byte	0
 3145 0072 03       		.uleb128 0x3
 3146 0073 08       		.uleb128 0x8
 3147 0074 3A       		.uleb128 0x3a
 3148 0075 0B       		.uleb128 0xb
 3149 0076 3B       		.uleb128 0x3b
 3150 0077 0B       		.uleb128 0xb
 3151 0078 49       		.uleb128 0x49
 3152 0079 13       		.uleb128 0x13
 3153 007a 38       		.uleb128 0x38
 3154 007b 0B       		.uleb128 0xb
 3155 007c 00       		.byte	0
 3156 007d 00       		.byte	0
 3157 007e 0B       		.uleb128 0xb
 3158 007f 26       		.uleb128 0x26
 3159 0080 00       		.byte	0
 3160 0081 00       		.byte	0
 3161 0082 00       		.byte	0
 3162 0083 0C       		.uleb128 0xc
 3163 0084 01       		.uleb128 0x1
 3164 0085 01       		.byte	0x1
 3165 0086 49       		.uleb128 0x49
 3166 0087 13       		.uleb128 0x13
 3167 0088 01       		.uleb128 0x1
 3168 0089 13       		.uleb128 0x13
 3169 008a 00       		.byte	0
 3170 008b 00       		.byte	0
 3171 008c 0D       		.uleb128 0xd
 3172 008d 21       		.uleb128 0x21
 3173 008e 00       		.byte	0
 3174 008f 49       		.uleb128 0x49
 3175 0090 13       		.uleb128 0x13
 3176 0091 2F       		.uleb128 0x2f
 3177 0092 0B       		.uleb128 0xb
 3178 0093 00       		.byte	0
 3179 0094 00       		.byte	0
 3180 0095 0E       		.uleb128 0xe
 3181 0096 13       		.uleb128 0x13
 3182 0097 01       		.byte	0x1
 3183 0098 0B       		.uleb128 0xb
 3184 0099 0B       		.uleb128 0xb
 3185 009a 3A       		.uleb128 0x3a
ARM GAS  C:\Users\chemi\AppData\Local\Temp\cc21dAG8.s 			page 83


 3186 009b 0B       		.uleb128 0xb
 3187 009c 3B       		.uleb128 0x3b
 3188 009d 05       		.uleb128 0x5
 3189 009e 01       		.uleb128 0x1
 3190 009f 13       		.uleb128 0x13
 3191 00a0 00       		.byte	0
 3192 00a1 00       		.byte	0
 3193 00a2 0F       		.uleb128 0xf
 3194 00a3 0D       		.uleb128 0xd
 3195 00a4 00       		.byte	0
 3196 00a5 03       		.uleb128 0x3
 3197 00a6 0E       		.uleb128 0xe
 3198 00a7 3A       		.uleb128 0x3a
 3199 00a8 0B       		.uleb128 0xb
 3200 00a9 3B       		.uleb128 0x3b
 3201 00aa 05       		.uleb128 0x5
 3202 00ab 49       		.uleb128 0x49
 3203 00ac 13       		.uleb128 0x13
 3204 00ad 38       		.uleb128 0x38
 3205 00ae 0B       		.uleb128 0xb
 3206 00af 00       		.byte	0
 3207 00b0 00       		.byte	0
 3208 00b1 10       		.uleb128 0x10
 3209 00b2 2E       		.uleb128 0x2e
 3210 00b3 01       		.byte	0x1
 3211 00b4 3F       		.uleb128 0x3f
 3212 00b5 19       		.uleb128 0x19
 3213 00b6 03       		.uleb128 0x3
 3214 00b7 0E       		.uleb128 0xe
 3215 00b8 3A       		.uleb128 0x3a
 3216 00b9 0B       		.uleb128 0xb
 3217 00ba 3B       		.uleb128 0x3b
 3218 00bb 05       		.uleb128 0x5
 3219 00bc 27       		.uleb128 0x27
 3220 00bd 19       		.uleb128 0x19
 3221 00be 20       		.uleb128 0x20
 3222 00bf 0B       		.uleb128 0xb
 3223 00c0 01       		.uleb128 0x1
 3224 00c1 13       		.uleb128 0x13
 3225 00c2 00       		.byte	0
 3226 00c3 00       		.byte	0
 3227 00c4 11       		.uleb128 0x11
 3228 00c5 34       		.uleb128 0x34
 3229 00c6 00       		.byte	0
 3230 00c7 03       		.uleb128 0x3
 3231 00c8 08       		.uleb128 0x8
 3232 00c9 3A       		.uleb128 0x3a
 3233 00ca 0B       		.uleb128 0xb
 3234 00cb 3B       		.uleb128 0x3b
 3235 00cc 05       		.uleb128 0x5
 3236 00cd 49       		.uleb128 0x49
 3237 00ce 13       		.uleb128 0x13
 3238 00cf 00       		.byte	0
 3239 00d0 00       		.byte	0
 3240 00d1 12       		.uleb128 0x12
 3241 00d2 34       		.uleb128 0x34
 3242 00d3 00       		.byte	0
ARM GAS  C:\Users\chemi\AppData\Local\Temp\cc21dAG8.s 			page 84


 3243 00d4 03       		.uleb128 0x3
 3244 00d5 0E       		.uleb128 0xe
 3245 00d6 3A       		.uleb128 0x3a
 3246 00d7 0B       		.uleb128 0xb
 3247 00d8 3B       		.uleb128 0x3b
 3248 00d9 05       		.uleb128 0x5
 3249 00da 49       		.uleb128 0x49
 3250 00db 13       		.uleb128 0x13
 3251 00dc 00       		.byte	0
 3252 00dd 00       		.byte	0
 3253 00de 13       		.uleb128 0x13
 3254 00df 26       		.uleb128 0x26
 3255 00e0 00       		.byte	0
 3256 00e1 49       		.uleb128 0x49
 3257 00e2 13       		.uleb128 0x13
 3258 00e3 00       		.byte	0
 3259 00e4 00       		.byte	0
 3260 00e5 14       		.uleb128 0x14
 3261 00e6 05       		.uleb128 0x5
 3262 00e7 00       		.byte	0
 3263 00e8 03       		.uleb128 0x3
 3264 00e9 0E       		.uleb128 0xe
 3265 00ea 3A       		.uleb128 0x3a
 3266 00eb 0B       		.uleb128 0xb
 3267 00ec 3B       		.uleb128 0x3b
 3268 00ed 05       		.uleb128 0x5
 3269 00ee 49       		.uleb128 0x49
 3270 00ef 13       		.uleb128 0x13
 3271 00f0 00       		.byte	0
 3272 00f1 00       		.byte	0
 3273 00f2 15       		.uleb128 0x15
 3274 00f3 0B       		.uleb128 0xb
 3275 00f4 01       		.byte	0x1
 3276 00f5 00       		.byte	0
 3277 00f6 00       		.byte	0
 3278 00f7 16       		.uleb128 0x16
 3279 00f8 2E       		.uleb128 0x2e
 3280 00f9 00       		.byte	0
 3281 00fa 3F       		.uleb128 0x3f
 3282 00fb 19       		.uleb128 0x19
 3283 00fc 03       		.uleb128 0x3
 3284 00fd 0E       		.uleb128 0xe
 3285 00fe 3A       		.uleb128 0x3a
 3286 00ff 0B       		.uleb128 0xb
 3287 0100 3B       		.uleb128 0x3b
 3288 0101 05       		.uleb128 0x5
 3289 0102 27       		.uleb128 0x27
 3290 0103 19       		.uleb128 0x19
 3291 0104 49       		.uleb128 0x49
 3292 0105 13       		.uleb128 0x13
 3293 0106 20       		.uleb128 0x20
 3294 0107 0B       		.uleb128 0xb
 3295 0108 00       		.byte	0
 3296 0109 00       		.byte	0
 3297 010a 17       		.uleb128 0x17
 3298 010b 2E       		.uleb128 0x2e
 3299 010c 01       		.byte	0x1
ARM GAS  C:\Users\chemi\AppData\Local\Temp\cc21dAG8.s 			page 85


 3300 010d 3F       		.uleb128 0x3f
 3301 010e 19       		.uleb128 0x19
 3302 010f 03       		.uleb128 0x3
 3303 0110 0E       		.uleb128 0xe
 3304 0111 3A       		.uleb128 0x3a
 3305 0112 0B       		.uleb128 0xb
 3306 0113 3B       		.uleb128 0x3b
 3307 0114 05       		.uleb128 0x5
 3308 0115 27       		.uleb128 0x27
 3309 0116 19       		.uleb128 0x19
 3310 0117 11       		.uleb128 0x11
 3311 0118 01       		.uleb128 0x1
 3312 0119 12       		.uleb128 0x12
 3313 011a 06       		.uleb128 0x6
 3314 011b 40       		.uleb128 0x40
 3315 011c 18       		.uleb128 0x18
 3316 011d 9742     		.uleb128 0x2117
 3317 011f 19       		.uleb128 0x19
 3318 0120 01       		.uleb128 0x1
 3319 0121 13       		.uleb128 0x13
 3320 0122 00       		.byte	0
 3321 0123 00       		.byte	0
 3322 0124 18       		.uleb128 0x18
 3323 0125 05       		.uleb128 0x5
 3324 0126 00       		.byte	0
 3325 0127 03       		.uleb128 0x3
 3326 0128 0E       		.uleb128 0xe
 3327 0129 3A       		.uleb128 0x3a
 3328 012a 0B       		.uleb128 0xb
 3329 012b 3B       		.uleb128 0x3b
 3330 012c 05       		.uleb128 0x5
 3331 012d 49       		.uleb128 0x49
 3332 012e 13       		.uleb128 0x13
 3333 012f 02       		.uleb128 0x2
 3334 0130 17       		.uleb128 0x17
 3335 0131 00       		.byte	0
 3336 0132 00       		.byte	0
 3337 0133 19       		.uleb128 0x19
 3338 0134 34       		.uleb128 0x34
 3339 0135 00       		.byte	0
 3340 0136 03       		.uleb128 0x3
 3341 0137 08       		.uleb128 0x8
 3342 0138 3A       		.uleb128 0x3a
 3343 0139 0B       		.uleb128 0xb
 3344 013a 3B       		.uleb128 0x3b
 3345 013b 05       		.uleb128 0x5
 3346 013c 49       		.uleb128 0x49
 3347 013d 13       		.uleb128 0x13
 3348 013e 02       		.uleb128 0x2
 3349 013f 18       		.uleb128 0x18
 3350 0140 00       		.byte	0
 3351 0141 00       		.byte	0
 3352 0142 1A       		.uleb128 0x1a
 3353 0143 34       		.uleb128 0x34
 3354 0144 00       		.byte	0
 3355 0145 03       		.uleb128 0x3
 3356 0146 08       		.uleb128 0x8
ARM GAS  C:\Users\chemi\AppData\Local\Temp\cc21dAG8.s 			page 86


 3357 0147 3A       		.uleb128 0x3a
 3358 0148 0B       		.uleb128 0xb
 3359 0149 3B       		.uleb128 0x3b
 3360 014a 05       		.uleb128 0x5
 3361 014b 49       		.uleb128 0x49
 3362 014c 13       		.uleb128 0x13
 3363 014d 02       		.uleb128 0x2
 3364 014e 17       		.uleb128 0x17
 3365 014f 00       		.byte	0
 3366 0150 00       		.byte	0
 3367 0151 1B       		.uleb128 0x1b
 3368 0152 34       		.uleb128 0x34
 3369 0153 00       		.byte	0
 3370 0154 03       		.uleb128 0x3
 3371 0155 0E       		.uleb128 0xe
 3372 0156 3A       		.uleb128 0x3a
 3373 0157 0B       		.uleb128 0xb
 3374 0158 3B       		.uleb128 0x3b
 3375 0159 05       		.uleb128 0x5
 3376 015a 49       		.uleb128 0x49
 3377 015b 13       		.uleb128 0x13
 3378 015c 02       		.uleb128 0x2
 3379 015d 18       		.uleb128 0x18
 3380 015e 00       		.byte	0
 3381 015f 00       		.byte	0
 3382 0160 1C       		.uleb128 0x1c
 3383 0161 898201   		.uleb128 0x4109
 3384 0164 01       		.byte	0x1
 3385 0165 11       		.uleb128 0x11
 3386 0166 01       		.uleb128 0x1
 3387 0167 31       		.uleb128 0x31
 3388 0168 13       		.uleb128 0x13
 3389 0169 00       		.byte	0
 3390 016a 00       		.byte	0
 3391 016b 1D       		.uleb128 0x1d
 3392 016c 8A8201   		.uleb128 0x410a
 3393 016f 00       		.byte	0
 3394 0170 02       		.uleb128 0x2
 3395 0171 18       		.uleb128 0x18
 3396 0172 9142     		.uleb128 0x2111
 3397 0174 18       		.uleb128 0x18
 3398 0175 00       		.byte	0
 3399 0176 00       		.byte	0
 3400 0177 1E       		.uleb128 0x1e
 3401 0178 2E       		.uleb128 0x2e
 3402 0179 01       		.byte	0x1
 3403 017a 3F       		.uleb128 0x3f
 3404 017b 19       		.uleb128 0x19
 3405 017c 03       		.uleb128 0x3
 3406 017d 0E       		.uleb128 0xe
 3407 017e 3A       		.uleb128 0x3a
 3408 017f 0B       		.uleb128 0xb
 3409 0180 3B       		.uleb128 0x3b
 3410 0181 05       		.uleb128 0x5
 3411 0182 27       		.uleb128 0x27
 3412 0183 19       		.uleb128 0x19
 3413 0184 49       		.uleb128 0x49
ARM GAS  C:\Users\chemi\AppData\Local\Temp\cc21dAG8.s 			page 87


 3414 0185 13       		.uleb128 0x13
 3415 0186 11       		.uleb128 0x11
 3416 0187 01       		.uleb128 0x1
 3417 0188 12       		.uleb128 0x12
 3418 0189 06       		.uleb128 0x6
 3419 018a 40       		.uleb128 0x40
 3420 018b 18       		.uleb128 0x18
 3421 018c 9742     		.uleb128 0x2117
 3422 018e 19       		.uleb128 0x19
 3423 018f 01       		.uleb128 0x1
 3424 0190 13       		.uleb128 0x13
 3425 0191 00       		.byte	0
 3426 0192 00       		.byte	0
 3427 0193 1F       		.uleb128 0x1f
 3428 0194 34       		.uleb128 0x34
 3429 0195 00       		.byte	0
 3430 0196 03       		.uleb128 0x3
 3431 0197 0E       		.uleb128 0xe
 3432 0198 3A       		.uleb128 0x3a
 3433 0199 0B       		.uleb128 0xb
 3434 019a 3B       		.uleb128 0x3b
 3435 019b 05       		.uleb128 0x5
 3436 019c 49       		.uleb128 0x49
 3437 019d 13       		.uleb128 0x13
 3438 019e 02       		.uleb128 0x2
 3439 019f 17       		.uleb128 0x17
 3440 01a0 00       		.byte	0
 3441 01a1 00       		.byte	0
 3442 01a2 20       		.uleb128 0x20
 3443 01a3 2E       		.uleb128 0x2e
 3444 01a4 01       		.byte	0x1
 3445 01a5 31       		.uleb128 0x31
 3446 01a6 13       		.uleb128 0x13
 3447 01a7 11       		.uleb128 0x11
 3448 01a8 01       		.uleb128 0x1
 3449 01a9 12       		.uleb128 0x12
 3450 01aa 06       		.uleb128 0x6
 3451 01ab 40       		.uleb128 0x40
 3452 01ac 18       		.uleb128 0x18
 3453 01ad 9742     		.uleb128 0x2117
 3454 01af 19       		.uleb128 0x19
 3455 01b0 01       		.uleb128 0x1
 3456 01b1 13       		.uleb128 0x13
 3457 01b2 00       		.byte	0
 3458 01b3 00       		.byte	0
 3459 01b4 21       		.uleb128 0x21
 3460 01b5 34       		.uleb128 0x34
 3461 01b6 00       		.byte	0
 3462 01b7 31       		.uleb128 0x31
 3463 01b8 13       		.uleb128 0x13
 3464 01b9 00       		.byte	0
 3465 01ba 00       		.byte	0
 3466 01bb 22       		.uleb128 0x22
 3467 01bc 0B       		.uleb128 0xb
 3468 01bd 01       		.byte	0x1
 3469 01be 11       		.uleb128 0x11
 3470 01bf 01       		.uleb128 0x1
ARM GAS  C:\Users\chemi\AppData\Local\Temp\cc21dAG8.s 			page 88


 3471 01c0 12       		.uleb128 0x12
 3472 01c1 06       		.uleb128 0x6
 3473 01c2 00       		.byte	0
 3474 01c3 00       		.byte	0
 3475 01c4 23       		.uleb128 0x23
 3476 01c5 34       		.uleb128 0x34
 3477 01c6 00       		.byte	0
 3478 01c7 31       		.uleb128 0x31
 3479 01c8 13       		.uleb128 0x13
 3480 01c9 02       		.uleb128 0x2
 3481 01ca 17       		.uleb128 0x17
 3482 01cb 00       		.byte	0
 3483 01cc 00       		.byte	0
 3484 01cd 24       		.uleb128 0x24
 3485 01ce 898201   		.uleb128 0x4109
 3486 01d1 00       		.byte	0
 3487 01d2 11       		.uleb128 0x11
 3488 01d3 01       		.uleb128 0x1
 3489 01d4 31       		.uleb128 0x31
 3490 01d5 13       		.uleb128 0x13
 3491 01d6 00       		.byte	0
 3492 01d7 00       		.byte	0
 3493 01d8 25       		.uleb128 0x25
 3494 01d9 2E       		.uleb128 0x2e
 3495 01da 00       		.byte	0
 3496 01db 31       		.uleb128 0x31
 3497 01dc 13       		.uleb128 0x13
 3498 01dd 11       		.uleb128 0x11
 3499 01de 01       		.uleb128 0x1
 3500 01df 12       		.uleb128 0x12
 3501 01e0 06       		.uleb128 0x6
 3502 01e1 40       		.uleb128 0x40
 3503 01e2 18       		.uleb128 0x18
 3504 01e3 9742     		.uleb128 0x2117
 3505 01e5 19       		.uleb128 0x19
 3506 01e6 00       		.byte	0
 3507 01e7 00       		.byte	0
 3508 01e8 26       		.uleb128 0x26
 3509 01e9 05       		.uleb128 0x5
 3510 01ea 00       		.byte	0
 3511 01eb 31       		.uleb128 0x31
 3512 01ec 13       		.uleb128 0x13
 3513 01ed 02       		.uleb128 0x2
 3514 01ee 17       		.uleb128 0x17
 3515 01ef 00       		.byte	0
 3516 01f0 00       		.byte	0
 3517 01f1 27       		.uleb128 0x27
 3518 01f2 34       		.uleb128 0x34
 3519 01f3 00       		.byte	0
 3520 01f4 31       		.uleb128 0x31
 3521 01f5 13       		.uleb128 0x13
 3522 01f6 1C       		.uleb128 0x1c
 3523 01f7 0B       		.uleb128 0xb
 3524 01f8 00       		.byte	0
 3525 01f9 00       		.byte	0
 3526 01fa 28       		.uleb128 0x28
 3527 01fb 0B       		.uleb128 0xb
ARM GAS  C:\Users\chemi\AppData\Local\Temp\cc21dAG8.s 			page 89


 3528 01fc 01       		.byte	0x1
 3529 01fd 55       		.uleb128 0x55
 3530 01fe 17       		.uleb128 0x17
 3531 01ff 00       		.byte	0
 3532 0200 00       		.byte	0
 3533 0201 29       		.uleb128 0x29
 3534 0202 898201   		.uleb128 0x4109
 3535 0205 01       		.byte	0x1
 3536 0206 11       		.uleb128 0x11
 3537 0207 01       		.uleb128 0x1
 3538 0208 31       		.uleb128 0x31
 3539 0209 13       		.uleb128 0x13
 3540 020a 01       		.uleb128 0x1
 3541 020b 13       		.uleb128 0x13
 3542 020c 00       		.byte	0
 3543 020d 00       		.byte	0
 3544 020e 2A       		.uleb128 0x2a
 3545 020f 898201   		.uleb128 0x4109
 3546 0212 00       		.byte	0
 3547 0213 11       		.uleb128 0x11
 3548 0214 01       		.uleb128 0x1
 3549 0215 9542     		.uleb128 0x2115
 3550 0217 19       		.uleb128 0x19
 3551 0218 31       		.uleb128 0x31
 3552 0219 13       		.uleb128 0x13
 3553 021a 00       		.byte	0
 3554 021b 00       		.byte	0
 3555 021c 2B       		.uleb128 0x2b
 3556 021d 34       		.uleb128 0x34
 3557 021e 00       		.byte	0
 3558 021f 03       		.uleb128 0x3
 3559 0220 0E       		.uleb128 0xe
 3560 0221 3A       		.uleb128 0x3a
 3561 0222 0B       		.uleb128 0xb
 3562 0223 3B       		.uleb128 0x3b
 3563 0224 05       		.uleb128 0x5
 3564 0225 49       		.uleb128 0x49
 3565 0226 13       		.uleb128 0x13
 3566 0227 1C       		.uleb128 0x1c
 3567 0228 0B       		.uleb128 0xb
 3568 0229 00       		.byte	0
 3569 022a 00       		.byte	0
 3570 022b 2C       		.uleb128 0x2c
 3571 022c 2E       		.uleb128 0x2e
 3572 022d 01       		.byte	0x1
 3573 022e 3F       		.uleb128 0x3f
 3574 022f 19       		.uleb128 0x19
 3575 0230 03       		.uleb128 0x3
 3576 0231 0E       		.uleb128 0xe
 3577 0232 3A       		.uleb128 0x3a
 3578 0233 0B       		.uleb128 0xb
 3579 0234 3B       		.uleb128 0x3b
 3580 0235 0B       		.uleb128 0xb
 3581 0236 27       		.uleb128 0x27
 3582 0237 19       		.uleb128 0x19
 3583 0238 49       		.uleb128 0x49
 3584 0239 13       		.uleb128 0x13
ARM GAS  C:\Users\chemi\AppData\Local\Temp\cc21dAG8.s 			page 90


 3585 023a 11       		.uleb128 0x11
 3586 023b 01       		.uleb128 0x1
 3587 023c 12       		.uleb128 0x12
 3588 023d 06       		.uleb128 0x6
 3589 023e 40       		.uleb128 0x40
 3590 023f 18       		.uleb128 0x18
 3591 0240 9742     		.uleb128 0x2117
 3592 0242 19       		.uleb128 0x19
 3593 0243 01       		.uleb128 0x1
 3594 0244 13       		.uleb128 0x13
 3595 0245 00       		.byte	0
 3596 0246 00       		.byte	0
 3597 0247 2D       		.uleb128 0x2d
 3598 0248 34       		.uleb128 0x34
 3599 0249 00       		.byte	0
 3600 024a 03       		.uleb128 0x3
 3601 024b 0E       		.uleb128 0xe
 3602 024c 3A       		.uleb128 0x3a
 3603 024d 0B       		.uleb128 0xb
 3604 024e 3B       		.uleb128 0x3b
 3605 024f 0B       		.uleb128 0xb
 3606 0250 49       		.uleb128 0x49
 3607 0251 13       		.uleb128 0x13
 3608 0252 02       		.uleb128 0x2
 3609 0253 17       		.uleb128 0x17
 3610 0254 00       		.byte	0
 3611 0255 00       		.byte	0
 3612 0256 2E       		.uleb128 0x2e
 3613 0257 34       		.uleb128 0x34
 3614 0258 00       		.byte	0
 3615 0259 03       		.uleb128 0x3
 3616 025a 0E       		.uleb128 0xe
 3617 025b 3A       		.uleb128 0x3a
 3618 025c 0B       		.uleb128 0xb
 3619 025d 3B       		.uleb128 0x3b
 3620 025e 0B       		.uleb128 0xb
 3621 025f 49       		.uleb128 0x49
 3622 0260 13       		.uleb128 0x13
 3623 0261 02       		.uleb128 0x2
 3624 0262 18       		.uleb128 0x18
 3625 0263 00       		.byte	0
 3626 0264 00       		.byte	0
 3627 0265 2F       		.uleb128 0x2f
 3628 0266 1D       		.uleb128 0x1d
 3629 0267 00       		.byte	0
 3630 0268 31       		.uleb128 0x31
 3631 0269 13       		.uleb128 0x13
 3632 026a 11       		.uleb128 0x11
 3633 026b 01       		.uleb128 0x1
 3634 026c 12       		.uleb128 0x12
 3635 026d 06       		.uleb128 0x6
 3636 026e 58       		.uleb128 0x58
 3637 026f 0B       		.uleb128 0xb
 3638 0270 59       		.uleb128 0x59
 3639 0271 0B       		.uleb128 0xb
 3640 0272 00       		.byte	0
 3641 0273 00       		.byte	0
ARM GAS  C:\Users\chemi\AppData\Local\Temp\cc21dAG8.s 			page 91


 3642 0274 30       		.uleb128 0x30
 3643 0275 34       		.uleb128 0x34
 3644 0276 00       		.byte	0
 3645 0277 03       		.uleb128 0x3
 3646 0278 0E       		.uleb128 0xe
 3647 0279 3A       		.uleb128 0x3a
 3648 027a 0B       		.uleb128 0xb
 3649 027b 3B       		.uleb128 0x3b
 3650 027c 05       		.uleb128 0x5
 3651 027d 49       		.uleb128 0x49
 3652 027e 13       		.uleb128 0x13
 3653 027f 3F       		.uleb128 0x3f
 3654 0280 19       		.uleb128 0x19
 3655 0281 3C       		.uleb128 0x3c
 3656 0282 19       		.uleb128 0x19
 3657 0283 00       		.byte	0
 3658 0284 00       		.byte	0
 3659 0285 31       		.uleb128 0x31
 3660 0286 34       		.uleb128 0x34
 3661 0287 00       		.byte	0
 3662 0288 03       		.uleb128 0x3
 3663 0289 0E       		.uleb128 0xe
 3664 028a 3A       		.uleb128 0x3a
 3665 028b 0B       		.uleb128 0xb
 3666 028c 3B       		.uleb128 0x3b
 3667 028d 0B       		.uleb128 0xb
 3668 028e 49       		.uleb128 0x49
 3669 028f 13       		.uleb128 0x13
 3670 0290 3F       		.uleb128 0x3f
 3671 0291 19       		.uleb128 0x19
 3672 0292 3C       		.uleb128 0x3c
 3673 0293 19       		.uleb128 0x19
 3674 0294 00       		.byte	0
 3675 0295 00       		.byte	0
 3676 0296 32       		.uleb128 0x32
 3677 0297 2E       		.uleb128 0x2e
 3678 0298 00       		.byte	0
 3679 0299 3F       		.uleb128 0x3f
 3680 029a 19       		.uleb128 0x19
 3681 029b 3C       		.uleb128 0x3c
 3682 029c 19       		.uleb128 0x19
 3683 029d 6E       		.uleb128 0x6e
 3684 029e 0E       		.uleb128 0xe
 3685 029f 03       		.uleb128 0x3
 3686 02a0 0E       		.uleb128 0xe
 3687 02a1 3A       		.uleb128 0x3a
 3688 02a2 0B       		.uleb128 0xb
 3689 02a3 3B       		.uleb128 0x3b
 3690 02a4 0B       		.uleb128 0xb
 3691 02a5 00       		.byte	0
 3692 02a6 00       		.byte	0
 3693 02a7 33       		.uleb128 0x33
 3694 02a8 2E       		.uleb128 0x2e
 3695 02a9 00       		.byte	0
 3696 02aa 3F       		.uleb128 0x3f
 3697 02ab 19       		.uleb128 0x19
 3698 02ac 3C       		.uleb128 0x3c
ARM GAS  C:\Users\chemi\AppData\Local\Temp\cc21dAG8.s 			page 92


 3699 02ad 19       		.uleb128 0x19
 3700 02ae 6E       		.uleb128 0x6e
 3701 02af 0E       		.uleb128 0xe
 3702 02b0 03       		.uleb128 0x3
 3703 02b1 0E       		.uleb128 0xe
 3704 02b2 3A       		.uleb128 0x3a
 3705 02b3 0B       		.uleb128 0xb
 3706 02b4 3B       		.uleb128 0x3b
 3707 02b5 05       		.uleb128 0x5
 3708 02b6 00       		.byte	0
 3709 02b7 00       		.byte	0
 3710 02b8 00       		.byte	0
 3711              		.section	.debug_loc,"",%progbits
 3712              	.Ldebug_loc0:
 3713              	.LLST0:
 3714 0000 00000000 		.4byte	.LVL0
 3715 0004 0E000000 		.4byte	.LVL1
 3716 0008 0100     		.2byte	0x1
 3717 000a 50       		.byte	0x50
 3718 000b 0E000000 		.4byte	.LVL1
 3719 000f 3A000000 		.4byte	.LVL4
 3720 0013 0100     		.2byte	0x1
 3721 0015 54       		.byte	0x54
 3722 0016 3A000000 		.4byte	.LVL4
 3723 001a 6C000000 		.4byte	.LFE1
 3724 001e 0400     		.2byte	0x4
 3725 0020 F3       		.byte	0xf3
 3726 0021 01       		.uleb128 0x1
 3727 0022 50       		.byte	0x50
 3728 0023 9F       		.byte	0x9f
 3729 0024 00000000 		.4byte	0
 3730 0028 00000000 		.4byte	0
 3731              	.LLST1:
 3732 002c 34000000 		.4byte	.LVL3
 3733 0030 3A000000 		.4byte	.LVL4
 3734 0034 0200     		.2byte	0x2
 3735 0036 32       		.byte	0x32
 3736 0037 9F       		.byte	0x9f
 3737 0038 3A000000 		.4byte	.LVL4
 3738 003c 5E000000 		.4byte	.LVL6
 3739 0040 0900     		.2byte	0x9
 3740 0042 70       		.byte	0x70
 3741 0043 00       		.sleb128 0
 3742 0044 F3       		.byte	0xf3
 3743 0045 01       		.uleb128 0x1
 3744 0046 50       		.byte	0x50
 3745 0047 1C       		.byte	0x1c
 3746 0048 23       		.byte	0x23
 3747 0049 02       		.uleb128 0x2
 3748 004a 9F       		.byte	0x9f
 3749 004b 5E000000 		.4byte	.LVL6
 3750 004f 62000000 		.4byte	.LVL7
 3751 0053 0900     		.2byte	0x9
 3752 0055 70       		.byte	0x70
 3753 0056 00       		.sleb128 0
 3754 0057 F3       		.byte	0xf3
 3755 0058 01       		.uleb128 0x1
ARM GAS  C:\Users\chemi\AppData\Local\Temp\cc21dAG8.s 			page 93


 3756 0059 50       		.byte	0x50
 3757 005a 1C       		.byte	0x1c
 3758 005b 23       		.byte	0x23
 3759 005c 06       		.uleb128 0x6
 3760 005d 9F       		.byte	0x9f
 3761 005e 00000000 		.4byte	0
 3762 0062 00000000 		.4byte	0
 3763              	.LLST2:
 3764 0066 22000000 		.4byte	.LVL2
 3765 006a 3A000000 		.4byte	.LVL4
 3766 006e 0200     		.2byte	0x2
 3767 0070 30       		.byte	0x30
 3768 0071 9F       		.byte	0x9f
 3769 0072 3A000000 		.4byte	.LVL4
 3770 0076 56000000 		.4byte	.LVL5
 3771 007a 0100     		.2byte	0x1
 3772 007c 52       		.byte	0x52
 3773 007d 00000000 		.4byte	0
 3774 0081 00000000 		.4byte	0
 3775              	.LLST3:
 3776 0085 00000000 		.4byte	.LVL8
 3777 0089 12000000 		.4byte	.LVL9
 3778 008d 0200     		.2byte	0x2
 3779 008f 31       		.byte	0x31
 3780 0090 9F       		.byte	0x9f
 3781 0091 12000000 		.4byte	.LVL9
 3782 0095 46000000 		.4byte	.LVL10
 3783 0099 0100     		.2byte	0x1
 3784 009b 52       		.byte	0x52
 3785 009c 00000000 		.4byte	0
 3786 00a0 00000000 		.4byte	0
 3787              	.LLST4:
 3788 00a4 00000000 		.4byte	.LVL11
 3789 00a8 0C000000 		.4byte	.LVL12
 3790 00ac 0200     		.2byte	0x2
 3791 00ae 31       		.byte	0x31
 3792 00af 9F       		.byte	0x9f
 3793 00b0 0C000000 		.4byte	.LVL12
 3794 00b4 14000000 		.4byte	.LVL13
 3795 00b8 0100     		.2byte	0x1
 3796 00ba 53       		.byte	0x53
 3797 00bb 00000000 		.4byte	0
 3798 00bf 00000000 		.4byte	0
 3799              	.LLST5:
 3800 00c3 00000000 		.4byte	.LVL14
 3801 00c7 18000000 		.4byte	.LVL17
 3802 00cb 0100     		.2byte	0x1
 3803 00cd 50       		.byte	0x50
 3804 00ce 18000000 		.4byte	.LVL17
 3805 00d2 24000000 		.4byte	.LFE6
 3806 00d6 0400     		.2byte	0x4
 3807 00d8 F3       		.byte	0xf3
 3808 00d9 01       		.uleb128 0x1
 3809 00da 50       		.byte	0x50
 3810 00db 9F       		.byte	0x9f
 3811 00dc 00000000 		.4byte	0
 3812 00e0 00000000 		.4byte	0
ARM GAS  C:\Users\chemi\AppData\Local\Temp\cc21dAG8.s 			page 94


 3813              	.LLST6:
 3814 00e4 0C000000 		.4byte	.LVL15
 3815 00e8 16000000 		.4byte	.LVL16
 3816 00ec 0300     		.2byte	0x3
 3817 00ee 73       		.byte	0x73
 3818 00ef 10       		.sleb128 16
 3819 00f0 9F       		.byte	0x9f
 3820 00f1 18000000 		.4byte	.LVL17
 3821 00f5 24000000 		.4byte	.LFE6
 3822 00f9 0100     		.2byte	0x1
 3823 00fb 50       		.byte	0x50
 3824 00fc 00000000 		.4byte	0
 3825 0100 00000000 		.4byte	0
 3826              	.LLST7:
 3827 0104 18000000 		.4byte	.LVL19
 3828 0108 22000000 		.4byte	.LVL21
 3829 010c 0200     		.2byte	0x2
 3830 010e 70       		.byte	0x70
 3831 010f 08       		.sleb128 8
 3832 0110 22000000 		.4byte	.LVL21
 3833 0114 2C000000 		.4byte	.LVL23
 3834 0118 0100     		.2byte	0x1
 3835 011a 50       		.byte	0x50
 3836 011b 00000000 		.4byte	0
 3837 011f 00000000 		.4byte	0
 3838              	.LLST8:
 3839 0123 52000000 		.4byte	.LVL25
 3840 0127 B8000000 		.4byte	.LVL30
 3841 012b 0100     		.2byte	0x1
 3842 012d 52       		.byte	0x52
 3843 012e 00000000 		.4byte	0
 3844 0132 00000000 		.4byte	0
 3845              	.LLST9:
 3846 0136 64000000 		.4byte	.LVL26
 3847 013a 8C000000 		.4byte	.LVL27
 3848 013e 0100     		.2byte	0x1
 3849 0140 59       		.byte	0x59
 3850 0141 9A000000 		.4byte	.LVL28
 3851 0145 A4000000 		.4byte	.LVL29
 3852 0149 0100     		.2byte	0x1
 3853 014b 59       		.byte	0x59
 3854 014c 00000000 		.4byte	0
 3855 0150 00000000 		.4byte	0
 3856              	.LLST10:
 3857 0154 28000000 		.4byte	.LVL22
 3858 0158 34000000 		.4byte	.LVL24
 3859 015c 0200     		.2byte	0x2
 3860 015e 30       		.byte	0x30
 3861 015f 9F       		.byte	0x9f
 3862 0160 00000000 		.4byte	0
 3863 0164 00000000 		.4byte	0
 3864              	.LLST11:
 3865 0168 28000000 		.4byte	.LVL22
 3866 016c 0A010000 		.4byte	.LVL32
 3867 0170 0100     		.2byte	0x1
 3868 0172 54       		.byte	0x54
 3869 0173 00000000 		.4byte	0
ARM GAS  C:\Users\chemi\AppData\Local\Temp\cc21dAG8.s 			page 95


 3870 0177 00000000 		.4byte	0
 3871              	.LLST12:
 3872 017b 18000000 		.4byte	.LVL19
 3873 017f 22000000 		.4byte	.LVL21
 3874 0183 0300     		.2byte	0x3
 3875 0185 70       		.byte	0x70
 3876 0186 08       		.sleb128 8
 3877 0187 9F       		.byte	0x9f
 3878 0188 00000000 		.4byte	0
 3879 018c 00000000 		.4byte	0
 3880              	.LLST13:
 3881 0190 1E000000 		.4byte	.LVL20
 3882 0194 0A010000 		.4byte	.LVL32
 3883 0198 0100     		.2byte	0x1
 3884 019a 53       		.byte	0x53
 3885 019b 00000000 		.4byte	0
 3886 019f 00000000 		.4byte	0
 3887              	.LLST14:
 3888 01a3 0E000000 		.4byte	.LVL33
 3889 01a7 14000000 		.4byte	.LVL35
 3890 01ab 0100     		.2byte	0x1
 3891 01ad 50       		.byte	0x50
 3892 01ae 14000000 		.4byte	.LVL35
 3893 01b2 18000000 		.4byte	.LVL36
 3894 01b6 0800     		.2byte	0x8
 3895 01b8 73       		.byte	0x73
 3896 01b9 02       		.sleb128 2
 3897 01ba 33       		.byte	0x33
 3898 01bb 24       		.byte	0x24
 3899 01bc 70       		.byte	0x70
 3900 01bd 00       		.sleb128 0
 3901 01be 22       		.byte	0x22
 3902 01bf 9F       		.byte	0x9f
 3903 01c0 00000000 		.4byte	0
 3904 01c4 00000000 		.4byte	0
 3905              	.LLST15:
 3906 01c8 10000000 		.4byte	.LVL34
 3907 01cc 18000000 		.4byte	.LVL36
 3908 01d0 0500     		.2byte	0x5
 3909 01d2 70       		.byte	0x70
 3910 01d3 04       		.sleb128 4
 3911 01d4 06       		.byte	0x6
 3912 01d5 23       		.byte	0x23
 3913 01d6 04       		.uleb128 0x4
 3914 01d7 18000000 		.4byte	.LVL36
 3915 01db 1A000000 		.4byte	.LVL37
 3916 01df 0100     		.2byte	0x1
 3917 01e1 53       		.byte	0x53
 3918 01e2 00000000 		.4byte	0
 3919 01e6 00000000 		.4byte	0
 3920              	.LLST16:
 3921 01ea 00000000 		.4byte	.LVL38
 3922 01ee 48000000 		.4byte	.LVL45
 3923 01f2 0100     		.2byte	0x1
 3924 01f4 50       		.byte	0x50
 3925 01f5 48000000 		.4byte	.LVL45
 3926 01f9 56010000 		.4byte	.LVL74
ARM GAS  C:\Users\chemi\AppData\Local\Temp\cc21dAG8.s 			page 96


 3927 01fd 0400     		.2byte	0x4
 3928 01ff F3       		.byte	0xf3
 3929 0200 01       		.uleb128 0x1
 3930 0201 50       		.byte	0x50
 3931 0202 9F       		.byte	0x9f
 3932 0203 56010000 		.4byte	.LVL74
 3933 0207 74010000 		.4byte	.LFE4
 3934 020b 0100     		.2byte	0x1
 3935 020d 50       		.byte	0x50
 3936 020e 00000000 		.4byte	0
 3937 0212 00000000 		.4byte	0
 3938              	.LLST17:
 3939 0216 00000000 		.4byte	.LVL38
 3940 021a 0C000000 		.4byte	.LVL39
 3941 021e 0200     		.2byte	0x2
 3942 0220 30       		.byte	0x30
 3943 0221 9F       		.byte	0x9f
 3944 0222 0C000000 		.4byte	.LVL39
 3945 0226 12000000 		.4byte	.LVL40
 3946 022a 0100     		.2byte	0x1
 3947 022c 51       		.byte	0x51
 3948 022d 00000000 		.4byte	0
 3949 0231 00000000 		.4byte	0
 3950              	.LLST18:
 3951 0235 30000000 		.4byte	.LVL41
 3952 0239 38000000 		.4byte	.LVL42
 3953 023d 0200     		.2byte	0x2
 3954 023f 30       		.byte	0x30
 3955 0240 9F       		.byte	0x9f
 3956 0241 38000000 		.4byte	.LVL42
 3957 0245 3C000000 		.4byte	.LVL43
 3958 0249 0200     		.2byte	0x2
 3959 024b 31       		.byte	0x31
 3960 024c 9F       		.byte	0x9f
 3961 024d 00000000 		.4byte	0
 3962 0251 00000000 		.4byte	0
 3963              	.LLST19:
 3964 0255 46000000 		.4byte	.LVL44
 3965 0259 48000000 		.4byte	.LVL45
 3966 025d 0100     		.2byte	0x1
 3967 025f 50       		.byte	0x50
 3968 0260 00000000 		.4byte	0
 3969 0264 00000000 		.4byte	0
 3970              	.LLST20:
 3971 0268 36010000 		.4byte	.LVL68
 3972 026c 3A010000 		.4byte	.LVL69
 3973 0270 0200     		.2byte	0x2
 3974 0272 31       		.byte	0x31
 3975 0273 9F       		.byte	0x9f
 3976 0274 3A010000 		.4byte	.LVL69
 3977 0278 44010000 		.4byte	.LVL70
 3978 027c 0100     		.2byte	0x1
 3979 027e 52       		.byte	0x52
 3980 027f 00000000 		.4byte	0
 3981 0283 00000000 		.4byte	0
 3982              	.LLST21:
 3983 0287 82000000 		.4byte	.LVL49
ARM GAS  C:\Users\chemi\AppData\Local\Temp\cc21dAG8.s 			page 97


 3984 028b 86000000 		.4byte	.LVL50
 3985 028f 0200     		.2byte	0x2
 3986 0291 30       		.byte	0x30
 3987 0292 9F       		.byte	0x9f
 3988 0293 00000000 		.4byte	0
 3989 0297 00000000 		.4byte	0
 3990              	.LLST22:
 3991 029b 82000000 		.4byte	.LVL49
 3992 029f 86000000 		.4byte	.LVL50
 3993 02a3 0100     		.2byte	0x1
 3994 02a5 53       		.byte	0x53
 3995 02a6 86000000 		.4byte	.LVL50
 3996 02aa 00010000 		.4byte	.LVL60
 3997 02ae 0100     		.2byte	0x1
 3998 02b0 57       		.byte	0x57
 3999 02b1 00010000 		.4byte	.LVL60
 4000 02b5 02010000 		.4byte	.LVL61
 4001 02b9 0300     		.2byte	0x3
 4002 02bb 77       		.byte	0x77
 4003 02bc 01       		.sleb128 1
 4004 02bd 9F       		.byte	0x9f
 4005 02be 0A010000 		.4byte	.LVL62
 4006 02c2 12010000 		.4byte	.LVL63
 4007 02c6 0200     		.2byte	0x2
 4008 02c8 30       		.byte	0x30
 4009 02c9 9F       		.byte	0x9f
 4010 02ca 00000000 		.4byte	0
 4011 02ce 00000000 		.4byte	0
 4012              	.LLST23:
 4013 02d2 C4000000 		.4byte	.LVL51
 4014 02d6 CC000000 		.4byte	.LVL52
 4015 02da 0100     		.2byte	0x1
 4016 02dc 51       		.byte	0x51
 4017 02dd CC000000 		.4byte	.LVL52
 4018 02e1 D0000000 		.4byte	.LVL53
 4019 02e5 0700     		.2byte	0x7
 4020 02e7 74       		.byte	0x74
 4021 02e8 03       		.sleb128 3
 4022 02e9 94       		.byte	0x94
 4023 02ea 01       		.byte	0x1
 4024 02eb 33       		.byte	0x33
 4025 02ec 1A       		.byte	0x1a
 4026 02ed 9F       		.byte	0x9f
 4027 02ee D4000000 		.4byte	.LVL54
 4028 02f2 DA000000 		.4byte	.LVL55
 4029 02f6 0100     		.2byte	0x1
 4030 02f8 51       		.byte	0x51
 4031 02f9 DA000000 		.4byte	.LVL55
 4032 02fd DE000000 		.4byte	.LVL56
 4033 0301 0700     		.2byte	0x7
 4034 0303 74       		.byte	0x74
 4035 0304 03       		.sleb128 3
 4036 0305 94       		.byte	0x94
 4037 0306 01       		.byte	0x1
 4038 0307 33       		.byte	0x33
 4039 0308 1A       		.byte	0x1a
 4040 0309 9F       		.byte	0x9f
ARM GAS  C:\Users\chemi\AppData\Local\Temp\cc21dAG8.s 			page 98


 4041 030a 00000000 		.4byte	0
 4042 030e 00000000 		.4byte	0
 4043              	.LLST24:
 4044 0312 54000000 		.4byte	.LVL47
 4045 0316 78000000 		.4byte	.LVL48
 4046 031a 0200     		.2byte	0x2
 4047 031c 70       		.byte	0x70
 4048 031d 04       		.sleb128 4
 4049 031e 00000000 		.4byte	0
 4050 0322 00000000 		.4byte	0
 4051              	.LLST25:
 4052 0326 36010000 		.4byte	.LVL68
 4053 032a 3A010000 		.4byte	.LVL69
 4054 032e 0200     		.2byte	0x2
 4055 0330 30       		.byte	0x30
 4056 0331 9F       		.byte	0x9f
 4057 0332 3A010000 		.4byte	.LVL69
 4058 0336 46010000 		.4byte	.LVL71
 4059 033a 0100     		.2byte	0x1
 4060 033c 53       		.byte	0x53
 4061 033d 46010000 		.4byte	.LVL71
 4062 0341 4A010000 		.4byte	.LVL72
 4063 0345 0A00     		.2byte	0xa
 4064 0347 72       		.byte	0x72
 4065 0348 7F       		.sleb128 -1
 4066 0349 70       		.byte	0x70
 4067 034a 00       		.sleb128 0
 4068 034b 1E       		.byte	0x1e
 4069 034c 79       		.byte	0x79
 4070 034d 00       		.sleb128 0
 4071 034e 22       		.byte	0x22
 4072 034f 23       		.byte	0x23
 4073 0350 06       		.uleb128 0x6
 4074 0351 4A010000 		.4byte	.LVL72
 4075 0355 55010000 		.4byte	.LVL74-1
 4076 0359 0100     		.2byte	0x1
 4077 035b 53       		.byte	0x53
 4078 035c 00000000 		.4byte	0
 4079 0360 00000000 		.4byte	0
 4080              	.LLST26:
 4081 0364 54000000 		.4byte	.LVL47
 4082 0368 78000000 		.4byte	.LVL48
 4083 036c 0100     		.2byte	0x1
 4084 036e 50       		.byte	0x50
 4085 036f 78000000 		.4byte	.LVL48
 4086 0373 52010000 		.4byte	.LVL73
 4087 0377 0300     		.2byte	0x3
 4088 0379 78       		.byte	0x78
 4089 037a 08       		.sleb128 8
 4090 037b 9F       		.byte	0x9f
 4091 037c 00000000 		.4byte	0
 4092 0380 00000000 		.4byte	0
 4093              	.LLST27:
 4094 0384 82000000 		.4byte	.LVL49
 4095 0388 0A010000 		.4byte	.LVL62
 4096 038c 0100     		.2byte	0x1
 4097 038e 54       		.byte	0x54
ARM GAS  C:\Users\chemi\AppData\Local\Temp\cc21dAG8.s 			page 99


 4098 038f 0A010000 		.4byte	.LVL62
 4099 0393 12010000 		.4byte	.LVL63
 4100 0397 0100     		.2byte	0x1
 4101 0399 52       		.byte	0x52
 4102 039a 12010000 		.4byte	.LVL63
 4103 039e 14010000 		.4byte	.LVL64
 4104 03a2 0300     		.2byte	0x3
 4105 03a4 73       		.byte	0x73
 4106 03a5 7E       		.sleb128 -2
 4107 03a6 9F       		.byte	0x9f
 4108 03a7 14010000 		.4byte	.LVL64
 4109 03ab 2A010000 		.4byte	.LVL65
 4110 03af 0300     		.2byte	0x3
 4111 03b1 73       		.byte	0x73
 4112 03b2 76       		.sleb128 -10
 4113 03b3 9F       		.byte	0x9f
 4114 03b4 2A010000 		.4byte	.LVL65
 4115 03b8 2C010000 		.4byte	.LVL66
 4116 03bc 0300     		.2byte	0x3
 4117 03be 73       		.byte	0x73
 4118 03bf 7E       		.sleb128 -2
 4119 03c0 9F       		.byte	0x9f
 4120 03c1 2C010000 		.4byte	.LVL66
 4121 03c5 2F010000 		.4byte	.LVL67-1
 4122 03c9 0300     		.2byte	0x3
 4123 03cb 73       		.byte	0x73
 4124 03cc 76       		.sleb128 -10
 4125 03cd 9F       		.byte	0x9f
 4126 03ce 00000000 		.4byte	0
 4127 03d2 00000000 		.4byte	0
 4128              	.LLST28:
 4129 03d6 46000000 		.4byte	.LVL44
 4130 03da 78000000 		.4byte	.LVL48
 4131 03de 0200     		.2byte	0x2
 4132 03e0 30       		.byte	0x30
 4133 03e1 9F       		.byte	0x9f
 4134 03e2 82000000 		.4byte	.LVL49
 4135 03e6 F7000000 		.4byte	.LVL57-1
 4136 03ea 0100     		.2byte	0x1
 4137 03ec 5C       		.byte	0x5c
 4138 03ed FC000000 		.4byte	.LVL58
 4139 03f1 2F010000 		.4byte	.LVL67-1
 4140 03f5 0100     		.2byte	0x1
 4141 03f7 5C       		.byte	0x5c
 4142 03f8 00000000 		.4byte	0
 4143 03fc 00000000 		.4byte	0
 4144              	.LLST29:
 4145 0400 00000000 		.4byte	.LVL75
 4146 0404 04000000 		.4byte	.LVL76
 4147 0408 0100     		.2byte	0x1
 4148 040a 50       		.byte	0x50
 4149 040b 04000000 		.4byte	.LVL76
 4150 040f 16000000 		.4byte	.LVL77
 4151 0413 0100     		.2byte	0x1
 4152 0415 50       		.byte	0x50
 4153 0416 00000000 		.4byte	0
 4154 041a 00000000 		.4byte	0
ARM GAS  C:\Users\chemi\AppData\Local\Temp\cc21dAG8.s 			page 100


 4155              	.LLST30:
 4156 041e 08000000 		.4byte	.LVL79
 4157 0422 1A000000 		.4byte	.LVL80
 4158 0426 0100     		.2byte	0x1
 4159 0428 53       		.byte	0x53
 4160 0429 42000000 		.4byte	.LVL81
 4161 042d 54000000 		.4byte	.LFE10
 4162 0431 0100     		.2byte	0x1
 4163 0433 53       		.byte	0x53
 4164 0434 00000000 		.4byte	0
 4165 0438 00000000 		.4byte	0
 4166              	.LLST31:
 4167 043c 0A000000 		.4byte	.LVL83
 4168 0440 2A000000 		.4byte	.LVL84
 4169 0444 0100     		.2byte	0x1
 4170 0446 52       		.byte	0x52
 4171 0447 60000000 		.4byte	.LVL85
 4172 044b 74000000 		.4byte	.LFE11
 4173 044f 0100     		.2byte	0x1
 4174 0451 52       		.byte	0x52
 4175 0452 00000000 		.4byte	0
 4176 0456 00000000 		.4byte	0
 4177              	.LLST32:
 4178 045a 00000000 		.4byte	.LVL86
 4179 045e 32000000 		.4byte	.LVL91
 4180 0462 0200     		.2byte	0x2
 4181 0464 30       		.byte	0x30
 4182 0465 9F       		.byte	0x9f
 4183 0466 32000000 		.4byte	.LVL91
 4184 046a 34000000 		.4byte	.LVL92
 4185 046e 0200     		.2byte	0x2
 4186 0470 31       		.byte	0x31
 4187 0471 9F       		.byte	0x9f
 4188 0472 34000000 		.4byte	.LVL92
 4189 0476 36000000 		.4byte	.LVL93
 4190 047a 0200     		.2byte	0x2
 4191 047c 30       		.byte	0x30
 4192 047d 9F       		.byte	0x9f
 4193 047e 36000000 		.4byte	.LVL93
 4194 0482 48000000 		.4byte	.LFE12
 4195 0486 0100     		.2byte	0x1
 4196 0488 50       		.byte	0x50
 4197 0489 00000000 		.4byte	0
 4198 048d 00000000 		.4byte	0
 4199              	.LLST33:
 4200 0491 0C000000 		.4byte	.LVL87
 4201 0495 13000000 		.4byte	.LVL88-1
 4202 0499 0100     		.2byte	0x1
 4203 049b 51       		.byte	0x51
 4204 049c 00000000 		.4byte	0
 4205 04a0 00000000 		.4byte	0
 4206              	.LLST34:
 4207 04a4 14000000 		.4byte	.LVL88
 4208 04a8 24000000 		.4byte	.LVL89
 4209 04ac 0500     		.2byte	0x5
 4210 04ae 70       		.byte	0x70
 4211 04af 04       		.sleb128 4
ARM GAS  C:\Users\chemi\AppData\Local\Temp\cc21dAG8.s 			page 101


 4212 04b0 06       		.byte	0x6
 4213 04b1 23       		.byte	0x23
 4214 04b2 04       		.uleb128 0x4
 4215 04b3 24000000 		.4byte	.LVL89
 4216 04b7 26000000 		.4byte	.LVL90
 4217 04bb 0100     		.2byte	0x1
 4218 04bd 53       		.byte	0x53
 4219 04be 34000000 		.4byte	.LVL92
 4220 04c2 36000000 		.4byte	.LVL93
 4221 04c6 0500     		.2byte	0x5
 4222 04c8 70       		.byte	0x70
 4223 04c9 04       		.sleb128 4
 4224 04ca 06       		.byte	0x6
 4225 04cb 23       		.byte	0x23
 4226 04cc 04       		.uleb128 0x4
 4227 04cd 36000000 		.4byte	.LVL93
 4228 04d1 48000000 		.4byte	.LFE12
 4229 04d5 0100     		.2byte	0x1
 4230 04d7 53       		.byte	0x53
 4231 04d8 00000000 		.4byte	0
 4232 04dc 00000000 		.4byte	0
 4233              	.LLST35:
 4234 04e0 14000000 		.4byte	.LVL88
 4235 04e4 24000000 		.4byte	.LVL89
 4236 04e8 0100     		.2byte	0x1
 4237 04ea 50       		.byte	0x50
 4238 04eb 34000000 		.4byte	.LVL92
 4239 04ef 36000000 		.4byte	.LVL93
 4240 04f3 0100     		.2byte	0x1
 4241 04f5 50       		.byte	0x50
 4242 04f6 00000000 		.4byte	0
 4243 04fa 00000000 		.4byte	0
 4244              	.LLST36:
 4245 04fe 00000000 		.4byte	.LVL94
 4246 0502 28020000 		.4byte	.LVL139
 4247 0506 0200     		.2byte	0x2
 4248 0508 30       		.byte	0x30
 4249 0509 9F       		.byte	0x9f
 4250 050a 00000000 		.4byte	0
 4251 050e 00000000 		.4byte	0
 4252              	.LLST37:
 4253 0512 8C010000 		.4byte	.LVL130
 4254 0516 98010000 		.4byte	.LVL131
 4255 051a 0100     		.2byte	0x1
 4256 051c 53       		.byte	0x53
 4257 051d 00000000 		.4byte	0
 4258 0521 00000000 		.4byte	0
 4259              	.LLST38:
 4260 0525 50010000 		.4byte	.LVL123
 4261 0529 56010000 		.4byte	.LVL124
 4262 052d 0100     		.2byte	0x1
 4263 052f 53       		.byte	0x53
 4264 0530 6C010000 		.4byte	.LVL126
 4265 0534 73010000 		.4byte	.LVL127-1
 4266 0538 0100     		.2byte	0x1
 4267 053a 53       		.byte	0x53
 4268 053b 00000000 		.4byte	0
ARM GAS  C:\Users\chemi\AppData\Local\Temp\cc21dAG8.s 			page 102


 4269 053f 00000000 		.4byte	0
 4270              	.LLST39:
 4271 0543 0C000000 		.4byte	.LVL95
 4272 0547 38000000 		.4byte	.LVL96
 4273 054b 0100     		.2byte	0x1
 4274 054d 53       		.byte	0x53
 4275 054e DA000000 		.4byte	.LVL112
 4276 0552 DE000000 		.4byte	.LVL113
 4277 0556 0100     		.2byte	0x1
 4278 0558 53       		.byte	0x53
 4279 0559 1C010000 		.4byte	.LVL116
 4280 055d 1E010000 		.4byte	.LVL117
 4281 0561 0100     		.2byte	0x1
 4282 0563 53       		.byte	0x53
 4283 0564 24010000 		.4byte	.LVL118
 4284 0568 26010000 		.4byte	.LVL119
 4285 056c 0100     		.2byte	0x1
 4286 056e 53       		.byte	0x53
 4287 056f 30010000 		.4byte	.LVL120
 4288 0573 48010000 		.4byte	.LVL121
 4289 0577 0100     		.2byte	0x1
 4290 0579 53       		.byte	0x53
 4291 057a 4E010000 		.4byte	.LVL122
 4292 057e 50010000 		.4byte	.LVL123
 4293 0582 0100     		.2byte	0x1
 4294 0584 53       		.byte	0x53
 4295 0585 7A010000 		.4byte	.LVL128
 4296 0589 7D010000 		.4byte	.LVL129-1
 4297 058d 0100     		.2byte	0x1
 4298 058f 53       		.byte	0x53
 4299 0590 A8010000 		.4byte	.LVL133
 4300 0594 AC010000 		.4byte	.LVL134
 4301 0598 0100     		.2byte	0x1
 4302 059a 53       		.byte	0x53
 4303 059b D8010000 		.4byte	.LVL136
 4304 059f DC010000 		.4byte	.LVL137
 4305 05a3 0100     		.2byte	0x1
 4306 05a5 53       		.byte	0x53
 4307 05a6 00000000 		.4byte	0
 4308 05aa 00000000 		.4byte	0
 4309              	.LLST40:
 4310 05ae 0C000000 		.4byte	.LVL95
 4311 05b2 76000000 		.4byte	.LVL99
 4312 05b6 0200     		.2byte	0x2
 4313 05b8 30       		.byte	0x30
 4314 05b9 9F       		.byte	0x9f
 4315 05ba 7E000000 		.4byte	.LVL100
 4316 05be 88000000 		.4byte	.LVL101
 4317 05c2 0200     		.2byte	0x2
 4318 05c4 30       		.byte	0x30
 4319 05c5 9F       		.byte	0x9f
 4320 05c6 88000000 		.4byte	.LVL101
 4321 05ca C1000000 		.4byte	.LVL109-1
 4322 05ce 0100     		.2byte	0x1
 4323 05d0 53       		.byte	0x53
 4324 05d1 C4000000 		.4byte	.LVL110
 4325 05d5 D2000000 		.4byte	.LVL111
ARM GAS  C:\Users\chemi\AppData\Local\Temp\cc21dAG8.s 			page 103


 4326 05d9 0100     		.2byte	0x1
 4327 05db 53       		.byte	0x53
 4328 05dc D2000000 		.4byte	.LVL111
 4329 05e0 04010000 		.4byte	.LVL114
 4330 05e4 0200     		.2byte	0x2
 4331 05e6 30       		.byte	0x30
 4332 05e7 9F       		.byte	0x9f
 4333 05e8 08010000 		.4byte	.LVL115
 4334 05ec 28020000 		.4byte	.LVL139
 4335 05f0 0200     		.2byte	0x2
 4336 05f2 30       		.byte	0x30
 4337 05f3 9F       		.byte	0x9f
 4338 05f4 00000000 		.4byte	0
 4339 05f8 00000000 		.4byte	0
 4340              	.LLST41:
 4341 05fc 88000000 		.4byte	.LVL101
 4342 0600 90000000 		.4byte	.LVL102
 4343 0604 0100     		.2byte	0x1
 4344 0606 52       		.byte	0x52
 4345 0607 90000000 		.4byte	.LVL102
 4346 060b A4000000 		.4byte	.LVL104
 4347 060f 0100     		.2byte	0x1
 4348 0611 55       		.byte	0x55
 4349 0612 A4000000 		.4byte	.LVL104
 4350 0616 A8000000 		.4byte	.LVL105
 4351 061a 0100     		.2byte	0x1
 4352 061c 52       		.byte	0x52
 4353 061d A8000000 		.4byte	.LVL105
 4354 0621 B0000000 		.4byte	.LVL107
 4355 0625 0100     		.2byte	0x1
 4356 0627 55       		.byte	0x55
 4357 0628 B0000000 		.4byte	.LVL107
 4358 062c B2000000 		.4byte	.LVL108
 4359 0630 0100     		.2byte	0x1
 4360 0632 52       		.byte	0x52
 4361 0633 B2000000 		.4byte	.LVL108
 4362 0637 D2000000 		.4byte	.LVL111
 4363 063b 0100     		.2byte	0x1
 4364 063d 55       		.byte	0x55
 4365 063e 00000000 		.4byte	0
 4366 0642 00000000 		.4byte	0
 4367              	.LLST42:
 4368 0646 AE000000 		.4byte	.LVL106
 4369 064a B2000000 		.4byte	.LVL108
 4370 064e 0100     		.2byte	0x1
 4371 0650 50       		.byte	0x50
 4372 0651 00000000 		.4byte	0
 4373 0655 00000000 		.4byte	0
 4374              	.LLST43:
 4375 0659 5E000000 		.4byte	.LVL97
 4376 065d 74000000 		.4byte	.LVL98
 4377 0661 0100     		.2byte	0x1
 4378 0663 50       		.byte	0x50
 4379 0664 74010000 		.4byte	.LVL127
 4380 0668 7A010000 		.4byte	.LVL128
 4381 066c 0100     		.2byte	0x1
 4382 066e 50       		.byte	0x50
ARM GAS  C:\Users\chemi\AppData\Local\Temp\cc21dAG8.s 			page 104


 4383 066f 00000000 		.4byte	0
 4384 0673 00000000 		.4byte	0
 4385              		.section	.debug_aranges,"",%progbits
 4386 0000 7C000000 		.4byte	0x7c
 4387 0004 0200     		.2byte	0x2
 4388 0006 00000000 		.4byte	.Ldebug_info0
 4389 000a 04       		.byte	0x4
 4390 000b 00       		.byte	0
 4391 000c 0000     		.2byte	0
 4392 000e 0000     		.2byte	0
 4393 0010 00000000 		.4byte	.LFB1
 4394 0014 6C000000 		.4byte	.LFE1-.LFB1
 4395 0018 00000000 		.4byte	.LFB2
 4396 001c 80000000 		.4byte	.LFE2-.LFB2
 4397 0020 00000000 		.4byte	.LFB3
 4398 0024 28000000 		.4byte	.LFE3-.LFB3
 4399 0028 00000000 		.4byte	.LFB6
 4400 002c 24000000 		.4byte	.LFE6-.LFB6
 4401 0030 00000000 		.4byte	.LFB5
 4402 0034 28010000 		.4byte	.LFE5-.LFB5
 4403 0038 00000000 		.4byte	.LFB7
 4404 003c 18000000 		.4byte	.LFE7-.LFB7
 4405 0040 00000000 		.4byte	.LFB8
 4406 0044 20000000 		.4byte	.LFE8-.LFB8
 4407 0048 00000000 		.4byte	.LFB4
 4408 004c 74010000 		.4byte	.LFE4-.LFB4
 4409 0050 00000000 		.4byte	.LFB9
 4410 0054 40000000 		.4byte	.LFE9-.LFB9
 4411 0058 00000000 		.4byte	.LFB10
 4412 005c 54000000 		.4byte	.LFE10-.LFB10
 4413 0060 00000000 		.4byte	.LFB11
 4414 0064 74000000 		.4byte	.LFE11-.LFB11
 4415 0068 00000000 		.4byte	.LFB12
 4416 006c 48000000 		.4byte	.LFE12-.LFB12
 4417 0070 00000000 		.4byte	.LFB0
 4418 0074 74020000 		.4byte	.LFE0-.LFB0
 4419 0078 00000000 		.4byte	0
 4420 007c 00000000 		.4byte	0
 4421              		.section	.debug_ranges,"",%progbits
 4422              	.Ldebug_ranges0:
 4423 0000 46000000 		.4byte	.LBB12
 4424 0004 4C010000 		.4byte	.LBE12
 4425 0008 52010000 		.4byte	.LBB17
 4426 000c 56010000 		.4byte	.LBE17
 4427 0010 00000000 		.4byte	0
 4428 0014 00000000 		.4byte	0
 4429 0018 00000000 		.4byte	.LFB1
 4430 001c 6C000000 		.4byte	.LFE1
 4431 0020 00000000 		.4byte	.LFB2
 4432 0024 80000000 		.4byte	.LFE2
 4433 0028 00000000 		.4byte	.LFB3
 4434 002c 28000000 		.4byte	.LFE3
 4435 0030 00000000 		.4byte	.LFB6
 4436 0034 24000000 		.4byte	.LFE6
 4437 0038 00000000 		.4byte	.LFB5
 4438 003c 28010000 		.4byte	.LFE5
 4439 0040 00000000 		.4byte	.LFB7
ARM GAS  C:\Users\chemi\AppData\Local\Temp\cc21dAG8.s 			page 105


 4440 0044 18000000 		.4byte	.LFE7
 4441 0048 00000000 		.4byte	.LFB8
 4442 004c 20000000 		.4byte	.LFE8
 4443 0050 00000000 		.4byte	.LFB4
 4444 0054 74010000 		.4byte	.LFE4
 4445 0058 00000000 		.4byte	.LFB9
 4446 005c 40000000 		.4byte	.LFE9
 4447 0060 00000000 		.4byte	.LFB10
 4448 0064 54000000 		.4byte	.LFE10
 4449 0068 00000000 		.4byte	.LFB11
 4450 006c 74000000 		.4byte	.LFE11
 4451 0070 00000000 		.4byte	.LFB12
 4452 0074 48000000 		.4byte	.LFE12
 4453 0078 00000000 		.4byte	.LFB0
 4454 007c 74020000 		.4byte	.LFE0
 4455 0080 00000000 		.4byte	0
 4456 0084 00000000 		.4byte	0
 4457              		.section	.debug_line,"",%progbits
 4458              	.Ldebug_line0:
 4459 0000 B7030000 		.section	.debug_str,"MS",%progbits,1
 4459      02007100 
 4459      00000201 
 4459      FB0E0D00 
 4459      01010101 
 4460              	.LASF56:
 4461 0000 72774472 		.ascii	"rwDr\000"
 4461      00
 4462              	.LASF104:
 4463 0005 55534255 		.ascii	"USBUART_idSerialNumberStringDescriptor\000"
 4463      4152545F 
 4463      69645365 
 4463      7269616C 
 4463      4E756D62 
 4464              	.LASF26:
 4465 002c 62756666 		.ascii	"bufferSize\000"
 4465      65725369 
 4465      7A6500
 4466              	.LASF117:
 4467 0037 55534255 		.ascii	"USBUART_DispatchClassRqst\000"
 4467      4152545F 
 4467      44697370 
 4467      61746368 
 4467      436C6173 
 4468              	.LASF90:
 4469 0051 636F6E66 		.ascii	"configurationN\000"
 4469      69677572 
 4469      6174696F 
 4469      6E4E00
 4470              	.LASF85:
 4471 0060 55534255 		.ascii	"USBUART_ClearEndpointHalt\000"
 4471      4152545F 
 4471      436C6561 
 4471      72456E64 
 4471      706F696E 
 4472              	.LASF58:
 4473 007a 73696545 		.ascii	"sieEp\000"
 4473      7000
ARM GAS  C:\Users\chemi\AppData\Local\Temp\cc21dAG8.s 			page 106


 4474              	.LASF66:
 4475 0080 55534255 		.ascii	"USBUART_ConfigAltChanged\000"
 4475      4152545F 
 4475      436F6E66 
 4475      6967416C 
 4475      74436861 
 4476              	.LASF39:
 4477 0099 545F5553 		.ascii	"T_USBUART_TD\000"
 4477      42554152 
 4477      545F5444 
 4477      00
 4478              	.LASF27:
 4479 00a6 696E7465 		.ascii	"interface\000"
 4479      72666163 
 4479      6500
 4480              	.LASF99:
 4481 00b0 55534255 		.ascii	"USBUART_deviceStatus\000"
 4481      4152545F 
 4481      64657669 
 4481      63655374 
 4481      61747573 
 4482              	.LASF8:
 4483 00c5 756E7369 		.ascii	"unsigned int\000"
 4483      676E6564 
 4483      20696E74 
 4483      00
 4484              	.LASF89:
 4485 00d2 696E7465 		.ascii	"interfaceNumber\000"
 4485      72666163 
 4485      654E756D 
 4485      62657200 
 4486              	.LASF122:
 4487 00e2 55534255 		.ascii	"USBUART_GetDeviceTablePtr\000"
 4487      4152545F 
 4487      47657444 
 4487      65766963 
 4487      65546162 
 4488              	.LASF91:
 4489 00fc 626D5265 		.ascii	"bmRequestType\000"
 4489      71756573 
 4489      74547970 
 4489      6500
 4490              	.LASF78:
 4491 010a 55534255 		.ascii	"USBUART_GetInterfaceClassTablePtr\000"
 4491      4152545F 
 4491      47657449 
 4491      6E746572 
 4491      66616365 
 4492              	.LASF97:
 4493 012c 55534255 		.ascii	"USBUART_configuration\000"
 4493      4152545F 
 4493      636F6E66 
 4493      69677572 
 4493      6174696F 
 4494              	.LASF16:
 4495 0142 72656738 		.ascii	"reg8\000"
 4495      00
ARM GAS  C:\Users\chemi\AppData\Local\Temp\cc21dAG8.s 			page 107


 4496              	.LASF68:
 4497 0147 70446573 		.ascii	"pDescr\000"
 4497      637200
 4498              	.LASF74:
 4499 014e 55534255 		.ascii	"USBUART_EpStateInit\000"
 4499      4152545F 
 4499      45705374 
 4499      61746549 
 4499      6E697400 
 4500              	.LASF83:
 4501 0162 55534255 		.ascii	"USBUART_SetEndpointHalt\000"
 4501      4152545F 
 4501      53657445 
 4501      6E64706F 
 4501      696E7448 
 4502              	.LASF109:
 4503 017a 55534255 		.ascii	"USBUART_interfaceStatus\000"
 4503      4152545F 
 4503      696E7465 
 4503      72666163 
 4503      65537461 
 4504              	.LASF102:
 4505 0192 55534255 		.ascii	"USBUART_STRING_DESCRIPTORS\000"
 4505      4152545F 
 4505      53545249 
 4505      4E475F44 
 4505      45534352 
 4506              	.LASF111:
 4507 01ad 55534255 		.ascii	"USBUART_EP\000"
 4507      4152545F 
 4507      455000
 4508              	.LASF29:
 4509 01b8 616C7453 		.ascii	"altSetting\000"
 4509      65747469 
 4509      6E6700
 4510              	.LASF22:
 4511 01c3 6570546F 		.ascii	"epToggle\000"
 4511      67676C65 
 4511      00
 4512              	.LASF12:
 4513 01cc 666C6F61 		.ascii	"float\000"
 4513      7400
 4514              	.LASF36:
 4515 01d2 636F756E 		.ascii	"count\000"
 4515      7400
 4516              	.LASF41:
 4517 01d8 545F5553 		.ascii	"T_USBUART_LUT\000"
 4517      42554152 
 4517      545F4C55 
 4517      5400
 4518              	.LASF52:
 4519 01e6 72775761 		.ascii	"rwWa\000"
 4519      00
 4520              	.LASF7:
 4521 01eb 6C6F6E67 		.ascii	"long long unsigned int\000"
 4521      206C6F6E 
 4521      6720756E 
ARM GAS  C:\Users\chemi\AppData\Local\Temp\cc21dAG8.s 			page 108


 4521      7369676E 
 4521      65642069 
 4522              	.LASF106:
 4523 0202 55534255 		.ascii	"USBUART_interfaceSetting\000"
 4523      4152545F 
 4523      696E7465 
 4523      72666163 
 4523      65536574 
 4524              	.LASF32:
 4525 021b 545F5553 		.ascii	"T_USBUART_EP_SETTINGS_BLOCK\000"
 4525      42554152 
 4525      545F4550 
 4525      5F534554 
 4525      54494E47 
 4526              	.LASF57:
 4527 0237 55534255 		.ascii	"USBUART_arb_ep_struct\000"
 4527      4152545F 
 4527      6172625F 
 4527      65705F73 
 4527      74727563 
 4528              	.LASF49:
 4529 024d 6570496E 		.ascii	"epIntEn\000"
 4529      74456E00 
 4530              	.LASF76:
 4531 0255 636F6E66 		.ascii	"confIndex\000"
 4531      496E6465 
 4531      7800
 4532              	.LASF80:
 4533 025f 63757272 		.ascii	"currentInterfacesNum\000"
 4533      656E7449 
 4533      6E746572 
 4533      66616365 
 4533      734E756D 
 4534              	.LASF37:
 4535 0274 70446174 		.ascii	"pData\000"
 4535      6100
 4536              	.LASF120:
 4537 027a 433A5C55 		.ascii	"C:\\Users\\chemi\\UD3\\UARTldr_QFN.cydsn\000"
 4537      73657273 
 4537      5C636865 
 4537      6D695C55 
 4537      44335C55 
 4538              	.LASF38:
 4539 029f 70537461 		.ascii	"pStatusBlock\000"
 4539      74757342 
 4539      6C6F636B 
 4539      00
 4540              	.LASF81:
 4541 02ac 55534255 		.ascii	"USBUART_TerminateEP\000"
 4541      4152545F 
 4541      5465726D 
 4541      696E6174 
 4541      65455000 
 4542              	.LASF96:
 4543 02c0 55534255 		.ascii	"USBUART_device\000"
 4543      4152545F 
 4543      64657669 
ARM GAS  C:\Users\chemi\AppData\Local\Temp\cc21dAG8.s 			page 109


 4543      636500
 4544              	.LASF15:
 4545 02cf 63686172 		.ascii	"char\000"
 4545      00
 4546              	.LASF60:
 4547 02d4 61726245 		.ascii	"arbEp\000"
 4547      7000
 4548              	.LASF105:
 4549 02da 55534255 		.ascii	"USBUART_interfaceNumber\000"
 4549      4152545F 
 4549      696E7465 
 4549      72666163 
 4549      654E756D 
 4550              	.LASF10:
 4551 02f2 75696E74 		.ascii	"uint16\000"
 4551      313600
 4552              	.LASF33:
 4553 02f9 73746174 		.ascii	"status\000"
 4553      757300
 4554              	.LASF14:
 4555 0300 63686172 		.ascii	"char8\000"
 4555      3800
 4556              	.LASF25:
 4557 0306 62756666 		.ascii	"buffOffset\000"
 4557      4F666673 
 4557      657400
 4558              	.LASF112:
 4559 0311 55534255 		.ascii	"USBUART_currentTD\000"
 4559      4152545F 
 4559      63757272 
 4559      656E7454 
 4559      4400
 4560              	.LASF46:
 4561 0323 65704372 		.ascii	"epCr0\000"
 4561      3000
 4562              	.LASF61:
 4563 0329 55534255 		.ascii	"USBUART_arb_eps_struct\000"
 4563      4152545F 
 4563      6172625F 
 4563      6570735F 
 4563      73747275 
 4564              	.LASF63:
 4565 0340 65705479 		.ascii	"epType\000"
 4565      706500
 4566              	.LASF84:
 4567 0347 72657175 		.ascii	"requestHandled\000"
 4567      65737448 
 4567      616E646C 
 4567      656400
 4568              	.LASF6:
 4569 0356 6C6F6E67 		.ascii	"long long int\000"
 4569      206C6F6E 
 4569      6720696E 
 4569      7400
 4570              	.LASF31:
 4571 0364 624D6973 		.ascii	"bMisc\000"
 4571      6300
ARM GAS  C:\Users\chemi\AppData\Local\Temp\cc21dAG8.s 			page 110


 4572              	.LASF44:
 4573 036a 6570436E 		.ascii	"epCnt0\000"
 4573      743000
 4574              	.LASF45:
 4575 0371 6570436E 		.ascii	"epCnt1\000"
 4575      743100
 4576              	.LASF47:
 4577 0378 55534255 		.ascii	"USBUART_sie_ep_struct\000"
 4577      4152545F 
 4577      7369655F 
 4577      65705F73 
 4577      74727563 
 4578              	.LASF82:
 4579 038e 65704E75 		.ascii	"epNumber\000"
 4579      6D626572 
 4579      00
 4580              	.LASF101:
 4581 0397 55534255 		.ascii	"USBUART_TABLE\000"
 4581      4152545F 
 4581      5441424C 
 4581      4500
 4582              	.LASF35:
 4583 03a5 545F5553 		.ascii	"T_USBUART_XFER_STATUS_BLOCK\000"
 4583      42554152 
 4583      545F5846 
 4583      45525F53 
 4583      54415455 
 4584              	.LASF21:
 4585 03c1 68774570 		.ascii	"hwEpState\000"
 4585      53746174 
 4585      6500
 4586              	.LASF70:
 4587 03cb 63646343 		.ascii	"cdcComNums\000"
 4587      6F6D4E75 
 4587      6D7300
 4588              	.LASF11:
 4589 03d6 75696E74 		.ascii	"uint32\000"
 4589      333200
 4590              	.LASF79:
 4591 03dd 70496E74 		.ascii	"pInterfaceClass\000"
 4591      65726661 
 4591      6365436C 
 4591      61737300 
 4592              	.LASF75:
 4593 03ed 64657363 		.ascii	"descr\000"
 4593      7200
 4594              	.LASF67:
 4595 03f3 55534255 		.ascii	"USBUART_Config\000"
 4595      4152545F 
 4595      436F6E66 
 4595      696700
 4596              	.LASF88:
 4597 0402 55534255 		.ascii	"USBUART_HandleStandardRqst\000"
 4597      4152545F 
 4597      48616E64 
 4597      6C655374 
 4597      616E6461 
ARM GAS  C:\Users\chemi\AppData\Local\Temp\cc21dAG8.s 			page 111


 4598              	.LASF98:
 4599 041d 55534255 		.ascii	"USBUART_configurationChanged\000"
 4599      4152545F 
 4599      636F6E66 
 4599      69677572 
 4599      6174696F 
 4600              	.LASF100:
 4601 043a 55534255 		.ascii	"USBUART_DEVICE0_DESCR\000"
 4601      4152545F 
 4601      44455649 
 4601      4345305F 
 4601      44455343 
 4602              	.LASF17:
 4603 0450 6C6F6E67 		.ascii	"long double\000"
 4603      20646F75 
 4603      626C6500 
 4604              	.LASF95:
 4605 045c 55534255 		.ascii	"USBUART_tBuffer\000"
 4605      4152545F 
 4605      74427566 
 4605      66657200 
 4606              	.LASF69:
 4607 046c 62756666 		.ascii	"buffCount\000"
 4607      436F756E 
 4607      7400
 4608              	.LASF2:
 4609 0476 73686F72 		.ascii	"short int\000"
 4609      7420696E 
 4609      7400
 4610              	.LASF24:
 4611 0480 65704D6F 		.ascii	"epMode\000"
 4611      646500
 4612              	.LASF4:
 4613 0487 6C6F6E67 		.ascii	"long int\000"
 4613      20696E74 
 4613      00
 4614              	.LASF34:
 4615 0490 6C656E67 		.ascii	"length\000"
 4615      746800
 4616              	.LASF55:
 4617 0497 72775261 		.ascii	"rwRaMsb\000"
 4617      4D736200 
 4618              	.LASF77:
 4619 049f 55534255 		.ascii	"USBUART_GetConfigTablePtr\000"
 4619      4152545F 
 4619      47657443 
 4619      6F6E6669 
 4619      67546162 
 4620              	.LASF48:
 4621 04b9 65704366 		.ascii	"epCfg\000"
 4621      6700
 4622              	.LASF43:
 4623 04bf 55534255 		.ascii	"USBUART_ep0_data_struct\000"
 4623      4152545F 
 4623      6570305F 
 4623      64617461 
 4623      5F737472 
ARM GAS  C:\Users\chemi\AppData\Local\Temp\cc21dAG8.s 			page 112


 4624              	.LASF119:
 4625 04d7 47656E65 		.ascii	"Generated_Source\\PSoC5\\USBUART_std.c\000"
 4625      72617465 
 4625      645F536F 
 4625      75726365 
 4625      5C50536F 
 4626              	.LASF72:
 4627 04fc 55534255 		.ascii	"USBUART_ReadDieID\000"
 4627      4152545F 
 4627      52656164 
 4627      44696549 
 4627      4400
 4628              	.LASF65:
 4629 050e 70546D70 		.ascii	"pTmp\000"
 4629      00
 4630              	.LASF73:
 4631 0513 55534255 		.ascii	"USBUART_ConfigReg\000"
 4631      4152545F 
 4631      436F6E66 
 4631      69675265 
 4631      6700
 4632              	.LASF18:
 4633 0525 73697A65 		.ascii	"sizetype\000"
 4633      74797065 
 4633      00
 4634              	.LASF5:
 4635 052e 6C6F6E67 		.ascii	"long unsigned int\000"
 4635      20756E73 
 4635      69676E65 
 4635      6420696E 
 4635      7400
 4636              	.LASF28:
 4637 0540 545F5553 		.ascii	"T_USBUART_EP_CTL_BLOCK\000"
 4637      42554152 
 4637      545F4550 
 4637      5F43544C 
 4637      5F424C4F 
 4638              	.LASF62:
 4639 0557 63757245 		.ascii	"curEp\000"
 4639      7000
 4640              	.LASF93:
 4641 055d 6E537472 		.ascii	"nStr\000"
 4641      00
 4642              	.LASF50:
 4643 0562 65705372 		.ascii	"epSr\000"
 4643      00
 4644              	.LASF40:
 4645 0567 705F6C69 		.ascii	"p_list\000"
 4645      737400
 4646              	.LASF86:
 4647 056e 55534255 		.ascii	"USBUART_ValidateAlternateSetting\000"
 4647      4152545F 
 4647      56616C69 
 4647      64617465 
 4647      416C7465 
 4648              	.LASF92:
 4649 058f 70537472 		.ascii	"pStr\000"
ARM GAS  C:\Users\chemi\AppData\Local\Temp\cc21dAG8.s 			page 113


 4649      00
 4650              	.LASF53:
 4651 0594 72775761 		.ascii	"rwWaMsb\000"
 4651      4D736200 
 4652              	.LASF1:
 4653 059c 756E7369 		.ascii	"unsigned char\000"
 4653      676E6564 
 4653      20636861 
 4653      7200
 4654              	.LASF114:
 4655 05aa 55534255 		.ascii	"USBUART_Cdc_EpInit\000"
 4655      4152545F 
 4655      4364635F 
 4655      4570496E 
 4655      697400
 4656              	.LASF113:
 4657 05bd 43794765 		.ascii	"CyGetUniqueId\000"
 4657      74556E69 
 4657      71756549 
 4657      6400
 4658              	.LASF94:
 4659 05cb 64657363 		.ascii	"descrLength\000"
 4659      724C656E 
 4659      67746800 
 4660              	.LASF121:
 4661 05d7 636C6561 		.ascii	"clearAltSetting\000"
 4661      72416C74 
 4661      53657474 
 4661      696E6700 
 4662              	.LASF30:
 4663 05e7 61747472 		.ascii	"attributes\000"
 4663      69627574 
 4663      657300
 4664              	.LASF118:
 4665 05f2 474E5520 		.ascii	"GNU C11 5.4.1 20160609 (release) [ARM/embedded-5-br"
 4665      43313120 
 4665      352E342E 
 4665      31203230 
 4665      31363036 
 4666 0625 616E6368 		.ascii	"anch revision 237715] -mcpu=cortex-m3 -mthumb -g -O"
 4666      20726576 
 4666      6973696F 
 4666      6E203233 
 4666      37373135 
 4667 0658 73202D66 		.ascii	"s -ffunction-sections -ffat-lto-objects\000"
 4667      66756E63 
 4667      74696F6E 
 4667      2D736563 
 4667      74696F6E 
 4668              	.LASF59:
 4669 0680 55534255 		.ascii	"USBUART_sie_eps_struct\000"
 4669      4152545F 
 4669      7369655F 
 4669      6570735F 
 4669      73747275 
 4670              	.LASF23:
 4671 0697 61646472 		.ascii	"addr\000"
ARM GAS  C:\Users\chemi\AppData\Local\Temp\cc21dAG8.s 			page 114


 4671      00
 4672              	.LASF110:
 4673 069c 55534255 		.ascii	"USBUART_interfaceClass\000"
 4673      4152545F 
 4673      696E7465 
 4673      72666163 
 4673      65436C61 
 4674              	.LASF54:
 4675 06b3 72775261 		.ascii	"rwRa\000"
 4675      00
 4676              	.LASF108:
 4677 06b8 55534255 		.ascii	"USBUART_deviceAddress\000"
 4677      4152545F 
 4677      64657669 
 4677      63654164 
 4677      64726573 
 4678              	.LASF0:
 4679 06ce 7369676E 		.ascii	"signed char\000"
 4679      65642063 
 4679      68617200 
 4680              	.LASF3:
 4681 06da 73686F72 		.ascii	"short unsigned int\000"
 4681      7420756E 
 4681      7369676E 
 4681      65642069 
 4681      6E7400
 4682              	.LASF71:
 4683 06ed 756E6971 		.ascii	"uniqueId\000"
 4683      75654964 
 4683      00
 4684              	.LASF51:
 4685 06f6 72657365 		.ascii	"reserved\000"
 4685      72766564 
 4685      00
 4686              	.LASF115:
 4687 06ff 55534255 		.ascii	"USBUART_InitNoDataControlTransfer\000"
 4687      4152545F 
 4687      496E6974 
 4687      4E6F4461 
 4687      7461436F 
 4688              	.LASF9:
 4689 0721 75696E74 		.ascii	"uint8\000"
 4689      3800
 4690              	.LASF13:
 4691 0727 646F7562 		.ascii	"double\000"
 4691      6C6500
 4692              	.LASF116:
 4693 072e 55534255 		.ascii	"USBUART_InitControlRead\000"
 4693      4152545F 
 4693      496E6974 
 4693      436F6E74 
 4693      726F6C52 
 4694              	.LASF64:
 4695 0746 696E7465 		.ascii	"interfaceNum\000"
 4695      72666163 
 4695      654E756D 
 4695      00
ARM GAS  C:\Users\chemi\AppData\Local\Temp\cc21dAG8.s 			page 115


 4696              	.LASF87:
 4697 0753 63757249 		.ascii	"curInterfacesNum\000"
 4697      6E746572 
 4697      66616365 
 4697      734E756D 
 4697      00
 4698              	.LASF19:
 4699 0764 61747472 		.ascii	"attrib\000"
 4699      696200
 4700              	.LASF20:
 4701 076b 61706945 		.ascii	"apiEpState\000"
 4701      70537461 
 4701      746500
 4702              	.LASF103:
 4703 0776 55534255 		.ascii	"USBUART_MSOS_DESCRIPTOR\000"
 4703      4152545F 
 4703      4D534F53 
 4703      5F444553 
 4703      43524950 
 4704              	.LASF42:
 4705 078e 65704461 		.ascii	"epData\000"
 4705      746100
 4706              	.LASF107:
 4707 0795 55534255 		.ascii	"USBUART_interfaceSettingLast\000"
 4707      4152545F 
 4707      696E7465 
 4707      72666163 
 4707      65536574 
 4708              		.ident	"GCC: (GNU Tools for ARM Embedded Processors) 5.4.1 20160609 (release) [ARM/embedded-5-bran
